ARM GAS  C:\Users\jo\AppData\Local\Temp\cc05uoEL.s 			page 1


   1              		.syntax unified
   2              		.cpu cortex-m4
   3              		.fpu softvfp
   4              		.eabi_attribute 20, 1
   5              		.eabi_attribute 21, 1
   6              		.eabi_attribute 23, 3
   7              		.eabi_attribute 24, 1
   8              		.eabi_attribute 25, 1
   9              		.eabi_attribute 26, 1
  10              		.eabi_attribute 30, 2
  11              		.eabi_attribute 34, 1
  12              		.eabi_attribute 18, 4
  13              		.thumb
  14              		.file	"pal_lld.c"
  15              		.text
  16              	.Ltext0:
  17              		.cfi_sections	.debug_frame
  18              		.section	.text._pal_lld_init,"ax",%progbits
  19              		.align	2
  20              		.p2align 4,,15
  21              		.global	_pal_lld_init
  22              		.thumb
  23              		.thumb_func
  24              		.type	_pal_lld_init, %function
  25              	_pal_lld_init:
  26              	.LFB256:
  27              		.file 1 "../../../os/hal/ports/STM32/LLD/GPIOv2/pal_lld.c"
  28              		.loc 1 92 0
  29              		.cfi_startproc
  30              		@ args = 0, pretend = 0, frame = 0
  31              		@ frame_needed = 0, uses_anonymous_args = 0
  32              	.LVL0:
  33 0000 2DE9F04F 		push	{r4, r5, r6, r7, r8, r9, r10, fp, lr}
  34              		.cfi_def_cfa_offset 36
  35              		.cfi_offset 4, -36
  36              		.cfi_offset 5, -32
  37              		.cfi_offset 6, -28
  38              		.cfi_offset 7, -24
  39              		.cfi_offset 8, -20
  40              		.cfi_offset 9, -16
  41              		.cfi_offset 10, -12
  42              		.cfi_offset 11, -8
  43              		.cfi_offset 14, -4
  44              		.loc 1 105 0
  45 0004 DFF8B481 		ldr	r8, .L3+24
  46              	.LBB20:
  47              	.LBB21:
  48              		.loc 1 67 0
  49 0008 DFF8B4C1 		ldr	ip, .L3+28
  50              	.LBE21:
  51              	.LBE20:
  52              		.loc 1 105 0
  53 000c D8F830A0 		ldr	r10, [r8, #48]
  54              	.LBB23:
  55              	.LBB24:
  56              		.loc 1 67 0
  57 0010 DFF8B0E1 		ldr	lr, .L3+32
ARM GAS  C:\Users\jo\AppData\Local\Temp\cc05uoEL.s 			page 2


  58              	.LBE24:
  59              	.LBE23:
  60              	.LBB26:
  61              	.LBB27:
  62 0014 634F     		ldr	r7, .L3
  63              	.LBE27:
  64              	.LBE26:
  65              	.LBB29:
  66              	.LBB30:
  67 0016 644E     		ldr	r6, .L3+4
  68              	.LBE30:
  69              	.LBE29:
  70              	.LBB32:
  71              	.LBB33:
  72 0018 644D     		ldr	r5, .L3+8
  73              	.LBE33:
  74              	.LBE32:
  75              	.LBB35:
  76              	.LBB36:
  77 001a 654C     		ldr	r4, .L3+12
  78              	.LBE36:
  79              	.LBE35:
  80              	.LBB38:
  81              	.LBB39:
  82 001c 6549     		ldr	r1, .L3+16
  83              	.LBE39:
  84              	.LBE38:
  85              	.LBB41:
  86              	.LBB42:
  87 001e 664A     		ldr	r2, .L3+20
  88              	.LBE42:
  89              	.LBE41:
  90              	.LBB44:
  91              	.LBB45:
  92 0020 DFF8A4B1 		ldr	fp, .L3+36
  93              	.LBE45:
  94              	.LBE44:
  95              		.loc 1 105 0
  96 0024 40F2FF19 		movw	r9, #511
  97 0028 4AEA090A 		orr	r10, r10, r9
  98 002c C8F830A0 		str	r10, [r8, #48]
  99              		.loc 1 106 0
 100 0030 D8F850A0 		ldr	r10, [r8, #80]
 101 0034 4AEA0909 		orr	r9, r10, r9
 102 0038 C8F85090 		str	r9, [r8, #80]
 103              	.LVL1:
 104              	.LBB47:
 105              	.LBB22:
 106              		.loc 1 67 0
 107 003c 4368     		ldr	r3, [r0, #4]
 108 003e CCF80430 		str	r3, [ip, #4]
 109              		.loc 1 68 0
 110 0042 8368     		ldr	r3, [r0, #8]
 111 0044 CCF80830 		str	r3, [ip, #8]
 112              		.loc 1 69 0
 113 0048 C368     		ldr	r3, [r0, #12]
 114 004a CCF80C30 		str	r3, [ip, #12]
ARM GAS  C:\Users\jo\AppData\Local\Temp\cc05uoEL.s 			page 3


 115              		.loc 1 70 0
 116 004e 0369     		ldr	r3, [r0, #16]
 117 0050 CCF81430 		str	r3, [ip, #20]
 118              		.loc 1 71 0
 119 0054 4369     		ldr	r3, [r0, #20]
 120 0056 CCF82030 		str	r3, [ip, #32]
 121              		.loc 1 72 0
 122 005a 8369     		ldr	r3, [r0, #24]
 123 005c CCF82430 		str	r3, [ip, #36]
 124              		.loc 1 73 0
 125 0060 0368     		ldr	r3, [r0]
 126 0062 CCF80030 		str	r3, [ip]
 127              	.LVL2:
 128              	.LBE22:
 129              	.LBE47:
 130              	.LBB48:
 131              	.LBB25:
 132              		.loc 1 67 0
 133 0066 036A     		ldr	r3, [r0, #32]
 134 0068 CEF80430 		str	r3, [lr, #4]
 135              		.loc 1 68 0
 136 006c 436A     		ldr	r3, [r0, #36]
 137 006e CEF80830 		str	r3, [lr, #8]
 138              		.loc 1 69 0
 139 0072 836A     		ldr	r3, [r0, #40]
 140 0074 CEF80C30 		str	r3, [lr, #12]
 141              		.loc 1 70 0
 142 0078 C36A     		ldr	r3, [r0, #44]
 143 007a CEF81430 		str	r3, [lr, #20]
 144              		.loc 1 71 0
 145 007e 036B     		ldr	r3, [r0, #48]
 146 0080 CEF82030 		str	r3, [lr, #32]
 147              		.loc 1 72 0
 148 0084 436B     		ldr	r3, [r0, #52]
 149 0086 CEF82430 		str	r3, [lr, #36]
 150              		.loc 1 73 0
 151 008a C369     		ldr	r3, [r0, #28]
 152 008c CEF80030 		str	r3, [lr]
 153              	.LVL3:
 154              	.LBE25:
 155              	.LBE48:
 156              	.LBB49:
 157              	.LBB28:
 158              		.loc 1 67 0
 159 0090 C36B     		ldr	r3, [r0, #60]
 160 0092 7B60     		str	r3, [r7, #4]
 161              		.loc 1 68 0
 162 0094 036C     		ldr	r3, [r0, #64]
 163 0096 BB60     		str	r3, [r7, #8]
 164              		.loc 1 69 0
 165 0098 436C     		ldr	r3, [r0, #68]
 166 009a FB60     		str	r3, [r7, #12]
 167              		.loc 1 70 0
 168 009c 836C     		ldr	r3, [r0, #72]
 169 009e 7B61     		str	r3, [r7, #20]
 170              		.loc 1 71 0
 171 00a0 C36C     		ldr	r3, [r0, #76]
ARM GAS  C:\Users\jo\AppData\Local\Temp\cc05uoEL.s 			page 4


 172 00a2 3B62     		str	r3, [r7, #32]
 173              		.loc 1 72 0
 174 00a4 036D     		ldr	r3, [r0, #80]
 175 00a6 7B62     		str	r3, [r7, #36]
 176              		.loc 1 73 0
 177 00a8 836B     		ldr	r3, [r0, #56]
 178 00aa 3B60     		str	r3, [r7]
 179              	.LVL4:
 180              	.LBE28:
 181              	.LBE49:
 182              	.LBB50:
 183              	.LBB31:
 184              		.loc 1 67 0
 185 00ac 876D     		ldr	r7, [r0, #88]
 186 00ae 7760     		str	r7, [r6, #4]
 187              		.loc 1 68 0
 188 00b0 C76D     		ldr	r7, [r0, #92]
 189 00b2 B760     		str	r7, [r6, #8]
 190              		.loc 1 69 0
 191 00b4 076E     		ldr	r7, [r0, #96]
 192 00b6 F760     		str	r7, [r6, #12]
 193              		.loc 1 70 0
 194 00b8 476E     		ldr	r7, [r0, #100]
 195 00ba 7761     		str	r7, [r6, #20]
 196              		.loc 1 71 0
 197 00bc 876E     		ldr	r7, [r0, #104]
 198 00be 3762     		str	r7, [r6, #32]
 199              		.loc 1 72 0
 200 00c0 C76E     		ldr	r7, [r0, #108]
 201 00c2 7762     		str	r7, [r6, #36]
 202              		.loc 1 73 0
 203 00c4 476D     		ldr	r7, [r0, #84]
 204 00c6 3760     		str	r7, [r6]
 205              	.LVL5:
 206              	.LBE31:
 207              	.LBE50:
 208              	.LBB51:
 209              	.LBB34:
 210              		.loc 1 67 0
 211 00c8 466F     		ldr	r6, [r0, #116]
 212 00ca 6E60     		str	r6, [r5, #4]
 213              		.loc 1 68 0
 214 00cc 866F     		ldr	r6, [r0, #120]
 215 00ce AE60     		str	r6, [r5, #8]
 216              		.loc 1 69 0
 217 00d0 C66F     		ldr	r6, [r0, #124]
 218 00d2 EE60     		str	r6, [r5, #12]
 219              		.loc 1 70 0
 220 00d4 D0F88060 		ldr	r6, [r0, #128]
 221 00d8 6E61     		str	r6, [r5, #20]
 222              		.loc 1 71 0
 223 00da D0F88460 		ldr	r6, [r0, #132]
 224 00de 2E62     		str	r6, [r5, #32]
 225              		.loc 1 72 0
 226 00e0 D0F88860 		ldr	r6, [r0, #136]
 227 00e4 6E62     		str	r6, [r5, #36]
 228              		.loc 1 73 0
ARM GAS  C:\Users\jo\AppData\Local\Temp\cc05uoEL.s 			page 5


 229 00e6 066F     		ldr	r6, [r0, #112]
 230 00e8 2E60     		str	r6, [r5]
 231              	.LVL6:
 232              	.LBE34:
 233              	.LBE51:
 234              	.LBB52:
 235              	.LBB37:
 236              		.loc 1 67 0
 237 00ea D0F89050 		ldr	r5, [r0, #144]
 238 00ee 6560     		str	r5, [r4, #4]
 239              		.loc 1 68 0
 240 00f0 D0F89450 		ldr	r5, [r0, #148]
 241 00f4 A560     		str	r5, [r4, #8]
 242              		.loc 1 69 0
 243 00f6 D0F89850 		ldr	r5, [r0, #152]
 244 00fa E560     		str	r5, [r4, #12]
 245              		.loc 1 70 0
 246 00fc D0F89C50 		ldr	r5, [r0, #156]
 247 0100 6561     		str	r5, [r4, #20]
 248              		.loc 1 71 0
 249 0102 D0F8A050 		ldr	r5, [r0, #160]
 250 0106 2562     		str	r5, [r4, #32]
 251              		.loc 1 72 0
 252 0108 D0F8A450 		ldr	r5, [r0, #164]
 253 010c 6562     		str	r5, [r4, #36]
 254              		.loc 1 73 0
 255 010e D0F88C50 		ldr	r5, [r0, #140]
 256 0112 2560     		str	r5, [r4]
 257              	.LVL7:
 258              	.LBE37:
 259              	.LBE52:
 260              	.LBB53:
 261              	.LBB40:
 262              		.loc 1 67 0
 263 0114 D0F8AC40 		ldr	r4, [r0, #172]
 264 0118 4C60     		str	r4, [r1, #4]
 265              		.loc 1 68 0
 266 011a D0F8B040 		ldr	r4, [r0, #176]
 267 011e 8C60     		str	r4, [r1, #8]
 268              		.loc 1 69 0
 269 0120 D0F8B440 		ldr	r4, [r0, #180]
 270 0124 CC60     		str	r4, [r1, #12]
 271              		.loc 1 70 0
 272 0126 D0F8B840 		ldr	r4, [r0, #184]
 273 012a 4C61     		str	r4, [r1, #20]
 274              		.loc 1 71 0
 275 012c D0F8BC40 		ldr	r4, [r0, #188]
 276 0130 0C62     		str	r4, [r1, #32]
 277              		.loc 1 72 0
 278 0132 D0F8C040 		ldr	r4, [r0, #192]
 279 0136 4C62     		str	r4, [r1, #36]
 280              		.loc 1 73 0
 281 0138 D0F8A840 		ldr	r4, [r0, #168]
 282 013c 0C60     		str	r4, [r1]
 283              	.LVL8:
 284              	.LBE40:
 285              	.LBE53:
ARM GAS  C:\Users\jo\AppData\Local\Temp\cc05uoEL.s 			page 6


 286              	.LBB54:
 287              	.LBB43:
 288              		.loc 1 67 0
 289 013e D0F8C810 		ldr	r1, [r0, #200]
 290 0142 5160     		str	r1, [r2, #4]
 291              		.loc 1 68 0
 292 0144 D0F8CC10 		ldr	r1, [r0, #204]
 293 0148 9160     		str	r1, [r2, #8]
 294              		.loc 1 69 0
 295 014a D0F8D010 		ldr	r1, [r0, #208]
 296 014e D160     		str	r1, [r2, #12]
 297              		.loc 1 70 0
 298 0150 D0F8D410 		ldr	r1, [r0, #212]
 299 0154 5161     		str	r1, [r2, #20]
 300              		.loc 1 71 0
 301 0156 D0F8D810 		ldr	r1, [r0, #216]
 302 015a 1162     		str	r1, [r2, #32]
 303              		.loc 1 72 0
 304 015c D0F8DC10 		ldr	r1, [r0, #220]
 305 0160 5162     		str	r1, [r2, #36]
 306              		.loc 1 73 0
 307 0162 D0F8C410 		ldr	r1, [r0, #196]
 308 0166 1160     		str	r1, [r2]
 309              	.LVL9:
 310              	.LBE43:
 311              	.LBE54:
 312              	.LBB55:
 313              	.LBB46:
 314              		.loc 1 67 0
 315 0168 D0F8E420 		ldr	r2, [r0, #228]
 316 016c CBF80420 		str	r2, [fp, #4]
 317              		.loc 1 68 0
 318 0170 D0F8E820 		ldr	r2, [r0, #232]
 319 0174 CBF80820 		str	r2, [fp, #8]
 320              		.loc 1 69 0
 321 0178 D0F8EC20 		ldr	r2, [r0, #236]
 322 017c CBF80C20 		str	r2, [fp, #12]
 323              		.loc 1 70 0
 324 0180 D0F8F020 		ldr	r2, [r0, #240]
 325 0184 CBF81420 		str	r2, [fp, #20]
 326              		.loc 1 71 0
 327 0188 D0F8F420 		ldr	r2, [r0, #244]
 328 018c CBF82020 		str	r2, [fp, #32]
 329              		.loc 1 72 0
 330 0190 D0F8F820 		ldr	r2, [r0, #248]
 331 0194 CBF82420 		str	r2, [fp, #36]
 332              		.loc 1 73 0
 333 0198 D0F8E020 		ldr	r2, [r0, #224]
 334 019c CBF80020 		str	r2, [fp]
 335 01a0 BDE8F08F 		pop	{r4, r5, r6, r7, r8, r9, r10, fp, pc}
 336              	.L4:
 337              		.align	2
 338              	.L3:
 339 01a4 00080240 		.word	1073874944
 340 01a8 000C0240 		.word	1073875968
 341 01ac 00100240 		.word	1073876992
 342 01b0 00140240 		.word	1073878016
ARM GAS  C:\Users\jo\AppData\Local\Temp\cc05uoEL.s 			page 7


 343 01b4 00180240 		.word	1073879040
 344 01b8 001C0240 		.word	1073880064
 345 01bc 00380240 		.word	1073887232
 346 01c0 00000240 		.word	1073872896
 347 01c4 00040240 		.word	1073873920
 348 01c8 00200240 		.word	1073881088
 349              	.LBE46:
 350              	.LBE55:
 351              		.cfi_endproc
 352              	.LFE256:
 353              		.size	_pal_lld_init, .-_pal_lld_init
 354 01cc AFF30080 		.section	.text._pal_lld_setgroupmode,"ax",%progbits
 355              		.align	2
 356              		.p2align 4,,15
 357              		.global	_pal_lld_setgroupmode
 358              		.thumb
 359              		.thumb_func
 360              		.type	_pal_lld_setgroupmode, %function
 361              	_pal_lld_setgroupmode:
 362              	.LFB257:
 363              		.loc 1 157 0
 364              		.cfi_startproc
 365              		@ args = 0, pretend = 0, frame = 0
 366              		@ frame_needed = 0, uses_anonymous_args = 0
 367              	.LVL10:
 368 0000 2DE9F04F 		push	{r4, r5, r6, r7, r8, r9, r10, fp, lr}
 369              		.cfi_def_cfa_offset 36
 370              		.cfi_offset 4, -36
 371              		.cfi_offset 5, -32
 372              		.cfi_offset 6, -28
 373              		.cfi_offset 7, -24
 374              		.cfi_offset 8, -20
 375              		.cfi_offset 9, -16
 376              		.cfi_offset 10, -12
 377              		.cfi_offset 11, -8
 378              		.cfi_offset 14, -4
 379              	.LBB56:
 380              		.loc 1 170 0
 381 0004 4FF00F0C 		mov	ip, #15
 382              	.LBE56:
 383              		.loc 1 159 0
 384 0008 02F0030E 		and	lr, r2, #3
 385              	.LVL11:
 386              		.loc 1 160 0
 387 000c C2F38007 		ubfx	r7, r2, #2, #1
 388              	.LVL12:
 389              		.loc 1 161 0
 390 0010 C2F3C106 		ubfx	r6, r2, #3, #2
 391              	.LVL13:
 392              		.loc 1 162 0
 393 0014 C2F34115 		ubfx	r5, r2, #5, #2
 394              	.LVL14:
 395              		.loc 1 164 0
 396 0018 0024     		movs	r4, #0
 397              		.loc 1 163 0
 398 001a C2F3C312 		ubfx	r2, r2, #7, #4
 399              	.LVL15:
ARM GAS  C:\Users\jo\AppData\Local\Temp\cc05uoEL.s 			page 8


 400              	.LBB57:
 401              		.loc 1 175 0
 402 001e 4FF00109 		mov	r9, #1
 403              		.loc 1 177 0
 404 0022 4FF00308 		mov	r8, #3
 405 0026 2BE0     		b	.L10
 406              	.LVL16:
 407              	.L16:
 408              		.loc 1 172 0
 409 0028 D0F820B0 		ldr	fp, [r0, #32]
 410 002c 2BEA0303 		bic	r3, fp, r3
 411              	.LVL17:
 412 0030 43EA0A03 		orr	r3, r3, r10
 413 0034 0362     		str	r3, [r0, #32]
 414              	.L8:
 415              	.LVL18:
 416              		.loc 1 176 0
 417 0036 4368     		ldr	r3, [r0, #4]
 418              		.loc 1 175 0
 419 0038 09FA04FA 		lsl	r10, r9, r4
 420              	.LVL19:
 421              		.loc 1 176 0
 422 003c 23EA0A03 		bic	r3, r3, r10
 423 0040 3B43     		orrs	r3, r3, r7
 424 0042 4360     		str	r3, [r0, #4]
 425              	.LVL20:
 426 0044 4FEA440A 		lsl	r10, r4, #1
 427              		.loc 1 178 0
 428 0048 8368     		ldr	r3, [r0, #8]
 429              		.loc 1 177 0
 430 004a 08FA0AFA 		lsl	r10, r8, r10
 431              		.loc 1 178 0
 432 004e 6FEA0A0A 		mvn	r10, r10
 433 0052 0AEA0303 		and	r3, r10, r3
 434 0056 3343     		orrs	r3, r3, r6
 435 0058 8360     		str	r3, [r0, #8]
 436              		.loc 1 179 0
 437 005a C368     		ldr	r3, [r0, #12]
 438 005c 0AEA0303 		and	r3, r10, r3
 439 0060 2B43     		orrs	r3, r3, r5
 440 0062 C360     		str	r3, [r0, #12]
 441              		.loc 1 180 0
 442 0064 0368     		ldr	r3, [r0]
 443 0066 0AEA0303 		and	r3, r10, r3
 444 006a 43EA0E03 		orr	r3, r3, lr
 445 006e 0360     		str	r3, [r0]
 446              	.LVL21:
 447              	.L6:
 448              	.LBE57:
 449              		.loc 1 183 0
 450 0070 4908     		lsrs	r1, r1, #1
 451              	.LVL22:
 452 0072 19D0     		beq	.L5
 453              		.loc 1 185 0
 454 0074 7F00     		lsls	r7, r7, #1
 455              	.LVL23:
 456              		.loc 1 186 0
ARM GAS  C:\Users\jo\AppData\Local\Temp\cc05uoEL.s 			page 9


 457 0076 B600     		lsls	r6, r6, #2
 458              	.LVL24:
 459              		.loc 1 187 0
 460 0078 AD00     		lsls	r5, r5, #2
 461              	.LVL25:
 462              		.loc 1 188 0
 463 007a 4FEA8E0E 		lsl	lr, lr, #2
 464              	.LVL26:
 465              		.loc 1 189 0
 466 007e 0134     		adds	r4, r4, #1
 467              	.LVL27:
 468              	.L10:
 469              	.LBB58:
 470              		.loc 1 169 0
 471 0080 04F00703 		and	r3, r4, #7
 472 0084 9B00     		lsls	r3, r3, #2
 473              	.LBE58:
 474              		.loc 1 166 0
 475 0086 11F0010F 		tst	r1, #1
 476              	.LBB59:
 477              		.loc 1 169 0
 478 008a 02FA03FA 		lsl	r10, r2, r3
 479              	.LVL28:
 480              		.loc 1 170 0
 481 008e 0CFA03F3 		lsl	r3, ip, r3
 482              	.LVL29:
 483              	.LBE59:
 484              		.loc 1 166 0
 485 0092 EDD0     		beq	.L6
 486              	.LBB60:
 487              		.loc 1 171 0
 488 0094 072C     		cmp	r4, #7
 489 0096 C7D9     		bls	.L16
 490              		.loc 1 174 0
 491 0098 D0F824B0 		ldr	fp, [r0, #36]
 492 009c 2BEA0303 		bic	r3, fp, r3
 493              	.LVL30:
 494 00a0 43EA0A03 		orr	r3, r3, r10
 495 00a4 4362     		str	r3, [r0, #36]
 496 00a6 C6E7     		b	.L8
 497              	.LVL31:
 498              	.L5:
 499 00a8 BDE8F08F 		pop	{r4, r5, r6, r7, r8, r9, r10, fp, pc}
 500              	.LBE60:
 501              		.cfi_endproc
 502              	.LFE257:
 503              		.size	_pal_lld_setgroupmode, .-_pal_lld_setgroupmode
 504 00ac AFF30080 		.text
 505              	.Letext0:
 506              		.file 2 "c:\\program files\\gnu tools arm embedded\\4.9 2014q4\\arm-none-eabi\\include\\machine\\_
 507              		.file 3 "c:\\program files\\gnu tools arm embedded\\4.9 2014q4\\arm-none-eabi\\include\\stdint.h"
 508              		.file 4 "../../../os/rt/ports/ARMCMx/compilers/GCC/chtypes.h"
 509              		.file 5 "../../../os/rt/include/chsystypes.h"
 510              		.file 6 "../../../os/rt/include/chschd.h"
 511              		.file 7 "../../../os/ext/CMSIS/ST/stm32f407xx.h"
 512              		.file 8 "../../../os/rt/ports/ARMCMx/chcore.h"
 513              		.file 9 "../../../os/rt/ports/ARMCMx/chcore_v7m.h"
ARM GAS  C:\Users\jo\AppData\Local\Temp\cc05uoEL.s 			page 10


 514              		.file 10 "../../../os/rt/include/chdebug.h"
 515              		.file 11 "../../../os/rt/include/chtm.h"
 516              		.file 12 "../../../os/rt/include/chstats.h"
 517              		.file 13 "../../../os/rt/include/chmtx.h"
 518              		.file 14 "../../../os/hal/ports/STM32/LLD/GPIOv2/pal_lld.h"
 519              		.file 15 "../../../os/ext/CMSIS/include/core_cm4.h"