ARM GAS  C:\Users\jo\AppData\Local\Temp\ccgwYfnl.s 			page 1


   1              		.syntax unified
   2              		.cpu cortex-m4
   3              		.fpu softvfp
   4              		.eabi_attribute 20, 1
   5              		.eabi_attribute 21, 1
   6              		.eabi_attribute 23, 3
   7              		.eabi_attribute 24, 1
   8              		.eabi_attribute 25, 1
   9              		.eabi_attribute 26, 1
  10              		.eabi_attribute 30, 2
  11              		.eabi_attribute 34, 1
  12              		.eabi_attribute 18, 4
  13              		.thumb
  14              		.file	"pkcs12.c"
  15              		.text
  16              	.Ltext0:
  17              		.cfi_sections	.debug_frame
  18              		.section	.text.pkcs12_derivation,"ax",%progbits
  19              		.align	2
  20              		.p2align 4,,15
  21              		.global	pkcs12_derivation
  22              		.thumb
  23              		.thumb_func
  24              		.type	pkcs12_derivation, %function
  25              	pkcs12_derivation:
  26              	.LFB15:
  27              		.file 1 "../../../os/ext/PolarSSL/library/pkcs12.c"
  28              		.loc 1 229 0
  29              		.cfi_startproc
  30              		@ args = 20, pretend = 0, frame = 600
  31              		@ frame_needed = 0, uses_anonymous_args = 0
  32              	.LVL0:
  33 0000 2DE9F04F 		push	{r4, r5, r6, r7, r8, r9, r10, fp, lr}
  34              		.cfi_def_cfa_offset 36
  35              		.cfi_offset 4, -36
  36              		.cfi_offset 5, -32
  37              		.cfi_offset 6, -28
  38              		.cfi_offset 7, -24
  39              		.cfi_offset 8, -20
  40              		.cfi_offset 9, -16
  41              		.cfi_offset 10, -12
  42              		.cfi_offset 11, -8
  43              		.cfi_offset 14, -4
  44 0004 ADF5177D 		sub	sp, sp, #604
  45              		.cfi_def_cfa_offset 640
  46              		.loc 1 245 0
  47 0008 8029     		cmp	r1, #128
  48              		.loc 1 229 0
  49 000a 0190     		str	r0, [sp, #4]
  50 000c 0091     		str	r1, [sp]
  51 000e 0292     		str	r2, [sp, #8]
  52 0010 9946     		mov	r9, r3
  53 0012 9DF88802 		ldrb	r0, [sp, #648]	@ zero_extendqisi2
  54              	.LVL1:
  55 0016 A49F     		ldr	r7, [sp, #656]
  56              		.loc 1 245 0
  57 0018 00F2D980 		bhi	.L20
ARM GAS  C:\Users\jo\AppData\Local\Temp\ccgwYfnl.s 			page 2


  58              		.loc 1 245 0 is_stmt 0 discriminator 1
  59 001c B9F1400F 		cmp	r9, #64
  60 0020 00F2D580 		bhi	.L20
  61              		.loc 1 245 0 discriminator 2
  62 0024 A19B     		ldr	r3, [sp, #644]
  63              	.LVL2:
  64 0026 402B     		cmp	r3, #64
  65 0028 00F2D180 		bhi	.L20
  66              		.loc 1 248 0 is_stmt 1
  67 002c FFF7FEFF 		bl	md_info_from_type
  68              	.LVL3:
  69              		.loc 1 249 0
  70 0030 0646     		mov	r6, r0
  71 0032 0028     		cmp	r0, #0
  72 0034 00F0D280 		beq	.L21
  73              		.loc 1 252 0
  74 0038 04A8     		add	r0, sp, #16
  75              	.LVL4:
  76 003a 3146     		mov	r1, r6
  77 003c FFF7FEFF 		bl	md_init_ctx
  78              	.LVL5:
  79 0040 0028     		cmp	r0, #0
  80 0042 69D1     		bne	.L2
  81              	.LVL6:
  82 0044 357A     		ldrb	r5, [r6, #8]	@ zero_extendqisi2
  83              	.LVL7:
  84              		.loc 1 261 0
  85 0046 9DF88C12 		ldrb	r1, [sp, #652]	@ zero_extendqisi2
  86              		.loc 1 259 0
  87 004a 212D     		cmp	r5, #33
  88 004c B4BF     		ite	lt
  89 004e 4FF04008 		movlt	r8, #64
  90 0052 4FF08008 		movge	r8, #128
  91              	.LVL8:
  92              	.LBB10:
  93              	.LBB11:
  94              		.loc 1 213 0
  95 0056 0DF1D80B 		add	fp, sp, #216
  96              	.LBE11:
  97              	.LBE10:
  98              		.loc 1 261 0
  99 005a 4246     		mov	r2, r8
 100 005c 16A8     		add	r0, sp, #88
 101              	.LVL9:
 102 005e FFF7FEFF 		bl	memset
 103              	.LVL10:
 104              	.LBB14:
 105              	.LBB12:
 106              		.loc 1 213 0
 107 0062 0395     		str	r5, [sp, #12]
 108 0064 5D46     		mov	r5, fp
 109              	.LVL11:
 110 0066 DDF884B2 		ldr	fp, [sp, #644]
 111              	.LVL12:
 112              	.LBE12:
 113              	.LBE14:
 114              		.loc 1 261 0
ARM GAS  C:\Users\jo\AppData\Local\Temp\ccgwYfnl.s 			page 3


 115 006a C246     		mov	r10, r8
 116              	.LVL13:
 117              	.L4:
 118              	.LBB15:
 119              	.LBB13:
 120              		.loc 1 218 0
 121 006c DA45     		cmp	r10, fp
 122 006e 5446     		mov	r4, r10
 123 0070 28BF     		it	cs
 124 0072 5C46     		movcs	r4, fp
 125              	.LVL14:
 126              		.loc 1 219 0
 127 0074 2846     		mov	r0, r5
 128 0076 2246     		mov	r2, r4
 129 0078 A099     		ldr	r1, [sp, #640]
 130 007a FFF7FEFF 		bl	memcpy
 131              	.LVL15:
 132              		.loc 1 216 0
 133 007e BAEB040A 		subs	r10, r10, r4
 134              	.LVL16:
 135              		.loc 1 220 0
 136 0082 2544     		add	r5, r5, r4
 137              	.LVL17:
 138              		.loc 1 216 0
 139 0084 F2D1     		bne	.L4
 140 0086 0DF5AC7B 		add	fp, sp, #344
 141 008a 5D46     		mov	r5, fp
 142              	.LVL18:
 143 008c CB46     		mov	fp, r9
 144 008e DDF80890 		ldr	r9, [sp, #8]
 145              	.LVL19:
 146 0092 C246     		mov	r10, r8
 147              	.LVL20:
 148              	.L5:
 149              	.LBE13:
 150              	.LBE15:
 151              	.LBB16:
 152              	.LBB17:
 153              		.loc 1 218 0
 154 0094 DA45     		cmp	r10, fp
 155 0096 5446     		mov	r4, r10
 156 0098 28BF     		it	cs
 157 009a 5C46     		movcs	r4, fp
 158              	.LVL21:
 159              		.loc 1 219 0
 160 009c 2846     		mov	r0, r5
 161 009e 2246     		mov	r2, r4
 162 00a0 4946     		mov	r1, r9
 163 00a2 FFF7FEFF 		bl	memcpy
 164              	.LVL22:
 165              		.loc 1 216 0
 166 00a6 BAEB040A 		subs	r10, r10, r4
 167              	.LVL23:
 168              		.loc 1 220 0
 169 00aa 2544     		add	r5, r5, r4
 170              	.LVL24:
 171              		.loc 1 216 0
ARM GAS  C:\Users\jo\AppData\Local\Temp\ccgwYfnl.s 			page 4


 172 00ac F2D1     		bne	.L5
 173              	.LVL25:
 174              	.LBE17:
 175              	.LBE16:
 176              		.loc 1 267 0
 177 00ae 009B     		ldr	r3, [sp]
 178 00b0 039D     		ldr	r5, [sp, #12]
 179              	.LVL26:
 180 00b2 002B     		cmp	r3, #0
 181 00b4 00F09080 		beq	.L8
 182 00b8 76AB     		add	r3, sp, #472
 183 00ba 03EB0804 		add	r4, r3, r8
 184              	.LVL27:
 185              	.L16:
 186              		.loc 1 270 0
 187 00be 04A8     		add	r0, sp, #16
 188 00c0 FFF7FEFF 		bl	md_starts
 189              	.LVL28:
 190 00c4 40BB     		cbnz	r0, .L2
 191              		.loc 1 273 0
 192 00c6 04A8     		add	r0, sp, #16
 193              	.LVL29:
 194 00c8 16A9     		add	r1, sp, #88
 195 00ca 4246     		mov	r2, r8
 196 00cc FFF7FEFF 		bl	md_update
 197              	.LVL30:
 198 00d0 10BB     		cbnz	r0, .L2
 199              		.loc 1 276 0
 200 00d2 04A8     		add	r0, sp, #16
 201              	.LVL31:
 202 00d4 36A9     		add	r1, sp, #216
 203              	.LVL32:
 204 00d6 4246     		mov	r2, r8
 205 00d8 FFF7FEFF 		bl	md_update
 206              	.LVL33:
 207 00dc E0B9     		cbnz	r0, .L2
 208              		.loc 1 279 0
 209 00de 04A8     		add	r0, sp, #16
 210              	.LVL34:
 211 00e0 56A9     		add	r1, sp, #344
 212 00e2 4246     		mov	r2, r8
 213 00e4 FFF7FEFF 		bl	md_update
 214              	.LVL35:
 215 00e8 B0B9     		cbnz	r0, .L2
 216              		.loc 1 282 0
 217 00ea 06A9     		add	r1, sp, #24
 218 00ec 04A8     		add	r0, sp, #16
 219              	.LVL36:
 220 00ee FFF7FEFF 		bl	md_finish
 221              	.LVL37:
 222 00f2 88B9     		cbnz	r0, .L2
 223              	.LVL38:
 224              		.loc 1 286 0 discriminator 1
 225 00f4 012F     		cmp	r7, #1
 226 00f6 C8BF     		it	gt
 227 00f8 4FF0010A 		movgt	r10, #1
 228 00fc 02DC     		bgt	.L7
ARM GAS  C:\Users\jo\AppData\Local\Temp\ccgwYfnl.s 			page 5


 229 00fe 0FE0     		b	.L10
 230              	.LVL39:
 231              	.L46:
 232              		.loc 1 286 0 is_stmt 0 discriminator 2
 233 0100 BA45     		cmp	r10, r7
 234 0102 0DD0     		beq	.L10
 235              	.LVL40:
 236              	.L7:
 237              		.loc 1 288 0 is_stmt 1
 238 0104 06A9     		add	r1, sp, #24
 239 0106 3046     		mov	r0, r6
 240              	.LVL41:
 241 0108 2A46     		mov	r2, r5
 242 010a 0B46     		mov	r3, r1
 243 010c FFF7FEFF 		bl	md
 244              	.LVL42:
 245              		.loc 1 286 0
 246 0110 0AF1010A 		add	r10, r10, #1
 247              	.LVL43:
 248              		.loc 1 288 0
 249 0114 0028     		cmp	r0, #0
 250 0116 F3D0     		beq	.L46
 251              	.LVL44:
 252              	.L2:
 253              		.loc 1 328 0
 254 0118 0DF5177D 		add	sp, sp, #604
 255              		.cfi_remember_state
 256              		.cfi_def_cfa_offset 36
 257              	.LVL45:
 258              		@ sp needed
 259 011c BDE8F08F 		pop	{r4, r5, r6, r7, r8, r9, r10, fp, pc}
 260              	.LVL46:
 261              	.L10:
 262              		.cfi_restore_state
 263              		.loc 1 292 0
 264 0120 009B     		ldr	r3, [sp]
 265              		.loc 1 293 0
 266 0122 DDF804E0 		ldr	lr, [sp, #4]
 267              		.loc 1 292 0
 268 0126 AB42     		cmp	r3, r5
 269 0128 9A46     		mov	r10, r3
 270 012a 28BF     		it	cs
 271 012c AA46     		movcs	r10, r5
 272              	.LVL47:
 273              		.loc 1 295 0
 274 012e 7346     		mov	r3, lr
 275 0130 5344     		add	r3, r3, r10
 276              		.loc 1 293 0
 277 0132 5246     		mov	r2, r10
 278 0134 7046     		mov	r0, lr
 279              	.LVL48:
 280 0136 06A9     		add	r1, sp, #24
 281              		.loc 1 295 0
 282 0138 0193     		str	r3, [sp, #4]
 283              	.LVL49:
 284              		.loc 1 293 0
 285 013a FFF7FEFF 		bl	memcpy
ARM GAS  C:\Users\jo\AppData\Local\Temp\ccgwYfnl.s 			page 6


 286              	.LVL50:
 287              		.loc 1 297 0
 288 013e 009B     		ldr	r3, [sp]
 289 0140 B3EB0A03 		subs	r3, r3, r10
 290              	.LVL51:
 291 0144 0093     		str	r3, [sp]
 292 0146 47D0     		beq	.L8
 293 0148 C346     		mov	fp, r8
 294 014a 0DF5EC79 		add	r9, sp, #472
 295              	.LVL52:
 296              	.L11:
 297              	.LBB18:
 298              	.LBB19:
 299              		.loc 1 218 0
 300 014e AB45     		cmp	fp, r5
 301 0150 DA46     		mov	r10, fp
 302 0152 28BF     		it	cs
 303 0154 AA46     		movcs	r10, r5
 304              	.LVL53:
 305              		.loc 1 219 0
 306 0156 4846     		mov	r0, r9
 307 0158 5246     		mov	r2, r10
 308 015a 06A9     		add	r1, sp, #24
 309 015c FFF7FEFF 		bl	memcpy
 310              	.LVL54:
 311              		.loc 1 216 0
 312 0160 BBEB0A0B 		subs	fp, fp, r10
 313              	.LVL55:
 314              		.loc 1 220 0
 315 0164 D144     		add	r9, r9, r10
 316              	.LVL56:
 317              		.loc 1 216 0
 318 0166 F2D1     		bne	.L11
 319              	.LBE19:
 320              	.LBE18:
 321              		.loc 1 304 0
 322 0168 4046     		mov	r0, r8
 323              	.LVL57:
 324 016a A246     		mov	r10, r4
 325              	.LVL58:
 326 016c 2246     		mov	r2, r4
 327 016e 4146     		mov	r1, r8
 328              	.LVL59:
 329              	.L13:
 330              		.loc 1 305 0
 331 0170 12F8013D 		ldrb	r3, [r2, #-1]!	@ zero_extendqisi2
 332 0174 0133     		adds	r3, r3, #1
 333 0176 DBB2     		uxtb	r3, r3
 334 0178 0139     		subs	r1, r1, #1
 335              	.LVL60:
 336 017a 1370     		strb	r3, [r2]
 337 017c 0BB9     		cbnz	r3, .L12
 338              		.loc 1 304 0 discriminator 1
 339 017e 0029     		cmp	r1, #0
 340 0180 F6DC     		bgt	.L13
 341              	.L12:
 342 0182 36AB     		add	r3, sp, #216
ARM GAS  C:\Users\jo\AppData\Local\Temp\ccgwYfnl.s 			page 7


 343              	.LVL61:
 344 0184 03EB080C 		add	ip, r3, r8
 345              		.loc 1 304 0 is_stmt 0 discriminator 3
 346 0188 A346     		mov	fp, r4
 347 018a C646     		mov	lr, r8
 348 018c 0023     		movs	r3, #0
 349              	.LVL62:
 350              	.L14:
 351              		.loc 1 312 0 is_stmt 1 discriminator 3
 352 018e 1CF8011D 		ldrb	r1, [ip, #-1]!	@ zero_extendqisi2
 353 0192 1BF8012D 		ldrb	r2, [fp, #-1]!	@ zero_extendqisi2
 354 0196 0EF1FF3E 		add	lr, lr, #-1
 355              	.LVL63:
 356 019a 0A44     		add	r2, r2, r1
 357 019c 1344     		add	r3, r3, r2
 358              	.LVL64:
 359              		.loc 1 310 0 discriminator 3
 360 019e BEF1000F 		cmp	lr, #0
 361              		.loc 1 314 0 discriminator 3
 362 01a2 8CF80030 		strb	r3, [ip]
 363              		.loc 1 313 0 discriminator 3
 364 01a6 C3F30723 		ubfx	r3, r3, #8, #8
 365              	.LVL65:
 366              		.loc 1 310 0 discriminator 3
 367 01aa F0DC     		bgt	.L14
 368 01ac 56AB     		add	r3, sp, #344
 369              	.LVL66:
 370 01ae 03EB0801 		add	r1, r3, r8
 371              		.loc 1 310 0 is_stmt 0
 372 01b2 0023     		movs	r3, #0
 373              	.LVL67:
 374              	.L15:
 375              		.loc 1 321 0 is_stmt 1 discriminator 3
 376 01b4 11F801ED 		ldrb	lr, [r1, #-1]!	@ zero_extendqisi2
 377 01b8 1AF8012D 		ldrb	r2, [r10, #-1]!	@ zero_extendqisi2
 378 01bc 0138     		subs	r0, r0, #1
 379              	.LVL68:
 380 01be 7244     		add	r2, r2, lr
 381 01c0 1344     		add	r3, r3, r2
 382              	.LVL69:
 383              		.loc 1 319 0 discriminator 3
 384 01c2 0028     		cmp	r0, #0
 385              		.loc 1 323 0 discriminator 3
 386 01c4 0B70     		strb	r3, [r1]
 387              		.loc 1 322 0 discriminator 3
 388 01c6 C3F30723 		ubfx	r3, r3, #8, #8
 389              	.LVL70:
 390              		.loc 1 319 0 discriminator 3
 391 01ca F3DC     		bgt	.L15
 392 01cc 77E7     		b	.L16
 393              	.LVL71:
 394              	.L20:
 395              		.loc 1 246 0
 396 01ce 0448     		ldr	r0, .L47
 397              		.loc 1 328 0
 398 01d0 0DF5177D 		add	sp, sp, #604
 399              		.cfi_remember_state
ARM GAS  C:\Users\jo\AppData\Local\Temp\ccgwYfnl.s 			page 8


 400              		.cfi_def_cfa_offset 36
 401              		@ sp needed
 402 01d4 BDE8F08F 		pop	{r4, r5, r6, r7, r8, r9, r10, fp, pc}
 403              	.LVL72:
 404              	.L8:
 405              		.cfi_restore_state
 406              		.loc 1 327 0
 407 01d8 0020     		movs	r0, #0
 408 01da 9DE7     		b	.L2
 409              	.LVL73:
 410              	.L21:
 411              		.loc 1 250 0
 412 01dc 0148     		ldr	r0, .L47+4
 413              	.LVL74:
 414 01de 9BE7     		b	.L2
 415              	.L48:
 416              		.align	2
 417              	.L47:
 418 01e0 80E0FFFF 		.word	-8064
 419 01e4 00E1FFFF 		.word	-7936
 420              		.cfi_endproc
 421              	.LFE15:
 422              		.size	pkcs12_derivation, .-pkcs12_derivation
 423 01e8 AFF30080 		.section	.text.pkcs12_pbe_derive_key_iv.isra.0,"ax",%progbits
 423      AFF30080 
 424              		.align	2
 425              		.p2align 4,,15
 426              		.thumb
 427              		.thumb_func
 428              		.type	pkcs12_pbe_derive_key_iv.isra.0, %function
 429              	pkcs12_pbe_derive_key_iv.isra.0:
 430              	.LFB16:
 431              		.loc 1 86 0
 432              		.cfi_startproc
 433              		@ args = 20, pretend = 0, frame = 288
 434              		@ frame_needed = 0, uses_anonymous_args = 0
 435              	.LVL75:
 436 0000 2DE9F043 		push	{r4, r5, r6, r7, r8, r9, lr}
 437              		.cfi_def_cfa_offset 28
 438              		.cfi_offset 4, -28
 439              		.cfi_offset 5, -24
 440              		.cfi_offset 6, -20
 441              		.cfi_offset 7, -16
 442              		.cfi_offset 8, -12
 443              		.cfi_offset 9, -8
 444              		.cfi_offset 14, -4
 445              		.loc 1 97 0
 446 0004 0027     		movs	r7, #0
 447              		.loc 1 86 0
 448 0006 CFB0     		sub	sp, sp, #316
 449              		.cfi_def_cfa_offset 344
 450              		.loc 1 86 0
 451 0008 8046     		mov	r8, r0
 452 000a 8946     		mov	r9, r1
 453 000c 1646     		mov	r6, r2
 454              	.LVL76:
 455              		.loc 1 98 0
ARM GAS  C:\Users\jo\AppData\Local\Temp\ccgwYfnl.s 			page 9


 456 000e 3946     		mov	r1, r7
 457 0010 4FF48172 		mov	r2, #258
 458              	.LVL77:
 459 0014 0DA8     		add	r0, sp, #52
 460              		.loc 1 86 0
 461 0016 1C46     		mov	r4, r3
 462              		.loc 1 97 0
 463 0018 0A97     		str	r7, [sp, #40]
 464 001a 0C97     		str	r7, [sp, #48]
 465 001c 0B97     		str	r7, [sp, #44]
 466              		.loc 1 86 0
 467 001e 569D     		ldr	r5, [sp, #344]
 468              		.loc 1 98 0
 469 0020 FFF7FEFF 		bl	memset
 470              	.LVL78:
 471              		.loc 1 100 0
 472 0024 D9F800E0 		ldr	lr, [r9]
 473              		.loc 1 101 0
 474 0028 D8F80010 		ldr	r1, [r8]
 475              	.LVL79:
 476              		.loc 1 100 0
 477 002c CDF820E0 		str	lr, [sp, #32]
 478              	.LBB22:
 479              	.LBB23:
 480              		.loc 1 62 0
 481 0030 7144     		add	r1, r1, lr
 482              	.LVL80:
 483 0032 08A8     		add	r0, sp, #32
 484              	.LVL81:
 485 0034 09AA     		add	r2, sp, #36
 486 0036 3023     		movs	r3, #48
 487              		.loc 1 53 0
 488 0038 0997     		str	r7, [sp, #36]
 489              		.loc 1 62 0
 490 003a FFF7FEFF 		bl	asn1_get_tag
 491              	.LVL82:
 492 003e 48B3     		cbz	r0, .L72
 493              	.L69:
 494              		.loc 1 77 0
 495 0040 A0F5F450 		sub	r0, r0, #7808
 496              	.LVL83:
 497              	.LBE23:
 498              	.LBE22:
 499              		.loc 1 103 0
 500 0044 18BB     		cbnz	r0, .L65
 501 0046 07AF     		add	r7, sp, #28
 502              	.LVL84:
 503              	.L61:
 504              		.loc 1 106 0
 505 0048 4DB1     		cbz	r5, .L60
 506 004a 0DAB     		add	r3, sp, #52
 507 004c 621E     		subs	r2, r4, #1
 508 004e 03EB4500 		add	r0, r3, r5, lsl #1
 509              	.LVL85:
 510              	.L59:
 511              		.loc 1 107 0
 512 0052 12F8011F 		ldrb	r1, [r2, #1]!	@ zero_extendqisi2
ARM GAS  C:\Users\jo\AppData\Local\Temp\ccgwYfnl.s 			page 10


 513              	.LVL86:
 514 0056 5970     		strb	r1, [r3, #1]
 515              	.LVL87:
 516 0058 0233     		adds	r3, r3, #2
 517              		.loc 1 106 0
 518 005a 8342     		cmp	r3, r0
 519 005c F9D1     		bne	.L59
 520              	.LVL88:
 521              	.L60:
 522              		.loc 1 109 0
 523 005e 6C1C     		adds	r4, r5, #1
 524              	.LVL89:
 525 0060 3A68     		ldr	r2, [r7]
 526 0062 0B98     		ldr	r0, [sp, #44]
 527 0064 0C9D     		ldr	r5, [sp, #48]
 528 0066 0190     		str	r0, [sp, #4]
 529 0068 0121     		movs	r1, #1
 530 006a 6400     		lsls	r4, r4, #1
 531 006c 0391     		str	r1, [sp, #12]
 532 006e 0492     		str	r2, [sp, #16]
 533 0070 0296     		str	r6, [sp, #8]
 534 0072 2346     		mov	r3, r4
 535 0074 0095     		str	r5, [sp]
 536 0076 5798     		ldr	r0, [sp, #348]
 537 0078 5899     		ldr	r1, [sp, #352]
 538 007a 0DAA     		add	r2, sp, #52
 539 007c FFF7FEFF 		bl	pkcs12_derivation
 540              	.LVL90:
 541 0080 28B9     		cbnz	r0, .L65
 542              		.loc 1 116 0
 543 0082 599B     		ldr	r3, [sp, #356]
 544 0084 002B     		cmp	r3, #0
 545 0086 35D0     		beq	.L63
 546 0088 5A9B     		ldr	r3, [sp, #360]
 547 008a 0BBB     		cbnz	r3, .L73
 548              		.loc 1 117 0
 549 008c 5A98     		ldr	r0, [sp, #360]
 550              	.LVL91:
 551              	.L65:
 552              		.loc 1 126 0
 553 008e 4FB0     		add	sp, sp, #316
 554              		.cfi_remember_state
 555              		.cfi_def_cfa_offset 28
 556              		@ sp needed
 557 0090 BDE8F083 		pop	{r4, r5, r6, r7, r8, r9, pc}
 558              	.LVL92:
 559              	.L72:
 560              		.cfi_restore_state
 561              	.LBB25:
 562              	.LBB24:
 563              		.loc 1 68 0
 564 0094 099B     		ldr	r3, [sp, #36]
 565 0096 089A     		ldr	r2, [sp, #32]
 566 0098 02EB0308 		add	r8, r2, r3
 567              	.LVL93:
 568              		.loc 1 70 0
 569 009c 4146     		mov	r1, r8
ARM GAS  C:\Users\jo\AppData\Local\Temp\ccgwYfnl.s 			page 11


 570 009e 0BAA     		add	r2, sp, #44
 571 00a0 08A8     		add	r0, sp, #32
 572              	.LVL94:
 573 00a2 0423     		movs	r3, #4
 574 00a4 FFF7FEFF 		bl	asn1_get_tag
 575              	.LVL95:
 576 00a8 0028     		cmp	r0, #0
 577 00aa C9D1     		bne	.L69
 578              		.loc 1 73 0
 579 00ac 089A     		ldr	r2, [sp, #32]
 580              		.loc 1 74 0
 581 00ae 0B9B     		ldr	r3, [sp, #44]
 582              		.loc 1 73 0
 583 00b0 0C92     		str	r2, [sp, #48]
 584              		.loc 1 76 0
 585 00b2 07AF     		add	r7, sp, #28
 586              	.LVL96:
 587              		.loc 1 74 0
 588 00b4 1344     		add	r3, r3, r2
 589              		.loc 1 76 0
 590 00b6 08A8     		add	r0, sp, #32
 591              	.LVL97:
 592 00b8 3A46     		mov	r2, r7
 593 00ba 4146     		mov	r1, r8
 594              		.loc 1 74 0
 595 00bc 0893     		str	r3, [sp, #32]
 596              		.loc 1 76 0
 597 00be FFF7FEFF 		bl	asn1_get_int
 598              	.LVL98:
 599 00c2 0028     		cmp	r0, #0
 600 00c4 BCD1     		bne	.L69
 601              		.loc 1 79 0
 602 00c6 089B     		ldr	r3, [sp, #32]
 603 00c8 9845     		cmp	r8, r3
 604 00ca BDD0     		beq	.L61
 605              		.loc 1 80 0
 606 00cc 0A48     		ldr	r0, .L74
 607              	.LVL99:
 608 00ce DEE7     		b	.L65
 609              	.LVL100:
 610              	.L73:
 611              	.LBE24:
 612              	.LBE25:
 613              		.loc 1 119 0
 614 00d0 3B68     		ldr	r3, [r7]
 615 00d2 0B98     		ldr	r0, [sp, #44]
 616              	.LVL101:
 617 00d4 0C9D     		ldr	r5, [sp, #48]
 618 00d6 0493     		str	r3, [sp, #16]
 619 00d8 0221     		movs	r1, #2
 620 00da 0190     		str	r0, [sp, #4]
 621 00dc 0391     		str	r1, [sp, #12]
 622 00de 0296     		str	r6, [sp, #8]
 623 00e0 0DAA     		add	r2, sp, #52
 624 00e2 2346     		mov	r3, r4
 625 00e4 0095     		str	r5, [sp]
 626 00e6 5998     		ldr	r0, [sp, #356]
ARM GAS  C:\Users\jo\AppData\Local\Temp\ccgwYfnl.s 			page 12


 627 00e8 5A99     		ldr	r1, [sp, #360]
 628 00ea FFF7FEFF 		bl	pkcs12_derivation
 629              	.LVL102:
 630              		.loc 1 126 0
 631 00ee 4FB0     		add	sp, sp, #316
 632              		.cfi_remember_state
 633              		.cfi_def_cfa_offset 28
 634              		@ sp needed
 635 00f0 BDE8F083 		pop	{r4, r5, r6, r7, r8, r9, pc}
 636              	.LVL103:
 637              	.L63:
 638              		.cfi_restore_state
 639              		.loc 1 117 0
 640 00f4 5998     		ldr	r0, [sp, #356]
 641              	.LVL104:
 642 00f6 CAE7     		b	.L65
 643              	.L75:
 644              		.align	2
 645              	.L74:
 646 00f8 1AE1FFFF 		.word	-7910
 647              		.cfi_endproc
 648              	.LFE16:
 649              		.size	pkcs12_pbe_derive_key_iv.isra.0, .-pkcs12_pbe_derive_key_iv.isra.0
 650 00fc AFF30080 		.section	.text.pkcs12_pbe_sha1_rc4_128,"ax",%progbits
 651              		.align	2
 652              		.p2align 4,,15
 653              		.global	pkcs12_pbe_sha1_rc4_128
 654              		.thumb
 655              		.thumb_func
 656              		.type	pkcs12_pbe_sha1_rc4_128, %function
 657              	pkcs12_pbe_sha1_rc4_128:
 658              	.LFB12:
 659              		.loc 1 132 0
 660              		.cfi_startproc
 661              		@ args = 12, pretend = 0, frame = 280
 662              		@ frame_needed = 0, uses_anonymous_args = 0
 663              	.LVL105:
 664 0000 70B5     		push	{r4, r5, r6, lr}
 665              		.cfi_def_cfa_offset 16
 666              		.cfi_offset 4, -16
 667              		.cfi_offset 5, -12
 668              		.cfi_offset 6, -8
 669              		.cfi_offset 14, -4
 670 0002 CCB0     		sub	sp, sp, #304
 671              		.cfi_def_cfa_offset 320
 672              		.loc 1 132 0
 673 0004 0146     		mov	r1, r0
 674              	.LVL106:
 675              		.loc 1 148 0
 676 0006 0024     		movs	r4, #0
 677 0008 06AE     		add	r6, sp, #24
 678 000a 1025     		movs	r5, #16
 679 000c 0093     		str	r3, [sp]
 680 000e 0430     		adds	r0, r0, #4
 681              	.LVL107:
 682 0010 1346     		mov	r3, r2
 683              	.LVL108:
ARM GAS  C:\Users\jo\AppData\Local\Temp\ccgwYfnl.s 			page 13


 684 0012 0831     		adds	r1, r1, #8
 685              	.LVL109:
 686 0014 0196     		str	r6, [sp, #4]
 687 0016 0295     		str	r5, [sp, #8]
 688 0018 0394     		str	r4, [sp, #12]
 689 001a 0494     		str	r4, [sp, #16]
 690 001c 0422     		movs	r2, #4
 691              	.LVL110:
 692 001e FFF7FEFF 		bl	pkcs12_pbe_derive_key_iv.isra.0
 693              	.LVL111:
 694 0022 50B9     		cbnz	r0, .L77
 695              		.loc 1 155 0
 696 0024 3146     		mov	r1, r6
 697 0026 2A46     		mov	r2, r5
 698 0028 0AA8     		add	r0, sp, #40
 699              	.LVL112:
 700 002a FFF7FEFF 		bl	arc4_setup
 701              	.LVL113:
 702              		.loc 1 156 0
 703 002e 0AA8     		add	r0, sp, #40
 704 0030 5199     		ldr	r1, [sp, #324]
 705 0032 509A     		ldr	r2, [sp, #320]
 706 0034 529B     		ldr	r3, [sp, #328]
 707 0036 FFF7FEFF 		bl	arc4_crypt
 708              	.LVL114:
 709              	.L77:
 710              		.loc 1 161 0
 711 003a 4CB0     		add	sp, sp, #304
 712              		.cfi_def_cfa_offset 16
 713              		@ sp needed
 714 003c 70BD     		pop	{r4, r5, r6, pc}
 715              		.cfi_endproc
 716              	.LFE12:
 717              		.size	pkcs12_pbe_sha1_rc4_128, .-pkcs12_pbe_sha1_rc4_128
 718 003e 00BF     		.section	.text.pkcs12_pbe,"ax",%progbits
 719              		.align	2
 720              		.p2align 4,,15
 721              		.global	pkcs12_pbe
 722              		.thumb
 723              		.thumb_func
 724              		.type	pkcs12_pbe, %function
 725              	pkcs12_pbe:
 726              	.LFB13:
 727              		.loc 1 168 0
 728              		.cfi_startproc
 729              		@ args = 20, pretend = 0, frame = 104
 730              		@ frame_needed = 0, uses_anonymous_args = 0
 731              	.LVL115:
 732 0000 2DE9F047 		push	{r4, r5, r6, r7, r8, r9, r10, lr}
 733              		.cfi_def_cfa_offset 32
 734              		.cfi_offset 4, -32
 735              		.cfi_offset 5, -28
 736              		.cfi_offset 6, -24
 737              		.cfi_offset 7, -20
 738              		.cfi_offset 8, -16
 739              		.cfi_offset 9, -12
 740              		.cfi_offset 10, -8
ARM GAS  C:\Users\jo\AppData\Local\Temp\ccgwYfnl.s 			page 14


 741              		.cfi_offset 14, -4
 742 0004 A0B0     		sub	sp, sp, #128
 743              		.cfi_def_cfa_offset 160
 744              		.loc 1 174 0
 745 0006 0024     		movs	r4, #0
 746              		.loc 1 168 0
 747 0008 0646     		mov	r6, r0
 748              		.loc 1 176 0
 749 000a 1046     		mov	r0, r2
 750              	.LVL116:
 751              		.loc 1 174 0
 752 000c 0694     		str	r4, [sp, #24]
 753              		.loc 1 168 0
 754 000e 8946     		mov	r9, r1
 755 0010 9A46     		mov	r10, r3
 756              		.loc 1 176 0
 757 0012 FFF7FEFF 		bl	cipher_info_from_type
 758              	.LVL117:
 759              		.loc 1 177 0
 760 0016 0446     		mov	r4, r0
 761 0018 0028     		cmp	r0, #0
 762 001a 42D0     		beq	.L82
 763              		.loc 1 180 0
 764 001c 4568     		ldr	r5, [r0, #4]
 765              		.loc 1 182 0
 766 001e 299B     		ldr	r3, [sp, #164]
 767 0020 0093     		str	r3, [sp]
 768              		.loc 1 180 0
 769 0022 ED08     		lsrs	r5, r5, #3
 770              	.LVL118:
 771              		.loc 1 182 0
 772 0024 0BAF     		add	r7, sp, #44
 773 0026 0DF11C08 		add	r8, sp, #28
 774 002a 0295     		str	r5, [sp, #8]
 775 002c 0197     		str	r7, [sp, #4]
 776 002e CDF80C80 		str	r8, [sp, #12]
 777 0032 C368     		ldr	r3, [r0, #12]
 778 0034 0493     		str	r3, [sp, #16]
 779 0036 5246     		mov	r2, r10
 780 0038 301D     		adds	r0, r6, #4
 781              	.LVL119:
 782 003a 06F10801 		add	r1, r6, #8
 783 003e 289B     		ldr	r3, [sp, #160]
 784 0040 FFF7FEFF 		bl	pkcs12_pbe_derive_key_iv.isra.0
 785              	.LVL120:
 786 0044 10B1     		cbz	r0, .L90
 787              	.LVL121:
 788              	.L81:
 789              		.loc 1 208 0
 790 0046 20B0     		add	sp, sp, #128
 791              		.cfi_remember_state
 792              		.cfi_def_cfa_offset 32
 793              		@ sp needed
 794 0048 BDE8F087 		pop	{r4, r5, r6, r7, r8, r9, r10, pc}
 795              	.LVL122:
 796              	.L90:
 797              		.cfi_restore_state
ARM GAS  C:\Users\jo\AppData\Local\Temp\ccgwYfnl.s 			page 15


 798              		.loc 1 189 0
 799 004c 2146     		mov	r1, r4
 800 004e 13A8     		add	r0, sp, #76
 801              	.LVL123:
 802 0050 FFF7FEFF 		bl	cipher_init_ctx
 803              	.LVL124:
 804 0054 0028     		cmp	r0, #0
 805 0056 F6D1     		bne	.L81
 806              		.loc 1 192 0
 807 0058 3946     		mov	r1, r7
 808 005a 2A46     		mov	r2, r5
 809 005c 4FFA89F3 		sxtb	r3, r9
 810 0060 13A8     		add	r0, sp, #76
 811              	.LVL125:
 812 0062 FFF7FEFF 		bl	cipher_setkey
 813              	.LVL126:
 814 0066 0028     		cmp	r0, #0
 815 0068 EDD1     		bne	.L81
 816              		.loc 1 195 0
 817 006a 4146     		mov	r1, r8
 818 006c 13A8     		add	r0, sp, #76
 819              	.LVL127:
 820 006e FFF7FEFF 		bl	cipher_reset
 821              	.LVL128:
 822 0072 0028     		cmp	r0, #0
 823 0074 E7D1     		bne	.L81
 824              		.loc 1 198 0
 825 0076 06AC     		add	r4, sp, #24
 826              	.LVL129:
 827 0078 0094     		str	r4, [sp]
 828 007a 2AA9     		add	r1, sp, #168
 829              	.LVL130:
 830 007c 13A8     		add	r0, sp, #76
 831              	.LVL131:
 832 007e 0EC9     		ldmia	r1, {r1, r2, r3}
 833              	.LVL132:
 834 0080 FFF7FEFF 		bl	cipher_update
 835              	.LVL133:
 836 0084 0028     		cmp	r0, #0
 837 0086 DED1     		bne	.L81
 838              		.loc 1 204 0
 839 0088 2C9B     		ldr	r3, [sp, #176]
 840 008a 0699     		ldr	r1, [sp, #24]
 841 008c 13A8     		add	r0, sp, #76
 842              	.LVL134:
 843 008e 1944     		add	r1, r1, r3
 844 0090 2246     		mov	r2, r4
 845 0092 FFF7FEFF 		bl	cipher_finish
 846              	.LVL135:
 847              		.loc 1 207 0
 848 0096 044B     		ldr	r3, .L91
 849              		.loc 1 204 0
 850 0098 0028     		cmp	r0, #0
 851              		.loc 1 207 0
 852 009a 14BF     		ite	ne
 853 009c 1846     		movne	r0, r3
 854              	.LVL136:
ARM GAS  C:\Users\jo\AppData\Local\Temp\ccgwYfnl.s 			page 16


 855 009e 0020     		moveq	r0, #0
 856 00a0 D1E7     		b	.L81
 857              	.LVL137:
 858              	.L82:
 859              		.loc 1 178 0
 860 00a2 0248     		ldr	r0, .L91+4
 861              	.LVL138:
 862 00a4 CFE7     		b	.L81
 863              	.L92:
 864 00a6 00BF     		.align	2
 865              	.L91:
 866 00a8 00E2FFFF 		.word	-7680
 867 00ac 00E1FFFF 		.word	-7936
 868              		.cfi_endproc
 869              	.LFE13:
 870              		.size	pkcs12_pbe, .-pkcs12_pbe
 871              		.text
 872              	.Letext0:
 873              		.file 2 "c:\\program files\\gnu tools arm embedded\\4.9 2014q4\\lib\\gcc\\arm-none-eabi\\4.9.3\\in
 874              		.file 3 "../../../demos/STM32/RT-STM32F407-DISCOVERY-uHttp/uhttp-1.1/PolarSSL/include/polarssl/md.
 875              		.file 4 "../../../demos/STM32/RT-STM32F407-DISCOVERY-uHttp/uhttp-1.1/PolarSSL/include/polarssl/cip
 876              		.file 5 "../../../demos/STM32/RT-STM32F407-DISCOVERY-uHttp/uhttp-1.1/PolarSSL/include/polarssl/asn
 877              		.file 6 "../../../demos/STM32/RT-STM32F407-DISCOVERY-uHttp/uhttp-1.1/PolarSSL/include/polarssl/arc
 878              		.file 7 "c:\\program files\\gnu tools arm embedded\\4.9 2014q4\\arm-none-eabi\\include\\string.h"