ARM GAS  C:\Users\jo\AppData\Local\Temp\ccucl0Xe.s 			page 1


   1              		.syntax unified
   2              		.cpu cortex-m4
   3              		.fpu softvfp
   4              		.eabi_attribute 20, 1
   5              		.eabi_attribute 21, 1
   6              		.eabi_attribute 23, 3
   7              		.eabi_attribute 24, 1
   8              		.eabi_attribute 25, 1
   9              		.eabi_attribute 26, 1
  10              		.eabi_attribute 30, 2
  11              		.eabi_attribute 34, 1
  12              		.eabi_attribute 18, 4
  13              		.thumb
  14              		.file	"queue.c"
  15              		.text
  16              	.Ltext0:
  17              		.cfi_sections	.debug_frame
  18              		.section	.text.chprintf.constprop.0,"ax",%progbits
  19              		.align	2
  20              		.p2align 4,,15
  21              		.thumb
  22              		.thumb_func
  23              		.type	chprintf.constprop.0, %function
  24              	chprintf.constprop.0:
  25              	.LFB231:
  26              		.file 1 "../../../os/hal/lib/streams/chprintf.h"
  27              		.loc 1 69 0
  28              		.cfi_startproc
  29              		@ args = 4, pretend = 12, frame = 8
  30              		@ frame_needed = 0, uses_anonymous_args = 1
  31              	.LVL0:
  32 0000 0EB4     		push	{r1, r2, r3}
  33              		.cfi_def_cfa_offset 12
  34              		.cfi_offset 1, -12
  35              		.cfi_offset 2, -8
  36              		.cfi_offset 3, -4
  37 0002 00B5     		push	{lr}
  38              		.cfi_def_cfa_offset 16
  39              		.cfi_offset 14, -16
  40 0004 82B0     		sub	sp, sp, #8
  41              		.cfi_def_cfa_offset 24
  42              		.loc 1 69 0
  43 0006 03AA     		add	r2, sp, #12
  44              		.loc 1 74 0
  45 0008 0548     		ldr	r0, .L3
  46              	.LVL1:
  47              		.loc 1 69 0
  48 000a 52F8041B 		ldr	r1, [r2], #4
  49              		.loc 1 73 0
  50 000e 0192     		str	r2, [sp, #4]
  51              		.loc 1 74 0
  52 0010 FFF7FEFF 		bl	chvprintf
  53              	.LVL2:
  54              		.loc 1 78 0
  55 0014 02B0     		add	sp, sp, #8
  56              		.cfi_def_cfa_offset 16
  57              		@ sp needed
ARM GAS  C:\Users\jo\AppData\Local\Temp\ccucl0Xe.s 			page 2


  58 0016 5DF804EB 		ldr	lr, [sp], #4
  59              		.cfi_restore 14
  60              		.cfi_def_cfa_offset 12
  61 001a 03B0     		add	sp, sp, #12
  62              		.cfi_restore 3
  63              		.cfi_restore 2
  64              		.cfi_restore 1
  65              		.cfi_def_cfa_offset 0
  66 001c 7047     		bx	lr
  67              	.L4:
  68 001e 00BF     		.align	2
  69              	.L3:
  70 0020 00000000 		.word	itm_port
  71              		.cfi_endproc
  72              	.LFE231:
  73              		.size	chprintf.constprop.0, .-chprintf.constprop.0
  74 0024 AFF30080 		.section	.text.Fill_queue,"ax",%progbits
  74      AFF30080 
  74      AFF30080 
  75              		.align	2
  76              		.p2align 4,,15
  77              		.global	Fill_queue
  78              		.thumb
  79              		.thumb_func
  80              		.type	Fill_queue, %function
  81              	Fill_queue:
  82              	.LFB227:
  83              		.file 2 "queue.c"
  84              		.loc 2 26 0
  85              		.cfi_startproc
  86              		@ args = 0, pretend = 0, frame = 0
  87              		@ frame_needed = 0, uses_anonymous_args = 0
  88              	.LVL3:
  89 0000 70B5     		push	{r4, r5, r6, lr}
  90              		.cfi_def_cfa_offset 16
  91              		.cfi_offset 4, -16
  92              		.cfi_offset 5, -12
  93              		.cfi_offset 6, -8
  94              		.cfi_offset 14, -4
  95              		.loc 2 28 0
  96 0002 0C4C     		ldr	r4, .L10
  97 0004 2378     		ldrb	r3, [r4]	@ zero_extendqisi2
  98 0006 1A06     		lsls	r2, r3, #24
  99 0008 09D4     		bmi	.L6
 100              		.loc 2 30 0
 101 000a 5A1C     		adds	r2, r3, #1
 102              		.loc 2 29 0
 103 000c 0A4E     		ldr	r6, .L10+4
 104              		.loc 2 31 0
 105 000e 0B49     		ldr	r1, .L10+8
 106 0010 0546     		mov	r5, r0
 107              		.loc 2 30 0
 108 0012 D2B2     		uxtb	r2, r2
 109              		.loc 2 31 0
 110 0014 0A48     		ldr	r0, .L10+12
 111              	.LVL4:
 112              		.loc 2 30 0
ARM GAS  C:\Users\jo\AppData\Local\Temp\ccucl0Xe.s 			page 3


 113 0016 2270     		strb	r2, [r4]
 114              		.loc 2 29 0
 115 0018 F554     		strb	r5, [r6, r3]
 116              		.loc 2 31 0
 117 001a FFF7FEFF 		bl	chprintf.constprop.0
 118              	.LVL5:
 119              	.L6:
 120              		.loc 2 33 0
 121 001e 094B     		ldr	r3, .L10+16
 122 0020 1B78     		ldrb	r3, [r3]	@ zero_extendqisi2
 123 0022 7F2B     		cmp	r3, #127
 124 0024 04D1     		bne	.L5
 125              		.loc 2 33 0 is_stmt 0 discriminator 1
 126 0026 2378     		ldrb	r3, [r4]	@ zero_extendqisi2
 127 0028 0133     		adds	r3, r3, #1
 128 002a 03F07F03 		and	r3, r3, #127
 129 002e 2370     		strb	r3, [r4]
 130              	.L5:
 131 0030 70BD     		pop	{r4, r5, r6, pc}
 132              	.L11:
 133 0032 00BF     		.align	2
 134              	.L10:
 135 0034 00000000 		.word	.LANCHOR0
 136 0038 00000000 		.word	.LANCHOR1
 137 003c 00000000 		.word	.LC0
 138 0040 00000000 		.word	itm_port
 139 0044 00000000 		.word	.LANCHOR2
 140              		.cfi_endproc
 141              	.LFE227:
 142              		.size	Fill_queue, .-Fill_queue
 143 0048 AFF30080 		.section	.text.Empty_queue,"ax",%progbits
 143      AFF30080 
 144              		.align	2
 145              		.p2align 4,,15
 146              		.global	Empty_queue
 147              		.thumb
 148              		.thumb_func
 149              		.type	Empty_queue, %function
 150              	Empty_queue:
 151              	.LFB228:
 152              		.loc 2 36 0 is_stmt 1
 153              		.cfi_startproc
 154              		@ args = 0, pretend = 0, frame = 0
 155              		@ frame_needed = 0, uses_anonymous_args = 0
 156 0000 38B5     		push	{r3, r4, r5, lr}
 157              		.cfi_def_cfa_offset 16
 158              		.cfi_offset 3, -16
 159              		.cfi_offset 4, -12
 160              		.cfi_offset 5, -8
 161              		.cfi_offset 14, -4
 162              		.loc 2 39 0
 163 0002 0B4C     		ldr	r4, .L16
 164 0004 0B4B     		ldr	r3, .L16+4
 165 0006 2278     		ldrb	r2, [r4]	@ zero_extendqisi2
 166 0008 9D5C     		ldrb	r5, [r3, r2]	@ zero_extendqisi2
 167              	.LVL6:
 168              		.loc 2 42 0
ARM GAS  C:\Users\jo\AppData\Local\Temp\ccucl0Xe.s 			page 4


 169 000a 0B4B     		ldr	r3, .L16+8
 170              		.loc 2 41 0
 171 000c 7F2A     		cmp	r2, #127
 172              		.loc 2 42 0
 173 000e 1B78     		ldrb	r3, [r3]	@ zero_extendqisi2
 174              		.loc 2 41 0
 175 0010 04BF     		itt	eq
 176 0012 0022     		moveq	r2, #0
 177 0014 2270     		strbeq	r2, [r4]
 178              		.loc 2 42 0
 179 0016 9342     		cmp	r3, r2
 180 0018 07D0     		beq	.L14
 181              		.loc 2 43 0
 182 001a 0132     		adds	r2, r2, #1
 183 001c D3B2     		uxtb	r3, r2
 184              		.loc 2 44 0
 185 001e 1A46     		mov	r2, r3
 186 0020 0648     		ldr	r0, .L16+12
 187 0022 0749     		ldr	r1, .L16+16
 188              		.loc 2 43 0
 189 0024 2370     		strb	r3, [r4]
 190              		.loc 2 44 0
 191 0026 FFF7FEFF 		bl	chprintf.constprop.0
 192              	.LVL7:
 193              	.L14:
 194              		.loc 2 48 0
 195 002a 2846     		mov	r0, r5
 196 002c 38BD     		pop	{r3, r4, r5, pc}
 197              	.LVL8:
 198              	.L17:
 199 002e 00BF     		.align	2
 200              	.L16:
 201 0030 00000000 		.word	.LANCHOR2
 202 0034 00000000 		.word	.LANCHOR1
 203 0038 00000000 		.word	.LANCHOR0
 204 003c 00000000 		.word	itm_port
 205 0040 10000000 		.word	.LC1
 206              		.cfi_endproc
 207              	.LFE228:
 208              		.size	Empty_queue, .-Empty_queue
 209 0044 AFF30080 		.section	.text.En_queue,"ax",%progbits
 209      AFF30080 
 209      AFF30080 
 210              		.align	2
 211              		.p2align 4,,15
 212              		.global	En_queue
 213              		.thumb
 214              		.thumb_func
 215              		.type	En_queue, %function
 216              	En_queue:
 217              	.LFB229:
 218              		.loc 2 50 0
 219              		.cfi_startproc
 220              		@ args = 0, pretend = 0, frame = 0
 221              		@ frame_needed = 0, uses_anonymous_args = 0
 222              		@ link register save eliminated.
 223              	.LVL9:
ARM GAS  C:\Users\jo\AppData\Local\Temp\ccucl0Xe.s 			page 5


 224 0000 F0B4     		push	{r4, r5, r6, r7}
 225              		.cfi_def_cfa_offset 16
 226              		.cfi_offset 4, -16
 227              		.cfi_offset 5, -12
 228              		.cfi_offset 6, -8
 229              		.cfi_offset 7, -4
 230              		.loc 2 51 0
 231 0002 144C     		ldr	r4, .L26
 232 0004 2268     		ldr	r2, [r4]
 233 0006 FF2A     		cmp	r2, #255
 234              		.loc 2 50 0
 235 0008 0646     		mov	r6, r0
 236              		.loc 2 51 0
 237 000a 06DC     		bgt	.L19
 238 000c 124B     		ldr	r3, .L26+4
 239 000e 1B68     		ldr	r3, [r3]
 240              		.loc 2 55 0
 241 0010 D31A     		subs	r3, r2, r3
 242 0012 802B     		cmp	r3, #128
 243 0014 0ADD     		ble	.L24
 244              	.L18:
 245              		.loc 2 60 0
 246 0016 F0BC     		pop	{r4, r5, r6, r7}
 247              		.cfi_remember_state
 248              		.cfi_restore 7
 249              		.cfi_restore 6
 250              		.cfi_restore 5
 251              		.cfi_restore 4
 252              		.cfi_def_cfa_offset 0
 253 0018 7047     		bx	lr
 254              	.L19:
 255              		.cfi_restore_state
 256              		.loc 2 53 0
 257 001a 0F49     		ldr	r1, .L26+4
 258 001c 0B68     		ldr	r3, [r1]
 259              		.loc 2 52 0
 260 001e 803A     		subs	r2, r2, #128
 261              		.loc 2 53 0
 262 0020 803B     		subs	r3, r3, #128
 263 0022 0B60     		str	r3, [r1]
 264              		.loc 2 55 0
 265 0024 D31A     		subs	r3, r2, r3
 266 0026 802B     		cmp	r3, #128
 267              		.loc 2 52 0
 268 0028 2260     		str	r2, [r4]
 269              		.loc 2 55 0
 270 002a F4DC     		bgt	.L18
 271              	.L24:
 272              		.loc 2 56 0
 273 002c 0B4D     		ldr	r5, .L26+8
 274 002e 0C4F     		ldr	r7, .L26+12
 275 0030 1540     		ands	r5, r5, r2
 276 0032 002D     		cmp	r5, #0
 277 0034 08DB     		blt	.L25
 278              	.L22:
 279 0036 7E55     		strb	r6, [r7, r5]
 280              		.loc 2 57 0
ARM GAS  C:\Users\jo\AppData\Local\Temp\ccucl0Xe.s 			page 6


 281 0038 531C     		adds	r3, r2, #1
 282 003a 2360     		str	r3, [r4]
 283              		.loc 2 58 0
 284 003c 1A46     		mov	r2, r3
 285 003e 0948     		ldr	r0, .L26+16
 286              	.LVL10:
 287 0040 0949     		ldr	r1, .L26+20
 288              		.loc 2 60 0
 289 0042 F0BC     		pop	{r4, r5, r6, r7}
 290              		.cfi_remember_state
 291              		.cfi_restore 7
 292              		.cfi_restore 6
 293              		.cfi_restore 5
 294              		.cfi_restore 4
 295              		.cfi_def_cfa_offset 0
 296              		.loc 2 58 0
 297 0044 FFF7FEBF 		b	chprintf.constprop.0
 298              	.LVL11:
 299              	.L25:
 300              		.cfi_restore_state
 301              		.loc 2 56 0
 302 0048 013D     		subs	r5, r5, #1
 303 004a 65F07F05 		orn	r5, r5, #127
 304 004e 0135     		adds	r5, r5, #1
 305 0050 F1E7     		b	.L22
 306              	.L27:
 307 0052 00BF     		.align	2
 308              	.L26:
 309 0054 00000000 		.word	.LANCHOR3
 310 0058 00000000 		.word	.LANCHOR4
 311 005c 7F000080 		.word	-2147483521
 312 0060 00000000 		.word	.LANCHOR1
 313 0064 00000000 		.word	itm_port
 314 0068 00000000 		.word	.LC0
 315              		.cfi_endproc
 316              	.LFE229:
 317              		.size	En_queue, .-En_queue
 318 006c AFF30080 		.section	.text.De_queue,"ax",%progbits
 319              		.align	2
 320              		.p2align 4,,15
 321              		.global	De_queue
 322              		.thumb
 323              		.thumb_func
 324              		.type	De_queue, %function
 325              	De_queue:
 326              	.LFB230:
 327              		.loc 2 62 0
 328              		.cfi_startproc
 329              		@ args = 0, pretend = 0, frame = 0
 330              		@ frame_needed = 0, uses_anonymous_args = 0
 331 0000 38B5     		push	{r3, r4, r5, lr}
 332              		.cfi_def_cfa_offset 16
 333              		.cfi_offset 3, -16
 334              		.cfi_offset 4, -12
 335              		.cfi_offset 5, -8
 336              		.cfi_offset 14, -4
 337              		.loc 2 65 0
ARM GAS  C:\Users\jo\AppData\Local\Temp\ccucl0Xe.s 			page 7


 338 0002 0D4D     		ldr	r5, .L35
 339 0004 0D4B     		ldr	r3, .L35+4
 340 0006 2A68     		ldr	r2, [r5]
 341 0008 1B68     		ldr	r3, [r3]
 342 000a 9342     		cmp	r3, r2
 343 000c 01DC     		bgt	.L33
 344              		.loc 2 73 0
 345 000e 0020     		movs	r0, #0
 346              		.loc 2 74 0
 347 0010 38BD     		pop	{r3, r4, r5, pc}
 348              	.L33:
 349              		.loc 2 66 0
 350 0012 0B4B     		ldr	r3, .L35+8
 351 0014 0B49     		ldr	r1, .L35+12
 352 0016 1340     		ands	r3, r3, r2
 353 0018 002B     		cmp	r3, #0
 354 001a 08DB     		blt	.L34
 355              	.L30:
 356 001c CC5C     		ldrb	r4, [r1, r3]	@ zero_extendqisi2
 357              	.LVL12:
 358              		.loc 2 68 0
 359 001e 0A48     		ldr	r0, .L35+16
 360 0020 0A49     		ldr	r1, .L35+20
 361              		.loc 2 67 0
 362 0022 0132     		adds	r2, r2, #1
 363 0024 2A60     		str	r2, [r5]
 364              		.loc 2 68 0
 365 0026 FFF7FEFF 		bl	chprintf.constprop.0
 366              	.LVL13:
 367              		.loc 2 70 0
 368 002a 2046     		mov	r0, r4
 369 002c 38BD     		pop	{r3, r4, r5, pc}
 370              	.LVL14:
 371              	.L34:
 372              		.loc 2 66 0
 373 002e 013B     		subs	r3, r3, #1
 374 0030 63F07F03 		orn	r3, r3, #127
 375 0034 0133     		adds	r3, r3, #1
 376 0036 F1E7     		b	.L30
 377              	.L36:
 378              		.align	2
 379              	.L35:
 380 0038 00000000 		.word	.LANCHOR4
 381 003c 00000000 		.word	.LANCHOR3
 382 0040 7F000080 		.word	-2147483521
 383 0044 00000000 		.word	.LANCHOR1
 384 0048 00000000 		.word	itm_port
 385 004c 10000000 		.word	.LC1
 386              		.cfi_endproc
 387              	.LFE230:
 388              		.size	De_queue, .-De_queue
 389              		.global	Rdpos
 390              		.global	Wrpos
 391              		.global	ReadPos
 392              		.global	WritePos
 393              		.global	Queue
 394              		.section	.bss.ReadPos,"aw",%nobits
ARM GAS  C:\Users\jo\AppData\Local\Temp\ccucl0Xe.s 			page 8


 395              		.set	.LANCHOR2,. + 0
 396              		.type	ReadPos, %object
 397              		.size	ReadPos, 1
 398              	ReadPos:
 399 0000 00       		.space	1
 400              		.section	.bss.Rdpos,"aw",%nobits
 401              		.align	2
 402              		.set	.LANCHOR4,. + 0
 403              		.type	Rdpos, %object
 404              		.size	Rdpos, 4
 405              	Rdpos:
 406 0000 00000000 		.space	4
 407              		.section	.bss.Queue,"aw",%nobits
 408              		.align	2
 409              		.set	.LANCHOR1,. + 0
 410              		.type	Queue, %object
 411              		.size	Queue, 128
 412              	Queue:
 413 0000 00000000 		.space	128
 413      00000000 
 413      00000000 
 413      00000000 
 413      00000000 
 414              		.section	.rodata.str1.4,"aMS",%progbits,1
 415              		.align	2
 416              	.LC0:
 417 0000 57726974 		.ascii	"WritePos: %d\012\000"
 417      65506F73 
 417      3A202564 
 417      0A00
 418 000e 0000     		.space	2
 419              	.LC1:
 420 0010 52656164 		.ascii	"ReadPos: %d\012\000"
 420      506F733A 
 420      2025640A 
 420      00
 421 001d 000000   		.section	.bss.Wrpos,"aw",%nobits
 422              		.align	2
 423              		.set	.LANCHOR3,. + 0
 424              		.type	Wrpos, %object
 425              		.size	Wrpos, 4
 426              	Wrpos:
 427 0000 00000000 		.space	4
 428              		.section	.bss.WritePos,"aw",%nobits
 429              		.set	.LANCHOR0,. + 0
 430              		.type	WritePos, %object
 431              		.size	WritePos, 1
 432              	WritePos:
 433 0000 00       		.space	1
 434              		.text
 435              	.Letext0:
 436              		.file 3 "c:\\program files\\gnu tools arm embedded\\4.9 2014q4\\lib\\gcc\\arm-none-eabi\\4.9.3\\in
 437              		.file 4 "c:\\program files\\gnu tools arm embedded\\4.9 2014q4\\arm-none-eabi\\include\\machine\\_
 438              		.file 5 "c:\\program files\\gnu tools arm embedded\\4.9 2014q4\\arm-none-eabi\\include\\stdint.h"
 439              		.file 6 "../../../os/rt/ports/ARMCMx/compilers/GCC/chtypes.h"
 440              		.file 7 "../../../os/rt/include/chsystypes.h"
 441              		.file 8 "../../../os/rt/include/chschd.h"
ARM GAS  C:\Users\jo\AppData\Local\Temp\ccucl0Xe.s 			page 9


 442              		.file 9 "../../../os/rt/ports/ARMCMx/chcore.h"
 443              		.file 10 "../../../os/rt/ports/ARMCMx/chcore_v7m.h"
 444              		.file 11 "c:\\program files\\gnu tools arm embedded\\4.9 2014q4\\lib\\gcc\\arm-none-eabi\\4.9.3\\i
 445              		.file 12 "<built-in>"
 446              		.file 13 "../../../os/rt/include/chdebug.h"
 447              		.file 14 "../../../os/rt/include/chtm.h"
 448              		.file 15 "../../../os/rt/include/chstats.h"
 449              		.file 16 "../../../os/rt/include/chmtx.h"
 450              		.file 17 "../../../os/rt/include/chstreams.h"
 451              		.file 18 "ITM_trace.h"
 452              		.file 19 "../../../os/ext/CMSIS/include/core_cm4.h"