ARM GAS  C:\Users\jo\AppData\Local\Temp\ccN6q2EI.s 			page 1


   1              		.syntax unified
   2              		.cpu cortex-m4
   3              		.fpu softvfp
   4              		.eabi_attribute 20, 1
   5              		.eabi_attribute 21, 1
   6              		.eabi_attribute 23, 3
   7              		.eabi_attribute 24, 1
   8              		.eabi_attribute 25, 1
   9              		.eabi_attribute 26, 1
  10              		.eabi_attribute 30, 2
  11              		.eabi_attribute 34, 1
  12              		.eabi_attribute 18, 4
  13              		.thumb
  14              		.file	"responses.c"
  15              		.text
  16              	.Ltext0:
  17              		.cfi_sections	.debug_frame
  18              		.section	.text.HttpResponseText,"ax",%progbits
  19              		.align	2
  20              		.p2align 4,,15
  21              		.global	HttpResponseText
  22              		.thumb
  23              		.thumb_func
  24              		.type	HttpResponseText, %function
  25              	HttpResponseText:
  26              	.LFB256:
  27              		.file 1 "../../../demos/STM32/RT-STM32F407-DISCOVERY-uHttp/uhttp-1.1/responses.c"
  28              		.loc 1 140 0
  29              		.cfi_startproc
  30              		@ args = 0, pretend = 0, frame = 0
  31              		@ frame_needed = 0, uses_anonymous_args = 0
  32              		@ link register save eliminated.
  33              	.LVL0:
  34 0000 30B4     		push	{r4, r5}
  35              		.cfi_def_cfa_offset 8
  36              		.cfi_offset 4, -8
  37              		.cfi_offset 5, -4
  38              		.loc 1 140 0
  39 0002 0146     		mov	r1, r0
  40 0004 0E4C     		ldr	r4, .L16
  41              		.loc 1 145 0
  42 0006 0023     		movs	r3, #0
  43 0008 01E0     		b	.L3
  44              	.LVL1:
  45              	.L14:
  46              		.loc 1 145 0 is_stmt 0 discriminator 2
  47 000a 432B     		cmp	r3, #67
  48 000c 09D0     		beq	.L4
  49              	.LVL2:
  50              	.L3:
  51              		.loc 1 146 0 is_stmt 1
  52 000e 54F83320 		ldr	r2, [r4, r3, lsl #3]
  53 0012 0B4D     		ldr	r5, .L16
  54 0014 8A42     		cmp	r2, r1
  55 0016 4FEAC300 		lsl	r0, r3, #3
  56 001a 03F10103 		add	r3, r3, #1
  57              	.LVL3:
ARM GAS  C:\Users\jo\AppData\Local\Temp\ccN6q2EI.s 			page 2


  58 001e F4DC     		bgt	.L14
  59              		.loc 1 150 0
  60 0020 07D0     		beq	.L15
  61              	.LVL4:
  62              	.L4:
  63              	.LBB7:
  64              	.LBB8:
  65              	.LBB9:
  66              		.loc 1 161 0
  67 0022 084B     		ldr	r3, .L16+4
  68              	.LVL5:
  69 0024 0848     		ldr	r0, .L16+8
  70              	.LBE9:
  71              	.LBE8:
  72              	.LBE7:
  73              		.loc 1 165 0
  74 0026 30BC     		pop	{r4, r5}
  75              		.cfi_remember_state
  76              		.cfi_restore 5
  77              		.cfi_restore 4
  78              		.cfi_def_cfa_offset 0
  79              	.LBB12:
  80              	.LBB11:
  81              	.LBB10:
  82              		.loc 1 161 0
  83 0028 B1F5C87F 		cmp	r1, #400
  84 002c B8BF     		it	lt
  85 002e 1846     		movlt	r0, r3
  86              	.LBE10:
  87              	.LBE11:
  88              	.LBE12:
  89              		.loc 1 165 0
  90 0030 7047     		bx	lr
  91              	.LVL6:
  92              	.L15:
  93              		.cfi_restore_state
  94              		.loc 1 151 0
  95 0032 2844     		add	r0, r0, r5
  96 0034 4068     		ldr	r0, [r0, #4]
  97              	.LVL7:
  98              		.loc 1 154 0
  99 0036 0028     		cmp	r0, #0
 100 0038 F3D0     		beq	.L4
 101              		.loc 1 165 0
 102 003a 30BC     		pop	{r4, r5}
 103              		.cfi_restore 4
 104              		.cfi_restore 5
 105              		.cfi_def_cfa_offset 0
 106 003c 7047     		bx	lr
 107              	.L17:
 108 003e 00BF     		.align	2
 109              	.L16:
 110 0040 00000000 		.word	.LANCHOR0
 111 0044 08000000 		.word	.LC1
 112 0048 00000000 		.word	.LC0
 113              		.cfi_endproc
 114              	.LFE256:
ARM GAS  C:\Users\jo\AppData\Local\Temp\ccN6q2EI.s 			page 3


 115              		.size	HttpResponseText, .-HttpResponseText
 116 004c AFF30080 		.section	.text.HttpSendHeaderTop,"ax",%progbits
 117              		.align	2
 118              		.p2align 4,,15
 119              		.global	HttpSendHeaderTop
 120              		.thumb
 121              		.thumb_func
 122              		.type	HttpSendHeaderTop, %function
 123              	HttpSendHeaderTop:
 124              	.LFB257:
 125              		.loc 1 168 0
 126              		.cfi_startproc
 127              		@ args = 0, pretend = 0, frame = 0
 128              		@ frame_needed = 0, uses_anonymous_args = 0
 129              	.LVL8:
 130 0000 30B5     		push	{r4, r5, lr}
 131              		.cfi_def_cfa_offset 12
 132              		.cfi_offset 4, -12
 133              		.cfi_offset 5, -8
 134              		.cfi_offset 14, -4
 135 0002 0546     		mov	r5, r0
 136 0004 83B0     		sub	sp, sp, #12
 137              		.cfi_def_cfa_offset 24
 138              		.loc 1 172 0
 139 0006 0846     		mov	r0, r1
 140              	.LVL9:
 141              		.loc 1 168 0
 142 0008 0C46     		mov	r4, r1
 143              		.loc 1 172 0
 144 000a FFF7FEFF 		bl	HttpResponseText
 145              	.LVL10:
 146 000e 2B68     		ldr	r3, [r5]
 147 0010 0449     		ldr	r1, .L20
 148 0012 0190     		str	r0, [sp, #4]
 149 0014 0122     		movs	r2, #1
 150 0016 1846     		mov	r0, r3
 151 0018 0094     		str	r4, [sp]
 152 001a 1346     		mov	r3, r2
 153 001c FFF7FEFF 		bl	s_printf
 154              	.LVL11:
 155              		.loc 1 181 0
 156 0020 03B0     		add	sp, sp, #12
 157              		.cfi_def_cfa_offset 12
 158              		@ sp needed
 159 0022 30BD     		pop	{r4, r5, pc}
 160              	.LVL12:
 161              	.L21:
 162              		.align	2
 163              	.L20:
 164 0024 00000000 		.word	.LANCHOR1
 165              		.cfi_endproc
 166              	.LFE257:
 167              		.size	HttpSendHeaderTop, .-HttpSendHeaderTop
 168 0028 AFF30080 		.section	.text.HttpSendHeaderBottom,"ax",%progbits
 168      AFF30080 
 169              		.align	2
 170              		.p2align 4,,15
ARM GAS  C:\Users\jo\AppData\Local\Temp\ccN6q2EI.s 			page 4


 171              		.global	HttpSendHeaderBottom
 172              		.thumb
 173              		.thumb_func
 174              		.type	HttpSendHeaderBottom, %function
 175              	HttpSendHeaderBottom:
 176              	.LFB258:
 177              		.loc 1 195 0
 178              		.cfi_startproc
 179              		@ args = 0, pretend = 0, frame = 0
 180              		@ frame_needed = 0, uses_anonymous_args = 0
 181              	.LVL13:
 182 0000 F0B5     		push	{r4, r5, r6, r7, lr}
 183              		.cfi_def_cfa_offset 20
 184              		.cfi_offset 4, -20
 185              		.cfi_offset 5, -16
 186              		.cfi_offset 6, -12
 187              		.cfi_offset 7, -8
 188              		.cfi_offset 14, -4
 189 0002 0446     		mov	r4, r0
 190 0004 85B0     		sub	sp, sp, #20
 191              		.cfi_def_cfa_offset 40
 192              		.loc 1 195 0
 193 0006 1D46     		mov	r5, r3
 194              		.loc 1 197 0
 195 0008 69B1     		cbz	r1, .L23
 196              		.loc 1 197 0 is_stmt 0 discriminator 1
 197 000a 62B1     		cbz	r2, .L23
 198              		.loc 1 198 0 is_stmt 1
 199 000c 0068     		ldr	r0, [r0]
 200              	.LVL14:
 201 000e 0F4F     		ldr	r7, .L32
 202 0010 0F4E     		ldr	r6, .L32+4
 203 0012 0192     		str	r2, [sp, #4]
 204 0014 0022     		movs	r2, #0
 205              	.LVL15:
 206 0016 0B46     		mov	r3, r1
 207              	.LVL16:
 208 0018 0392     		str	r2, [sp, #12]
 209 001a 0097     		str	r7, [sp]
 210 001c 0296     		str	r6, [sp, #8]
 211 001e 0D49     		ldr	r1, .L32+8
 212              	.LVL17:
 213 0020 0D4A     		ldr	r2, .L32+12
 214 0022 FFF7FEFF 		bl	s_vputs
 215              	.LVL18:
 216              	.L23:
 217              		.loc 1 200 0
 218 0026 002D     		cmp	r5, #0
 219 0028 05DB     		blt	.L24
 220              		.loc 1 201 0
 221 002a 2B46     		mov	r3, r5
 222 002c 2068     		ldr	r0, [r4]
 223 002e 0B49     		ldr	r1, .L32+16
 224 0030 0B4A     		ldr	r2, .L32+20
 225 0032 FFF7FEFF 		bl	s_printf
 226              	.LVL19:
 227              	.L24:
ARM GAS  C:\Users\jo\AppData\Local\Temp\ccN6q2EI.s 			page 5


 228              		.loc 1 220 0
 229 0036 2168     		ldr	r1, [r4]
 230 0038 0A48     		ldr	r0, .L32+24
 231 003a FFF7FEFF 		bl	s_puts
 232              	.LVL20:
 233              		.loc 1 229 0
 234 003e 2168     		ldr	r1, [r4]
 235 0040 0348     		ldr	r0, .L32+4
 236              		.loc 1 231 0
 237 0042 05B0     		add	sp, sp, #20
 238              		.cfi_def_cfa_offset 20
 239              		@ sp needed
 240 0044 BDE8F040 		pop	{r4, r5, r6, r7, lr}
 241              		.cfi_restore 14
 242              		.cfi_restore 7
 243              		.cfi_restore 6
 244              		.cfi_restore 5
 245              		.cfi_restore 4
 246              		.cfi_def_cfa_offset 0
 247              	.LVL21:
 248              		.loc 1 229 0
 249 0048 FFF7FEBF 		b	s_puts
 250              	.LVL22:
 251              	.L33:
 252              		.align	2
 253              	.L32:
 254 004c 10000000 		.word	.LC3
 255 0050 14000000 		.word	.LC4
 256 0054 00000000 		.word	ct_Content_Type
 257 0058 0C000000 		.word	.LC2
 258 005c 18000000 		.word	.LC5
 259 0060 00000000 		.word	ct_Content_Length
 260 0064 24000000 		.word	.LC6
 261              		.cfi_endproc
 262              	.LFE258:
 263              		.size	HttpSendHeaderBottom, .-HttpSendHeaderBottom
 264 0068 AFF30080 		.section	.text.HttpSendError,"ax",%progbits
 264      AFF30080 
 265              		.align	2
 266              		.p2align 4,,15
 267              		.global	HttpSendError
 268              		.thumb
 269              		.thumb_func
 270              		.type	HttpSendError, %function
 271              	HttpSendError:
 272              	.LFB259:
 273              		.loc 1 234 0
 274              		.cfi_startproc
 275              		@ args = 0, pretend = 0, frame = 0
 276              		@ frame_needed = 0, uses_anonymous_args = 0
 277              	.LVL23:
 278 0000 70B5     		push	{r4, r5, r6, lr}
 279              		.cfi_def_cfa_offset 16
 280              		.cfi_offset 4, -16
 281              		.cfi_offset 5, -12
 282              		.cfi_offset 6, -8
 283              		.cfi_offset 14, -4
ARM GAS  C:\Users\jo\AppData\Local\Temp\ccN6q2EI.s 			page 6


 284 0002 0546     		mov	r5, r0
 285 0004 82B0     		sub	sp, sp, #8
 286              		.cfi_def_cfa_offset 24
 287              		.loc 1 236 0
 288 0006 0846     		mov	r0, r1
 289              	.LVL24:
 290              		.loc 1 234 0
 291 0008 0C46     		mov	r4, r1
 292              		.loc 1 236 0
 293 000a FFF7FEFF 		bl	HttpResponseText
 294              	.LVL25:
 295              		.loc 1 243 0
 296 000e 2146     		mov	r1, r4
 297              		.loc 1 236 0
 298 0010 0646     		mov	r6, r0
 299              	.LVL26:
 300              		.loc 1 243 0
 301 0012 2846     		mov	r0, r5
 302              	.LVL27:
 303 0014 FFF7FEFF 		bl	HttpSendHeaderTop
 304              	.LVL28:
 305              		.loc 1 245 0
 306 0018 40F29113 		movw	r3, #401
 307 001c 9C42     		cmp	r4, r3
 308 001e 18D0     		beq	.L37
 309              	.L35:
 310              		.loc 1 249 0
 311 0020 3046     		mov	r0, r6
 312 0022 FFF7FEFF 		bl	strlen
 313              	.LVL29:
 314 0026 00F12003 		add	r3, r0, #32
 315 002a 5B00     		lsls	r3, r3, #1
 316 002c 2846     		mov	r0, r5
 317 002e 0C49     		ldr	r1, .L38
 318 0030 0C4A     		ldr	r2, .L38+4
 319 0032 FFF7FEFF 		bl	HttpSendHeaderBottom
 320              	.LVL30:
 321              		.loc 1 251 0
 322 0036 2868     		ldr	r0, [r5]
 323 0038 0B49     		ldr	r1, .L38+8
 324 003a 8DE85000 		stmia	sp, {r4, r6}
 325 003e 2246     		mov	r2, r4
 326 0040 3346     		mov	r3, r6
 327 0042 FFF7FEFF 		bl	s_printf
 328              	.LVL31:
 329              		.loc 1 252 0
 330 0046 2868     		ldr	r0, [r5]
 331              		.loc 1 253 0
 332 0048 02B0     		add	sp, sp, #8
 333              		.cfi_remember_state
 334              		.cfi_def_cfa_offset 16
 335              		@ sp needed
 336 004a BDE87040 		pop	{r4, r5, r6, lr}
 337              		.cfi_restore 14
 338              		.cfi_restore 6
 339              		.cfi_restore 5
 340              		.cfi_restore 4
ARM GAS  C:\Users\jo\AppData\Local\Temp\ccN6q2EI.s 			page 7


 341              		.cfi_def_cfa_offset 0
 342              	.LVL32:
 343              		.loc 1 252 0
 344 004e FFF7FEBF 		b	s_flush
 345              	.LVL33:
 346              	.L37:
 347              		.cfi_restore_state
 348              	.LBB13:
 349              		.loc 1 247 0
 350 0052 2868     		ldr	r0, [r5]
 351 0054 0549     		ldr	r1, .L38+12
 352 0056 AA6A     		ldr	r2, [r5, #40]
 353 0058 FFF7FEFF 		bl	s_printf
 354              	.LVL34:
 355 005c E0E7     		b	.L35
 356              	.L39:
 357 005e 00BF     		.align	2
 358              	.L38:
 359 0060 38000000 		.word	.LC7
 360 0064 40000000 		.word	.LC8
 361 0068 00000000 		.word	.LANCHOR3
 362 006c 00000000 		.word	.LANCHOR2
 363              	.LBE13:
 364              		.cfi_endproc
 365              	.LFE259:
 366              		.size	HttpSendError, .-HttpSendError
 367              		.section	.text.HttpSendRedirection,"ax",%progbits
 368              		.align	2
 369              		.p2align 4,,15
 370              		.global	HttpSendRedirection
 371              		.thumb
 372              		.thumb_func
 373              		.type	HttpSendRedirection, %function
 374              	HttpSendRedirection:
 375              	.LFB260:
 376              		.loc 1 259 0
 377              		.cfi_startproc
 378              		@ args = 4, pretend = 12, frame = 8
 379              		@ frame_needed = 0, uses_anonymous_args = 1
 380              	.LVL35:
 381 0000 0EB4     		push	{r1, r2, r3}
 382              		.cfi_def_cfa_offset 12
 383              		.cfi_offset 1, -12
 384              		.cfi_offset 2, -8
 385              		.cfi_offset 3, -4
 386 0002 2DE9F041 		push	{r4, r5, r6, r7, r8, lr}
 387              		.cfi_def_cfa_offset 36
 388              		.cfi_offset 4, -36
 389              		.cfi_offset 5, -32
 390              		.cfi_offset 6, -28
 391              		.cfi_offset 7, -24
 392              		.cfi_offset 8, -20
 393              		.cfi_offset 14, -16
 394 0006 85B0     		sub	sp, sp, #20
 395              		.cfi_def_cfa_offset 56
 396              		.loc 1 259 0
 397 0008 0BAD     		add	r5, sp, #44
ARM GAS  C:\Users\jo\AppData\Local\Temp\ccN6q2EI.s 			page 8


 398              		.loc 1 266 0
 399 000a 0C9B     		ldr	r3, [sp, #48]
 400              	.LVL36:
 401              		.loc 1 259 0
 402 000c 55F8048B 		ldr	r8, [r5], #4
 403              		.loc 1 266 0
 404 0010 2C1D     		adds	r4, r5, #4
 405              		.loc 1 259 0
 406 0012 0746     		mov	r7, r0
 407              		.loc 1 266 0
 408 0014 0394     		str	r4, [sp, #12]
 409 0016 002B     		cmp	r3, #0
 410 0018 4AD0     		beq	.L47
 411              		.loc 1 266 0 is_stmt 0 discriminator 3
 412 001a 0026     		movs	r6, #0
 413              	.LVL37:
 414              	.L42:
 415 001c 1846     		mov	r0, r3
 416 001e 0434     		adds	r4, r4, #4
 417 0020 FFF7FEFF 		bl	strlen
 418              	.LVL38:
 419 0024 54F8043C 		ldr	r3, [r4, #-4]
 420 0028 0394     		str	r4, [sp, #12]
 421 002a 0644     		add	r6, r6, r0
 422              	.LVL39:
 423 002c 002B     		cmp	r3, #0
 424 002e F5D1     		bne	.L42
 425 0030 701C     		adds	r0, r6, #1
 426              	.LVL40:
 427              	.L41:
 428              		.loc 1 268 0 is_stmt 1
 429 0032 FFF7FEFF 		bl	malloc
 430              	.LVL41:
 431              		.loc 1 269 0
 432 0036 0646     		mov	r6, r0
 433 0038 0028     		cmp	r0, #0
 434 003a 33D0     		beq	.L43
 435              	.LBB14:
 436              		.loc 1 274 0
 437 003c 4146     		mov	r1, r8
 438 003e 3846     		mov	r0, r7
 439              	.LVL42:
 440              		.loc 1 272 0
 441 0040 D7F80080 		ldr	r8, [r7]
 442              	.LVL43:
 443              		.loc 1 274 0
 444 0044 FFF7FEFF 		bl	HttpSendHeaderTop
 445              	.LVL44:
 446              		.loc 1 277 0
 447 0048 0C99     		ldr	r1, [sp, #48]
 448              	.LVL45:
 449 004a 2C1D     		adds	r4, r5, #4
 450 004c 0023     		movs	r3, #0
 451 004e 0394     		str	r4, [sp, #12]
 452 0050 3370     		strb	r3, [r6]
 453 0052 41B1     		cbz	r1, .L46
 454              	.L45:
ARM GAS  C:\Users\jo\AppData\Local\Temp\ccN6q2EI.s 			page 9


 455              		.loc 1 277 0 is_stmt 0 discriminator 3
 456 0054 0434     		adds	r4, r4, #4
 457 0056 3046     		mov	r0, r6
 458 0058 FFF7FEFF 		bl	strcat
 459              	.LVL46:
 460 005c 54F8041C 		ldr	r1, [r4, #-4]
 461              	.LVL47:
 462 0060 0394     		str	r4, [sp, #12]
 463 0062 0029     		cmp	r1, #0
 464 0064 F6D1     		bne	.L45
 465              	.L46:
 466              		.loc 1 281 0 is_stmt 1
 467 0066 134B     		ldr	r3, .L54
 468 0068 0093     		str	r3, [sp]
 469 006a 0023     		movs	r3, #0
 470 006c 1249     		ldr	r1, .L54+4
 471              	.LVL48:
 472 006e 134A     		ldr	r2, .L54+8
 473 0070 0193     		str	r3, [sp, #4]
 474 0072 4046     		mov	r0, r8
 475 0074 3346     		mov	r3, r6
 476 0076 FFF7FEFF 		bl	s_vputs
 477              	.LVL49:
 478              		.loc 1 282 0
 479 007a 3046     		mov	r0, r6
 480 007c FFF7FEFF 		bl	strlen
 481              	.LVL50:
 482 0080 0F49     		ldr	r1, .L54+12
 483 0082 104A     		ldr	r2, .L54+16
 484 0084 00F13303 		add	r3, r0, #51
 485 0088 3846     		mov	r0, r7
 486 008a FFF7FEFF 		bl	HttpSendHeaderBottom
 487              	.LVL51:
 488              		.loc 1 285 0
 489 008e 0E49     		ldr	r1, .L54+20
 490 0090 3246     		mov	r2, r6
 491 0092 4046     		mov	r0, r8
 492 0094 FFF7FEFF 		bl	s_printf
 493              	.LVL52:
 494              		.loc 1 286 0
 495 0098 4046     		mov	r0, r8
 496 009a FFF7FEFF 		bl	s_flush
 497              	.LVL53:
 498              		.loc 1 287 0
 499 009e 3046     		mov	r0, r6
 500 00a0 FFF7FEFF 		bl	free
 501              	.LVL54:
 502              	.L43:
 503              	.LBE14:
 504              		.loc 1 290 0
 505 00a4 0020     		movs	r0, #0
 506 00a6 05B0     		add	sp, sp, #20
 507              		.cfi_remember_state
 508              		.cfi_def_cfa_offset 36
 509              		@ sp needed
 510 00a8 BDE8F041 		pop	{r4, r5, r6, r7, r8, lr}
 511              		.cfi_restore 14
ARM GAS  C:\Users\jo\AppData\Local\Temp\ccN6q2EI.s 			page 10


 512              		.cfi_restore 8
 513              		.cfi_restore 7
 514              		.cfi_restore 6
 515              		.cfi_restore 5
 516              		.cfi_restore 4
 517              		.cfi_def_cfa_offset 12
 518              	.LVL55:
 519 00ac 03B0     		add	sp, sp, #12
 520              		.cfi_restore 3
 521              		.cfi_restore 2
 522              		.cfi_restore 1
 523              		.cfi_def_cfa_offset 0
 524 00ae 7047     		bx	lr
 525              	.LVL56:
 526              	.L47:
 527              		.cfi_restore_state
 528              		.loc 1 266 0
 529 00b0 0120     		movs	r0, #1
 530              	.LVL57:
 531 00b2 BEE7     		b	.L41
 532              	.L55:
 533              		.align	2
 534              	.L54:
 535 00b4 14000000 		.word	.LC4
 536 00b8 00000000 		.word	ct_Location
 537 00bc 0C000000 		.word	.LC2
 538 00c0 38000000 		.word	.LC7
 539 00c4 40000000 		.word	.LC8
 540 00c8 00000000 		.word	.LANCHOR4
 541              		.cfi_endproc
 542              	.LFE260:
 543              		.size	HttpSendRedirection, .-HttpSendRedirection
 544 00cc AFF30080 		.section	.rodata.body.9137,"a",%progbits
 545              		.align	2
 546              		.set	.LANCHOR4,. + 0
 547              		.type	body.9137, %object
 548              		.size	body.9137, 54
 549              	body.9137:
 550 0000 3C68746D 		.ascii	"<html><body><a href=\"%s\">Continue</a></body></htm"
 550      6C3E3C62 
 550      6F64793E 
 550      3C612068 
 550      7265663D 
 551 0031 6C3E0D0A 		.ascii	"l>\015\012\000"
 551      00
 552 0036 0000     		.section	.rodata.fmt_P.9112,"a",%progbits
 553              		.align	2
 554              		.set	.LANCHOR1,. + 0
 555              		.type	fmt_P.9112, %object
 556              		.size	fmt_P.9112, 38
 557              	fmt_P.9112:
 558 0000 48545450 		.ascii	"HTTP/%d.%d %d %s\015\012Server: uHTTP 0.0\015\012\000"
 558      2F25642E 
 558      25642025 
 558      64202573 
 558      0D0A5365 
 559 0026 0000     		.section	.rodata.response_list,"a",%progbits
ARM GAS  C:\Users\jo\AppData\Local\Temp\ccN6q2EI.s 			page 11


 560              		.align	2
 561              		.set	.LANCHOR0,. + 0
 562              		.type	response_list, %object
 563              		.size	response_list, 536
 564              	response_list:
 565 0000 64000000 		.word	100
 566 0004 48000000 		.word	.LC9
 567 0008 65000000 		.word	101
 568 000c 54000000 		.word	.LC10
 569 0010 66000000 		.word	102
 570 0014 68000000 		.word	.LC11
 571 0018 67000000 		.word	103
 572 001c 74000000 		.word	.LC12
 573 0020 C8000000 		.word	200
 574 0024 08000000 		.word	.LC1
 575 0028 C9000000 		.word	201
 576 002c 80000000 		.word	.LC13
 577 0030 CA000000 		.word	202
 578 0034 88000000 		.word	.LC14
 579 0038 CB000000 		.word	203
 580 003c 94000000 		.word	.LC15
 581 0040 CC000000 		.word	204
 582 0044 B4000000 		.word	.LC16
 583 0048 CD000000 		.word	205
 584 004c C0000000 		.word	.LC17
 585 0050 CE000000 		.word	206
 586 0054 D0000000 		.word	.LC18
 587 0058 CF000000 		.word	207
 588 005c E0000000 		.word	.LC19
 589 0060 D0000000 		.word	208
 590 0064 F0000000 		.word	.LC20
 591 0068 E2000000 		.word	226
 592 006c 04010000 		.word	.LC21
 593 0070 2C010000 		.word	300
 594 0074 0C010000 		.word	.LC22
 595 0078 2D010000 		.word	301
 596 007c 20010000 		.word	.LC23
 597 0080 2E010000 		.word	302
 598 0084 34010000 		.word	.LC24
 599 0088 2F010000 		.word	303
 600 008c 48010000 		.word	.LC25
 601 0090 30010000 		.word	304
 602 0094 54010000 		.word	.LC26
 603 0098 31010000 		.word	305
 604 009c 64010000 		.word	.LC27
 605 00a0 32010000 		.word	306
 606 00a4 70010000 		.word	.LC28
 607 00a8 33010000 		.word	307
 608 00ac 80010000 		.word	.LC29
 609 00b0 34010000 		.word	308
 610 00b4 94010000 		.word	.LC30
 611 00b8 90010000 		.word	400
 612 00bc A8010000 		.word	.LC31
 613 00c0 91010000 		.word	401
 614 00c4 B4010000 		.word	.LC32
 615 00c8 92010000 		.word	402
 616 00cc C4010000 		.word	.LC33
ARM GAS  C:\Users\jo\AppData\Local\Temp\ccN6q2EI.s 			page 12


 617 00d0 93010000 		.word	403
 618 00d4 D8010000 		.word	.LC34
 619 00d8 94010000 		.word	404
 620 00dc E4010000 		.word	.LC35
 621 00e0 95010000 		.word	405
 622 00e4 F0010000 		.word	.LC36
 623 00e8 96010000 		.word	406
 624 00ec FC010000 		.word	.LC37
 625 00f0 97010000 		.word	407
 626 00f4 0C020000 		.word	.LC38
 627 00f8 98010000 		.word	408
 628 00fc 2C020000 		.word	.LC39
 629 0100 99010000 		.word	409
 630 0104 40020000 		.word	.LC40
 631 0108 9A010000 		.word	410
 632 010c 4C020000 		.word	.LC41
 633 0110 9B010000 		.word	411
 634 0114 54020000 		.word	.LC42
 635 0118 9C010000 		.word	412
 636 011c 64020000 		.word	.LC43
 637 0120 9D010000 		.word	413
 638 0124 78020000 		.word	.LC44
 639 0128 9E010000 		.word	414
 640 012c 94020000 		.word	.LC45
 641 0130 9F010000 		.word	415
 642 0134 AC020000 		.word	.LC46
 643 0138 A0010000 		.word	416
 644 013c C4020000 		.word	.LC47
 645 0140 A1010000 		.word	417
 646 0144 E4020000 		.word	.LC48
 647 0148 A2010000 		.word	418
 648 014c F8020000 		.word	.LC49
 649 0150 A6010000 		.word	422
 650 0154 08030000 		.word	.LC50
 651 0158 A7010000 		.word	423
 652 015c 20030000 		.word	.LC51
 653 0160 A8010000 		.word	424
 654 0164 28030000 		.word	.LC52
 655 0168 A9010000 		.word	425
 656 016c 3C030000 		.word	.LC53
 657 0170 AA010000 		.word	426
 658 0174 54030000 		.word	.LC54
 659 0178 AC010000 		.word	428
 660 017c 68030000 		.word	.LC55
 661 0180 AD010000 		.word	429
 662 0184 80030000 		.word	.LC56
 663 0188 AF010000 		.word	431
 664 018c 94030000 		.word	.LC57
 665 0190 BC010000 		.word	444
 666 0194 B4030000 		.word	.LC58
 667 0198 C1010000 		.word	449
 668 019c C0030000 		.word	.LC59
 669 01a0 F3010000 		.word	499
 670 01a4 CC030000 		.word	.LC60
 671 01a8 F4010000 		.word	500
 672 01ac E4030000 		.word	.LC61
 673 01b0 F5010000 		.word	501
ARM GAS  C:\Users\jo\AppData\Local\Temp\ccN6q2EI.s 			page 13


 674 01b4 FC030000 		.word	.LC62
 675 01b8 F6010000 		.word	502
 676 01bc 14040000 		.word	.LC63
 677 01c0 F7010000 		.word	503
 678 01c4 20040000 		.word	.LC64
 679 01c8 F8010000 		.word	504
 680 01cc 40040000 		.word	.LC65
 681 01d0 F9010000 		.word	505
 682 01d4 54040000 		.word	.LC66
 683 01d8 FA010000 		.word	506
 684 01dc 70040000 		.word	.LC67
 685 01e0 FB010000 		.word	507
 686 01e4 88040000 		.word	.LC68
 687 01e8 FC010000 		.word	508
 688 01ec A0040000 		.word	.LC69
 689 01f0 FD010000 		.word	509
 690 01f4 B0040000 		.word	.LC70
 691 01f8 FE010000 		.word	510
 692 01fc CC040000 		.word	.LC71
 693 0200 FF010000 		.word	511
 694 0204 DC040000 		.word	.LC72
 695 0208 56020000 		.word	598
 696 020c FC040000 		.word	.LC73
 697 0210 57020000 		.word	599
 698 0214 18050000 		.word	.LC74
 699              		.section	.rodata.str1.4,"aMS",%progbits,1
 700              		.align	2
 701              	.LC0:
 702 0000 4572726F 		.ascii	"Error\000"
 702      7200
 703 0006 0000     		.space	2
 704              	.LC1:
 705 0008 4F4B00   		.ascii	"OK\000"
 706 000b 00       		.space	1
 707              	.LC2:
 708 000c 3A2000   		.ascii	": \000"
 709 000f 00       		.space	1
 710              	.LC3:
 711 0010 2F00     		.ascii	"/\000"
 712 0012 0000     		.space	2
 713              	.LC4:
 714 0014 0D0A00   		.ascii	"\015\012\000"
 715 0017 00       		.space	1
 716              	.LC5:
 717 0018 25733A20 		.ascii	"%s: %ld\015\012\000"
 717      256C640D 
 717      0A00
 718 0022 0000     		.space	2
 719              	.LC6:
 720 0024 436F6E6E 		.ascii	"Connection: close\015\012\000"
 720      65637469 
 720      6F6E3A20 
 720      636C6F73 
 720      650D0A00 
 721              	.LC7:
 722 0038 74657874 		.ascii	"text\000"
 722      00
ARM GAS  C:\Users\jo\AppData\Local\Temp\ccN6q2EI.s 			page 14


 723 003d 000000   		.space	3
 724              	.LC8:
 725 0040 68746D6C 		.ascii	"html\000"
 725      00
 726 0045 000000   		.space	3
 727              	.LC9:
 728 0048 436F6E74 		.ascii	"Continue\000"
 728      696E7565 
 728      00
 729 0051 000000   		.space	3
 730              	.LC10:
 731 0054 53776974 		.ascii	"Switching Protocols\000"
 731      6368696E 
 731      67205072 
 731      6F746F63 
 731      6F6C7300 
 732              	.LC11:
 733 0068 50726F63 		.ascii	"Processing\000"
 733      65737369 
 733      6E6700
 734 0073 00       		.space	1
 735              	.LC12:
 736 0074 43686563 		.ascii	"Checkpoint\000"
 736      6B706F69 
 736      6E7400
 737 007f 00       		.space	1
 738              	.LC13:
 739 0080 43726561 		.ascii	"Created\000"
 739      74656400 
 740              	.LC14:
 741 0088 41636365 		.ascii	"Accepted\000"
 741      70746564 
 741      00
 742 0091 000000   		.space	3
 743              	.LC15:
 744 0094 4E6F6E2D 		.ascii	"Non-Authoritative Information\000"
 744      41757468 
 744      6F726974 
 744      61746976 
 744      6520496E 
 745 00b2 0000     		.space	2
 746              	.LC16:
 747 00b4 4E6F2043 		.ascii	"No Content\000"
 747      6F6E7465 
 747      6E7400
 748 00bf 00       		.space	1
 749              	.LC17:
 750 00c0 52657365 		.ascii	"Reset Content\000"
 750      7420436F 
 750      6E74656E 
 750      7400
 751 00ce 0000     		.space	2
 752              	.LC18:
 753 00d0 50617274 		.ascii	"Partial Content\000"
 753      69616C20 
 753      436F6E74 
 753      656E7400 
ARM GAS  C:\Users\jo\AppData\Local\Temp\ccN6q2EI.s 			page 15


 754              	.LC19:
 755 00e0 4D756C74 		.ascii	"Multi-Status\000"
 755      692D5374 
 755      61747573 
 755      00
 756 00ed 000000   		.space	3
 757              	.LC20:
 758 00f0 416C7265 		.ascii	"Already Reported\000"
 758      61647920 
 758      5265706F 
 758      72746564 
 758      00
 759 0101 000000   		.space	3
 760              	.LC21:
 761 0104 494D2055 		.ascii	"IM Used\000"
 761      73656400 
 762              	.LC22:
 763 010c 4D756C74 		.ascii	"Multiple Choices\000"
 763      69706C65 
 763      2043686F 
 763      69636573 
 763      00
 764 011d 000000   		.space	3
 765              	.LC23:
 766 0120 4D6F7665 		.ascii	"Moved Permanently\000"
 766      64205065 
 766      726D616E 
 766      656E746C 
 766      7900
 767 0132 0000     		.space	2
 768              	.LC24:
 769 0134 4D6F7665 		.ascii	"Moved Temporarily\000"
 769      64205465 
 769      6D706F72 
 769      6172696C 
 769      7900
 770 0146 0000     		.space	2
 771              	.LC25:
 772 0148 53656520 		.ascii	"See Other\000"
 772      4F746865 
 772      7200
 773 0152 0000     		.space	2
 774              	.LC26:
 775 0154 4E6F7420 		.ascii	"Not Modified\000"
 775      4D6F6469 
 775      66696564 
 775      00
 776 0161 000000   		.space	3
 777              	.LC27:
 778 0164 55736520 		.ascii	"Use Proxy\000"
 778      50726F78 
 778      7900
 779 016e 0000     		.space	2
 780              	.LC28:
 781 0170 53776974 		.ascii	"Switch Proxy\000"
 781      63682050 
 781      726F7879 
ARM GAS  C:\Users\jo\AppData\Local\Temp\ccN6q2EI.s 			page 16


 781      00
 782 017d 000000   		.space	3
 783              	.LC29:
 784 0180 54656D70 		.ascii	"Temporary Redirect\000"
 784      6F726172 
 784      79205265 
 784      64697265 
 784      637400
 785 0193 00       		.space	1
 786              	.LC30:
 787 0194 52657375 		.ascii	"Resume Incomplete\000"
 787      6D652049 
 787      6E636F6D 
 787      706C6574 
 787      6500
 788 01a6 0000     		.space	2
 789              	.LC31:
 790 01a8 42616420 		.ascii	"Bad Request\000"
 790      52657175 
 790      65737400 
 791              	.LC32:
 792 01b4 556E6175 		.ascii	"Unauthorized\000"
 792      74686F72 
 792      697A6564 
 792      00
 793 01c1 000000   		.space	3
 794              	.LC33:
 795 01c4 5061796D 		.ascii	"Payment Required\000"
 795      656E7420 
 795      52657175 
 795      69726564 
 795      00
 796 01d5 000000   		.space	3
 797              	.LC34:
 798 01d8 466F7262 		.ascii	"Forbidden\000"
 798      69646465 
 798      6E00
 799 01e2 0000     		.space	2
 800              	.LC35:
 801 01e4 4E6F7420 		.ascii	"Not Found\000"
 801      466F756E 
 801      6400
 802 01ee 0000     		.space	2
 803              	.LC36:
 804 01f0 4E6F7420 		.ascii	"Not Allowed\000"
 804      416C6C6F 
 804      77656400 
 805              	.LC37:
 806 01fc 4E6F7420 		.ascii	"Not Acceptable\000"
 806      41636365 
 806      70746162 
 806      6C6500
 807 020b 00       		.space	1
 808              	.LC38:
 809 020c 50726F78 		.ascii	"Proxy Authentication Required\000"
 809      79204175 
 809      7468656E 
ARM GAS  C:\Users\jo\AppData\Local\Temp\ccN6q2EI.s 			page 17


 809      74696361 
 809      74696F6E 
 810 022a 0000     		.space	2
 811              	.LC39:
 812 022c 52657175 		.ascii	"Request Time-out\000"
 812      65737420 
 812      54696D65 
 812      2D6F7574 
 812      00
 813 023d 000000   		.space	3
 814              	.LC40:
 815 0240 436F6E66 		.ascii	"Conflict\000"
 815      6C696374 
 815      00
 816 0249 000000   		.space	3
 817              	.LC41:
 818 024c 476F6E65 		.ascii	"Gone\000"
 818      00
 819 0251 000000   		.space	3
 820              	.LC42:
 821 0254 4C656E67 		.ascii	"Length Required\000"
 821      74682052 
 821      65717569 
 821      72656400 
 822              	.LC43:
 823 0264 50726563 		.ascii	"Precondition Failed\000"
 823      6F6E6469 
 823      74696F6E 
 823      20466169 
 823      6C656400 
 824              	.LC44:
 825 0278 52657175 		.ascii	"Request Entity Too Large\000"
 825      65737420 
 825      456E7469 
 825      74792054 
 825      6F6F204C 
 826 0291 000000   		.space	3
 827              	.LC45:
 828 0294 52657175 		.ascii	"Request-URI Too Large\000"
 828      6573742D 
 828      55524920 
 828      546F6F20 
 828      4C617267 
 829 02aa 0000     		.space	2
 830              	.LC46:
 831 02ac 556E7375 		.ascii	"Unsupported Media Type\000"
 831      70706F72 
 831      74656420 
 831      4D656469 
 831      61205479 
 832 02c3 00       		.space	1
 833              	.LC47:
 834 02c4 52657175 		.ascii	"Requested Range Not Satisfiable\000"
 834      65737465 
 834      64205261 
 834      6E676520 
 834      4E6F7420 
ARM GAS  C:\Users\jo\AppData\Local\Temp\ccN6q2EI.s 			page 18


 835              	.LC48:
 836 02e4 45787065 		.ascii	"Expectation Failed\000"
 836      63746174 
 836      696F6E20 
 836      4661696C 
 836      656400
 837 02f7 00       		.space	1
 838              	.LC49:
 839 02f8 49276D20 		.ascii	"I'm a teapot\000"
 839      61207465 
 839      61706F74 
 839      00
 840 0305 000000   		.space	3
 841              	.LC50:
 842 0308 556E7072 		.ascii	"Unprocessable Entity\000"
 842      6F636573 
 842      7361626C 
 842      6520456E 
 842      74697479 
 843 031d 000000   		.space	3
 844              	.LC51:
 845 0320 4C6F636B 		.ascii	"Locked\000"
 845      656400
 846 0327 00       		.space	1
 847              	.LC52:
 848 0328 4661696C 		.ascii	"Failed Dependency\000"
 848      65642044 
 848      6570656E 
 848      64656E63 
 848      7900
 849 033a 0000     		.space	2
 850              	.LC53:
 851 033c 556E6F72 		.ascii	"Unordered Collection\000"
 851      64657265 
 851      6420436F 
 851      6C6C6563 
 851      74696F6E 
 852 0351 000000   		.space	3
 853              	.LC54:
 854 0354 55706772 		.ascii	"Upgrade Required\000"
 854      61646520 
 854      52657175 
 854      69726564 
 854      00
 855 0365 000000   		.space	3
 856              	.LC55:
 857 0368 50726563 		.ascii	"Precondition Required\000"
 857      6F6E6469 
 857      74696F6E 
 857      20526571 
 857      75697265 
 858 037e 0000     		.space	2
 859              	.LC56:
 860 0380 546F6F20 		.ascii	"Too Many Requests\000"
 860      4D616E79 
 860      20526571 
 860      75657374 
ARM GAS  C:\Users\jo\AppData\Local\Temp\ccN6q2EI.s 			page 19


 860      7300
 861 0392 0000     		.space	2
 862              	.LC57:
 863 0394 52657175 		.ascii	"Request Header Fields Too Large\000"
 863      65737420 
 863      48656164 
 863      65722046 
 863      69656C64 
 864              	.LC58:
 865 03b4 4E6F2052 		.ascii	"No Response\000"
 865      6573706F 
 865      6E736500 
 866              	.LC59:
 867 03c0 52657472 		.ascii	"Retry With\000"
 867      79205769 
 867      746800
 868 03cb 00       		.space	1
 869              	.LC60:
 870 03cc 436C6965 		.ascii	"Client Closed Request\000"
 870      6E742043 
 870      6C6F7365 
 870      64205265 
 870      71756573 
 871 03e2 0000     		.space	2
 872              	.LC61:
 873 03e4 496E7465 		.ascii	"Internal Server Error\000"
 873      726E616C 
 873      20536572 
 873      76657220 
 873      4572726F 
 874 03fa 0000     		.space	2
 875              	.LC62:
 876 03fc 4D657468 		.ascii	"Method Not Implemented\000"
 876      6F64204E 
 876      6F742049 
 876      6D706C65 
 876      6D656E74 
 877 0413 00       		.space	1
 878              	.LC63:
 879 0414 42616420 		.ascii	"Bad Gateway\000"
 879      47617465 
 879      77617900 
 880              	.LC64:
 881 0420 53657276 		.ascii	"Service Temporarily Unavailable\000"
 881      69636520 
 881      54656D70 
 881      6F726172 
 881      696C7920 
 882              	.LC65:
 883 0440 47617465 		.ascii	"Gateway Time-out\000"
 883      77617920 
 883      54696D65 
 883      2D6F7574 
 883      00
 884 0451 000000   		.space	3
 885              	.LC66:
 886 0454 48545450 		.ascii	"HTTP Version Not Supported\000"
ARM GAS  C:\Users\jo\AppData\Local\Temp\ccN6q2EI.s 			page 20


 886      20566572 
 886      73696F6E 
 886      204E6F74 
 886      20537570 
 887 046f 00       		.space	1
 888              	.LC67:
 889 0470 56617269 		.ascii	"Variant Also Negotiates\000"
 889      616E7420 
 889      416C736F 
 889      204E6567 
 889      6F746961 
 890              	.LC68:
 891 0488 496E7375 		.ascii	"Insufficient Storage\000"
 891      66666963 
 891      69656E74 
 891      2053746F 
 891      72616765 
 892 049d 000000   		.space	3
 893              	.LC69:
 894 04a0 4C6F6F70 		.ascii	"Loop Detected\000"
 894      20446574 
 894      65637465 
 894      6400
 895 04ae 0000     		.space	2
 896              	.LC70:
 897 04b0 42616E64 		.ascii	"Bandwidth Limit Exceeded\000"
 897      77696474 
 897      68204C69 
 897      6D697420 
 897      45786365 
 898 04c9 000000   		.space	3
 899              	.LC71:
 900 04cc 4E6F7420 		.ascii	"Not Extended\000"
 900      45787465 
 900      6E646564 
 900      00
 901 04d9 000000   		.space	3
 902              	.LC72:
 903 04dc 4E657477 		.ascii	"Network Authentication Required\000"
 903      6F726B20 
 903      41757468 
 903      656E7469 
 903      63617469 
 904              	.LC73:
 905 04fc 4E657477 		.ascii	"Network read timeout error\000"
 905      6F726B20 
 905      72656164 
 905      2074696D 
 905      656F7574 
 906 0517 00       		.space	1
 907              	.LC74:
 908 0518 4E657477 		.ascii	"Network connect timeout error\000"
 908      6F726B20 
 908      636F6E6E 
 908      65637420 
 908      74696D65 
 909 0536 0000     		.section	.rodata.auth_fmt_P.9125,"a",%progbits
ARM GAS  C:\Users\jo\AppData\Local\Temp\ccN6q2EI.s 			page 21


 910              		.align	2
 911              		.set	.LANCHOR2,. + 0
 912              		.type	auth_fmt_P.9125, %object
 913              		.size	auth_fmt_P.9125, 37
 914              	auth_fmt_P.9125:
 915 0000 5757572D 		.ascii	"WWW-Authenticate: Basic realm=\"%s\"\015\012\000"
 915      41757468 
 915      656E7469 
 915      63617465 
 915      3A204261 
 916 0025 000000   		.section	.rodata.body.9123,"a",%progbits
 917              		.align	2
 918              		.set	.LANCHOR3,. + 0
 919              		.type	body.9123, %object
 920              		.size	body.9123, 67
 921              	body.9123:
 922 0000 3C48544D 		.ascii	"<HTML><HEAD><TITLE>%d %s</TITLE></HEAD><BODY>%d %s<"
 922      4C3E3C48 
 922      4541443E 
 922      3C544954 
 922      4C453E25 
 923 0033 2F424F44 		.ascii	"/BODY></HTML>\015\012\000"
 923      593E3C2F 
 923      48544D4C 
 923      3E0D0A00 
 924 0043 00       		.text
 925              	.Letext0:
 926              		.file 2 "c:\\program files\\gnu tools arm embedded\\4.9 2014q4\\lib\\gcc\\arm-none-eabi\\4.9.3\\in
 927              		.file 3 "c:\\program files\\gnu tools arm embedded\\4.9 2014q4\\arm-none-eabi\\include\\machine\\_
 928              		.file 4 "c:\\program files\\gnu tools arm embedded\\4.9 2014q4\\arm-none-eabi\\include\\stdint.h"
 929              		.file 5 "../../../os/rt/ports/ARMCMx/compilers/GCC/chtypes.h"
 930              		.file 6 "../../../os/rt/include/chsystypes.h"
 931              		.file 7 "../../../os/rt/include/chschd.h"
 932              		.file 8 "../../../os/rt/ports/ARMCMx/chcore.h"
 933              		.file 9 "../../../os/rt/ports/ARMCMx/chcore_v7m.h"
 934              		.file 10 "c:\\program files\\gnu tools arm embedded\\4.9 2014q4\\lib\\gcc\\arm-none-eabi\\4.9.3\\i
 935              		.file 11 "<built-in>"
 936              		.file 12 "../../../os/rt/include/chdebug.h"
 937              		.file 13 "../../../os/rt/include/chtm.h"
 938              		.file 14 "../../../os/rt/include/chstats.h"
 939              		.file 15 "../../../os/rt/include/chmtx.h"
 940              		.file 16 "../../../os/various/lwip_bindings/arch/cc.h"
 941              		.file 17 "../../../os/ext/lwip-1.4.1/src/include/ipv4/lwip/inet.h"
 942              		.file 18 "../../../os/ext/lwip-1.4.1/src/include/lwip\\sockets.h"
 943              		.file 19 "./uhttp-1.1/pro/lwip/streamio.h"
 944              		.file 20 "./os/streamio.h"
 945              		.file 21 "./uhttp-1.1/uhttpd.h"
 946              		.file 22 "../../../os/ext/CMSIS/include/core_cm4.h"
 947              		.file 23 "c:\\program files\\gnu tools arm embedded\\4.9 2014q4\\arm-none-eabi\\include\\string.h"
 948              		.file 24 "c:\\program files\\gnu tools arm embedded\\4.9 2014q4\\arm-none-eabi\\include\\stdlib.h"