ARM GAS  C:\Users\jo\AppData\Local\Temp\ccN6q2EI.s 			page 1


   1              		.syntax unified
   2              		.cpu cortex-m4
   3              		.fpu softvfp
   4              		.eabi_attribute 20, 1
   5              		.eabi_attribute 21, 1
   6              		.eabi_attribute 23, 3
   7              		.eabi_attribute 24, 1
   8              		.eabi_attribute 25, 1
   9              		.eabi_attribute 26, 1
  10              		.eabi_attribute 30, 2
  11              		.eabi_attribute 34, 1
  12              		.eabi_attribute 18, 4
  13              		.thumb
  14              		.file	"responses.c"
  15              		.text
  16              	.Ltext0:
  17              		.cfi_sections	.debug_frame
  18              		.section	.text.HttpResponseText,"ax",%progbits
  19              		.align	2
  20              		.p2align 4,,15
  21              		.global	HttpResponseText
  22              		.thumb
  23              		.thumb_func
  24              		.type	HttpResponseText, %function
  25              	HttpResponseText:
  26              	.LFB256:
  27              		.file 1 "../../../demos/STM32/RT-STM32F407-DISCOVERY-uHttp/uhttp-1.1/responses.c"
  28              		.loc 1 140 0
  29              		.cfi_startproc
  30              		@ args = 0, pretend = 0, frame = 0
  31              		@ frame_needed = 0, uses_anonymous_args = 0
  32              		@ link register save eliminated.
  33              	.LVL0:
  34 0000 30B4     		push	{r4, r5}
  35              		.cfi_def_cfa_offset 8
  36              		.cfi_offset 4, -8
  37              		.cfi_offset 5, -4
  38              		.loc 1 140 0
  39 0002 0146     		mov	r1, r0
  40 0004 0E4C     		ldr	r4, .L16
  41              		.loc 1 145 0
  42 0006 0023     		movs	r3, #0
  43 0008 01E0     		b	.L3
  44              	.LVL1:
  45              	.L14:
  46              		.loc 1 145 0 is_stmt 0 discriminator 2
  47 000a 432B     		cmp	r3, #67
  48 000c 09D0     		beq	.L4
  49              	.LVL2:
  50              	.L3:
  51              		.loc 1 146 0 is_stmt 1
  52 000e 54F83320 		ldr	r2, [r4, r3, lsl #3]
  53 0012 0B4D     		ldr	r5, .L16
  54 0014 8A42     		cmp	r2, r1
  55 0016 4FEAC300 		lsl	r0, r3, #3
  56 001a 03F10103 		add	r3, r3, #1
  57              	.LVL3:
ARM GAS  C:\Users\jo\AppData\Local\Temp\ccN6q2EI.s 			page 2


  58 001e F4DC     		bgt	.L14
  59              		.loc 1 150 0
  60 0020 07D0     		beq	.L15
  61              	.LVL4:
  62              	.L4:
  63              	.LBB7:
  64              	.LBB8:
  65              	.LBB9:
  66              		.loc 1 161 0
  67 0022 084B     		ldr	r3, .L16+4
  68              	.LVL5:
  69 0024 0848     		ldr	r0, .L16+8
  70              	.LBE9:
  71              	.LBE8:
  72              	.LBE7:
  73              		.loc 1 165 0
  74 0026 30BC     		pop	{r4, r5}
  75              		.cfi_remember_state
  76              		.cfi_restore 5
  77              		.cfi_restore 4
  78              		.cfi_def_cfa_offset 0
  79              	.LBB12:
  80              	.LBB11:
  81              	.LBB10:
  82              		.loc 1 161 0
  83 0028 B1F5C87F 		cmp	r1, #400
  84 002c B8BF     		it	lt
  85 002e 1846     		movlt	r0, r3
  86              	.LBE10:
  87              	.LBE11:
  88              	.LBE12:
  89              		.loc 1 165 0
  90 0030 7047     		bx	lr
  91              	.LVL6:
  92              	.L15:
  93              		.cfi_restore_state
  94              		.loc 1 151 0
  95 0032 2844     		add	r0, r0, r5
  96 0034 4068     		ldr	r0, [r0, #4]
  97              	.LVL7:
  98              		.loc 1 154 0
  99 0036 0028     		cmp	r0, #0
 100 0038 F3D0     		beq	.L4
 101              		.loc 1 165 0
 102 003a 30BC     		pop	{r4, r5}
 103              		.cfi_restore 4
 104              		.cfi_restore 5
 105              		.cfi_def_cfa_offset 0
 106 003c 7047     		bx	lr
 107              	.L17:
 108 003e 00BF     		.align	2
 109              	.L16:
 110 0040 00000000 		.word	.LANCHOR0
 111 0044 08000000 		.word	.LC1
 112 0048 00000000 		.word	.LC0
 113              		.cfi_endproc
 114              	.LFE256:
ARM GAS  C:\Users\jo\AppData\Local\Temp\ccN6q2EI.s 			page 3


 115              		.size	HttpResponseText, .-HttpResponseText
 116 004c AFF30080 		.section	.text.HttpSendHeaderTop,"ax",%progbits
 117              		.align	2
 118              		.p2align 4,,15
 119              		.global	HttpSendHeaderTop
 120              		.thumb
 121              		.thumb_func
 122              		.type	HttpSendHeaderTop, %function
 123              	HttpSendHeaderTop:
 124              	.LFB257:
 125              		.loc 1 168 0
 126              		.cfi_startproc
 127              		@ args = 0, pretend = 0, frame = 0
 128              		@ frame_needed = 0, uses_anonymous_args = 0
 129              	.LVL8:
 130 0000 30B5     		push	{r4, r5, lr}
 131              		.cfi_def_cfa_offset 12
 132              		.cfi_offset 4, -12
 133              		.cfi_offset 5, -8
 134              		.cfi_offset 14, -4
 135 0002 0546     		mov	r5, r0
 136 0004 83B0     		sub	sp, sp, #12
 137              		.cfi_def_cfa_offset 24
 138              		.loc 1 172 0
 139 0006 0846     		mov	r0, r1
 140              	.LVL9:
 141              		.loc 1 168 0
 142 0008 0C46     		mov	r4, r1
 143              		.loc 1 172 0
 144 000a FFF7FEFF 		bl	HttpResponseText
 145              	.LVL10:
 146 000e 2B68     		ldr	r3, [r5]
 147 0010 0449     		ldr	r1, .L20
 148 0012 0190     		str	r0, [sp, #4]
 149 0014 0122     		movs	r2, #1
 150 0016 1846     		mov	r0, r3
 151 0018 0094     		str	r4, [sp]
 152 001a 1346     		mov	r3, r2
 153 001c FFF7FEFF 		bl	s_printf
 154              	.LVL11:
 155              		.loc 1 181 0
 156 0020 03B0     		add	sp, sp, #12
 157              		.cfi_def_cfa_offset 12
 158              		@ sp needed
 159 0022 30BD     		pop	{r4, r5, pc}
 160              	.LVL12:
 161              	.L21:
 162              		.align	2
 163              	.L20:
 164 0024 00000000 		.word	.LANCHOR1
 165              		.cfi_endproc
 166              	.LFE257:
 167              		.size	HttpSendHeaderTop, .-HttpSendHeaderTop
 168 0028 AFF30080 		.section	.text.HttpSendHeaderBottom,"ax",%progbits
 168      AFF30080 
 169              		.align	2
 170              		.p2align 4,,15
ARM GAS  C:\Users\jo\AppData\Local\Temp\ccN6q2EI.s 			page 4


 171              		.global	HttpSendHeaderBottom
 172              		.thumb
 173              		.thumb_func
 174              		.type	HttpSendHeaderBottom, %function
 175              	HttpSendHeaderBottom:
 176              	.LFB258:
 177              		.loc 1 195 0
 178              		.cfi_startproc
 179              		@ args = 0, pretend = 0, frame = 0
 180              		@ frame_needed = 0, uses_anonymous_args = 0
 181              	.LVL13:
 182 0000 F0B5     		push	{r4, r5, r6, r7, lr}
 183              		.cfi_def_cfa_offset 20
 184              		.cfi_offset 4, -20
 185              		.cfi_offset 5, -16
 186              		.cfi_offset 6, -12
 187              		.cfi_offset 7, -8
 188              		.cfi_offset 14, -4
 189 0002 0446     		mov	r4, r0
 190 0004 85B0     		sub	sp, sp, #20
 191              		.cfi_def_cfa_offset 40
 192              		.loc 1 195 0
 193 0006 1D46     		mov	r5, r3
 194              		.loc 1 197 0
 195 0008 69B1     		cbz	r1, .L23
 196              		.loc 1 197 0 is_stmt 0 discriminator 1
 197 000a 62B1     		cbz	r2, .L23
 198              		.loc 1 198 0 is_stmt 1
 199 000c 0068     		ldr	r0, [r0]
 200              	.LVL14:
 201 000e 0F4F     		ldr	r7, .L32
 202 0010 0F4E     		ldr	r6, .L32+4
 203 0012 0192     		str	r2, [sp, #4]
 204 0014 0022     		movs	r2, #0
 205              	.LVL15:
 206 0016 0B46     		mov	r3, r1
 207              	.LVL16:
 208 0018 0392     		str	r2, [sp, #12]
 209 001a 0097     		str	r7, [sp]
 210 001c 0296     		str	r6, [sp, #8]
 211 001e 0D49     		ldr	r1, .L32+8
 212              	.LVL17:
 213 0020 0D4A     		ldr	r2, .L32+12
 214 0022 FFF7FEFF 		bl	s_vputs
 215              	.LVL18:
 216              	.L23:
 217              		.loc 1 200 0
 218 0026 002D     		cmp	r5, #0
 219 0028 05DB     		blt	.L24
 220              		.loc 1 201 0
 221 002a 2B46     		mov	r3, r5
 222 002c 2068     		ldr	r0, [r4]
 223 002e 0B49     		ldr	r1, .L32+16
 224 0030 0B4A     		ldr	r2, .L32+20
 225 0032 FFF7FEFF 		bl	s_printf
 226              	.LVL19:
 227              	.L24:
ARM GAS  C:\Users\jo\AppData\Local\Temp\ccN6q2EI.s 			page 5


 228              		.loc 1 220 0
 229 0036 2168     		ldr	r1, [r4]
 230 0038 0A48     		ldr	r0, .L32+24
 231 003a FFF7FEFF 		bl	s_puts
 232              	.LVL20:
 233              		.loc 1 229 0
 234 003e 2168     		ldr	r1, [r4]
 235 0040 0348     		ldr	r0, .L32+4
 236              		.loc 1 231 0
 237 0042 05B0     		add	sp, sp, #20
 238              		.cfi_def_cfa_offset 20
 239              		@ sp needed
 240 0044 BDE8F040 		pop	{r4, r5, r6, r7, lr}
 241              		.cfi_restore 14
 242              		.cfi_restore 7
 243              		.cfi_restore 6
 244              		.cfi_restore 5
 245              		.cfi_restore 4
 246              		.cfi_def_cfa_offset 0
 247              	.LVL21:
 248              		.loc 1 229 0
 249 0048 FFF7FEBF 		b	s_puts
 250              	.LVL22:
 251              	.L33:
 252              		.align	2
 253              	.L32:
 254 004c 10000000 		.word	.LC3
 255 0050 14000000 		.word	.LC4
 256 0054 00000000 		.word	ct_Content_Type
 257 0058 0C000000 		.word	.LC2
 258 005c 18000000 		.word	.LC5
 259 0060 00000000 		.word	ct_Content_Length
 260 0064 24000000 		.word	.LC6
 261              		.cfi_endproc
 262              	.LFE258:
 263              		.size	HttpSendHeaderBottom, .-HttpSendHeaderBottom
 264 0068 AFF30080 		.section	.text.HttpSendError,"ax",%progbits
 264      AFF30080 
 265              		.align	2
 266              		.p2align 4,,15
 267              		.global	HttpSendError
 268              		.thumb
 269              		.thumb_func
 270              		.type	HttpSendError, %function
 271              	HttpSendError:
 272              	.LFB259:
 273              		.loc 1 234 0
 274              		.cfi_startproc
 275              		@ args = 0, pretend = 0, frame = 0
 276              		@ frame_needed = 0, uses_anonymous_args = 0
 277              	.LVL23:
 278 0000 70B5     		push	{r4, r5, r6, lr}
 279              		.cfi_def_cfa_offset 16
 280              		.cfi_offset 4, -16
 281              		.cfi_offset 5, -12
 282              		.cfi_offset 6, -8
 283              		.cfi_offset 14, -4
ARM GAS  C:\Users\jo\AppData\Local\Temp\ccN6q2EI.s 			page 6


 284 0002 0546     		mov	r5, r0
 285 0004 82B0     		sub	sp, sp, #8
 286              		.cfi_def_cfa_offset 24
 287              		.loc 1 236 0
 288 0006 0846     		mov	r0, r1
 289              	.LVL24:
 290              		.loc 1 234 0
 291 0008 0C46     		mov	r4, r1
 292              		.loc 1 236 0
 293 000a FFF7FEFF 		bl	HttpResponseText
 294              	.LVL25:
 295              		.loc 1 243 0
 296 000e 2146     		mov	r1, r4
 297              		.loc 1 236 0
 298 0010 0646     		mov	r6, r0
 299              	.LVL26:
 300              		.loc 1 243 0
 301 0012 2846     		mov	r0, r5
 302              	.LVL27:
 303 0014 FFF7FEFF 		bl	HttpSendHeaderTop
 304              	.LVL28:
 305              		.loc 1 245 0
 306 0018 40F29113 		movw	r3, #401
 307 001c 9C42     		cmp	r4, r3
 308 001e 18D0     		beq	.L37
 309              	.L35:
 310              		.loc 1 249 0
 311 0020 3046     		mov	r0, r6
 312 0022 FFF7FEFF 		bl	strlen
 313              	.LVL29:
 314 0026 00F12003 		add	r3, r0, #32
 315 002a 5B00     		lsls	r3, r3, #1
 316 002c 2846     		mov	r0, r5
 317 002e 0C49     		ldr	r1, .L38
 318 0030 0C4A     		ldr	r2, .L38+4
 319 0032 FFF7FEFF 		bl	HttpSendHeaderBottom
 320              	.LVL30:
 321              		.loc 1 251 0
 322 0036 2868     		ldr	r0, [r5]
 323 0038 0B49     		ldr	r1, .L38+8
 324 003a 8DE85000 		stmia	sp, {r4, r6}
 325 003e 2246     		mov	r2, r4
 326 0040 3346     		mov	r3, r6
 327 0042 FFF7FEFF 		bl	s_printf
 328              	.LVL31:
 329              		.loc 1 252 0
 330 0046 2868     		ldr	r0, [r5]
 331              		.loc 1 253 0
 332 0048 02B0     		add	sp, sp, #8
 333              		.cfi_remember_state
 334              		.cfi_def_cfa_offset 16
 335              		@ sp needed
 336 004a BDE87040 		pop	{r4, r5, r6, lr}
 337              		.cfi_restore 14
 338              		.cfi_restore 6
 339              		.cfi_restore 5
 340              		.cfi_restore 4
ARM GAS  C:\Users\jo\AppData\Local\Temp\ccN6q2EI.s 			page 7


 341              		.cfi_def_cfa_offset 0
 342              	.LVL32:
 343              		.loc 1 252 0
 344 004e FFF7FEBF 		b	s_flush
 345              	.LVL33:
 346              	.L37:
 347              		.cfi_restore_state
 348              	.LBB13:
 349              		.loc 1 247 0
 350 0052 2868     		ldr	r0, [r5]
 351 0054 0549     		ldr	r1, .L38+12
 352 0056 AA6A     		ldr	r2, [r5, #40]
 353 0058 FFF7FEFF 		bl	s_printf
 354              	.LVL34:
 355 005c E0E7     		b	.L35
 356              	.L39:
 357 005e 00BF     		.align	2
 358              	.L38:
 359 0060 38000000 		.word	.LC7
 360 0064 40000000 		.word	.LC8
 361 0068 00000000 		.word	.LANCHOR3
 362 006c 00000000 		.word	.LANCHOR2
 363              	.LBE13:
 364              		.cfi_endproc
 365              	.LFE259:
 366              		.size	HttpSendError, .-HttpSendError
 367              		.section	.text.HttpSendRedirection,"ax",%progbits
 368              		.align	2
 369              		.p2align 4,,15
 370              		.global	HttpSendRedirection
 371              		.thumb
 372              		.thumb_func
 373              		.type	HttpSendRedirection, %function
 374              	HttpSendRedirection:
 375              	.LFB260:
 376              		.loc 1 259 0
 377              		.cfi_startproc
 378              		@ args = 4, pretend = 12, frame = 8
 379              		@ frame_needed = 0, uses_anonymous_args = 1
 380              	.LVL35:
 381 0000 0EB4     		push	{r1, r2, r3}
 382              		.cfi_def_cfa_offset 12
 383              		.cfi_offset 1, -12
 384              		.cfi_offset 2, -8
 385              		.cfi_offset 3, -4
 386 0002 2DE9F041 		push	{r4, r5, r6, r7, r8, lr}
 387              		.cfi_def_cfa_offset 36
 388              		.cfi_offset 4, -36
 389              		.cfi_offset 5, -32
 390              		.cfi_offset 6, -28
 391              		.cfi_offset 7, -24
 392              		.cfi_offset 8, -20
 393              		.cfi_offset 14, -16
 394 0006 85B0     		sub	sp, sp, #20
 395              		.cfi_def_cfa_offset 56
 396              		.loc 1 259 0
 397 0008 0BAD     		add	r5, sp, #44
ARM GAS  C:\Users\jo\AppData\Local\Temp\ccN6q2EI.s 			page 8


 398              		.loc 1 266 0
 399 000a 0C9B     		ldr	r3, [sp, #48]
 400              	.LVL36:
 401              		.loc 1 259 0
 402 000c 55F8048B 		ldr	r8, [r5], #4
 403              		.loc 1 266 0
 404 0010 2C1D     		adds	r4, r5, #4
 405              		.loc 1 259 0
 406 0012 0746     		mov	r7, r0
 407              		.loc 1 266 0
 408 0014 0394     		str	r4, [sp, #12]
 409 0016 002B     		cmp	r3, #0
 410 0018 4AD0     		beq	.L47
 411              		.loc 1 266 0 is_stmt 0 discriminator 3
 412 001a 0026     		movs	r6, #0
 413              	.LVL37:
 414              	.L42:
 415 001c 1846     		mov	r0, r3
 416 001e 0434     		adds	r4, r4, #4
 417 0020 FFF7FEFF 		bl	strlen
 418              	.LVL38:
 419 0024 54F8043C 		ldr	r3, [r4, #-4]
 420 0028 0394     		str	r4, [sp, #12]
 421 002a 0644     		add	r6, r6, r0
 422              	.LVL39:
 423 002c 002B     		cmp	r3, #0
 424 002e F5D1     		bne	.L42
 425 0030 701C     		adds	r0, r6, #1
 426              	.LVL40:
 427              	.L41:
 428              		.loc 1 268 0 is_stmt 1
 429 0032 FFF7FEFF 		bl	malloc
 430              	.LVL41:
 431              		.loc 1 269 0
 432 0036 0646     		mov	r6, r0
 433 0038 0028     		cmp	r0, #0
 434 003a 33D0     		beq	.L43
 435              	.LBB14:
 436              		.loc 1 274 0
 437 003c 4146     		mov	r1, r8
 438 003e 3846     		mov	r0, r7
 439              	.LVL42:
 440              		.loc 1 272 0
 441 0040 D7F80080 		ldr	r8, [r7]
 442              	.LVL43:
 443              		.loc 1 274 0
 444 0044 FFF7FEFF 		bl	HttpSendHeaderTop
 445              	.LVL44:
 446              		.loc 1 277 0
 447 0048 0C99     		ldr	r1, [sp, #48]
 448              	.LVL45:
 449 004a 2C1D     		adds	r4, r5, #4
 450 004c 0023     		movs	r3, #0
 451 004e 0394     		str	r4, [sp, #12]
 452 0050 3370     		strb	r3, [r6]
 453 0052 41B1     		cbz	r1, .L46
 454              	.L45:
ARM GAS  C:\Users\jo\AppData\Local\Temp\ccN6q2EI.s 			page 9


 455              		.loc 1 277 0 is_stmt 0 discriminator 3
 456 0054 0434     		adds	r4, r4, #4
 457 0056 3046     		mov	r0, r6
 458 0058 FFF7FEFF 		bl	strcat
 459              	.LVL46:
 460 005c 54F8041C 		ldr	r1, [r4, #-4]
 461              	.LVL47:
 462 0060 0394     		str	r4, [sp, #12]
 463 0062 0029     		cmp	r1, #0
 464 0064 F6D1     		bne	.L45
 465              	.L46:
 466              		.loc 1 281 0 is_stmt 1
 467 0066 134B     		ldr	r3, .L54
 468 0068 0093     		str	r3, [sp]
 469 006a 0023     		movs	r3, #0
 470 006c 1249     		ldr	r1, .L54+4
 471              	.LVL48:
 472 006e 134A     		ldr	r2, .L54+8
 473 0070 0193     		str	r3, [sp, #4]
 474 0072 4046     		mov	r0, r8
 475 0074 3346     		mov	r3, r6
 476 0076 FFF7FEFF 		bl	s_vputs
 477              	.LVL49:
 478              		.loc 1 282 0
 479 007a 3046     		mov	r0, r6
 480 007c FFF7FEFF 		bl	strlen
 481              	.LVL50:
 482 0080 0F49     		ldr	r1, .L54+12
 483 0082 104A     		ldr	r2, .L54+16
 484 0084 00F13303 		add	r3, r0, #51
 485 0088 3846     		mov	r0, r7
 486 008a FFF7FEFF 		bl	HttpSendHeaderBottom
 487              	.LVL51:
 488              		.loc 1 285 0
 489 008e 0E49     		ldr	r1, .L54+20
 490 0090 3246     		mov	r2, r6
 491 0092 4046     		mov	r0, r8
 492 0094 FFF7FEFF 		bl	s_printf
 493              	.LVL52:
 494              		.loc 1 286 0
 495 0098 4046     		mov	r0, r8
 496 009a FFF7FEFF 		bl	s_flush
 497              	.LVL53:
 498              		.loc 1 287 0
 499 009e 3046     		mov	r0, r6
 500 00a0 FFF7FEFF 		bl	free
 501              	.LVL54:
 502              	.L43:
 503              	.LBE14:
 504              		.loc 1 290 0
 505 00a4 0020     		movs	r0, #0
 506 00a6 05B0     		add	sp, sp, #20
 507              		.cfi_remember_state
 508              		.cfi_def_cfa_offset 36
 509              		@ sp needed
 510 00a8 BDE8F041 		pop	{r4, r5, r6, r7, r8, lr}
 511              		.cfi_restore 14
ARM GAS  C:\Users\jo\AppData\Local\Temp\ccN6q2EI.s 			page 10


 512              		.cfi_restore 8
 513              		.cfi_restore 7
 514              		.cfi_restore 6
 515              		.cfi_restore 5
 516              		.cfi_restore 4
 517              		.cfi_def_cfa_offset 12
 518              	.LVL55:
 519 00ac 03B0     		add	sp, sp, #12
 520              		.cfi_restore 3
 521              		.cfi_restore 2
 522              		.cfi_restore 1
 523              		.cfi_def_cfa_offset 0
 524 00ae 7047     		bx	lr
 525              	.LVL56:
 526              	.L47:
 527              		.cfi_restore_state
 528              		.loc 1 266 0
 529 00b0 0120     		movs	r0, #1
 530              	.LVL57:
 531 00b2 BEE7     		b	.L41
 532              	.L55:
 533              		.align	2
 534              	.L54:
 535 00b4 14000000 		.word	.LC4
 536 00b8 00000000 		.word	ct_Location
 537 00bc 0C000000 		.word	.LC2
 538 00c0 38000000 		.word	.LC7
 539 00c4 40000000 		.word	.LC8
 540 00c8 00000000 		.word	.LANCHOR4
 541              		.cfi_endproc
 542              	.LFE260:
 543              		.size	HttpSendRedirection, .-HttpSendRedirection
 544 00cc AFF30080 		.section	.rodata.body.9137,"a",%progbits
 545              		.align	2
 546              		.set	.LANCHOR4,. + 0
 547              		.type	body.9137, %object
 548              		.size	body.9137, 54
 549              	body.9137:
 550 0000 3C68746D 		.ascii	"<html><body><a href=\"%s\">Continue</a></body></htm"
 550      6C3E3C62 
 550      6F64793E 
 550      3C612068 
 550      7265663D 
 551 0031 6C3E0D0A 		.ascii	"l>\015\012\000"
 551      00
 552 0036 0000     		.section	.rodata.fmt_P.9112,"a",%progbits
 553              		.align	2
 554              		.set	.LANCHOR1,. + 0
 555              		.type	fmt_P.9112, %object
 556              		.size	fmt_P.9112, 38
 557              	fmt_P.9112:
 558 0000 48545450 		.ascii	"HTTP/%d.%d %d %s\015\012Server: uHTTP 0.0\015\012\000"
 558      2F25642E 
 558      25642025 
 558      64202573 
 558      0D0A5365 
 559 0026 0000     		.section	.rodata.response_list,"a",%progbits
ARM GAS  C:\Users\jo\AppData\Local\Temp\ccN6q2EI.s 			page 11


 560              		.align	2
 561              		.set	.LANCHOR0,. + 0
 562              		.type	response_list, %object
 563              		.size	response_list, 536
 564              	response_list:
 565 0000 64000000 		.word	100
 566 0004 48000000 		.word	.LC9
 567 0008 65000000 		.word	101
 568 000c 54000000 		.word	.LC10
 569 0010 66000000 		.word	102
 570 0014 68000000 		.word	.LC11
 571 0018 67000000 		.word	103
 572 001c 74000000 		.word	.LC12
 573 0020 C8000000 		.word	200
 574 0024 08000000 		.word	.LC1
 575 0028 C9000000 		.word	201
 576 002c 80000000 		.word	.LC13
 577 0030 CA000000 		.word	202
 578 0034 88000000 		.word	.LC14
 579 0038 CB000000 		.word	203
 580 003c 94000000 		.word	.LC15
 581 0040 CC000000 		.word	204
 582 0044 B4000000 		.word	.LC16
 583 0048 CD000000 		.word	205
 584 004c C0000000 		.word	.LC17
 585 0050 CE000000 		.word	206
 586 0054 D0000000 		.word	.LC18
 587 0058 CF000000 		.word	207
 588 005c E0000000 		.word	.LC19
 589 0060 D0000000 		.word	208
 590 0064 F0000000 		.word	.LC20
 591 0068 E2000000 		.word	226
 592 006c 04010000 		.word	.LC21
 593 0070 2C010000 		.word	300
 594 0074 0C010000 		.word	.LC22
 595 0078 2D010000 		.word	301
 596 007c 20010000 		.word	.LC23
 597 0080 2E010000 		.word	302
 598 0084 34010000 		.word	.LC24
 599 0088 2F010000 		.word	303
 600 008c 48010000 		.word	.LC25
 601 0090 30010000 		.word	304
 602 0094 54010000 		.word	.LC26
 603 0098 31010000 		.word	305
 604 009c 64010000 		.word	.LC27
 605 00a0 32010000 		.word	306
 606 00a4 70010000 		.word	.LC28
 607 00a8 33010000 		.word	307
 608 00ac 80010000 		.word	.LC29
 609 00b0 34010000 		.word	308
 610 00b4 94010000 		.word	.LC30
 611 00b8 90010000 		.word	400
 612 00bc A8010000 		.word	.LC31
 613 00c0 91010000 		.word	401
 614 00c4 B4010000 		.word	.LC32
 615 00c8 92010000 		.word	402
 616 00cc C4010000 		.word	.LC33
ARM GAS  C:\Users\jo\AppData\Local\Temp\ccN6q2EI.s 			page 12


 617 00d0 93010000 		.word	403
 618 00d4 D8010000 		.word	.LC34
 619 00d8 94010000 		.word	404
 620 00dc E4010000 		.word	.LC35
 621 00e0 95010000 		.word	405
 622 00e4 F0010000 		.word	.LC36
 623 00e8 96010000 		.word	406
 624 00ec FC010000 		.word	.LC37
 625 00f0 97010000 		.word	407
 626 00f4 0C020000 		.word	.LC38
 627 00f8 98010000 		.word	408
 628 00fc 2C020000 		.word	.LC39
 629 0100 99010000 		.word	409
 630 0104 40020000 		.word	.LC40
 631 0108 9A010000 		.word	410
 632 010c 4C020000 		.word	.LC41
 633 0110 9B010000 		.word	411
 634 0114 54020000 		.word	.LC42
 635 0118 9C010000 		.word	412
 636 011c 64020000 		.word	.LC43
 637 0120 9D010000 		.word	413
 638 0124 78020000 		.word	.LC44
 639 0128 9E010000 		.word	414
 640 012c 94020000 		.word	.LC45
 641 0130 9F010000 		.word	415
 642 0134 AC020000 		.word	.LC46
 643 0138 A0010000 		.word	416
 644 013c C4020000 		.word	.LC47
 645 0140 A1010000 		.word	417
 646 0144 E4020000 		.word	.LC48
 647 0148 A2010000 		.word	418
 648 014c F8020000 		.word	.LC49
 649 0150 A6010000 		.word	422
 650 0154 08030000 		.word	.LC50
 651 0158 A7010000 		.word	423
 652 015c 20030000 		.word	.LC51
 653 0160 A8010000 		.word	424
 654 0164 28030000 		.word	.LC52
 655 0168 A9010000 		.word	425
 656 016c 3C030000 		.word	.LC53
 657 0170 AA010000 		.word	426
 658 0174 54030000 		.word	.LC54
 659 0178 AC010000 		.word	428
 660 017c 68030000 		.word	.LC55
 661 0180 AD010000 		.word	429
 662 0184 80030000 		.word	.LC56
 663 0188 AF010000 		.word	431
 664 018c 94030000 		.word	.LC57
 665 0190 BC010000 		.word	444
 666 0194 B4030000 		.word	.LC58
 667 0198 C1010000 		.word	449
 668 019c C0030000 		.word	.LC59
 669 01a0 F3010000 		.word	499
 670 01a4 CC030000 		.word	.LC60
 671 01a8 F4010000 		.word	500
 672 01ac E4030000 		.word	.LC61
 673 01b0 F5010000 		.word	501
ARM GAS  C:\Users\jo\AppData\Local\Temp\ccN6q2EI.s 			page 13


 674 01b4 FC030000 		.word	.LC62
 675 01b8 F6010000 		.word	502
 676 01bc 14040000 		.word	.LC63
 677 01c0 F7010000 		.word	503
 678 01c4 20040000 		.word	.LC64
 679 01c8 F8010000 		.word	504
 680 01cc 40040000 		.word	.LC65
 681 01d0 F9010000 		.word	505
 682 01d4 54040000 		.word	.LC66
 683 01d8 FA010000 		.word	506
 684 01dc 70040000 		.word	.LC67
 685 01e0 FB010000 		.word	507
 686 01e4 88040000 		.word	.LC68
 687 01e8 FC010000 		.word	508
 688 01ec A0040000 		.word	.LC69
 689 01f0 FD010000 		.word	509
 690 01f4 B0040000 		.word	.LC70
 691 01f8 FE010000 		.word	510
 692 01fc CC040000 		.word	.LC71
 693 0200 FF010000 		.word	511
 694 0204 DC040000 		.word	.LC72
 695 0208 56020000 		.word	598
 696 020c FC040000 		.word	.LC73
 697 0210 57020000 		.word	599
 698 0214 18050000 		.word	.LC74
 699              		.section	.rodata.str1.4,"aMS",%progbits,1
 700              		.align	2
 701              	.LC0:
 702 0000 4572726F 		.ascii	"Error\000"
 702      7200
 703 0006 0000     		.space	2
 704              	.LC1:
 705 0008 4F4B00   		.ascii	"OK\000"
 706 000b 00       		.space	1
 707              	.LC2:
 708 000c 3A2000   		.ascii	": \000"
 709 000f 00       		.space	1
 710              	.LC3:
 711 0010 2F00     		.ascii	"/\000"
 712 0012 0000     		.space	2
 713              	.LC4:
 714 0014 0D0A00   		.ascii	"\015\012\000"
 715 0017 00       		.space	1
 716              	.LC5:
 717 0018 25733A20 		.ascii	"%s: %ld\015\012\000"
 717      256C640D 
 717      0A00
 718 0022 0000     		.space	2
 719              	.LC6:
 720 0024 436F6E6E 		.ascii	"Connection: close\015\012\000"
 720      65637469 
 720      6F6E3A20 
 720      636C6F73 
 720      650D0A00 
 721              	.LC7:
 722 0038 74657874 		.ascii	"text\000"
 722      00
ARM GAS  C:\Users\jo\AppData\Local\Temp\ccN6q2EI.s 			page 14


 723 003d 000000   		.space	3
 724              	.LC8:
 725 0040 68746D6C 		.ascii	"html\000"
 725      00
 726 0045 000000   		.space	3
 727              	.LC9:
 728 0048 436F6E74 		.ascii	"Continue\000"
 728      696E7565 
 728      00
 729 0051 000000   		.space	3
 730              	.LC10:
 731 0054 53776974 		.ascii	"Switching Protocols\000"
 731      6368696E 
 731      67205072 
 731      6F746F63 
 731      6F6C7300 
 732              	.LC11:
 733 0068 50726F63 		.ascii	"Processing\000"
 733      65737369 
 733      6E6700
 734 0073 00       		.space	1
 735              	.LC12:
 736 0074 43686563 		.ascii	"Checkpoint\000"
 736      6B706F69 
 736      6E7400
 737 007f 00       		.space	1
 738              	.LC13:
 739 0080 43726561 		.ascii	"Created\000"
 739      74656400 
 740              	.LC14:
 741 0088 41636365 		.ascii	"Accepted\000"
 741      70746564 
 741      00
 742 0091 000000   		.space	3
 743              	.LC15:
 744 0094 4E6F6E2D 		.ascii	"Non-Authoritative Information\000"
 744      41757468 
 744      6F726974 
 744      61746976 
 744      6520496E 
 745 00b2 0000     		.space	2
 746              	.LC16:
 747 00b4 4E6F2043 		.ascii	"No Content\000"
 747      6F6E7465 
 747      6E7400
 748 00bf 00       		.space	1
 749              	.LC17:
 750 00c0 52657365 		.ascii	"Reset Content\000"
 750      7420436F 
 750      6E74656E 
 750      7400
 751 00ce 0000     		.space	2
 752              	.LC18:
 753 00d0 50617274 		.ascii	"Partial Content\000"
 753      69616C20 
 753      436F6E74 
 753      656E7400 
ARM GAS  C:\Users\jo\AppData\Local\Temp\ccN6q2EI.s 			page 15


 754              	.LC19:
 755 00e0 4D756C74 		.ascii	"Multi-Status\000"
 755      692D5374 
 755      61747573 
 755      00
 756 00ed 000000   		.space	3
 757              	.LC20:
 758 00f0 416C7265 		.ascii	"Already Reported\000"
 758      61647920 
 758      5265706F 
 758      72746564 
 758      00
 759 0101 000000   		.space	3
 760              	.LC21:
 761 0104 494D2055 		.ascii	"IM Used\000"
 761      73656400 
 762              	.LC22:
 763 010c 4D756C74 		.ascii	"Multiple Choices\000"
 763      69706C65 
 763      2043686F 
 763      69636573 
 763      00
 764 011d 000000   		.space	3
 765              	.LC23:
 766 0120 4D6F7665 		.ascii	"Moved Permanently\000"
 766      64205065 
 766      726D616E 
 766      656E746C 
 766      7900
 767 0132 0000     		.space	2
 768              	.LC24:
 769 0134 4D6F7665 		.ascii	"Moved Temporarily\000"
 769      64205465 
 769      6D706F72 
 769      6172696C 
 769      7900
 770 0146 0000     		.space	2
 771              	.LC25:
 772 0148 53656520 		.ascii	"See Other\000"
 772      4F746865 
 772      7200
 773 0152 0000     		.space	2
 774              	.LC26:
 775 0154 4E6F7420 		.ascii	"Not Modified\000"
 775      4D6F6469 
 775      66696564 
 775      00
 776 0161 000000   		.space	3
 777              	.LC27:
 778 0164 55736520 		.ascii	"Use Proxy\000"
 778      50726F78 
 778      7900
 779 016e 0000     		.space	2
 780              	.LC28:
 781 0170 53776974 		.ascii	"Switch Proxy\000"
 781      63682050 
 781      726F7879 
ARM GAS  C:\Users\jo\AppData\Local\Temp\ccN6q2EI.s 			page 16


 781      00
 782 017d 000000   		.space	3
 783              	.LC29:
 784 0180 54656D70 		.ascii	"Temporary Redirect\000"
 784      6F726172 
 784      79205265 
 784      64697265 
 784      637400
 785 0193 00       		.space	1
 786              	.LC30:
 787 0194 52657375 		.ascii	"Resume Incomplete\000"
 787      6D652049 
 787      6E636F6D 
 787      706C6574 
 787      6500
 788 01a6 0000     		.space	2
 789              	.LC31:
 790 01a8 42616420 		.ascii	"Bad Request\000"
 790      52657175 
 790      65737400 
 791              	.LC32:
 792 01b4 556E6175 		.ascii	"Unauthorized\000"
 792      74686F72 
 792      697A6564 
 792      00
 793 01c1 000000   		.space	3
 794              	.LC33:
 795 01c4 5061796D 		.ascii	"Payment Required\000"
 795      656E7420 
 795      52657175 
 795      69726564 
 795      00
 796 01d5 000000   		.space	3
 797              	.LC34:
 798 01d8 466F7262 		.ascii	"Forbidden\000"
 798      69646465 
 798      6E00
 799 01e2 0000     		.space	2
 800              	.LC35:
 801 01e4 4E6F7420 		.ascii	"Not Found\000"
 801      466F756E 
 801      6400
 802 01ee 0000     		.space	2
 803              	.LC36:
 804 01f0 4E6F7420 		.ascii	"Not Allowed\000"
 804      416C6C6F 
 804      77656400 
 805              	.LC37:
 806 01fc 4E6F7420 		.ascii	"Not Acceptable\000"
 806      41636365 
 806      70746162 
 806      6C6500
 807 020b 00       		.space	1
 808              	.LC38:
 809 020c 50726F78 		.ascii	"Proxy Authentication Required\000"
 809      79204175 
 809      7468656E 
ARM GAS  C:\Users\jo\AppData\Local\Temp\ccN6q2EI.s 			page 17


 809      74696361 
 809      74696F6E 
 810 022a 0000     		.space	2
 811              	.LC39:
 812 022c 52657175 		.ascii	"Request Time-out\000"
 812      65737420 
 812      54696D65 
 812      2D6F7574 
 812      00
 813 023d 000000   		.space	3
 814              	.LC40:
 815 0240 436F6E66 		.ascii	"Conflict\000"
 815      6C696374 
 815      00
 816 0249 000000   		.space	3
 817              	.LC41:
 818 024c 476F6E65 		.ascii	"Gone\000"
 818      00
 819 0251 000000   		.space	3
 820              	.LC42:
 821 0254 4C656E67 		.ascii	"Length Required\000"
 821      74682052 
 821      65717569 
 821      72656400 
 822              	.LC43:
 823 0264 50726563 		.ascii	"Precondition Failed\000"
 823      6F6E6469 
 823      74696F6E 
 823      20466169 
 823      6C656400 
 824              	.LC44:
 825 0278 52657175 		.ascii	"Request Entity Too Large\000"
 825      65737420 
 825      456E7469 
 825      74792054 
 825      6F6F204C 
 826 0291 000000   		.space	3
 827              	.LC45:
 828 0294 52657175 		.ascii	"Request-URI Too Large\000"
 828      6573742D 
 828      55524920 
 828      546F6F20 
 828      4C617267 
 829 02aa 0000     		.space	2
 830              	.LC46:
 831 02ac 556E7375 		.ascii	"Unsupported Media Type\000"
 831      70706F72 
 831      74656420 
 831      4D656469 
 831      61205479 
 832 02c3 00       		.space	1
 833              	.LC47:
 834 02c4 52657175 		.ascii	"Requested Range Not Satisfiable\000"
 834      65737465 
 834      64205261 
 834      6E676520 
 834      4E6F7420 
ARM GAS  C:\Users\jo\AppData\Local\Temp\ccN6q2EI.s 			page 18


 835              	.LC48:
 836 02e4 45787065 		.ascii	"Expectation Failed\000"
 836      63746174 
 836      696F6E20 
 836      4661696C 
 836      656400
 837 02f7 00       		.space	1
 838              	.LC49:
 839 02f8 49276D20 		.ascii	"I'm a teapot\000"
 839      61207465 
 839      61706F74 
 839      00
 840 0305 000000   		.space	3
 841              	.LC50:
 842 0308 556E7072 		.ascii	"Unprocessable Entity\000"
 842      6F636573 
 842      7361626C 
 842      6520456E 
 842      74697479 
 843 031d 000000   		.space	3
 844              	.LC51:
 845 0320 4C6F636B 		.ascii	"Locked\000"
 845      656400
 846 0327 00       		.space	1
 847              	.LC52:
 848 0328 4661696C 		.ascii	"Failed Dependency\000"
 848      65642044 
 848      6570656E 
 848      64656E63 
 848      7900
 849 033a 0000     		.space	2
 850              	.LC53:
 851 033c 556E6F72 		.ascii	"Unordered Collection\000"
 851      64657265 
 851      6420436F 
 851      6C6C6563 
 851      74696F6E 
 852 0351 000000   		.space	3
 853              	.LC54:
 854 0354 55706772 		.ascii	"Upgrade Required\000"
 854      61646520 
 854      52657175 
 854      69726564 
 854      00
 855 0365 000000   		.space	3
 856              	.LC55:
 857 0368 50726563 		.ascii	"Precondition Required\000"
 857      6F6E6469 
 857      74696F6E 
 857      20526571 
 857      75697265 
 858 037e 0000     		.space	2
 859              	.LC56:
 860 0380 546F6F20 		.ascii	"Too Many Requests\000"
 860      4D616E79 
 860      20526571 
 860      75657374 
ARM GAS  C:\Users\jo\AppData\Local\Temp\ccN6q2EI.s 			page 19


 860      7300
 861 0392 0000     		.space	2
 862              	.LC57:
 863 0394 52657175 		.ascii	"Request Header Fields Too Large\000"
 863      65737420 
 863      48656164 
 863      65722046 
 863      69656C64 
 864              	.LC58:
 865 03b4 4E6F2052 		.ascii	"No Response\000"
 865      6573706F 
 865      6E736500 
 866              	.LC59:
 867 03c0 52657472 		.ascii	"Retry With\000"
 867      79205769 
 867      746800
 868 03cb 00       		.space	1
 869              	.LC60:
 870 03cc 436C6965 		.ascii	"Client Closed Request\000"
 870      6E742043 
 870      6C6F7365 
 870      64205265 
 870      71756573 
 871 03e2 0000     		.space	2
 872              	.LC61:
 873 03e4 496E7465 		.ascii	"Internal Server Error\000"
 873      726E616C 
 873      20536572 
 873      76657220 
 873      4572726F 
 874 03fa 0000     		.space	2
 875              	.LC62:
 876 03fc 4D657468 		.ascii	"Method Not Implemented\000"
 876      6F64204E 
 876      6F742049 
 876      6D706C65 
 876      6D656E74 
 877 0413 00       		.space	1
 878              	.LC63:
 879 0414 42616420 		.ascii	"Bad Gateway\000"
 879      47617465 
 879      77617900 
 880              	.LC64:
 881 0420 53657276 		.ascii	"Service Temporarily Unavailable\000"
 881      69636520 
 881      54656D70 
 881      6F726172 
 881      696C7920 
 882              	.LC65:
 883 0440 47617465 		.ascii	"Gateway Time-out\000"
 883      77617920 
 883      54696D65 
 883      2D6F7574 
 883      00
 884 0451 000000   		.space	3
 885              	.LC66:
 886 0454 48545450 		.ascii	"HTTP Version Not Supported\000"
ARM GAS  C:\Users\jo\AppData\Local\Temp\ccN6q2EI.s 			page 20


 886      20566572 
 886      73696F6E 
 886      204E6F74 
 886      20537570 
 887 046f 00       		.space	1
 888              	.LC67:
 889 0470 56617269 		.ascii	"Variant Also Negotiates\000"
 889      616E7420 
 889      416C736F 
 889      204E6567 
 889      6F746961 
 890              	.LC68:
 891 0488 496E7375 		.ascii	"Insufficient Storage\000"
 891      66666963 
 891      69656E74 
 891      2053746F 
 891      72616765 
 892 049d 000000   		.space	3
 893              	.LC69:
 894 04a0 4C6F6F70 		.ascii	"Loop Detected\000"
 894      20446574 
 894      65637465 
 894      6400
 895 04ae 0000     		.space	2
 896              	.LC70:
 897 04b0 42616E64 		.ascii	"Bandwidth Limit Exceeded\000"
 897      77696474 
 897      68204C69 
 897      6D697420 
 897      45786365 
 898 04c9 000000   		.space	3
 899              	.LC71:
 900 04cc 4E6F7420 		.ascii	"Not Extended\000"
 900      45787465 
 900      6E646564 
 900      00
 901 04d9 000000   		.space	3
 902              	.LC72:
 903 04dc 4E657477 		.ascii	"Network Authentication Required\000"
 903      6F726B20 
 903      41757468 
 903      656E7469 
 903      63617469 
 904              	.LC73:
 905 04fc 4E657477 		.ascii	"Network read timeout error\000"
 905      6F726B20 
 905      72656164 
 905      2074696D 
 905      656F7574 
 906 0517 00       		.space	1
 907              	.LC74:
 908 0518 4E657477 		.ascii	"Network connect timeout error\000"
 908      6F726B20 
 908      636F6E6E 
 908      65637420 
 908      74696D65 
 909 0536 0000     		.section	.rodata.auth_fmt_P.9125,"a",%progbits
ARM GAS  C:\Users\jo\AppData\Local\Temp\ccN6q2EI.s 			page 21


 910              		.align	2
 911              		.set	.LANCHOR2,. + 0
 912              		.type	auth_fmt_P.9125, %object
 913              		.size	auth_fmt_P.9125, 37
 914              	auth_fmt_P.9125:
 915 0000 5757572D 		.ascii	"WWW-Authenticate: Basic realm=\"%s\"\015\012\000"
 915      41757468 
 915      656E7469 
 915      63617465 
 915      3A204261 
 916 0025 000000   		.section	.rodata.body.9123,"a",%progbits
 917              		.align	2
 918              		.set	.LANCHOR3,. + 0
 919              		.type	body.9123, %object
 920              		.size	body.9123, 67
 921              	body.9123:
 922 0000 3C48544D 		.ascii	"<HTML><HEAD><TITLE>%d %s</TITLE></HEAD><BODY>%d %s<"
 922      4C3E3C48 
 922      4541443E 
 922      3C544954 
 922      4C453E25 
 923 0033 2F424F44 		.ascii	"/BODY></HTML>\015\012\000"
 923      593E3C2F 
 923      48544D4C 
 923      3E0D0A00 
 924 0043 00       		.text
 925              	.Letext0:
 926              		.file 2 "c:\\program files\\gnu tools arm embedded\\4.9 2014q4\\lib\\gcc\\arm-none-eabi\\4.9.3\\in
 927              		.file 3 "c:\\program files\\gnu tools arm embedded\\4.9 2014q4\\arm-none-eabi\\include\\machine\\_
 928              		.file 4 "c:\\program files\\gnu tools arm embedded\\4.9 2014q4\\arm-none-eabi\\include\\stdint.h"
 929              		.file 5 "../../../os/rt/ports/ARMCMx/compilers/GCC/chtypes.h"
 930              		.file 6 "../../../os/rt/include/chsystypes.h"
 931              		.file 7 "../../../os/rt/include/chschd.h"
 932              		.file 8 "../../../os/rt/ports/ARMCMx/chcore.h"
 933              		.file 9 "../../../os/rt/ports/ARMCMx/chcore_v7m.h"
 934              		.file 10 "c:\\program files\\gnu tools arm embedded\\4.9 2014q4\\lib\\gcc\\arm-none-eabi\\4.9.3\\i
 935              		.file 11 "<built-in>"
 936              		.file 12 "../../../os/rt/include/chdebug.h"
 937              		.file 13 "../../../os/rt/include/chtm.h"
 938              		.file 14 "../../../os/rt/include/chstats.h"
 939              		.file 15 "../../../os/rt/include/chmtx.h"
 940              		.file 16 "../../../os/various/lwip_bindings/arch/cc.h"
 941              		.file 17 "../../../os/ext/lwip-1.4.1/src/include/ipv4/lwip/inet.h"
 942              		.file 18 "../../../os/ext/lwip-1.4.1/src/include/lwip\\sockets.h"
 943              		.file 19 "./uhttp-1.1/pro/lwip/streamio.h"
 944              		.file 20 "./os/streamio.h"
 945              		.file 21 "./uhttp-1.1/uhttpd.h"
 946              		.file 22 "../../../os/ext/CMSIS/include/core_cm4.h"
 947              		.file 23 "c:\\program files\\gnu tools arm embedded\\4.9 2014q4\\arm-none-eabi\\include\\string.h"
 948              		.file 24 "c:\\program files\\gnu tools arm embedded\\4.9 2014q4\\arm-none-eabi\\include\\stdlib.h"
 949              		.section	.debug_info,"",%progbits
 950              	.Ldebug_info0:
 951 0000 54100000 		.4byte	0x1054
 952 0004 0400     		.2byte	0x4
 953 0006 00000000 		.4byte	.Ldebug_abbrev0
 954 000a 04       		.byte	0x4
 955 000b 01       		.uleb128 0x1
ARM GAS  C:\Users\jo\AppData\Local\Temp\ccN6q2EI.s 			page 22


 956 000c 70040000 		.4byte	.LASF206
 957 0010 01       		.byte	0x1
 958 0011 0D010000 		.4byte	.LASF207
 959 0015 AD010000 		.4byte	.LASF208
 960 0019 18000000 		.4byte	.Ldebug_ranges0+0x18
 961 001d 00000000 		.4byte	0
 962 0021 00000000 		.4byte	.Ldebug_line0
 963 0025 02       		.uleb128 0x2
 964 0026 04       		.byte	0x4
 965 0027 05       		.byte	0x5
 966 0028 696E7400 		.ascii	"int\000"
 967 002c 03       		.uleb128 0x3
 968 002d 2B000000 		.4byte	.LASF2
 969 0031 02       		.byte	0x2
 970 0032 D4       		.byte	0xd4
 971 0033 37000000 		.4byte	0x37
 972 0037 04       		.uleb128 0x4
 973 0038 04       		.byte	0x4
 974 0039 07       		.byte	0x7
 975 003a 68030000 		.4byte	.LASF0
 976 003e 04       		.uleb128 0x4
 977 003f 01       		.byte	0x1
 978 0040 06       		.byte	0x6
 979 0041 16020000 		.4byte	.LASF1
 980 0045 03       		.uleb128 0x3
 981 0046 94000000 		.4byte	.LASF3
 982 004a 03       		.byte	0x3
 983 004b 1D       		.byte	0x1d
 984 004c 50000000 		.4byte	0x50
 985 0050 04       		.uleb128 0x4
 986 0051 01       		.byte	0x1
 987 0052 08       		.byte	0x8
 988 0053 D4060000 		.4byte	.LASF4
 989 0057 04       		.uleb128 0x4
 990 0058 02       		.byte	0x2
 991 0059 05       		.byte	0x5
 992 005a EC060000 		.4byte	.LASF5
 993 005e 03       		.uleb128 0x3
 994 005f BA070000 		.4byte	.LASF6
 995 0063 03       		.byte	0x3
 996 0064 2B       		.byte	0x2b
 997 0065 69000000 		.4byte	0x69
 998 0069 04       		.uleb128 0x4
 999 006a 02       		.byte	0x2
 1000 006b 07       		.byte	0x7
 1001 006c B7030000 		.4byte	.LASF7
 1002 0070 03       		.uleb128 0x3
 1003 0071 4F040000 		.4byte	.LASF8
 1004 0075 03       		.byte	0x3
 1005 0076 3F       		.byte	0x3f
 1006 0077 7B000000 		.4byte	0x7b
 1007 007b 04       		.uleb128 0x4
 1008 007c 04       		.byte	0x4
 1009 007d 05       		.byte	0x5
 1010 007e 7A020000 		.4byte	.LASF9
 1011 0082 03       		.uleb128 0x3
 1012 0083 F8070000 		.4byte	.LASF10
ARM GAS  C:\Users\jo\AppData\Local\Temp\ccN6q2EI.s 			page 23


 1013 0087 03       		.byte	0x3
 1014 0088 41       		.byte	0x41
 1015 0089 8D000000 		.4byte	0x8d
 1016 008d 04       		.uleb128 0x4
 1017 008e 04       		.byte	0x4
 1018 008f 07       		.byte	0x7
 1019 0090 79070000 		.4byte	.LASF11
 1020 0094 04       		.uleb128 0x4
 1021 0095 08       		.byte	0x8
 1022 0096 05       		.byte	0x5
 1023 0097 08020000 		.4byte	.LASF12
 1024 009b 03       		.uleb128 0x3
 1025 009c 3E060000 		.4byte	.LASF13
 1026 00a0 03       		.byte	0x3
 1027 00a1 5B       		.byte	0x5b
 1028 00a2 A6000000 		.4byte	0xa6
 1029 00a6 04       		.uleb128 0x4
 1030 00a7 08       		.byte	0x8
 1031 00a8 07       		.byte	0x7
 1032 00a9 F6000000 		.4byte	.LASF14
 1033 00ad 04       		.uleb128 0x4
 1034 00ae 04       		.byte	0x4
 1035 00af 07       		.byte	0x7
 1036 00b0 75050000 		.4byte	.LASF15
 1037 00b4 05       		.uleb128 0x5
 1038 00b5 04       		.byte	0x4
 1039 00b6 06       		.uleb128 0x6
 1040 00b7 04       		.byte	0x4
 1041 00b8 BC000000 		.4byte	0xbc
 1042 00bc 04       		.uleb128 0x4
 1043 00bd 01       		.byte	0x1
 1044 00be 08       		.byte	0x8
 1045 00bf 9D070000 		.4byte	.LASF16
 1046 00c3 06       		.uleb128 0x6
 1047 00c4 04       		.byte	0x4
 1048 00c5 C9000000 		.4byte	0xc9
 1049 00c9 07       		.uleb128 0x7
 1050 00ca BC000000 		.4byte	0xbc
 1051 00ce 08       		.uleb128 0x8
 1052 00cf BC000000 		.4byte	0xbc
 1053 00d3 DE000000 		.4byte	0xde
 1054 00d7 09       		.uleb128 0x9
 1055 00d8 AD000000 		.4byte	0xad
 1056 00dc 07       		.byte	0x7
 1057 00dd 00       		.byte	0
 1058 00de 03       		.uleb128 0x3
 1059 00df F9080000 		.4byte	.LASF17
 1060 00e3 04       		.byte	0x4
 1061 00e4 15       		.byte	0x15
 1062 00e5 45000000 		.4byte	0x45
 1063 00e9 03       		.uleb128 0x3
 1064 00ea C4020000 		.4byte	.LASF18
 1065 00ee 04       		.byte	0x4
 1066 00ef 21       		.byte	0x21
 1067 00f0 5E000000 		.4byte	0x5e
 1068 00f4 03       		.uleb128 0x3
 1069 00f5 CC060000 		.4byte	.LASF19
ARM GAS  C:\Users\jo\AppData\Local\Temp\ccN6q2EI.s 			page 24


 1070 00f9 04       		.byte	0x4
 1071 00fa 2C       		.byte	0x2c
 1072 00fb 70000000 		.4byte	0x70
 1073 00ff 03       		.uleb128 0x3
 1074 0100 44070000 		.4byte	.LASF20
 1075 0104 04       		.byte	0x4
 1076 0105 2D       		.byte	0x2d
 1077 0106 82000000 		.4byte	0x82
 1078 010a 03       		.uleb128 0x3
 1079 010b CD050000 		.4byte	.LASF21
 1080 010f 04       		.byte	0x4
 1081 0110 39       		.byte	0x39
 1082 0111 9B000000 		.4byte	0x9b
 1083 0115 0A       		.uleb128 0xa
 1084 0116 F4000000 		.4byte	0xf4
 1085 011a 03       		.uleb128 0x3
 1086 011b 50080000 		.4byte	.LASF22
 1087 011f 05       		.byte	0x5
 1088 0120 45       		.byte	0x45
 1089 0121 FF000000 		.4byte	0xff
 1090 0125 03       		.uleb128 0x3
 1091 0126 9D010000 		.4byte	.LASF23
 1092 012a 05       		.byte	0x5
 1093 012b 46       		.byte	0x46
 1094 012c 0A010000 		.4byte	0x10a
 1095 0130 03       		.uleb128 0x3
 1096 0131 13070000 		.4byte	.LASF24
 1097 0135 05       		.byte	0x5
 1098 0136 48       		.byte	0x48
 1099 0137 DE000000 		.4byte	0xde
 1100 013b 03       		.uleb128 0x3
 1101 013c 91020000 		.4byte	.LASF25
 1102 0140 05       		.byte	0x5
 1103 0141 49       		.byte	0x49
 1104 0142 DE000000 		.4byte	0xde
 1105 0146 03       		.uleb128 0x3
 1106 0147 67060000 		.4byte	.LASF26
 1107 014b 05       		.byte	0x5
 1108 014c 4A       		.byte	0x4a
 1109 014d DE000000 		.4byte	0xde
 1110 0151 03       		.uleb128 0x3
 1111 0152 9C060000 		.4byte	.LASF27
 1112 0156 05       		.byte	0x5
 1113 0157 4C       		.byte	0x4c
 1114 0158 FF000000 		.4byte	0xff
 1115 015c 03       		.uleb128 0x3
 1116 015d EF030000 		.4byte	.LASF28
 1117 0161 05       		.byte	0x5
 1118 0162 4D       		.byte	0x4d
 1119 0163 F4000000 		.4byte	0xf4
 1120 0167 03       		.uleb128 0x3
 1121 0168 3C040000 		.4byte	.LASF29
 1122 016c 05       		.byte	0x5
 1123 016d 4F       		.byte	0x4f
 1124 016e FF000000 		.4byte	0xff
 1125 0172 03       		.uleb128 0x3
 1126 0173 57030000 		.4byte	.LASF30
ARM GAS  C:\Users\jo\AppData\Local\Temp\ccN6q2EI.s 			page 25


 1127 0177 05       		.byte	0x5
 1128 0178 51       		.byte	0x51
 1129 0179 F4000000 		.4byte	0xf4
 1130 017d 03       		.uleb128 0x3
 1131 017e FA030000 		.4byte	.LASF31
 1132 0182 05       		.byte	0x5
 1133 0183 52       		.byte	0x52
 1134 0184 FF000000 		.4byte	0xff
 1135 0188 03       		.uleb128 0x3
 1136 0189 DA070000 		.4byte	.LASF32
 1137 018d 06       		.byte	0x6
 1138 018e 33       		.byte	0x33
 1139 018f FF000000 		.4byte	0xff
 1140 0193 03       		.uleb128 0x3
 1141 0194 C5070000 		.4byte	.LASF33
 1142 0198 06       		.byte	0x6
 1143 0199 3F       		.byte	0x3f
 1144 019a 9E010000 		.4byte	0x19e
 1145 019e 0B       		.uleb128 0xb
 1146 019f D3030000 		.4byte	.LASF54
 1147 01a3 60       		.byte	0x60
 1148 01a4 07       		.byte	0x7
 1149 01a5 BE       		.byte	0xbe
 1150 01a6 A4020000 		.4byte	0x2a4
 1151 01aa 0C       		.uleb128 0xc
 1152 01ab 0C070000 		.4byte	.LASF34
 1153 01af 07       		.byte	0x7
 1154 01b0 BF       		.byte	0xbf
 1155 01b1 F3050000 		.4byte	0x5f3
 1156 01b5 00       		.byte	0
 1157 01b6 0C       		.uleb128 0xc
 1158 01b7 95060000 		.4byte	.LASF35
 1159 01bb 07       		.byte	0x7
 1160 01bc C1       		.byte	0xc1
 1161 01bd F3050000 		.4byte	0x5f3
 1162 01c1 04       		.byte	0x4
 1163 01c2 0C       		.uleb128 0xc
 1164 01c3 A6010000 		.4byte	.LASF36
 1165 01c7 07       		.byte	0x7
 1166 01c8 C3       		.byte	0xc3
 1167 01c9 51010000 		.4byte	0x151
 1168 01cd 08       		.byte	0x8
 1169 01ce 0C       		.uleb128 0xc
 1170 01cf 90090000 		.4byte	.LASF37
 1171 01d3 07       		.byte	0x7
 1172 01d4 C4       		.byte	0xc4
 1173 01d5 FE040000 		.4byte	0x4fe
 1174 01d9 0C       		.byte	0xc
 1175 01da 0C       		.uleb128 0xc
 1176 01db D3020000 		.4byte	.LASF38
 1177 01df 07       		.byte	0x7
 1178 01e0 C6       		.byte	0xc6
 1179 01e1 F3050000 		.4byte	0x5f3
 1180 01e5 10       		.byte	0x10
 1181 01e6 0C       		.uleb128 0xc
 1182 01e7 E8050000 		.4byte	.LASF39
 1183 01eb 07       		.byte	0x7
ARM GAS  C:\Users\jo\AppData\Local\Temp\ccN6q2EI.s 			page 26


 1184 01ec C7       		.byte	0xc7
 1185 01ed F3050000 		.4byte	0x5f3
 1186 01f1 14       		.byte	0x14
 1187 01f2 0C       		.uleb128 0xc
 1188 01f3 11090000 		.4byte	.LASF40
 1189 01f7 07       		.byte	0x7
 1190 01f8 CE       		.byte	0xce
 1191 01f9 C3000000 		.4byte	0xc3
 1192 01fd 18       		.byte	0x18
 1193 01fe 0C       		.uleb128 0xc
 1194 01ff 0F060000 		.4byte	.LASF41
 1195 0203 07       		.byte	0x7
 1196 0204 D4       		.byte	0xd4
 1197 0205 3D070000 		.4byte	0x73d
 1198 0209 1C       		.byte	0x1c
 1199 020a 0C       		.uleb128 0xc
 1200 020b F6060000 		.4byte	.LASF42
 1201 020f 07       		.byte	0x7
 1202 0210 D9       		.byte	0xd9
 1203 0211 3B010000 		.4byte	0x13b
 1204 0215 20       		.byte	0x20
 1205 0216 0C       		.uleb128 0xc
 1206 0217 1B070000 		.4byte	.LASF43
 1207 021b 07       		.byte	0x7
 1208 021c DD       		.byte	0xdd
 1209 021d 30010000 		.4byte	0x130
 1210 0221 21       		.byte	0x21
 1211 0222 0C       		.uleb128 0xc
 1212 0223 B6080000 		.4byte	.LASF44
 1213 0227 07       		.byte	0x7
 1214 0228 E2       		.byte	0xe2
 1215 0229 46010000 		.4byte	0x146
 1216 022d 22       		.byte	0x22
 1217 022e 0D       		.uleb128 0xd
 1218 022f 705F7500 		.ascii	"p_u\000"
 1219 0233 07       		.byte	0x7
 1220 0234 1401     		.2byte	0x114
 1221 0236 05070000 		.4byte	0x705
 1222 023a 24       		.byte	0x24
 1223 023b 0E       		.uleb128 0xe
 1224 023c 66050000 		.4byte	.LASF45
 1225 0240 07       		.byte	0x7
 1226 0241 1901     		.2byte	0x119
 1227 0243 A4020000 		.4byte	0x2a4
 1228 0247 28       		.byte	0x28
 1229 0248 0E       		.uleb128 0xe
 1230 0249 95030000 		.4byte	.LASF46
 1231 024d 07       		.byte	0x7
 1232 024e 1F01     		.2byte	0x11f
 1233 0250 C8020000 		.4byte	0x2c8
 1234 0254 2C       		.byte	0x2c
 1235 0255 0E       		.uleb128 0xe
 1236 0256 B4070000 		.4byte	.LASF47
 1237 025a 07       		.byte	0x7
 1238 025b 2301     		.2byte	0x123
 1239 025d 5C010000 		.4byte	0x15c
 1240 0261 34       		.byte	0x34
ARM GAS  C:\Users\jo\AppData\Local\Temp\ccN6q2EI.s 			page 27


 1241 0262 0E       		.uleb128 0xe
 1242 0263 39070000 		.4byte	.LASF48
 1243 0267 07       		.byte	0x7
 1244 0268 2901     		.2byte	0x129
 1245 026a 67010000 		.4byte	0x167
 1246 026e 38       		.byte	0x38
 1247 026f 0E       		.uleb128 0xe
 1248 0270 E2060000 		.4byte	.LASF49
 1249 0274 07       		.byte	0x7
 1250 0275 3001     		.2byte	0x130
 1251 0277 74070000 		.4byte	0x774
 1252 027b 3C       		.byte	0x3c
 1253 027c 0E       		.uleb128 0xe
 1254 027d E4070000 		.4byte	.LASF50
 1255 0281 07       		.byte	0x7
 1256 0282 3401     		.2byte	0x134
 1257 0284 51010000 		.4byte	0x151
 1258 0288 40       		.byte	0x40
 1259 0289 0E       		.uleb128 0xe
 1260 028a 32020000 		.4byte	.LASF51
 1261 028e 07       		.byte	0x7
 1262 028f 3A01     		.2byte	0x13a
 1263 0291 B4000000 		.4byte	0xb4
 1264 0295 44       		.byte	0x44
 1265 0296 0E       		.uleb128 0xe
 1266 0297 23070000 		.4byte	.LASF52
 1267 029b 07       		.byte	0x7
 1268 029c 4001     		.2byte	0x140
 1269 029e B6060000 		.4byte	0x6b6
 1270 02a2 48       		.byte	0x48
 1271 02a3 00       		.byte	0
 1272 02a4 03       		.uleb128 0x3
 1273 02a5 2C090000 		.4byte	.LASF53
 1274 02a9 06       		.byte	0x6
 1275 02aa 44       		.byte	0x44
 1276 02ab AF020000 		.4byte	0x2af
 1277 02af 0B       		.uleb128 0xb
 1278 02b0 5E070000 		.4byte	.LASF55
 1279 02b4 04       		.byte	0x4
 1280 02b5 07       		.byte	0x7
 1281 02b6 AC       		.byte	0xac
 1282 02b7 C8020000 		.4byte	0x2c8
 1283 02bb 0C       		.uleb128 0xc
 1284 02bc 0C070000 		.4byte	.LASF34
 1285 02c0 07       		.byte	0x7
 1286 02c1 AD       		.byte	0xad
 1287 02c2 F3050000 		.4byte	0x5f3
 1288 02c6 00       		.byte	0
 1289 02c7 00       		.byte	0
 1290 02c8 03       		.uleb128 0x3
 1291 02c9 94080000 		.4byte	.LASF56
 1292 02cd 06       		.byte	0x6
 1293 02ce 4B       		.byte	0x4b
 1294 02cf D3020000 		.4byte	0x2d3
 1295 02d3 0B       		.uleb128 0xb
 1296 02d4 9E090000 		.4byte	.LASF57
 1297 02d8 08       		.byte	0x8
ARM GAS  C:\Users\jo\AppData\Local\Temp\ccN6q2EI.s 			page 28


 1298 02d9 07       		.byte	0x7
 1299 02da B3       		.byte	0xb3
 1300 02db F8020000 		.4byte	0x2f8
 1301 02df 0C       		.uleb128 0xc
 1302 02e0 0C070000 		.4byte	.LASF34
 1303 02e4 07       		.byte	0x7
 1304 02e5 B4       		.byte	0xb4
 1305 02e6 F3050000 		.4byte	0x5f3
 1306 02ea 00       		.byte	0
 1307 02eb 0C       		.uleb128 0xc
 1308 02ec 95060000 		.4byte	.LASF35
 1309 02f0 07       		.byte	0x7
 1310 02f1 B5       		.byte	0xb5
 1311 02f2 F3050000 		.4byte	0x5f3
 1312 02f6 04       		.byte	0x4
 1313 02f7 00       		.byte	0
 1314 02f8 03       		.uleb128 0x3
 1315 02f9 16000000 		.4byte	.LASF58
 1316 02fd 06       		.byte	0x6
 1317 02fe 52       		.byte	0x52
 1318 02ff 03030000 		.4byte	0x303
 1319 0303 0F       		.uleb128 0xf
 1320 0304 2E040000 		.4byte	.LASF59
 1321 0308 1C       		.byte	0x1c
 1322 0309 07       		.byte	0x7
 1323 030a 7201     		.2byte	0x172
 1324 030c 5F030000 		.4byte	0x35f
 1325 0310 0E       		.uleb128 0xe
 1326 0311 4D070000 		.4byte	.LASF60
 1327 0315 07       		.byte	0x7
 1328 0316 7301     		.2byte	0x173
 1329 0318 C8020000 		.4byte	0x2c8
 1330 031c 00       		.byte	0
 1331 031d 0E       		.uleb128 0xe
 1332 031e FE060000 		.4byte	.LASF61
 1333 0322 07       		.byte	0x7
 1334 0323 7401     		.2byte	0x174
 1335 0325 51010000 		.4byte	0x151
 1336 0329 08       		.byte	0x8
 1337 032a 0E       		.uleb128 0xe
 1338 032b F0050000 		.4byte	.LASF62
 1339 032f 07       		.byte	0x7
 1340 0330 7601     		.2byte	0x176
 1341 0332 FE040000 		.4byte	0x4fe
 1342 0336 0C       		.byte	0xc
 1343 0337 0E       		.uleb128 0xe
 1344 0338 E3020000 		.4byte	.LASF63
 1345 033c 07       		.byte	0x7
 1346 033d 7901     		.2byte	0x179
 1347 033f F3050000 		.4byte	0x5f3
 1348 0343 10       		.byte	0x10
 1349 0344 0E       		.uleb128 0xe
 1350 0345 28060000 		.4byte	.LASF64
 1351 0349 07       		.byte	0x7
 1352 034a 7A01     		.2byte	0x17a
 1353 034c F3050000 		.4byte	0x5f3
 1354 0350 14       		.byte	0x14
ARM GAS  C:\Users\jo\AppData\Local\Temp\ccN6q2EI.s 			page 29


 1355 0351 0E       		.uleb128 0xe
 1356 0352 3B090000 		.4byte	.LASF65
 1357 0356 07       		.byte	0x7
 1358 0357 7D01     		.2byte	0x17d
 1359 0359 F3050000 		.4byte	0x5f3
 1360 035d 18       		.byte	0x18
 1361 035e 00       		.byte	0
 1362 035f 03       		.uleb128 0x3
 1363 0360 EF070000 		.4byte	.LASF66
 1364 0364 06       		.byte	0x6
 1365 0365 57       		.byte	0x57
 1366 0366 6A030000 		.4byte	0x36a
 1367 036a 06       		.uleb128 0x6
 1368 036b 04       		.byte	0x4
 1369 036c 70030000 		.4byte	0x370
 1370 0370 10       		.uleb128 0x10
 1371 0371 7B030000 		.4byte	0x37b
 1372 0375 11       		.uleb128 0x11
 1373 0376 B4000000 		.4byte	0xb4
 1374 037a 00       		.byte	0
 1375 037b 03       		.uleb128 0x3
 1376 037c 85060000 		.4byte	.LASF67
 1377 0380 06       		.byte	0x6
 1378 0381 5C       		.byte	0x5c
 1379 0382 86030000 		.4byte	0x386
 1380 0386 0F       		.uleb128 0xf
 1381 0387 34080000 		.4byte	.LASF68
 1382 038b 14       		.byte	0x14
 1383 038c 07       		.byte	0x7
 1384 038d 4D01     		.2byte	0x14d
 1385 038f D5030000 		.4byte	0x3d5
 1386 0393 0E       		.uleb128 0xe
 1387 0394 7C030000 		.4byte	.LASF69
 1388 0398 07       		.byte	0x7
 1389 0399 4E01     		.2byte	0x14e
 1390 039b 7A070000 		.4byte	0x77a
 1391 039f 00       		.byte	0
 1392 03a0 0E       		.uleb128 0xe
 1393 03a1 F4020000 		.4byte	.LASF70
 1394 03a5 07       		.byte	0x7
 1395 03a6 4F01     		.2byte	0x14f
 1396 03a8 7A070000 		.4byte	0x77a
 1397 03ac 04       		.byte	0x4
 1398 03ad 0E       		.uleb128 0xe
 1399 03ae 55070000 		.4byte	.LASF71
 1400 03b2 07       		.byte	0x7
 1401 03b3 5001     		.2byte	0x150
 1402 03b5 88010000 		.4byte	0x188
 1403 03b9 08       		.byte	0x8
 1404 03ba 0E       		.uleb128 0xe
 1405 03bb 96090000 		.4byte	.LASF72
 1406 03bf 07       		.byte	0x7
 1407 03c0 5101     		.2byte	0x151
 1408 03c2 5F030000 		.4byte	0x35f
 1409 03c6 0C       		.byte	0xc
 1410 03c7 0E       		.uleb128 0xe
 1411 03c8 66080000 		.4byte	.LASF73
ARM GAS  C:\Users\jo\AppData\Local\Temp\ccN6q2EI.s 			page 30


 1412 03cc 07       		.byte	0x7
 1413 03cd 5301     		.2byte	0x153
 1414 03cf B4000000 		.4byte	0xb4
 1415 03d3 10       		.byte	0x10
 1416 03d4 00       		.byte	0
 1417 03d5 03       		.uleb128 0x3
 1418 03d6 72010000 		.4byte	.LASF74
 1419 03da 06       		.byte	0x6
 1420 03db 61       		.byte	0x61
 1421 03dc E0030000 		.4byte	0x3e0
 1422 03e0 0F       		.uleb128 0xf
 1423 03e1 7E050000 		.4byte	.LASF75
 1424 03e5 10       		.byte	0x10
 1425 03e6 07       		.byte	0x7
 1426 03e7 5D01     		.2byte	0x15d
 1427 03e9 22040000 		.4byte	0x422
 1428 03ed 0E       		.uleb128 0xe
 1429 03ee 7C030000 		.4byte	.LASF69
 1430 03f2 07       		.byte	0x7
 1431 03f3 5E01     		.2byte	0x15e
 1432 03f5 7A070000 		.4byte	0x77a
 1433 03f9 00       		.byte	0
 1434 03fa 0E       		.uleb128 0xe
 1435 03fb F4020000 		.4byte	.LASF70
 1436 03ff 07       		.byte	0x7
 1437 0400 6001     		.2byte	0x160
 1438 0402 7A070000 		.4byte	0x77a
 1439 0406 04       		.byte	0x4
 1440 0407 0E       		.uleb128 0xe
 1441 0408 55070000 		.4byte	.LASF71
 1442 040c 07       		.byte	0x7
 1443 040d 6201     		.2byte	0x162
 1444 040f 88010000 		.4byte	0x188
 1445 0413 08       		.byte	0x8
 1446 0414 0E       		.uleb128 0xe
 1447 0415 C1050000 		.4byte	.LASF76
 1448 0419 07       		.byte	0x7
 1449 041a 6A01     		.2byte	0x16a
 1450 041c 88010000 		.4byte	0x188
 1451 0420 0C       		.byte	0xc
 1452 0421 00       		.byte	0
 1453 0422 03       		.uleb128 0x3
 1454 0423 B2000000 		.4byte	.LASF77
 1455 0427 06       		.byte	0x6
 1456 0428 66       		.byte	0x66
 1457 0429 2D040000 		.4byte	0x42d
 1458 042d 12       		.uleb128 0x12
 1459 042e 5A090000 		.4byte	.LASF78
 1460 0432 1404     		.2byte	0x414
 1461 0434 07       		.byte	0x7
 1462 0435 8401     		.2byte	0x184
 1463 0437 70040000 		.4byte	0x470
 1464 043b 0E       		.uleb128 0xe
 1465 043c 03080000 		.4byte	.LASF79
 1466 0440 07       		.byte	0x7
 1467 0441 8C01     		.2byte	0x18c
 1468 0443 80070000 		.4byte	0x780
ARM GAS  C:\Users\jo\AppData\Local\Temp\ccN6q2EI.s 			page 31


 1469 0447 00       		.byte	0
 1470 0448 0E       		.uleb128 0xe
 1471 0449 BD080000 		.4byte	.LASF80
 1472 044d 07       		.byte	0x7
 1473 044e 9101     		.2byte	0x191
 1474 0450 72010000 		.4byte	0x172
 1475 0454 04       		.byte	0x4
 1476 0455 0E       		.uleb128 0xe
 1477 0456 2F030000 		.4byte	.LASF81
 1478 045a 07       		.byte	0x7
 1479 045b 9501     		.2byte	0x195
 1480 045d 72010000 		.4byte	0x172
 1481 0461 08       		.byte	0x8
 1482 0462 0E       		.uleb128 0xe
 1483 0463 45090000 		.4byte	.LASF82
 1484 0467 07       		.byte	0x7
 1485 0468 9B01     		.2byte	0x19b
 1486 046a 48060000 		.4byte	0x648
 1487 046e 0C       		.byte	0xc
 1488 046f 00       		.byte	0
 1489 0470 03       		.uleb128 0x3
 1490 0471 01040000 		.4byte	.LASF83
 1491 0475 06       		.byte	0x6
 1492 0476 6B       		.byte	0x6b
 1493 0477 7B040000 		.4byte	0x47b
 1494 047b 12       		.uleb128 0x12
 1495 047c AC020000 		.4byte	.LASF84
 1496 0480 D805     		.2byte	0x5d8
 1497 0482 07       		.byte	0x7
 1498 0483 A401     		.2byte	0x1a4
 1499 0485 E8040000 		.4byte	0x4e8
 1500 0489 0E       		.uleb128 0xe
 1501 048a 21030000 		.4byte	.LASF85
 1502 048e 07       		.byte	0x7
 1503 048f A801     		.2byte	0x1a8
 1504 0491 F8020000 		.4byte	0x2f8
 1505 0495 00       		.byte	0
 1506 0496 0E       		.uleb128 0xe
 1507 0497 DD030000 		.4byte	.LASF86
 1508 049b 07       		.byte	0x7
 1509 049c AC01     		.2byte	0x1ac
 1510 049e D5030000 		.4byte	0x3d5
 1511 04a2 1C       		.byte	0x1c
 1512 04a3 0D       		.uleb128 0xd
 1513 04a4 64626700 		.ascii	"dbg\000"
 1514 04a8 07       		.byte	0x7
 1515 04a9 B001     		.2byte	0x1b0
 1516 04ab 22040000 		.4byte	0x422
 1517 04af 2C       		.byte	0x2c
 1518 04b0 13       		.uleb128 0x13
 1519 04b1 67010000 		.4byte	.LASF87
 1520 04b5 07       		.byte	0x7
 1521 04b6 B401     		.2byte	0x1b4
 1522 04b8 93010000 		.4byte	0x193
 1523 04bc 4004     		.2byte	0x440
 1524 04be 14       		.uleb128 0x14
 1525 04bf 746D00   		.ascii	"tm\000"
ARM GAS  C:\Users\jo\AppData\Local\Temp\ccN6q2EI.s 			page 32


 1526 04c2 07       		.byte	0x7
 1527 04c3 B901     		.2byte	0x1b9
 1528 04c5 68060000 		.4byte	0x668
 1529 04c9 A004     		.2byte	0x4a0
 1530 04cb 13       		.uleb128 0x13
 1531 04cc 70000000 		.4byte	.LASF88
 1532 04d0 07       		.byte	0x7
 1533 04d1 BF01     		.2byte	0x1bf
 1534 04d3 FA060000 		.4byte	0x6fa
 1535 04d7 A804     		.2byte	0x4a8
 1536 04d9 13       		.uleb128 0x13
 1537 04da 59040000 		.4byte	.LASF89
 1538 04de 07       		.byte	0x7
 1539 04df C501     		.2byte	0x1c5
 1540 04e1 85070000 		.4byte	0x785
 1541 04e5 E004     		.2byte	0x4e0
 1542 04e7 00       		.byte	0
 1543 04e8 03       		.uleb128 0x3
 1544 04e9 EB020000 		.4byte	.LASF90
 1545 04ed 08       		.byte	0x8
 1546 04ee 85       		.byte	0x85
 1547 04ef B4000000 		.4byte	0xb4
 1548 04f3 03       		.uleb128 0x3
 1549 04f4 4A050000 		.4byte	.LASF91
 1550 04f8 08       		.byte	0x8
 1551 04f9 8D       		.byte	0x8d
 1552 04fa 0A010000 		.4byte	0x10a
 1553 04fe 0B       		.uleb128 0xb
 1554 04ff 23080000 		.4byte	.LASF92
 1555 0503 04       		.byte	0x4
 1556 0504 08       		.byte	0x8
 1557 0505 A9       		.byte	0xa9
 1558 0506 17050000 		.4byte	0x517
 1559 050a 15       		.uleb128 0x15
 1560 050b 72313300 		.ascii	"r13\000"
 1561 050f 08       		.byte	0x8
 1562 0510 AA       		.byte	0xaa
 1563 0511 92050000 		.4byte	0x592
 1564 0515 00       		.byte	0
 1565 0516 00       		.byte	0
 1566 0517 0B       		.uleb128 0xb
 1567 0518 9E000000 		.4byte	.LASF93
 1568 051c 24       		.byte	0x24
 1569 051d 09       		.byte	0x9
 1570 051e F4       		.byte	0xf4
 1571 051f 92050000 		.4byte	0x592
 1572 0523 0D       		.uleb128 0xd
 1573 0524 723400   		.ascii	"r4\000"
 1574 0527 09       		.byte	0x9
 1575 0528 0701     		.2byte	0x107
 1576 052a E8040000 		.4byte	0x4e8
 1577 052e 00       		.byte	0
 1578 052f 0D       		.uleb128 0xd
 1579 0530 723500   		.ascii	"r5\000"
 1580 0533 09       		.byte	0x9
 1581 0534 0801     		.2byte	0x108
 1582 0536 E8040000 		.4byte	0x4e8
ARM GAS  C:\Users\jo\AppData\Local\Temp\ccN6q2EI.s 			page 33


 1583 053a 04       		.byte	0x4
 1584 053b 0D       		.uleb128 0xd
 1585 053c 723600   		.ascii	"r6\000"
 1586 053f 09       		.byte	0x9
 1587 0540 0901     		.2byte	0x109
 1588 0542 E8040000 		.4byte	0x4e8
 1589 0546 08       		.byte	0x8
 1590 0547 0D       		.uleb128 0xd
 1591 0548 723700   		.ascii	"r7\000"
 1592 054b 09       		.byte	0x9
 1593 054c 0A01     		.2byte	0x10a
 1594 054e E8040000 		.4byte	0x4e8
 1595 0552 0C       		.byte	0xc
 1596 0553 0D       		.uleb128 0xd
 1597 0554 723800   		.ascii	"r8\000"
 1598 0557 09       		.byte	0x9
 1599 0558 0B01     		.2byte	0x10b
 1600 055a E8040000 		.4byte	0x4e8
 1601 055e 10       		.byte	0x10
 1602 055f 0D       		.uleb128 0xd
 1603 0560 723900   		.ascii	"r9\000"
 1604 0563 09       		.byte	0x9
 1605 0564 0C01     		.2byte	0x10c
 1606 0566 E8040000 		.4byte	0x4e8
 1607 056a 14       		.byte	0x14
 1608 056b 0D       		.uleb128 0xd
 1609 056c 72313000 		.ascii	"r10\000"
 1610 0570 09       		.byte	0x9
 1611 0571 0D01     		.2byte	0x10d
 1612 0573 E8040000 		.4byte	0x4e8
 1613 0577 18       		.byte	0x18
 1614 0578 0D       		.uleb128 0xd
 1615 0579 72313100 		.ascii	"r11\000"
 1616 057d 09       		.byte	0x9
 1617 057e 0E01     		.2byte	0x10e
 1618 0580 E8040000 		.4byte	0x4e8
 1619 0584 1C       		.byte	0x1c
 1620 0585 0D       		.uleb128 0xd
 1621 0586 6C7200   		.ascii	"lr\000"
 1622 0589 09       		.byte	0x9
 1623 058a 0F01     		.2byte	0x10f
 1624 058c E8040000 		.4byte	0x4e8
 1625 0590 20       		.byte	0x20
 1626 0591 00       		.byte	0
 1627 0592 06       		.uleb128 0x6
 1628 0593 04       		.byte	0x4
 1629 0594 17050000 		.4byte	0x517
 1630 0598 03       		.uleb128 0x3
 1631 0599 9E050000 		.4byte	.LASF94
 1632 059d 0A       		.byte	0xa
 1633 059e 28       		.byte	0x28
 1634 059f A3050000 		.4byte	0x5a3
 1635 05a3 0B       		.uleb128 0xb
 1636 05a4 A2020000 		.4byte	.LASF95
 1637 05a8 04       		.byte	0x4
 1638 05a9 0B       		.byte	0xb
 1639 05aa 00       		.byte	0
ARM GAS  C:\Users\jo\AppData\Local\Temp\ccN6q2EI.s 			page 34


 1640 05ab BA050000 		.4byte	0x5ba
 1641 05af 16       		.uleb128 0x16
 1642 05b0 1E080000 		.4byte	.LASF117
 1643 05b4 B4000000 		.4byte	0xb4
 1644 05b8 00       		.byte	0
 1645 05b9 00       		.byte	0
 1646 05ba 17       		.uleb128 0x17
 1647 05bb 10       		.byte	0x10
 1648 05bc 0C       		.byte	0xc
 1649 05bd 57       		.byte	0x57
 1650 05be F3050000 		.4byte	0x5f3
 1651 05c2 0C       		.uleb128 0xc
 1652 05c3 23000000 		.4byte	.LASF96
 1653 05c7 0C       		.byte	0xc
 1654 05c8 5B       		.byte	0x5b
 1655 05c9 88010000 		.4byte	0x188
 1656 05cd 00       		.byte	0
 1657 05ce 0C       		.uleb128 0xc
 1658 05cf BE020000 		.4byte	.LASF97
 1659 05d3 0C       		.byte	0xc
 1660 05d4 5F       		.byte	0x5f
 1661 05d5 F3050000 		.4byte	0x5f3
 1662 05d9 04       		.byte	0x4
 1663 05da 0C       		.uleb128 0xc
 1664 05db 86090000 		.4byte	.LASF98
 1665 05df 0C       		.byte	0xc
 1666 05e0 63       		.byte	0x63
 1667 05e1 B4000000 		.4byte	0xb4
 1668 05e5 08       		.byte	0x8
 1669 05e6 0C       		.uleb128 0xc
 1670 05e7 55010000 		.4byte	.LASF99
 1671 05eb 0C       		.byte	0xc
 1672 05ec 67       		.byte	0x67
 1673 05ed DE000000 		.4byte	0xde
 1674 05f1 0C       		.byte	0xc
 1675 05f2 00       		.byte	0
 1676 05f3 06       		.uleb128 0x6
 1677 05f4 04       		.byte	0x4
 1678 05f5 93010000 		.4byte	0x193
 1679 05f9 03       		.uleb128 0x3
 1680 05fa B2050000 		.4byte	.LASF100
 1681 05fe 0C       		.byte	0xc
 1682 05ff 68       		.byte	0x68
 1683 0600 BA050000 		.4byte	0x5ba
 1684 0604 18       		.uleb128 0x18
 1685 0605 0804     		.2byte	0x408
 1686 0607 0C       		.byte	0xc
 1687 0608 6D       		.byte	0x6d
 1688 0609 32060000 		.4byte	0x632
 1689 060d 0C       		.uleb128 0xc
 1690 060e DB020000 		.4byte	.LASF101
 1691 0612 0C       		.byte	0xc
 1692 0613 71       		.byte	0x71
 1693 0614 37000000 		.4byte	0x37
 1694 0618 00       		.byte	0
 1695 0619 0C       		.uleb128 0xc
 1696 061a 0F000000 		.4byte	.LASF102
ARM GAS  C:\Users\jo\AppData\Local\Temp\ccN6q2EI.s 			page 35


 1697 061e 0C       		.byte	0xc
 1698 061f 75       		.byte	0x75
 1699 0620 32060000 		.4byte	0x632
 1700 0624 04       		.byte	0x4
 1701 0625 0C       		.uleb128 0xc
 1702 0626 0D040000 		.4byte	.LASF103
 1703 062a 0C       		.byte	0xc
 1704 062b 79       		.byte	0x79
 1705 062c 38060000 		.4byte	0x638
 1706 0630 08       		.byte	0x8
 1707 0631 00       		.byte	0
 1708 0632 06       		.uleb128 0x6
 1709 0633 04       		.byte	0x4
 1710 0634 F9050000 		.4byte	0x5f9
 1711 0638 08       		.uleb128 0x8
 1712 0639 F9050000 		.4byte	0x5f9
 1713 063d 48060000 		.4byte	0x648
 1714 0641 09       		.uleb128 0x9
 1715 0642 AD000000 		.4byte	0xad
 1716 0646 3F       		.byte	0x3f
 1717 0647 00       		.byte	0
 1718 0648 03       		.uleb128 0x3
 1719 0649 D6050000 		.4byte	.LASF104
 1720 064d 0C       		.byte	0xc
 1721 064e 7A       		.byte	0x7a
 1722 064f 04060000 		.4byte	0x604
 1723 0653 17       		.uleb128 0x17
 1724 0654 04       		.byte	0x4
 1725 0655 0D       		.byte	0xd
 1726 0656 38       		.byte	0x38
 1727 0657 68060000 		.4byte	0x668
 1728 065b 0C       		.uleb128 0xc
 1729 065c FC020000 		.4byte	.LASF105
 1730 0660 0D       		.byte	0xd
 1731 0661 3C       		.byte	0x3c
 1732 0662 1A010000 		.4byte	0x11a
 1733 0666 00       		.byte	0
 1734 0667 00       		.byte	0
 1735 0668 03       		.uleb128 0x3
 1736 0669 F6050000 		.4byte	.LASF106
 1737 066d 0D       		.byte	0xd
 1738 066e 3D       		.byte	0x3d
 1739 066f 53060000 		.4byte	0x653
 1740 0673 17       		.uleb128 0x17
 1741 0674 18       		.byte	0x18
 1742 0675 0D       		.byte	0xd
 1743 0676 48       		.byte	0x48
 1744 0677 B6060000 		.4byte	0x6b6
 1745 067b 0C       		.uleb128 0xc
 1746 067c CE070000 		.4byte	.LASF107
 1747 0680 0D       		.byte	0xd
 1748 0681 49       		.byte	0x49
 1749 0682 1A010000 		.4byte	0x11a
 1750 0686 00       		.byte	0
 1751 0687 0C       		.uleb128 0xc
 1752 0688 DD000000 		.4byte	.LASF108
 1753 068c 0D       		.byte	0xd
ARM GAS  C:\Users\jo\AppData\Local\Temp\ccN6q2EI.s 			page 36


 1754 068d 4A       		.byte	0x4a
 1755 068e 1A010000 		.4byte	0x11a
 1756 0692 04       		.byte	0x4
 1757 0693 0C       		.uleb128 0xc
 1758 0694 F5030000 		.4byte	.LASF109
 1759 0698 0D       		.byte	0xd
 1760 0699 4B       		.byte	0x4b
 1761 069a 1A010000 		.4byte	0x11a
 1762 069e 08       		.byte	0x8
 1763 069f 15       		.uleb128 0x15
 1764 06a0 6E00     		.ascii	"n\000"
 1765 06a2 0D       		.byte	0xd
 1766 06a3 4C       		.byte	0x4c
 1767 06a4 7D010000 		.4byte	0x17d
 1768 06a8 0C       		.byte	0xc
 1769 06a9 0C       		.uleb128 0xc
 1770 06aa 49060000 		.4byte	.LASF110
 1771 06ae 0D       		.byte	0xd
 1772 06af 4D       		.byte	0x4d
 1773 06b0 25010000 		.4byte	0x125
 1774 06b4 10       		.byte	0x10
 1775 06b5 00       		.byte	0
 1776 06b6 03       		.uleb128 0x3
 1777 06b7 E3000000 		.4byte	.LASF111
 1778 06bb 0D       		.byte	0xd
 1779 06bc 4E       		.byte	0x4e
 1780 06bd 73060000 		.4byte	0x673
 1781 06c1 17       		.uleb128 0x17
 1782 06c2 38       		.byte	0x38
 1783 06c3 0E       		.byte	0xe
 1784 06c4 38       		.byte	0x38
 1785 06c5 FA060000 		.4byte	0x6fa
 1786 06c9 0C       		.uleb128 0xc
 1787 06ca A6030000 		.4byte	.LASF112
 1788 06ce 0E       		.byte	0xe
 1789 06cf 39       		.byte	0x39
 1790 06d0 7D010000 		.4byte	0x17d
 1791 06d4 00       		.byte	0
 1792 06d5 0C       		.uleb128 0xc
 1793 06d6 BD060000 		.4byte	.LASF113
 1794 06da 0E       		.byte	0xe
 1795 06db 3A       		.byte	0x3a
 1796 06dc 7D010000 		.4byte	0x17d
 1797 06e0 04       		.byte	0x4
 1798 06e1 0C       		.uleb128 0xc
 1799 06e2 73090000 		.4byte	.LASF114
 1800 06e6 0E       		.byte	0xe
 1801 06e7 3B       		.byte	0x3b
 1802 06e8 B6060000 		.4byte	0x6b6
 1803 06ec 08       		.byte	0x8
 1804 06ed 0C       		.uleb128 0xc
 1805 06ee 23040000 		.4byte	.LASF115
 1806 06f2 0E       		.byte	0xe
 1807 06f3 3D       		.byte	0x3d
 1808 06f4 B6060000 		.4byte	0x6b6
 1809 06f8 20       		.byte	0x20
 1810 06f9 00       		.byte	0
ARM GAS  C:\Users\jo\AppData\Local\Temp\ccN6q2EI.s 			page 37


 1811 06fa 03       		.uleb128 0x3
 1812 06fb 00000000 		.4byte	.LASF116
 1813 06ff 0E       		.byte	0xe
 1814 0700 3F       		.byte	0x3f
 1815 0701 C1060000 		.4byte	0x6c1
 1816 0705 19       		.uleb128 0x19
 1817 0706 04       		.byte	0x4
 1818 0707 07       		.byte	0x7
 1819 0708 F6       		.byte	0xf6
 1820 0709 3D070000 		.4byte	0x73d
 1821 070d 1A       		.uleb128 0x1a
 1822 070e 4A000000 		.4byte	.LASF118
 1823 0712 07       		.byte	0x7
 1824 0713 FD       		.byte	0xfd
 1825 0714 5C010000 		.4byte	0x15c
 1826 0718 1B       		.uleb128 0x1b
 1827 0719 5E010000 		.4byte	.LASF119
 1828 071d 07       		.byte	0x7
 1829 071e 0401     		.2byte	0x104
 1830 0720 5C010000 		.4byte	0x15c
 1831 0724 1B       		.uleb128 0x1b
 1832 0725 0A090000 		.4byte	.LASF120
 1833 0729 07       		.byte	0x7
 1834 072a 0B01     		.2byte	0x10b
 1835 072c B4000000 		.4byte	0xb4
 1836 0730 1B       		.uleb128 0x1b
 1837 0731 05070000 		.4byte	.LASF121
 1838 0735 07       		.byte	0x7
 1839 0736 1201     		.2byte	0x112
 1840 0738 67010000 		.4byte	0x167
 1841 073c 00       		.byte	0
 1842 073d 06       		.uleb128 0x6
 1843 073e 04       		.byte	0x4
 1844 073f F3040000 		.4byte	0x4f3
 1845 0743 0B       		.uleb128 0xb
 1846 0744 AF060000 		.4byte	.LASF122
 1847 0748 10       		.byte	0x10
 1848 0749 0F       		.byte	0xf
 1849 074a 39       		.byte	0x39
 1850 074b 74070000 		.4byte	0x774
 1851 074f 0C       		.uleb128 0xc
 1852 0750 43020000 		.4byte	.LASF123
 1853 0754 0F       		.byte	0xf
 1854 0755 3A       		.byte	0x3a
 1855 0756 C8020000 		.4byte	0x2c8
 1856 075a 00       		.byte	0
 1857 075b 0C       		.uleb128 0xc
 1858 075c 7E090000 		.4byte	.LASF124
 1859 0760 0F       		.byte	0xf
 1860 0761 3C       		.byte	0x3c
 1861 0762 F3050000 		.4byte	0x5f3
 1862 0766 08       		.byte	0x8
 1863 0767 0C       		.uleb128 0xc
 1864 0768 D3070000 		.4byte	.LASF125
 1865 076c 0F       		.byte	0xf
 1866 076d 3E       		.byte	0x3e
 1867 076e A0070000 		.4byte	0x7a0
ARM GAS  C:\Users\jo\AppData\Local\Temp\ccN6q2EI.s 			page 38


 1868 0772 0C       		.byte	0xc
 1869 0773 00       		.byte	0
 1870 0774 06       		.uleb128 0x6
 1871 0775 04       		.byte	0x4
 1872 0776 43070000 		.4byte	0x743
 1873 077a 06       		.uleb128 0x6
 1874 077b 04       		.byte	0x4
 1875 077c 7B030000 		.4byte	0x37b
 1876 0780 0A       		.uleb128 0xa
 1877 0781 C3000000 		.4byte	0xc3
 1878 0785 08       		.uleb128 0x8
 1879 0786 F3040000 		.4byte	0x4f3
 1880 078a 95070000 		.4byte	0x795
 1881 078e 09       		.uleb128 0x9
 1882 078f AD000000 		.4byte	0xad
 1883 0793 1E       		.byte	0x1e
 1884 0794 00       		.byte	0
 1885 0795 03       		.uleb128 0x3
 1886 0796 27030000 		.4byte	.LASF126
 1887 079a 0F       		.byte	0xf
 1888 079b 34       		.byte	0x34
 1889 079c 43070000 		.4byte	0x743
 1890 07a0 06       		.uleb128 0x6
 1891 07a1 04       		.byte	0x4
 1892 07a2 95070000 		.4byte	0x795
 1893 07a6 04       		.uleb128 0x4
 1894 07a7 01       		.byte	0x1
 1895 07a8 02       		.byte	0x2
 1896 07a9 C6060000 		.4byte	.LASF127
 1897 07ad 03       		.uleb128 0x3
 1898 07ae AA000000 		.4byte	.LASF128
 1899 07b2 0A       		.byte	0xa
 1900 07b3 62       		.byte	0x62
 1901 07b4 98050000 		.4byte	0x598
 1902 07b8 03       		.uleb128 0x3
 1903 07b9 70050000 		.4byte	.LASF129
 1904 07bd 10       		.byte	0x10
 1905 07be 3D       		.byte	0x3d
 1906 07bf DE000000 		.4byte	0xde
 1907 07c3 03       		.uleb128 0x3
 1908 07c4 6D080000 		.4byte	.LASF130
 1909 07c8 10       		.byte	0x10
 1910 07c9 3F       		.byte	0x3f
 1911 07ca E9000000 		.4byte	0xe9
 1912 07ce 03       		.uleb128 0x3
 1913 07cf A0030000 		.4byte	.LASF131
 1914 07d3 10       		.byte	0x10
 1915 07d4 41       		.byte	0x41
 1916 07d5 FF000000 		.4byte	0xff
 1917 07d9 0B       		.uleb128 0xb
 1918 07da 95010000 		.4byte	.LASF132
 1919 07de 04       		.byte	0x4
 1920 07df 11       		.byte	0x11
 1921 07e0 2C       		.byte	0x2c
 1922 07e1 F2070000 		.4byte	0x7f2
 1923 07e5 0C       		.uleb128 0xc
 1924 07e6 75030000 		.4byte	.LASF133
ARM GAS  C:\Users\jo\AppData\Local\Temp\ccN6q2EI.s 			page 39


 1925 07ea 11       		.byte	0x11
 1926 07eb 2D       		.byte	0x2d
 1927 07ec CE070000 		.4byte	0x7ce
 1928 07f0 00       		.byte	0
 1929 07f1 00       		.byte	0
 1930 07f2 0B       		.uleb128 0xb
 1931 07f3 DD080000 		.4byte	.LASF134
 1932 07f7 10       		.byte	0x10
 1933 07f8 12       		.byte	0x12
 1934 07f9 33       		.byte	0x33
 1935 07fa 3B080000 		.4byte	0x83b
 1936 07fe 0C       		.uleb128 0xc
 1937 07ff 07060000 		.4byte	.LASF135
 1938 0803 12       		.byte	0x12
 1939 0804 34       		.byte	0x34
 1940 0805 B8070000 		.4byte	0x7b8
 1941 0809 00       		.byte	0
 1942 080a 0C       		.uleb128 0xc
 1943 080b 5B050000 		.4byte	.LASF136
 1944 080f 12       		.byte	0x12
 1945 0810 35       		.byte	0x35
 1946 0811 B8070000 		.4byte	0x7b8
 1947 0815 01       		.byte	0x1
 1948 0816 0C       		.uleb128 0xc
 1949 0817 54060000 		.4byte	.LASF137
 1950 081b 12       		.byte	0x12
 1951 081c 36       		.byte	0x36
 1952 081d C3070000 		.4byte	0x7c3
 1953 0821 02       		.byte	0x2
 1954 0822 0C       		.uleb128 0xc
 1955 0823 CA030000 		.4byte	.LASF138
 1956 0827 12       		.byte	0x12
 1957 0828 37       		.byte	0x37
 1958 0829 D9070000 		.4byte	0x7d9
 1959 082d 04       		.byte	0x4
 1960 082e 0C       		.uleb128 0xc
 1961 082f 18030000 		.4byte	.LASF139
 1962 0833 12       		.byte	0x12
 1963 0834 38       		.byte	0x38
 1964 0835 CE000000 		.4byte	0xce
 1965 0839 08       		.byte	0x8
 1966 083a 00       		.byte	0
 1967 083b 1C       		.uleb128 0x1c
 1968 083c A2070000 		.4byte	.LASF140
 1969 0840 6406     		.2byte	0x664
 1970 0842 13       		.byte	0x13
 1971 0843 3A       		.byte	0x3a
 1972 0844 A1080000 		.4byte	0x8a1
 1973 0848 0C       		.uleb128 0xc
 1974 0849 5D060000 		.4byte	.LASF141
 1975 084d 13       		.byte	0x13
 1976 084e 3B       		.byte	0x3b
 1977 084f 25000000 		.4byte	0x25
 1978 0853 00       		.byte	0
 1979 0854 0C       		.uleb128 0xc
 1980 0855 AF090000 		.4byte	.LASF142
 1981 0859 13       		.byte	0x13
ARM GAS  C:\Users\jo\AppData\Local\Temp\ccN6q2EI.s 			page 40


 1982 085a 3C       		.byte	0x3c
 1983 085b 25000000 		.4byte	0x25
 1984 085f 04       		.byte	0x4
 1985 0860 0C       		.uleb128 0xc
 1986 0861 EF080000 		.4byte	.LASF143
 1987 0865 13       		.byte	0x13
 1988 0866 3D       		.byte	0x3d
 1989 0867 A1080000 		.4byte	0x8a1
 1990 086b 08       		.byte	0x8
 1991 086c 1D       		.uleb128 0x1d
 1992 086d A4060000 		.4byte	.LASF144
 1993 0871 13       		.byte	0x13
 1994 0872 3E       		.byte	0x3e
 1995 0873 25000000 		.4byte	0x25
 1996 0877 3C06     		.2byte	0x63c
 1997 0879 1D       		.uleb128 0x1d
 1998 087a 5D030000 		.4byte	.LASF145
 1999 087e 13       		.byte	0x13
 2000 087f 3F       		.byte	0x3f
 2001 0880 25000000 		.4byte	0x25
 2002 0884 4006     		.2byte	0x640
 2003 0886 1D       		.uleb128 0x1d
 2004 0887 6E070000 		.4byte	.LASF146
 2005 088b 13       		.byte	0x13
 2006 088c 40       		.byte	0x40
 2007 088d F2070000 		.4byte	0x7f2
 2008 0891 4406     		.2byte	0x644
 2009 0893 1D       		.uleb128 0x1d
 2010 0894 AC030000 		.4byte	.LASF147
 2011 0898 13       		.byte	0x13
 2012 0899 41       		.byte	0x41
 2013 089a F2070000 		.4byte	0x7f2
 2014 089e 5406     		.2byte	0x654
 2015 08a0 00       		.byte	0
 2016 08a1 08       		.uleb128 0x8
 2017 08a2 BC000000 		.4byte	0xbc
 2018 08a6 B2080000 		.4byte	0x8b2
 2019 08aa 1E       		.uleb128 0x1e
 2020 08ab AD000000 		.4byte	0xad
 2021 08af 3306     		.2byte	0x633
 2022 08b1 00       		.byte	0
 2023 08b2 03       		.uleb128 0x3
 2024 08b3 17040000 		.4byte	.LASF148
 2025 08b7 14       		.byte	0x14
 2026 08b8 3D       		.byte	0x3d
 2027 08b9 3B080000 		.4byte	0x83b
 2028 08bd 06       		.uleb128 0x6
 2029 08be 04       		.byte	0x4
 2030 08bf B2080000 		.4byte	0x8b2
 2031 08c3 03       		.uleb128 0x3
 2032 08c4 D0080000 		.4byte	.LASF149
 2033 08c8 15       		.byte	0x15
 2034 08c9 87       		.byte	0x87
 2035 08ca CE080000 		.4byte	0x8ce
 2036 08ce 0B       		.uleb128 0xb
 2037 08cf 77060000 		.4byte	.LASF150
 2038 08d3 4C       		.byte	0x4c
ARM GAS  C:\Users\jo\AppData\Local\Temp\ccN6q2EI.s 			page 41


 2039 08d4 15       		.byte	0x15
 2040 08d5 8A       		.byte	0x8a
 2041 08d6 BF090000 		.4byte	0x9bf
 2042 08da 0C       		.uleb128 0xc
 2043 08db C5080000 		.4byte	.LASF151
 2044 08df 15       		.byte	0x15
 2045 08e0 8B       		.byte	0x8b
 2046 08e1 25000000 		.4byte	0x25
 2047 08e5 00       		.byte	0
 2048 08e6 0C       		.uleb128 0xc
 2049 08e7 B6020000 		.4byte	.LASF152
 2050 08eb 15       		.byte	0x15
 2051 08ec 8C       		.byte	0x8c
 2052 08ed B6000000 		.4byte	0xb6
 2053 08f1 04       		.byte	0x4
 2054 08f2 0C       		.uleb128 0xc
 2055 08f3 32000000 		.4byte	.LASF153
 2056 08f7 15       		.byte	0x15
 2057 08f8 8D       		.byte	0x8d
 2058 08f9 25000000 		.4byte	0x25
 2059 08fd 08       		.byte	0x8
 2060 08fe 0C       		.uleb128 0xc
 2061 08ff 66000000 		.4byte	.LASF154
 2062 0903 15       		.byte	0x15
 2063 0904 8E       		.byte	0x8e
 2064 0905 B6000000 		.4byte	0xb6
 2065 0909 0C       		.byte	0xc
 2066 090a 0C       		.uleb128 0xc
 2067 090b 3A020000 		.4byte	.LASF155
 2068 090f 15       		.byte	0x15
 2069 0910 8F       		.byte	0x8f
 2070 0911 B6000000 		.4byte	0xb6
 2071 0915 10       		.byte	0x10
 2072 0916 0C       		.uleb128 0xc
 2073 0917 29020000 		.4byte	.LASF156
 2074 091b 15       		.byte	0x15
 2075 091c 90       		.byte	0x90
 2076 091d B6000000 		.4byte	0xb6
 2077 0921 14       		.byte	0x14
 2078 0922 0C       		.uleb128 0xc
 2079 0923 5A020000 		.4byte	.LASF157
 2080 0927 15       		.byte	0x15
 2081 0928 91       		.byte	0x91
 2082 0929 B6000000 		.4byte	0xb6
 2083 092d 18       		.byte	0x18
 2084 092e 0C       		.uleb128 0xc
 2085 092f 4B020000 		.4byte	.LASF158
 2086 0933 15       		.byte	0x15
 2087 0934 92       		.byte	0x92
 2088 0935 25000000 		.4byte	0x25
 2089 0939 1C       		.byte	0x1c
 2090 093a 0C       		.uleb128 0xc
 2091 093b E4030000 		.4byte	.LASF159
 2092 093f 15       		.byte	0x15
 2093 0940 94       		.byte	0x94
 2094 0941 7B000000 		.4byte	0x7b
 2095 0945 20       		.byte	0x20
ARM GAS  C:\Users\jo\AppData\Local\Temp\ccN6q2EI.s 			page 42


 2096 0946 0C       		.uleb128 0xc
 2097 0947 8B030000 		.4byte	.LASF160
 2098 094b 15       		.byte	0x15
 2099 094c 95       		.byte	0x95
 2100 094d B6000000 		.4byte	0xb6
 2101 0951 24       		.byte	0x24
 2102 0952 0C       		.uleb128 0xc
 2103 0953 6A090000 		.4byte	.LASF161
 2104 0957 15       		.byte	0x15
 2105 0958 96       		.byte	0x96
 2106 0959 B6000000 		.4byte	0xb6
 2107 095d 28       		.byte	0x28
 2108 095e 0C       		.uleb128 0xc
 2109 095f D2000000 		.4byte	.LASF162
 2110 0963 15       		.byte	0x15
 2111 0964 97       		.byte	0x97
 2112 0965 B6000000 		.4byte	0xb6
 2113 0969 2C       		.byte	0x2c
 2114 096a 0C       		.uleb128 0xc
 2115 096b 4E030000 		.4byte	.LASF163
 2116 096f 15       		.byte	0x15
 2117 0970 98       		.byte	0x98
 2118 0971 B6000000 		.4byte	0xb6
 2119 0975 30       		.byte	0x30
 2120 0976 0C       		.uleb128 0xc
 2121 0977 70020000 		.4byte	.LASF164
 2122 097b 15       		.byte	0x15
 2123 097c 99       		.byte	0x99
 2124 097d B6000000 		.4byte	0xb6
 2125 0981 34       		.byte	0x34
 2126 0982 0C       		.uleb128 0xc
 2127 0983 3E000000 		.4byte	.LASF165
 2128 0987 15       		.byte	0x15
 2129 0988 9D       		.byte	0x9d
 2130 0989 B6000000 		.4byte	0xb6
 2131 098d 38       		.byte	0x38
 2132 098e 0C       		.uleb128 0xc
 2133 098f 95050000 		.4byte	.LASF166
 2134 0993 15       		.byte	0x15
 2135 0994 9E       		.byte	0x9e
 2136 0995 B6000000 		.4byte	0xb6
 2137 0999 3C       		.byte	0x3c
 2138 099a 0C       		.uleb128 0xc
 2139 099b 73080000 		.4byte	.LASF167
 2140 099f 15       		.byte	0x15
 2141 09a0 9F       		.byte	0x9f
 2142 09a1 B6000000 		.4byte	0xb6
 2143 09a5 40       		.byte	0x40
 2144 09a6 0C       		.uleb128 0xc
 2145 09a7 58080000 		.4byte	.LASF168
 2146 09ab 15       		.byte	0x15
 2147 09ac A0       		.byte	0xa0
 2148 09ad B6000000 		.4byte	0xb6
 2149 09b1 44       		.byte	0x44
 2150 09b2 0C       		.uleb128 0xc
 2151 09b3 FB010000 		.4byte	.LASF169
 2152 09b7 15       		.byte	0x15
ARM GAS  C:\Users\jo\AppData\Local\Temp\ccN6q2EI.s 			page 43


 2153 09b8 A1       		.byte	0xa1
 2154 09b9 B6000000 		.4byte	0xb6
 2155 09bd 48       		.byte	0x48
 2156 09be 00       		.byte	0
 2157 09bf 03       		.uleb128 0x3
 2158 09c0 83020000 		.4byte	.LASF170
 2159 09c4 15       		.byte	0x15
 2160 09c5 A6       		.byte	0xa6
 2161 09c6 CA090000 		.4byte	0x9ca
 2162 09ca 0B       		.uleb128 0xb
 2163 09cb 85080000 		.4byte	.LASF171
 2164 09cf 50       		.byte	0x50
 2165 09d0 15       		.byte	0x15
 2166 09d1 A9       		.byte	0xa9
 2167 09d2 EF090000 		.4byte	0x9ef
 2168 09d6 0C       		.uleb128 0xc
 2169 09d7 01090000 		.4byte	.LASF172
 2170 09db 15       		.byte	0x15
 2171 09dc AA       		.byte	0xaa
 2172 09dd BD080000 		.4byte	0x8bd
 2173 09e1 00       		.byte	0
 2174 09e2 0C       		.uleb128 0xc
 2175 09e3 55050000 		.4byte	.LASF173
 2176 09e7 15       		.byte	0x15
 2177 09e8 AB       		.byte	0xab
 2178 09e9 C3080000 		.4byte	0x8c3
 2179 09ed 04       		.byte	0x4
 2180 09ee 00       		.byte	0
 2181 09ef 06       		.uleb128 0x6
 2182 09f0 04       		.byte	0x4
 2183 09f1 BF090000 		.4byte	0x9bf
 2184 09f5 03       		.uleb128 0x3
 2185 09f6 51000000 		.4byte	.LASF174
 2186 09fa 01       		.byte	0x1
 2187 09fb 31       		.byte	0x31
 2188 09fc 000A0000 		.4byte	0xa00
 2189 0a00 0B       		.uleb128 0xb
 2190 0a01 38030000 		.4byte	.LASF175
 2191 0a05 08       		.byte	0x8
 2192 0a06 01       		.byte	0x1
 2193 0a07 33       		.byte	0x33
 2194 0a08 250A0000 		.4byte	0xa25
 2195 0a0c 0C       		.uleb128 0xc
 2196 0a0d 6F060000 		.4byte	.LASF176
 2197 0a11 01       		.byte	0x1
 2198 0a12 34       		.byte	0x34
 2199 0a13 25000000 		.4byte	0x25
 2200 0a17 00       		.byte	0
 2201 0a18 0C       		.uleb128 0xc
 2202 0a19 9A020000 		.4byte	.LASF177
 2203 0a1d 01       		.byte	0x1
 2204 0a1e 35       		.byte	0x35
 2205 0a1f C3000000 		.4byte	0xc3
 2206 0a23 04       		.byte	0x4
 2207 0a24 00       		.byte	0
 2208 0a25 1F       		.uleb128 0x1f
 2209 0a26 0D080000 		.4byte	.LASF197
ARM GAS  C:\Users\jo\AppData\Local\Temp\ccN6q2EI.s 			page 44


 2210 0a2a 01       		.byte	0x1
 2211 0a2b 8B       		.byte	0x8b
 2212 0a2c C3000000 		.4byte	0xc3
 2213 0a30 01       		.byte	0x1
 2214 0a31 6C0A0000 		.4byte	0xa6c
 2215 0a35 20       		.uleb128 0x20
 2216 0a36 80080000 		.4byte	.LASF191
 2217 0a3a 01       		.byte	0x1
 2218 0a3b 8B       		.byte	0x8b
 2219 0a3c 25000000 		.4byte	0x25
 2220 0a40 21       		.uleb128 0x21
 2221 0a41 727000   		.ascii	"rp\000"
 2222 0a44 01       		.byte	0x1
 2223 0a45 8D       		.byte	0x8d
 2224 0a46 C3000000 		.4byte	0xc3
 2225 0a4a 21       		.uleb128 0x21
 2226 0a4b 6900     		.ascii	"i\000"
 2227 0a4d 01       		.byte	0x1
 2228 0a4e 8F       		.byte	0x8f
 2229 0a4f 25000000 		.4byte	0x25
 2230 0a53 22       		.uleb128 0x22
 2231 0a54 23       		.uleb128 0x23
 2232 0a55 B5060000 		.4byte	.LASF178
 2233 0a59 01       		.byte	0x1
 2234 0a5a 9B       		.byte	0x9b
 2235 0a5b C3000000 		.4byte	0xc3
 2236 0a5f 23       		.uleb128 0x23
 2237 0a60 7D000000 		.4byte	.LASF179
 2238 0a64 01       		.byte	0x1
 2239 0a65 9C       		.byte	0x9c
 2240 0a66 C3000000 		.4byte	0xc3
 2241 0a6a 00       		.byte	0
 2242 0a6b 00       		.byte	0
 2243 0a6c 24       		.uleb128 0x24
 2244 0a6d 250A0000 		.4byte	0xa25
 2245 0a71 00000000 		.4byte	.LFB256
 2246 0a75 4C000000 		.4byte	.LFE256-.LFB256
 2247 0a79 01       		.uleb128 0x1
 2248 0a7a 9C       		.byte	0x9c
 2249 0a7b CA0A0000 		.4byte	0xaca
 2250 0a7f 25       		.uleb128 0x25
 2251 0a80 350A0000 		.4byte	0xa35
 2252 0a84 00000000 		.4byte	.LLST0
 2253 0a88 26       		.uleb128 0x26
 2254 0a89 400A0000 		.4byte	0xa40
 2255 0a8d 1E000000 		.4byte	.LLST1
 2256 0a91 26       		.uleb128 0x26
 2257 0a92 4A0A0000 		.4byte	0xa4a
 2258 0a96 49000000 		.4byte	.LLST2
 2259 0a9a 27       		.uleb128 0x27
 2260 0a9b 00000000 		.4byte	.Ldebug_ranges0+0
 2261 0a9f 25       		.uleb128 0x25
 2262 0aa0 350A0000 		.4byte	0xa35
 2263 0aa4 8F000000 		.4byte	.LLST3
 2264 0aa8 27       		.uleb128 0x27
 2265 0aa9 00000000 		.4byte	.Ldebug_ranges0+0
 2266 0aad 28       		.uleb128 0x28
ARM GAS  C:\Users\jo\AppData\Local\Temp\ccN6q2EI.s 			page 45


 2267 0aae 400A0000 		.4byte	0xa40
 2268 0ab2 28       		.uleb128 0x28
 2269 0ab3 4A0A0000 		.4byte	0xa4a
 2270 0ab7 27       		.uleb128 0x27
 2271 0ab8 00000000 		.4byte	.Ldebug_ranges0+0
 2272 0abc 28       		.uleb128 0x28
 2273 0abd 540A0000 		.4byte	0xa54
 2274 0ac1 28       		.uleb128 0x28
 2275 0ac2 5F0A0000 		.4byte	0xa5f
 2276 0ac6 00       		.byte	0
 2277 0ac7 00       		.byte	0
 2278 0ac8 00       		.byte	0
 2279 0ac9 00       		.byte	0
 2280 0aca 29       		.uleb128 0x29
 2281 0acb 8B070000 		.4byte	.LASF181
 2282 0acf 01       		.byte	0x1
 2283 0ad0 A7       		.byte	0xa7
 2284 0ad1 00000000 		.4byte	.LFB257
 2285 0ad5 28000000 		.4byte	.LFE257-.LFB257
 2286 0ad9 01       		.uleb128 0x1
 2287 0ada 9C       		.byte	0x9c
 2288 0adb 460B0000 		.4byte	0xb46
 2289 0adf 2A       		.uleb128 0x2a
 2290 0ae0 687300   		.ascii	"hs\000"
 2291 0ae3 01       		.byte	0x1
 2292 0ae4 A7       		.byte	0xa7
 2293 0ae5 EF090000 		.4byte	0x9ef
 2294 0ae9 A2000000 		.4byte	.LLST4
 2295 0aed 2B       		.uleb128 0x2b
 2296 0aee 22020000 		.4byte	.LASF180
 2297 0af2 01       		.byte	0x1
 2298 0af3 A7       		.byte	0xa7
 2299 0af4 25000000 		.4byte	0x25
 2300 0af8 CE000000 		.4byte	.LLST5
 2301 0afc 2C       		.uleb128 0x2c
 2302 0afd CD020000 		.4byte	.LASF187
 2303 0b01 01       		.byte	0x1
 2304 0b02 AA       		.byte	0xaa
 2305 0b03 560B0000 		.4byte	0xb56
 2306 0b07 05       		.uleb128 0x5
 2307 0b08 03       		.byte	0x3
 2308 0b09 00000000 		.4byte	fmt_P.9112
 2309 0b0d 2D       		.uleb128 0x2d
 2310 0b0e 0E000000 		.4byte	.LVL10
 2311 0b12 250A0000 		.4byte	0xa25
 2312 0b16 210B0000 		.4byte	0xb21
 2313 0b1a 2E       		.uleb128 0x2e
 2314 0b1b 01       		.uleb128 0x1
 2315 0b1c 50       		.byte	0x50
 2316 0b1d 02       		.uleb128 0x2
 2317 0b1e 74       		.byte	0x74
 2318 0b1f 00       		.sleb128 0
 2319 0b20 00       		.byte	0
 2320 0b21 2F       		.uleb128 0x2f
 2321 0b22 20000000 		.4byte	.LVL11
 2322 0b26 A60F0000 		.4byte	0xfa6
 2323 0b2a 2E       		.uleb128 0x2e
ARM GAS  C:\Users\jo\AppData\Local\Temp\ccN6q2EI.s 			page 46


 2324 0b2b 01       		.uleb128 0x1
 2325 0b2c 53       		.byte	0x53
 2326 0b2d 01       		.uleb128 0x1
 2327 0b2e 31       		.byte	0x31
 2328 0b2f 2E       		.uleb128 0x2e
 2329 0b30 01       		.uleb128 0x1
 2330 0b31 52       		.byte	0x52
 2331 0b32 01       		.uleb128 0x1
 2332 0b33 31       		.byte	0x31
 2333 0b34 2E       		.uleb128 0x2e
 2334 0b35 01       		.uleb128 0x1
 2335 0b36 51       		.byte	0x51
 2336 0b37 05       		.uleb128 0x5
 2337 0b38 03       		.byte	0x3
 2338 0b39 00000000 		.4byte	.LANCHOR1
 2339 0b3d 2E       		.uleb128 0x2e
 2340 0b3e 02       		.uleb128 0x2
 2341 0b3f 7D       		.byte	0x7d
 2342 0b40 00       		.sleb128 0
 2343 0b41 02       		.uleb128 0x2
 2344 0b42 74       		.byte	0x74
 2345 0b43 00       		.sleb128 0
 2346 0b44 00       		.byte	0
 2347 0b45 00       		.byte	0
 2348 0b46 08       		.uleb128 0x8
 2349 0b47 BC000000 		.4byte	0xbc
 2350 0b4b 560B0000 		.4byte	0xb56
 2351 0b4f 09       		.uleb128 0x9
 2352 0b50 AD000000 		.4byte	0xad
 2353 0b54 25       		.byte	0x25
 2354 0b55 00       		.byte	0
 2355 0b56 07       		.uleb128 0x7
 2356 0b57 460B0000 		.4byte	0xb46
 2357 0b5b 29       		.uleb128 0x29
 2358 0b5c 03030000 		.4byte	.LASF182
 2359 0b60 01       		.byte	0x1
 2360 0b61 C2       		.byte	0xc2
 2361 0b62 00000000 		.4byte	.LFB258
 2362 0b66 68000000 		.4byte	.LFE258-.LFB258
 2363 0b6a 01       		.uleb128 0x1
 2364 0b6b 9C       		.byte	0x9c
 2365 0b6c 2D0C0000 		.4byte	0xc2d
 2366 0b70 2A       		.uleb128 0x2a
 2367 0b71 687300   		.ascii	"hs\000"
 2368 0b74 01       		.byte	0x1
 2369 0b75 C2       		.byte	0xc2
 2370 0b76 EF090000 		.4byte	0x9ef
 2371 0b7a FA000000 		.4byte	.LLST6
 2372 0b7e 2B       		.uleb128 0x2b
 2373 0b7f CD000000 		.4byte	.LASF183
 2374 0b83 01       		.byte	0x1
 2375 0b84 C2       		.byte	0xc2
 2376 0b85 B6000000 		.4byte	0xb6
 2377 0b89 26010000 		.4byte	.LLST7
 2378 0b8d 2B       		.uleb128 0x2b
 2379 0b8e 68040000 		.4byte	.LASF184
 2380 0b92 01       		.byte	0x1
ARM GAS  C:\Users\jo\AppData\Local\Temp\ccN6q2EI.s 			page 47


 2381 0b93 C2       		.byte	0xc2
 2382 0b94 B6000000 		.4byte	0xb6
 2383 0b98 52010000 		.4byte	.LLST8
 2384 0b9c 2B       		.uleb128 0x2b
 2385 0b9d E9080000 		.4byte	.LASF185
 2386 0ba1 01       		.byte	0x1
 2387 0ba2 C2       		.byte	0xc2
 2388 0ba3 7B000000 		.4byte	0x7b
 2389 0ba7 7F010000 		.4byte	.LLST9
 2390 0bab 2D       		.uleb128 0x2d
 2391 0bac 26000000 		.4byte	.LVL18
 2392 0bb0 C10F0000 		.4byte	0xfc1
 2393 0bb4 E50B0000 		.4byte	0xbe5
 2394 0bb8 2E       		.uleb128 0x2e
 2395 0bb9 01       		.uleb128 0x1
 2396 0bba 53       		.byte	0x53
 2397 0bbb 03       		.uleb128 0x3
 2398 0bbc F3       		.byte	0xf3
 2399 0bbd 01       		.uleb128 0x1
 2400 0bbe 51       		.byte	0x51
 2401 0bbf 2E       		.uleb128 0x2e
 2402 0bc0 01       		.uleb128 0x1
 2403 0bc1 52       		.byte	0x52
 2404 0bc2 05       		.uleb128 0x5
 2405 0bc3 03       		.byte	0x3
 2406 0bc4 0C000000 		.4byte	.LC2
 2407 0bc8 2E       		.uleb128 0x2e
 2408 0bc9 02       		.uleb128 0x2
 2409 0bca 7D       		.byte	0x7d
 2410 0bcb 0C       		.sleb128 12
 2411 0bcc 01       		.uleb128 0x1
 2412 0bcd 30       		.byte	0x30
 2413 0bce 2E       		.uleb128 0x2e
 2414 0bcf 02       		.uleb128 0x2
 2415 0bd0 7D       		.byte	0x7d
 2416 0bd1 08       		.sleb128 8
 2417 0bd2 02       		.uleb128 0x2
 2418 0bd3 76       		.byte	0x76
 2419 0bd4 00       		.sleb128 0
 2420 0bd5 2E       		.uleb128 0x2e
 2421 0bd6 02       		.uleb128 0x2
 2422 0bd7 7D       		.byte	0x7d
 2423 0bd8 04       		.sleb128 4
 2424 0bd9 03       		.uleb128 0x3
 2425 0bda F3       		.byte	0xf3
 2426 0bdb 01       		.uleb128 0x1
 2427 0bdc 52       		.byte	0x52
 2428 0bdd 2E       		.uleb128 0x2e
 2429 0bde 02       		.uleb128 0x2
 2430 0bdf 7D       		.byte	0x7d
 2431 0be0 00       		.sleb128 0
 2432 0be1 02       		.uleb128 0x2
 2433 0be2 77       		.byte	0x77
 2434 0be3 00       		.sleb128 0
 2435 0be4 00       		.byte	0
 2436 0be5 2D       		.uleb128 0x2d
 2437 0be6 36000000 		.4byte	.LVL19
ARM GAS  C:\Users\jo\AppData\Local\Temp\ccN6q2EI.s 			page 48


 2438 0bea A60F0000 		.4byte	0xfa6
 2439 0bee 020C0000 		.4byte	0xc02
 2440 0bf2 2E       		.uleb128 0x2e
 2441 0bf3 01       		.uleb128 0x1
 2442 0bf4 53       		.byte	0x53
 2443 0bf5 02       		.uleb128 0x2
 2444 0bf6 75       		.byte	0x75
 2445 0bf7 00       		.sleb128 0
 2446 0bf8 2E       		.uleb128 0x2e
 2447 0bf9 01       		.uleb128 0x1
 2448 0bfa 51       		.byte	0x51
 2449 0bfb 05       		.uleb128 0x5
 2450 0bfc 03       		.byte	0x3
 2451 0bfd 18000000 		.4byte	.LC5
 2452 0c01 00       		.byte	0
 2453 0c02 2D       		.uleb128 0x2d
 2454 0c03 3E000000 		.4byte	.LVL20
 2455 0c07 D70F0000 		.4byte	0xfd7
 2456 0c0b 190C0000 		.4byte	0xc19
 2457 0c0f 2E       		.uleb128 0x2e
 2458 0c10 01       		.uleb128 0x1
 2459 0c11 50       		.byte	0x50
 2460 0c12 05       		.uleb128 0x5
 2461 0c13 03       		.byte	0x3
 2462 0c14 24000000 		.4byte	.LC6
 2463 0c18 00       		.byte	0
 2464 0c19 30       		.uleb128 0x30
 2465 0c1a 4C000000 		.4byte	.LVL22
 2466 0c1e D70F0000 		.4byte	0xfd7
 2467 0c22 2E       		.uleb128 0x2e
 2468 0c23 01       		.uleb128 0x1
 2469 0c24 50       		.byte	0x50
 2470 0c25 05       		.uleb128 0x5
 2471 0c26 03       		.byte	0x3
 2472 0c27 14000000 		.4byte	.LC4
 2473 0c2b 00       		.byte	0
 2474 0c2c 00       		.byte	0
 2475 0c2d 29       		.uleb128 0x29
 2476 0c2e 1A060000 		.4byte	.LASF186
 2477 0c32 01       		.byte	0x1
 2478 0c33 E9       		.byte	0xe9
 2479 0c34 00000000 		.4byte	.LFB259
 2480 0c38 70000000 		.4byte	.LFE259-.LFB259
 2481 0c3c 01       		.uleb128 0x1
 2482 0c3d 9C       		.byte	0x9c
 2483 0c3e 540D0000 		.4byte	0xd54
 2484 0c42 2A       		.uleb128 0x2a
 2485 0c43 687300   		.ascii	"hs\000"
 2486 0c46 01       		.byte	0x1
 2487 0c47 E9       		.byte	0xe9
 2488 0c48 EF090000 		.4byte	0x9ef
 2489 0c4c AB010000 		.4byte	.LLST10
 2490 0c50 2B       		.uleb128 0x2b
 2491 0c51 22020000 		.4byte	.LASF180
 2492 0c55 01       		.byte	0x1
 2493 0c56 E9       		.byte	0xe9
 2494 0c57 25000000 		.4byte	0x25
ARM GAS  C:\Users\jo\AppData\Local\Temp\ccN6q2EI.s 			page 49


 2495 0c5b E2010000 		.4byte	.LLST11
 2496 0c5f 2C       		.uleb128 0x2c
 2497 0c60 6B020000 		.4byte	.LASF188
 2498 0c64 01       		.byte	0x1
 2499 0c65 EB       		.byte	0xeb
 2500 0c66 640D0000 		.4byte	0xd64
 2501 0c6a 05       		.uleb128 0x5
 2502 0c6b 03       		.byte	0x3
 2503 0c6c 00000000 		.4byte	body.9123
 2504 0c70 31       		.uleb128 0x31
 2505 0c71 AF070000 		.4byte	.LASF189
 2506 0c75 01       		.byte	0x1
 2507 0c76 EC       		.byte	0xec
 2508 0c77 C3000000 		.4byte	0xc3
 2509 0c7b 19020000 		.4byte	.LLST12
 2510 0c7f 32       		.uleb128 0x32
 2511 0c80 52000000 		.4byte	.LBB13
 2512 0c84 1E000000 		.4byte	.LBE13-.LBB13
 2513 0c88 B10C0000 		.4byte	0xcb1
 2514 0c8c 2C       		.uleb128 0x2c
 2515 0c8d 45080000 		.4byte	.LASF190
 2516 0c91 01       		.byte	0x1
 2517 0c92 F6       		.byte	0xf6
 2518 0c93 790D0000 		.4byte	0xd79
 2519 0c97 05       		.uleb128 0x5
 2520 0c98 03       		.byte	0x3
 2521 0c99 00000000 		.4byte	auth_fmt_P.9125
 2522 0c9d 2F       		.uleb128 0x2f
 2523 0c9e 5C000000 		.4byte	.LVL34
 2524 0ca2 A60F0000 		.4byte	0xfa6
 2525 0ca6 2E       		.uleb128 0x2e
 2526 0ca7 01       		.uleb128 0x1
 2527 0ca8 51       		.byte	0x51
 2528 0ca9 05       		.uleb128 0x5
 2529 0caa 03       		.byte	0x3
 2530 0cab 00000000 		.4byte	.LANCHOR2
 2531 0caf 00       		.byte	0
 2532 0cb0 00       		.byte	0
 2533 0cb1 2D       		.uleb128 0x2d
 2534 0cb2 0E000000 		.4byte	.LVL25
 2535 0cb6 250A0000 		.4byte	0xa25
 2536 0cba C50C0000 		.4byte	0xcc5
 2537 0cbe 2E       		.uleb128 0x2e
 2538 0cbf 01       		.uleb128 0x1
 2539 0cc0 50       		.byte	0x50
 2540 0cc1 02       		.uleb128 0x2
 2541 0cc2 74       		.byte	0x74
 2542 0cc3 00       		.sleb128 0
 2543 0cc4 00       		.byte	0
 2544 0cc5 2D       		.uleb128 0x2d
 2545 0cc6 18000000 		.4byte	.LVL28
 2546 0cca CA0A0000 		.4byte	0xaca
 2547 0cce DF0C0000 		.4byte	0xcdf
 2548 0cd2 2E       		.uleb128 0x2e
 2549 0cd3 01       		.uleb128 0x1
 2550 0cd4 51       		.byte	0x51
 2551 0cd5 02       		.uleb128 0x2
ARM GAS  C:\Users\jo\AppData\Local\Temp\ccN6q2EI.s 			page 50


 2552 0cd6 74       		.byte	0x74
 2553 0cd7 00       		.sleb128 0
 2554 0cd8 2E       		.uleb128 0x2e
 2555 0cd9 01       		.uleb128 0x1
 2556 0cda 50       		.byte	0x50
 2557 0cdb 02       		.uleb128 0x2
 2558 0cdc 75       		.byte	0x75
 2559 0cdd 00       		.sleb128 0
 2560 0cde 00       		.byte	0
 2561 0cdf 2D       		.uleb128 0x2d
 2562 0ce0 26000000 		.4byte	.LVL29
 2563 0ce4 F10F0000 		.4byte	0xff1
 2564 0ce8 F30C0000 		.4byte	0xcf3
 2565 0cec 2E       		.uleb128 0x2e
 2566 0ced 01       		.uleb128 0x1
 2567 0cee 50       		.byte	0x50
 2568 0cef 02       		.uleb128 0x2
 2569 0cf0 76       		.byte	0x76
 2570 0cf1 00       		.sleb128 0
 2571 0cf2 00       		.byte	0
 2572 0cf3 2D       		.uleb128 0x2d
 2573 0cf4 36000000 		.4byte	.LVL30
 2574 0cf8 5B0B0000 		.4byte	0xb5b
 2575 0cfc 190D0000 		.4byte	0xd19
 2576 0d00 2E       		.uleb128 0x2e
 2577 0d01 01       		.uleb128 0x1
 2578 0d02 52       		.byte	0x52
 2579 0d03 05       		.uleb128 0x5
 2580 0d04 03       		.byte	0x3
 2581 0d05 40000000 		.4byte	.LC8
 2582 0d09 2E       		.uleb128 0x2e
 2583 0d0a 01       		.uleb128 0x1
 2584 0d0b 51       		.byte	0x51
 2585 0d0c 05       		.uleb128 0x5
 2586 0d0d 03       		.byte	0x3
 2587 0d0e 38000000 		.4byte	.LC7
 2588 0d12 2E       		.uleb128 0x2e
 2589 0d13 01       		.uleb128 0x1
 2590 0d14 50       		.byte	0x50
 2591 0d15 02       		.uleb128 0x2
 2592 0d16 75       		.byte	0x75
 2593 0d17 00       		.sleb128 0
 2594 0d18 00       		.byte	0
 2595 0d19 2D       		.uleb128 0x2d
 2596 0d1a 46000000 		.4byte	.LVL31
 2597 0d1e A60F0000 		.4byte	0xfa6
 2598 0d22 4A0D0000 		.4byte	0xd4a
 2599 0d26 2E       		.uleb128 0x2e
 2600 0d27 01       		.uleb128 0x1
 2601 0d28 53       		.byte	0x53
 2602 0d29 02       		.uleb128 0x2
 2603 0d2a 76       		.byte	0x76
 2604 0d2b 00       		.sleb128 0
 2605 0d2c 2E       		.uleb128 0x2e
 2606 0d2d 01       		.uleb128 0x1
 2607 0d2e 52       		.byte	0x52
 2608 0d2f 02       		.uleb128 0x2
ARM GAS  C:\Users\jo\AppData\Local\Temp\ccN6q2EI.s 			page 51


 2609 0d30 74       		.byte	0x74
 2610 0d31 00       		.sleb128 0
 2611 0d32 2E       		.uleb128 0x2e
 2612 0d33 01       		.uleb128 0x1
 2613 0d34 51       		.byte	0x51
 2614 0d35 05       		.uleb128 0x5
 2615 0d36 03       		.byte	0x3
 2616 0d37 00000000 		.4byte	.LANCHOR3
 2617 0d3b 2E       		.uleb128 0x2e
 2618 0d3c 02       		.uleb128 0x2
 2619 0d3d 7D       		.byte	0x7d
 2620 0d3e 04       		.sleb128 4
 2621 0d3f 02       		.uleb128 0x2
 2622 0d40 76       		.byte	0x76
 2623 0d41 00       		.sleb128 0
 2624 0d42 2E       		.uleb128 0x2e
 2625 0d43 02       		.uleb128 0x2
 2626 0d44 7D       		.byte	0x7d
 2627 0d45 00       		.sleb128 0
 2628 0d46 02       		.uleb128 0x2
 2629 0d47 74       		.byte	0x74
 2630 0d48 00       		.sleb128 0
 2631 0d49 00       		.byte	0
 2632 0d4a 33       		.uleb128 0x33
 2633 0d4b 52000000 		.4byte	.LVL33
 2634 0d4f 06100000 		.4byte	0x1006
 2635 0d53 00       		.byte	0
 2636 0d54 08       		.uleb128 0x8
 2637 0d55 BC000000 		.4byte	0xbc
 2638 0d59 640D0000 		.4byte	0xd64
 2639 0d5d 09       		.uleb128 0x9
 2640 0d5e AD000000 		.4byte	0xad
 2641 0d62 42       		.byte	0x42
 2642 0d63 00       		.byte	0
 2643 0d64 07       		.uleb128 0x7
 2644 0d65 540D0000 		.4byte	0xd54
 2645 0d69 08       		.uleb128 0x8
 2646 0d6a BC000000 		.4byte	0xbc
 2647 0d6e 790D0000 		.4byte	0xd79
 2648 0d72 09       		.uleb128 0x9
 2649 0d73 AD000000 		.4byte	0xad
 2650 0d77 24       		.byte	0x24
 2651 0d78 00       		.byte	0
 2652 0d79 07       		.uleb128 0x7
 2653 0d7a 690D0000 		.4byte	0xd69
 2654 0d7e 34       		.uleb128 0x34
 2655 0d7f 18090000 		.4byte	.LASF209
 2656 0d83 01       		.byte	0x1
 2657 0d84 0201     		.2byte	0x102
 2658 0d86 25000000 		.4byte	0x25
 2659 0d8a 00000000 		.4byte	.LFB260
 2660 0d8e CC000000 		.4byte	.LFE260-.LFB260
 2661 0d92 01       		.uleb128 0x1
 2662 0d93 9C       		.byte	0x9c
 2663 0d94 190F0000 		.4byte	0xf19
 2664 0d98 35       		.uleb128 0x35
 2665 0d99 687300   		.ascii	"hs\000"
ARM GAS  C:\Users\jo\AppData\Local\Temp\ccN6q2EI.s 			page 52


 2666 0d9c 01       		.byte	0x1
 2667 0d9d 0201     		.2byte	0x102
 2668 0d9f EF090000 		.4byte	0x9ef
 2669 0da3 42020000 		.4byte	.LLST13
 2670 0da7 36       		.uleb128 0x36
 2671 0da8 80080000 		.4byte	.LASF191
 2672 0dac 01       		.byte	0x1
 2673 0dad 0201     		.2byte	0x102
 2674 0daf 25000000 		.4byte	0x25
 2675 0db3 02       		.uleb128 0x2
 2676 0db4 91       		.byte	0x91
 2677 0db5 74       		.sleb128 -12
 2678 0db6 37       		.uleb128 0x37
 2679 0db7 38       		.uleb128 0x38
 2680 0db8 617000   		.ascii	"ap\000"
 2681 0dbb 01       		.byte	0x1
 2682 0dbc 0401     		.2byte	0x104
 2683 0dbe AD070000 		.4byte	0x7ad
 2684 0dc2 02       		.uleb128 0x2
 2685 0dc3 91       		.byte	0x91
 2686 0dc4 54       		.sleb128 -44
 2687 0dc5 39       		.uleb128 0x39
 2688 0dc6 6C656E00 		.ascii	"len\000"
 2689 0dca 01       		.byte	0x1
 2690 0dcb 0501     		.2byte	0x105
 2691 0dcd 25000000 		.4byte	0x25
 2692 0dd1 84020000 		.4byte	.LLST14
 2693 0dd5 39       		.uleb128 0x39
 2694 0dd6 637000   		.ascii	"cp\000"
 2695 0dd9 01       		.byte	0x1
 2696 0dda 0601     		.2byte	0x106
 2697 0ddc B6000000 		.4byte	0xb6
 2698 0de0 AF020000 		.4byte	.LLST15
 2699 0de4 39       		.uleb128 0x39
 2700 0de5 6C6F6300 		.ascii	"loc\000"
 2701 0de9 01       		.byte	0x1
 2702 0dea 0701     		.2byte	0x107
 2703 0dec B6000000 		.4byte	0xb6
 2704 0df0 EE020000 		.4byte	.LLST16
 2705 0df4 32       		.uleb128 0x32
 2706 0df5 3C000000 		.4byte	.LBB14
 2707 0df9 68000000 		.4byte	.LBE14-.LBB14
 2708 0dfd 060F0000 		.4byte	0xf06
 2709 0e01 3A       		.uleb128 0x3a
 2710 0e02 6B020000 		.4byte	.LASF188
 2711 0e06 01       		.byte	0x1
 2712 0e07 0E01     		.2byte	0x10e
 2713 0e09 290F0000 		.4byte	0xf29
 2714 0e0d 05       		.uleb128 0x5
 2715 0e0e 03       		.byte	0x3
 2716 0e0f 00000000 		.4byte	body.9137
 2717 0e13 39       		.uleb128 0x39
 2718 0e14 737000   		.ascii	"sp\000"
 2719 0e17 01       		.byte	0x1
 2720 0e18 1001     		.2byte	0x110
 2721 0e1a BD080000 		.4byte	0x8bd
 2722 0e1e 0C030000 		.4byte	.LLST17
ARM GAS  C:\Users\jo\AppData\Local\Temp\ccN6q2EI.s 			page 53


 2723 0e22 2D       		.uleb128 0x2d
 2724 0e23 48000000 		.4byte	.LVL44
 2725 0e27 CA0A0000 		.4byte	0xaca
 2726 0e2b 3D0E0000 		.4byte	0xe3d
 2727 0e2f 2E       		.uleb128 0x2e
 2728 0e30 01       		.uleb128 0x1
 2729 0e31 51       		.byte	0x51
 2730 0e32 03       		.uleb128 0x3
 2731 0e33 75       		.byte	0x75
 2732 0e34 7C       		.sleb128 -4
 2733 0e35 06       		.byte	0x6
 2734 0e36 2E       		.uleb128 0x2e
 2735 0e37 01       		.uleb128 0x1
 2736 0e38 50       		.byte	0x50
 2737 0e39 02       		.uleb128 0x2
 2738 0e3a 77       		.byte	0x77
 2739 0e3b 00       		.sleb128 0
 2740 0e3c 00       		.byte	0
 2741 0e3d 2D       		.uleb128 0x2d
 2742 0e3e 5C000000 		.4byte	.LVL46
 2743 0e42 1B100000 		.4byte	0x101b
 2744 0e46 510E0000 		.4byte	0xe51
 2745 0e4a 2E       		.uleb128 0x2e
 2746 0e4b 01       		.uleb128 0x1
 2747 0e4c 50       		.byte	0x50
 2748 0e4d 02       		.uleb128 0x2
 2749 0e4e 76       		.byte	0x76
 2750 0e4f 00       		.sleb128 0
 2751 0e50 00       		.byte	0
 2752 0e51 2D       		.uleb128 0x2d
 2753 0e52 7A000000 		.4byte	.LVL49
 2754 0e56 C10F0000 		.4byte	0xfc1
 2755 0e5a 840E0000 		.4byte	0xe84
 2756 0e5e 2E       		.uleb128 0x2e
 2757 0e5f 01       		.uleb128 0x1
 2758 0e60 53       		.byte	0x53
 2759 0e61 02       		.uleb128 0x2
 2760 0e62 76       		.byte	0x76
 2761 0e63 00       		.sleb128 0
 2762 0e64 2E       		.uleb128 0x2e
 2763 0e65 01       		.uleb128 0x1
 2764 0e66 52       		.byte	0x52
 2765 0e67 05       		.uleb128 0x5
 2766 0e68 03       		.byte	0x3
 2767 0e69 0C000000 		.4byte	.LC2
 2768 0e6d 2E       		.uleb128 0x2e
 2769 0e6e 01       		.uleb128 0x1
 2770 0e6f 50       		.byte	0x50
 2771 0e70 02       		.uleb128 0x2
 2772 0e71 78       		.byte	0x78
 2773 0e72 00       		.sleb128 0
 2774 0e73 2E       		.uleb128 0x2e
 2775 0e74 02       		.uleb128 0x2
 2776 0e75 7D       		.byte	0x7d
 2777 0e76 04       		.sleb128 4
 2778 0e77 01       		.uleb128 0x1
 2779 0e78 30       		.byte	0x30
ARM GAS  C:\Users\jo\AppData\Local\Temp\ccN6q2EI.s 			page 54


 2780 0e79 2E       		.uleb128 0x2e
 2781 0e7a 02       		.uleb128 0x2
 2782 0e7b 7D       		.byte	0x7d
 2783 0e7c 00       		.sleb128 0
 2784 0e7d 05       		.uleb128 0x5
 2785 0e7e 03       		.byte	0x3
 2786 0e7f 14000000 		.4byte	.LC4
 2787 0e83 00       		.byte	0
 2788 0e84 2D       		.uleb128 0x2d
 2789 0e85 80000000 		.4byte	.LVL50
 2790 0e89 F10F0000 		.4byte	0xff1
 2791 0e8d 980E0000 		.4byte	0xe98
 2792 0e91 2E       		.uleb128 0x2e
 2793 0e92 01       		.uleb128 0x1
 2794 0e93 50       		.byte	0x50
 2795 0e94 02       		.uleb128 0x2
 2796 0e95 76       		.byte	0x76
 2797 0e96 00       		.sleb128 0
 2798 0e97 00       		.byte	0
 2799 0e98 2D       		.uleb128 0x2d
 2800 0e99 8E000000 		.4byte	.LVL51
 2801 0e9d 5B0B0000 		.4byte	0xb5b
 2802 0ea1 BE0E0000 		.4byte	0xebe
 2803 0ea5 2E       		.uleb128 0x2e
 2804 0ea6 01       		.uleb128 0x1
 2805 0ea7 52       		.byte	0x52
 2806 0ea8 05       		.uleb128 0x5
 2807 0ea9 03       		.byte	0x3
 2808 0eaa 40000000 		.4byte	.LC8
 2809 0eae 2E       		.uleb128 0x2e
 2810 0eaf 01       		.uleb128 0x1
 2811 0eb0 51       		.byte	0x51
 2812 0eb1 05       		.uleb128 0x5
 2813 0eb2 03       		.byte	0x3
 2814 0eb3 38000000 		.4byte	.LC7
 2815 0eb7 2E       		.uleb128 0x2e
 2816 0eb8 01       		.uleb128 0x1
 2817 0eb9 50       		.byte	0x50
 2818 0eba 02       		.uleb128 0x2
 2819 0ebb 77       		.byte	0x77
 2820 0ebc 00       		.sleb128 0
 2821 0ebd 00       		.byte	0
 2822 0ebe 2D       		.uleb128 0x2d
 2823 0ebf 98000000 		.4byte	.LVL52
 2824 0ec3 A60F0000 		.4byte	0xfa6
 2825 0ec7 E10E0000 		.4byte	0xee1
 2826 0ecb 2E       		.uleb128 0x2e
 2827 0ecc 01       		.uleb128 0x1
 2828 0ecd 52       		.byte	0x52
 2829 0ece 02       		.uleb128 0x2
 2830 0ecf 76       		.byte	0x76
 2831 0ed0 00       		.sleb128 0
 2832 0ed1 2E       		.uleb128 0x2e
 2833 0ed2 01       		.uleb128 0x1
 2834 0ed3 51       		.byte	0x51
 2835 0ed4 05       		.uleb128 0x5
 2836 0ed5 03       		.byte	0x3
ARM GAS  C:\Users\jo\AppData\Local\Temp\ccN6q2EI.s 			page 55


 2837 0ed6 00000000 		.4byte	.LANCHOR4
 2838 0eda 2E       		.uleb128 0x2e
 2839 0edb 01       		.uleb128 0x1
 2840 0edc 50       		.byte	0x50
 2841 0edd 02       		.uleb128 0x2
 2842 0ede 78       		.byte	0x78
 2843 0edf 00       		.sleb128 0
 2844 0ee0 00       		.byte	0
 2845 0ee1 2D       		.uleb128 0x2d
 2846 0ee2 9E000000 		.4byte	.LVL53
 2847 0ee6 06100000 		.4byte	0x1006
 2848 0eea F50E0000 		.4byte	0xef5
 2849 0eee 2E       		.uleb128 0x2e
 2850 0eef 01       		.uleb128 0x1
 2851 0ef0 50       		.byte	0x50
 2852 0ef1 02       		.uleb128 0x2
 2853 0ef2 78       		.byte	0x78
 2854 0ef3 00       		.sleb128 0
 2855 0ef4 00       		.byte	0
 2856 0ef5 2F       		.uleb128 0x2f
 2857 0ef6 A4000000 		.4byte	.LVL54
 2858 0efa 35100000 		.4byte	0x1035
 2859 0efe 2E       		.uleb128 0x2e
 2860 0eff 01       		.uleb128 0x1
 2861 0f00 50       		.byte	0x50
 2862 0f01 02       		.uleb128 0x2
 2863 0f02 76       		.byte	0x76
 2864 0f03 00       		.sleb128 0
 2865 0f04 00       		.byte	0
 2866 0f05 00       		.byte	0
 2867 0f06 3B       		.uleb128 0x3b
 2868 0f07 24000000 		.4byte	.LVL38
 2869 0f0b F10F0000 		.4byte	0xff1
 2870 0f0f 3B       		.uleb128 0x3b
 2871 0f10 36000000 		.4byte	.LVL41
 2872 0f14 46100000 		.4byte	0x1046
 2873 0f18 00       		.byte	0
 2874 0f19 08       		.uleb128 0x8
 2875 0f1a BC000000 		.4byte	0xbc
 2876 0f1e 290F0000 		.4byte	0xf29
 2877 0f22 09       		.uleb128 0x9
 2878 0f23 AD000000 		.4byte	0xad
 2879 0f27 35       		.byte	0x35
 2880 0f28 00       		.byte	0
 2881 0f29 07       		.uleb128 0x7
 2882 0f2a 190F0000 		.4byte	0xf19
 2883 0f2e 08       		.uleb128 0x8
 2884 0f2f F5090000 		.4byte	0x9f5
 2885 0f33 3E0F0000 		.4byte	0xf3e
 2886 0f37 09       		.uleb128 0x9
 2887 0f38 AD000000 		.4byte	0xad
 2888 0f3c 42       		.byte	0x42
 2889 0f3d 00       		.byte	0
 2890 0f3e 2C       		.uleb128 0x2c
 2891 0f3f 30060000 		.4byte	.LASF192
 2892 0f43 01       		.byte	0x1
 2893 0f44 39       		.byte	0x39
ARM GAS  C:\Users\jo\AppData\Local\Temp\ccN6q2EI.s 			page 56


 2894 0f45 4F0F0000 		.4byte	0xf4f
 2895 0f49 05       		.uleb128 0x5
 2896 0f4a 03       		.byte	0x3
 2897 0f4b 00000000 		.4byte	response_list
 2898 0f4f 07       		.uleb128 0x7
 2899 0f50 2E0F0000 		.4byte	0xf2e
 2900 0f54 3C       		.uleb128 0x3c
 2901 0f55 88010000 		.4byte	.LASF193
 2902 0f59 16       		.byte	0x16
 2903 0f5a A706     		.2byte	0x6a7
 2904 0f5c 15010000 		.4byte	0x115
 2905 0f60 3D       		.uleb128 0x3d
 2906 0f61 636800   		.ascii	"ch\000"
 2907 0f64 07       		.byte	0x7
 2908 0f65 EB01     		.2byte	0x1eb
 2909 0f67 70040000 		.4byte	0x470
 2910 0f6b 08       		.uleb128 0x8
 2911 0f6c BC000000 		.4byte	0xbc
 2912 0f70 760F0000 		.4byte	0xf76
 2913 0f74 3E       		.uleb128 0x3e
 2914 0f75 00       		.byte	0
 2915 0f76 3F       		.uleb128 0x3f
 2916 0f77 84000000 		.4byte	.LASF194
 2917 0f7b 15       		.byte	0x15
 2918 0f7c B4       		.byte	0xb4
 2919 0f7d 810F0000 		.4byte	0xf81
 2920 0f81 07       		.uleb128 0x7
 2921 0f82 6B0F0000 		.4byte	0xf6b
 2922 0f86 3F       		.uleb128 0x3f
 2923 0f87 A4080000 		.4byte	.LASF195
 2924 0f8b 15       		.byte	0x15
 2925 0f8c BA       		.byte	0xba
 2926 0f8d 910F0000 		.4byte	0xf91
 2927 0f91 07       		.uleb128 0x7
 2928 0f92 6B0F0000 		.4byte	0xf6b
 2929 0f96 3F       		.uleb128 0x3f
 2930 0f97 C1000000 		.4byte	.LASF196
 2931 0f9b 15       		.byte	0x15
 2932 0f9c C0       		.byte	0xc0
 2933 0f9d A10F0000 		.4byte	0xfa1
 2934 0fa1 07       		.uleb128 0x7
 2935 0fa2 6B0F0000 		.4byte	0xf6b
 2936 0fa6 40       		.uleb128 0x40
 2937 0fa7 2B080000 		.4byte	.LASF198
 2938 0fab 14       		.byte	0x14
 2939 0fac C0       		.byte	0xc0
 2940 0fad 25000000 		.4byte	0x25
 2941 0fb1 C10F0000 		.4byte	0xfc1
 2942 0fb5 11       		.uleb128 0x11
 2943 0fb6 BD080000 		.4byte	0x8bd
 2944 0fba 11       		.uleb128 0x11
 2945 0fbb C3000000 		.4byte	0xc3
 2946 0fbf 37       		.uleb128 0x37
 2947 0fc0 00       		.byte	0
 2948 0fc1 40       		.uleb128 0x40
 2949 0fc2 52090000 		.4byte	.LASF199
 2950 0fc6 14       		.byte	0x14
ARM GAS  C:\Users\jo\AppData\Local\Temp\ccN6q2EI.s 			page 57


 2951 0fc7 B3       		.byte	0xb3
 2952 0fc8 25000000 		.4byte	0x25
 2953 0fcc D70F0000 		.4byte	0xfd7
 2954 0fd0 11       		.uleb128 0x11
 2955 0fd1 BD080000 		.4byte	0x8bd
 2956 0fd5 37       		.uleb128 0x37
 2957 0fd6 00       		.byte	0
 2958 0fd7 40       		.uleb128 0x40
 2959 0fd8 32070000 		.4byte	.LASF200
 2960 0fdc 14       		.byte	0x14
 2961 0fdd AA       		.byte	0xaa
 2962 0fde 25000000 		.4byte	0x25
 2963 0fe2 F10F0000 		.4byte	0xff1
 2964 0fe6 11       		.uleb128 0x11
 2965 0fe7 C3000000 		.4byte	0xc3
 2966 0feb 11       		.uleb128 0x11
 2967 0fec BD080000 		.4byte	0x8bd
 2968 0ff0 00       		.byte	0
 2969 0ff1 40       		.uleb128 0x40
 2970 0ff2 84030000 		.4byte	.LASF201
 2971 0ff6 17       		.byte	0x17
 2972 0ff7 21       		.byte	0x21
 2973 0ff8 2C000000 		.4byte	0x2c
 2974 0ffc 06100000 		.4byte	0x1006
 2975 1000 11       		.uleb128 0x11
 2976 1001 C3000000 		.4byte	0xc3
 2977 1005 00       		.byte	0
 2978 1006 40       		.uleb128 0x40
 2979 1007 63020000 		.4byte	.LASF202
 2980 100b 14       		.byte	0x14
 2981 100c CF       		.byte	0xcf
 2982 100d 25000000 		.4byte	0x25
 2983 1011 1B100000 		.4byte	0x101b
 2984 1015 11       		.uleb128 0x11
 2985 1016 BD080000 		.4byte	0x8bd
 2986 101a 00       		.byte	0
 2987 101b 40       		.uleb128 0x40
 2988 101c 48040000 		.4byte	.LASF203
 2989 1020 17       		.byte	0x17
 2990 1021 1A       		.byte	0x1a
 2991 1022 B6000000 		.4byte	0xb6
 2992 1026 35100000 		.4byte	0x1035
 2993 102a 11       		.uleb128 0x11
 2994 102b B6000000 		.4byte	0xb6
 2995 102f 11       		.uleb128 0x11
 2996 1030 C3000000 		.4byte	0xc3
 2997 1034 00       		.byte	0
 2998 1035 41       		.uleb128 0x41
 2999 1036 AD050000 		.4byte	.LASF204
 3000 103a 18       		.byte	0x18
 3001 103b 55       		.byte	0x55
 3002 103c 46100000 		.4byte	0x1046
 3003 1040 11       		.uleb128 0x11
 3004 1041 B4000000 		.4byte	0xb4
 3005 1045 00       		.byte	0
 3006 1046 42       		.uleb128 0x42
 3007 1047 2B070000 		.4byte	.LASF205
ARM GAS  C:\Users\jo\AppData\Local\Temp\ccN6q2EI.s 			page 58


 3008 104b 18       		.byte	0x18
 3009 104c 60       		.byte	0x60
 3010 104d B4000000 		.4byte	0xb4
 3011 1051 11       		.uleb128 0x11
 3012 1052 2C000000 		.4byte	0x2c
 3013 1056 00       		.byte	0
 3014 1057 00       		.byte	0
 3015              		.section	.debug_abbrev,"",%progbits
 3016              	.Ldebug_abbrev0:
 3017 0000 01       		.uleb128 0x1
 3018 0001 11       		.uleb128 0x11
 3019 0002 01       		.byte	0x1
 3020 0003 25       		.uleb128 0x25
 3021 0004 0E       		.uleb128 0xe
 3022 0005 13       		.uleb128 0x13
 3023 0006 0B       		.uleb128 0xb
 3024 0007 03       		.uleb128 0x3
 3025 0008 0E       		.uleb128 0xe
 3026 0009 1B       		.uleb128 0x1b
 3027 000a 0E       		.uleb128 0xe
 3028 000b 55       		.uleb128 0x55
 3029 000c 17       		.uleb128 0x17
 3030 000d 11       		.uleb128 0x11
 3031 000e 01       		.uleb128 0x1
 3032 000f 10       		.uleb128 0x10
 3033 0010 17       		.uleb128 0x17
 3034 0011 00       		.byte	0
 3035 0012 00       		.byte	0
 3036 0013 02       		.uleb128 0x2
 3037 0014 24       		.uleb128 0x24
 3038 0015 00       		.byte	0
 3039 0016 0B       		.uleb128 0xb
 3040 0017 0B       		.uleb128 0xb
 3041 0018 3E       		.uleb128 0x3e
 3042 0019 0B       		.uleb128 0xb
 3043 001a 03       		.uleb128 0x3
 3044 001b 08       		.uleb128 0x8
 3045 001c 00       		.byte	0
 3046 001d 00       		.byte	0
 3047 001e 03       		.uleb128 0x3
 3048 001f 16       		.uleb128 0x16
 3049 0020 00       		.byte	0
 3050 0021 03       		.uleb128 0x3
 3051 0022 0E       		.uleb128 0xe
 3052 0023 3A       		.uleb128 0x3a
 3053 0024 0B       		.uleb128 0xb
 3054 0025 3B       		.uleb128 0x3b
 3055 0026 0B       		.uleb128 0xb
 3056 0027 49       		.uleb128 0x49
 3057 0028 13       		.uleb128 0x13
 3058 0029 00       		.byte	0
 3059 002a 00       		.byte	0
 3060 002b 04       		.uleb128 0x4
 3061 002c 24       		.uleb128 0x24
 3062 002d 00       		.byte	0
 3063 002e 0B       		.uleb128 0xb
 3064 002f 0B       		.uleb128 0xb
ARM GAS  C:\Users\jo\AppData\Local\Temp\ccN6q2EI.s 			page 59


 3065 0030 3E       		.uleb128 0x3e
 3066 0031 0B       		.uleb128 0xb
 3067 0032 03       		.uleb128 0x3
 3068 0033 0E       		.uleb128 0xe
 3069 0034 00       		.byte	0
 3070 0035 00       		.byte	0
 3071 0036 05       		.uleb128 0x5
 3072 0037 0F       		.uleb128 0xf
 3073 0038 00       		.byte	0
 3074 0039 0B       		.uleb128 0xb
 3075 003a 0B       		.uleb128 0xb
 3076 003b 00       		.byte	0
 3077 003c 00       		.byte	0
 3078 003d 06       		.uleb128 0x6
 3079 003e 0F       		.uleb128 0xf
 3080 003f 00       		.byte	0
 3081 0040 0B       		.uleb128 0xb
 3082 0041 0B       		.uleb128 0xb
 3083 0042 49       		.uleb128 0x49
 3084 0043 13       		.uleb128 0x13
 3085 0044 00       		.byte	0
 3086 0045 00       		.byte	0
 3087 0046 07       		.uleb128 0x7
 3088 0047 26       		.uleb128 0x26
 3089 0048 00       		.byte	0
 3090 0049 49       		.uleb128 0x49
 3091 004a 13       		.uleb128 0x13
 3092 004b 00       		.byte	0
 3093 004c 00       		.byte	0
 3094 004d 08       		.uleb128 0x8
 3095 004e 01       		.uleb128 0x1
 3096 004f 01       		.byte	0x1
 3097 0050 49       		.uleb128 0x49
 3098 0051 13       		.uleb128 0x13
 3099 0052 01       		.uleb128 0x1
 3100 0053 13       		.uleb128 0x13
 3101 0054 00       		.byte	0
 3102 0055 00       		.byte	0
 3103 0056 09       		.uleb128 0x9
 3104 0057 21       		.uleb128 0x21
 3105 0058 00       		.byte	0
 3106 0059 49       		.uleb128 0x49
 3107 005a 13       		.uleb128 0x13
 3108 005b 2F       		.uleb128 0x2f
 3109 005c 0B       		.uleb128 0xb
 3110 005d 00       		.byte	0
 3111 005e 00       		.byte	0
 3112 005f 0A       		.uleb128 0xa
 3113 0060 35       		.uleb128 0x35
 3114 0061 00       		.byte	0
 3115 0062 49       		.uleb128 0x49
 3116 0063 13       		.uleb128 0x13
 3117 0064 00       		.byte	0
 3118 0065 00       		.byte	0
 3119 0066 0B       		.uleb128 0xb
 3120 0067 13       		.uleb128 0x13
 3121 0068 01       		.byte	0x1
ARM GAS  C:\Users\jo\AppData\Local\Temp\ccN6q2EI.s 			page 60


 3122 0069 03       		.uleb128 0x3
 3123 006a 0E       		.uleb128 0xe
 3124 006b 0B       		.uleb128 0xb
 3125 006c 0B       		.uleb128 0xb
 3126 006d 3A       		.uleb128 0x3a
 3127 006e 0B       		.uleb128 0xb
 3128 006f 3B       		.uleb128 0x3b
 3129 0070 0B       		.uleb128 0xb
 3130 0071 01       		.uleb128 0x1
 3131 0072 13       		.uleb128 0x13
 3132 0073 00       		.byte	0
 3133 0074 00       		.byte	0
 3134 0075 0C       		.uleb128 0xc
 3135 0076 0D       		.uleb128 0xd
 3136 0077 00       		.byte	0
 3137 0078 03       		.uleb128 0x3
 3138 0079 0E       		.uleb128 0xe
 3139 007a 3A       		.uleb128 0x3a
 3140 007b 0B       		.uleb128 0xb
 3141 007c 3B       		.uleb128 0x3b
 3142 007d 0B       		.uleb128 0xb
 3143 007e 49       		.uleb128 0x49
 3144 007f 13       		.uleb128 0x13
 3145 0080 38       		.uleb128 0x38
 3146 0081 0B       		.uleb128 0xb
 3147 0082 00       		.byte	0
 3148 0083 00       		.byte	0
 3149 0084 0D       		.uleb128 0xd
 3150 0085 0D       		.uleb128 0xd
 3151 0086 00       		.byte	0
 3152 0087 03       		.uleb128 0x3
 3153 0088 08       		.uleb128 0x8
 3154 0089 3A       		.uleb128 0x3a
 3155 008a 0B       		.uleb128 0xb
 3156 008b 3B       		.uleb128 0x3b
 3157 008c 05       		.uleb128 0x5
 3158 008d 49       		.uleb128 0x49
 3159 008e 13       		.uleb128 0x13
 3160 008f 38       		.uleb128 0x38
 3161 0090 0B       		.uleb128 0xb
 3162 0091 00       		.byte	0
 3163 0092 00       		.byte	0
 3164 0093 0E       		.uleb128 0xe
 3165 0094 0D       		.uleb128 0xd
 3166 0095 00       		.byte	0
 3167 0096 03       		.uleb128 0x3
 3168 0097 0E       		.uleb128 0xe
 3169 0098 3A       		.uleb128 0x3a
 3170 0099 0B       		.uleb128 0xb
 3171 009a 3B       		.uleb128 0x3b
 3172 009b 05       		.uleb128 0x5
 3173 009c 49       		.uleb128 0x49
 3174 009d 13       		.uleb128 0x13
 3175 009e 38       		.uleb128 0x38
 3176 009f 0B       		.uleb128 0xb
 3177 00a0 00       		.byte	0
 3178 00a1 00       		.byte	0
ARM GAS  C:\Users\jo\AppData\Local\Temp\ccN6q2EI.s 			page 61


 3179 00a2 0F       		.uleb128 0xf
 3180 00a3 13       		.uleb128 0x13
 3181 00a4 01       		.byte	0x1
 3182 00a5 03       		.uleb128 0x3
 3183 00a6 0E       		.uleb128 0xe
 3184 00a7 0B       		.uleb128 0xb
 3185 00a8 0B       		.uleb128 0xb
 3186 00a9 3A       		.uleb128 0x3a
 3187 00aa 0B       		.uleb128 0xb
 3188 00ab 3B       		.uleb128 0x3b
 3189 00ac 05       		.uleb128 0x5
 3190 00ad 01       		.uleb128 0x1
 3191 00ae 13       		.uleb128 0x13
 3192 00af 00       		.byte	0
 3193 00b0 00       		.byte	0
 3194 00b1 10       		.uleb128 0x10
 3195 00b2 15       		.uleb128 0x15
 3196 00b3 01       		.byte	0x1
 3197 00b4 27       		.uleb128 0x27
 3198 00b5 19       		.uleb128 0x19
 3199 00b6 01       		.uleb128 0x1
 3200 00b7 13       		.uleb128 0x13
 3201 00b8 00       		.byte	0
 3202 00b9 00       		.byte	0
 3203 00ba 11       		.uleb128 0x11
 3204 00bb 05       		.uleb128 0x5
 3205 00bc 00       		.byte	0
 3206 00bd 49       		.uleb128 0x49
 3207 00be 13       		.uleb128 0x13
 3208 00bf 00       		.byte	0
 3209 00c0 00       		.byte	0
 3210 00c1 12       		.uleb128 0x12
 3211 00c2 13       		.uleb128 0x13
 3212 00c3 01       		.byte	0x1
 3213 00c4 03       		.uleb128 0x3
 3214 00c5 0E       		.uleb128 0xe
 3215 00c6 0B       		.uleb128 0xb
 3216 00c7 05       		.uleb128 0x5
 3217 00c8 3A       		.uleb128 0x3a
 3218 00c9 0B       		.uleb128 0xb
 3219 00ca 3B       		.uleb128 0x3b
 3220 00cb 05       		.uleb128 0x5
 3221 00cc 01       		.uleb128 0x1
 3222 00cd 13       		.uleb128 0x13
 3223 00ce 00       		.byte	0
 3224 00cf 00       		.byte	0
 3225 00d0 13       		.uleb128 0x13
 3226 00d1 0D       		.uleb128 0xd
 3227 00d2 00       		.byte	0
 3228 00d3 03       		.uleb128 0x3
 3229 00d4 0E       		.uleb128 0xe
 3230 00d5 3A       		.uleb128 0x3a
 3231 00d6 0B       		.uleb128 0xb
 3232 00d7 3B       		.uleb128 0x3b
 3233 00d8 05       		.uleb128 0x5
 3234 00d9 49       		.uleb128 0x49
 3235 00da 13       		.uleb128 0x13
ARM GAS  C:\Users\jo\AppData\Local\Temp\ccN6q2EI.s 			page 62


 3236 00db 38       		.uleb128 0x38
 3237 00dc 05       		.uleb128 0x5
 3238 00dd 00       		.byte	0
 3239 00de 00       		.byte	0
 3240 00df 14       		.uleb128 0x14
 3241 00e0 0D       		.uleb128 0xd
 3242 00e1 00       		.byte	0
 3243 00e2 03       		.uleb128 0x3
 3244 00e3 08       		.uleb128 0x8
 3245 00e4 3A       		.uleb128 0x3a
 3246 00e5 0B       		.uleb128 0xb
 3247 00e6 3B       		.uleb128 0x3b
 3248 00e7 05       		.uleb128 0x5
 3249 00e8 49       		.uleb128 0x49
 3250 00e9 13       		.uleb128 0x13
 3251 00ea 38       		.uleb128 0x38
 3252 00eb 05       		.uleb128 0x5
 3253 00ec 00       		.byte	0
 3254 00ed 00       		.byte	0
 3255 00ee 15       		.uleb128 0x15
 3256 00ef 0D       		.uleb128 0xd
 3257 00f0 00       		.byte	0
 3258 00f1 03       		.uleb128 0x3
 3259 00f2 08       		.uleb128 0x8
 3260 00f3 3A       		.uleb128 0x3a
 3261 00f4 0B       		.uleb128 0xb
 3262 00f5 3B       		.uleb128 0x3b
 3263 00f6 0B       		.uleb128 0xb
 3264 00f7 49       		.uleb128 0x49
 3265 00f8 13       		.uleb128 0x13
 3266 00f9 38       		.uleb128 0x38
 3267 00fa 0B       		.uleb128 0xb
 3268 00fb 00       		.byte	0
 3269 00fc 00       		.byte	0
 3270 00fd 16       		.uleb128 0x16
 3271 00fe 0D       		.uleb128 0xd
 3272 00ff 00       		.byte	0
 3273 0100 03       		.uleb128 0x3
 3274 0101 0E       		.uleb128 0xe
 3275 0102 49       		.uleb128 0x49
 3276 0103 13       		.uleb128 0x13
 3277 0104 38       		.uleb128 0x38
 3278 0105 0B       		.uleb128 0xb
 3279 0106 34       		.uleb128 0x34
 3280 0107 19       		.uleb128 0x19
 3281 0108 00       		.byte	0
 3282 0109 00       		.byte	0
 3283 010a 17       		.uleb128 0x17
 3284 010b 13       		.uleb128 0x13
 3285 010c 01       		.byte	0x1
 3286 010d 0B       		.uleb128 0xb
 3287 010e 0B       		.uleb128 0xb
 3288 010f 3A       		.uleb128 0x3a
 3289 0110 0B       		.uleb128 0xb
 3290 0111 3B       		.uleb128 0x3b
 3291 0112 0B       		.uleb128 0xb
 3292 0113 01       		.uleb128 0x1
ARM GAS  C:\Users\jo\AppData\Local\Temp\ccN6q2EI.s 			page 63


 3293 0114 13       		.uleb128 0x13
 3294 0115 00       		.byte	0
 3295 0116 00       		.byte	0
 3296 0117 18       		.uleb128 0x18
 3297 0118 13       		.uleb128 0x13
 3298 0119 01       		.byte	0x1
 3299 011a 0B       		.uleb128 0xb
 3300 011b 05       		.uleb128 0x5
 3301 011c 3A       		.uleb128 0x3a
 3302 011d 0B       		.uleb128 0xb
 3303 011e 3B       		.uleb128 0x3b
 3304 011f 0B       		.uleb128 0xb
 3305 0120 01       		.uleb128 0x1
 3306 0121 13       		.uleb128 0x13
 3307 0122 00       		.byte	0
 3308 0123 00       		.byte	0
 3309 0124 19       		.uleb128 0x19
 3310 0125 17       		.uleb128 0x17
 3311 0126 01       		.byte	0x1
 3312 0127 0B       		.uleb128 0xb
 3313 0128 0B       		.uleb128 0xb
 3314 0129 3A       		.uleb128 0x3a
 3315 012a 0B       		.uleb128 0xb
 3316 012b 3B       		.uleb128 0x3b
 3317 012c 0B       		.uleb128 0xb
 3318 012d 01       		.uleb128 0x1
 3319 012e 13       		.uleb128 0x13
 3320 012f 00       		.byte	0
 3321 0130 00       		.byte	0
 3322 0131 1A       		.uleb128 0x1a
 3323 0132 0D       		.uleb128 0xd
 3324 0133 00       		.byte	0
 3325 0134 03       		.uleb128 0x3
 3326 0135 0E       		.uleb128 0xe
 3327 0136 3A       		.uleb128 0x3a
 3328 0137 0B       		.uleb128 0xb
 3329 0138 3B       		.uleb128 0x3b
 3330 0139 0B       		.uleb128 0xb
 3331 013a 49       		.uleb128 0x49
 3332 013b 13       		.uleb128 0x13
 3333 013c 00       		.byte	0
 3334 013d 00       		.byte	0
 3335 013e 1B       		.uleb128 0x1b
 3336 013f 0D       		.uleb128 0xd
 3337 0140 00       		.byte	0
 3338 0141 03       		.uleb128 0x3
 3339 0142 0E       		.uleb128 0xe
 3340 0143 3A       		.uleb128 0x3a
 3341 0144 0B       		.uleb128 0xb
 3342 0145 3B       		.uleb128 0x3b
 3343 0146 05       		.uleb128 0x5
 3344 0147 49       		.uleb128 0x49
 3345 0148 13       		.uleb128 0x13
 3346 0149 00       		.byte	0
 3347 014a 00       		.byte	0
 3348 014b 1C       		.uleb128 0x1c
 3349 014c 13       		.uleb128 0x13
ARM GAS  C:\Users\jo\AppData\Local\Temp\ccN6q2EI.s 			page 64


 3350 014d 01       		.byte	0x1
 3351 014e 03       		.uleb128 0x3
 3352 014f 0E       		.uleb128 0xe
 3353 0150 0B       		.uleb128 0xb
 3354 0151 05       		.uleb128 0x5
 3355 0152 3A       		.uleb128 0x3a
 3356 0153 0B       		.uleb128 0xb
 3357 0154 3B       		.uleb128 0x3b
 3358 0155 0B       		.uleb128 0xb
 3359 0156 01       		.uleb128 0x1
 3360 0157 13       		.uleb128 0x13
 3361 0158 00       		.byte	0
 3362 0159 00       		.byte	0
 3363 015a 1D       		.uleb128 0x1d
 3364 015b 0D       		.uleb128 0xd
 3365 015c 00       		.byte	0
 3366 015d 03       		.uleb128 0x3
 3367 015e 0E       		.uleb128 0xe
 3368 015f 3A       		.uleb128 0x3a
 3369 0160 0B       		.uleb128 0xb
 3370 0161 3B       		.uleb128 0x3b
 3371 0162 0B       		.uleb128 0xb
 3372 0163 49       		.uleb128 0x49
 3373 0164 13       		.uleb128 0x13
 3374 0165 38       		.uleb128 0x38
 3375 0166 05       		.uleb128 0x5
 3376 0167 00       		.byte	0
 3377 0168 00       		.byte	0
 3378 0169 1E       		.uleb128 0x1e
 3379 016a 21       		.uleb128 0x21
 3380 016b 00       		.byte	0
 3381 016c 49       		.uleb128 0x49
 3382 016d 13       		.uleb128 0x13
 3383 016e 2F       		.uleb128 0x2f
 3384 016f 05       		.uleb128 0x5
 3385 0170 00       		.byte	0
 3386 0171 00       		.byte	0
 3387 0172 1F       		.uleb128 0x1f
 3388 0173 2E       		.uleb128 0x2e
 3389 0174 01       		.byte	0x1
 3390 0175 3F       		.uleb128 0x3f
 3391 0176 19       		.uleb128 0x19
 3392 0177 03       		.uleb128 0x3
 3393 0178 0E       		.uleb128 0xe
 3394 0179 3A       		.uleb128 0x3a
 3395 017a 0B       		.uleb128 0xb
 3396 017b 3B       		.uleb128 0x3b
 3397 017c 0B       		.uleb128 0xb
 3398 017d 27       		.uleb128 0x27
 3399 017e 19       		.uleb128 0x19
 3400 017f 49       		.uleb128 0x49
 3401 0180 13       		.uleb128 0x13
 3402 0181 20       		.uleb128 0x20
 3403 0182 0B       		.uleb128 0xb
 3404 0183 01       		.uleb128 0x1
 3405 0184 13       		.uleb128 0x13
 3406 0185 00       		.byte	0
ARM GAS  C:\Users\jo\AppData\Local\Temp\ccN6q2EI.s 			page 65


 3407 0186 00       		.byte	0
 3408 0187 20       		.uleb128 0x20
 3409 0188 05       		.uleb128 0x5
 3410 0189 00       		.byte	0
 3411 018a 03       		.uleb128 0x3
 3412 018b 0E       		.uleb128 0xe
 3413 018c 3A       		.uleb128 0x3a
 3414 018d 0B       		.uleb128 0xb
 3415 018e 3B       		.uleb128 0x3b
 3416 018f 0B       		.uleb128 0xb
 3417 0190 49       		.uleb128 0x49
 3418 0191 13       		.uleb128 0x13
 3419 0192 00       		.byte	0
 3420 0193 00       		.byte	0
 3421 0194 21       		.uleb128 0x21
 3422 0195 34       		.uleb128 0x34
 3423 0196 00       		.byte	0
 3424 0197 03       		.uleb128 0x3
 3425 0198 08       		.uleb128 0x8
 3426 0199 3A       		.uleb128 0x3a
 3427 019a 0B       		.uleb128 0xb
 3428 019b 3B       		.uleb128 0x3b
 3429 019c 0B       		.uleb128 0xb
 3430 019d 49       		.uleb128 0x49
 3431 019e 13       		.uleb128 0x13
 3432 019f 00       		.byte	0
 3433 01a0 00       		.byte	0
 3434 01a1 22       		.uleb128 0x22
 3435 01a2 0B       		.uleb128 0xb
 3436 01a3 01       		.byte	0x1
 3437 01a4 00       		.byte	0
 3438 01a5 00       		.byte	0
 3439 01a6 23       		.uleb128 0x23
 3440 01a7 34       		.uleb128 0x34
 3441 01a8 00       		.byte	0
 3442 01a9 03       		.uleb128 0x3
 3443 01aa 0E       		.uleb128 0xe
 3444 01ab 3A       		.uleb128 0x3a
 3445 01ac 0B       		.uleb128 0xb
 3446 01ad 3B       		.uleb128 0x3b
 3447 01ae 0B       		.uleb128 0xb
 3448 01af 49       		.uleb128 0x49
 3449 01b0 13       		.uleb128 0x13
 3450 01b1 00       		.byte	0
 3451 01b2 00       		.byte	0
 3452 01b3 24       		.uleb128 0x24
 3453 01b4 2E       		.uleb128 0x2e
 3454 01b5 01       		.byte	0x1
 3455 01b6 31       		.uleb128 0x31
 3456 01b7 13       		.uleb128 0x13
 3457 01b8 11       		.uleb128 0x11
 3458 01b9 01       		.uleb128 0x1
 3459 01ba 12       		.uleb128 0x12
 3460 01bb 06       		.uleb128 0x6
 3461 01bc 40       		.uleb128 0x40
 3462 01bd 18       		.uleb128 0x18
 3463 01be 9742     		.uleb128 0x2117
ARM GAS  C:\Users\jo\AppData\Local\Temp\ccN6q2EI.s 			page 66


 3464 01c0 19       		.uleb128 0x19
 3465 01c1 01       		.uleb128 0x1
 3466 01c2 13       		.uleb128 0x13
 3467 01c3 00       		.byte	0
 3468 01c4 00       		.byte	0
 3469 01c5 25       		.uleb128 0x25
 3470 01c6 05       		.uleb128 0x5
 3471 01c7 00       		.byte	0
 3472 01c8 31       		.uleb128 0x31
 3473 01c9 13       		.uleb128 0x13
 3474 01ca 02       		.uleb128 0x2
 3475 01cb 17       		.uleb128 0x17
 3476 01cc 00       		.byte	0
 3477 01cd 00       		.byte	0
 3478 01ce 26       		.uleb128 0x26
 3479 01cf 34       		.uleb128 0x34
 3480 01d0 00       		.byte	0
 3481 01d1 31       		.uleb128 0x31
 3482 01d2 13       		.uleb128 0x13
 3483 01d3 02       		.uleb128 0x2
 3484 01d4 17       		.uleb128 0x17
 3485 01d5 00       		.byte	0
 3486 01d6 00       		.byte	0
 3487 01d7 27       		.uleb128 0x27
 3488 01d8 0B       		.uleb128 0xb
 3489 01d9 01       		.byte	0x1
 3490 01da 55       		.uleb128 0x55
 3491 01db 17       		.uleb128 0x17
 3492 01dc 00       		.byte	0
 3493 01dd 00       		.byte	0
 3494 01de 28       		.uleb128 0x28
 3495 01df 34       		.uleb128 0x34
 3496 01e0 00       		.byte	0
 3497 01e1 31       		.uleb128 0x31
 3498 01e2 13       		.uleb128 0x13
 3499 01e3 00       		.byte	0
 3500 01e4 00       		.byte	0
 3501 01e5 29       		.uleb128 0x29
 3502 01e6 2E       		.uleb128 0x2e
 3503 01e7 01       		.byte	0x1
 3504 01e8 3F       		.uleb128 0x3f
 3505 01e9 19       		.uleb128 0x19
 3506 01ea 03       		.uleb128 0x3
 3507 01eb 0E       		.uleb128 0xe
 3508 01ec 3A       		.uleb128 0x3a
 3509 01ed 0B       		.uleb128 0xb
 3510 01ee 3B       		.uleb128 0x3b
 3511 01ef 0B       		.uleb128 0xb
 3512 01f0 27       		.uleb128 0x27
 3513 01f1 19       		.uleb128 0x19
 3514 01f2 11       		.uleb128 0x11
 3515 01f3 01       		.uleb128 0x1
 3516 01f4 12       		.uleb128 0x12
 3517 01f5 06       		.uleb128 0x6
 3518 01f6 40       		.uleb128 0x40
 3519 01f7 18       		.uleb128 0x18
 3520 01f8 9742     		.uleb128 0x2117
ARM GAS  C:\Users\jo\AppData\Local\Temp\ccN6q2EI.s 			page 67


 3521 01fa 19       		.uleb128 0x19
 3522 01fb 01       		.uleb128 0x1
 3523 01fc 13       		.uleb128 0x13
 3524 01fd 00       		.byte	0
 3525 01fe 00       		.byte	0
 3526 01ff 2A       		.uleb128 0x2a
 3527 0200 05       		.uleb128 0x5
 3528 0201 00       		.byte	0
 3529 0202 03       		.uleb128 0x3
 3530 0203 08       		.uleb128 0x8
 3531 0204 3A       		.uleb128 0x3a
 3532 0205 0B       		.uleb128 0xb
 3533 0206 3B       		.uleb128 0x3b
 3534 0207 0B       		.uleb128 0xb
 3535 0208 49       		.uleb128 0x49
 3536 0209 13       		.uleb128 0x13
 3537 020a 02       		.uleb128 0x2
 3538 020b 17       		.uleb128 0x17
 3539 020c 00       		.byte	0
 3540 020d 00       		.byte	0
 3541 020e 2B       		.uleb128 0x2b
 3542 020f 05       		.uleb128 0x5
 3543 0210 00       		.byte	0
 3544 0211 03       		.uleb128 0x3
 3545 0212 0E       		.uleb128 0xe
 3546 0213 3A       		.uleb128 0x3a
 3547 0214 0B       		.uleb128 0xb
 3548 0215 3B       		.uleb128 0x3b
 3549 0216 0B       		.uleb128 0xb
 3550 0217 49       		.uleb128 0x49
 3551 0218 13       		.uleb128 0x13
 3552 0219 02       		.uleb128 0x2
 3553 021a 17       		.uleb128 0x17
 3554 021b 00       		.byte	0
 3555 021c 00       		.byte	0
 3556 021d 2C       		.uleb128 0x2c
 3557 021e 34       		.uleb128 0x34
 3558 021f 00       		.byte	0
 3559 0220 03       		.uleb128 0x3
 3560 0221 0E       		.uleb128 0xe
 3561 0222 3A       		.uleb128 0x3a
 3562 0223 0B       		.uleb128 0xb
 3563 0224 3B       		.uleb128 0x3b
 3564 0225 0B       		.uleb128 0xb
 3565 0226 49       		.uleb128 0x49
 3566 0227 13       		.uleb128 0x13
 3567 0228 02       		.uleb128 0x2
 3568 0229 18       		.uleb128 0x18
 3569 022a 00       		.byte	0
 3570 022b 00       		.byte	0
 3571 022c 2D       		.uleb128 0x2d
 3572 022d 898201   		.uleb128 0x4109
 3573 0230 01       		.byte	0x1
 3574 0231 11       		.uleb128 0x11
 3575 0232 01       		.uleb128 0x1
 3576 0233 31       		.uleb128 0x31
 3577 0234 13       		.uleb128 0x13
ARM GAS  C:\Users\jo\AppData\Local\Temp\ccN6q2EI.s 			page 68


 3578 0235 01       		.uleb128 0x1
 3579 0236 13       		.uleb128 0x13
 3580 0237 00       		.byte	0
 3581 0238 00       		.byte	0
 3582 0239 2E       		.uleb128 0x2e
 3583 023a 8A8201   		.uleb128 0x410a
 3584 023d 00       		.byte	0
 3585 023e 02       		.uleb128 0x2
 3586 023f 18       		.uleb128 0x18
 3587 0240 9142     		.uleb128 0x2111
 3588 0242 18       		.uleb128 0x18
 3589 0243 00       		.byte	0
 3590 0244 00       		.byte	0
 3591 0245 2F       		.uleb128 0x2f
 3592 0246 898201   		.uleb128 0x4109
 3593 0249 01       		.byte	0x1
 3594 024a 11       		.uleb128 0x11
 3595 024b 01       		.uleb128 0x1
 3596 024c 31       		.uleb128 0x31
 3597 024d 13       		.uleb128 0x13
 3598 024e 00       		.byte	0
 3599 024f 00       		.byte	0
 3600 0250 30       		.uleb128 0x30
 3601 0251 898201   		.uleb128 0x4109
 3602 0254 01       		.byte	0x1
 3603 0255 11       		.uleb128 0x11
 3604 0256 01       		.uleb128 0x1
 3605 0257 9542     		.uleb128 0x2115
 3606 0259 19       		.uleb128 0x19
 3607 025a 31       		.uleb128 0x31
 3608 025b 13       		.uleb128 0x13
 3609 025c 00       		.byte	0
 3610 025d 00       		.byte	0
 3611 025e 31       		.uleb128 0x31
 3612 025f 34       		.uleb128 0x34
 3613 0260 00       		.byte	0
 3614 0261 03       		.uleb128 0x3
 3615 0262 0E       		.uleb128 0xe
 3616 0263 3A       		.uleb128 0x3a
 3617 0264 0B       		.uleb128 0xb
 3618 0265 3B       		.uleb128 0x3b
 3619 0266 0B       		.uleb128 0xb
 3620 0267 49       		.uleb128 0x49
 3621 0268 13       		.uleb128 0x13
 3622 0269 02       		.uleb128 0x2
 3623 026a 17       		.uleb128 0x17
 3624 026b 00       		.byte	0
 3625 026c 00       		.byte	0
 3626 026d 32       		.uleb128 0x32
 3627 026e 0B       		.uleb128 0xb
 3628 026f 01       		.byte	0x1
 3629 0270 11       		.uleb128 0x11
 3630 0271 01       		.uleb128 0x1
 3631 0272 12       		.uleb128 0x12
 3632 0273 06       		.uleb128 0x6
 3633 0274 01       		.uleb128 0x1
 3634 0275 13       		.uleb128 0x13
ARM GAS  C:\Users\jo\AppData\Local\Temp\ccN6q2EI.s 			page 69


 3635 0276 00       		.byte	0
 3636 0277 00       		.byte	0
 3637 0278 33       		.uleb128 0x33
 3638 0279 898201   		.uleb128 0x4109
 3639 027c 00       		.byte	0
 3640 027d 11       		.uleb128 0x11
 3641 027e 01       		.uleb128 0x1
 3642 027f 9542     		.uleb128 0x2115
 3643 0281 19       		.uleb128 0x19
 3644 0282 31       		.uleb128 0x31
 3645 0283 13       		.uleb128 0x13
 3646 0284 00       		.byte	0
 3647 0285 00       		.byte	0
 3648 0286 34       		.uleb128 0x34
 3649 0287 2E       		.uleb128 0x2e
 3650 0288 01       		.byte	0x1
 3651 0289 3F       		.uleb128 0x3f
 3652 028a 19       		.uleb128 0x19
 3653 028b 03       		.uleb128 0x3
 3654 028c 0E       		.uleb128 0xe
 3655 028d 3A       		.uleb128 0x3a
 3656 028e 0B       		.uleb128 0xb
 3657 028f 3B       		.uleb128 0x3b
 3658 0290 05       		.uleb128 0x5
 3659 0291 27       		.uleb128 0x27
 3660 0292 19       		.uleb128 0x19
 3661 0293 49       		.uleb128 0x49
 3662 0294 13       		.uleb128 0x13
 3663 0295 11       		.uleb128 0x11
 3664 0296 01       		.uleb128 0x1
 3665 0297 12       		.uleb128 0x12
 3666 0298 06       		.uleb128 0x6
 3667 0299 40       		.uleb128 0x40
 3668 029a 18       		.uleb128 0x18
 3669 029b 9742     		.uleb128 0x2117
 3670 029d 19       		.uleb128 0x19
 3671 029e 01       		.uleb128 0x1
 3672 029f 13       		.uleb128 0x13
 3673 02a0 00       		.byte	0
 3674 02a1 00       		.byte	0
 3675 02a2 35       		.uleb128 0x35
 3676 02a3 05       		.uleb128 0x5
 3677 02a4 00       		.byte	0
 3678 02a5 03       		.uleb128 0x3
 3679 02a6 08       		.uleb128 0x8
 3680 02a7 3A       		.uleb128 0x3a
 3681 02a8 0B       		.uleb128 0xb
 3682 02a9 3B       		.uleb128 0x3b
 3683 02aa 05       		.uleb128 0x5
 3684 02ab 49       		.uleb128 0x49
 3685 02ac 13       		.uleb128 0x13
 3686 02ad 02       		.uleb128 0x2
 3687 02ae 17       		.uleb128 0x17
 3688 02af 00       		.byte	0
 3689 02b0 00       		.byte	0
 3690 02b1 36       		.uleb128 0x36
 3691 02b2 05       		.uleb128 0x5
ARM GAS  C:\Users\jo\AppData\Local\Temp\ccN6q2EI.s 			page 70


 3692 02b3 00       		.byte	0
 3693 02b4 03       		.uleb128 0x3
 3694 02b5 0E       		.uleb128 0xe
 3695 02b6 3A       		.uleb128 0x3a
 3696 02b7 0B       		.uleb128 0xb
 3697 02b8 3B       		.uleb128 0x3b
 3698 02b9 05       		.uleb128 0x5
 3699 02ba 49       		.uleb128 0x49
 3700 02bb 13       		.uleb128 0x13
 3701 02bc 02       		.uleb128 0x2
 3702 02bd 18       		.uleb128 0x18
 3703 02be 00       		.byte	0
 3704 02bf 00       		.byte	0
 3705 02c0 37       		.uleb128 0x37
 3706 02c1 18       		.uleb128 0x18
 3707 02c2 00       		.byte	0
 3708 02c3 00       		.byte	0
 3709 02c4 00       		.byte	0
 3710 02c5 38       		.uleb128 0x38
 3711 02c6 34       		.uleb128 0x34
 3712 02c7 00       		.byte	0
 3713 02c8 03       		.uleb128 0x3
 3714 02c9 08       		.uleb128 0x8
 3715 02ca 3A       		.uleb128 0x3a
 3716 02cb 0B       		.uleb128 0xb
 3717 02cc 3B       		.uleb128 0x3b
 3718 02cd 05       		.uleb128 0x5
 3719 02ce 49       		.uleb128 0x49
 3720 02cf 13       		.uleb128 0x13
 3721 02d0 02       		.uleb128 0x2
 3722 02d1 18       		.uleb128 0x18
 3723 02d2 00       		.byte	0
 3724 02d3 00       		.byte	0
 3725 02d4 39       		.uleb128 0x39
 3726 02d5 34       		.uleb128 0x34
 3727 02d6 00       		.byte	0
 3728 02d7 03       		.uleb128 0x3
 3729 02d8 08       		.uleb128 0x8
 3730 02d9 3A       		.uleb128 0x3a
 3731 02da 0B       		.uleb128 0xb
 3732 02db 3B       		.uleb128 0x3b
 3733 02dc 05       		.uleb128 0x5
 3734 02dd 49       		.uleb128 0x49
 3735 02de 13       		.uleb128 0x13
 3736 02df 02       		.uleb128 0x2
 3737 02e0 17       		.uleb128 0x17
 3738 02e1 00       		.byte	0
 3739 02e2 00       		.byte	0
 3740 02e3 3A       		.uleb128 0x3a
 3741 02e4 34       		.uleb128 0x34
 3742 02e5 00       		.byte	0
 3743 02e6 03       		.uleb128 0x3
 3744 02e7 0E       		.uleb128 0xe
 3745 02e8 3A       		.uleb128 0x3a
 3746 02e9 0B       		.uleb128 0xb
 3747 02ea 3B       		.uleb128 0x3b
 3748 02eb 05       		.uleb128 0x5
ARM GAS  C:\Users\jo\AppData\Local\Temp\ccN6q2EI.s 			page 71


 3749 02ec 49       		.uleb128 0x49
 3750 02ed 13       		.uleb128 0x13
 3751 02ee 02       		.uleb128 0x2
 3752 02ef 18       		.uleb128 0x18
 3753 02f0 00       		.byte	0
 3754 02f1 00       		.byte	0
 3755 02f2 3B       		.uleb128 0x3b
 3756 02f3 898201   		.uleb128 0x4109
 3757 02f6 00       		.byte	0
 3758 02f7 11       		.uleb128 0x11
 3759 02f8 01       		.uleb128 0x1
 3760 02f9 31       		.uleb128 0x31
 3761 02fa 13       		.uleb128 0x13
 3762 02fb 00       		.byte	0
 3763 02fc 00       		.byte	0
 3764 02fd 3C       		.uleb128 0x3c
 3765 02fe 34       		.uleb128 0x34
 3766 02ff 00       		.byte	0
 3767 0300 03       		.uleb128 0x3
 3768 0301 0E       		.uleb128 0xe
 3769 0302 3A       		.uleb128 0x3a
 3770 0303 0B       		.uleb128 0xb
 3771 0304 3B       		.uleb128 0x3b
 3772 0305 05       		.uleb128 0x5
 3773 0306 49       		.uleb128 0x49
 3774 0307 13       		.uleb128 0x13
 3775 0308 3F       		.uleb128 0x3f
 3776 0309 19       		.uleb128 0x19
 3777 030a 3C       		.uleb128 0x3c
 3778 030b 19       		.uleb128 0x19
 3779 030c 00       		.byte	0
 3780 030d 00       		.byte	0
 3781 030e 3D       		.uleb128 0x3d
 3782 030f 34       		.uleb128 0x34
 3783 0310 00       		.byte	0
 3784 0311 03       		.uleb128 0x3
 3785 0312 08       		.uleb128 0x8
 3786 0313 3A       		.uleb128 0x3a
 3787 0314 0B       		.uleb128 0xb
 3788 0315 3B       		.uleb128 0x3b
 3789 0316 05       		.uleb128 0x5
 3790 0317 49       		.uleb128 0x49
 3791 0318 13       		.uleb128 0x13
 3792 0319 3F       		.uleb128 0x3f
 3793 031a 19       		.uleb128 0x19
 3794 031b 3C       		.uleb128 0x3c
 3795 031c 19       		.uleb128 0x19
 3796 031d 00       		.byte	0
 3797 031e 00       		.byte	0
 3798 031f 3E       		.uleb128 0x3e
 3799 0320 21       		.uleb128 0x21
 3800 0321 00       		.byte	0
 3801 0322 00       		.byte	0
 3802 0323 00       		.byte	0
 3803 0324 3F       		.uleb128 0x3f
 3804 0325 34       		.uleb128 0x34
 3805 0326 00       		.byte	0
ARM GAS  C:\Users\jo\AppData\Local\Temp\ccN6q2EI.s 			page 72


 3806 0327 03       		.uleb128 0x3
 3807 0328 0E       		.uleb128 0xe
 3808 0329 3A       		.uleb128 0x3a
 3809 032a 0B       		.uleb128 0xb
 3810 032b 3B       		.uleb128 0x3b
 3811 032c 0B       		.uleb128 0xb
 3812 032d 49       		.uleb128 0x49
 3813 032e 13       		.uleb128 0x13
 3814 032f 3F       		.uleb128 0x3f
 3815 0330 19       		.uleb128 0x19
 3816 0331 3C       		.uleb128 0x3c
 3817 0332 19       		.uleb128 0x19
 3818 0333 00       		.byte	0
 3819 0334 00       		.byte	0
 3820 0335 40       		.uleb128 0x40
 3821 0336 2E       		.uleb128 0x2e
 3822 0337 01       		.byte	0x1
 3823 0338 3F       		.uleb128 0x3f
 3824 0339 19       		.uleb128 0x19
 3825 033a 03       		.uleb128 0x3
 3826 033b 0E       		.uleb128 0xe
 3827 033c 3A       		.uleb128 0x3a
 3828 033d 0B       		.uleb128 0xb
 3829 033e 3B       		.uleb128 0x3b
 3830 033f 0B       		.uleb128 0xb
 3831 0340 27       		.uleb128 0x27
 3832 0341 19       		.uleb128 0x19
 3833 0342 49       		.uleb128 0x49
 3834 0343 13       		.uleb128 0x13
 3835 0344 3C       		.uleb128 0x3c
 3836 0345 19       		.uleb128 0x19
 3837 0346 01       		.uleb128 0x1
 3838 0347 13       		.uleb128 0x13
 3839 0348 00       		.byte	0
 3840 0349 00       		.byte	0
 3841 034a 41       		.uleb128 0x41
 3842 034b 2E       		.uleb128 0x2e
 3843 034c 01       		.byte	0x1
 3844 034d 3F       		.uleb128 0x3f
 3845 034e 19       		.uleb128 0x19
 3846 034f 03       		.uleb128 0x3
 3847 0350 0E       		.uleb128 0xe
 3848 0351 3A       		.uleb128 0x3a
 3849 0352 0B       		.uleb128 0xb
 3850 0353 3B       		.uleb128 0x3b
 3851 0354 0B       		.uleb128 0xb
 3852 0355 27       		.uleb128 0x27
 3853 0356 19       		.uleb128 0x19
 3854 0357 3C       		.uleb128 0x3c
 3855 0358 19       		.uleb128 0x19
 3856 0359 01       		.uleb128 0x1
 3857 035a 13       		.uleb128 0x13
 3858 035b 00       		.byte	0
 3859 035c 00       		.byte	0
 3860 035d 42       		.uleb128 0x42
 3861 035e 2E       		.uleb128 0x2e
 3862 035f 01       		.byte	0x1
ARM GAS  C:\Users\jo\AppData\Local\Temp\ccN6q2EI.s 			page 73


 3863 0360 3F       		.uleb128 0x3f
 3864 0361 19       		.uleb128 0x19
 3865 0362 03       		.uleb128 0x3
 3866 0363 0E       		.uleb128 0xe
 3867 0364 3A       		.uleb128 0x3a
 3868 0365 0B       		.uleb128 0xb
 3869 0366 3B       		.uleb128 0x3b
 3870 0367 0B       		.uleb128 0xb
 3871 0368 27       		.uleb128 0x27
 3872 0369 19       		.uleb128 0x19
 3873 036a 49       		.uleb128 0x49
 3874 036b 13       		.uleb128 0x13
 3875 036c 3C       		.uleb128 0x3c
 3876 036d 19       		.uleb128 0x19
 3877 036e 00       		.byte	0
 3878 036f 00       		.byte	0
 3879 0370 00       		.byte	0
 3880              		.section	.debug_loc,"",%progbits
 3881              	.Ldebug_loc0:
 3882              	.LLST0:
 3883 0000 00000000 		.4byte	.LVL0
 3884 0004 0A000000 		.4byte	.LVL1
 3885 0008 0100     		.2byte	0x1
 3886 000a 50       		.byte	0x50
 3887 000b 0A000000 		.4byte	.LVL1
 3888 000f 4C000000 		.4byte	.LFE256
 3889 0013 0100     		.2byte	0x1
 3890 0015 51       		.byte	0x51
 3891 0016 00000000 		.4byte	0
 3892 001a 00000000 		.4byte	0
 3893              	.LLST1:
 3894 001e 00000000 		.4byte	.LVL0
 3895 0022 22000000 		.4byte	.LVL4
 3896 0026 0200     		.2byte	0x2
 3897 0028 30       		.byte	0x30
 3898 0029 9F       		.byte	0x9f
 3899 002a 32000000 		.4byte	.LVL6
 3900 002e 36000000 		.4byte	.LVL7
 3901 0032 0200     		.2byte	0x2
 3902 0034 30       		.byte	0x30
 3903 0035 9F       		.byte	0x9f
 3904 0036 36000000 		.4byte	.LVL7
 3905 003a 4C000000 		.4byte	.LFE256
 3906 003e 0100     		.2byte	0x1
 3907 0040 50       		.byte	0x50
 3908 0041 00000000 		.4byte	0
 3909 0045 00000000 		.4byte	0
 3910              	.LLST2:
 3911 0049 00000000 		.4byte	.LVL0
 3912 004d 0A000000 		.4byte	.LVL1
 3913 0051 0200     		.2byte	0x2
 3914 0053 30       		.byte	0x30
 3915 0054 9F       		.byte	0x9f
 3916 0055 0A000000 		.4byte	.LVL1
 3917 0059 0E000000 		.4byte	.LVL2
 3918 005d 0300     		.2byte	0x3
 3919 005f 73       		.byte	0x73
ARM GAS  C:\Users\jo\AppData\Local\Temp\ccN6q2EI.s 			page 74


 3920 0060 7F       		.sleb128 -1
 3921 0061 9F       		.byte	0x9f
 3922 0062 0E000000 		.4byte	.LVL2
 3923 0066 1E000000 		.4byte	.LVL3
 3924 006a 0100     		.2byte	0x1
 3925 006c 53       		.byte	0x53
 3926 006d 1E000000 		.4byte	.LVL3
 3927 0071 24000000 		.4byte	.LVL5
 3928 0075 0300     		.2byte	0x3
 3929 0077 73       		.byte	0x73
 3930 0078 7F       		.sleb128 -1
 3931 0079 9F       		.byte	0x9f
 3932 007a 32000000 		.4byte	.LVL6
 3933 007e 4C000000 		.4byte	.LFE256
 3934 0082 0300     		.2byte	0x3
 3935 0084 73       		.byte	0x73
 3936 0085 7F       		.sleb128 -1
 3937 0086 9F       		.byte	0x9f
 3938 0087 00000000 		.4byte	0
 3939 008b 00000000 		.4byte	0
 3940              	.LLST3:
 3941 008f 22000000 		.4byte	.LVL4
 3942 0093 32000000 		.4byte	.LVL6
 3943 0097 0100     		.2byte	0x1
 3944 0099 51       		.byte	0x51
 3945 009a 00000000 		.4byte	0
 3946 009e 00000000 		.4byte	0
 3947              	.LLST4:
 3948 00a2 00000000 		.4byte	.LVL8
 3949 00a6 08000000 		.4byte	.LVL9
 3950 00aa 0100     		.2byte	0x1
 3951 00ac 50       		.byte	0x50
 3952 00ad 08000000 		.4byte	.LVL9
 3953 00b1 24000000 		.4byte	.LVL12
 3954 00b5 0100     		.2byte	0x1
 3955 00b7 55       		.byte	0x55
 3956 00b8 24000000 		.4byte	.LVL12
 3957 00bc 28000000 		.4byte	.LFE257
 3958 00c0 0400     		.2byte	0x4
 3959 00c2 F3       		.byte	0xf3
 3960 00c3 01       		.uleb128 0x1
 3961 00c4 50       		.byte	0x50
 3962 00c5 9F       		.byte	0x9f
 3963 00c6 00000000 		.4byte	0
 3964 00ca 00000000 		.4byte	0
 3965              	.LLST5:
 3966 00ce 00000000 		.4byte	.LVL8
 3967 00d2 0D000000 		.4byte	.LVL10-1
 3968 00d6 0100     		.2byte	0x1
 3969 00d8 51       		.byte	0x51
 3970 00d9 0D000000 		.4byte	.LVL10-1
 3971 00dd 24000000 		.4byte	.LVL12
 3972 00e1 0100     		.2byte	0x1
 3973 00e3 54       		.byte	0x54
 3974 00e4 24000000 		.4byte	.LVL12
 3975 00e8 28000000 		.4byte	.LFE257
 3976 00ec 0400     		.2byte	0x4
ARM GAS  C:\Users\jo\AppData\Local\Temp\ccN6q2EI.s 			page 75


 3977 00ee F3       		.byte	0xf3
 3978 00ef 01       		.uleb128 0x1
 3979 00f0 51       		.byte	0x51
 3980 00f1 9F       		.byte	0x9f
 3981 00f2 00000000 		.4byte	0
 3982 00f6 00000000 		.4byte	0
 3983              	.LLST6:
 3984 00fa 00000000 		.4byte	.LVL13
 3985 00fe 0E000000 		.4byte	.LVL14
 3986 0102 0100     		.2byte	0x1
 3987 0104 50       		.byte	0x50
 3988 0105 0E000000 		.4byte	.LVL14
 3989 0109 48000000 		.4byte	.LVL21
 3990 010d 0100     		.2byte	0x1
 3991 010f 54       		.byte	0x54
 3992 0110 48000000 		.4byte	.LVL21
 3993 0114 68000000 		.4byte	.LFE258
 3994 0118 0400     		.2byte	0x4
 3995 011a F3       		.byte	0xf3
 3996 011b 01       		.uleb128 0x1
 3997 011c 50       		.byte	0x50
 3998 011d 9F       		.byte	0x9f
 3999 011e 00000000 		.4byte	0
 4000 0122 00000000 		.4byte	0
 4001              	.LLST7:
 4002 0126 00000000 		.4byte	.LVL13
 4003 012a 20000000 		.4byte	.LVL17
 4004 012e 0100     		.2byte	0x1
 4005 0130 51       		.byte	0x51
 4006 0131 20000000 		.4byte	.LVL17
 4007 0135 25000000 		.4byte	.LVL18-1
 4008 0139 0100     		.2byte	0x1
 4009 013b 53       		.byte	0x53
 4010 013c 25000000 		.4byte	.LVL18-1
 4011 0140 68000000 		.4byte	.LFE258
 4012 0144 0400     		.2byte	0x4
 4013 0146 F3       		.byte	0xf3
 4014 0147 01       		.uleb128 0x1
 4015 0148 51       		.byte	0x51
 4016 0149 9F       		.byte	0x9f
 4017 014a 00000000 		.4byte	0
 4018 014e 00000000 		.4byte	0
 4019              	.LLST8:
 4020 0152 00000000 		.4byte	.LVL13
 4021 0156 16000000 		.4byte	.LVL15
 4022 015a 0100     		.2byte	0x1
 4023 015c 52       		.byte	0x52
 4024 015d 16000000 		.4byte	.LVL15
 4025 0161 25000000 		.4byte	.LVL18-1
 4026 0165 0200     		.2byte	0x2
 4027 0167 91       		.byte	0x91
 4028 0168 5C       		.sleb128 -36
 4029 0169 25000000 		.4byte	.LVL18-1
 4030 016d 68000000 		.4byte	.LFE258
 4031 0171 0400     		.2byte	0x4
 4032 0173 F3       		.byte	0xf3
 4033 0174 01       		.uleb128 0x1
ARM GAS  C:\Users\jo\AppData\Local\Temp\ccN6q2EI.s 			page 76


 4034 0175 52       		.byte	0x52
 4035 0176 9F       		.byte	0x9f
 4036 0177 00000000 		.4byte	0
 4037 017b 00000000 		.4byte	0
 4038              	.LLST9:
 4039 017f 00000000 		.4byte	.LVL13
 4040 0183 18000000 		.4byte	.LVL16
 4041 0187 0100     		.2byte	0x1
 4042 0189 53       		.byte	0x53
 4043 018a 18000000 		.4byte	.LVL16
 4044 018e 48000000 		.4byte	.LVL21
 4045 0192 0100     		.2byte	0x1
 4046 0194 55       		.byte	0x55
 4047 0195 48000000 		.4byte	.LVL21
 4048 0199 68000000 		.4byte	.LFE258
 4049 019d 0400     		.2byte	0x4
 4050 019f F3       		.byte	0xf3
 4051 01a0 01       		.uleb128 0x1
 4052 01a1 53       		.byte	0x53
 4053 01a2 9F       		.byte	0x9f
 4054 01a3 00000000 		.4byte	0
 4055 01a7 00000000 		.4byte	0
 4056              	.LLST10:
 4057 01ab 00000000 		.4byte	.LVL23
 4058 01af 08000000 		.4byte	.LVL24
 4059 01b3 0100     		.2byte	0x1
 4060 01b5 50       		.byte	0x50
 4061 01b6 08000000 		.4byte	.LVL24
 4062 01ba 4E000000 		.4byte	.LVL32
 4063 01be 0100     		.2byte	0x1
 4064 01c0 55       		.byte	0x55
 4065 01c1 4E000000 		.4byte	.LVL32
 4066 01c5 52000000 		.4byte	.LVL33
 4067 01c9 0400     		.2byte	0x4
 4068 01cb F3       		.byte	0xf3
 4069 01cc 01       		.uleb128 0x1
 4070 01cd 50       		.byte	0x50
 4071 01ce 9F       		.byte	0x9f
 4072 01cf 52000000 		.4byte	.LVL33
 4073 01d3 70000000 		.4byte	.LFE259
 4074 01d7 0100     		.2byte	0x1
 4075 01d9 55       		.byte	0x55
 4076 01da 00000000 		.4byte	0
 4077 01de 00000000 		.4byte	0
 4078              	.LLST11:
 4079 01e2 00000000 		.4byte	.LVL23
 4080 01e6 0D000000 		.4byte	.LVL25-1
 4081 01ea 0100     		.2byte	0x1
 4082 01ec 51       		.byte	0x51
 4083 01ed 0D000000 		.4byte	.LVL25-1
 4084 01f1 4E000000 		.4byte	.LVL32
 4085 01f5 0100     		.2byte	0x1
 4086 01f7 54       		.byte	0x54
 4087 01f8 4E000000 		.4byte	.LVL32
 4088 01fc 52000000 		.4byte	.LVL33
 4089 0200 0400     		.2byte	0x4
 4090 0202 F3       		.byte	0xf3
ARM GAS  C:\Users\jo\AppData\Local\Temp\ccN6q2EI.s 			page 77


 4091 0203 01       		.uleb128 0x1
 4092 0204 51       		.byte	0x51
 4093 0205 9F       		.byte	0x9f
 4094 0206 52000000 		.4byte	.LVL33
 4095 020a 70000000 		.4byte	.LFE259
 4096 020e 0100     		.2byte	0x1
 4097 0210 54       		.byte	0x54
 4098 0211 00000000 		.4byte	0
 4099 0215 00000000 		.4byte	0
 4100              	.LLST12:
 4101 0219 12000000 		.4byte	.LVL26
 4102 021d 14000000 		.4byte	.LVL27
 4103 0221 0100     		.2byte	0x1
 4104 0223 50       		.byte	0x50
 4105 0224 14000000 		.4byte	.LVL27
 4106 0228 4E000000 		.4byte	.LVL32
 4107 022c 0100     		.2byte	0x1
 4108 022e 56       		.byte	0x56
 4109 022f 52000000 		.4byte	.LVL33
 4110 0233 70000000 		.4byte	.LFE259
 4111 0237 0100     		.2byte	0x1
 4112 0239 56       		.byte	0x56
 4113 023a 00000000 		.4byte	0
 4114 023e 00000000 		.4byte	0
 4115              	.LLST13:
 4116 0242 00000000 		.4byte	.LVL35
 4117 0246 1C000000 		.4byte	.LVL37
 4118 024a 0100     		.2byte	0x1
 4119 024c 50       		.byte	0x50
 4120 024d 1C000000 		.4byte	.LVL37
 4121 0251 AC000000 		.4byte	.LVL55
 4122 0255 0100     		.2byte	0x1
 4123 0257 57       		.byte	0x57
 4124 0258 AC000000 		.4byte	.LVL55
 4125 025c B0000000 		.4byte	.LVL56
 4126 0260 0400     		.2byte	0x4
 4127 0262 F3       		.byte	0xf3
 4128 0263 01       		.uleb128 0x1
 4129 0264 50       		.byte	0x50
 4130 0265 9F       		.byte	0x9f
 4131 0266 B0000000 		.4byte	.LVL56
 4132 026a B2000000 		.4byte	.LVL57
 4133 026e 0100     		.2byte	0x1
 4134 0270 50       		.byte	0x50
 4135 0271 B2000000 		.4byte	.LVL57
 4136 0275 CC000000 		.4byte	.LFE260
 4137 0279 0100     		.2byte	0x1
 4138 027b 57       		.byte	0x57
 4139 027c 00000000 		.4byte	0
 4140 0280 00000000 		.4byte	0
 4141              	.LLST14:
 4142 0284 00000000 		.4byte	.LVL35
 4143 0288 1C000000 		.4byte	.LVL37
 4144 028c 0200     		.2byte	0x2
 4145 028e 30       		.byte	0x30
 4146 028f 9F       		.byte	0x9f
 4147 0290 1C000000 		.4byte	.LVL37
ARM GAS  C:\Users\jo\AppData\Local\Temp\ccN6q2EI.s 			page 78


 4148 0294 32000000 		.4byte	.LVL40
 4149 0298 0100     		.2byte	0x1
 4150 029a 56       		.byte	0x56
 4151 029b B0000000 		.4byte	.LVL56
 4152 029f CC000000 		.4byte	.LFE260
 4153 02a3 0200     		.2byte	0x2
 4154 02a5 30       		.byte	0x30
 4155 02a6 9F       		.byte	0x9f
 4156 02a7 00000000 		.4byte	0
 4157 02ab 00000000 		.4byte	0
 4158              	.LLST15:
 4159 02af 0C000000 		.4byte	.LVL36
 4160 02b3 23000000 		.4byte	.LVL38-1
 4161 02b7 0100     		.2byte	0x1
 4162 02b9 53       		.byte	0x53
 4163 02ba 2C000000 		.4byte	.LVL39
 4164 02be 35000000 		.4byte	.LVL41-1
 4165 02c2 0100     		.2byte	0x1
 4166 02c4 53       		.byte	0x53
 4167 02c5 4A000000 		.4byte	.LVL45
 4168 02c9 5B000000 		.4byte	.LVL46-1
 4169 02cd 0100     		.2byte	0x1
 4170 02cf 51       		.byte	0x51
 4171 02d0 60000000 		.4byte	.LVL47
 4172 02d4 6E000000 		.4byte	.LVL48
 4173 02d8 0100     		.2byte	0x1
 4174 02da 51       		.byte	0x51
 4175 02db B0000000 		.4byte	.LVL56
 4176 02df CC000000 		.4byte	.LFE260
 4177 02e3 0100     		.2byte	0x1
 4178 02e5 53       		.byte	0x53
 4179 02e6 00000000 		.4byte	0
 4180 02ea 00000000 		.4byte	0
 4181              	.LLST16:
 4182 02ee 36000000 		.4byte	.LVL41
 4183 02f2 40000000 		.4byte	.LVL42
 4184 02f6 0100     		.2byte	0x1
 4185 02f8 50       		.byte	0x50
 4186 02f9 40000000 		.4byte	.LVL42
 4187 02fd AC000000 		.4byte	.LVL55
 4188 0301 0100     		.2byte	0x1
 4189 0303 56       		.byte	0x56
 4190 0304 00000000 		.4byte	0
 4191 0308 00000000 		.4byte	0
 4192              	.LLST17:
 4193 030c 44000000 		.4byte	.LVL43
 4194 0310 A4000000 		.4byte	.LVL54
 4195 0314 0100     		.2byte	0x1
 4196 0316 58       		.byte	0x58
 4197 0317 00000000 		.4byte	0
 4198 031b 00000000 		.4byte	0
 4199              		.section	.debug_aranges,"",%progbits
 4200 0000 3C000000 		.4byte	0x3c
 4201 0004 0200     		.2byte	0x2
 4202 0006 00000000 		.4byte	.Ldebug_info0
 4203 000a 04       		.byte	0x4
 4204 000b 00       		.byte	0
ARM GAS  C:\Users\jo\AppData\Local\Temp\ccN6q2EI.s 			page 79


 4205 000c 0000     		.2byte	0
 4206 000e 0000     		.2byte	0
 4207 0010 00000000 		.4byte	.LFB256
 4208 0014 4C000000 		.4byte	.LFE256-.LFB256
 4209 0018 00000000 		.4byte	.LFB257
 4210 001c 28000000 		.4byte	.LFE257-.LFB257
 4211 0020 00000000 		.4byte	.LFB258
 4212 0024 68000000 		.4byte	.LFE258-.LFB258
 4213 0028 00000000 		.4byte	.LFB259
 4214 002c 70000000 		.4byte	.LFE259-.LFB259
 4215 0030 00000000 		.4byte	.LFB260
 4216 0034 CC000000 		.4byte	.LFE260-.LFB260
 4217 0038 00000000 		.4byte	0
 4218 003c 00000000 		.4byte	0
 4219              		.section	.debug_ranges,"",%progbits
 4220              	.Ldebug_ranges0:
 4221 0000 22000000 		.4byte	.LBB7
 4222 0004 26000000 		.4byte	.LBE7
 4223 0008 28000000 		.4byte	.LBB12
 4224 000c 30000000 		.4byte	.LBE12
 4225 0010 00000000 		.4byte	0
 4226 0014 00000000 		.4byte	0
 4227 0018 00000000 		.4byte	.LFB256
 4228 001c 4C000000 		.4byte	.LFE256
 4229 0020 00000000 		.4byte	.LFB257
 4230 0024 28000000 		.4byte	.LFE257
 4231 0028 00000000 		.4byte	.LFB258
 4232 002c 68000000 		.4byte	.LFE258
 4233 0030 00000000 		.4byte	.LFB259
 4234 0034 70000000 		.4byte	.LFE259
 4235 0038 00000000 		.4byte	.LFB260
 4236 003c CC000000 		.4byte	.LFE260
 4237 0040 00000000 		.4byte	0
 4238 0044 00000000 		.4byte	0
 4239              		.section	.debug_line,"",%progbits
 4240              	.Ldebug_line0:
 4241 0000 59040000 		.section	.debug_str,"MS",%progbits,1
 4241      02009B03 
 4241      00000201 
 4241      FB0E0D00 
 4241      01010101 
 4242              	.LASF116:
 4243 0000 6B65726E 		.ascii	"kernel_stats_t\000"
 4243      656C5F73 
 4243      74617473 
 4243      5F7400
 4244              	.LASF102:
 4245 000f 74625F70 		.ascii	"tb_ptr\000"
 4245      747200
 4246              	.LASF58:
 4247 0016 72656164 		.ascii	"ready_list_t\000"
 4247      795F6C69 
 4247      73745F74 
 4247      00
 4248              	.LASF96:
 4249 0023 73655F74 		.ascii	"se_time\000"
 4249      696D6500 
ARM GAS  C:\Users\jo\AppData\Local\Temp\ccN6q2EI.s 			page 80


 4250              	.LASF2:
 4251 002b 73697A65 		.ascii	"size_t\000"
 4251      5F7400
 4252              	.LASF153:
 4253 0032 7265715F 		.ascii	"req_version\000"
 4253      76657273 
 4253      696F6E00 
 4254              	.LASF165:
 4255 003e 7265715F 		.ascii	"req_referer\000"
 4255      72656665 
 4255      72657200 
 4256              	.LASF118:
 4257 004a 7264796D 		.ascii	"rdymsg\000"
 4257      736700
 4258              	.LASF174:
 4259 0051 48545450 		.ascii	"HTTP_RESPONSE_STATUS\000"
 4259      5F524553 
 4259      504F4E53 
 4259      455F5354 
 4259      41545553 
 4260              	.LASF154:
 4261 0066 7265715F 		.ascii	"req_query\000"
 4261      71756572 
 4261      7900
 4262              	.LASF88:
 4263 0070 6B65726E 		.ascii	"kernel_stats\000"
 4263      656C5F73 
 4263      74617473 
 4263      00
 4264              	.LASF179:
 4265 007d 6F6B5F74 		.ascii	"ok_txt\000"
 4265      787400
 4266              	.LASF194:
 4267 0084 63745F43 		.ascii	"ct_Content_Type\000"
 4267      6F6E7465 
 4267      6E745F54 
 4267      79706500 
 4268              	.LASF3:
 4269 0094 5F5F7569 		.ascii	"__uint8_t\000"
 4269      6E74385F 
 4269      7400
 4270              	.LASF93:
 4271 009e 706F7274 		.ascii	"port_intctx\000"
 4271      5F696E74 
 4271      63747800 
 4272              	.LASF128:
 4273 00aa 76615F6C 		.ascii	"va_list\000"
 4273      69737400 
 4274              	.LASF77:
 4275 00b2 73797374 		.ascii	"system_debug_t\000"
 4275      656D5F64 
 4275      65627567 
 4275      5F7400
 4276              	.LASF196:
 4277 00c1 63745F4C 		.ascii	"ct_Location\000"
 4277      6F636174 
 4277      696F6E00 
ARM GAS  C:\Users\jo\AppData\Local\Temp\ccN6q2EI.s 			page 81


 4278              	.LASF183:
 4279 00cd 74797065 		.ascii	"type\000"
 4279      00
 4280              	.LASF162:
 4281 00d2 7265715F 		.ascii	"req_cookie\000"
 4281      636F6F6B 
 4281      696500
 4282              	.LASF108:
 4283 00dd 776F7273 		.ascii	"worst\000"
 4283      7400
 4284              	.LASF111:
 4285 00e3 74696D65 		.ascii	"time_measurement_t\000"
 4285      5F6D6561 
 4285      73757265 
 4285      6D656E74 
 4285      5F7400
 4286              	.LASF14:
 4287 00f6 6C6F6E67 		.ascii	"long long unsigned int\000"
 4287      206C6F6E 
 4287      6720756E 
 4287      7369676E 
 4287      65642069 
 4288              	.LASF207:
 4289 010d 2E2E2F2E 		.ascii	"../../../demos/STM32/RT-STM32F407-DISCOVERY-uHttp/u"
 4289      2E2F2E2E 
 4289      2F64656D 
 4289      6F732F53 
 4289      544D3332 
 4290 0140 68747470 		.ascii	"http-1.1/responses.c\000"
 4290      2D312E31 
 4290      2F726573 
 4290      706F6E73 
 4290      65732E63 
 4291              	.LASF99:
 4292 0155 73655F73 		.ascii	"se_state\000"
 4292      74617465 
 4292      00
 4293              	.LASF119:
 4294 015e 65786974 		.ascii	"exitcode\000"
 4294      636F6465 
 4294      00
 4295              	.LASF87:
 4296 0167 6D61696E 		.ascii	"mainthread\000"
 4296      74687265 
 4296      616400
 4297              	.LASF74:
 4298 0172 76697274 		.ascii	"virtual_timers_list_t\000"
 4298      75616C5F 
 4298      74696D65 
 4298      72735F6C 
 4298      6973745F 
 4299              	.LASF193:
 4300 0188 49544D5F 		.ascii	"ITM_RxBuffer\000"
 4300      52784275 
 4300      66666572 
 4300      00
 4301              	.LASF132:
ARM GAS  C:\Users\jo\AppData\Local\Temp\ccN6q2EI.s 			page 82


 4302 0195 696E5F61 		.ascii	"in_addr\000"
 4302      64647200 
 4303              	.LASF23:
 4304 019d 72747469 		.ascii	"rttime_t\000"
 4304      6D655F74 
 4304      00
 4305              	.LASF36:
 4306 01a6 705F7072 		.ascii	"p_prio\000"
 4306      696F00
 4307              	.LASF208:
 4308 01ad 433A5C55 		.ascii	"C:\\Users\\jo\\Documents\\GitHub\\ChibiOS\\demos\\S"
 4308      73657273 
 4308      5C6A6F5C 
 4308      446F6375 
 4308      6D656E74 
 4309 01d9 544D3332 		.ascii	"TM32\\RT-STM32F407-DISCOVERY-uHttp\000"
 4309      5C52542D 
 4309      53544D33 
 4309      32463430 
 4309      372D4449 
 4310              	.LASF169:
 4311 01fb 7265715F 		.ascii	"req_bnd_type\000"
 4311      626E645F 
 4311      74797065 
 4311      00
 4312              	.LASF12:
 4313 0208 6C6F6E67 		.ascii	"long long int\000"
 4313      206C6F6E 
 4313      6720696E 
 4313      7400
 4314              	.LASF1:
 4315 0216 7369676E 		.ascii	"signed char\000"
 4315      65642063 
 4315      68617200 
 4316              	.LASF180:
 4317 0222 73746174 		.ascii	"status\000"
 4317      757300
 4318              	.LASF156:
 4319 0229 7265715F 		.ascii	"req_argn\000"
 4319      6172676E 
 4319      00
 4320              	.LASF51:
 4321 0232 705F6D70 		.ascii	"p_mpool\000"
 4321      6F6F6C00 
 4322              	.LASF155:
 4323 023a 7265715F 		.ascii	"req_argp\000"
 4323      61726770 
 4323      00
 4324              	.LASF123:
 4325 0243 6D5F7175 		.ascii	"m_queue\000"
 4325      65756500 
 4326              	.LASF158:
 4327 024b 7265715F 		.ascii	"req_connection\000"
 4327      636F6E6E 
 4327      65637469 
 4327      6F6E00
 4328              	.LASF157:
ARM GAS  C:\Users\jo\AppData\Local\Temp\ccN6q2EI.s 			page 83


 4329 025a 7265715F 		.ascii	"req_argv\000"
 4329      61726776 
 4329      00
 4330              	.LASF202:
 4331 0263 735F666C 		.ascii	"s_flush\000"
 4331      75736800 
 4332              	.LASF188:
 4333 026b 626F6479 		.ascii	"body\000"
 4333      00
 4334              	.LASF164:
 4335 0270 7265715F 		.ascii	"req_agent\000"
 4335      6167656E 
 4335      7400
 4336              	.LASF9:
 4337 027a 6C6F6E67 		.ascii	"long int\000"
 4337      20696E74 
 4337      00
 4338              	.LASF170:
 4339 0283 48545450 		.ascii	"HTTPD_SESSION\000"
 4339      445F5345 
 4339      5353494F 
 4339      4E00
 4340              	.LASF25:
 4341 0291 74737461 		.ascii	"tstate_t\000"
 4341      74655F74 
 4341      00
 4342              	.LASF177:
 4343 029a 72735F74 		.ascii	"rs_text\000"
 4343      65787400 
 4344              	.LASF95:
 4345 02a2 5F5F7661 		.ascii	"__va_list\000"
 4345      5F6C6973 
 4345      7400
 4346              	.LASF84:
 4347 02ac 63685F73 		.ascii	"ch_system\000"
 4347      79737465 
 4347      6D00
 4348              	.LASF152:
 4349 02b6 7265715F 		.ascii	"req_url\000"
 4349      75726C00 
 4350              	.LASF97:
 4351 02be 73655F74 		.ascii	"se_tp\000"
 4351      7000
 4352              	.LASF18:
 4353 02c4 75696E74 		.ascii	"uint16_t\000"
 4353      31365F74 
 4353      00
 4354              	.LASF187:
 4355 02cd 666D745F 		.ascii	"fmt_P\000"
 4355      5000
 4356              	.LASF38:
 4357 02d3 705F6E65 		.ascii	"p_newer\000"
 4357      77657200 
 4358              	.LASF101:
 4359 02db 74625F73 		.ascii	"tb_size\000"
 4359      697A6500 
 4360              	.LASF63:
ARM GAS  C:\Users\jo\AppData\Local\Temp\ccN6q2EI.s 			page 84


 4361 02e3 725F6E65 		.ascii	"r_newer\000"
 4361      77657200 
 4362              	.LASF90:
 4363 02eb 72656761 		.ascii	"regarm_t\000"
 4363      726D5F74 
 4363      00
 4364              	.LASF70:
 4365 02f4 76745F70 		.ascii	"vt_prev\000"
 4365      72657600 
 4366              	.LASF105:
 4367 02fc 6F666673 		.ascii	"offset\000"
 4367      657400
 4368              	.LASF182:
 4369 0303 48747470 		.ascii	"HttpSendHeaderBottom\000"
 4369      53656E64 
 4369      48656164 
 4369      6572426F 
 4369      74746F6D 
 4370              	.LASF139:
 4371 0318 73696E5F 		.ascii	"sin_zero\000"
 4371      7A65726F 
 4371      00
 4372              	.LASF85:
 4373 0321 726C6973 		.ascii	"rlist\000"
 4373      7400
 4374              	.LASF126:
 4375 0327 6D757465 		.ascii	"mutex_t\000"
 4375      785F7400 
 4376              	.LASF81:
 4377 032f 6C6F636B 		.ascii	"lock_cnt\000"
 4377      5F636E74 
 4377      00
 4378              	.LASF175:
 4379 0338 5F485454 		.ascii	"_HTTP_RESPONSE_STATUS\000"
 4379      505F5245 
 4379      53504F4E 
 4379      53455F53 
 4379      54415455 
 4380              	.LASF163:
 4381 034e 7265715F 		.ascii	"req_auth\000"
 4381      61757468 
 4381      00
 4382              	.LASF30:
 4383 0357 636E745F 		.ascii	"cnt_t\000"
 4383      7400
 4384              	.LASF145:
 4385 035d 7374726D 		.ascii	"strm_csock\000"
 4385      5F63736F 
 4385      636B00
 4386              	.LASF0:
 4387 0368 756E7369 		.ascii	"unsigned int\000"
 4387      676E6564 
 4387      20696E74 
 4387      00
 4388              	.LASF133:
 4389 0375 735F6164 		.ascii	"s_addr\000"
 4389      647200
ARM GAS  C:\Users\jo\AppData\Local\Temp\ccN6q2EI.s 			page 85


 4390              	.LASF69:
 4391 037c 76745F6E 		.ascii	"vt_next\000"
 4391      65787400 
 4392              	.LASF201:
 4393 0384 7374726C 		.ascii	"strlen\000"
 4393      656E00
 4394              	.LASF160:
 4395 038b 7265715F 		.ascii	"req_realm\000"
 4395      7265616C 
 4395      6D00
 4396              	.LASF46:
 4397 0395 705F6D73 		.ascii	"p_msgqueue\000"
 4397      67717565 
 4397      756500
 4398              	.LASF131:
 4399 03a0 7533325F 		.ascii	"u32_t\000"
 4399      7400
 4400              	.LASF112:
 4401 03a6 6E5F6972 		.ascii	"n_irq\000"
 4401      7100
 4402              	.LASF147:
 4403 03ac 7374726D 		.ascii	"strm_caddr\000"
 4403      5F636164 
 4403      647200
 4404              	.LASF7:
 4405 03b7 73686F72 		.ascii	"short unsigned int\000"
 4405      7420756E 
 4405      7369676E 
 4405      65642069 
 4405      6E7400
 4406              	.LASF138:
 4407 03ca 73696E5F 		.ascii	"sin_addr\000"
 4407      61646472 
 4407      00
 4408              	.LASF54:
 4409 03d3 63685F74 		.ascii	"ch_thread\000"
 4409      68726561 
 4409      6400
 4410              	.LASF86:
 4411 03dd 76746C69 		.ascii	"vtlist\000"
 4411      737400
 4412              	.LASF159:
 4413 03e4 7265715F 		.ascii	"req_length\000"
 4413      6C656E67 
 4413      746800
 4414              	.LASF28:
 4415 03ef 6D73675F 		.ascii	"msg_t\000"
 4415      7400
 4416              	.LASF109:
 4417 03f5 6C617374 		.ascii	"last\000"
 4417      00
 4418              	.LASF31:
 4419 03fa 75636E74 		.ascii	"ucnt_t\000"
 4419      5F7400
 4420              	.LASF83:
 4421 0401 63685F73 		.ascii	"ch_system_t\000"
 4421      79737465 
ARM GAS  C:\Users\jo\AppData\Local\Temp\ccN6q2EI.s 			page 86


 4421      6D5F7400 
 4422              	.LASF103:
 4423 040d 74625F62 		.ascii	"tb_buffer\000"
 4423      75666665 
 4423      7200
 4424              	.LASF148:
 4425 0417 48545450 		.ascii	"HTTP_STREAM\000"
 4425      5F535452 
 4425      45414D00 
 4426              	.LASF115:
 4427 0423 6D5F6372 		.ascii	"m_crit_isr\000"
 4427      69745F69 
 4427      737200
 4428              	.LASF59:
 4429 042e 63685F72 		.ascii	"ch_ready_list\000"
 4429      65616479 
 4429      5F6C6973 
 4429      7400
 4430              	.LASF29:
 4431 043c 6576656E 		.ascii	"eventmask_t\000"
 4431      746D6173 
 4431      6B5F7400 
 4432              	.LASF203:
 4433 0448 73747263 		.ascii	"strcat\000"
 4433      617400
 4434              	.LASF8:
 4435 044f 5F5F696E 		.ascii	"__int32_t\000"
 4435      7433325F 
 4435      7400
 4436              	.LASF89:
 4437 0459 69646C65 		.ascii	"idle_thread_wa\000"
 4437      5F746872 
 4437      6561645F 
 4437      776100
 4438              	.LASF184:
 4439 0468 73756274 		.ascii	"subtype\000"
 4439      79706500 
 4440              	.LASF206:
 4441 0470 474E5520 		.ascii	"GNU C 4.9.3 20141119 (release) [ARM/embedded-4_9-br"
 4441      4320342E 
 4441      392E3320 
 4441      32303134 
 4441      31313139 
 4442 04a3 616E6368 		.ascii	"anch revision 218278] -mcpu=cortex-m4 -mno-thumb-in"
 4442      20726576 
 4442      6973696F 
 4442      6E203231 
 4442      38323738 
 4443 04d6 74657277 		.ascii	"terwork -mthumb -ggdb -O2 -fomit-frame-pointer -fal"
 4443      6F726B20 
 4443      2D6D7468 
 4443      756D6220 
 4443      2D676764 
 4444 0509 69676E2D 		.ascii	"ign-functions=16 -ffunction-sections -fdata-section"
 4444      66756E63 
 4444      74696F6E 
 4444      733D3136 
ARM GAS  C:\Users\jo\AppData\Local\Temp\ccN6q2EI.s 			page 87


 4444      202D6666 
 4445 053c 73202D66 		.ascii	"s -fno-common\000"
 4445      6E6F2D63 
 4445      6F6D6D6F 
 4445      6E00
 4446              	.LASF91:
 4447 054a 73746B61 		.ascii	"stkalign_t\000"
 4447      6C69676E 
 4447      5F7400
 4448              	.LASF173:
 4449 0555 735F7265 		.ascii	"s_req\000"
 4449      7100
 4450              	.LASF136:
 4451 055b 73696E5F 		.ascii	"sin_family\000"
 4451      66616D69 
 4451      6C7900
 4452              	.LASF45:
 4453 0566 705F7761 		.ascii	"p_waiting\000"
 4453      6974696E 
 4453      6700
 4454              	.LASF129:
 4455 0570 75385F74 		.ascii	"u8_t\000"
 4455      00
 4456              	.LASF15:
 4457 0575 73697A65 		.ascii	"sizetype\000"
 4457      74797065 
 4457      00
 4458              	.LASF75:
 4459 057e 63685F76 		.ascii	"ch_virtual_timers_list\000"
 4459      69727475 
 4459      616C5F74 
 4459      696D6572 
 4459      735F6C69 
 4460              	.LASF166:
 4461 0595 7265715F 		.ascii	"req_host\000"
 4461      686F7374 
 4461      00
 4462              	.LASF94:
 4463 059e 5F5F676E 		.ascii	"__gnuc_va_list\000"
 4463      75635F76 
 4463      615F6C69 
 4463      737400
 4464              	.LASF204:
 4465 05ad 66726565 		.ascii	"free\000"
 4465      00
 4466              	.LASF100:
 4467 05b2 63685F73 		.ascii	"ch_swc_event_t\000"
 4467      77635F65 
 4467      76656E74 
 4467      5F7400
 4468              	.LASF76:
 4469 05c1 76745F6C 		.ascii	"vt_lasttime\000"
 4469      61737474 
 4469      696D6500 
 4470              	.LASF21:
 4471 05cd 75696E74 		.ascii	"uint64_t\000"
 4471      36345F74 
ARM GAS  C:\Users\jo\AppData\Local\Temp\ccN6q2EI.s 			page 88


 4471      00
 4472              	.LASF104:
 4473 05d6 63685F74 		.ascii	"ch_trace_buffer_t\000"
 4473      72616365 
 4473      5F627566 
 4473      6665725F 
 4473      7400
 4474              	.LASF39:
 4475 05e8 705F6F6C 		.ascii	"p_older\000"
 4475      64657200 
 4476              	.LASF62:
 4477 05f0 725F6374 		.ascii	"r_ctx\000"
 4477      7800
 4478              	.LASF106:
 4479 05f6 746D5F63 		.ascii	"tm_calibration_t\000"
 4479      616C6962 
 4479      72617469 
 4479      6F6E5F74 
 4479      00
 4480              	.LASF135:
 4481 0607 73696E5F 		.ascii	"sin_len\000"
 4481      6C656E00 
 4482              	.LASF41:
 4483 060f 705F7374 		.ascii	"p_stklimit\000"
 4483      6B6C696D 
 4483      697400
 4484              	.LASF186:
 4485 061a 48747470 		.ascii	"HttpSendError\000"
 4485      53656E64 
 4485      4572726F 
 4485      7200
 4486              	.LASF64:
 4487 0628 725F6F6C 		.ascii	"r_older\000"
 4487      64657200 
 4488              	.LASF192:
 4489 0630 72657370 		.ascii	"response_list\000"
 4489      6F6E7365 
 4489      5F6C6973 
 4489      7400
 4490              	.LASF13:
 4491 063e 5F5F7569 		.ascii	"__uint64_t\000"
 4491      6E743634 
 4491      5F7400
 4492              	.LASF110:
 4493 0649 63756D75 		.ascii	"cumulative\000"
 4493      6C617469 
 4493      766500
 4494              	.LASF137:
 4495 0654 73696E5F 		.ascii	"sin_port\000"
 4495      706F7274 
 4495      00
 4496              	.LASF141:
 4497 065d 7374726D 		.ascii	"strm_ipos\000"
 4497      5F69706F 
 4497      7300
 4498              	.LASF26:
 4499 0667 74726566 		.ascii	"trefs_t\000"
ARM GAS  C:\Users\jo\AppData\Local\Temp\ccN6q2EI.s 			page 89


 4499      735F7400 
 4500              	.LASF176:
 4501 066f 72735F63 		.ascii	"rs_code\000"
 4501      6F646500 
 4502              	.LASF150:
 4503 0677 5F485454 		.ascii	"_HTTP_REQUEST\000"
 4503      505F5245 
 4503      51554553 
 4503      5400
 4504              	.LASF67:
 4505 0685 76697274 		.ascii	"virtual_timer_t\000"
 4505      75616C5F 
 4505      74696D65 
 4505      725F7400 
 4506              	.LASF35:
 4507 0695 705F7072 		.ascii	"p_prev\000"
 4507      657600
 4508              	.LASF27:
 4509 069c 74707269 		.ascii	"tprio_t\000"
 4509      6F5F7400 
 4510              	.LASF144:
 4511 06a4 7374726D 		.ascii	"strm_ssock\000"
 4511      5F73736F 
 4511      636B00
 4512              	.LASF122:
 4513 06af 6D757465 		.ascii	"mutex\000"
 4513      7800
 4514              	.LASF178:
 4515 06b5 6572725F 		.ascii	"err_txt\000"
 4515      74787400 
 4516              	.LASF113:
 4517 06bd 6E5F6374 		.ascii	"n_ctxswc\000"
 4517      78737763 
 4517      00
 4518              	.LASF127:
 4519 06c6 5F426F6F 		.ascii	"_Bool\000"
 4519      6C00
 4520              	.LASF19:
 4521 06cc 696E7433 		.ascii	"int32_t\000"
 4521      325F7400 
 4522              	.LASF4:
 4523 06d4 756E7369 		.ascii	"unsigned char\000"
 4523      676E6564 
 4523      20636861 
 4523      7200
 4524              	.LASF49:
 4525 06e2 705F6D74 		.ascii	"p_mtxlist\000"
 4525      786C6973 
 4525      7400
 4526              	.LASF5:
 4527 06ec 73686F72 		.ascii	"short int\000"
 4527      7420696E 
 4527      7400
 4528              	.LASF42:
 4529 06f6 705F7374 		.ascii	"p_state\000"
 4529      61746500 
 4530              	.LASF61:
ARM GAS  C:\Users\jo\AppData\Local\Temp\ccN6q2EI.s 			page 90


 4531 06fe 725F7072 		.ascii	"r_prio\000"
 4531      696F00
 4532              	.LASF121:
 4533 0705 65776D61 		.ascii	"ewmask\000"
 4533      736B00
 4534              	.LASF34:
 4535 070c 705F6E65 		.ascii	"p_next\000"
 4535      787400
 4536              	.LASF24:
 4537 0713 746D6F64 		.ascii	"tmode_t\000"
 4537      655F7400 
 4538              	.LASF43:
 4539 071b 705F666C 		.ascii	"p_flags\000"
 4539      61677300 
 4540              	.LASF52:
 4541 0723 705F7374 		.ascii	"p_stats\000"
 4541      61747300 
 4542              	.LASF205:
 4543 072b 6D616C6C 		.ascii	"malloc\000"
 4543      6F6300
 4544              	.LASF200:
 4545 0732 735F7075 		.ascii	"s_puts\000"
 4545      747300
 4546              	.LASF48:
 4547 0739 705F6570 		.ascii	"p_epending\000"
 4547      656E6469 
 4547      6E6700
 4548              	.LASF20:
 4549 0744 75696E74 		.ascii	"uint32_t\000"
 4549      33325F74 
 4549      00
 4550              	.LASF60:
 4551 074d 725F7175 		.ascii	"r_queue\000"
 4551      65756500 
 4552              	.LASF71:
 4553 0755 76745F64 		.ascii	"vt_delta\000"
 4553      656C7461 
 4553      00
 4554              	.LASF55:
 4555 075e 63685F74 		.ascii	"ch_threads_list\000"
 4555      68726561 
 4555      64735F6C 
 4555      69737400 
 4556              	.LASF146:
 4557 076e 7374726D 		.ascii	"strm_saddr\000"
 4557      5F736164 
 4557      647200
 4558              	.LASF11:
 4559 0779 6C6F6E67 		.ascii	"long unsigned int\000"
 4559      20756E73 
 4559      69676E65 
 4559      6420696E 
 4559      7400
 4560              	.LASF181:
 4561 078b 48747470 		.ascii	"HttpSendHeaderTop\000"
 4561      53656E64 
 4561      48656164 
ARM GAS  C:\Users\jo\AppData\Local\Temp\ccN6q2EI.s 			page 91


 4561      6572546F 
 4561      7000
 4562              	.LASF16:
 4563 079d 63686172 		.ascii	"char\000"
 4563      00
 4564              	.LASF140:
 4565 07a2 5F485454 		.ascii	"_HTTP_STREAM\000"
 4565      505F5354 
 4565      5245414D 
 4565      00
 4566              	.LASF189:
 4567 07af 74657874 		.ascii	"text\000"
 4567      00
 4568              	.LASF47:
 4569 07b4 705F6D73 		.ascii	"p_msg\000"
 4569      6700
 4570              	.LASF6:
 4571 07ba 5F5F7569 		.ascii	"__uint16_t\000"
 4571      6E743136 
 4571      5F7400
 4572              	.LASF33:
 4573 07c5 74687265 		.ascii	"thread_t\000"
 4573      61645F74 
 4573      00
 4574              	.LASF107:
 4575 07ce 62657374 		.ascii	"best\000"
 4575      00
 4576              	.LASF125:
 4577 07d3 6D5F6E65 		.ascii	"m_next\000"
 4577      787400
 4578              	.LASF32:
 4579 07da 73797374 		.ascii	"systime_t\000"
 4579      696D655F 
 4579      7400
 4580              	.LASF50:
 4581 07e4 705F7265 		.ascii	"p_realprio\000"
 4581      616C7072 
 4581      696F00
 4582              	.LASF66:
 4583 07ef 76746675 		.ascii	"vtfunc_t\000"
 4583      6E635F74 
 4583      00
 4584              	.LASF10:
 4585 07f8 5F5F7569 		.ascii	"__uint32_t\000"
 4585      6E743332 
 4585      5F7400
 4586              	.LASF79:
 4587 0803 70616E69 		.ascii	"panic_msg\000"
 4587      635F6D73 
 4587      6700
 4588              	.LASF197:
 4589 080d 48747470 		.ascii	"HttpResponseText\000"
 4589      52657370 
 4589      6F6E7365 
 4589      54657874 
 4589      00
 4590              	.LASF117:
ARM GAS  C:\Users\jo\AppData\Local\Temp\ccN6q2EI.s 			page 92


 4591 081e 5F5F6170 		.ascii	"__ap\000"
 4591      00
 4592              	.LASF92:
 4593 0823 636F6E74 		.ascii	"context\000"
 4593      65787400 
 4594              	.LASF198:
 4595 082b 735F7072 		.ascii	"s_printf\000"
 4595      696E7466 
 4595      00
 4596              	.LASF68:
 4597 0834 63685F76 		.ascii	"ch_virtual_timer\000"
 4597      69727475 
 4597      616C5F74 
 4597      696D6572 
 4597      00
 4598              	.LASF190:
 4599 0845 61757468 		.ascii	"auth_fmt_P\000"
 4599      5F666D74 
 4599      5F5000
 4600              	.LASF22:
 4601 0850 7274636E 		.ascii	"rtcnt_t\000"
 4601      745F7400 
 4602              	.LASF168:
 4603 0858 7265715F 		.ascii	"req_bnd_dispo\000"
 4603      626E645F 
 4603      64697370 
 4603      6F00
 4604              	.LASF73:
 4605 0866 76745F70 		.ascii	"vt_par\000"
 4605      617200
 4606              	.LASF130:
 4607 086d 7531365F 		.ascii	"u16_t\000"
 4607      7400
 4608              	.LASF167:
 4609 0873 7265715F 		.ascii	"req_encoding\000"
 4609      656E636F 
 4609      64696E67 
 4609      00
 4610              	.LASF191:
 4611 0880 636F6465 		.ascii	"code\000"
 4611      00
 4612              	.LASF171:
 4613 0885 5F485454 		.ascii	"_HTTPD_SESSION\000"
 4613      50445F53 
 4613      45535349 
 4613      4F4E00
 4614              	.LASF56:
 4615 0894 74687265 		.ascii	"threads_queue_t\000"
 4615      6164735F 
 4615      71756575 
 4615      655F7400 
 4616              	.LASF195:
 4617 08a4 63745F43 		.ascii	"ct_Content_Length\000"
 4617      6F6E7465 
 4617      6E745F4C 
 4617      656E6774 
 4617      6800
ARM GAS  C:\Users\jo\AppData\Local\Temp\ccN6q2EI.s 			page 93


 4618              	.LASF44:
 4619 08b6 705F7265 		.ascii	"p_refs\000"
 4619      667300
 4620              	.LASF80:
 4621 08bd 6973725F 		.ascii	"isr_cnt\000"
 4621      636E7400 
 4622              	.LASF151:
 4623 08c5 7265715F 		.ascii	"req_method\000"
 4623      6D657468 
 4623      6F6400
 4624              	.LASF149:
 4625 08d0 48545450 		.ascii	"HTTP_REQUEST\000"
 4625      5F524551 
 4625      55455354 
 4625      00
 4626              	.LASF134:
 4627 08dd 736F636B 		.ascii	"sockaddr_in\000"
 4627      61646472 
 4627      5F696E00 
 4628              	.LASF185:
 4629 08e9 62797465 		.ascii	"bytes\000"
 4629      7300
 4630              	.LASF143:
 4631 08ef 7374726D 		.ascii	"strm_ibuf\000"
 4631      5F696275 
 4631      6600
 4632              	.LASF17:
 4633 08f9 75696E74 		.ascii	"uint8_t\000"
 4633      385F7400 
 4634              	.LASF172:
 4635 0901 735F7374 		.ascii	"s_stream\000"
 4635      7265616D 
 4635      00
 4636              	.LASF120:
 4637 090a 77746F62 		.ascii	"wtobjp\000"
 4637      6A7000
 4638              	.LASF40:
 4639 0911 705F6E61 		.ascii	"p_name\000"
 4639      6D6500
 4640              	.LASF209:
 4641 0918 48747470 		.ascii	"HttpSendRedirection\000"
 4641      53656E64 
 4641      52656469 
 4641      72656374 
 4641      696F6E00 
 4642              	.LASF53:
 4643 092c 74687265 		.ascii	"threads_list_t\000"
 4643      6164735F 
 4643      6C697374 
 4643      5F7400
 4644              	.LASF65:
 4645 093b 725F6375 		.ascii	"r_current\000"
 4645      7272656E 
 4645      7400
 4646              	.LASF82:
 4647 0945 74726163 		.ascii	"trace_buffer\000"
 4647      655F6275 
ARM GAS  C:\Users\jo\AppData\Local\Temp\ccN6q2EI.s 			page 94


 4647      66666572 
 4647      00
 4648              	.LASF199:
 4649 0952 735F7670 		.ascii	"s_vputs\000"
 4649      75747300 
 4650              	.LASF78:
 4651 095a 63685F73 		.ascii	"ch_system_debug\000"
 4651      79737465 
 4651      6D5F6465 
 4651      62756700 
 4652              	.LASF161:
 4653 096a 7265715F 		.ascii	"req_type\000"
 4653      74797065 
 4653      00
 4654              	.LASF114:
 4655 0973 6D5F6372 		.ascii	"m_crit_thd\000"
 4655      69745F74 
 4655      686400
 4656              	.LASF124:
 4657 097e 6D5F6F77 		.ascii	"m_owner\000"
 4657      6E657200 
 4658              	.LASF98:
 4659 0986 73655F77 		.ascii	"se_wtobjp\000"
 4659      746F626A 
 4659      7000
 4660              	.LASF37:
 4661 0990 705F6374 		.ascii	"p_ctx\000"
 4661      7800
 4662              	.LASF72:
 4663 0996 76745F66 		.ascii	"vt_func\000"
 4663      756E6300 
 4664              	.LASF57:
 4665 099e 63685F74 		.ascii	"ch_threads_queue\000"
 4665      68726561 
 4665      64735F71 
 4665      75657565 
 4665      00
 4666              	.LASF142:
 4667 09af 7374726D 		.ascii	"strm_ilen\000"
 4667      5F696C65 
 4667      6E00
 4668              		.ident	"GCC: (GNU Tools for ARM Embedded Processors) 4.9.3 20141119 (release) [ARM/embedded-4_9-br
ARM GAS  C:\Users\jo\AppData\Local\Temp\ccN6q2EI.s 			page 95


DEFINED SYMBOLS
                            *ABS*:00000000 responses.c
C:\Users\jo\AppData\Local\Temp\ccN6q2EI.s:19     .text.HttpResponseText:00000000 $t
C:\Users\jo\AppData\Local\Temp\ccN6q2EI.s:25     .text.HttpResponseText:00000000 HttpResponseText
C:\Users\jo\AppData\Local\Temp\ccN6q2EI.s:110    .text.HttpResponseText:00000040 $d
C:\Users\jo\AppData\Local\Temp\ccN6q2EI.s:117    .text.HttpSendHeaderTop:00000000 $t
C:\Users\jo\AppData\Local\Temp\ccN6q2EI.s:123    .text.HttpSendHeaderTop:00000000 HttpSendHeaderTop
C:\Users\jo\AppData\Local\Temp\ccN6q2EI.s:164    .text.HttpSendHeaderTop:00000024 $d
C:\Users\jo\AppData\Local\Temp\ccN6q2EI.s:169    .text.HttpSendHeaderBottom:00000000 $t
C:\Users\jo\AppData\Local\Temp\ccN6q2EI.s:175    .text.HttpSendHeaderBottom:00000000 HttpSendHeaderBottom
C:\Users\jo\AppData\Local\Temp\ccN6q2EI.s:254    .text.HttpSendHeaderBottom:0000004c $d
C:\Users\jo\AppData\Local\Temp\ccN6q2EI.s:265    .text.HttpSendError:00000000 $t
C:\Users\jo\AppData\Local\Temp\ccN6q2EI.s:271    .text.HttpSendError:00000000 HttpSendError
C:\Users\jo\AppData\Local\Temp\ccN6q2EI.s:359    .text.HttpSendError:00000060 $d
C:\Users\jo\AppData\Local\Temp\ccN6q2EI.s:368    .text.HttpSendRedirection:00000000 $t
C:\Users\jo\AppData\Local\Temp\ccN6q2EI.s:374    .text.HttpSendRedirection:00000000 HttpSendRedirection
C:\Users\jo\AppData\Local\Temp\ccN6q2EI.s:535    .text.HttpSendRedirection:000000b4 $d
C:\Users\jo\AppData\Local\Temp\ccN6q2EI.s:545    .rodata.body.9137:00000000 $d
C:\Users\jo\AppData\Local\Temp\ccN6q2EI.s:549    .rodata.body.9137:00000000 body.9137
C:\Users\jo\AppData\Local\Temp\ccN6q2EI.s:553    .rodata.fmt_P.9112:00000000 $d
C:\Users\jo\AppData\Local\Temp\ccN6q2EI.s:557    .rodata.fmt_P.9112:00000000 fmt_P.9112
C:\Users\jo\AppData\Local\Temp\ccN6q2EI.s:560    .rodata.response_list:00000000 $d
C:\Users\jo\AppData\Local\Temp\ccN6q2EI.s:564    .rodata.response_list:00000000 response_list
C:\Users\jo\AppData\Local\Temp\ccN6q2EI.s:700    .rodata.str1.4:00000000 $d
C:\Users\jo\AppData\Local\Temp\ccN6q2EI.s:910    .rodata.auth_fmt_P.9125:00000000 $d
C:\Users\jo\AppData\Local\Temp\ccN6q2EI.s:914    .rodata.auth_fmt_P.9125:00000000 auth_fmt_P.9125
C:\Users\jo\AppData\Local\Temp\ccN6q2EI.s:917    .rodata.body.9123:00000000 $d
C:\Users\jo\AppData\Local\Temp\ccN6q2EI.s:921    .rodata.body.9123:00000000 body.9123
                     .debug_frame:00000010 $d
C:\Users\jo\AppData\Local\Temp\ccN6q2EI.s:116    .text.HttpResponseText:0000004c $t
C:\Users\jo\AppData\Local\Temp\ccN6q2EI.s:168    .text.HttpSendHeaderTop:00000028 $t
C:\Users\jo\AppData\Local\Temp\ccN6q2EI.s:264    .text.HttpSendHeaderBottom:00000068 $t
C:\Users\jo\AppData\Local\Temp\ccN6q2EI.s:544    .text.HttpSendRedirection:000000cc $t

UNDEFINED SYMBOLS
s_printf
s_vputs
s_puts
ct_Content_Type
ct_Content_Length
strlen
s_flush
malloc
strcat
free
ct_Location
