ARM GAS  C:\Users\jo\AppData\Local\Temp\ccqE6SHC.s 			page 1


   1              		.syntax unified
   2              		.cpu cortex-m4
   3              		.fpu softvfp
   4              		.eabi_attribute 20, 1
   5              		.eabi_attribute 21, 1
   6              		.eabi_attribute 23, 3
   7              		.eabi_attribute 24, 1
   8              		.eabi_attribute 25, 1
   9              		.eabi_attribute 26, 1
  10              		.eabi_attribute 30, 2
  11              		.eabi_attribute 34, 1
  12              		.eabi_attribute 18, 4
  13              		.thumb
  14              		.file	"rtc.c"
  15              		.text
  16              	.Ltext0:
  17              		.cfi_sections	.debug_frame
  18              		.section	.text.rtcInit,"ax",%progbits
  19              		.align	2
  20              		.p2align 4,,15
  21              		.global	rtcInit
  22              		.thumb
  23              		.thumb_func
  24              		.type	rtcInit, %function
  25              	rtcInit:
  26              	.LFB255:
  27              		.file 1 "../../../os/hal/src/rtc.c"
  28              		.loc 1 70 0
  29              		.cfi_startproc
  30              		@ args = 0, pretend = 0, frame = 0
  31              		@ frame_needed = 0, uses_anonymous_args = 0
  32              		@ link register save eliminated.
  33              		.loc 1 72 0
  34 0000 FFF7FEBF 		b	rtc_lld_init
  35              	.LVL0:
  36              		.cfi_endproc
  37              	.LFE255:
  38              		.size	rtcInit, .-rtcInit
  39 0004 AFF30080 		.section	.text.rtcObjectInit,"ax",%progbits
  39      AFF30080 
  39      AFF30080 
  40              		.align	2
  41              		.p2align 4,,15
  42              		.global	rtcObjectInit
  43              		.thumb
  44              		.thumb_func
  45              		.type	rtcObjectInit, %function
  46              	rtcObjectInit:
  47              	.LFB256:
  48              		.loc 1 84 0
  49              		.cfi_startproc
  50              		@ args = 0, pretend = 0, frame = 0
  51              		@ frame_needed = 0, uses_anonymous_args = 0
  52              		@ link register save eliminated.
  53              	.LVL1:
  54 0000 7047     		bx	lr
  55              		.cfi_endproc
ARM GAS  C:\Users\jo\AppData\Local\Temp\ccqE6SHC.s 			page 2


  56              	.LFE256:
  57              		.size	rtcObjectInit, .-rtcObjectInit
  58 0002 00BFAFF3 		.section	.text.rtcSetTime,"ax",%progbits
  58      0080AFF3 
  58      0080AFF3 
  58      0080
  59              		.align	2
  60              		.p2align 4,,15
  61              		.global	rtcSetTime
  62              		.thumb
  63              		.thumb_func
  64              		.type	rtcSetTime, %function
  65              	rtcSetTime:
  66              	.LFB257:
  67              		.loc 1 107 0
  68              		.cfi_startproc
  69              		@ args = 0, pretend = 0, frame = 8
  70              		@ frame_needed = 0, uses_anonymous_args = 0
  71              	.LVL2:
  72              		.loc 1 107 0
  73 0000 10B5     		push	{r4, lr}
  74              		.cfi_def_cfa_offset 8
  75              		.cfi_offset 4, -8
  76              		.cfi_offset 14, -4
  77              		.loc 1 109 0
  78 0002 0446     		mov	r4, r0
  79              		.loc 1 107 0
  80 0004 82B0     		sub	sp, sp, #8
  81              		.cfi_def_cfa_offset 16
  82              		.loc 1 109 0
  83 0006 30B1     		cbz	r0, .L4
  84              		.loc 1 109 0 is_stmt 0 discriminator 2
  85 0008 29B1     		cbz	r1, .L4
  86              		.loc 1 111 0 is_stmt 1
  87 000a 2046     		mov	r0, r4
  88              		.loc 1 112 0
  89 000c 02B0     		add	sp, sp, #8
  90              		.cfi_remember_state
  91              		.cfi_def_cfa_offset 8
  92              		@ sp needed
  93 000e BDE81040 		pop	{r4, lr}
  94              		.cfi_restore 14
  95              		.cfi_restore 4
  96              		.cfi_def_cfa_offset 0
  97              		.loc 1 111 0
  98 0012 FFF7FEBF 		b	rtc_lld_set_time
  99              	.LVL3:
 100              	.L4:
 101              		.cfi_restore_state
 102              		.loc 1 109 0 discriminator 3
 103 0016 0548     		ldr	r0, .L11
 104              	.LVL4:
 105 0018 0191     		str	r1, [sp, #4]
 106 001a FFF7FEFF 		bl	chSysHalt
 107              	.LVL5:
 108 001e 0199     		ldr	r1, [sp, #4]
 109              		.loc 1 111 0 discriminator 3
ARM GAS  C:\Users\jo\AppData\Local\Temp\ccqE6SHC.s 			page 3


 110 0020 2046     		mov	r0, r4
 111              		.loc 1 112 0 discriminator 3
 112 0022 02B0     		add	sp, sp, #8
 113              		.cfi_def_cfa_offset 8
 114              		@ sp needed
 115 0024 BDE81040 		pop	{r4, lr}
 116              		.cfi_restore 4
 117              		.cfi_restore 14
 118              		.cfi_def_cfa_offset 0
 119              	.LVL6:
 120              		.loc 1 111 0 discriminator 3
 121 0028 FFF7FEBF 		b	rtc_lld_set_time
 122              	.LVL7:
 123              	.L12:
 124              		.align	2
 125              	.L11:
 126 002c 00000000 		.word	.LANCHOR0
 127              		.cfi_endproc
 128              	.LFE257:
 129              		.size	rtcSetTime, .-rtcSetTime
 130              		.section	.text.rtcGetTime,"ax",%progbits
 131              		.align	2
 132              		.p2align 4,,15
 133              		.global	rtcGetTime
 134              		.thumb
 135              		.thumb_func
 136              		.type	rtcGetTime, %function
 137              	rtcGetTime:
 138              	.LFB258:
 139              		.loc 1 128 0
 140              		.cfi_startproc
 141              		@ args = 0, pretend = 0, frame = 8
 142              		@ frame_needed = 0, uses_anonymous_args = 0
 143              	.LVL8:
 144 0000 10B5     		push	{r4, lr}
 145              		.cfi_def_cfa_offset 8
 146              		.cfi_offset 4, -8
 147              		.cfi_offset 14, -4
 148              		.loc 1 130 0
 149 0002 0446     		mov	r4, r0
 150              		.loc 1 128 0
 151 0004 82B0     		sub	sp, sp, #8
 152              		.cfi_def_cfa_offset 16
 153              		.loc 1 130 0
 154 0006 30B1     		cbz	r0, .L14
 155              		.loc 1 130 0 is_stmt 0 discriminator 2
 156 0008 29B1     		cbz	r1, .L14
 157              		.loc 1 132 0 is_stmt 1
 158 000a 2046     		mov	r0, r4
 159              		.loc 1 133 0
 160 000c 02B0     		add	sp, sp, #8
 161              		.cfi_remember_state
 162              		.cfi_def_cfa_offset 8
 163              		@ sp needed
 164 000e BDE81040 		pop	{r4, lr}
 165              		.cfi_restore 14
 166              		.cfi_restore 4
ARM GAS  C:\Users\jo\AppData\Local\Temp\ccqE6SHC.s 			page 4


 167              		.cfi_def_cfa_offset 0
 168              		.loc 1 132 0
 169 0012 FFF7FEBF 		b	rtc_lld_get_time
 170              	.LVL9:
 171              	.L14:
 172              		.cfi_restore_state
 173              		.loc 1 130 0 discriminator 3
 174 0016 0548     		ldr	r0, .L20
 175              	.LVL10:
 176 0018 0191     		str	r1, [sp, #4]
 177 001a FFF7FEFF 		bl	chSysHalt
 178              	.LVL11:
 179 001e 0199     		ldr	r1, [sp, #4]
 180              		.loc 1 132 0 discriminator 3
 181 0020 2046     		mov	r0, r4
 182              		.loc 1 133 0 discriminator 3
 183 0022 02B0     		add	sp, sp, #8
 184              		.cfi_def_cfa_offset 8
 185              		@ sp needed
 186 0024 BDE81040 		pop	{r4, lr}
 187              		.cfi_restore 4
 188              		.cfi_restore 14
 189              		.cfi_def_cfa_offset 0
 190              	.LVL12:
 191              		.loc 1 132 0 discriminator 3
 192 0028 FFF7FEBF 		b	rtc_lld_get_time
 193              	.LVL13:
 194              	.L21:
 195              		.align	2
 196              	.L20:
 197 002c 00000000 		.word	.LANCHOR1
 198              		.cfi_endproc
 199              	.LFE258:
 200              		.size	rtcGetTime, .-rtcGetTime
 201              		.section	.text.rtcSetAlarm,"ax",%progbits
 202              		.align	2
 203              		.p2align 4,,15
 204              		.global	rtcSetAlarm
 205              		.thumb
 206              		.thumb_func
 207              		.type	rtcSetAlarm, %function
 208              	rtcSetAlarm:
 209              	.LFB259:
 210              		.loc 1 153 0
 211              		.cfi_startproc
 212              		@ args = 0, pretend = 0, frame = 0
 213              		@ frame_needed = 0, uses_anonymous_args = 0
 214              	.LVL14:
 215 0000 70B5     		push	{r4, r5, r6, lr}
 216              		.cfi_def_cfa_offset 16
 217              		.cfi_offset 4, -16
 218              		.cfi_offset 5, -12
 219              		.cfi_offset 6, -8
 220              		.cfi_offset 14, -4
 221              		.loc 1 153 0
 222 0002 0D46     		mov	r5, r1
 223 0004 1646     		mov	r6, r2
ARM GAS  C:\Users\jo\AppData\Local\Temp\ccqE6SHC.s 			page 5


 224              		.loc 1 155 0
 225 0006 0446     		mov	r4, r0
 226 0008 08B1     		cbz	r0, .L23
 227              		.loc 1 155 0 is_stmt 0 discriminator 2
 228 000a 0129     		cmp	r1, #1
 229 000c 02D9     		bls	.L24
 230              	.L23:
 231              		.loc 1 155 0 discriminator 3
 232 000e 0548     		ldr	r0, .L29
 233              	.LVL15:
 234 0010 FFF7FEFF 		bl	chSysHalt
 235              	.LVL16:
 236              	.L24:
 237              		.loc 1 157 0 is_stmt 1
 238 0014 2046     		mov	r0, r4
 239 0016 2946     		mov	r1, r5
 240 0018 3246     		mov	r2, r6
 241              		.loc 1 158 0
 242 001a BDE87040 		pop	{r4, r5, r6, lr}
 243              		.cfi_restore 14
 244              		.cfi_restore 6
 245              		.cfi_restore 5
 246              		.cfi_restore 4
 247              		.cfi_def_cfa_offset 0
 248              	.LVL17:
 249              		.loc 1 157 0
 250 001e FFF7FEBF 		b	rtc_lld_set_alarm
 251              	.LVL18:
 252              	.L30:
 253 0022 00BF     		.align	2
 254              	.L29:
 255 0024 00000000 		.word	.LANCHOR2
 256              		.cfi_endproc
 257              	.LFE259:
 258              		.size	rtcSetAlarm, .-rtcSetAlarm
 259 0028 AFF30080 		.section	.text.rtcGetAlarm,"ax",%progbits
 259      AFF30080 
 260              		.align	2
 261              		.p2align 4,,15
 262              		.global	rtcGetAlarm
 263              		.thumb
 264              		.thumb_func
 265              		.type	rtcGetAlarm, %function
 266              	rtcGetAlarm:
 267              	.LFB260:
 268              		.loc 1 179 0
 269              		.cfi_startproc
 270              		@ args = 0, pretend = 0, frame = 0
 271              		@ frame_needed = 0, uses_anonymous_args = 0
 272              	.LVL19:
 273 0000 70B5     		push	{r4, r5, r6, lr}
 274              		.cfi_def_cfa_offset 16
 275              		.cfi_offset 4, -16
 276              		.cfi_offset 5, -12
 277              		.cfi_offset 6, -8
 278              		.cfi_offset 14, -4
 279              		.loc 1 179 0
ARM GAS  C:\Users\jo\AppData\Local\Temp\ccqE6SHC.s 			page 6


 280 0002 0D46     		mov	r5, r1
 281 0004 1646     		mov	r6, r2
 282              		.loc 1 181 0
 283 0006 0446     		mov	r4, r0
 284 0008 08B1     		cbz	r0, .L32
 285              		.loc 1 181 0 is_stmt 0 discriminator 2
 286 000a 0129     		cmp	r1, #1
 287 000c 09D9     		bls	.L39
 288              	.L32:
 289              		.loc 1 181 0 discriminator 5
 290 000e 0948     		ldr	r0, .L40
 291              	.LVL20:
 292 0010 FFF7FEFF 		bl	chSysHalt
 293              	.LVL21:
 294              		.loc 1 183 0 is_stmt 1 discriminator 5
 295 0014 2046     		mov	r0, r4
 296 0016 2946     		mov	r1, r5
 297 0018 3246     		mov	r2, r6
 298              		.loc 1 184 0 discriminator 5
 299 001a BDE87040 		pop	{r4, r5, r6, lr}
 300              		.cfi_remember_state
 301              		.cfi_restore 14
 302              		.cfi_restore 6
 303              		.cfi_restore 5
 304              		.cfi_restore 4
 305              		.cfi_def_cfa_offset 0
 306              	.LVL22:
 307              		.loc 1 183 0 discriminator 5
 308 001e FFF7FEBF 		b	rtc_lld_get_alarm
 309              	.LVL23:
 310              	.L39:
 311              		.cfi_restore_state
 312              		.loc 1 181 0 discriminator 4
 313 0022 002A     		cmp	r2, #0
 314 0024 F3D0     		beq	.L32
 315              		.loc 1 183 0
 316 0026 2046     		mov	r0, r4
 317              	.LVL24:
 318 0028 2946     		mov	r1, r5
 319              	.LVL25:
 320 002a 3246     		mov	r2, r6
 321              	.LVL26:
 322              		.loc 1 184 0
 323 002c BDE87040 		pop	{r4, r5, r6, lr}
 324              		.cfi_restore 4
 325              		.cfi_restore 5
 326              		.cfi_restore 6
 327              		.cfi_restore 14
 328              		.cfi_def_cfa_offset 0
 329              	.LVL27:
 330              		.loc 1 183 0
 331 0030 FFF7FEBF 		b	rtc_lld_get_alarm
 332              	.LVL28:
 333              	.L41:
 334              		.align	2
 335              	.L40:
 336 0034 00000000 		.word	.LANCHOR3
ARM GAS  C:\Users\jo\AppData\Local\Temp\ccqE6SHC.s 			page 7


 337              		.cfi_endproc
 338              	.LFE260:
 339              		.size	rtcGetAlarm, .-rtcGetAlarm
 340 0038 AFF30080 		.section	.text.rtcConvertDateTimeToStructTm,"ax",%progbits
 340      AFF30080 
 341              		.align	2
 342              		.p2align 4,,15
 343              		.global	rtcConvertDateTimeToStructTm
 344              		.thumb
 345              		.thumb_func
 346              		.type	rtcConvertDateTimeToStructTm, %function
 347              	rtcConvertDateTimeToStructTm:
 348              	.LFB261:
 349              		.loc 1 221 0
 350              		.cfi_startproc
 351              		@ args = 0, pretend = 0, frame = 0
 352              		@ frame_needed = 0, uses_anonymous_args = 0
 353              	.LVL29:
 354              		.loc 1 229 0
 355 0000 4268     		ldr	r2, [r0, #4]
 356 0002 1C4B     		ldr	r3, .L44
 357              		.loc 1 230 0
 358 0004 DFF870C0 		ldr	ip, .L44+4
 359              		.loc 1 229 0
 360 0008 C2F31A02 		ubfx	r2, r2, #0, #27
 361 000c 83FB0232 		smull	r3, r2, r3, r2
 362 0010 9209     		lsrs	r2, r2, #6
 363              	.LVL30:
 364              		.loc 1 221 0
 365 0012 2DE9F041 		push	{r4, r5, r6, r7, r8, lr}
 366              		.cfi_def_cfa_offset 24
 367              		.cfi_offset 4, -24
 368              		.cfi_offset 5, -20
 369              		.cfi_offset 6, -16
 370              		.cfi_offset 7, -12
 371              		.cfi_offset 8, -8
 372              		.cfi_offset 14, -4
 373              		.loc 1 225 0
 374 0016 4478     		ldrb	r4, [r0, #1]	@ zero_extendqisi2
 375              		.loc 1 224 0
 376 0018 0778     		ldrb	r7, [r0]	@ zero_extendqisi2
 377              		.loc 1 226 0
 378 001a 8678     		ldrb	r6, [r0, #2]	@ zero_extendqisi2
 379              		.loc 1 232 0
 380 001c DFF85CE0 		ldr	lr, .L44+8
 381              		.loc 1 230 0
 382 0020 ACFB0230 		umull	r3, r0, ip, r2
 383              	.LVL31:
 384 0024 4009     		lsrs	r0, r0, #5
 385 0026 C0EB0010 		rsb	r0, r0, r0, lsl #4
 386 002a A2EB8000 		sub	r0, r2, r0, lsl #2
 387              		.loc 1 231 0
 388 002e 131A     		subs	r3, r2, r0
 389              	.LVL32:
 390              		.loc 1 232 0
 391 0030 AEFB0382 		umull	r8, r2, lr, r3
 392 0034 D20A     		lsrs	r2, r2, #11
ARM GAS  C:\Users\jo\AppData\Local\Temp\ccqE6SHC.s 			page 8


 393 0036 4FF46168 		mov	r8, #3600
 394 003a 08FB1232 		mls	r2, r8, r2, r3
 395 003e ACFB02C2 		umull	ip, r2, ip, r2
 396 0042 5209     		lsrs	r2, r2, #5
 397              		.loc 1 233 0
 398 0044 A2EB021C 		sub	ip, r2, r2, lsl #4
 399 0048 03EB8C03 		add	r3, r3, ip, lsl #2
 400              	.LVL33:
 401              		.loc 1 227 0
 402 004c 2546     		mov	r5, r4
 403              		.loc 1 234 0
 404 004e AEFB03E3 		umull	lr, r3, lr, r3
 405              		.loc 1 225 0
 406 0052 04F00F04 		and	r4, r4, #15
 407              		.loc 1 224 0
 408 0056 5037     		adds	r7, r7, #80
 409              		.loc 1 225 0
 410 0058 013C     		subs	r4, r4, #1
 411              		.loc 1 226 0
 412 005a 06F01F06 		and	r6, r6, #31
 413              		.loc 1 227 0
 414 005e C5F30015 		ubfx	r5, r5, #4, #1
 415              		.loc 1 234 0
 416 0062 DB0A     		lsrs	r3, r3, #11
 417              		.loc 1 224 0
 418 0064 4F61     		str	r7, [r1, #20]
 419              		.loc 1 225 0
 420 0066 0C61     		str	r4, [r1, #16]
 421              		.loc 1 226 0
 422 0068 CE60     		str	r6, [r1, #12]
 423              		.loc 1 227 0
 424 006a 0D62     		str	r5, [r1, #32]
 425              		.loc 1 234 0
 426 006c 81E80D00 		stmia	r1, {r0, r2, r3}
 427 0070 BDE8F081 		pop	{r4, r5, r6, r7, r8, pc}
 428              	.L45:
 429              		.align	2
 430              	.L44:
 431 0074 D34D6210 		.word	274877907
 432 0078 89888888 		.word	-2004318071
 433 007c C5B3A291 		.word	-1851608123
 434              		.cfi_endproc
 435              	.LFE261:
 436              		.size	rtcConvertDateTimeToStructTm, .-rtcConvertDateTimeToStructTm
 437              		.section	.text.rtcConvertStructTmToDateTime,"ax",%progbits
 438              		.align	2
 439              		.p2align 4,,15
 440              		.global	rtcConvertStructTmToDateTime
 441              		.thumb
 442              		.thumb_func
 443              		.type	rtcConvertStructTmToDateTime, %function
 444              	rtcConvertStructTmToDateTime:
 445              	.LFB262:
 446              		.loc 1 248 0
 447              		.cfi_startproc
 448              		@ args = 0, pretend = 0, frame = 0
 449              		@ frame_needed = 0, uses_anonymous_args = 0
ARM GAS  C:\Users\jo\AppData\Local\Temp\ccqE6SHC.s 			page 9


 450              	.LVL34:
 451 0000 F0B5     		push	{r4, r5, r6, r7, lr}
 452              		.cfi_def_cfa_offset 20
 453              		.cfi_offset 4, -20
 454              		.cfi_offset 5, -16
 455              		.cfi_offset 6, -12
 456              		.cfi_offset 7, -8
 457              		.cfi_offset 14, -4
 458              		.loc 1 251 0
 459 0002 0769     		ldr	r7, [r0, #16]
 460              		.loc 1 253 0
 461 0004 8669     		ldr	r6, [r0, #24]
 462              		.loc 1 251 0
 463 0006 5478     		ldrb	r4, [r2, #1]	@ zero_extendqisi2
 464              		.loc 1 250 0
 465 0008 4369     		ldr	r3, [r0, #20]
 466              		.loc 1 254 0
 467 000a 056A     		ldr	r5, [r0, #32]
 468              		.loc 1 252 0
 469 000c 92F802E0 		ldrb	lr, [r2, #2]	@ zero_extendqisi2
 470              		.loc 1 251 0
 471 0010 0137     		adds	r7, r7, #1
 472 0012 67F30304 		bfi	r4, r7, #0, #4
 473              		.loc 1 253 0
 474 0016 0136     		adds	r6, r6, #1
 475 0018 66F34714 		bfi	r4, r6, #5, #3
 476              		.loc 1 250 0
 477 001c 503B     		subs	r3, r3, #80
 478              		.loc 1 252 0
 479 001e C768     		ldr	r7, [r0, #12]
 480              		.loc 1 253 0
 481 0020 5470     		strb	r4, [r2, #1]
 482              		.loc 1 250 0
 483 0022 1370     		strb	r3, [r2]
 484              		.loc 1 254 0
 485 0024 6B1C     		adds	r3, r5, #1
 486              		.loc 1 257 0
 487 0026 15BF     		itete	ne
 488 0028 5378     		ldrbne	r3, [r2, #1]	@ zero_extendqisi2
 489              		.loc 1 255 0
 490 002a E3B2     		uxtbeq	r3, r4
 491              		.loc 1 257 0
 492 002c 65F30413 		bfine	r3, r5, #4, #1
 493              		.loc 1 255 0
 494 0030 6FF30413 		bfceq	r3, #4, #1
 495              		.loc 1 257 0
 496 0034 5370     		strb	r3, [r2, #1]
 497              		.loc 1 259 0
 498 0036 19C8     		ldmia	r0, {r0, r3, r4}
 499              	.LVL35:
 500 0038 C3EB0313 		rsb	r3, r3, r3, lsl #4
 501 003c 9B00     		lsls	r3, r3, #2
 502 003e 4FF46166 		mov	r6, #3600
 503 0042 06FB0433 		mla	r3, r6, r4, r3
 504              		.loc 1 258 0
 505 0046 5568     		ldr	r5, [r2, #4]
 506              		.loc 1 259 0
ARM GAS  C:\Users\jo\AppData\Local\Temp\ccqE6SHC.s 			page 10


 507 0048 0344     		add	r3, r3, r0
 508 004a 4FF47A70 		mov	r0, #1000
 509              		.loc 1 258 0
 510 004e 00FB0311 		mla	r1, r0, r3, r1
 511              	.LVL36:
 512              		.loc 1 252 0
 513 0052 67F3040E 		bfi	lr, r7, #0, #5
 514              		.loc 1 258 0
 515 0056 61F31A05 		bfi	r5, r1, #0, #27
 516              		.loc 1 252 0
 517 005a 82F802E0 		strb	lr, [r2, #2]
 518              		.loc 1 258 0
 519 005e 5560     		str	r5, [r2, #4]
 520 0060 F0BD     		pop	{r4, r5, r6, r7, pc}
 521              		.cfi_endproc
 522              	.LFE262:
 523              		.size	rtcConvertStructTmToDateTime, .-rtcConvertStructTmToDateTime
 524 0062 00BFAFF3 		.section	.text.rtcConvertDateTimeToFAT,"ax",%progbits
 524      0080AFF3 
 524      0080AFF3 
 524      0080
 525              		.align	2
 526              		.p2align 4,,15
 527              		.global	rtcConvertDateTimeToFAT
 528              		.thumb
 529              		.thumb_func
 530              		.type	rtcConvertDateTimeToFAT, %function
 531              	rtcConvertDateTimeToFAT:
 532              	.LFB263:
 533              		.loc 1 272 0
 534              		.cfi_startproc
 535              		@ args = 0, pretend = 0, frame = 0
 536              		@ frame_needed = 0, uses_anonymous_args = 0
 537              		@ link register save eliminated.
 538              	.LVL37:
 539              		.loc 1 276 0
 540 0000 4268     		ldr	r2, [r0, #4]
 541 0002 234B     		ldr	r3, .L57
 542 0004 C2F31A01 		ubfx	r1, r2, #0, #27
 543              		.loc 1 272 0
 544 0008 F0B4     		push	{r4, r5, r6, r7}
 545              		.cfi_def_cfa_offset 16
 546              		.cfi_offset 4, -16
 547              		.cfi_offset 5, -12
 548              		.cfi_offset 6, -8
 549              		.cfi_offset 7, -4
 550              		.loc 1 276 0
 551 000a 83FB0123 		smull	r2, r3, r3, r1
 552              		.loc 1 277 0
 553 000e 214D     		ldr	r5, .L57+4
 554              		.loc 1 278 0
 555 0010 214F     		ldr	r7, .L57+8
 556              		.loc 1 281 0
 557 0012 4678     		ldrb	r6, [r0, #1]	@ zero_extendqisi2
 558              		.loc 1 280 0
 559 0014 8478     		ldrb	r4, [r0, #2]	@ zero_extendqisi2
 560              		.loc 1 276 0
ARM GAS  C:\Users\jo\AppData\Local\Temp\ccqE6SHC.s 			page 11


 561 0016 9B09     		lsrs	r3, r3, #6
 562              	.LVL38:
 563              		.loc 1 277 0
 564 0018 A5FB0321 		umull	r2, r1, r5, r3
 565 001c 4909     		lsrs	r1, r1, #5
 566 001e C1EB0111 		rsb	r1, r1, r1, lsl #4
 567 0022 A3EB8101 		sub	r1, r3, r1, lsl #2
 568              	.LVL39:
 569              		.loc 1 278 0
 570 0026 5B1A     		subs	r3, r3, r1
 571              	.LVL40:
 572 0028 A7FB0325 		umull	r2, r5, r7, r3
 573 002c ED0A     		lsrs	r5, r5, #11
 574 002e 4FF46162 		mov	r2, #3600
 575 0032 02FB1535 		mls	r5, r2, r5, r3
 576              	.LVL41:
 577              		.loc 1 279 0
 578 0036 C5EB0512 		rsb	r2, r5, r5, lsl #4
 579 003a A3EB8203 		sub	r3, r3, r2, lsl #2
 580 003e A7FB0332 		umull	r3, r2, r7, r3
 581              		.loc 1 284 0
 582 0042 F306     		lsls	r3, r6, #27
 583              		.loc 1 279 0
 584 0044 4FEAD222 		lsr	r2, r2, #11
 585              	.LVL42:
 586              		.loc 1 280 0
 587 0048 04F01F04 		and	r4, r4, #31
 588              	.LVL43:
 589              		.loc 1 281 0
 590 004c 06F00F07 		and	r7, r6, #15
 591              	.LVL44:
 592              		.loc 1 284 0
 593 0050 02D5     		bpl	.L56
 594              		.loc 1 285 0
 595 0052 0132     		adds	r2, r2, #1
 596              	.LVL45:
 597              		.loc 1 286 0
 598 0054 182A     		cmp	r2, #24
 599 0056 0ED0     		beq	.L53
 600              	.L56:
 601 0058 D202     		lsls	r2, r2, #11
 602              	.LVL46:
 603 005a 2404     		lsls	r4, r4, #16
 604              	.LVL47:
 605              	.L52:
 606              		.loc 1 301 0
 607 005c 0378     		ldrb	r3, [r0]	@ zero_extendqisi2
 608 005e 5B06     		lsls	r3, r3, #25
 609 0060 43EA5103 		orr	r3, r3, r1, lsr #1
 610 0064 43EA4513 		orr	r3, r3, r5, lsl #5
 611 0068 1343     		orrs	r3, r3, r2
 612 006a 43EA0400 		orr	r0, r3, r4
 613              	.LVL48:
 614              		.loc 1 304 0
 615 006e 40EA4750 		orr	r0, r0, r7, lsl #21
 616              	.LVL49:
 617 0072 F0BC     		pop	{r4, r5, r6, r7}
ARM GAS  C:\Users\jo\AppData\Local\Temp\ccqE6SHC.s 			page 12


 618              		.cfi_remember_state
 619              		.cfi_restore 7
 620              		.cfi_restore 6
 621              		.cfi_restore 5
 622              		.cfi_restore 4
 623              		.cfi_def_cfa_offset 0
 624              	.LVL50:
 625 0074 7047     		bx	lr
 626              	.LVL51:
 627              	.L53:
 628              		.cfi_restore_state
 629              		.loc 1 289 0
 630 0076 094B     		ldr	r3, .L57+12
 631 0078 3B44     		add	r3, r3, r7
 632              		.loc 1 288 0
 633 007a 0134     		adds	r4, r4, #1
 634              	.LVL52:
 635              		.loc 1 289 0
 636 007c 13F8013C 		ldrb	r3, [r3, #-1]	@ zero_extendqisi2
 637 0080 9C42     		cmp	r4, r3
 638 0082 92BF     		itee	ls
 639 0084 2404     		lslls	r4, r4, #16
 640              	.LVL53:
 641              		.loc 1 291 0
 642 0086 0137     		addhi	r7, r7, #1
 643              	.LVL54:
 644 0088 4FF48034 		movhi	r4, #65536
 645 008c 0022     		movs	r2, #0
 646 008e E5E7     		b	.L52
 647              	.L58:
 648              		.align	2
 649              	.L57:
 650 0090 D34D6210 		.word	274877907
 651 0094 89888888 		.word	-2004318071
 652 0098 C5B3A291 		.word	-1851608123
 653 009c 00000000 		.word	.LANCHOR4
 654              		.cfi_endproc
 655              	.LFE263:
 656              		.size	rtcConvertDateTimeToFAT, .-rtcConvertDateTimeToFAT
 657              		.section	.rodata.__func__.8205,"a",%progbits
 658              		.align	2
 659              		.set	.LANCHOR2,. + 0
 660              		.type	__func__.8205, %object
 661              		.size	__func__.8205, 12
 662              	__func__.8205:
 663 0000 72746353 		.ascii	"rtcSetAlarm\000"
 663      6574416C 
 663      61726D00 
 664              		.section	.rodata.__func__.8211,"a",%progbits
 665              		.align	2
 666              		.set	.LANCHOR3,. + 0
 667              		.type	__func__.8211, %object
 668              		.size	__func__.8211, 12
 669              	__func__.8211:
 670 0000 72746347 		.ascii	"rtcGetAlarm\000"
 670      6574416C 
 670      61726D00 
ARM GAS  C:\Users\jo\AppData\Local\Temp\ccqE6SHC.s 			page 13


 671              		.section	.rodata.month_len,"a",%progbits
 672              		.align	2
 673              		.set	.LANCHOR4,. + 0
 674              		.type	month_len, %object
 675              		.size	month_len, 12
 676              	month_len:
 677 0000 1F       		.byte	31
 678 0001 1E       		.byte	30
 679 0002 1F       		.byte	31
 680 0003 1E       		.byte	30
 681 0004 1F       		.byte	31
 682 0005 1E       		.byte	30
 683 0006 1F       		.byte	31
 684 0007 1F       		.byte	31
 685 0008 1E       		.byte	30
 686 0009 1F       		.byte	31
 687 000a 1E       		.byte	30
 688 000b 1F       		.byte	31
 689              		.section	.rodata.__func__.8194,"a",%progbits
 690              		.align	2
 691              		.set	.LANCHOR0,. + 0
 692              		.type	__func__.8194, %object
 693              		.size	__func__.8194, 11
 694              	__func__.8194:
 695 0000 72746353 		.ascii	"rtcSetTime\000"
 695      65745469 
 695      6D6500
 696 000b 00       		.section	.rodata.__func__.8199,"a",%progbits
 697              		.align	2
 698              		.set	.LANCHOR1,. + 0
 699              		.type	__func__.8199, %object
 700              		.size	__func__.8199, 11
 701              	__func__.8199:
 702 0000 72746347 		.ascii	"rtcGetTime\000"
 702      65745469 
 702      6D6500
 703 000b 00       		.text
 704              	.Letext0:
 705              		.file 2 "c:\\program files\\gnu tools arm embedded\\4.9 2014q4\\lib\\gcc\\arm-none-eabi\\4.9.3\\in
 706              		.file 3 "c:\\program files\\gnu tools arm embedded\\4.9 2014q4\\arm-none-eabi\\include\\machine\\_
 707              		.file 4 "c:\\program files\\gnu tools arm embedded\\4.9 2014q4\\arm-none-eabi\\include\\stdint.h"
 708              		.file 5 "../../../os/rt/ports/ARMCMx/compilers/GCC/chtypes.h"
 709              		.file 6 "../../../os/rt/include/chsystypes.h"
 710              		.file 7 "../../../os/rt/include/chschd.h"
 711              		.file 8 "../../../os/ext/CMSIS/ST/stm32f407xx.h"
 712              		.file 9 "../../../os/rt/ports/ARMCMx/chcore.h"
 713              		.file 10 "../../../os/rt/ports/ARMCMx/chcore_v7m.h"
 714              		.file 11 "../../../os/rt/include/chdebug.h"
 715              		.file 12 "../../../os/rt/include/chtm.h"
 716              		.file 13 "../../../os/rt/include/chstats.h"
 717              		.file 14 "../../../os/rt/include/chmtx.h"
 718              		.file 15 "c:\\program files\\gnu tools arm embedded\\4.9 2014q4\\arm-none-eabi\\include\\time.h"
 719              		.file 16 "../../../os/hal/include/rtc.h"
 720              		.file 17 "../../../os/hal/ports/STM32/LLD/RTCv2/rtc_lld.h"
 721              		.file 18 "../../../os/rt/include/chsys.h"
 722              		.file 19 "../../../os/ext/CMSIS/include/core_cm4.h"
 723              		.section	.debug_info,"",%progbits
ARM GAS  C:\Users\jo\AppData\Local\Temp\ccqE6SHC.s 			page 14


 724              	.Ldebug_info0:
 725 0000 830F0000 		.4byte	0xf83
 726 0004 0400     		.2byte	0x4
 727 0006 00000000 		.4byte	.Ldebug_abbrev0
 728 000a 04       		.byte	0x4
 729 000b 01       		.uleb128 0x1
 730 000c 2A040000 		.4byte	.LASF200
 731 0010 01       		.byte	0x1
 732 0011 83000000 		.4byte	.LASF201
 733 0015 89010000 		.4byte	.LASF202
 734 0019 00000000 		.4byte	.Ldebug_ranges0+0
 735 001d 00000000 		.4byte	0
 736 0021 00000000 		.4byte	.Ldebug_line0
 737 0025 02       		.uleb128 0x2
 738 0026 08       		.byte	0x8
 739 0027 07       		.byte	0x7
 740 0028 C8000000 		.4byte	.LASF0
 741 002c 02       		.uleb128 0x2
 742 002d 04       		.byte	0x4
 743 002e 07       		.byte	0x7
 744 002f 4E070000 		.4byte	.LASF1
 745 0033 03       		.uleb128 0x3
 746 0034 04       		.byte	0x4
 747 0035 05       		.byte	0x5
 748 0036 696E7400 		.ascii	"int\000"
 749 003a 04       		.uleb128 0x4
 750 003b 24000000 		.4byte	.LASF3
 751 003f 02       		.byte	0x2
 752 0040 D4       		.byte	0xd4
 753 0041 2C000000 		.4byte	0x2c
 754 0045 02       		.uleb128 0x2
 755 0046 01       		.byte	0x1
 756 0047 06       		.byte	0x6
 757 0048 F1010000 		.4byte	.LASF2
 758 004c 04       		.uleb128 0x4
 759 004d 48000000 		.4byte	.LASF4
 760 0051 03       		.byte	0x3
 761 0052 1D       		.byte	0x1d
 762 0053 57000000 		.4byte	0x57
 763 0057 02       		.uleb128 0x2
 764 0058 01       		.byte	0x1
 765 0059 08       		.byte	0x8
 766 005a 8A060000 		.4byte	.LASF5
 767 005e 02       		.uleb128 0x2
 768 005f 02       		.byte	0x2
 769 0060 05       		.byte	0x5
 770 0061 AC060000 		.4byte	.LASF6
 771 0065 02       		.uleb128 0x2
 772 0066 02       		.byte	0x2
 773 0067 07       		.byte	0x7
 774 0068 7E030000 		.4byte	.LASF7
 775 006c 04       		.uleb128 0x4
 776 006d 20040000 		.4byte	.LASF8
 777 0071 03       		.byte	0x3
 778 0072 3F       		.byte	0x3f
 779 0073 77000000 		.4byte	0x77
 780 0077 02       		.uleb128 0x2
ARM GAS  C:\Users\jo\AppData\Local\Temp\ccqE6SHC.s 			page 15


 781 0078 04       		.byte	0x4
 782 0079 05       		.byte	0x5
 783 007a 3E020000 		.4byte	.LASF9
 784 007e 04       		.uleb128 0x4
 785 007f A3070000 		.4byte	.LASF10
 786 0083 03       		.byte	0x3
 787 0084 41       		.byte	0x41
 788 0085 89000000 		.4byte	0x89
 789 0089 02       		.uleb128 0x2
 790 008a 04       		.byte	0x4
 791 008b 07       		.byte	0x7
 792 008c 37070000 		.4byte	.LASF11
 793 0090 02       		.uleb128 0x2
 794 0091 08       		.byte	0x8
 795 0092 05       		.byte	0x5
 796 0093 E3010000 		.4byte	.LASF12
 797 0097 04       		.uleb128 0x4
 798 0098 F4050000 		.4byte	.LASF13
 799 009c 03       		.byte	0x3
 800 009d 5B       		.byte	0x5b
 801 009e 25000000 		.4byte	0x25
 802 00a2 04       		.uleb128 0x4
 803 00a3 6E080000 		.4byte	.LASF14
 804 00a7 04       		.byte	0x4
 805 00a8 15       		.byte	0x15
 806 00a9 4C000000 		.4byte	0x4c
 807 00ad 04       		.uleb128 0x4
 808 00ae 82060000 		.4byte	.LASF15
 809 00b2 04       		.byte	0x4
 810 00b3 2C       		.byte	0x2c
 811 00b4 6C000000 		.4byte	0x6c
 812 00b8 04       		.uleb128 0x4
 813 00b9 63020000 		.4byte	.LASF16
 814 00bd 04       		.byte	0x4
 815 00be 2D       		.byte	0x2d
 816 00bf 7E000000 		.4byte	0x7e
 817 00c3 04       		.uleb128 0x4
 818 00c4 32000000 		.4byte	.LASF17
 819 00c8 04       		.byte	0x4
 820 00c9 39       		.byte	0x39
 821 00ca 97000000 		.4byte	0x97
 822 00ce 05       		.uleb128 0x5
 823 00cf AD000000 		.4byte	0xad
 824 00d3 05       		.uleb128 0x5
 825 00d4 B8000000 		.4byte	0xb8
 826 00d8 04       		.uleb128 0x4
 827 00d9 02080000 		.4byte	.LASF18
 828 00dd 05       		.byte	0x5
 829 00de 45       		.byte	0x45
 830 00df B8000000 		.4byte	0xb8
 831 00e3 04       		.uleb128 0x4
 832 00e4 61010000 		.4byte	.LASF19
 833 00e8 05       		.byte	0x5
 834 00e9 46       		.byte	0x46
 835 00ea C3000000 		.4byte	0xc3
 836 00ee 04       		.uleb128 0x4
 837 00ef EE030000 		.4byte	.LASF20
ARM GAS  C:\Users\jo\AppData\Local\Temp\ccqE6SHC.s 			page 16


 838 00f3 05       		.byte	0x5
 839 00f4 48       		.byte	0x48
 840 00f5 A2000000 		.4byte	0xa2
 841 00f9 04       		.uleb128 0x4
 842 00fa 4D020000 		.4byte	.LASF21
 843 00fe 05       		.byte	0x5
 844 00ff 49       		.byte	0x49
 845 0100 A2000000 		.4byte	0xa2
 846 0104 04       		.uleb128 0x4
 847 0105 1D060000 		.4byte	.LASF22
 848 0109 05       		.byte	0x5
 849 010a 4A       		.byte	0x4a
 850 010b A2000000 		.4byte	0xa2
 851 010f 04       		.uleb128 0x4
 852 0110 5F060000 		.4byte	.LASF23
 853 0114 05       		.byte	0x5
 854 0115 4C       		.byte	0x4c
 855 0116 B8000000 		.4byte	0xb8
 856 011a 04       		.uleb128 0x4
 857 011b D0030000 		.4byte	.LASF24
 858 011f 05       		.byte	0x5
 859 0120 4D       		.byte	0x4d
 860 0121 AD000000 		.4byte	0xad
 861 0125 04       		.uleb128 0x4
 862 0126 14040000 		.4byte	.LASF25
 863 012a 05       		.byte	0x5
 864 012b 4F       		.byte	0x4f
 865 012c B8000000 		.4byte	0xb8
 866 0130 04       		.uleb128 0x4
 867 0131 10030000 		.4byte	.LASF26
 868 0135 05       		.byte	0x5
 869 0136 51       		.byte	0x51
 870 0137 AD000000 		.4byte	0xad
 871 013b 04       		.uleb128 0x4
 872 013c DB030000 		.4byte	.LASF27
 873 0140 05       		.byte	0x5
 874 0141 52       		.byte	0x52
 875 0142 B8000000 		.4byte	0xb8
 876 0146 04       		.uleb128 0x4
 877 0147 85070000 		.4byte	.LASF28
 878 014b 06       		.byte	0x6
 879 014c 33       		.byte	0x33
 880 014d B8000000 		.4byte	0xb8
 881 0151 04       		.uleb128 0x4
 882 0152 6D070000 		.4byte	.LASF29
 883 0156 06       		.byte	0x6
 884 0157 3F       		.byte	0x3f
 885 0158 5C010000 		.4byte	0x15c
 886 015c 06       		.uleb128 0x6
 887 015d A9030000 		.4byte	.LASF50
 888 0161 60       		.byte	0x60
 889 0162 07       		.byte	0x7
 890 0163 BE       		.byte	0xbe
 891 0164 62020000 		.4byte	0x262
 892 0168 07       		.uleb128 0x7
 893 0169 CC060000 		.4byte	.LASF30
 894 016d 07       		.byte	0x7
ARM GAS  C:\Users\jo\AppData\Local\Temp\ccqE6SHC.s 			page 17


 895 016e BF       		.byte	0xbf
 896 016f D5070000 		.4byte	0x7d5
 897 0173 00       		.byte	0
 898 0174 07       		.uleb128 0x7
 899 0175 4E060000 		.4byte	.LASF31
 900 0179 07       		.byte	0x7
 901 017a C1       		.byte	0xc1
 902 017b D5070000 		.4byte	0x7d5
 903 017f 04       		.byte	0x4
 904 0180 07       		.uleb128 0x7
 905 0181 82010000 		.4byte	.LASF32
 906 0185 07       		.byte	0x7
 907 0186 C3       		.byte	0xc3
 908 0187 0F010000 		.4byte	0x10f
 909 018b 08       		.byte	0x8
 910 018c 07       		.uleb128 0x7
 911 018d E7080000 		.4byte	.LASF33
 912 0191 07       		.byte	0x7
 913 0192 C4       		.byte	0xc4
 914 0193 F0060000 		.4byte	0x6f0
 915 0197 0C       		.byte	0xc
 916 0198 07       		.uleb128 0x7
 917 0199 82020000 		.4byte	.LASF34
 918 019d 07       		.byte	0x7
 919 019e C6       		.byte	0xc6
 920 019f D5070000 		.4byte	0x7d5
 921 01a3 10       		.byte	0x10
 922 01a4 07       		.uleb128 0x7
 923 01a5 B7050000 		.4byte	.LASF35
 924 01a9 07       		.byte	0x7
 925 01aa C7       		.byte	0xc7
 926 01ab D5070000 		.4byte	0x7d5
 927 01af 14       		.byte	0x14
 928 01b0 07       		.uleb128 0x7
 929 01b1 99080000 		.4byte	.LASF36
 930 01b5 07       		.byte	0x7
 931 01b6 CE       		.byte	0xce
 932 01b7 91070000 		.4byte	0x791
 933 01bb 18       		.byte	0x18
 934 01bc 07       		.uleb128 0x7
 935 01bd 1C030000 		.4byte	.LASF37
 936 01c1 07       		.byte	0x7
 937 01c2 D4       		.byte	0xd4
 938 01c3 1F090000 		.4byte	0x91f
 939 01c7 1C       		.byte	0x1c
 940 01c8 07       		.uleb128 0x7
 941 01c9 B6060000 		.4byte	.LASF38
 942 01cd 07       		.byte	0x7
 943 01ce D9       		.byte	0xd9
 944 01cf F9000000 		.4byte	0xf9
 945 01d3 20       		.byte	0x20
 946 01d4 07       		.uleb128 0x7
 947 01d5 B3080000 		.4byte	.LASF39
 948 01d9 07       		.byte	0x7
 949 01da DD       		.byte	0xdd
 950 01db EE000000 		.4byte	0xee
 951 01df 21       		.byte	0x21
ARM GAS  C:\Users\jo\AppData\Local\Temp\ccqE6SHC.s 			page 18


 952 01e0 07       		.uleb128 0x7
 953 01e1 4B080000 		.4byte	.LASF40
 954 01e5 07       		.byte	0x7
 955 01e6 E2       		.byte	0xe2
 956 01e7 04010000 		.4byte	0x104
 957 01eb 22       		.byte	0x22
 958 01ec 08       		.uleb128 0x8
 959 01ed 705F7500 		.ascii	"p_u\000"
 960 01f1 07       		.byte	0x7
 961 01f2 1401     		.2byte	0x114
 962 01f4 E7080000 		.4byte	0x8e7
 963 01f8 24       		.byte	0x24
 964 01f9 09       		.uleb128 0x9
 965 01fa 47050000 		.4byte	.LASF41
 966 01fe 07       		.byte	0x7
 967 01ff 1901     		.2byte	0x119
 968 0201 62020000 		.4byte	0x262
 969 0205 28       		.byte	0x28
 970 0206 09       		.uleb128 0x9
 971 0207 43030000 		.4byte	.LASF42
 972 020b 07       		.byte	0x7
 973 020c 1F01     		.2byte	0x11f
 974 020e 86020000 		.4byte	0x286
 975 0212 2C       		.byte	0x2c
 976 0213 09       		.uleb128 0x9
 977 0214 F1060000 		.4byte	.LASF43
 978 0218 07       		.byte	0x7
 979 0219 2301     		.2byte	0x123
 980 021b 1A010000 		.4byte	0x11a
 981 021f 34       		.byte	0x34
 982 0220 09       		.uleb128 0x9
 983 0221 FE060000 		.4byte	.LASF44
 984 0225 07       		.byte	0x7
 985 0226 2901     		.2byte	0x129
 986 0228 25010000 		.4byte	0x125
 987 022c 38       		.byte	0x38
 988 022d 09       		.uleb128 0x9
 989 022e A2060000 		.4byte	.LASF45
 990 0232 07       		.byte	0x7
 991 0233 3001     		.2byte	0x130
 992 0235 56090000 		.4byte	0x956
 993 0239 3C       		.byte	0x3c
 994 023a 09       		.uleb128 0x9
 995 023b 8F070000 		.4byte	.LASF46
 996 023f 07       		.byte	0x7
 997 0240 3401     		.2byte	0x134
 998 0242 0F010000 		.4byte	0x10f
 999 0246 40       		.byte	0x40
 1000 0247 09       		.uleb128 0x9
 1001 0248 05020000 		.4byte	.LASF47
 1002 024c 07       		.byte	0x7
 1003 024d 3A01     		.2byte	0x13a
 1004 024f 39030000 		.4byte	0x339
 1005 0253 44       		.byte	0x44
 1006 0254 09       		.uleb128 0x9
 1007 0255 E3060000 		.4byte	.LASF48
 1008 0259 07       		.byte	0x7
ARM GAS  C:\Users\jo\AppData\Local\Temp\ccqE6SHC.s 			page 19


 1009 025a 4001     		.2byte	0x140
 1010 025c 98080000 		.4byte	0x898
 1011 0260 48       		.byte	0x48
 1012 0261 00       		.byte	0
 1013 0262 04       		.uleb128 0x4
 1014 0263 1F050000 		.4byte	.LASF49
 1015 0267 06       		.byte	0x6
 1016 0268 44       		.byte	0x44
 1017 0269 6D020000 		.4byte	0x26d
 1018 026d 06       		.uleb128 0x6
 1019 026e 27070000 		.4byte	.LASF51
 1020 0272 04       		.byte	0x4
 1021 0273 07       		.byte	0x7
 1022 0274 AC       		.byte	0xac
 1023 0275 86020000 		.4byte	0x286
 1024 0279 07       		.uleb128 0x7
 1025 027a CC060000 		.4byte	.LASF30
 1026 027e 07       		.byte	0x7
 1027 027f AD       		.byte	0xad
 1028 0280 D5070000 		.4byte	0x7d5
 1029 0284 00       		.byte	0
 1030 0285 00       		.byte	0
 1031 0286 04       		.uleb128 0x4
 1032 0287 3B080000 		.4byte	.LASF52
 1033 028b 06       		.byte	0x6
 1034 028c 4B       		.byte	0x4b
 1035 028d 91020000 		.4byte	0x291
 1036 0291 06       		.uleb128 0x6
 1037 0292 5E000000 		.4byte	.LASF53
 1038 0296 08       		.byte	0x8
 1039 0297 07       		.byte	0x7
 1040 0298 B3       		.byte	0xb3
 1041 0299 B6020000 		.4byte	0x2b6
 1042 029d 07       		.uleb128 0x7
 1043 029e CC060000 		.4byte	.LASF30
 1044 02a2 07       		.byte	0x7
 1045 02a3 B4       		.byte	0xb4
 1046 02a4 D5070000 		.4byte	0x7d5
 1047 02a8 00       		.byte	0
 1048 02a9 07       		.uleb128 0x7
 1049 02aa 4E060000 		.4byte	.LASF31
 1050 02ae 07       		.byte	0x7
 1051 02af B5       		.byte	0xb5
 1052 02b0 D5070000 		.4byte	0x7d5
 1053 02b4 04       		.byte	0x4
 1054 02b5 00       		.byte	0
 1055 02b6 04       		.uleb128 0x4
 1056 02b7 0F000000 		.4byte	.LASF54
 1057 02bb 06       		.byte	0x6
 1058 02bc 52       		.byte	0x52
 1059 02bd C1020000 		.4byte	0x2c1
 1060 02c1 0A       		.uleb128 0xa
 1061 02c2 06040000 		.4byte	.LASF55
 1062 02c6 1C       		.byte	0x1c
 1063 02c7 07       		.byte	0x7
 1064 02c8 7201     		.2byte	0x172
 1065 02ca 1D030000 		.4byte	0x31d
ARM GAS  C:\Users\jo\AppData\Local\Temp\ccqE6SHC.s 			page 20


 1066 02ce 09       		.uleb128 0x9
 1067 02cf 16070000 		.4byte	.LASF56
 1068 02d3 07       		.byte	0x7
 1069 02d4 7301     		.2byte	0x173
 1070 02d6 86020000 		.4byte	0x286
 1071 02da 00       		.byte	0
 1072 02db 09       		.uleb128 0x9
 1073 02dc BE060000 		.4byte	.LASF57
 1074 02e0 07       		.byte	0x7
 1075 02e1 7401     		.2byte	0x174
 1076 02e3 0F010000 		.4byte	0x10f
 1077 02e7 08       		.byte	0x8
 1078 02e8 09       		.uleb128 0x9
 1079 02e9 BF050000 		.4byte	.LASF58
 1080 02ed 07       		.byte	0x7
 1081 02ee 7601     		.2byte	0x176
 1082 02f0 F0060000 		.4byte	0x6f0
 1083 02f4 0C       		.byte	0xc
 1084 02f5 09       		.uleb128 0x9
 1085 02f6 A2020000 		.4byte	.LASF59
 1086 02fa 07       		.byte	0x7
 1087 02fb 7901     		.2byte	0x179
 1088 02fd D5070000 		.4byte	0x7d5
 1089 0301 10       		.byte	0x10
 1090 0302 09       		.uleb128 0x9
 1091 0303 E7050000 		.4byte	.LASF60
 1092 0307 07       		.byte	0x7
 1093 0308 7A01     		.2byte	0x17a
 1094 030a D5070000 		.4byte	0x7d5
 1095 030e 14       		.byte	0x14
 1096 030f 09       		.uleb128 0x9
 1097 0310 DD050000 		.4byte	.LASF61
 1098 0314 07       		.byte	0x7
 1099 0315 7D01     		.2byte	0x17d
 1100 0317 D5070000 		.4byte	0x7d5
 1101 031b 18       		.byte	0x18
 1102 031c 00       		.byte	0
 1103 031d 04       		.uleb128 0x4
 1104 031e 9A070000 		.4byte	.LASF62
 1105 0322 06       		.byte	0x6
 1106 0323 57       		.byte	0x57
 1107 0324 28030000 		.4byte	0x328
 1108 0328 0B       		.uleb128 0xb
 1109 0329 04       		.byte	0x4
 1110 032a 2E030000 		.4byte	0x32e
 1111 032e 0C       		.uleb128 0xc
 1112 032f 39030000 		.4byte	0x339
 1113 0333 0D       		.uleb128 0xd
 1114 0334 39030000 		.4byte	0x339
 1115 0338 00       		.byte	0
 1116 0339 0E       		.uleb128 0xe
 1117 033a 04       		.byte	0x4
 1118 033b 04       		.uleb128 0x4
 1119 033c 3E060000 		.4byte	.LASF63
 1120 0340 06       		.byte	0x6
 1121 0341 5C       		.byte	0x5c
 1122 0342 46030000 		.4byte	0x346
ARM GAS  C:\Users\jo\AppData\Local\Temp\ccqE6SHC.s 			page 21


 1123 0346 0A       		.uleb128 0xa
 1124 0347 E9070000 		.4byte	.LASF64
 1125 034b 14       		.byte	0x14
 1126 034c 07       		.byte	0x7
 1127 034d 4D01     		.2byte	0x14d
 1128 034f 95030000 		.4byte	0x395
 1129 0353 09       		.uleb128 0x9
 1130 0354 2C030000 		.4byte	.LASF65
 1131 0358 07       		.byte	0x7
 1132 0359 4E01     		.2byte	0x14e
 1133 035b 5C090000 		.4byte	0x95c
 1134 035f 00       		.byte	0
 1135 0360 09       		.uleb128 0x9
 1136 0361 B3020000 		.4byte	.LASF66
 1137 0365 07       		.byte	0x7
 1138 0366 4F01     		.2byte	0x14f
 1139 0368 5C090000 		.4byte	0x95c
 1140 036c 04       		.byte	0x4
 1141 036d 09       		.uleb128 0x9
 1142 036e 1E070000 		.4byte	.LASF67
 1143 0372 07       		.byte	0x7
 1144 0373 5001     		.2byte	0x150
 1145 0375 46010000 		.4byte	0x146
 1146 0379 08       		.byte	0x8
 1147 037a 09       		.uleb128 0x9
 1148 037b ED080000 		.4byte	.LASF68
 1149 037f 07       		.byte	0x7
 1150 0380 5101     		.2byte	0x151
 1151 0382 1D030000 		.4byte	0x31d
 1152 0386 0C       		.byte	0xc
 1153 0387 09       		.uleb128 0x9
 1154 0388 0A080000 		.4byte	.LASF69
 1155 038c 07       		.byte	0x7
 1156 038d 5301     		.2byte	0x153
 1157 038f 39030000 		.4byte	0x339
 1158 0393 10       		.byte	0x10
 1159 0394 00       		.byte	0
 1160 0395 04       		.uleb128 0x4
 1161 0396 36010000 		.4byte	.LASF70
 1162 039a 06       		.byte	0x6
 1163 039b 61       		.byte	0x61
 1164 039c A0030000 		.4byte	0x3a0
 1165 03a0 0A       		.uleb128 0xa
 1166 03a1 6B050000 		.4byte	.LASF71
 1167 03a5 10       		.byte	0x10
 1168 03a6 07       		.byte	0x7
 1169 03a7 5D01     		.2byte	0x15d
 1170 03a9 E2030000 		.4byte	0x3e2
 1171 03ad 09       		.uleb128 0x9
 1172 03ae 2C030000 		.4byte	.LASF65
 1173 03b2 07       		.byte	0x7
 1174 03b3 5E01     		.2byte	0x15e
 1175 03b5 5C090000 		.4byte	0x95c
 1176 03b9 00       		.byte	0
 1177 03ba 09       		.uleb128 0x9
 1178 03bb B3020000 		.4byte	.LASF66
 1179 03bf 07       		.byte	0x7
ARM GAS  C:\Users\jo\AppData\Local\Temp\ccqE6SHC.s 			page 22


 1180 03c0 6001     		.2byte	0x160
 1181 03c2 5C090000 		.4byte	0x95c
 1182 03c6 04       		.byte	0x4
 1183 03c7 09       		.uleb128 0x9
 1184 03c8 1E070000 		.4byte	.LASF67
 1185 03cc 07       		.byte	0x7
 1186 03cd 6201     		.2byte	0x162
 1187 03cf 46010000 		.4byte	0x146
 1188 03d3 08       		.byte	0x8
 1189 03d4 09       		.uleb128 0x9
 1190 03d5 AB050000 		.4byte	.LASF72
 1191 03d9 07       		.byte	0x7
 1192 03da 6A01     		.2byte	0x16a
 1193 03dc 46010000 		.4byte	0x146
 1194 03e0 0C       		.byte	0xc
 1195 03e1 00       		.byte	0
 1196 03e2 04       		.uleb128 0x4
 1197 03e3 6F000000 		.4byte	.LASF73
 1198 03e7 06       		.byte	0x6
 1199 03e8 66       		.byte	0x66
 1200 03e9 ED030000 		.4byte	0x3ed
 1201 03ed 0F       		.uleb128 0xf
 1202 03ee 8A020000 		.4byte	.LASF74
 1203 03f2 1404     		.2byte	0x414
 1204 03f4 07       		.byte	0x7
 1205 03f5 8401     		.2byte	0x184
 1206 03f7 30040000 		.4byte	0x430
 1207 03fb 09       		.uleb128 0x9
 1208 03fc AE070000 		.4byte	.LASF75
 1209 0400 07       		.byte	0x7
 1210 0401 8C01     		.2byte	0x18c
 1211 0403 62090000 		.4byte	0x962
 1212 0407 00       		.byte	0
 1213 0408 09       		.uleb128 0x9
 1214 0409 52080000 		.4byte	.LASF76
 1215 040d 07       		.byte	0x7
 1216 040e 9101     		.2byte	0x191
 1217 0410 30010000 		.4byte	0x130
 1218 0414 04       		.byte	0x4
 1219 0415 09       		.uleb128 0x9
 1220 0416 F8020000 		.4byte	.LASF77
 1221 041a 07       		.byte	0x7
 1222 041b 9501     		.2byte	0x195
 1223 041d 30010000 		.4byte	0x130
 1224 0421 08       		.byte	0x8
 1225 0422 09       		.uleb128 0x9
 1226 0423 A6080000 		.4byte	.LASF78
 1227 0427 07       		.byte	0x7
 1228 0428 9B01     		.2byte	0x19b
 1229 042a 2A080000 		.4byte	0x82a
 1230 042e 0C       		.byte	0xc
 1231 042f 00       		.byte	0
 1232 0430 04       		.uleb128 0x4
 1233 0431 DD070000 		.4byte	.LASF79
 1234 0435 06       		.byte	0x6
 1235 0436 6B       		.byte	0x6b
 1236 0437 3B040000 		.4byte	0x43b
ARM GAS  C:\Users\jo\AppData\Local\Temp\ccqE6SHC.s 			page 23


 1237 043b 0F       		.uleb128 0xf
 1238 043c 34020000 		.4byte	.LASF80
 1239 0440 D805     		.2byte	0x5d8
 1240 0442 07       		.byte	0x7
 1241 0443 A401     		.2byte	0x1a4
 1242 0445 A8040000 		.4byte	0x4a8
 1243 0449 09       		.uleb128 0x9
 1244 044a 68080000 		.4byte	.LASF81
 1245 044e 07       		.byte	0x7
 1246 044f A801     		.2byte	0x1a8
 1247 0451 B6020000 		.4byte	0x2b6
 1248 0455 00       		.byte	0
 1249 0456 09       		.uleb128 0x9
 1250 0457 22020000 		.4byte	.LASF82
 1251 045b 07       		.byte	0x7
 1252 045c AC01     		.2byte	0x1ac
 1253 045e 95030000 		.4byte	0x395
 1254 0462 1C       		.byte	0x1c
 1255 0463 08       		.uleb128 0x8
 1256 0464 64626700 		.ascii	"dbg\000"
 1257 0468 07       		.byte	0x7
 1258 0469 B001     		.2byte	0x1b0
 1259 046b E2030000 		.4byte	0x3e2
 1260 046f 2C       		.byte	0x2c
 1261 0470 10       		.uleb128 0x10
 1262 0471 0E010000 		.4byte	.LASF83
 1263 0475 07       		.byte	0x7
 1264 0476 B401     		.2byte	0x1b4
 1265 0478 51010000 		.4byte	0x151
 1266 047c 4004     		.2byte	0x440
 1267 047e 11       		.uleb128 0x11
 1268 047f 746D00   		.ascii	"tm\000"
 1269 0482 07       		.byte	0x7
 1270 0483 B901     		.2byte	0x1b9
 1271 0485 4A080000 		.4byte	0x84a
 1272 0489 A004     		.2byte	0x4a0
 1273 048b 10       		.uleb128 0x10
 1274 048c 3B000000 		.4byte	.LASF84
 1275 0490 07       		.byte	0x7
 1276 0491 BF01     		.2byte	0x1bf
 1277 0493 DC080000 		.4byte	0x8dc
 1278 0497 A804     		.2byte	0x4a8
 1279 0499 10       		.uleb128 0x10
 1280 049a 01030000 		.4byte	.LASF85
 1281 049e 07       		.byte	0x7
 1282 049f C501     		.2byte	0x1c5
 1283 04a1 67090000 		.4byte	0x967
 1284 04a5 E004     		.2byte	0x4e0
 1285 04a7 00       		.byte	0
 1286 04a8 02       		.uleb128 0x2
 1287 04a9 04       		.byte	0x4
 1288 04aa 07       		.byte	0x7
 1289 04ab 62050000 		.4byte	.LASF86
 1290 04af 12       		.uleb128 0x12
 1291 04b0 A2000000 		.4byte	0xa2
 1292 04b4 BF040000 		.4byte	0x4bf
 1293 04b8 13       		.uleb128 0x13
ARM GAS  C:\Users\jo\AppData\Local\Temp\ccqE6SHC.s 			page 24


 1294 04b9 A8040000 		.4byte	0x4a8
 1295 04bd 0B       		.byte	0xb
 1296 04be 00       		.byte	0
 1297 04bf 14       		.uleb128 0x14
 1298 04c0 A0       		.byte	0xa0
 1299 04c1 08       		.byte	0x8
 1300 04c2 8E02     		.2byte	0x28e
 1301 04c4 CE060000 		.4byte	0x6ce
 1302 04c8 08       		.uleb128 0x8
 1303 04c9 545200   		.ascii	"TR\000"
 1304 04cc 08       		.byte	0x8
 1305 04cd 9002     		.2byte	0x290
 1306 04cf D3000000 		.4byte	0xd3
 1307 04d3 00       		.byte	0
 1308 04d4 08       		.uleb128 0x8
 1309 04d5 445200   		.ascii	"DR\000"
 1310 04d8 08       		.byte	0x8
 1311 04d9 9102     		.2byte	0x291
 1312 04db D3000000 		.4byte	0xd3
 1313 04df 04       		.byte	0x4
 1314 04e0 08       		.uleb128 0x8
 1315 04e1 435200   		.ascii	"CR\000"
 1316 04e4 08       		.byte	0x8
 1317 04e5 9202     		.2byte	0x292
 1318 04e7 D3000000 		.4byte	0xd3
 1319 04eb 08       		.byte	0x8
 1320 04ec 08       		.uleb128 0x8
 1321 04ed 49535200 		.ascii	"ISR\000"
 1322 04f1 08       		.byte	0x8
 1323 04f2 9302     		.2byte	0x293
 1324 04f4 D3000000 		.4byte	0xd3
 1325 04f8 0C       		.byte	0xc
 1326 04f9 09       		.uleb128 0x9
 1327 04fa A3000000 		.4byte	.LASF87
 1328 04fe 08       		.byte	0x8
 1329 04ff 9402     		.2byte	0x294
 1330 0501 D3000000 		.4byte	0xd3
 1331 0505 10       		.byte	0x10
 1332 0506 09       		.uleb128 0x9
 1333 0507 E2030000 		.4byte	.LASF88
 1334 050b 08       		.byte	0x8
 1335 050c 9502     		.2byte	0x295
 1336 050e D3000000 		.4byte	0xd3
 1337 0512 14       		.byte	0x14
 1338 0513 09       		.uleb128 0x9
 1339 0514 00000000 		.4byte	.LASF89
 1340 0518 08       		.byte	0x8
 1341 0519 9602     		.2byte	0x296
 1342 051b D3000000 		.4byte	0xd3
 1343 051f 18       		.byte	0x18
 1344 0520 09       		.uleb128 0x9
 1345 0521 FF050000 		.4byte	.LASF90
 1346 0525 08       		.byte	0x8
 1347 0526 9702     		.2byte	0x297
 1348 0528 D3000000 		.4byte	0xd3
 1349 052c 1C       		.byte	0x1c
 1350 052d 09       		.uleb128 0x9
ARM GAS  C:\Users\jo\AppData\Local\Temp\ccqE6SHC.s 			page 25


 1351 052e F7060000 		.4byte	.LASF91
 1352 0532 08       		.byte	0x8
 1353 0533 9802     		.2byte	0x298
 1354 0535 D3000000 		.4byte	0xd3
 1355 0539 20       		.byte	0x20
 1356 053a 08       		.uleb128 0x8
 1357 053b 57505200 		.ascii	"WPR\000"
 1358 053f 08       		.byte	0x8
 1359 0540 9902     		.2byte	0x299
 1360 0542 D3000000 		.4byte	0xd3
 1361 0546 24       		.byte	0x24
 1362 0547 08       		.uleb128 0x8
 1363 0548 53535200 		.ascii	"SSR\000"
 1364 054c 08       		.byte	0x8
 1365 054d 9A02     		.2byte	0x29a
 1366 054f D3000000 		.4byte	0xd3
 1367 0553 28       		.byte	0x28
 1368 0554 09       		.uleb128 0x9
 1369 0555 2A080000 		.4byte	.LASF92
 1370 0559 08       		.byte	0x8
 1371 055a 9B02     		.2byte	0x29b
 1372 055c D3000000 		.4byte	0xd3
 1373 0560 2C       		.byte	0x2c
 1374 0561 09       		.uleb128 0x9
 1375 0562 F6030000 		.4byte	.LASF93
 1376 0566 08       		.byte	0x8
 1377 0567 9C02     		.2byte	0x29c
 1378 0569 D3000000 		.4byte	0xd3
 1379 056d 30       		.byte	0x30
 1380 056e 09       		.uleb128 0x9
 1381 056f 27030000 		.4byte	.LASF94
 1382 0573 08       		.byte	0x8
 1383 0574 9D02     		.2byte	0x29d
 1384 0576 D3000000 		.4byte	0xd3
 1385 057a 34       		.byte	0x34
 1386 057b 09       		.uleb128 0x9
 1387 057c 29020000 		.4byte	.LASF95
 1388 0580 08       		.byte	0x8
 1389 0581 9E02     		.2byte	0x29e
 1390 0583 D3000000 		.4byte	0xd3
 1391 0587 38       		.byte	0x38
 1392 0588 09       		.uleb128 0x9
 1393 0589 7E000000 		.4byte	.LASF96
 1394 058d 08       		.byte	0x8
 1395 058e 9F02     		.2byte	0x29f
 1396 0590 D3000000 		.4byte	0xd3
 1397 0594 3C       		.byte	0x3c
 1398 0595 09       		.uleb128 0x9
 1399 0596 17060000 		.4byte	.LASF97
 1400 059a 08       		.byte	0x8
 1401 059b A002     		.2byte	0x2a0
 1402 059d D3000000 		.4byte	0xd3
 1403 05a1 40       		.byte	0x40
 1404 05a2 09       		.uleb128 0x9
 1405 05a3 76080000 		.4byte	.LASF98
 1406 05a7 08       		.byte	0x8
 1407 05a8 A102     		.2byte	0x2a1
ARM GAS  C:\Users\jo\AppData\Local\Temp\ccqE6SHC.s 			page 26


 1408 05aa D3000000 		.4byte	0xd3
 1409 05ae 44       		.byte	0x44
 1410 05af 09       		.uleb128 0x9
 1411 05b0 C5070000 		.4byte	.LASF99
 1412 05b4 08       		.byte	0x8
 1413 05b5 A202     		.2byte	0x2a2
 1414 05b7 D3000000 		.4byte	0xd3
 1415 05bb 48       		.byte	0x48
 1416 05bc 09       		.uleb128 0x9
 1417 05bd 55060000 		.4byte	.LASF100
 1418 05c1 08       		.byte	0x8
 1419 05c2 A302     		.2byte	0x2a3
 1420 05c4 B8000000 		.4byte	0xb8
 1421 05c8 4C       		.byte	0x4c
 1422 05c9 09       		.uleb128 0x9
 1423 05ca EB060000 		.4byte	.LASF101
 1424 05ce 08       		.byte	0x8
 1425 05cf A402     		.2byte	0x2a4
 1426 05d1 D3000000 		.4byte	0xd3
 1427 05d5 50       		.byte	0x50
 1428 05d6 09       		.uleb128 0x9
 1429 05d7 B8070000 		.4byte	.LASF102
 1430 05db 08       		.byte	0x8
 1431 05dc A502     		.2byte	0x2a5
 1432 05de D3000000 		.4byte	0xd3
 1433 05e2 54       		.byte	0x54
 1434 05e3 09       		.uleb128 0x9
 1435 05e4 A0080000 		.4byte	.LASF103
 1436 05e8 08       		.byte	0x8
 1437 05e9 A602     		.2byte	0x2a6
 1438 05eb D3000000 		.4byte	0xd3
 1439 05ef 58       		.byte	0x58
 1440 05f0 09       		.uleb128 0x9
 1441 05f1 9D000000 		.4byte	.LASF104
 1442 05f5 08       		.byte	0x8
 1443 05f6 A702     		.2byte	0x2a7
 1444 05f8 D3000000 		.4byte	0xd3
 1445 05fc 5C       		.byte	0x5c
 1446 05fd 09       		.uleb128 0x9
 1447 05fe 47020000 		.4byte	.LASF105
 1448 0602 08       		.byte	0x8
 1449 0603 A802     		.2byte	0x2a8
 1450 0605 D3000000 		.4byte	0xd3
 1451 0609 60       		.byte	0x60
 1452 060a 09       		.uleb128 0x9
 1453 060b 34030000 		.4byte	.LASF106
 1454 060f 08       		.byte	0x8
 1455 0610 A902     		.2byte	0x2a9
 1456 0612 D3000000 		.4byte	0xd3
 1457 0616 64       		.byte	0x64
 1458 0617 09       		.uleb128 0x9
 1459 0618 0F050000 		.4byte	.LASF107
 1460 061c 08       		.byte	0x8
 1461 061d AA02     		.2byte	0x2aa
 1462 061f D3000000 		.4byte	0xd3
 1463 0623 68       		.byte	0x68
 1464 0624 09       		.uleb128 0x9
ARM GAS  C:\Users\jo\AppData\Local\Temp\ccqE6SHC.s 			page 27


 1465 0625 11060000 		.4byte	.LASF108
 1466 0629 08       		.byte	0x8
 1467 062a AB02     		.2byte	0x2ab
 1468 062c D3000000 		.4byte	0xd3
 1469 0630 6C       		.byte	0x6c
 1470 0631 09       		.uleb128 0x9
 1471 0632 09070000 		.4byte	.LASF109
 1472 0636 08       		.byte	0x8
 1473 0637 AC02     		.2byte	0x2ac
 1474 0639 D3000000 		.4byte	0xd3
 1475 063d 70       		.byte	0x70
 1476 063e 09       		.uleb128 0x9
 1477 063f 24080000 		.4byte	.LASF110
 1478 0643 08       		.byte	0x8
 1479 0644 AD02     		.2byte	0x2ad
 1480 0646 D3000000 		.4byte	0xd3
 1481 064a 74       		.byte	0x74
 1482 064b 09       		.uleb128 0x9
 1483 064c E7030000 		.4byte	.LASF111
 1484 0650 08       		.byte	0x8
 1485 0651 AE02     		.2byte	0x2ae
 1486 0653 D3000000 		.4byte	0xd3
 1487 0657 78       		.byte	0x78
 1488 0658 09       		.uleb128 0x9
 1489 0659 D6050000 		.4byte	.LASF112
 1490 065d 08       		.byte	0x8
 1491 065e AF02     		.2byte	0x2af
 1492 0660 D3000000 		.4byte	0xd3
 1493 0664 7C       		.byte	0x7c
 1494 0665 09       		.uleb128 0x9
 1495 0666 D3060000 		.4byte	.LASF113
 1496 066a 08       		.byte	0x8
 1497 066b B002     		.2byte	0x2b0
 1498 066d D3000000 		.4byte	0xd3
 1499 0671 80       		.byte	0x80
 1500 0672 09       		.uleb128 0x9
 1501 0673 CE070000 		.4byte	.LASF114
 1502 0677 08       		.byte	0x8
 1503 0678 B102     		.2byte	0x2b1
 1504 067a D3000000 		.4byte	0xd3
 1505 067e 84       		.byte	0x84
 1506 067f 09       		.uleb128 0x9
 1507 0680 BB080000 		.4byte	.LASF115
 1508 0684 08       		.byte	0x8
 1509 0685 B202     		.2byte	0x2b2
 1510 0687 D3000000 		.4byte	0xd3
 1511 068b 88       		.byte	0x88
 1512 068c 09       		.uleb128 0x9
 1513 068d C1000000 		.4byte	.LASF116
 1514 0691 08       		.byte	0x8
 1515 0692 B302     		.2byte	0x2b3
 1516 0694 D3000000 		.4byte	0xd3
 1517 0698 8C       		.byte	0x8c
 1518 0699 09       		.uleb128 0x9
 1519 069a 56020000 		.4byte	.LASF117
 1520 069e 08       		.byte	0x8
 1521 069f B402     		.2byte	0x2b4
ARM GAS  C:\Users\jo\AppData\Local\Temp\ccqE6SHC.s 			page 28


 1522 06a1 D3000000 		.4byte	0xd3
 1523 06a5 90       		.byte	0x90
 1524 06a6 09       		.uleb128 0x9
 1525 06a7 7F080000 		.4byte	.LASF118
 1526 06ab 08       		.byte	0x8
 1527 06ac B502     		.2byte	0x2b5
 1528 06ae D3000000 		.4byte	0xd3
 1529 06b2 94       		.byte	0x94
 1530 06b3 09       		.uleb128 0x9
 1531 06b4 2E050000 		.4byte	.LASF119
 1532 06b8 08       		.byte	0x8
 1533 06b9 B602     		.2byte	0x2b6
 1534 06bb D3000000 		.4byte	0xd3
 1535 06bf 98       		.byte	0x98
 1536 06c0 09       		.uleb128 0x9
 1537 06c1 37060000 		.4byte	.LASF120
 1538 06c5 08       		.byte	0x8
 1539 06c6 B702     		.2byte	0x2b7
 1540 06c8 D3000000 		.4byte	0xd3
 1541 06cc 9C       		.byte	0x9c
 1542 06cd 00       		.byte	0
 1543 06ce 15       		.uleb128 0x15
 1544 06cf 86080000 		.4byte	.LASF121
 1545 06d3 08       		.byte	0x8
 1546 06d4 B802     		.2byte	0x2b8
 1547 06d6 BF040000 		.4byte	0x4bf
 1548 06da 04       		.uleb128 0x4
 1549 06db AA020000 		.4byte	.LASF122
 1550 06df 09       		.byte	0x9
 1551 06e0 85       		.byte	0x85
 1552 06e1 39030000 		.4byte	0x339
 1553 06e5 04       		.uleb128 0x4
 1554 06e6 04050000 		.4byte	.LASF123
 1555 06ea 09       		.byte	0x9
 1556 06eb 8D       		.byte	0x8d
 1557 06ec C3000000 		.4byte	0xc3
 1558 06f0 06       		.uleb128 0x6
 1559 06f1 D5070000 		.4byte	.LASF124
 1560 06f5 04       		.byte	0x4
 1561 06f6 09       		.byte	0x9
 1562 06f7 A9       		.byte	0xa9
 1563 06f8 09070000 		.4byte	0x709
 1564 06fc 16       		.uleb128 0x16
 1565 06fd 72313300 		.ascii	"r13\000"
 1566 0701 09       		.byte	0x9
 1567 0702 AA       		.byte	0xaa
 1568 0703 84070000 		.4byte	0x784
 1569 0707 00       		.byte	0
 1570 0708 00       		.byte	0
 1571 0709 06       		.uleb128 0x6
 1572 070a 52000000 		.4byte	.LASF125
 1573 070e 24       		.byte	0x24
 1574 070f 0A       		.byte	0xa
 1575 0710 F4       		.byte	0xf4
 1576 0711 84070000 		.4byte	0x784
 1577 0715 08       		.uleb128 0x8
 1578 0716 723400   		.ascii	"r4\000"
ARM GAS  C:\Users\jo\AppData\Local\Temp\ccqE6SHC.s 			page 29


 1579 0719 0A       		.byte	0xa
 1580 071a 0701     		.2byte	0x107
 1581 071c DA060000 		.4byte	0x6da
 1582 0720 00       		.byte	0
 1583 0721 08       		.uleb128 0x8
 1584 0722 723500   		.ascii	"r5\000"
 1585 0725 0A       		.byte	0xa
 1586 0726 0801     		.2byte	0x108
 1587 0728 DA060000 		.4byte	0x6da
 1588 072c 04       		.byte	0x4
 1589 072d 08       		.uleb128 0x8
 1590 072e 723600   		.ascii	"r6\000"
 1591 0731 0A       		.byte	0xa
 1592 0732 0901     		.2byte	0x109
 1593 0734 DA060000 		.4byte	0x6da
 1594 0738 08       		.byte	0x8
 1595 0739 08       		.uleb128 0x8
 1596 073a 723700   		.ascii	"r7\000"
 1597 073d 0A       		.byte	0xa
 1598 073e 0A01     		.2byte	0x10a
 1599 0740 DA060000 		.4byte	0x6da
 1600 0744 0C       		.byte	0xc
 1601 0745 08       		.uleb128 0x8
 1602 0746 723800   		.ascii	"r8\000"
 1603 0749 0A       		.byte	0xa
 1604 074a 0B01     		.2byte	0x10b
 1605 074c DA060000 		.4byte	0x6da
 1606 0750 10       		.byte	0x10
 1607 0751 08       		.uleb128 0x8
 1608 0752 723900   		.ascii	"r9\000"
 1609 0755 0A       		.byte	0xa
 1610 0756 0C01     		.2byte	0x10c
 1611 0758 DA060000 		.4byte	0x6da
 1612 075c 14       		.byte	0x14
 1613 075d 08       		.uleb128 0x8
 1614 075e 72313000 		.ascii	"r10\000"
 1615 0762 0A       		.byte	0xa
 1616 0763 0D01     		.2byte	0x10d
 1617 0765 DA060000 		.4byte	0x6da
 1618 0769 18       		.byte	0x18
 1619 076a 08       		.uleb128 0x8
 1620 076b 72313100 		.ascii	"r11\000"
 1621 076f 0A       		.byte	0xa
 1622 0770 0E01     		.2byte	0x10e
 1623 0772 DA060000 		.4byte	0x6da
 1624 0776 1C       		.byte	0x1c
 1625 0777 08       		.uleb128 0x8
 1626 0778 6C7200   		.ascii	"lr\000"
 1627 077b 0A       		.byte	0xa
 1628 077c 0F01     		.2byte	0x10f
 1629 077e DA060000 		.4byte	0x6da
 1630 0782 20       		.byte	0x20
 1631 0783 00       		.byte	0
 1632 0784 0B       		.uleb128 0xb
 1633 0785 04       		.byte	0x4
 1634 0786 09070000 		.4byte	0x709
 1635 078a 02       		.uleb128 0x2
ARM GAS  C:\Users\jo\AppData\Local\Temp\ccqE6SHC.s 			page 30


 1636 078b 01       		.byte	0x1
 1637 078c 08       		.byte	0x8
 1638 078d 49070000 		.4byte	.LASF126
 1639 0791 0B       		.uleb128 0xb
 1640 0792 04       		.byte	0x4
 1641 0793 97070000 		.4byte	0x797
 1642 0797 17       		.uleb128 0x17
 1643 0798 8A070000 		.4byte	0x78a
 1644 079c 18       		.uleb128 0x18
 1645 079d 10       		.byte	0x10
 1646 079e 0B       		.byte	0xb
 1647 079f 57       		.byte	0x57
 1648 07a0 D5070000 		.4byte	0x7d5
 1649 07a4 07       		.uleb128 0x7
 1650 07a5 FD010000 		.4byte	.LASF127
 1651 07a9 0B       		.byte	0xb
 1652 07aa 5B       		.byte	0x5b
 1653 07ab 46010000 		.4byte	0x146
 1654 07af 00       		.byte	0
 1655 07b0 07       		.uleb128 0x7
 1656 07b1 5D020000 		.4byte	.LASF128
 1657 07b5 0B       		.byte	0xb
 1658 07b6 5F       		.byte	0x5f
 1659 07b7 D5070000 		.4byte	0x7d5
 1660 07bb 04       		.byte	0x4
 1661 07bc 07       		.uleb128 0x7
 1662 07bd DD080000 		.4byte	.LASF129
 1663 07c1 0B       		.byte	0xb
 1664 07c2 63       		.byte	0x63
 1665 07c3 39030000 		.4byte	0x339
 1666 07c7 08       		.byte	0x8
 1667 07c8 07       		.uleb128 0x7
 1668 07c9 FC000000 		.4byte	.LASF130
 1669 07cd 0B       		.byte	0xb
 1670 07ce 67       		.byte	0x67
 1671 07cf A2000000 		.4byte	0xa2
 1672 07d3 0C       		.byte	0xc
 1673 07d4 00       		.byte	0
 1674 07d5 0B       		.uleb128 0xb
 1675 07d6 04       		.byte	0x4
 1676 07d7 51010000 		.4byte	0x151
 1677 07db 04       		.uleb128 0x4
 1678 07dc 9C050000 		.4byte	.LASF131
 1679 07e0 0B       		.byte	0xb
 1680 07e1 68       		.byte	0x68
 1681 07e2 9C070000 		.4byte	0x79c
 1682 07e6 19       		.uleb128 0x19
 1683 07e7 0804     		.2byte	0x408
 1684 07e9 0B       		.byte	0xb
 1685 07ea 6D       		.byte	0x6d
 1686 07eb 14080000 		.4byte	0x814
 1687 07ef 07       		.uleb128 0x7
 1688 07f0 9A020000 		.4byte	.LASF132
 1689 07f4 0B       		.byte	0xb
 1690 07f5 71       		.byte	0x71
 1691 07f6 2C000000 		.4byte	0x2c
 1692 07fa 00       		.byte	0
ARM GAS  C:\Users\jo\AppData\Local\Temp\ccqE6SHC.s 			page 31


 1693 07fb 07       		.uleb128 0x7
 1694 07fc 95050000 		.4byte	.LASF133
 1695 0800 0B       		.byte	0xb
 1696 0801 75       		.byte	0x75
 1697 0802 14080000 		.4byte	0x814
 1698 0806 04       		.byte	0x4
 1699 0807 07       		.uleb128 0x7
 1700 0808 25060000 		.4byte	.LASF134
 1701 080c 0B       		.byte	0xb
 1702 080d 79       		.byte	0x79
 1703 080e 1A080000 		.4byte	0x81a
 1704 0812 08       		.byte	0x8
 1705 0813 00       		.byte	0
 1706 0814 0B       		.uleb128 0xb
 1707 0815 04       		.byte	0x4
 1708 0816 DB070000 		.4byte	0x7db
 1709 081a 12       		.uleb128 0x12
 1710 081b DB070000 		.4byte	0x7db
 1711 081f 2A080000 		.4byte	0x82a
 1712 0823 13       		.uleb128 0x13
 1713 0824 A8040000 		.4byte	0x4a8
 1714 0828 3F       		.byte	0x3f
 1715 0829 00       		.byte	0
 1716 082a 04       		.uleb128 0x4
 1717 082b DF000000 		.4byte	.LASF135
 1718 082f 0B       		.byte	0xb
 1719 0830 7A       		.byte	0x7a
 1720 0831 E6070000 		.4byte	0x7e6
 1721 0835 18       		.uleb128 0x18
 1722 0836 04       		.byte	0x4
 1723 0837 0C       		.byte	0xc
 1724 0838 38       		.byte	0x38
 1725 0839 4A080000 		.4byte	0x84a
 1726 083d 07       		.uleb128 0x7
 1727 083e BE070000 		.4byte	.LASF136
 1728 0842 0C       		.byte	0xc
 1729 0843 3C       		.byte	0x3c
 1730 0844 D8000000 		.4byte	0xd8
 1731 0848 00       		.byte	0
 1732 0849 00       		.byte	0
 1733 084a 04       		.uleb128 0x4
 1734 084b C5050000 		.4byte	.LASF137
 1735 084f 0C       		.byte	0xc
 1736 0850 3D       		.byte	0x3d
 1737 0851 35080000 		.4byte	0x835
 1738 0855 18       		.uleb128 0x18
 1739 0856 18       		.byte	0x18
 1740 0857 0C       		.byte	0xc
 1741 0858 48       		.byte	0x48
 1742 0859 98080000 		.4byte	0x898
 1743 085d 07       		.uleb128 0x7
 1744 085e EF050000 		.4byte	.LASF138
 1745 0862 0C       		.byte	0xc
 1746 0863 49       		.byte	0x49
 1747 0864 D8000000 		.4byte	0xd8
 1748 0868 00       		.byte	0
 1749 0869 07       		.uleb128 0x7
ARM GAS  C:\Users\jo\AppData\Local\Temp\ccqE6SHC.s 			page 32


 1750 086a A8000000 		.4byte	.LASF139
 1751 086e 0C       		.byte	0xc
 1752 086f 4A       		.byte	0x4a
 1753 0870 D8000000 		.4byte	0xd8
 1754 0874 04       		.byte	0x4
 1755 0875 07       		.uleb128 0x7
 1756 0876 D6030000 		.4byte	.LASF140
 1757 087a 0C       		.byte	0xc
 1758 087b 4B       		.byte	0x4b
 1759 087c D8000000 		.4byte	0xd8
 1760 0880 08       		.byte	0x8
 1761 0881 16       		.uleb128 0x16
 1762 0882 6E00     		.ascii	"n\000"
 1763 0884 0C       		.byte	0xc
 1764 0885 4C       		.byte	0x4c
 1765 0886 3B010000 		.4byte	0x13b
 1766 088a 0C       		.byte	0xc
 1767 088b 07       		.uleb128 0x7
 1768 088c 06060000 		.4byte	.LASF141
 1769 0890 0C       		.byte	0xc
 1770 0891 4D       		.byte	0x4d
 1771 0892 E3000000 		.4byte	0xe3
 1772 0896 10       		.byte	0x10
 1773 0897 00       		.byte	0
 1774 0898 04       		.uleb128 0x4
 1775 0899 AE000000 		.4byte	.LASF142
 1776 089d 0C       		.byte	0xc
 1777 089e 4E       		.byte	0x4e
 1778 089f 55080000 		.4byte	0x855
 1779 08a3 18       		.uleb128 0x18
 1780 08a4 38       		.byte	0x38
 1781 08a5 0D       		.byte	0xd
 1782 08a6 38       		.byte	0x38
 1783 08a7 DC080000 		.4byte	0x8dc
 1784 08ab 07       		.uleb128 0x7
 1785 08ac 4E030000 		.4byte	.LASF143
 1786 08b0 0D       		.byte	0xd
 1787 08b1 39       		.byte	0x39
 1788 08b2 3B010000 		.4byte	0x13b
 1789 08b6 00       		.byte	0
 1790 08b7 07       		.uleb128 0x7
 1791 08b8 73060000 		.4byte	.LASF144
 1792 08bc 0D       		.byte	0xd
 1793 08bd 3A       		.byte	0x3a
 1794 08be 3B010000 		.4byte	0x13b
 1795 08c2 04       		.byte	0x4
 1796 08c3 07       		.uleb128 0x7
 1797 08c4 CA080000 		.4byte	.LASF145
 1798 08c8 0D       		.byte	0xd
 1799 08c9 3B       		.byte	0x3b
 1800 08ca 98080000 		.4byte	0x898
 1801 08ce 08       		.byte	0x8
 1802 08cf 07       		.uleb128 0x7
 1803 08d0 FB030000 		.4byte	.LASF146
 1804 08d4 0D       		.byte	0xd
 1805 08d5 3D       		.byte	0x3d
 1806 08d6 98080000 		.4byte	0x898
ARM GAS  C:\Users\jo\AppData\Local\Temp\ccqE6SHC.s 			page 33


 1807 08da 20       		.byte	0x20
 1808 08db 00       		.byte	0
 1809 08dc 04       		.uleb128 0x4
 1810 08dd 91030000 		.4byte	.LASF147
 1811 08e1 0D       		.byte	0xd
 1812 08e2 3F       		.byte	0x3f
 1813 08e3 A3080000 		.4byte	0x8a3
 1814 08e7 1A       		.uleb128 0x1a
 1815 08e8 04       		.byte	0x4
 1816 08e9 07       		.byte	0x7
 1817 08ea F6       		.byte	0xf6
 1818 08eb 1F090000 		.4byte	0x91f
 1819 08ef 1B       		.uleb128 0x1b
 1820 08f0 2B000000 		.4byte	.LASF148
 1821 08f4 07       		.byte	0x7
 1822 08f5 FD       		.byte	0xfd
 1823 08f6 1A010000 		.4byte	0x11a
 1824 08fa 1C       		.uleb128 0x1c
 1825 08fb 05010000 		.4byte	.LASF149
 1826 08ff 07       		.byte	0x7
 1827 0900 0401     		.2byte	0x104
 1828 0902 1A010000 		.4byte	0x11a
 1829 0906 1C       		.uleb128 0x1c
 1830 0907 92080000 		.4byte	.LASF150
 1831 090b 07       		.byte	0x7
 1832 090c 0B01     		.2byte	0x10b
 1833 090e 39030000 		.4byte	0x339
 1834 0912 1C       		.uleb128 0x1c
 1835 0913 C5060000 		.4byte	.LASF151
 1836 0917 07       		.byte	0x7
 1837 0918 1201     		.2byte	0x112
 1838 091a 25010000 		.4byte	0x125
 1839 091e 00       		.byte	0
 1840 091f 0B       		.uleb128 0xb
 1841 0920 04       		.byte	0x4
 1842 0921 E5060000 		.4byte	0x6e5
 1843 0925 06       		.uleb128 0x6
 1844 0926 67060000 		.4byte	.LASF152
 1845 092a 10       		.byte	0x10
 1846 092b 0E       		.byte	0xe
 1847 092c 39       		.byte	0x39
 1848 092d 56090000 		.4byte	0x956
 1849 0931 07       		.uleb128 0x7
 1850 0932 0D020000 		.4byte	.LASF153
 1851 0936 0E       		.byte	0xe
 1852 0937 3A       		.byte	0x3a
 1853 0938 86020000 		.4byte	0x286
 1854 093c 00       		.byte	0
 1855 093d 07       		.uleb128 0x7
 1856 093e D5080000 		.4byte	.LASF154
 1857 0942 0E       		.byte	0xe
 1858 0943 3C       		.byte	0x3c
 1859 0944 D5070000 		.4byte	0x7d5
 1860 0948 08       		.byte	0x8
 1861 0949 07       		.uleb128 0x7
 1862 094a 7E070000 		.4byte	.LASF155
 1863 094e 0E       		.byte	0xe
ARM GAS  C:\Users\jo\AppData\Local\Temp\ccqE6SHC.s 			page 34


 1864 094f 3E       		.byte	0x3e
 1865 0950 82090000 		.4byte	0x982
 1866 0954 0C       		.byte	0xc
 1867 0955 00       		.byte	0
 1868 0956 0B       		.uleb128 0xb
 1869 0957 04       		.byte	0x4
 1870 0958 25090000 		.4byte	0x925
 1871 095c 0B       		.uleb128 0xb
 1872 095d 04       		.byte	0x4
 1873 095e 3B030000 		.4byte	0x33b
 1874 0962 05       		.uleb128 0x5
 1875 0963 91070000 		.4byte	0x791
 1876 0967 12       		.uleb128 0x12
 1877 0968 E5060000 		.4byte	0x6e5
 1878 096c 77090000 		.4byte	0x977
 1879 0970 13       		.uleb128 0x13
 1880 0971 A8040000 		.4byte	0x4a8
 1881 0975 1E       		.byte	0x1e
 1882 0976 00       		.byte	0
 1883 0977 04       		.uleb128 0x4
 1884 0978 F0020000 		.4byte	.LASF156
 1885 097c 0E       		.byte	0xe
 1886 097d 34       		.byte	0x34
 1887 097e 25090000 		.4byte	0x925
 1888 0982 0B       		.uleb128 0xb
 1889 0983 04       		.byte	0x4
 1890 0984 77090000 		.4byte	0x977
 1891 0988 02       		.uleb128 0x2
 1892 0989 01       		.byte	0x1
 1893 098a 02       		.byte	0x2
 1894 098b 7C060000 		.4byte	.LASF157
 1895 098f 1D       		.uleb128 0x1d
 1896 0990 746D00   		.ascii	"tm\000"
 1897 0993 24       		.byte	0x24
 1898 0994 0F       		.byte	0xf
 1899 0995 1F       		.byte	0x1f
 1900 0996 070A0000 		.4byte	0xa07
 1901 099a 07       		.uleb128 0x7
 1902 099b 0F070000 		.4byte	.LASF158
 1903 099f 0F       		.byte	0xf
 1904 09a0 21       		.byte	0x21
 1905 09a1 33000000 		.4byte	0x33
 1906 09a5 00       		.byte	0
 1907 09a6 07       		.uleb128 0x7
 1908 09a7 51050000 		.4byte	.LASF159
 1909 09ab 0F       		.byte	0xf
 1910 09ac 22       		.byte	0x22
 1911 09ad 33000000 		.4byte	0x33
 1912 09b1 04       		.byte	0x4
 1913 09b2 07       		.uleb128 0x7
 1914 09b3 76070000 		.4byte	.LASF160
 1915 09b7 0F       		.byte	0xf
 1916 09b8 23       		.byte	0x23
 1917 09b9 33000000 		.4byte	0x33
 1918 09bd 08       		.byte	0x8
 1919 09be 07       		.uleb128 0x7
 1920 09bf FA070000 		.4byte	.LASF161
ARM GAS  C:\Users\jo\AppData\Local\Temp\ccqE6SHC.s 			page 35


 1921 09c3 0F       		.byte	0xf
 1922 09c4 24       		.byte	0x24
 1923 09c5 33000000 		.4byte	0x33
 1924 09c9 0C       		.byte	0xc
 1925 09ca 07       		.uleb128 0x7
 1926 09cb 65030000 		.4byte	.LASF162
 1927 09cf 0F       		.byte	0xf
 1928 09d0 25       		.byte	0x25
 1929 09d1 33000000 		.4byte	0x33
 1930 09d5 10       		.byte	0x10
 1931 09d6 07       		.uleb128 0x7
 1932 09d7 07000000 		.4byte	.LASF163
 1933 09db 0F       		.byte	0xf
 1934 09dc 26       		.byte	0x26
 1935 09dd 33000000 		.4byte	0x33
 1936 09e1 14       		.byte	0x14
 1937 09e2 07       		.uleb128 0x7
 1938 09e3 1C080000 		.4byte	.LASF164
 1939 09e7 0F       		.byte	0xf
 1940 09e8 27       		.byte	0x27
 1941 09e9 33000000 		.4byte	0x33
 1942 09ed 18       		.byte	0x18
 1943 09ee 07       		.uleb128 0x7
 1944 09ef 82050000 		.4byte	.LASF165
 1945 09f3 0F       		.byte	0xf
 1946 09f4 28       		.byte	0x28
 1947 09f5 33000000 		.4byte	0x33
 1948 09f9 1C       		.byte	0x1c
 1949 09fa 07       		.uleb128 0x7
 1950 09fb A0030000 		.4byte	.LASF166
 1951 09ff 0F       		.byte	0xf
 1952 0a00 29       		.byte	0x29
 1953 0a01 33000000 		.4byte	0x33
 1954 0a05 20       		.byte	0x20
 1955 0a06 00       		.byte	0
 1956 0a07 04       		.uleb128 0x4
 1957 0a08 98060000 		.4byte	.LASF167
 1958 0a0c 10       		.byte	0x10
 1959 0a0d 59       		.byte	0x59
 1960 0a0e 120A0000 		.4byte	0xa12
 1961 0a12 06       		.uleb128 0x6
 1962 0a13 98060000 		.4byte	.LASF167
 1963 0a17 04       		.byte	0x4
 1964 0a18 11       		.byte	0x11
 1965 0a19 B6       		.byte	0xb6
 1966 0a1a 2B0A0000 		.4byte	0xa2b
 1967 0a1e 16       		.uleb128 0x16
 1968 0a1f 72746300 		.ascii	"rtc\000"
 1969 0a23 11       		.byte	0x11
 1970 0a24 C1       		.byte	0xc1
 1971 0a25 C40A0000 		.4byte	0xac4
 1972 0a29 00       		.byte	0
 1973 0a2a 00       		.byte	0
 1974 0a2b 18       		.uleb128 0x18
 1975 0a2c 08       		.byte	0x8
 1976 0a2d 10       		.byte	0x10
 1977 0a2e 5E       		.byte	0x5e
ARM GAS  C:\Users\jo\AppData\Local\Temp\ccqE6SHC.s 			page 36


 1978 0a2f 8E0A0000 		.4byte	0xa8e
 1979 0a33 1E       		.uleb128 0x1e
 1980 0a34 2F020000 		.4byte	.LASF168
 1981 0a38 10       		.byte	0x10
 1982 0a39 5F       		.byte	0x5f
 1983 0a3a B8000000 		.4byte	0xb8
 1984 0a3e 04       		.byte	0x4
 1985 0a3f 08       		.byte	0x8
 1986 0a40 18       		.byte	0x18
 1987 0a41 00       		.byte	0
 1988 0a42 1E       		.uleb128 0x1e
 1989 0a43 16030000 		.4byte	.LASF169
 1990 0a47 10       		.byte	0x10
 1991 0a48 60       		.byte	0x60
 1992 0a49 B8000000 		.4byte	0xb8
 1993 0a4d 04       		.byte	0x4
 1994 0a4e 04       		.byte	0x4
 1995 0a4f 14       		.byte	0x14
 1996 0a50 00       		.byte	0
 1997 0a51 1E       		.uleb128 0x1e
 1998 0a52 59010000 		.4byte	.LASF170
 1999 0a56 10       		.byte	0x10
 2000 0a57 61       		.byte	0x61
 2001 0a58 B8000000 		.4byte	0xb8
 2002 0a5c 04       		.byte	0x4
 2003 0a5d 01       		.byte	0x1
 2004 0a5e 13       		.byte	0x13
 2005 0a5f 00       		.byte	0
 2006 0a60 1E       		.uleb128 0x1e
 2007 0a61 31080000 		.4byte	.LASF171
 2008 0a65 10       		.byte	0x10
 2009 0a66 62       		.byte	0x62
 2010 0a67 B8000000 		.4byte	0xb8
 2011 0a6b 04       		.byte	0x4
 2012 0a6c 03       		.byte	0x3
 2013 0a6d 10       		.byte	0x10
 2014 0a6e 00       		.byte	0
 2015 0a6f 1F       		.uleb128 0x1f
 2016 0a70 64617900 		.ascii	"day\000"
 2017 0a74 10       		.byte	0x10
 2018 0a75 63       		.byte	0x63
 2019 0a76 B8000000 		.4byte	0xb8
 2020 0a7a 04       		.byte	0x4
 2021 0a7b 05       		.byte	0x5
 2022 0a7c 0B       		.byte	0xb
 2023 0a7d 00       		.byte	0
 2024 0a7e 1E       		.uleb128 0x1e
 2025 0a7f B3030000 		.4byte	.LASF172
 2026 0a83 10       		.byte	0x10
 2027 0a84 64       		.byte	0x64
 2028 0a85 B8000000 		.4byte	0xb8
 2029 0a89 04       		.byte	0x4
 2030 0a8a 1B       		.byte	0x1b
 2031 0a8b 05       		.byte	0x5
 2032 0a8c 04       		.byte	0x4
 2033 0a8d 00       		.byte	0
 2034 0a8e 04       		.uleb128 0x4
ARM GAS  C:\Users\jo\AppData\Local\Temp\ccqE6SHC.s 			page 37


 2035 0a8f 3B050000 		.4byte	.LASF173
 2036 0a93 10       		.byte	0x10
 2037 0a94 65       		.byte	0x65
 2038 0a95 2B0A0000 		.4byte	0xa2b
 2039 0a99 04       		.uleb128 0x4
 2040 0a9a 8A050000 		.4byte	.LASF174
 2041 0a9e 11       		.byte	0x11
 2042 0a9f 8F       		.byte	0x8f
 2043 0aa0 B8000000 		.4byte	0xb8
 2044 0aa4 18       		.uleb128 0x18
 2045 0aa5 04       		.byte	0x4
 2046 0aa6 11       		.byte	0x11
 2047 0aa7 94       		.byte	0x94
 2048 0aa8 B90A0000 		.4byte	0xab9
 2049 0aac 07       		.uleb128 0x7
 2050 0aad 35050000 		.4byte	.LASF175
 2051 0ab1 11       		.byte	0x11
 2052 0ab2 98       		.byte	0x98
 2053 0ab3 B8000000 		.4byte	0xb8
 2054 0ab7 00       		.byte	0
 2055 0ab8 00       		.byte	0
 2056 0ab9 04       		.uleb128 0x4
 2057 0aba 5A080000 		.4byte	.LASF176
 2058 0abe 11       		.byte	0x11
 2059 0abf 99       		.byte	0x99
 2060 0ac0 A40A0000 		.4byte	0xaa4
 2061 0ac4 0B       		.uleb128 0xb
 2062 0ac5 04       		.byte	0x4
 2063 0ac6 CE060000 		.4byte	0x6ce
 2064 0aca 20       		.uleb128 0x20
 2065 0acb C2080000 		.4byte	.LASF177
 2066 0acf 01       		.byte	0x1
 2067 0ad0 46       		.byte	0x46
 2068 0ad1 00000000 		.4byte	.LFB255
 2069 0ad5 04000000 		.4byte	.LFE255-.LFB255
 2070 0ad9 01       		.uleb128 0x1
 2071 0ada 9C       		.byte	0x9c
 2072 0adb E90A0000 		.4byte	0xae9
 2073 0adf 21       		.uleb128 0x21
 2074 0ae0 04000000 		.4byte	.LVL0
 2075 0ae4 100F0000 		.4byte	0xf10
 2076 0ae8 00       		.byte	0
 2077 0ae9 20       		.uleb128 0x20
 2078 0aea C0020000 		.4byte	.LASF178
 2079 0aee 01       		.byte	0x1
 2080 0aef 54       		.byte	0x54
 2081 0af0 00000000 		.4byte	.LFB256
 2082 0af4 02000000 		.4byte	.LFE256-.LFB256
 2083 0af8 01       		.uleb128 0x1
 2084 0af9 9C       		.byte	0x9c
 2085 0afa 0C0B0000 		.4byte	0xb0c
 2086 0afe 22       		.uleb128 0x22
 2087 0aff BB020000 		.4byte	.LASF180
 2088 0b03 01       		.byte	0x1
 2089 0b04 54       		.byte	0x54
 2090 0b05 0C0B0000 		.4byte	0xb0c
 2091 0b09 01       		.uleb128 0x1
ARM GAS  C:\Users\jo\AppData\Local\Temp\ccqE6SHC.s 			page 38


 2092 0b0a 50       		.byte	0x50
 2093 0b0b 00       		.byte	0
 2094 0b0c 0B       		.uleb128 0xb
 2095 0b0d 04       		.byte	0x4
 2096 0b0e 070A0000 		.4byte	0xa07
 2097 0b12 20       		.uleb128 0x20
 2098 0b13 F1000000 		.4byte	.LASF179
 2099 0b17 01       		.byte	0x1
 2100 0b18 6B       		.byte	0x6b
 2101 0b19 00000000 		.4byte	.LFB257
 2102 0b1d 30000000 		.4byte	.LFE257-.LFB257
 2103 0b21 01       		.uleb128 0x1
 2104 0b22 9C       		.byte	0x9c
 2105 0b23 A00B0000 		.4byte	0xba0
 2106 0b27 23       		.uleb128 0x23
 2107 0b28 BB020000 		.4byte	.LASF180
 2108 0b2c 01       		.byte	0x1
 2109 0b2d 6B       		.byte	0x6b
 2110 0b2e 0C0B0000 		.4byte	0xb0c
 2111 0b32 00000000 		.4byte	.LLST0
 2112 0b36 23       		.uleb128 0x23
 2113 0b37 3A030000 		.4byte	.LASF181
 2114 0b3b 01       		.byte	0x1
 2115 0b3c 6B       		.byte	0x6b
 2116 0b3d A00B0000 		.4byte	0xba0
 2117 0b41 50000000 		.4byte	.LLST1
 2118 0b45 24       		.uleb128 0x24
 2119 0b46 DA060000 		.4byte	.LASF183
 2120 0b4a BB0B0000 		.4byte	0xbbb
 2121 0b4e 05       		.uleb128 0x5
 2122 0b4f 03       		.byte	0x3
 2123 0b50 00000000 		.4byte	__func__.8194
 2124 0b54 25       		.uleb128 0x25
 2125 0b55 16000000 		.4byte	.LVL3
 2126 0b59 170F0000 		.4byte	0xf17
 2127 0b5d 700B0000 		.4byte	0xb70
 2128 0b61 26       		.uleb128 0x26
 2129 0b62 01       		.uleb128 0x1
 2130 0b63 51       		.byte	0x51
 2131 0b64 03       		.uleb128 0x3
 2132 0b65 F3       		.byte	0xf3
 2133 0b66 01       		.uleb128 0x1
 2134 0b67 51       		.byte	0x51
 2135 0b68 26       		.uleb128 0x26
 2136 0b69 01       		.uleb128 0x1
 2137 0b6a 50       		.byte	0x50
 2138 0b6b 03       		.uleb128 0x3
 2139 0b6c F3       		.byte	0xf3
 2140 0b6d 01       		.uleb128 0x1
 2141 0b6e 50       		.byte	0x50
 2142 0b6f 00       		.byte	0
 2143 0b70 27       		.uleb128 0x27
 2144 0b71 1E000000 		.4byte	.LVL5
 2145 0b75 2D0F0000 		.4byte	0xf2d
 2146 0b79 870B0000 		.4byte	0xb87
 2147 0b7d 26       		.uleb128 0x26
 2148 0b7e 01       		.uleb128 0x1
ARM GAS  C:\Users\jo\AppData\Local\Temp\ccqE6SHC.s 			page 39


 2149 0b7f 50       		.byte	0x50
 2150 0b80 05       		.uleb128 0x5
 2151 0b81 03       		.byte	0x3
 2152 0b82 00000000 		.4byte	.LANCHOR0
 2153 0b86 00       		.byte	0
 2154 0b87 28       		.uleb128 0x28
 2155 0b88 2C000000 		.4byte	.LVL7
 2156 0b8c 170F0000 		.4byte	0xf17
 2157 0b90 26       		.uleb128 0x26
 2158 0b91 01       		.uleb128 0x1
 2159 0b92 51       		.byte	0x51
 2160 0b93 03       		.uleb128 0x3
 2161 0b94 7D       		.byte	0x7d
 2162 0b95 74       		.sleb128 -12
 2163 0b96 06       		.byte	0x6
 2164 0b97 26       		.uleb128 0x26
 2165 0b98 01       		.uleb128 0x1
 2166 0b99 50       		.byte	0x50
 2167 0b9a 03       		.uleb128 0x3
 2168 0b9b F3       		.byte	0xf3
 2169 0b9c 01       		.uleb128 0x1
 2170 0b9d 50       		.byte	0x50
 2171 0b9e 00       		.byte	0
 2172 0b9f 00       		.byte	0
 2173 0ba0 0B       		.uleb128 0xb
 2174 0ba1 04       		.byte	0x4
 2175 0ba2 A60B0000 		.4byte	0xba6
 2176 0ba6 17       		.uleb128 0x17
 2177 0ba7 8E0A0000 		.4byte	0xa8e
 2178 0bab 12       		.uleb128 0x12
 2179 0bac 8A070000 		.4byte	0x78a
 2180 0bb0 BB0B0000 		.4byte	0xbbb
 2181 0bb4 13       		.uleb128 0x13
 2182 0bb5 A8040000 		.4byte	0x4a8
 2183 0bb9 0A       		.byte	0xa
 2184 0bba 00       		.byte	0
 2185 0bbb 17       		.uleb128 0x17
 2186 0bbc AB0B0000 		.4byte	0xbab
 2187 0bc0 20       		.uleb128 0x20
 2188 0bc1 11080000 		.4byte	.LASF182
 2189 0bc5 01       		.byte	0x1
 2190 0bc6 80       		.byte	0x80
 2191 0bc7 00000000 		.4byte	.LFB258
 2192 0bcb 30000000 		.4byte	.LFE258-.LFB258
 2193 0bcf 01       		.uleb128 0x1
 2194 0bd0 9C       		.byte	0x9c
 2195 0bd1 4E0C0000 		.4byte	0xc4e
 2196 0bd5 23       		.uleb128 0x23
 2197 0bd6 BB020000 		.4byte	.LASF180
 2198 0bda 01       		.byte	0x1
 2199 0bdb 80       		.byte	0x80
 2200 0bdc 0C0B0000 		.4byte	0xb0c
 2201 0be0 94000000 		.4byte	.LLST2
 2202 0be4 23       		.uleb128 0x23
 2203 0be5 3A030000 		.4byte	.LASF181
 2204 0be9 01       		.byte	0x1
 2205 0bea 80       		.byte	0x80
ARM GAS  C:\Users\jo\AppData\Local\Temp\ccqE6SHC.s 			page 40


 2206 0beb 4E0C0000 		.4byte	0xc4e
 2207 0bef E4000000 		.4byte	.LLST3
 2208 0bf3 24       		.uleb128 0x24
 2209 0bf4 DA060000 		.4byte	.LASF183
 2210 0bf8 540C0000 		.4byte	0xc54
 2211 0bfc 05       		.uleb128 0x5
 2212 0bfd 03       		.byte	0x3
 2213 0bfe 00000000 		.4byte	__func__.8199
 2214 0c02 25       		.uleb128 0x25
 2215 0c03 16000000 		.4byte	.LVL9
 2216 0c07 3E0F0000 		.4byte	0xf3e
 2217 0c0b 1E0C0000 		.4byte	0xc1e
 2218 0c0f 26       		.uleb128 0x26
 2219 0c10 01       		.uleb128 0x1
 2220 0c11 51       		.byte	0x51
 2221 0c12 03       		.uleb128 0x3
 2222 0c13 F3       		.byte	0xf3
 2223 0c14 01       		.uleb128 0x1
 2224 0c15 51       		.byte	0x51
 2225 0c16 26       		.uleb128 0x26
 2226 0c17 01       		.uleb128 0x1
 2227 0c18 50       		.byte	0x50
 2228 0c19 03       		.uleb128 0x3
 2229 0c1a F3       		.byte	0xf3
 2230 0c1b 01       		.uleb128 0x1
 2231 0c1c 50       		.byte	0x50
 2232 0c1d 00       		.byte	0
 2233 0c1e 27       		.uleb128 0x27
 2234 0c1f 1E000000 		.4byte	.LVL11
 2235 0c23 2D0F0000 		.4byte	0xf2d
 2236 0c27 350C0000 		.4byte	0xc35
 2237 0c2b 26       		.uleb128 0x26
 2238 0c2c 01       		.uleb128 0x1
 2239 0c2d 50       		.byte	0x50
 2240 0c2e 05       		.uleb128 0x5
 2241 0c2f 03       		.byte	0x3
 2242 0c30 00000000 		.4byte	.LANCHOR1
 2243 0c34 00       		.byte	0
 2244 0c35 28       		.uleb128 0x28
 2245 0c36 2C000000 		.4byte	.LVL13
 2246 0c3a 3E0F0000 		.4byte	0xf3e
 2247 0c3e 26       		.uleb128 0x26
 2248 0c3f 01       		.uleb128 0x1
 2249 0c40 51       		.byte	0x51
 2250 0c41 03       		.uleb128 0x3
 2251 0c42 7D       		.byte	0x7d
 2252 0c43 74       		.sleb128 -12
 2253 0c44 06       		.byte	0x6
 2254 0c45 26       		.uleb128 0x26
 2255 0c46 01       		.uleb128 0x1
 2256 0c47 50       		.byte	0x50
 2257 0c48 03       		.uleb128 0x3
 2258 0c49 F3       		.byte	0xf3
 2259 0c4a 01       		.uleb128 0x1
 2260 0c4b 50       		.byte	0x50
 2261 0c4c 00       		.byte	0
 2262 0c4d 00       		.byte	0
ARM GAS  C:\Users\jo\AppData\Local\Temp\ccqE6SHC.s 			page 41


 2263 0c4e 0B       		.uleb128 0xb
 2264 0c4f 04       		.byte	0x4
 2265 0c50 8E0A0000 		.4byte	0xa8e
 2266 0c54 17       		.uleb128 0x17
 2267 0c55 AB0B0000 		.4byte	0xbab
 2268 0c59 20       		.uleb128 0x20
 2269 0c5a 6C020000 		.4byte	.LASF184
 2270 0c5e 01       		.byte	0x1
 2271 0c5f 97       		.byte	0x97
 2272 0c60 00000000 		.4byte	.LFB259
 2273 0c64 28000000 		.4byte	.LFE259-.LFB259
 2274 0c68 01       		.uleb128 0x1
 2275 0c69 9C       		.byte	0x9c
 2276 0c6a E10C0000 		.4byte	0xce1
 2277 0c6e 23       		.uleb128 0x23
 2278 0c6f BB020000 		.4byte	.LASF180
 2279 0c73 01       		.byte	0x1
 2280 0c74 97       		.byte	0x97
 2281 0c75 0C0B0000 		.4byte	0xb0c
 2282 0c79 28010000 		.4byte	.LLST4
 2283 0c7d 23       		.uleb128 0x23
 2284 0c7e 6D060000 		.4byte	.LASF185
 2285 0c82 01       		.byte	0x1
 2286 0c83 98       		.byte	0x98
 2287 0c84 990A0000 		.4byte	0xa99
 2288 0c88 5F010000 		.4byte	.LLST5
 2289 0c8c 23       		.uleb128 0x23
 2290 0c8d 78020000 		.4byte	.LASF186
 2291 0c91 01       		.byte	0x1
 2292 0c92 99       		.byte	0x99
 2293 0c93 E10C0000 		.4byte	0xce1
 2294 0c97 96010000 		.4byte	.LLST6
 2295 0c9b 24       		.uleb128 0x24
 2296 0c9c DA060000 		.4byte	.LASF183
 2297 0ca0 FC0C0000 		.4byte	0xcfc
 2298 0ca4 05       		.uleb128 0x5
 2299 0ca5 03       		.byte	0x3
 2300 0ca6 00000000 		.4byte	__func__.8205
 2301 0caa 27       		.uleb128 0x27
 2302 0cab 14000000 		.4byte	.LVL16
 2303 0caf 2D0F0000 		.4byte	0xf2d
 2304 0cb3 C10C0000 		.4byte	0xcc1
 2305 0cb7 26       		.uleb128 0x26
 2306 0cb8 01       		.uleb128 0x1
 2307 0cb9 50       		.byte	0x50
 2308 0cba 05       		.uleb128 0x5
 2309 0cbb 03       		.byte	0x3
 2310 0cbc 00000000 		.4byte	.LANCHOR2
 2311 0cc0 00       		.byte	0
 2312 0cc1 28       		.uleb128 0x28
 2313 0cc2 22000000 		.4byte	.LVL18
 2314 0cc6 540F0000 		.4byte	0xf54
 2315 0cca 26       		.uleb128 0x26
 2316 0ccb 01       		.uleb128 0x1
 2317 0ccc 52       		.byte	0x52
 2318 0ccd 03       		.uleb128 0x3
 2319 0cce F3       		.byte	0xf3
ARM GAS  C:\Users\jo\AppData\Local\Temp\ccqE6SHC.s 			page 42


 2320 0ccf 01       		.uleb128 0x1
 2321 0cd0 52       		.byte	0x52
 2322 0cd1 26       		.uleb128 0x26
 2323 0cd2 01       		.uleb128 0x1
 2324 0cd3 51       		.byte	0x51
 2325 0cd4 03       		.uleb128 0x3
 2326 0cd5 F3       		.byte	0xf3
 2327 0cd6 01       		.uleb128 0x1
 2328 0cd7 51       		.byte	0x51
 2329 0cd8 26       		.uleb128 0x26
 2330 0cd9 01       		.uleb128 0x1
 2331 0cda 50       		.byte	0x50
 2332 0cdb 03       		.uleb128 0x3
 2333 0cdc F3       		.byte	0xf3
 2334 0cdd 01       		.uleb128 0x1
 2335 0cde 50       		.byte	0x50
 2336 0cdf 00       		.byte	0
 2337 0ce0 00       		.byte	0
 2338 0ce1 0B       		.uleb128 0xb
 2339 0ce2 04       		.byte	0x4
 2340 0ce3 E70C0000 		.4byte	0xce7
 2341 0ce7 17       		.uleb128 0x17
 2342 0ce8 B90A0000 		.4byte	0xab9
 2343 0cec 12       		.uleb128 0x12
 2344 0ced 8A070000 		.4byte	0x78a
 2345 0cf1 FC0C0000 		.4byte	0xcfc
 2346 0cf5 13       		.uleb128 0x13
 2347 0cf6 A8040000 		.4byte	0x4a8
 2348 0cfa 0B       		.byte	0xb
 2349 0cfb 00       		.byte	0
 2350 0cfc 17       		.uleb128 0x17
 2351 0cfd EC0C0000 		.4byte	0xcec
 2352 0d01 20       		.uleb128 0x20
 2353 0d02 D7010000 		.4byte	.LASF187
 2354 0d06 01       		.byte	0x1
 2355 0d07 B1       		.byte	0xb1
 2356 0d08 00000000 		.4byte	.LFB260
 2357 0d0c 38000000 		.4byte	.LFE260-.LFB260
 2358 0d10 01       		.uleb128 0x1
 2359 0d11 9C       		.byte	0x9c
 2360 0d12 AC0D0000 		.4byte	0xdac
 2361 0d16 23       		.uleb128 0x23
 2362 0d17 BB020000 		.4byte	.LASF180
 2363 0d1b 01       		.byte	0x1
 2364 0d1c B1       		.byte	0xb1
 2365 0d1d 0C0B0000 		.4byte	0xb0c
 2366 0d21 CD010000 		.4byte	.LLST7
 2367 0d25 23       		.uleb128 0x23
 2368 0d26 6D060000 		.4byte	.LASF185
 2369 0d2a 01       		.byte	0x1
 2370 0d2b B2       		.byte	0xb2
 2371 0d2c 990A0000 		.4byte	0xa99
 2372 0d30 33020000 		.4byte	.LLST8
 2373 0d34 23       		.uleb128 0x23
 2374 0d35 78020000 		.4byte	.LASF186
 2375 0d39 01       		.byte	0x1
 2376 0d3a B3       		.byte	0xb3
ARM GAS  C:\Users\jo\AppData\Local\Temp\ccqE6SHC.s 			page 43


 2377 0d3b AC0D0000 		.4byte	0xdac
 2378 0d3f 99020000 		.4byte	.LLST9
 2379 0d43 24       		.uleb128 0x24
 2380 0d44 DA060000 		.4byte	.LASF183
 2381 0d48 B20D0000 		.4byte	0xdb2
 2382 0d4c 05       		.uleb128 0x5
 2383 0d4d 03       		.byte	0x3
 2384 0d4e 00000000 		.4byte	__func__.8211
 2385 0d52 27       		.uleb128 0x27
 2386 0d53 14000000 		.4byte	.LVL21
 2387 0d57 2D0F0000 		.4byte	0xf2d
 2388 0d5b 690D0000 		.4byte	0xd69
 2389 0d5f 26       		.uleb128 0x26
 2390 0d60 01       		.uleb128 0x1
 2391 0d61 50       		.byte	0x50
 2392 0d62 05       		.uleb128 0x5
 2393 0d63 03       		.byte	0x3
 2394 0d64 00000000 		.4byte	.LANCHOR3
 2395 0d68 00       		.byte	0
 2396 0d69 25       		.uleb128 0x25
 2397 0d6a 22000000 		.4byte	.LVL23
 2398 0d6e 6F0F0000 		.4byte	0xf6f
 2399 0d72 8C0D0000 		.4byte	0xd8c
 2400 0d76 26       		.uleb128 0x26
 2401 0d77 01       		.uleb128 0x1
 2402 0d78 52       		.byte	0x52
 2403 0d79 03       		.uleb128 0x3
 2404 0d7a F3       		.byte	0xf3
 2405 0d7b 01       		.uleb128 0x1
 2406 0d7c 52       		.byte	0x52
 2407 0d7d 26       		.uleb128 0x26
 2408 0d7e 01       		.uleb128 0x1
 2409 0d7f 51       		.byte	0x51
 2410 0d80 03       		.uleb128 0x3
 2411 0d81 F3       		.byte	0xf3
 2412 0d82 01       		.uleb128 0x1
 2413 0d83 51       		.byte	0x51
 2414 0d84 26       		.uleb128 0x26
 2415 0d85 01       		.uleb128 0x1
 2416 0d86 50       		.byte	0x50
 2417 0d87 03       		.uleb128 0x3
 2418 0d88 F3       		.byte	0xf3
 2419 0d89 01       		.uleb128 0x1
 2420 0d8a 50       		.byte	0x50
 2421 0d8b 00       		.byte	0
 2422 0d8c 28       		.uleb128 0x28
 2423 0d8d 34000000 		.4byte	.LVL28
 2424 0d91 6F0F0000 		.4byte	0xf6f
 2425 0d95 26       		.uleb128 0x26
 2426 0d96 01       		.uleb128 0x1
 2427 0d97 52       		.byte	0x52
 2428 0d98 03       		.uleb128 0x3
 2429 0d99 F3       		.byte	0xf3
 2430 0d9a 01       		.uleb128 0x1
 2431 0d9b 52       		.byte	0x52
 2432 0d9c 26       		.uleb128 0x26
 2433 0d9d 01       		.uleb128 0x1
ARM GAS  C:\Users\jo\AppData\Local\Temp\ccqE6SHC.s 			page 44


 2434 0d9e 51       		.byte	0x51
 2435 0d9f 03       		.uleb128 0x3
 2436 0da0 F3       		.byte	0xf3
 2437 0da1 01       		.uleb128 0x1
 2438 0da2 51       		.byte	0x51
 2439 0da3 26       		.uleb128 0x26
 2440 0da4 01       		.uleb128 0x1
 2441 0da5 50       		.byte	0x50
 2442 0da6 03       		.uleb128 0x3
 2443 0da7 F3       		.byte	0xf3
 2444 0da8 01       		.uleb128 0x1
 2445 0da9 50       		.byte	0x50
 2446 0daa 00       		.byte	0
 2447 0dab 00       		.byte	0
 2448 0dac 0B       		.uleb128 0xb
 2449 0dad 04       		.byte	0x4
 2450 0dae B90A0000 		.4byte	0xab9
 2451 0db2 17       		.uleb128 0x17
 2452 0db3 EC0C0000 		.4byte	0xcec
 2453 0db7 20       		.uleb128 0x20
 2454 0db8 19010000 		.4byte	.LASF188
 2455 0dbc 01       		.byte	0x1
 2456 0dbd DC       		.byte	0xdc
 2457 0dbe 00000000 		.4byte	.LFB261
 2458 0dc2 80000000 		.4byte	.LFE261-.LFB261
 2459 0dc6 01       		.uleb128 0x1
 2460 0dc7 9C       		.byte	0x9c
 2461 0dc8 F80D0000 		.4byte	0xdf8
 2462 0dcc 23       		.uleb128 0x23
 2463 0dcd 3A030000 		.4byte	.LASF181
 2464 0dd1 01       		.byte	0x1
 2465 0dd2 DC       		.byte	0xdc
 2466 0dd3 A00B0000 		.4byte	0xba0
 2467 0dd7 FF020000 		.4byte	.LLST10
 2468 0ddb 22       		.uleb128 0x22
 2469 0ddc 63080000 		.4byte	.LASF189
 2470 0de0 01       		.byte	0x1
 2471 0de1 DD       		.byte	0xdd
 2472 0de2 F80D0000 		.4byte	0xdf8
 2473 0de6 01       		.uleb128 0x1
 2474 0de7 51       		.byte	0x51
 2475 0de8 29       		.uleb128 0x29
 2476 0de9 746D7000 		.ascii	"tmp\000"
 2477 0ded 01       		.byte	0x1
 2478 0dee DE       		.byte	0xde
 2479 0def B8000000 		.4byte	0xb8
 2480 0df3 20030000 		.4byte	.LLST11
 2481 0df7 00       		.byte	0
 2482 0df8 0B       		.uleb128 0xb
 2483 0df9 04       		.byte	0x4
 2484 0dfa 8F090000 		.4byte	0x98f
 2485 0dfe 20       		.uleb128 0x20
 2486 0dff D3020000 		.4byte	.LASF190
 2487 0e03 01       		.byte	0x1
 2488 0e04 F6       		.byte	0xf6
 2489 0e05 00000000 		.4byte	.LFB262
 2490 0e09 62000000 		.4byte	.LFE262-.LFB262
ARM GAS  C:\Users\jo\AppData\Local\Temp\ccqE6SHC.s 			page 45


 2491 0e0d 01       		.uleb128 0x1
 2492 0e0e 9C       		.byte	0x9c
 2493 0e0f 3F0E0000 		.4byte	0xe3f
 2494 0e13 23       		.uleb128 0x23
 2495 0e14 63080000 		.4byte	.LASF189
 2496 0e18 01       		.byte	0x1
 2497 0e19 F6       		.byte	0xf6
 2498 0e1a 3F0E0000 		.4byte	0xe3f
 2499 0e1e 6D030000 		.4byte	.LLST12
 2500 0e22 23       		.uleb128 0x23
 2501 0e23 2F060000 		.4byte	.LASF191
 2502 0e27 01       		.byte	0x1
 2503 0e28 F7       		.byte	0xf7
 2504 0e29 B8000000 		.4byte	0xb8
 2505 0e2d 8E030000 		.4byte	.LLST13
 2506 0e31 22       		.uleb128 0x22
 2507 0e32 3A030000 		.4byte	.LASF181
 2508 0e36 01       		.byte	0x1
 2509 0e37 F8       		.byte	0xf8
 2510 0e38 4E0C0000 		.4byte	0xc4e
 2511 0e3c 01       		.uleb128 0x1
 2512 0e3d 52       		.byte	0x52
 2513 0e3e 00       		.byte	0
 2514 0e3f 0B       		.uleb128 0xb
 2515 0e40 04       		.byte	0x4
 2516 0e41 450E0000 		.4byte	0xe45
 2517 0e45 17       		.uleb128 0x17
 2518 0e46 8F090000 		.4byte	0x98f
 2519 0e4a 2A       		.uleb128 0x2a
 2520 0e4b 6A010000 		.4byte	.LASF203
 2521 0e4f 01       		.byte	0x1
 2522 0e50 1001     		.2byte	0x110
 2523 0e52 B8000000 		.4byte	0xb8
 2524 0e56 00000000 		.4byte	.LFB263
 2525 0e5a A0000000 		.4byte	.LFE263-.LFB263
 2526 0e5e 01       		.uleb128 0x1
 2527 0e5f 9C       		.byte	0x9c
 2528 0e60 E30E0000 		.4byte	0xee3
 2529 0e64 2B       		.uleb128 0x2b
 2530 0e65 3A030000 		.4byte	.LASF181
 2531 0e69 01       		.byte	0x1
 2532 0e6a 1001     		.2byte	0x110
 2533 0e6c A00B0000 		.4byte	0xba0
 2534 0e70 AF030000 		.4byte	.LLST14
 2535 0e74 2C       		.uleb128 0x2c
 2536 0e75 1C000000 		.4byte	.LASF192
 2537 0e79 01       		.byte	0x1
 2538 0e7a 1101     		.2byte	0x111
 2539 0e7c B8000000 		.4byte	0xb8
 2540 0e80 DB030000 		.4byte	.LLST15
 2541 0e84 2D       		.uleb128 0x2d
 2542 0e85 73656300 		.ascii	"sec\000"
 2543 0e89 01       		.byte	0x1
 2544 0e8a 1201     		.2byte	0x112
 2545 0e8c B8000000 		.4byte	0xb8
 2546 0e90 01       		.uleb128 0x1
 2547 0e91 51       		.byte	0x51
ARM GAS  C:\Users\jo\AppData\Local\Temp\ccqE6SHC.s 			page 46


 2548 0e92 2E       		.uleb128 0x2e
 2549 0e93 6D696E00 		.ascii	"min\000"
 2550 0e97 01       		.byte	0x1
 2551 0e98 1201     		.2byte	0x112
 2552 0e9a B8000000 		.4byte	0xb8
 2553 0e9e 1F040000 		.4byte	.LLST16
 2554 0ea2 2C       		.uleb128 0x2c
 2555 0ea3 CE020000 		.4byte	.LASF193
 2556 0ea7 01       		.byte	0x1
 2557 0ea8 1201     		.2byte	0x112
 2558 0eaa B8000000 		.4byte	0xb8
 2559 0eae AE040000 		.4byte	.LLST17
 2560 0eb2 2E       		.uleb128 0x2e
 2561 0eb3 64617900 		.ascii	"day\000"
 2562 0eb7 01       		.byte	0x1
 2563 0eb8 1201     		.2byte	0x112
 2564 0eba B8000000 		.4byte	0xb8
 2565 0ebe CD040000 		.4byte	.LLST18
 2566 0ec2 2C       		.uleb128 0x2c
 2567 0ec3 16030000 		.4byte	.LASF169
 2568 0ec7 01       		.byte	0x1
 2569 0ec8 1201     		.2byte	0x112
 2570 0eca B8000000 		.4byte	0xb8
 2571 0ece F7040000 		.4byte	.LLST19
 2572 0ed2 2E       		.uleb128 0x2e
 2573 0ed3 746D7000 		.ascii	"tmp\000"
 2574 0ed7 01       		.byte	0x1
 2575 0ed8 1201     		.2byte	0x112
 2576 0eda B8000000 		.4byte	0xb8
 2577 0ede 15050000 		.4byte	.LLST20
 2578 0ee2 00       		.byte	0
 2579 0ee3 2F       		.uleb128 0x2f
 2580 0ee4 15050000 		.4byte	.LASF194
 2581 0ee8 01       		.byte	0x1
 2582 0ee9 33       		.byte	0x33
 2583 0eea F40E0000 		.4byte	0xef4
 2584 0eee 05       		.uleb128 0x5
 2585 0eef 03       		.byte	0x3
 2586 0ef0 00000000 		.4byte	month_len
 2587 0ef4 17       		.uleb128 0x17
 2588 0ef5 AF040000 		.4byte	0x4af
 2589 0ef9 30       		.uleb128 0x30
 2590 0efa 4C010000 		.4byte	.LASF195
 2591 0efe 13       		.byte	0x13
 2592 0eff A706     		.2byte	0x6a7
 2593 0f01 CE000000 		.4byte	0xce
 2594 0f05 31       		.uleb128 0x31
 2595 0f06 636800   		.ascii	"ch\000"
 2596 0f09 07       		.byte	0x7
 2597 0f0a EB01     		.2byte	0x1eb
 2598 0f0c 30040000 		.4byte	0x430
 2599 0f10 32       		.uleb128 0x32
 2600 0f11 15020000 		.4byte	.LASF204
 2601 0f15 11       		.byte	0x11
 2602 0f16 D6       		.byte	0xd6
 2603 0f17 33       		.uleb128 0x33
 2604 0f18 54030000 		.4byte	.LASF196
ARM GAS  C:\Users\jo\AppData\Local\Temp\ccqE6SHC.s 			page 47


 2605 0f1c 11       		.byte	0x11
 2606 0f1d D7       		.byte	0xd7
 2607 0f1e 2D0F0000 		.4byte	0xf2d
 2608 0f22 0D       		.uleb128 0xd
 2609 0f23 0C0B0000 		.4byte	0xb0c
 2610 0f27 0D       		.uleb128 0xd
 2611 0f28 A00B0000 		.4byte	0xba0
 2612 0f2c 00       		.byte	0
 2613 0f2d 33       		.uleb128 0x33
 2614 0f2e 58050000 		.4byte	.LASF197
 2615 0f32 12       		.byte	0x12
 2616 0f33 E6       		.byte	0xe6
 2617 0f34 3E0F0000 		.4byte	0xf3e
 2618 0f38 0D       		.uleb128 0xd
 2619 0f39 91070000 		.4byte	0x791
 2620 0f3d 00       		.byte	0
 2621 0f3e 33       		.uleb128 0x33
 2622 0f3f BF030000 		.4byte	.LASF198
 2623 0f43 11       		.byte	0x11
 2624 0f44 D8       		.byte	0xd8
 2625 0f45 540F0000 		.4byte	0xf54
 2626 0f49 0D       		.uleb128 0xd
 2627 0f4a 0C0B0000 		.4byte	0xb0c
 2628 0f4e 0D       		.uleb128 0xd
 2629 0f4f 4E0C0000 		.4byte	0xc4e
 2630 0f53 00       		.byte	0
 2631 0f54 33       		.uleb128 0x33
 2632 0f55 6C030000 		.4byte	.LASF199
 2633 0f59 11       		.byte	0x11
 2634 0f5a DA       		.byte	0xda
 2635 0f5b 6F0F0000 		.4byte	0xf6f
 2636 0f5f 0D       		.uleb128 0xd
 2637 0f60 0C0B0000 		.4byte	0xb0c
 2638 0f64 0D       		.uleb128 0xd
 2639 0f65 990A0000 		.4byte	0xa99
 2640 0f69 0D       		.uleb128 0xd
 2641 0f6a E10C0000 		.4byte	0xce1
 2642 0f6e 00       		.byte	0
 2643 0f6f 34       		.uleb128 0x34
 2644 0f70 5B070000 		.4byte	.LASF205
 2645 0f74 11       		.byte	0x11
 2646 0f75 DD       		.byte	0xdd
 2647 0f76 0D       		.uleb128 0xd
 2648 0f77 0C0B0000 		.4byte	0xb0c
 2649 0f7b 0D       		.uleb128 0xd
 2650 0f7c 990A0000 		.4byte	0xa99
 2651 0f80 0D       		.uleb128 0xd
 2652 0f81 AC0D0000 		.4byte	0xdac
 2653 0f85 00       		.byte	0
 2654 0f86 00       		.byte	0
 2655              		.section	.debug_abbrev,"",%progbits
 2656              	.Ldebug_abbrev0:
 2657 0000 01       		.uleb128 0x1
 2658 0001 11       		.uleb128 0x11
 2659 0002 01       		.byte	0x1
 2660 0003 25       		.uleb128 0x25
 2661 0004 0E       		.uleb128 0xe
ARM GAS  C:\Users\jo\AppData\Local\Temp\ccqE6SHC.s 			page 48


 2662 0005 13       		.uleb128 0x13
 2663 0006 0B       		.uleb128 0xb
 2664 0007 03       		.uleb128 0x3
 2665 0008 0E       		.uleb128 0xe
 2666 0009 1B       		.uleb128 0x1b
 2667 000a 0E       		.uleb128 0xe
 2668 000b 55       		.uleb128 0x55
 2669 000c 17       		.uleb128 0x17
 2670 000d 11       		.uleb128 0x11
 2671 000e 01       		.uleb128 0x1
 2672 000f 10       		.uleb128 0x10
 2673 0010 17       		.uleb128 0x17
 2674 0011 00       		.byte	0
 2675 0012 00       		.byte	0
 2676 0013 02       		.uleb128 0x2
 2677 0014 24       		.uleb128 0x24
 2678 0015 00       		.byte	0
 2679 0016 0B       		.uleb128 0xb
 2680 0017 0B       		.uleb128 0xb
 2681 0018 3E       		.uleb128 0x3e
 2682 0019 0B       		.uleb128 0xb
 2683 001a 03       		.uleb128 0x3
 2684 001b 0E       		.uleb128 0xe
 2685 001c 00       		.byte	0
 2686 001d 00       		.byte	0
 2687 001e 03       		.uleb128 0x3
 2688 001f 24       		.uleb128 0x24
 2689 0020 00       		.byte	0
 2690 0021 0B       		.uleb128 0xb
 2691 0022 0B       		.uleb128 0xb
 2692 0023 3E       		.uleb128 0x3e
 2693 0024 0B       		.uleb128 0xb
 2694 0025 03       		.uleb128 0x3
 2695 0026 08       		.uleb128 0x8
 2696 0027 00       		.byte	0
 2697 0028 00       		.byte	0
 2698 0029 04       		.uleb128 0x4
 2699 002a 16       		.uleb128 0x16
 2700 002b 00       		.byte	0
 2701 002c 03       		.uleb128 0x3
 2702 002d 0E       		.uleb128 0xe
 2703 002e 3A       		.uleb128 0x3a
 2704 002f 0B       		.uleb128 0xb
 2705 0030 3B       		.uleb128 0x3b
 2706 0031 0B       		.uleb128 0xb
 2707 0032 49       		.uleb128 0x49
 2708 0033 13       		.uleb128 0x13
 2709 0034 00       		.byte	0
 2710 0035 00       		.byte	0
 2711 0036 05       		.uleb128 0x5
 2712 0037 35       		.uleb128 0x35
 2713 0038 00       		.byte	0
 2714 0039 49       		.uleb128 0x49
 2715 003a 13       		.uleb128 0x13
 2716 003b 00       		.byte	0
 2717 003c 00       		.byte	0
 2718 003d 06       		.uleb128 0x6
ARM GAS  C:\Users\jo\AppData\Local\Temp\ccqE6SHC.s 			page 49


 2719 003e 13       		.uleb128 0x13
 2720 003f 01       		.byte	0x1
 2721 0040 03       		.uleb128 0x3
 2722 0041 0E       		.uleb128 0xe
 2723 0042 0B       		.uleb128 0xb
 2724 0043 0B       		.uleb128 0xb
 2725 0044 3A       		.uleb128 0x3a
 2726 0045 0B       		.uleb128 0xb
 2727 0046 3B       		.uleb128 0x3b
 2728 0047 0B       		.uleb128 0xb
 2729 0048 01       		.uleb128 0x1
 2730 0049 13       		.uleb128 0x13
 2731 004a 00       		.byte	0
 2732 004b 00       		.byte	0
 2733 004c 07       		.uleb128 0x7
 2734 004d 0D       		.uleb128 0xd
 2735 004e 00       		.byte	0
 2736 004f 03       		.uleb128 0x3
 2737 0050 0E       		.uleb128 0xe
 2738 0051 3A       		.uleb128 0x3a
 2739 0052 0B       		.uleb128 0xb
 2740 0053 3B       		.uleb128 0x3b
 2741 0054 0B       		.uleb128 0xb
 2742 0055 49       		.uleb128 0x49
 2743 0056 13       		.uleb128 0x13
 2744 0057 38       		.uleb128 0x38
 2745 0058 0B       		.uleb128 0xb
 2746 0059 00       		.byte	0
 2747 005a 00       		.byte	0
 2748 005b 08       		.uleb128 0x8
 2749 005c 0D       		.uleb128 0xd
 2750 005d 00       		.byte	0
 2751 005e 03       		.uleb128 0x3
 2752 005f 08       		.uleb128 0x8
 2753 0060 3A       		.uleb128 0x3a
 2754 0061 0B       		.uleb128 0xb
 2755 0062 3B       		.uleb128 0x3b
 2756 0063 05       		.uleb128 0x5
 2757 0064 49       		.uleb128 0x49
 2758 0065 13       		.uleb128 0x13
 2759 0066 38       		.uleb128 0x38
 2760 0067 0B       		.uleb128 0xb
 2761 0068 00       		.byte	0
 2762 0069 00       		.byte	0
 2763 006a 09       		.uleb128 0x9
 2764 006b 0D       		.uleb128 0xd
 2765 006c 00       		.byte	0
 2766 006d 03       		.uleb128 0x3
 2767 006e 0E       		.uleb128 0xe
 2768 006f 3A       		.uleb128 0x3a
 2769 0070 0B       		.uleb128 0xb
 2770 0071 3B       		.uleb128 0x3b
 2771 0072 05       		.uleb128 0x5
 2772 0073 49       		.uleb128 0x49
 2773 0074 13       		.uleb128 0x13
 2774 0075 38       		.uleb128 0x38
 2775 0076 0B       		.uleb128 0xb
ARM GAS  C:\Users\jo\AppData\Local\Temp\ccqE6SHC.s 			page 50


 2776 0077 00       		.byte	0
 2777 0078 00       		.byte	0
 2778 0079 0A       		.uleb128 0xa
 2779 007a 13       		.uleb128 0x13
 2780 007b 01       		.byte	0x1
 2781 007c 03       		.uleb128 0x3
 2782 007d 0E       		.uleb128 0xe
 2783 007e 0B       		.uleb128 0xb
 2784 007f 0B       		.uleb128 0xb
 2785 0080 3A       		.uleb128 0x3a
 2786 0081 0B       		.uleb128 0xb
 2787 0082 3B       		.uleb128 0x3b
 2788 0083 05       		.uleb128 0x5
 2789 0084 01       		.uleb128 0x1
 2790 0085 13       		.uleb128 0x13
 2791 0086 00       		.byte	0
 2792 0087 00       		.byte	0
 2793 0088 0B       		.uleb128 0xb
 2794 0089 0F       		.uleb128 0xf
 2795 008a 00       		.byte	0
 2796 008b 0B       		.uleb128 0xb
 2797 008c 0B       		.uleb128 0xb
 2798 008d 49       		.uleb128 0x49
 2799 008e 13       		.uleb128 0x13
 2800 008f 00       		.byte	0
 2801 0090 00       		.byte	0
 2802 0091 0C       		.uleb128 0xc
 2803 0092 15       		.uleb128 0x15
 2804 0093 01       		.byte	0x1
 2805 0094 27       		.uleb128 0x27
 2806 0095 19       		.uleb128 0x19
 2807 0096 01       		.uleb128 0x1
 2808 0097 13       		.uleb128 0x13
 2809 0098 00       		.byte	0
 2810 0099 00       		.byte	0
 2811 009a 0D       		.uleb128 0xd
 2812 009b 05       		.uleb128 0x5
 2813 009c 00       		.byte	0
 2814 009d 49       		.uleb128 0x49
 2815 009e 13       		.uleb128 0x13
 2816 009f 00       		.byte	0
 2817 00a0 00       		.byte	0
 2818 00a1 0E       		.uleb128 0xe
 2819 00a2 0F       		.uleb128 0xf
 2820 00a3 00       		.byte	0
 2821 00a4 0B       		.uleb128 0xb
 2822 00a5 0B       		.uleb128 0xb
 2823 00a6 00       		.byte	0
 2824 00a7 00       		.byte	0
 2825 00a8 0F       		.uleb128 0xf
 2826 00a9 13       		.uleb128 0x13
 2827 00aa 01       		.byte	0x1
 2828 00ab 03       		.uleb128 0x3
 2829 00ac 0E       		.uleb128 0xe
 2830 00ad 0B       		.uleb128 0xb
 2831 00ae 05       		.uleb128 0x5
 2832 00af 3A       		.uleb128 0x3a
ARM GAS  C:\Users\jo\AppData\Local\Temp\ccqE6SHC.s 			page 51


 2833 00b0 0B       		.uleb128 0xb
 2834 00b1 3B       		.uleb128 0x3b
 2835 00b2 05       		.uleb128 0x5
 2836 00b3 01       		.uleb128 0x1
 2837 00b4 13       		.uleb128 0x13
 2838 00b5 00       		.byte	0
 2839 00b6 00       		.byte	0
 2840 00b7 10       		.uleb128 0x10
 2841 00b8 0D       		.uleb128 0xd
 2842 00b9 00       		.byte	0
 2843 00ba 03       		.uleb128 0x3
 2844 00bb 0E       		.uleb128 0xe
 2845 00bc 3A       		.uleb128 0x3a
 2846 00bd 0B       		.uleb128 0xb
 2847 00be 3B       		.uleb128 0x3b
 2848 00bf 05       		.uleb128 0x5
 2849 00c0 49       		.uleb128 0x49
 2850 00c1 13       		.uleb128 0x13
 2851 00c2 38       		.uleb128 0x38
 2852 00c3 05       		.uleb128 0x5
 2853 00c4 00       		.byte	0
 2854 00c5 00       		.byte	0
 2855 00c6 11       		.uleb128 0x11
 2856 00c7 0D       		.uleb128 0xd
 2857 00c8 00       		.byte	0
 2858 00c9 03       		.uleb128 0x3
 2859 00ca 08       		.uleb128 0x8
 2860 00cb 3A       		.uleb128 0x3a
 2861 00cc 0B       		.uleb128 0xb
 2862 00cd 3B       		.uleb128 0x3b
 2863 00ce 05       		.uleb128 0x5
 2864 00cf 49       		.uleb128 0x49
 2865 00d0 13       		.uleb128 0x13
 2866 00d1 38       		.uleb128 0x38
 2867 00d2 05       		.uleb128 0x5
 2868 00d3 00       		.byte	0
 2869 00d4 00       		.byte	0
 2870 00d5 12       		.uleb128 0x12
 2871 00d6 01       		.uleb128 0x1
 2872 00d7 01       		.byte	0x1
 2873 00d8 49       		.uleb128 0x49
 2874 00d9 13       		.uleb128 0x13
 2875 00da 01       		.uleb128 0x1
 2876 00db 13       		.uleb128 0x13
 2877 00dc 00       		.byte	0
 2878 00dd 00       		.byte	0
 2879 00de 13       		.uleb128 0x13
 2880 00df 21       		.uleb128 0x21
 2881 00e0 00       		.byte	0
 2882 00e1 49       		.uleb128 0x49
 2883 00e2 13       		.uleb128 0x13
 2884 00e3 2F       		.uleb128 0x2f
 2885 00e4 0B       		.uleb128 0xb
 2886 00e5 00       		.byte	0
 2887 00e6 00       		.byte	0
 2888 00e7 14       		.uleb128 0x14
 2889 00e8 13       		.uleb128 0x13
ARM GAS  C:\Users\jo\AppData\Local\Temp\ccqE6SHC.s 			page 52


 2890 00e9 01       		.byte	0x1
 2891 00ea 0B       		.uleb128 0xb
 2892 00eb 0B       		.uleb128 0xb
 2893 00ec 3A       		.uleb128 0x3a
 2894 00ed 0B       		.uleb128 0xb
 2895 00ee 3B       		.uleb128 0x3b
 2896 00ef 05       		.uleb128 0x5
 2897 00f0 01       		.uleb128 0x1
 2898 00f1 13       		.uleb128 0x13
 2899 00f2 00       		.byte	0
 2900 00f3 00       		.byte	0
 2901 00f4 15       		.uleb128 0x15
 2902 00f5 16       		.uleb128 0x16
 2903 00f6 00       		.byte	0
 2904 00f7 03       		.uleb128 0x3
 2905 00f8 0E       		.uleb128 0xe
 2906 00f9 3A       		.uleb128 0x3a
 2907 00fa 0B       		.uleb128 0xb
 2908 00fb 3B       		.uleb128 0x3b
 2909 00fc 05       		.uleb128 0x5
 2910 00fd 49       		.uleb128 0x49
 2911 00fe 13       		.uleb128 0x13
 2912 00ff 00       		.byte	0
 2913 0100 00       		.byte	0
 2914 0101 16       		.uleb128 0x16
 2915 0102 0D       		.uleb128 0xd
 2916 0103 00       		.byte	0
 2917 0104 03       		.uleb128 0x3
 2918 0105 08       		.uleb128 0x8
 2919 0106 3A       		.uleb128 0x3a
 2920 0107 0B       		.uleb128 0xb
 2921 0108 3B       		.uleb128 0x3b
 2922 0109 0B       		.uleb128 0xb
 2923 010a 49       		.uleb128 0x49
 2924 010b 13       		.uleb128 0x13
 2925 010c 38       		.uleb128 0x38
 2926 010d 0B       		.uleb128 0xb
 2927 010e 00       		.byte	0
 2928 010f 00       		.byte	0
 2929 0110 17       		.uleb128 0x17
 2930 0111 26       		.uleb128 0x26
 2931 0112 00       		.byte	0
 2932 0113 49       		.uleb128 0x49
 2933 0114 13       		.uleb128 0x13
 2934 0115 00       		.byte	0
 2935 0116 00       		.byte	0
 2936 0117 18       		.uleb128 0x18
 2937 0118 13       		.uleb128 0x13
 2938 0119 01       		.byte	0x1
 2939 011a 0B       		.uleb128 0xb
 2940 011b 0B       		.uleb128 0xb
 2941 011c 3A       		.uleb128 0x3a
 2942 011d 0B       		.uleb128 0xb
 2943 011e 3B       		.uleb128 0x3b
 2944 011f 0B       		.uleb128 0xb
 2945 0120 01       		.uleb128 0x1
 2946 0121 13       		.uleb128 0x13
ARM GAS  C:\Users\jo\AppData\Local\Temp\ccqE6SHC.s 			page 53


 2947 0122 00       		.byte	0
 2948 0123 00       		.byte	0
 2949 0124 19       		.uleb128 0x19
 2950 0125 13       		.uleb128 0x13
 2951 0126 01       		.byte	0x1
 2952 0127 0B       		.uleb128 0xb
 2953 0128 05       		.uleb128 0x5
 2954 0129 3A       		.uleb128 0x3a
 2955 012a 0B       		.uleb128 0xb
 2956 012b 3B       		.uleb128 0x3b
 2957 012c 0B       		.uleb128 0xb
 2958 012d 01       		.uleb128 0x1
 2959 012e 13       		.uleb128 0x13
 2960 012f 00       		.byte	0
 2961 0130 00       		.byte	0
 2962 0131 1A       		.uleb128 0x1a
 2963 0132 17       		.uleb128 0x17
 2964 0133 01       		.byte	0x1
 2965 0134 0B       		.uleb128 0xb
 2966 0135 0B       		.uleb128 0xb
 2967 0136 3A       		.uleb128 0x3a
 2968 0137 0B       		.uleb128 0xb
 2969 0138 3B       		.uleb128 0x3b
 2970 0139 0B       		.uleb128 0xb
 2971 013a 01       		.uleb128 0x1
 2972 013b 13       		.uleb128 0x13
 2973 013c 00       		.byte	0
 2974 013d 00       		.byte	0
 2975 013e 1B       		.uleb128 0x1b
 2976 013f 0D       		.uleb128 0xd
 2977 0140 00       		.byte	0
 2978 0141 03       		.uleb128 0x3
 2979 0142 0E       		.uleb128 0xe
 2980 0143 3A       		.uleb128 0x3a
 2981 0144 0B       		.uleb128 0xb
 2982 0145 3B       		.uleb128 0x3b
 2983 0146 0B       		.uleb128 0xb
 2984 0147 49       		.uleb128 0x49
 2985 0148 13       		.uleb128 0x13
 2986 0149 00       		.byte	0
 2987 014a 00       		.byte	0
 2988 014b 1C       		.uleb128 0x1c
 2989 014c 0D       		.uleb128 0xd
 2990 014d 00       		.byte	0
 2991 014e 03       		.uleb128 0x3
 2992 014f 0E       		.uleb128 0xe
 2993 0150 3A       		.uleb128 0x3a
 2994 0151 0B       		.uleb128 0xb
 2995 0152 3B       		.uleb128 0x3b
 2996 0153 05       		.uleb128 0x5
 2997 0154 49       		.uleb128 0x49
 2998 0155 13       		.uleb128 0x13
 2999 0156 00       		.byte	0
 3000 0157 00       		.byte	0
 3001 0158 1D       		.uleb128 0x1d
 3002 0159 13       		.uleb128 0x13
 3003 015a 01       		.byte	0x1
ARM GAS  C:\Users\jo\AppData\Local\Temp\ccqE6SHC.s 			page 54


 3004 015b 03       		.uleb128 0x3
 3005 015c 08       		.uleb128 0x8
 3006 015d 0B       		.uleb128 0xb
 3007 015e 0B       		.uleb128 0xb
 3008 015f 3A       		.uleb128 0x3a
 3009 0160 0B       		.uleb128 0xb
 3010 0161 3B       		.uleb128 0x3b
 3011 0162 0B       		.uleb128 0xb
 3012 0163 01       		.uleb128 0x1
 3013 0164 13       		.uleb128 0x13
 3014 0165 00       		.byte	0
 3015 0166 00       		.byte	0
 3016 0167 1E       		.uleb128 0x1e
 3017 0168 0D       		.uleb128 0xd
 3018 0169 00       		.byte	0
 3019 016a 03       		.uleb128 0x3
 3020 016b 0E       		.uleb128 0xe
 3021 016c 3A       		.uleb128 0x3a
 3022 016d 0B       		.uleb128 0xb
 3023 016e 3B       		.uleb128 0x3b
 3024 016f 0B       		.uleb128 0xb
 3025 0170 49       		.uleb128 0x49
 3026 0171 13       		.uleb128 0x13
 3027 0172 0B       		.uleb128 0xb
 3028 0173 0B       		.uleb128 0xb
 3029 0174 0D       		.uleb128 0xd
 3030 0175 0B       		.uleb128 0xb
 3031 0176 0C       		.uleb128 0xc
 3032 0177 0B       		.uleb128 0xb
 3033 0178 38       		.uleb128 0x38
 3034 0179 0B       		.uleb128 0xb
 3035 017a 00       		.byte	0
 3036 017b 00       		.byte	0
 3037 017c 1F       		.uleb128 0x1f
 3038 017d 0D       		.uleb128 0xd
 3039 017e 00       		.byte	0
 3040 017f 03       		.uleb128 0x3
 3041 0180 08       		.uleb128 0x8
 3042 0181 3A       		.uleb128 0x3a
 3043 0182 0B       		.uleb128 0xb
 3044 0183 3B       		.uleb128 0x3b
 3045 0184 0B       		.uleb128 0xb
 3046 0185 49       		.uleb128 0x49
 3047 0186 13       		.uleb128 0x13
 3048 0187 0B       		.uleb128 0xb
 3049 0188 0B       		.uleb128 0xb
 3050 0189 0D       		.uleb128 0xd
 3051 018a 0B       		.uleb128 0xb
 3052 018b 0C       		.uleb128 0xc
 3053 018c 0B       		.uleb128 0xb
 3054 018d 38       		.uleb128 0x38
 3055 018e 0B       		.uleb128 0xb
 3056 018f 00       		.byte	0
 3057 0190 00       		.byte	0
 3058 0191 20       		.uleb128 0x20
 3059 0192 2E       		.uleb128 0x2e
 3060 0193 01       		.byte	0x1
ARM GAS  C:\Users\jo\AppData\Local\Temp\ccqE6SHC.s 			page 55


 3061 0194 3F       		.uleb128 0x3f
 3062 0195 19       		.uleb128 0x19
 3063 0196 03       		.uleb128 0x3
 3064 0197 0E       		.uleb128 0xe
 3065 0198 3A       		.uleb128 0x3a
 3066 0199 0B       		.uleb128 0xb
 3067 019a 3B       		.uleb128 0x3b
 3068 019b 0B       		.uleb128 0xb
 3069 019c 27       		.uleb128 0x27
 3070 019d 19       		.uleb128 0x19
 3071 019e 11       		.uleb128 0x11
 3072 019f 01       		.uleb128 0x1
 3073 01a0 12       		.uleb128 0x12
 3074 01a1 06       		.uleb128 0x6
 3075 01a2 40       		.uleb128 0x40
 3076 01a3 18       		.uleb128 0x18
 3077 01a4 9742     		.uleb128 0x2117
 3078 01a6 19       		.uleb128 0x19
 3079 01a7 01       		.uleb128 0x1
 3080 01a8 13       		.uleb128 0x13
 3081 01a9 00       		.byte	0
 3082 01aa 00       		.byte	0
 3083 01ab 21       		.uleb128 0x21
 3084 01ac 898201   		.uleb128 0x4109
 3085 01af 00       		.byte	0
 3086 01b0 11       		.uleb128 0x11
 3087 01b1 01       		.uleb128 0x1
 3088 01b2 9542     		.uleb128 0x2115
 3089 01b4 19       		.uleb128 0x19
 3090 01b5 31       		.uleb128 0x31
 3091 01b6 13       		.uleb128 0x13
 3092 01b7 00       		.byte	0
 3093 01b8 00       		.byte	0
 3094 01b9 22       		.uleb128 0x22
 3095 01ba 05       		.uleb128 0x5
 3096 01bb 00       		.byte	0
 3097 01bc 03       		.uleb128 0x3
 3098 01bd 0E       		.uleb128 0xe
 3099 01be 3A       		.uleb128 0x3a
 3100 01bf 0B       		.uleb128 0xb
 3101 01c0 3B       		.uleb128 0x3b
 3102 01c1 0B       		.uleb128 0xb
 3103 01c2 49       		.uleb128 0x49
 3104 01c3 13       		.uleb128 0x13
 3105 01c4 02       		.uleb128 0x2
 3106 01c5 18       		.uleb128 0x18
 3107 01c6 00       		.byte	0
 3108 01c7 00       		.byte	0
 3109 01c8 23       		.uleb128 0x23
 3110 01c9 05       		.uleb128 0x5
 3111 01ca 00       		.byte	0
 3112 01cb 03       		.uleb128 0x3
 3113 01cc 0E       		.uleb128 0xe
 3114 01cd 3A       		.uleb128 0x3a
 3115 01ce 0B       		.uleb128 0xb
 3116 01cf 3B       		.uleb128 0x3b
 3117 01d0 0B       		.uleb128 0xb
ARM GAS  C:\Users\jo\AppData\Local\Temp\ccqE6SHC.s 			page 56


 3118 01d1 49       		.uleb128 0x49
 3119 01d2 13       		.uleb128 0x13
 3120 01d3 02       		.uleb128 0x2
 3121 01d4 17       		.uleb128 0x17
 3122 01d5 00       		.byte	0
 3123 01d6 00       		.byte	0
 3124 01d7 24       		.uleb128 0x24
 3125 01d8 34       		.uleb128 0x34
 3126 01d9 00       		.byte	0
 3127 01da 03       		.uleb128 0x3
 3128 01db 0E       		.uleb128 0xe
 3129 01dc 49       		.uleb128 0x49
 3130 01dd 13       		.uleb128 0x13
 3131 01de 34       		.uleb128 0x34
 3132 01df 19       		.uleb128 0x19
 3133 01e0 02       		.uleb128 0x2
 3134 01e1 18       		.uleb128 0x18
 3135 01e2 00       		.byte	0
 3136 01e3 00       		.byte	0
 3137 01e4 25       		.uleb128 0x25
 3138 01e5 898201   		.uleb128 0x4109
 3139 01e8 01       		.byte	0x1
 3140 01e9 11       		.uleb128 0x11
 3141 01ea 01       		.uleb128 0x1
 3142 01eb 9542     		.uleb128 0x2115
 3143 01ed 19       		.uleb128 0x19
 3144 01ee 31       		.uleb128 0x31
 3145 01ef 13       		.uleb128 0x13
 3146 01f0 01       		.uleb128 0x1
 3147 01f1 13       		.uleb128 0x13
 3148 01f2 00       		.byte	0
 3149 01f3 00       		.byte	0
 3150 01f4 26       		.uleb128 0x26
 3151 01f5 8A8201   		.uleb128 0x410a
 3152 01f8 00       		.byte	0
 3153 01f9 02       		.uleb128 0x2
 3154 01fa 18       		.uleb128 0x18
 3155 01fb 9142     		.uleb128 0x2111
 3156 01fd 18       		.uleb128 0x18
 3157 01fe 00       		.byte	0
 3158 01ff 00       		.byte	0
 3159 0200 27       		.uleb128 0x27
 3160 0201 898201   		.uleb128 0x4109
 3161 0204 01       		.byte	0x1
 3162 0205 11       		.uleb128 0x11
 3163 0206 01       		.uleb128 0x1
 3164 0207 31       		.uleb128 0x31
 3165 0208 13       		.uleb128 0x13
 3166 0209 01       		.uleb128 0x1
 3167 020a 13       		.uleb128 0x13
 3168 020b 00       		.byte	0
 3169 020c 00       		.byte	0
 3170 020d 28       		.uleb128 0x28
 3171 020e 898201   		.uleb128 0x4109
 3172 0211 01       		.byte	0x1
 3173 0212 11       		.uleb128 0x11
 3174 0213 01       		.uleb128 0x1
ARM GAS  C:\Users\jo\AppData\Local\Temp\ccqE6SHC.s 			page 57


 3175 0214 9542     		.uleb128 0x2115
 3176 0216 19       		.uleb128 0x19
 3177 0217 31       		.uleb128 0x31
 3178 0218 13       		.uleb128 0x13
 3179 0219 00       		.byte	0
 3180 021a 00       		.byte	0
 3181 021b 29       		.uleb128 0x29
 3182 021c 34       		.uleb128 0x34
 3183 021d 00       		.byte	0
 3184 021e 03       		.uleb128 0x3
 3185 021f 08       		.uleb128 0x8
 3186 0220 3A       		.uleb128 0x3a
 3187 0221 0B       		.uleb128 0xb
 3188 0222 3B       		.uleb128 0x3b
 3189 0223 0B       		.uleb128 0xb
 3190 0224 49       		.uleb128 0x49
 3191 0225 13       		.uleb128 0x13
 3192 0226 02       		.uleb128 0x2
 3193 0227 17       		.uleb128 0x17
 3194 0228 00       		.byte	0
 3195 0229 00       		.byte	0
 3196 022a 2A       		.uleb128 0x2a
 3197 022b 2E       		.uleb128 0x2e
 3198 022c 01       		.byte	0x1
 3199 022d 3F       		.uleb128 0x3f
 3200 022e 19       		.uleb128 0x19
 3201 022f 03       		.uleb128 0x3
 3202 0230 0E       		.uleb128 0xe
 3203 0231 3A       		.uleb128 0x3a
 3204 0232 0B       		.uleb128 0xb
 3205 0233 3B       		.uleb128 0x3b
 3206 0234 05       		.uleb128 0x5
 3207 0235 27       		.uleb128 0x27
 3208 0236 19       		.uleb128 0x19
 3209 0237 49       		.uleb128 0x49
 3210 0238 13       		.uleb128 0x13
 3211 0239 11       		.uleb128 0x11
 3212 023a 01       		.uleb128 0x1
 3213 023b 12       		.uleb128 0x12
 3214 023c 06       		.uleb128 0x6
 3215 023d 40       		.uleb128 0x40
 3216 023e 18       		.uleb128 0x18
 3217 023f 9742     		.uleb128 0x2117
 3218 0241 19       		.uleb128 0x19
 3219 0242 01       		.uleb128 0x1
 3220 0243 13       		.uleb128 0x13
 3221 0244 00       		.byte	0
 3222 0245 00       		.byte	0
 3223 0246 2B       		.uleb128 0x2b
 3224 0247 05       		.uleb128 0x5
 3225 0248 00       		.byte	0
 3226 0249 03       		.uleb128 0x3
 3227 024a 0E       		.uleb128 0xe
 3228 024b 3A       		.uleb128 0x3a
 3229 024c 0B       		.uleb128 0xb
 3230 024d 3B       		.uleb128 0x3b
 3231 024e 05       		.uleb128 0x5
ARM GAS  C:\Users\jo\AppData\Local\Temp\ccqE6SHC.s 			page 58


 3232 024f 49       		.uleb128 0x49
 3233 0250 13       		.uleb128 0x13
 3234 0251 02       		.uleb128 0x2
 3235 0252 17       		.uleb128 0x17
 3236 0253 00       		.byte	0
 3237 0254 00       		.byte	0
 3238 0255 2C       		.uleb128 0x2c
 3239 0256 34       		.uleb128 0x34
 3240 0257 00       		.byte	0
 3241 0258 03       		.uleb128 0x3
 3242 0259 0E       		.uleb128 0xe
 3243 025a 3A       		.uleb128 0x3a
 3244 025b 0B       		.uleb128 0xb
 3245 025c 3B       		.uleb128 0x3b
 3246 025d 05       		.uleb128 0x5
 3247 025e 49       		.uleb128 0x49
 3248 025f 13       		.uleb128 0x13
 3249 0260 02       		.uleb128 0x2
 3250 0261 17       		.uleb128 0x17
 3251 0262 00       		.byte	0
 3252 0263 00       		.byte	0
 3253 0264 2D       		.uleb128 0x2d
 3254 0265 34       		.uleb128 0x34
 3255 0266 00       		.byte	0
 3256 0267 03       		.uleb128 0x3
 3257 0268 08       		.uleb128 0x8
 3258 0269 3A       		.uleb128 0x3a
 3259 026a 0B       		.uleb128 0xb
 3260 026b 3B       		.uleb128 0x3b
 3261 026c 05       		.uleb128 0x5
 3262 026d 49       		.uleb128 0x49
 3263 026e 13       		.uleb128 0x13
 3264 026f 02       		.uleb128 0x2
 3265 0270 18       		.uleb128 0x18
 3266 0271 00       		.byte	0
 3267 0272 00       		.byte	0
 3268 0273 2E       		.uleb128 0x2e
 3269 0274 34       		.uleb128 0x34
 3270 0275 00       		.byte	0
 3271 0276 03       		.uleb128 0x3
 3272 0277 08       		.uleb128 0x8
 3273 0278 3A       		.uleb128 0x3a
 3274 0279 0B       		.uleb128 0xb
 3275 027a 3B       		.uleb128 0x3b
 3276 027b 05       		.uleb128 0x5
 3277 027c 49       		.uleb128 0x49
 3278 027d 13       		.uleb128 0x13
 3279 027e 02       		.uleb128 0x2
 3280 027f 17       		.uleb128 0x17
 3281 0280 00       		.byte	0
 3282 0281 00       		.byte	0
 3283 0282 2F       		.uleb128 0x2f
 3284 0283 34       		.uleb128 0x34
 3285 0284 00       		.byte	0
 3286 0285 03       		.uleb128 0x3
 3287 0286 0E       		.uleb128 0xe
 3288 0287 3A       		.uleb128 0x3a
ARM GAS  C:\Users\jo\AppData\Local\Temp\ccqE6SHC.s 			page 59


 3289 0288 0B       		.uleb128 0xb
 3290 0289 3B       		.uleb128 0x3b
 3291 028a 0B       		.uleb128 0xb
 3292 028b 49       		.uleb128 0x49
 3293 028c 13       		.uleb128 0x13
 3294 028d 02       		.uleb128 0x2
 3295 028e 18       		.uleb128 0x18
 3296 028f 00       		.byte	0
 3297 0290 00       		.byte	0
 3298 0291 30       		.uleb128 0x30
 3299 0292 34       		.uleb128 0x34
 3300 0293 00       		.byte	0
 3301 0294 03       		.uleb128 0x3
 3302 0295 0E       		.uleb128 0xe
 3303 0296 3A       		.uleb128 0x3a
 3304 0297 0B       		.uleb128 0xb
 3305 0298 3B       		.uleb128 0x3b
 3306 0299 05       		.uleb128 0x5
 3307 029a 49       		.uleb128 0x49
 3308 029b 13       		.uleb128 0x13
 3309 029c 3F       		.uleb128 0x3f
 3310 029d 19       		.uleb128 0x19
 3311 029e 3C       		.uleb128 0x3c
 3312 029f 19       		.uleb128 0x19
 3313 02a0 00       		.byte	0
 3314 02a1 00       		.byte	0
 3315 02a2 31       		.uleb128 0x31
 3316 02a3 34       		.uleb128 0x34
 3317 02a4 00       		.byte	0
 3318 02a5 03       		.uleb128 0x3
 3319 02a6 08       		.uleb128 0x8
 3320 02a7 3A       		.uleb128 0x3a
 3321 02a8 0B       		.uleb128 0xb
 3322 02a9 3B       		.uleb128 0x3b
 3323 02aa 05       		.uleb128 0x5
 3324 02ab 49       		.uleb128 0x49
 3325 02ac 13       		.uleb128 0x13
 3326 02ad 3F       		.uleb128 0x3f
 3327 02ae 19       		.uleb128 0x19
 3328 02af 3C       		.uleb128 0x3c
 3329 02b0 19       		.uleb128 0x19
 3330 02b1 00       		.byte	0
 3331 02b2 00       		.byte	0
 3332 02b3 32       		.uleb128 0x32
 3333 02b4 2E       		.uleb128 0x2e
 3334 02b5 00       		.byte	0
 3335 02b6 3F       		.uleb128 0x3f
 3336 02b7 19       		.uleb128 0x19
 3337 02b8 03       		.uleb128 0x3
 3338 02b9 0E       		.uleb128 0xe
 3339 02ba 3A       		.uleb128 0x3a
 3340 02bb 0B       		.uleb128 0xb
 3341 02bc 3B       		.uleb128 0x3b
 3342 02bd 0B       		.uleb128 0xb
 3343 02be 27       		.uleb128 0x27
 3344 02bf 19       		.uleb128 0x19
 3345 02c0 3C       		.uleb128 0x3c
ARM GAS  C:\Users\jo\AppData\Local\Temp\ccqE6SHC.s 			page 60


 3346 02c1 19       		.uleb128 0x19
 3347 02c2 00       		.byte	0
 3348 02c3 00       		.byte	0
 3349 02c4 33       		.uleb128 0x33
 3350 02c5 2E       		.uleb128 0x2e
 3351 02c6 01       		.byte	0x1
 3352 02c7 3F       		.uleb128 0x3f
 3353 02c8 19       		.uleb128 0x19
 3354 02c9 03       		.uleb128 0x3
 3355 02ca 0E       		.uleb128 0xe
 3356 02cb 3A       		.uleb128 0x3a
 3357 02cc 0B       		.uleb128 0xb
 3358 02cd 3B       		.uleb128 0x3b
 3359 02ce 0B       		.uleb128 0xb
 3360 02cf 27       		.uleb128 0x27
 3361 02d0 19       		.uleb128 0x19
 3362 02d1 3C       		.uleb128 0x3c
 3363 02d2 19       		.uleb128 0x19
 3364 02d3 01       		.uleb128 0x1
 3365 02d4 13       		.uleb128 0x13
 3366 02d5 00       		.byte	0
 3367 02d6 00       		.byte	0
 3368 02d7 34       		.uleb128 0x34
 3369 02d8 2E       		.uleb128 0x2e
 3370 02d9 01       		.byte	0x1
 3371 02da 3F       		.uleb128 0x3f
 3372 02db 19       		.uleb128 0x19
 3373 02dc 03       		.uleb128 0x3
 3374 02dd 0E       		.uleb128 0xe
 3375 02de 3A       		.uleb128 0x3a
 3376 02df 0B       		.uleb128 0xb
 3377 02e0 3B       		.uleb128 0x3b
 3378 02e1 0B       		.uleb128 0xb
 3379 02e2 27       		.uleb128 0x27
 3380 02e3 19       		.uleb128 0x19
 3381 02e4 3C       		.uleb128 0x3c
 3382 02e5 19       		.uleb128 0x19
 3383 02e6 00       		.byte	0
 3384 02e7 00       		.byte	0
 3385 02e8 00       		.byte	0
 3386              		.section	.debug_loc,"",%progbits
 3387              	.Ldebug_loc0:
 3388              	.LLST0:
 3389 0000 00000000 		.4byte	.LVL2
 3390 0004 15000000 		.4byte	.LVL3-1
 3391 0008 0100     		.2byte	0x1
 3392 000a 50       		.byte	0x50
 3393 000b 15000000 		.4byte	.LVL3-1
 3394 000f 16000000 		.4byte	.LVL3
 3395 0013 0400     		.2byte	0x4
 3396 0015 F3       		.byte	0xf3
 3397 0016 01       		.uleb128 0x1
 3398 0017 50       		.byte	0x50
 3399 0018 9F       		.byte	0x9f
 3400 0019 16000000 		.4byte	.LVL3
 3401 001d 18000000 		.4byte	.LVL4
 3402 0021 0100     		.2byte	0x1
ARM GAS  C:\Users\jo\AppData\Local\Temp\ccqE6SHC.s 			page 61


 3403 0023 50       		.byte	0x50
 3404 0024 18000000 		.4byte	.LVL4
 3405 0028 28000000 		.4byte	.LVL6
 3406 002c 0100     		.2byte	0x1
 3407 002e 54       		.byte	0x54
 3408 002f 28000000 		.4byte	.LVL6
 3409 0033 2B000000 		.4byte	.LVL7-1
 3410 0037 0100     		.2byte	0x1
 3411 0039 50       		.byte	0x50
 3412 003a 2B000000 		.4byte	.LVL7-1
 3413 003e 30000000 		.4byte	.LFE257
 3414 0042 0400     		.2byte	0x4
 3415 0044 F3       		.byte	0xf3
 3416 0045 01       		.uleb128 0x1
 3417 0046 50       		.byte	0x50
 3418 0047 9F       		.byte	0x9f
 3419 0048 00000000 		.4byte	0
 3420 004c 00000000 		.4byte	0
 3421              	.LLST1:
 3422 0050 00000000 		.4byte	.LVL2
 3423 0054 15000000 		.4byte	.LVL3-1
 3424 0058 0100     		.2byte	0x1
 3425 005a 51       		.byte	0x51
 3426 005b 15000000 		.4byte	.LVL3-1
 3427 005f 16000000 		.4byte	.LVL3
 3428 0063 0400     		.2byte	0x4
 3429 0065 F3       		.byte	0xf3
 3430 0066 01       		.uleb128 0x1
 3431 0067 51       		.byte	0x51
 3432 0068 9F       		.byte	0x9f
 3433 0069 16000000 		.4byte	.LVL3
 3434 006d 1D000000 		.4byte	.LVL5-1
 3435 0071 0100     		.2byte	0x1
 3436 0073 51       		.byte	0x51
 3437 0074 1D000000 		.4byte	.LVL5-1
 3438 0078 28000000 		.4byte	.LVL6
 3439 007c 0200     		.2byte	0x2
 3440 007e 91       		.byte	0x91
 3441 007f 74       		.sleb128 -12
 3442 0080 28000000 		.4byte	.LVL6
 3443 0084 30000000 		.4byte	.LFE257
 3444 0088 0200     		.2byte	0x2
 3445 008a 7D       		.byte	0x7d
 3446 008b 74       		.sleb128 -12
 3447 008c 00000000 		.4byte	0
 3448 0090 00000000 		.4byte	0
 3449              	.LLST2:
 3450 0094 00000000 		.4byte	.LVL8
 3451 0098 15000000 		.4byte	.LVL9-1
 3452 009c 0100     		.2byte	0x1
 3453 009e 50       		.byte	0x50
 3454 009f 15000000 		.4byte	.LVL9-1
 3455 00a3 16000000 		.4byte	.LVL9
 3456 00a7 0400     		.2byte	0x4
 3457 00a9 F3       		.byte	0xf3
 3458 00aa 01       		.uleb128 0x1
 3459 00ab 50       		.byte	0x50
ARM GAS  C:\Users\jo\AppData\Local\Temp\ccqE6SHC.s 			page 62


 3460 00ac 9F       		.byte	0x9f
 3461 00ad 16000000 		.4byte	.LVL9
 3462 00b1 18000000 		.4byte	.LVL10
 3463 00b5 0100     		.2byte	0x1
 3464 00b7 50       		.byte	0x50
 3465 00b8 18000000 		.4byte	.LVL10
 3466 00bc 28000000 		.4byte	.LVL12
 3467 00c0 0100     		.2byte	0x1
 3468 00c2 54       		.byte	0x54
 3469 00c3 28000000 		.4byte	.LVL12
 3470 00c7 2B000000 		.4byte	.LVL13-1
 3471 00cb 0100     		.2byte	0x1
 3472 00cd 50       		.byte	0x50
 3473 00ce 2B000000 		.4byte	.LVL13-1
 3474 00d2 30000000 		.4byte	.LFE258
 3475 00d6 0400     		.2byte	0x4
 3476 00d8 F3       		.byte	0xf3
 3477 00d9 01       		.uleb128 0x1
 3478 00da 50       		.byte	0x50
 3479 00db 9F       		.byte	0x9f
 3480 00dc 00000000 		.4byte	0
 3481 00e0 00000000 		.4byte	0
 3482              	.LLST3:
 3483 00e4 00000000 		.4byte	.LVL8
 3484 00e8 15000000 		.4byte	.LVL9-1
 3485 00ec 0100     		.2byte	0x1
 3486 00ee 51       		.byte	0x51
 3487 00ef 15000000 		.4byte	.LVL9-1
 3488 00f3 16000000 		.4byte	.LVL9
 3489 00f7 0400     		.2byte	0x4
 3490 00f9 F3       		.byte	0xf3
 3491 00fa 01       		.uleb128 0x1
 3492 00fb 51       		.byte	0x51
 3493 00fc 9F       		.byte	0x9f
 3494 00fd 16000000 		.4byte	.LVL9
 3495 0101 1D000000 		.4byte	.LVL11-1
 3496 0105 0100     		.2byte	0x1
 3497 0107 51       		.byte	0x51
 3498 0108 1D000000 		.4byte	.LVL11-1
 3499 010c 28000000 		.4byte	.LVL12
 3500 0110 0200     		.2byte	0x2
 3501 0112 91       		.byte	0x91
 3502 0113 74       		.sleb128 -12
 3503 0114 28000000 		.4byte	.LVL12
 3504 0118 30000000 		.4byte	.LFE258
 3505 011c 0200     		.2byte	0x2
 3506 011e 7D       		.byte	0x7d
 3507 011f 74       		.sleb128 -12
 3508 0120 00000000 		.4byte	0
 3509 0124 00000000 		.4byte	0
 3510              	.LLST4:
 3511 0128 00000000 		.4byte	.LVL14
 3512 012c 10000000 		.4byte	.LVL15
 3513 0130 0100     		.2byte	0x1
 3514 0132 50       		.byte	0x50
 3515 0133 10000000 		.4byte	.LVL15
 3516 0137 1E000000 		.4byte	.LVL17
ARM GAS  C:\Users\jo\AppData\Local\Temp\ccqE6SHC.s 			page 63


 3517 013b 0100     		.2byte	0x1
 3518 013d 54       		.byte	0x54
 3519 013e 1E000000 		.4byte	.LVL17
 3520 0142 21000000 		.4byte	.LVL18-1
 3521 0146 0100     		.2byte	0x1
 3522 0148 50       		.byte	0x50
 3523 0149 21000000 		.4byte	.LVL18-1
 3524 014d 28000000 		.4byte	.LFE259
 3525 0151 0400     		.2byte	0x4
 3526 0153 F3       		.byte	0xf3
 3527 0154 01       		.uleb128 0x1
 3528 0155 50       		.byte	0x50
 3529 0156 9F       		.byte	0x9f
 3530 0157 00000000 		.4byte	0
 3531 015b 00000000 		.4byte	0
 3532              	.LLST5:
 3533 015f 00000000 		.4byte	.LVL14
 3534 0163 13000000 		.4byte	.LVL16-1
 3535 0167 0100     		.2byte	0x1
 3536 0169 51       		.byte	0x51
 3537 016a 13000000 		.4byte	.LVL16-1
 3538 016e 1E000000 		.4byte	.LVL17
 3539 0172 0100     		.2byte	0x1
 3540 0174 55       		.byte	0x55
 3541 0175 1E000000 		.4byte	.LVL17
 3542 0179 21000000 		.4byte	.LVL18-1
 3543 017d 0100     		.2byte	0x1
 3544 017f 51       		.byte	0x51
 3545 0180 21000000 		.4byte	.LVL18-1
 3546 0184 28000000 		.4byte	.LFE259
 3547 0188 0400     		.2byte	0x4
 3548 018a F3       		.byte	0xf3
 3549 018b 01       		.uleb128 0x1
 3550 018c 51       		.byte	0x51
 3551 018d 9F       		.byte	0x9f
 3552 018e 00000000 		.4byte	0
 3553 0192 00000000 		.4byte	0
 3554              	.LLST6:
 3555 0196 00000000 		.4byte	.LVL14
 3556 019a 13000000 		.4byte	.LVL16-1
 3557 019e 0100     		.2byte	0x1
 3558 01a0 52       		.byte	0x52
 3559 01a1 13000000 		.4byte	.LVL16-1
 3560 01a5 1E000000 		.4byte	.LVL17
 3561 01a9 0100     		.2byte	0x1
 3562 01ab 56       		.byte	0x56
 3563 01ac 1E000000 		.4byte	.LVL17
 3564 01b0 21000000 		.4byte	.LVL18-1
 3565 01b4 0100     		.2byte	0x1
 3566 01b6 52       		.byte	0x52
 3567 01b7 21000000 		.4byte	.LVL18-1
 3568 01bb 28000000 		.4byte	.LFE259
 3569 01bf 0400     		.2byte	0x4
 3570 01c1 F3       		.byte	0xf3
 3571 01c2 01       		.uleb128 0x1
 3572 01c3 52       		.byte	0x52
 3573 01c4 9F       		.byte	0x9f
ARM GAS  C:\Users\jo\AppData\Local\Temp\ccqE6SHC.s 			page 64


 3574 01c5 00000000 		.4byte	0
 3575 01c9 00000000 		.4byte	0
 3576              	.LLST7:
 3577 01cd 00000000 		.4byte	.LVL19
 3578 01d1 10000000 		.4byte	.LVL20
 3579 01d5 0100     		.2byte	0x1
 3580 01d7 50       		.byte	0x50
 3581 01d8 10000000 		.4byte	.LVL20
 3582 01dc 1E000000 		.4byte	.LVL22
 3583 01e0 0100     		.2byte	0x1
 3584 01e2 54       		.byte	0x54
 3585 01e3 1E000000 		.4byte	.LVL22
 3586 01e7 21000000 		.4byte	.LVL23-1
 3587 01eb 0100     		.2byte	0x1
 3588 01ed 50       		.byte	0x50
 3589 01ee 21000000 		.4byte	.LVL23-1
 3590 01f2 22000000 		.4byte	.LVL23
 3591 01f6 0400     		.2byte	0x4
 3592 01f8 F3       		.byte	0xf3
 3593 01f9 01       		.uleb128 0x1
 3594 01fa 50       		.byte	0x50
 3595 01fb 9F       		.byte	0x9f
 3596 01fc 22000000 		.4byte	.LVL23
 3597 0200 28000000 		.4byte	.LVL24
 3598 0204 0100     		.2byte	0x1
 3599 0206 50       		.byte	0x50
 3600 0207 28000000 		.4byte	.LVL24
 3601 020b 30000000 		.4byte	.LVL27
 3602 020f 0100     		.2byte	0x1
 3603 0211 54       		.byte	0x54
 3604 0212 30000000 		.4byte	.LVL27
 3605 0216 33000000 		.4byte	.LVL28-1
 3606 021a 0100     		.2byte	0x1
 3607 021c 50       		.byte	0x50
 3608 021d 33000000 		.4byte	.LVL28-1
 3609 0221 38000000 		.4byte	.LFE260
 3610 0225 0400     		.2byte	0x4
 3611 0227 F3       		.byte	0xf3
 3612 0228 01       		.uleb128 0x1
 3613 0229 50       		.byte	0x50
 3614 022a 9F       		.byte	0x9f
 3615 022b 00000000 		.4byte	0
 3616 022f 00000000 		.4byte	0
 3617              	.LLST8:
 3618 0233 00000000 		.4byte	.LVL19
 3619 0237 13000000 		.4byte	.LVL21-1
 3620 023b 0100     		.2byte	0x1
 3621 023d 51       		.byte	0x51
 3622 023e 13000000 		.4byte	.LVL21-1
 3623 0242 1E000000 		.4byte	.LVL22
 3624 0246 0100     		.2byte	0x1
 3625 0248 55       		.byte	0x55
 3626 0249 1E000000 		.4byte	.LVL22
 3627 024d 21000000 		.4byte	.LVL23-1
 3628 0251 0100     		.2byte	0x1
 3629 0253 51       		.byte	0x51
 3630 0254 21000000 		.4byte	.LVL23-1
ARM GAS  C:\Users\jo\AppData\Local\Temp\ccqE6SHC.s 			page 65


 3631 0258 22000000 		.4byte	.LVL23
 3632 025c 0400     		.2byte	0x4
 3633 025e F3       		.byte	0xf3
 3634 025f 01       		.uleb128 0x1
 3635 0260 51       		.byte	0x51
 3636 0261 9F       		.byte	0x9f
 3637 0262 22000000 		.4byte	.LVL23
 3638 0266 2A000000 		.4byte	.LVL25
 3639 026a 0100     		.2byte	0x1
 3640 026c 51       		.byte	0x51
 3641 026d 2A000000 		.4byte	.LVL25
 3642 0271 30000000 		.4byte	.LVL27
 3643 0275 0100     		.2byte	0x1
 3644 0277 55       		.byte	0x55
 3645 0278 30000000 		.4byte	.LVL27
 3646 027c 33000000 		.4byte	.LVL28-1
 3647 0280 0100     		.2byte	0x1
 3648 0282 51       		.byte	0x51
 3649 0283 33000000 		.4byte	.LVL28-1
 3650 0287 38000000 		.4byte	.LFE260
 3651 028b 0400     		.2byte	0x4
 3652 028d F3       		.byte	0xf3
 3653 028e 01       		.uleb128 0x1
 3654 028f 51       		.byte	0x51
 3655 0290 9F       		.byte	0x9f
 3656 0291 00000000 		.4byte	0
 3657 0295 00000000 		.4byte	0
 3658              	.LLST9:
 3659 0299 00000000 		.4byte	.LVL19
 3660 029d 13000000 		.4byte	.LVL21-1
 3661 02a1 0100     		.2byte	0x1
 3662 02a3 52       		.byte	0x52
 3663 02a4 13000000 		.4byte	.LVL21-1
 3664 02a8 1E000000 		.4byte	.LVL22
 3665 02ac 0100     		.2byte	0x1
 3666 02ae 56       		.byte	0x56
 3667 02af 1E000000 		.4byte	.LVL22
 3668 02b3 21000000 		.4byte	.LVL23-1
 3669 02b7 0100     		.2byte	0x1
 3670 02b9 52       		.byte	0x52
 3671 02ba 21000000 		.4byte	.LVL23-1
 3672 02be 22000000 		.4byte	.LVL23
 3673 02c2 0400     		.2byte	0x4
 3674 02c4 F3       		.byte	0xf3
 3675 02c5 01       		.uleb128 0x1
 3676 02c6 52       		.byte	0x52
 3677 02c7 9F       		.byte	0x9f
 3678 02c8 22000000 		.4byte	.LVL23
 3679 02cc 2C000000 		.4byte	.LVL26
 3680 02d0 0100     		.2byte	0x1
 3681 02d2 52       		.byte	0x52
 3682 02d3 2C000000 		.4byte	.LVL26
 3683 02d7 30000000 		.4byte	.LVL27
 3684 02db 0100     		.2byte	0x1
 3685 02dd 56       		.byte	0x56
 3686 02de 30000000 		.4byte	.LVL27
 3687 02e2 33000000 		.4byte	.LVL28-1
ARM GAS  C:\Users\jo\AppData\Local\Temp\ccqE6SHC.s 			page 66


 3688 02e6 0100     		.2byte	0x1
 3689 02e8 52       		.byte	0x52
 3690 02e9 33000000 		.4byte	.LVL28-1
 3691 02ed 38000000 		.4byte	.LFE260
 3692 02f1 0400     		.2byte	0x4
 3693 02f3 F3       		.byte	0xf3
 3694 02f4 01       		.uleb128 0x1
 3695 02f5 52       		.byte	0x52
 3696 02f6 9F       		.byte	0x9f
 3697 02f7 00000000 		.4byte	0
 3698 02fb 00000000 		.4byte	0
 3699              	.LLST10:
 3700 02ff 00000000 		.4byte	.LVL29
 3701 0303 24000000 		.4byte	.LVL31
 3702 0307 0100     		.2byte	0x1
 3703 0309 50       		.byte	0x50
 3704 030a 24000000 		.4byte	.LVL31
 3705 030e 80000000 		.4byte	.LFE261
 3706 0312 0400     		.2byte	0x4
 3707 0314 F3       		.byte	0xf3
 3708 0315 01       		.uleb128 0x1
 3709 0316 50       		.byte	0x50
 3710 0317 9F       		.byte	0x9f
 3711 0318 00000000 		.4byte	0
 3712 031c 00000000 		.4byte	0
 3713              	.LLST11:
 3714 0320 12000000 		.4byte	.LVL30
 3715 0324 30000000 		.4byte	.LVL32
 3716 0328 0100     		.2byte	0x1
 3717 032a 52       		.byte	0x52
 3718 032b 30000000 		.4byte	.LVL32
 3719 032f 4C000000 		.4byte	.LVL33
 3720 0333 0100     		.2byte	0x1
 3721 0335 53       		.byte	0x53
 3722 0336 4C000000 		.4byte	.LVL33
 3723 033a 80000000 		.4byte	.LFE261
 3724 033e 2500     		.2byte	0x25
 3725 0340 F3       		.byte	0xf3
 3726 0341 01       		.uleb128 0x1
 3727 0342 50       		.byte	0x50
 3728 0343 23       		.byte	0x23
 3729 0344 04       		.uleb128 0x4
 3730 0345 06       		.byte	0x6
 3731 0346 09       		.byte	0x9
 3732 0347 E9       		.byte	0xe9
 3733 0348 24       		.byte	0x24
 3734 0349 09       		.byte	0x9
 3735 034a E9       		.byte	0xe9
 3736 034b 25       		.byte	0x25
 3737 034c F7       		.byte	0xf7
 3738 034d 33       		.uleb128 0x33
 3739 034e F7       		.byte	0xf7
 3740 034f 25       		.uleb128 0x25
 3741 0350 0C       		.byte	0xc
 3742 0351 D34D6210 		.4byte	0x10624dd3
 3743 0355 F7       		.byte	0xf7
 3744 0356 25       		.uleb128 0x25
ARM GAS  C:\Users\jo\AppData\Local\Temp\ccqE6SHC.s 			page 67


 3745 0357 1E       		.byte	0x1e
 3746 0358 08       		.byte	0x8
 3747 0359 20       		.byte	0x20
 3748 035a F7       		.byte	0xf7
 3749 035b 25       		.uleb128 0x25
 3750 035c 25       		.byte	0x25
 3751 035d F7       		.byte	0xf7
 3752 035e 2C       		.uleb128 0x2c
 3753 035f 36       		.byte	0x36
 3754 0360 25       		.byte	0x25
 3755 0361 70       		.byte	0x70
 3756 0362 00       		.sleb128 0
 3757 0363 1C       		.byte	0x1c
 3758 0364 9F       		.byte	0x9f
 3759 0365 00000000 		.4byte	0
 3760 0369 00000000 		.4byte	0
 3761              	.LLST12:
 3762 036d 00000000 		.4byte	.LVL34
 3763 0371 38000000 		.4byte	.LVL35
 3764 0375 0100     		.2byte	0x1
 3765 0377 50       		.byte	0x50
 3766 0378 38000000 		.4byte	.LVL35
 3767 037c 62000000 		.4byte	.LFE262
 3768 0380 0400     		.2byte	0x4
 3769 0382 F3       		.byte	0xf3
 3770 0383 01       		.uleb128 0x1
 3771 0384 50       		.byte	0x50
 3772 0385 9F       		.byte	0x9f
 3773 0386 00000000 		.4byte	0
 3774 038a 00000000 		.4byte	0
 3775              	.LLST13:
 3776 038e 00000000 		.4byte	.LVL34
 3777 0392 52000000 		.4byte	.LVL36
 3778 0396 0100     		.2byte	0x1
 3779 0398 51       		.byte	0x51
 3780 0399 52000000 		.4byte	.LVL36
 3781 039d 62000000 		.4byte	.LFE262
 3782 03a1 0400     		.2byte	0x4
 3783 03a3 F3       		.byte	0xf3
 3784 03a4 01       		.uleb128 0x1
 3785 03a5 51       		.byte	0x51
 3786 03a6 9F       		.byte	0x9f
 3787 03a7 00000000 		.4byte	0
 3788 03ab 00000000 		.4byte	0
 3789              	.LLST14:
 3790 03af 00000000 		.4byte	.LVL37
 3791 03b3 6E000000 		.4byte	.LVL48
 3792 03b7 0100     		.2byte	0x1
 3793 03b9 50       		.byte	0x50
 3794 03ba 6E000000 		.4byte	.LVL48
 3795 03be 76000000 		.4byte	.LVL51
 3796 03c2 0400     		.2byte	0x4
 3797 03c4 F3       		.byte	0xf3
 3798 03c5 01       		.uleb128 0x1
 3799 03c6 50       		.byte	0x50
 3800 03c7 9F       		.byte	0x9f
 3801 03c8 76000000 		.4byte	.LVL51
ARM GAS  C:\Users\jo\AppData\Local\Temp\ccqE6SHC.s 			page 68


 3802 03cc A0000000 		.4byte	.LFE263
 3803 03d0 0100     		.2byte	0x1
 3804 03d2 50       		.byte	0x50
 3805 03d3 00000000 		.4byte	0
 3806 03d7 00000000 		.4byte	0
 3807              	.LLST15:
 3808 03db 5C000000 		.4byte	.LVL47
 3809 03df 6E000000 		.4byte	.LVL48
 3810 03e3 1500     		.2byte	0x15
 3811 03e5 75       		.byte	0x75
 3812 03e6 00       		.sleb128 0
 3813 03e7 35       		.byte	0x35
 3814 03e8 24       		.byte	0x24
 3815 03e9 71       		.byte	0x71
 3816 03ea 00       		.sleb128 0
 3817 03eb 31       		.byte	0x31
 3818 03ec 25       		.byte	0x25
 3819 03ed 21       		.byte	0x21
 3820 03ee 77       		.byte	0x77
 3821 03ef 00       		.sleb128 0
 3822 03f0 45       		.byte	0x45
 3823 03f1 24       		.byte	0x24
 3824 03f2 21       		.byte	0x21
 3825 03f3 72       		.byte	0x72
 3826 03f4 00       		.sleb128 0
 3827 03f5 21       		.byte	0x21
 3828 03f6 74       		.byte	0x74
 3829 03f7 00       		.sleb128 0
 3830 03f8 21       		.byte	0x21
 3831 03f9 9F       		.byte	0x9f
 3832 03fa 6E000000 		.4byte	.LVL48
 3833 03fe 72000000 		.4byte	.LVL49
 3834 0402 0800     		.2byte	0x8
 3835 0404 77       		.byte	0x77
 3836 0405 00       		.sleb128 0
 3837 0406 45       		.byte	0x45
 3838 0407 24       		.byte	0x24
 3839 0408 70       		.byte	0x70
 3840 0409 00       		.sleb128 0
 3841 040a 21       		.byte	0x21
 3842 040b 9F       		.byte	0x9f
 3843 040c 72000000 		.4byte	.LVL49
 3844 0410 76000000 		.4byte	.LVL51
 3845 0414 0100     		.2byte	0x1
 3846 0416 50       		.byte	0x50
 3847 0417 00000000 		.4byte	0
 3848 041b 00000000 		.4byte	0
 3849              	.LLST16:
 3850 041f 36000000 		.4byte	.LVL41
 3851 0423 74000000 		.4byte	.LVL50
 3852 0427 0100     		.2byte	0x1
 3853 0429 55       		.byte	0x55
 3854 042a 74000000 		.4byte	.LVL50
 3855 042e 76000000 		.4byte	.LVL51
 3856 0432 6700     		.2byte	0x67
 3857 0434 F3       		.byte	0xf3
 3858 0435 01       		.uleb128 0x1
ARM GAS  C:\Users\jo\AppData\Local\Temp\ccqE6SHC.s 			page 69


 3859 0436 50       		.byte	0x50
 3860 0437 23       		.byte	0x23
 3861 0438 04       		.uleb128 0x4
 3862 0439 06       		.byte	0x6
 3863 043a 09       		.byte	0x9
 3864 043b E9       		.byte	0xe9
 3865 043c 24       		.byte	0x24
 3866 043d 09       		.byte	0x9
 3867 043e E9       		.byte	0xe9
 3868 043f 25       		.byte	0x25
 3869 0440 F7       		.byte	0xf7
 3870 0441 33       		.uleb128 0x33
 3871 0442 F7       		.byte	0xf7
 3872 0443 25       		.uleb128 0x25
 3873 0444 0C       		.byte	0xc
 3874 0445 D34D6210 		.4byte	0x10624dd3
 3875 0449 F7       		.byte	0xf7
 3876 044a 25       		.uleb128 0x25
 3877 044b 1E       		.byte	0x1e
 3878 044c 08       		.byte	0x8
 3879 044d 20       		.byte	0x20
 3880 044e F7       		.byte	0xf7
 3881 044f 25       		.uleb128 0x25
 3882 0450 25       		.byte	0x25
 3883 0451 F7       		.byte	0xf7
 3884 0452 2C       		.uleb128 0x2c
 3885 0453 36       		.byte	0x36
 3886 0454 25       		.byte	0x25
 3887 0455 F3       		.byte	0xf3
 3888 0456 01       		.uleb128 0x1
 3889 0457 50       		.byte	0x50
 3890 0458 23       		.byte	0x23
 3891 0459 04       		.uleb128 0x4
 3892 045a 06       		.byte	0x6
 3893 045b 09       		.byte	0x9
 3894 045c E9       		.byte	0xe9
 3895 045d 24       		.byte	0x24
 3896 045e 09       		.byte	0x9
 3897 045f E9       		.byte	0xe9
 3898 0460 25       		.byte	0x25
 3899 0461 F7       		.byte	0xf7
 3900 0462 33       		.uleb128 0x33
 3901 0463 F7       		.byte	0xf7
 3902 0464 25       		.uleb128 0x25
 3903 0465 0C       		.byte	0xc
 3904 0466 D34D6210 		.4byte	0x10624dd3
 3905 046a F7       		.byte	0xf7
 3906 046b 25       		.uleb128 0x25
 3907 046c 1E       		.byte	0x1e
 3908 046d 08       		.byte	0x8
 3909 046e 20       		.byte	0x20
 3910 046f F7       		.byte	0xf7
 3911 0470 25       		.uleb128 0x25
 3912 0471 25       		.byte	0x25
 3913 0472 F7       		.byte	0xf7
 3914 0473 2C       		.uleb128 0x2c
 3915 0474 36       		.byte	0x36
ARM GAS  C:\Users\jo\AppData\Local\Temp\ccqE6SHC.s 			page 70


 3916 0475 25       		.byte	0x25
 3917 0476 71       		.byte	0x71
 3918 0477 00       		.sleb128 0
 3919 0478 1C       		.byte	0x1c
 3920 0479 F7       		.byte	0xf7
 3921 047a 2C       		.uleb128 0x2c
 3922 047b F7       		.byte	0xf7
 3923 047c 25       		.uleb128 0x25
 3924 047d F4       		.byte	0xf4
 3925 047e 25       		.uleb128 0x25
 3926 047f 08       		.byte	0x8
 3927 0480 C5B3A291 		.8byte	0x91a2b3c5
 3927      00000000 
 3928 0488 1E       		.byte	0x1e
 3929 0489 08       		.byte	0x8
 3930 048a 20       		.byte	0x20
 3931 048b F7       		.byte	0xf7
 3932 048c 25       		.uleb128 0x25
 3933 048d 25       		.byte	0x25
 3934 048e F7       		.byte	0xf7
 3935 048f 2C       		.uleb128 0x2c
 3936 0490 3B       		.byte	0x3b
 3937 0491 25       		.byte	0x25
 3938 0492 0A       		.byte	0xa
 3939 0493 100E     		.2byte	0xe10
 3940 0495 1E       		.byte	0x1e
 3941 0496 1C       		.byte	0x1c
 3942 0497 71       		.byte	0x71
 3943 0498 00       		.sleb128 0
 3944 0499 1C       		.byte	0x1c
 3945 049a 9F       		.byte	0x9f
 3946 049b 76000000 		.4byte	.LVL51
 3947 049f A0000000 		.4byte	.LFE263
 3948 04a3 0100     		.2byte	0x1
 3949 04a5 55       		.byte	0x55
 3950 04a6 00000000 		.4byte	0
 3951 04aa 00000000 		.4byte	0
 3952              	.LLST17:
 3953 04ae 48000000 		.4byte	.LVL42
 3954 04b2 5A000000 		.4byte	.LVL46
 3955 04b6 0100     		.2byte	0x1
 3956 04b8 52       		.byte	0x52
 3957 04b9 76000000 		.4byte	.LVL51
 3958 04bd A0000000 		.4byte	.LFE263
 3959 04c1 0200     		.2byte	0x2
 3960 04c3 30       		.byte	0x30
 3961 04c4 9F       		.byte	0x9f
 3962 04c5 00000000 		.4byte	0
 3963 04c9 00000000 		.4byte	0
 3964              	.LLST18:
 3965 04cd 4C000000 		.4byte	.LVL43
 3966 04d1 5C000000 		.4byte	.LVL47
 3967 04d5 0100     		.2byte	0x1
 3968 04d7 54       		.byte	0x54
 3969 04d8 76000000 		.4byte	.LVL51
 3970 04dc 86000000 		.4byte	.LVL53
 3971 04e0 0100     		.2byte	0x1
ARM GAS  C:\Users\jo\AppData\Local\Temp\ccqE6SHC.s 			page 71


 3972 04e2 54       		.byte	0x54
 3973 04e3 86000000 		.4byte	.LVL53
 3974 04e7 A0000000 		.4byte	.LFE263
 3975 04eb 0200     		.2byte	0x2
 3976 04ed 31       		.byte	0x31
 3977 04ee 9F       		.byte	0x9f
 3978 04ef 00000000 		.4byte	0
 3979 04f3 00000000 		.4byte	0
 3980              	.LLST19:
 3981 04f7 50000000 		.4byte	.LVL44
 3982 04fb 74000000 		.4byte	.LVL50
 3983 04ff 0100     		.2byte	0x1
 3984 0501 57       		.byte	0x57
 3985 0502 76000000 		.4byte	.LVL51
 3986 0506 A0000000 		.4byte	.LFE263
 3987 050a 0100     		.2byte	0x1
 3988 050c 57       		.byte	0x57
 3989 050d 00000000 		.4byte	0
 3990 0511 00000000 		.4byte	0
 3991              	.LLST20:
 3992 0515 18000000 		.4byte	.LVL38
 3993 0519 28000000 		.4byte	.LVL40
 3994 051d 0100     		.2byte	0x1
 3995 051f 53       		.byte	0x53
 3996 0520 28000000 		.4byte	.LVL40
 3997 0524 6E000000 		.4byte	.LVL48
 3998 0528 1F00     		.2byte	0x1f
 3999 052a 70       		.byte	0x70
 4000 052b 04       		.sleb128 4
 4001 052c 06       		.byte	0x6
 4002 052d 09       		.byte	0x9
 4003 052e E9       		.byte	0xe9
 4004 052f 24       		.byte	0x24
 4005 0530 09       		.byte	0x9
 4006 0531 E9       		.byte	0xe9
 4007 0532 25       		.byte	0x25
 4008 0533 F7       		.byte	0xf7
 4009 0534 33       		.uleb128 0x33
 4010 0535 F7       		.byte	0xf7
 4011 0536 25       		.uleb128 0x25
 4012 0537 0C       		.byte	0xc
 4013 0538 D34D6210 		.4byte	0x10624dd3
 4014 053c F7       		.byte	0xf7
 4015 053d 25       		.uleb128 0x25
 4016 053e 1E       		.byte	0x1e
 4017 053f 08       		.byte	0x8
 4018 0540 20       		.byte	0x20
 4019 0541 F7       		.byte	0xf7
 4020 0542 25       		.uleb128 0x25
 4021 0543 25       		.byte	0x25
 4022 0544 F7       		.byte	0xf7
 4023 0545 2C       		.uleb128 0x2c
 4024 0546 36       		.byte	0x36
 4025 0547 25       		.byte	0x25
 4026 0548 9F       		.byte	0x9f
 4027 0549 6E000000 		.4byte	.LVL48
 4028 054d 76000000 		.4byte	.LVL51
ARM GAS  C:\Users\jo\AppData\Local\Temp\ccqE6SHC.s 			page 72


 4029 0551 2200     		.2byte	0x22
 4030 0553 F3       		.byte	0xf3
 4031 0554 01       		.uleb128 0x1
 4032 0555 50       		.byte	0x50
 4033 0556 23       		.byte	0x23
 4034 0557 04       		.uleb128 0x4
 4035 0558 06       		.byte	0x6
 4036 0559 09       		.byte	0x9
 4037 055a E9       		.byte	0xe9
 4038 055b 24       		.byte	0x24
 4039 055c 09       		.byte	0x9
 4040 055d E9       		.byte	0xe9
 4041 055e 25       		.byte	0x25
 4042 055f F7       		.byte	0xf7
 4043 0560 33       		.uleb128 0x33
 4044 0561 F7       		.byte	0xf7
 4045 0562 25       		.uleb128 0x25
 4046 0563 0C       		.byte	0xc
 4047 0564 D34D6210 		.4byte	0x10624dd3
 4048 0568 F7       		.byte	0xf7
 4049 0569 25       		.uleb128 0x25
 4050 056a 1E       		.byte	0x1e
 4051 056b 08       		.byte	0x8
 4052 056c 20       		.byte	0x20
 4053 056d F7       		.byte	0xf7
 4054 056e 25       		.uleb128 0x25
 4055 056f 25       		.byte	0x25
 4056 0570 F7       		.byte	0xf7
 4057 0571 2C       		.uleb128 0x2c
 4058 0572 36       		.byte	0x36
 4059 0573 25       		.byte	0x25
 4060 0574 9F       		.byte	0x9f
 4061 0575 76000000 		.4byte	.LVL51
 4062 0579 A0000000 		.4byte	.LFE263
 4063 057d 1F00     		.2byte	0x1f
 4064 057f 70       		.byte	0x70
 4065 0580 04       		.sleb128 4
 4066 0581 06       		.byte	0x6
 4067 0582 09       		.byte	0x9
 4068 0583 E9       		.byte	0xe9
 4069 0584 24       		.byte	0x24
 4070 0585 09       		.byte	0x9
 4071 0586 E9       		.byte	0xe9
 4072 0587 25       		.byte	0x25
 4073 0588 F7       		.byte	0xf7
 4074 0589 33       		.uleb128 0x33
 4075 058a F7       		.byte	0xf7
 4076 058b 25       		.uleb128 0x25
 4077 058c 0C       		.byte	0xc
 4078 058d D34D6210 		.4byte	0x10624dd3
 4079 0591 F7       		.byte	0xf7
 4080 0592 25       		.uleb128 0x25
 4081 0593 1E       		.byte	0x1e
 4082 0594 08       		.byte	0x8
 4083 0595 20       		.byte	0x20
 4084 0596 F7       		.byte	0xf7
 4085 0597 25       		.uleb128 0x25
ARM GAS  C:\Users\jo\AppData\Local\Temp\ccqE6SHC.s 			page 73


 4086 0598 25       		.byte	0x25
 4087 0599 F7       		.byte	0xf7
 4088 059a 2C       		.uleb128 0x2c
 4089 059b 36       		.byte	0x36
 4090 059c 25       		.byte	0x25
 4091 059d 9F       		.byte	0x9f
 4092 059e 00000000 		.4byte	0
 4093 05a2 00000000 		.4byte	0
 4094              		.section	.debug_aranges,"",%progbits
 4095 0000 5C000000 		.4byte	0x5c
 4096 0004 0200     		.2byte	0x2
 4097 0006 00000000 		.4byte	.Ldebug_info0
 4098 000a 04       		.byte	0x4
 4099 000b 00       		.byte	0
 4100 000c 0000     		.2byte	0
 4101 000e 0000     		.2byte	0
 4102 0010 00000000 		.4byte	.LFB255
 4103 0014 04000000 		.4byte	.LFE255-.LFB255
 4104 0018 00000000 		.4byte	.LFB256
 4105 001c 02000000 		.4byte	.LFE256-.LFB256
 4106 0020 00000000 		.4byte	.LFB257
 4107 0024 30000000 		.4byte	.LFE257-.LFB257
 4108 0028 00000000 		.4byte	.LFB258
 4109 002c 30000000 		.4byte	.LFE258-.LFB258
 4110 0030 00000000 		.4byte	.LFB259
 4111 0034 28000000 		.4byte	.LFE259-.LFB259
 4112 0038 00000000 		.4byte	.LFB260
 4113 003c 38000000 		.4byte	.LFE260-.LFB260
 4114 0040 00000000 		.4byte	.LFB261
 4115 0044 80000000 		.4byte	.LFE261-.LFB261
 4116 0048 00000000 		.4byte	.LFB262
 4117 004c 62000000 		.4byte	.LFE262-.LFB262
 4118 0050 00000000 		.4byte	.LFB263
 4119 0054 A0000000 		.4byte	.LFE263-.LFB263
 4120 0058 00000000 		.4byte	0
 4121 005c 00000000 		.4byte	0
 4122              		.section	.debug_ranges,"",%progbits
 4123              	.Ldebug_ranges0:
 4124 0000 00000000 		.4byte	.LFB255
 4125 0004 04000000 		.4byte	.LFE255
 4126 0008 00000000 		.4byte	.LFB256
 4127 000c 02000000 		.4byte	.LFE256
 4128 0010 00000000 		.4byte	.LFB257
 4129 0014 30000000 		.4byte	.LFE257
 4130 0018 00000000 		.4byte	.LFB258
 4131 001c 30000000 		.4byte	.LFE258
 4132 0020 00000000 		.4byte	.LFB259
 4133 0024 28000000 		.4byte	.LFE259
 4134 0028 00000000 		.4byte	.LFB260
 4135 002c 38000000 		.4byte	.LFE260
 4136 0030 00000000 		.4byte	.LFB261
 4137 0034 80000000 		.4byte	.LFE261
 4138 0038 00000000 		.4byte	.LFB262
 4139 003c 62000000 		.4byte	.LFE262
 4140 0040 00000000 		.4byte	.LFB263
 4141 0044 A0000000 		.4byte	.LFE263
 4142 0048 00000000 		.4byte	0
ARM GAS  C:\Users\jo\AppData\Local\Temp\ccqE6SHC.s 			page 74


 4143 004c 00000000 		.4byte	0
 4144              		.section	.debug_line,"",%progbits
 4145              	.Ldebug_line0:
 4146 0000 48040000 		.section	.debug_str,"MS",%progbits,1
 4146      0200DD02 
 4146      00000201 
 4146      FB0E0D00 
 4146      01010101 
 4147              	.LASF89:
 4148 0000 43414C49 		.ascii	"CALIBR\000"
 4148      425200
 4149              	.LASF163:
 4150 0007 746D5F79 		.ascii	"tm_year\000"
 4150      65617200 
 4151              	.LASF54:
 4152 000f 72656164 		.ascii	"ready_list_t\000"
 4152      795F6C69 
 4152      73745F74 
 4152      00
 4153              	.LASF192:
 4154 001c 66617474 		.ascii	"fattime\000"
 4154      696D6500 
 4155              	.LASF3:
 4156 0024 73697A65 		.ascii	"size_t\000"
 4156      5F7400
 4157              	.LASF148:
 4158 002b 7264796D 		.ascii	"rdymsg\000"
 4158      736700
 4159              	.LASF17:
 4160 0032 75696E74 		.ascii	"uint64_t\000"
 4160      36345F74 
 4160      00
 4161              	.LASF84:
 4162 003b 6B65726E 		.ascii	"kernel_stats\000"
 4162      656C5F73 
 4162      74617473 
 4162      00
 4163              	.LASF4:
 4164 0048 5F5F7569 		.ascii	"__uint8_t\000"
 4164      6E74385F 
 4164      7400
 4165              	.LASF125:
 4166 0052 706F7274 		.ascii	"port_intctx\000"
 4166      5F696E74 
 4166      63747800 
 4167              	.LASF53:
 4168 005e 63685F74 		.ascii	"ch_threads_queue\000"
 4168      68726561 
 4168      64735F71 
 4168      75657565 
 4168      00
 4169              	.LASF73:
 4170 006f 73797374 		.ascii	"system_debug_t\000"
 4170      656D5F64 
 4170      65627567 
 4170      5F7400
 4171              	.LASF96:
ARM GAS  C:\Users\jo\AppData\Local\Temp\ccqE6SHC.s 			page 75


 4172 007e 43414C52 		.ascii	"CALR\000"
 4172      00
 4173              	.LASF201:
 4174 0083 2E2E2F2E 		.ascii	"../../../os/hal/src/rtc.c\000"
 4174      2E2F2E2E 
 4174      2F6F732F 
 4174      68616C2F 
 4174      7372632F 
 4175              	.LASF104:
 4176 009d 424B5033 		.ascii	"BKP3R\000"
 4176      5200
 4177              	.LASF87:
 4178 00a3 50524552 		.ascii	"PRER\000"
 4178      00
 4179              	.LASF139:
 4180 00a8 776F7273 		.ascii	"worst\000"
 4180      7400
 4181              	.LASF142:
 4182 00ae 74696D65 		.ascii	"time_measurement_t\000"
 4182      5F6D6561 
 4182      73757265 
 4182      6D656E74 
 4182      5F7400
 4183              	.LASF116:
 4184 00c1 424B5031 		.ascii	"BKP15R\000"
 4184      355200
 4185              	.LASF0:
 4186 00c8 6C6F6E67 		.ascii	"long long unsigned int\000"
 4186      206C6F6E 
 4186      6720756E 
 4186      7369676E 
 4186      65642069 
 4187              	.LASF135:
 4188 00df 63685F74 		.ascii	"ch_trace_buffer_t\000"
 4188      72616365 
 4188      5F627566 
 4188      6665725F 
 4188      7400
 4189              	.LASF179:
 4190 00f1 72746353 		.ascii	"rtcSetTime\000"
 4190      65745469 
 4190      6D6500
 4191              	.LASF130:
 4192 00fc 73655F73 		.ascii	"se_state\000"
 4192      74617465 
 4192      00
 4193              	.LASF149:
 4194 0105 65786974 		.ascii	"exitcode\000"
 4194      636F6465 
 4194      00
 4195              	.LASF83:
 4196 010e 6D61696E 		.ascii	"mainthread\000"
 4196      74687265 
 4196      616400
 4197              	.LASF188:
 4198 0119 72746343 		.ascii	"rtcConvertDateTimeToStructTm\000"
 4198      6F6E7665 
ARM GAS  C:\Users\jo\AppData\Local\Temp\ccqE6SHC.s 			page 76


 4198      72744461 
 4198      74655469 
 4198      6D65546F 
 4199              	.LASF70:
 4200 0136 76697274 		.ascii	"virtual_timers_list_t\000"
 4200      75616C5F 
 4200      74696D65 
 4200      72735F6C 
 4200      6973745F 
 4201              	.LASF195:
 4202 014c 49544D5F 		.ascii	"ITM_RxBuffer\000"
 4202      52784275 
 4202      66666572 
 4202      00
 4203              	.LASF170:
 4204 0159 64737466 		.ascii	"dstflag\000"
 4204      6C616700 
 4205              	.LASF19:
 4206 0161 72747469 		.ascii	"rttime_t\000"
 4206      6D655F74 
 4206      00
 4207              	.LASF203:
 4208 016a 72746343 		.ascii	"rtcConvertDateTimeToFAT\000"
 4208      6F6E7665 
 4208      72744461 
 4208      74655469 
 4208      6D65546F 
 4209              	.LASF32:
 4210 0182 705F7072 		.ascii	"p_prio\000"
 4210      696F00
 4211              	.LASF202:
 4212 0189 433A5C55 		.ascii	"C:\\Users\\jo\\Documents\\GitHub\\ChibiOS\\demos\\S"
 4212      73657273 
 4212      5C6A6F5C 
 4212      446F6375 
 4212      6D656E74 
 4213 01b5 544D3332 		.ascii	"TM32\\RT-STM32F407-DISCOVERY-uHttp\000"
 4213      5C52542D 
 4213      53544D33 
 4213      32463430 
 4213      372D4449 
 4214              	.LASF187:
 4215 01d7 72746347 		.ascii	"rtcGetAlarm\000"
 4215      6574416C 
 4215      61726D00 
 4216              	.LASF12:
 4217 01e3 6C6F6E67 		.ascii	"long long int\000"
 4217      206C6F6E 
 4217      6720696E 
 4217      7400
 4218              	.LASF2:
 4219 01f1 7369676E 		.ascii	"signed char\000"
 4219      65642063 
 4219      68617200 
 4220              	.LASF127:
 4221 01fd 73655F74 		.ascii	"se_time\000"
 4221      696D6500 
ARM GAS  C:\Users\jo\AppData\Local\Temp\ccqE6SHC.s 			page 77


 4222              	.LASF47:
 4223 0205 705F6D70 		.ascii	"p_mpool\000"
 4223      6F6F6C00 
 4224              	.LASF153:
 4225 020d 6D5F7175 		.ascii	"m_queue\000"
 4225      65756500 
 4226              	.LASF204:
 4227 0215 7274635F 		.ascii	"rtc_lld_init\000"
 4227      6C6C645F 
 4227      696E6974 
 4227      00
 4228              	.LASF82:
 4229 0222 76746C69 		.ascii	"vtlist\000"
 4229      737400
 4230              	.LASF95:
 4231 0229 54535353 		.ascii	"TSSSR\000"
 4231      5200
 4232              	.LASF168:
 4233 022f 79656172 		.ascii	"year\000"
 4233      00
 4234              	.LASF80:
 4235 0234 63685F73 		.ascii	"ch_system\000"
 4235      79737465 
 4235      6D00
 4236              	.LASF9:
 4237 023e 6C6F6E67 		.ascii	"long int\000"
 4237      20696E74 
 4237      00
 4238              	.LASF105:
 4239 0247 424B5034 		.ascii	"BKP4R\000"
 4239      5200
 4240              	.LASF21:
 4241 024d 74737461 		.ascii	"tstate_t\000"
 4241      74655F74 
 4241      00
 4242              	.LASF117:
 4243 0256 424B5031 		.ascii	"BKP16R\000"
 4243      365200
 4244              	.LASF128:
 4245 025d 73655F74 		.ascii	"se_tp\000"
 4245      7000
 4246              	.LASF16:
 4247 0263 75696E74 		.ascii	"uint32_t\000"
 4247      33325F74 
 4247      00
 4248              	.LASF184:
 4249 026c 72746353 		.ascii	"rtcSetAlarm\000"
 4249      6574416C 
 4249      61726D00 
 4250              	.LASF186:
 4251 0278 616C6172 		.ascii	"alarmspec\000"
 4251      6D737065 
 4251      6300
 4252              	.LASF34:
 4253 0282 705F6E65 		.ascii	"p_newer\000"
 4253      77657200 
 4254              	.LASF74:
ARM GAS  C:\Users\jo\AppData\Local\Temp\ccqE6SHC.s 			page 78


 4255 028a 63685F73 		.ascii	"ch_system_debug\000"
 4255      79737465 
 4255      6D5F6465 
 4255      62756700 
 4256              	.LASF132:
 4257 029a 74625F73 		.ascii	"tb_size\000"
 4257      697A6500 
 4258              	.LASF59:
 4259 02a2 725F6E65 		.ascii	"r_newer\000"
 4259      77657200 
 4260              	.LASF122:
 4261 02aa 72656761 		.ascii	"regarm_t\000"
 4261      726D5F74 
 4261      00
 4262              	.LASF66:
 4263 02b3 76745F70 		.ascii	"vt_prev\000"
 4263      72657600 
 4264              	.LASF180:
 4265 02bb 72746370 		.ascii	"rtcp\000"
 4265      00
 4266              	.LASF178:
 4267 02c0 7274634F 		.ascii	"rtcObjectInit\000"
 4267      626A6563 
 4267      74496E69 
 4267      7400
 4268              	.LASF193:
 4269 02ce 686F7572 		.ascii	"hour\000"
 4269      00
 4270              	.LASF190:
 4271 02d3 72746343 		.ascii	"rtcConvertStructTmToDateTime\000"
 4271      6F6E7665 
 4271      72745374 
 4271      72756374 
 4271      546D546F 
 4272              	.LASF156:
 4273 02f0 6D757465 		.ascii	"mutex_t\000"
 4273      785F7400 
 4274              	.LASF77:
 4275 02f8 6C6F636B 		.ascii	"lock_cnt\000"
 4275      5F636E74 
 4275      00
 4276              	.LASF85:
 4277 0301 69646C65 		.ascii	"idle_thread_wa\000"
 4277      5F746872 
 4277      6561645F 
 4277      776100
 4278              	.LASF26:
 4279 0310 636E745F 		.ascii	"cnt_t\000"
 4279      7400
 4280              	.LASF169:
 4281 0316 6D6F6E74 		.ascii	"month\000"
 4281      6800
 4282              	.LASF37:
 4283 031c 705F7374 		.ascii	"p_stklimit\000"
 4283      6B6C696D 
 4283      697400
 4284              	.LASF94:
ARM GAS  C:\Users\jo\AppData\Local\Temp\ccqE6SHC.s 			page 79


 4285 0327 54534452 		.ascii	"TSDR\000"
 4285      00
 4286              	.LASF65:
 4287 032c 76745F6E 		.ascii	"vt_next\000"
 4287      65787400 
 4288              	.LASF106:
 4289 0334 424B5035 		.ascii	"BKP5R\000"
 4289      5200
 4290              	.LASF181:
 4291 033a 74696D65 		.ascii	"timespec\000"
 4291      73706563 
 4291      00
 4292              	.LASF42:
 4293 0343 705F6D73 		.ascii	"p_msgqueue\000"
 4293      67717565 
 4293      756500
 4294              	.LASF143:
 4295 034e 6E5F6972 		.ascii	"n_irq\000"
 4295      7100
 4296              	.LASF196:
 4297 0354 7274635F 		.ascii	"rtc_lld_set_time\000"
 4297      6C6C645F 
 4297      7365745F 
 4297      74696D65 
 4297      00
 4298              	.LASF162:
 4299 0365 746D5F6D 		.ascii	"tm_mon\000"
 4299      6F6E00
 4300              	.LASF199:
 4301 036c 7274635F 		.ascii	"rtc_lld_set_alarm\000"
 4301      6C6C645F 
 4301      7365745F 
 4301      616C6172 
 4301      6D00
 4302              	.LASF7:
 4303 037e 73686F72 		.ascii	"short unsigned int\000"
 4303      7420756E 
 4303      7369676E 
 4303      65642069 
 4303      6E7400
 4304              	.LASF147:
 4305 0391 6B65726E 		.ascii	"kernel_stats_t\000"
 4305      656C5F73 
 4305      74617473 
 4305      5F7400
 4306              	.LASF166:
 4307 03a0 746D5F69 		.ascii	"tm_isdst\000"
 4307      73647374 
 4307      00
 4308              	.LASF50:
 4309 03a9 63685F74 		.ascii	"ch_thread\000"
 4309      68726561 
 4309      6400
 4310              	.LASF172:
 4311 03b3 6D696C6C 		.ascii	"millisecond\000"
 4311      69736563 
 4311      6F6E6400 
ARM GAS  C:\Users\jo\AppData\Local\Temp\ccqE6SHC.s 			page 80


 4312              	.LASF198:
 4313 03bf 7274635F 		.ascii	"rtc_lld_get_time\000"
 4313      6C6C645F 
 4313      6765745F 
 4313      74696D65 
 4313      00
 4314              	.LASF24:
 4315 03d0 6D73675F 		.ascii	"msg_t\000"
 4315      7400
 4316              	.LASF140:
 4317 03d6 6C617374 		.ascii	"last\000"
 4317      00
 4318              	.LASF27:
 4319 03db 75636E74 		.ascii	"ucnt_t\000"
 4319      5F7400
 4320              	.LASF88:
 4321 03e2 57555452 		.ascii	"WUTR\000"
 4321      00
 4322              	.LASF111:
 4323 03e7 424B5031 		.ascii	"BKP10R\000"
 4323      305200
 4324              	.LASF20:
 4325 03ee 746D6F64 		.ascii	"tmode_t\000"
 4325      655F7400 
 4326              	.LASF93:
 4327 03f6 54535452 		.ascii	"TSTR\000"
 4327      00
 4328              	.LASF146:
 4329 03fb 6D5F6372 		.ascii	"m_crit_isr\000"
 4329      69745F69 
 4329      737200
 4330              	.LASF55:
 4331 0406 63685F72 		.ascii	"ch_ready_list\000"
 4331      65616479 
 4331      5F6C6973 
 4331      7400
 4332              	.LASF25:
 4333 0414 6576656E 		.ascii	"eventmask_t\000"
 4333      746D6173 
 4333      6B5F7400 
 4334              	.LASF8:
 4335 0420 5F5F696E 		.ascii	"__int32_t\000"
 4335      7433325F 
 4335      7400
 4336              	.LASF200:
 4337 042a 474E5520 		.ascii	"GNU C 4.9.3 20141119 (release) [ARM/embedded-4_9-br"
 4337      4320342E 
 4337      392E3320 
 4337      32303134 
 4337      31313139 
 4338 045d 616E6368 		.ascii	"anch revision 218278] -mcpu=cortex-m4 -mno-thumb-in"
 4338      20726576 
 4338      6973696F 
 4338      6E203231 
 4338      38323738 
 4339 0490 74657277 		.ascii	"terwork -mthumb -ggdb -O2 -fomit-frame-pointer -fal"
 4339      6F726B20 
ARM GAS  C:\Users\jo\AppData\Local\Temp\ccqE6SHC.s 			page 81


 4339      2D6D7468 
 4339      756D6220 
 4339      2D676764 
 4340 04c3 69676E2D 		.ascii	"ign-functions=16 -ffunction-sections -fdata-section"
 4340      66756E63 
 4340      74696F6E 
 4340      733D3136 
 4340      202D6666 
 4341 04f6 73202D66 		.ascii	"s -fno-common\000"
 4341      6E6F2D63 
 4341      6F6D6D6F 
 4341      6E00
 4342              	.LASF123:
 4343 0504 73746B61 		.ascii	"stkalign_t\000"
 4343      6C69676E 
 4343      5F7400
 4344              	.LASF107:
 4345 050f 424B5036 		.ascii	"BKP6R\000"
 4345      5200
 4346              	.LASF194:
 4347 0515 6D6F6E74 		.ascii	"month_len\000"
 4347      685F6C65 
 4347      6E00
 4348              	.LASF49:
 4349 051f 74687265 		.ascii	"threads_list_t\000"
 4349      6164735F 
 4349      6C697374 
 4349      5F7400
 4350              	.LASF119:
 4351 052e 424B5031 		.ascii	"BKP18R\000"
 4351      385200
 4352              	.LASF175:
 4353 0535 616C726D 		.ascii	"alrmr\000"
 4353      7200
 4354              	.LASF173:
 4355 053b 52544344 		.ascii	"RTCDateTime\000"
 4355      61746554 
 4355      696D6500 
 4356              	.LASF41:
 4357 0547 705F7761 		.ascii	"p_waiting\000"
 4357      6974696E 
 4357      6700
 4358              	.LASF159:
 4359 0551 746D5F6D 		.ascii	"tm_min\000"
 4359      696E00
 4360              	.LASF197:
 4361 0558 63685379 		.ascii	"chSysHalt\000"
 4361      7348616C 
 4361      7400
 4362              	.LASF86:
 4363 0562 73697A65 		.ascii	"sizetype\000"
 4363      74797065 
 4363      00
 4364              	.LASF71:
 4365 056b 63685F76 		.ascii	"ch_virtual_timers_list\000"
 4365      69727475 
 4365      616C5F74 
ARM GAS  C:\Users\jo\AppData\Local\Temp\ccqE6SHC.s 			page 82


 4365      696D6572 
 4365      735F6C69 
 4366              	.LASF165:
 4367 0582 746D5F79 		.ascii	"tm_yday\000"
 4367      64617900 
 4368              	.LASF174:
 4369 058a 72746361 		.ascii	"rtcalarm_t\000"
 4369      6C61726D 
 4369      5F7400
 4370              	.LASF133:
 4371 0595 74625F70 		.ascii	"tb_ptr\000"
 4371      747200
 4372              	.LASF131:
 4373 059c 63685F73 		.ascii	"ch_swc_event_t\000"
 4373      77635F65 
 4373      76656E74 
 4373      5F7400
 4374              	.LASF72:
 4375 05ab 76745F6C 		.ascii	"vt_lasttime\000"
 4375      61737474 
 4375      696D6500 
 4376              	.LASF35:
 4377 05b7 705F6F6C 		.ascii	"p_older\000"
 4377      64657200 
 4378              	.LASF58:
 4379 05bf 725F6374 		.ascii	"r_ctx\000"
 4379      7800
 4380              	.LASF137:
 4381 05c5 746D5F63 		.ascii	"tm_calibration_t\000"
 4381      616C6962 
 4381      72617469 
 4381      6F6E5F74 
 4381      00
 4382              	.LASF112:
 4383 05d6 424B5031 		.ascii	"BKP11R\000"
 4383      315200
 4384              	.LASF61:
 4385 05dd 725F6375 		.ascii	"r_current\000"
 4385      7272656E 
 4385      7400
 4386              	.LASF60:
 4387 05e7 725F6F6C 		.ascii	"r_older\000"
 4387      64657200 
 4388              	.LASF138:
 4389 05ef 62657374 		.ascii	"best\000"
 4389      00
 4390              	.LASF13:
 4391 05f4 5F5F7569 		.ascii	"__uint64_t\000"
 4391      6E743634 
 4391      5F7400
 4392              	.LASF90:
 4393 05ff 414C524D 		.ascii	"ALRMAR\000"
 4393      415200
 4394              	.LASF141:
 4395 0606 63756D75 		.ascii	"cumulative\000"
 4395      6C617469 
 4395      766500
ARM GAS  C:\Users\jo\AppData\Local\Temp\ccqE6SHC.s 			page 83


 4396              	.LASF108:
 4397 0611 424B5037 		.ascii	"BKP7R\000"
 4397      5200
 4398              	.LASF97:
 4399 0617 54414643 		.ascii	"TAFCR\000"
 4399      5200
 4400              	.LASF22:
 4401 061d 74726566 		.ascii	"trefs_t\000"
 4401      735F7400 
 4402              	.LASF134:
 4403 0625 74625F62 		.ascii	"tb_buffer\000"
 4403      75666665 
 4403      7200
 4404              	.LASF191:
 4405 062f 74765F6D 		.ascii	"tv_msec\000"
 4405      73656300 
 4406              	.LASF120:
 4407 0637 424B5031 		.ascii	"BKP19R\000"
 4407      395200
 4408              	.LASF63:
 4409 063e 76697274 		.ascii	"virtual_timer_t\000"
 4409      75616C5F 
 4409      74696D65 
 4409      725F7400 
 4410              	.LASF31:
 4411 064e 705F7072 		.ascii	"p_prev\000"
 4411      657600
 4412              	.LASF100:
 4413 0655 52455345 		.ascii	"RESERVED7\000"
 4413      52564544 
 4413      3700
 4414              	.LASF23:
 4415 065f 74707269 		.ascii	"tprio_t\000"
 4415      6F5F7400 
 4416              	.LASF152:
 4417 0667 6D757465 		.ascii	"mutex\000"
 4417      7800
 4418              	.LASF185:
 4419 066d 616C6172 		.ascii	"alarm\000"
 4419      6D00
 4420              	.LASF144:
 4421 0673 6E5F6374 		.ascii	"n_ctxswc\000"
 4421      78737763 
 4421      00
 4422              	.LASF157:
 4423 067c 5F426F6F 		.ascii	"_Bool\000"
 4423      6C00
 4424              	.LASF15:
 4425 0682 696E7433 		.ascii	"int32_t\000"
 4425      325F7400 
 4426              	.LASF5:
 4427 068a 756E7369 		.ascii	"unsigned char\000"
 4427      676E6564 
 4427      20636861 
 4427      7200
 4428              	.LASF167:
 4429 0698 52544344 		.ascii	"RTCDriver\000"
ARM GAS  C:\Users\jo\AppData\Local\Temp\ccqE6SHC.s 			page 84


 4429      72697665 
 4429      7200
 4430              	.LASF45:
 4431 06a2 705F6D74 		.ascii	"p_mtxlist\000"
 4431      786C6973 
 4431      7400
 4432              	.LASF6:
 4433 06ac 73686F72 		.ascii	"short int\000"
 4433      7420696E 
 4433      7400
 4434              	.LASF38:
 4435 06b6 705F7374 		.ascii	"p_state\000"
 4435      61746500 
 4436              	.LASF57:
 4437 06be 725F7072 		.ascii	"r_prio\000"
 4437      696F00
 4438              	.LASF151:
 4439 06c5 65776D61 		.ascii	"ewmask\000"
 4439      736B00
 4440              	.LASF30:
 4441 06cc 705F6E65 		.ascii	"p_next\000"
 4441      787400
 4442              	.LASF113:
 4443 06d3 424B5031 		.ascii	"BKP12R\000"
 4443      325200
 4444              	.LASF183:
 4445 06da 5F5F6675 		.ascii	"__func__\000"
 4445      6E635F5F 
 4445      00
 4446              	.LASF48:
 4447 06e3 705F7374 		.ascii	"p_stats\000"
 4447      61747300 
 4448              	.LASF101:
 4449 06eb 424B5030 		.ascii	"BKP0R\000"
 4449      5200
 4450              	.LASF43:
 4451 06f1 705F6D73 		.ascii	"p_msg\000"
 4451      6700
 4452              	.LASF91:
 4453 06f7 414C524D 		.ascii	"ALRMBR\000"
 4453      425200
 4454              	.LASF44:
 4455 06fe 705F6570 		.ascii	"p_epending\000"
 4455      656E6469 
 4455      6E6700
 4456              	.LASF109:
 4457 0709 424B5038 		.ascii	"BKP8R\000"
 4457      5200
 4458              	.LASF158:
 4459 070f 746D5F73 		.ascii	"tm_sec\000"
 4459      656300
 4460              	.LASF56:
 4461 0716 725F7175 		.ascii	"r_queue\000"
 4461      65756500 
 4462              	.LASF67:
 4463 071e 76745F64 		.ascii	"vt_delta\000"
 4463      656C7461 
ARM GAS  C:\Users\jo\AppData\Local\Temp\ccqE6SHC.s 			page 85


 4463      00
 4464              	.LASF51:
 4465 0727 63685F74 		.ascii	"ch_threads_list\000"
 4465      68726561 
 4465      64735F6C 
 4465      69737400 
 4466              	.LASF11:
 4467 0737 6C6F6E67 		.ascii	"long unsigned int\000"
 4467      20756E73 
 4467      69676E65 
 4467      6420696E 
 4467      7400
 4468              	.LASF126:
 4469 0749 63686172 		.ascii	"char\000"
 4469      00
 4470              	.LASF1:
 4471 074e 756E7369 		.ascii	"unsigned int\000"
 4471      676E6564 
 4471      20696E74 
 4471      00
 4472              	.LASF205:
 4473 075b 7274635F 		.ascii	"rtc_lld_get_alarm\000"
 4473      6C6C645F 
 4473      6765745F 
 4473      616C6172 
 4473      6D00
 4474              	.LASF29:
 4475 076d 74687265 		.ascii	"thread_t\000"
 4475      61645F74 
 4475      00
 4476              	.LASF160:
 4477 0776 746D5F68 		.ascii	"tm_hour\000"
 4477      6F757200 
 4478              	.LASF155:
 4479 077e 6D5F6E65 		.ascii	"m_next\000"
 4479      787400
 4480              	.LASF28:
 4481 0785 73797374 		.ascii	"systime_t\000"
 4481      696D655F 
 4481      7400
 4482              	.LASF46:
 4483 078f 705F7265 		.ascii	"p_realprio\000"
 4483      616C7072 
 4483      696F00
 4484              	.LASF62:
 4485 079a 76746675 		.ascii	"vtfunc_t\000"
 4485      6E635F74 
 4485      00
 4486              	.LASF10:
 4487 07a3 5F5F7569 		.ascii	"__uint32_t\000"
 4487      6E743332 
 4487      5F7400
 4488              	.LASF75:
 4489 07ae 70616E69 		.ascii	"panic_msg\000"
 4489      635F6D73 
 4489      6700
 4490              	.LASF102:
ARM GAS  C:\Users\jo\AppData\Local\Temp\ccqE6SHC.s 			page 86


 4491 07b8 424B5031 		.ascii	"BKP1R\000"
 4491      5200
 4492              	.LASF136:
 4493 07be 6F666673 		.ascii	"offset\000"
 4493      657400
 4494              	.LASF99:
 4495 07c5 414C524D 		.ascii	"ALRMBSSR\000"
 4495      42535352 
 4495      00
 4496              	.LASF114:
 4497 07ce 424B5031 		.ascii	"BKP13R\000"
 4497      335200
 4498              	.LASF124:
 4499 07d5 636F6E74 		.ascii	"context\000"
 4499      65787400 
 4500              	.LASF79:
 4501 07dd 63685F73 		.ascii	"ch_system_t\000"
 4501      79737465 
 4501      6D5F7400 
 4502              	.LASF64:
 4503 07e9 63685F76 		.ascii	"ch_virtual_timer\000"
 4503      69727475 
 4503      616C5F74 
 4503      696D6572 
 4503      00
 4504              	.LASF161:
 4505 07fa 746D5F6D 		.ascii	"tm_mday\000"
 4505      64617900 
 4506              	.LASF18:
 4507 0802 7274636E 		.ascii	"rtcnt_t\000"
 4507      745F7400 
 4508              	.LASF69:
 4509 080a 76745F70 		.ascii	"vt_par\000"
 4509      617200
 4510              	.LASF182:
 4511 0811 72746347 		.ascii	"rtcGetTime\000"
 4511      65745469 
 4511      6D6500
 4512              	.LASF164:
 4513 081c 746D5F77 		.ascii	"tm_wday\000"
 4513      64617900 
 4514              	.LASF110:
 4515 0824 424B5039 		.ascii	"BKP9R\000"
 4515      5200
 4516              	.LASF92:
 4517 082a 53484946 		.ascii	"SHIFTR\000"
 4517      545200
 4518              	.LASF171:
 4519 0831 6461796F 		.ascii	"dayofweek\000"
 4519      66776565 
 4519      6B00
 4520              	.LASF52:
 4521 083b 74687265 		.ascii	"threads_queue_t\000"
 4521      6164735F 
 4521      71756575 
 4521      655F7400 
 4522              	.LASF40:
ARM GAS  C:\Users\jo\AppData\Local\Temp\ccqE6SHC.s 			page 87


 4523 084b 705F7265 		.ascii	"p_refs\000"
 4523      667300
 4524              	.LASF76:
 4525 0852 6973725F 		.ascii	"isr_cnt\000"
 4525      636E7400 
 4526              	.LASF176:
 4527 085a 52544341 		.ascii	"RTCAlarm\000"
 4527      6C61726D 
 4527      00
 4528              	.LASF189:
 4529 0863 74696D70 		.ascii	"timp\000"
 4529      00
 4530              	.LASF81:
 4531 0868 726C6973 		.ascii	"rlist\000"
 4531      7400
 4532              	.LASF14:
 4533 086e 75696E74 		.ascii	"uint8_t\000"
 4533      385F7400 
 4534              	.LASF98:
 4535 0876 414C524D 		.ascii	"ALRMASSR\000"
 4535      41535352 
 4535      00
 4536              	.LASF118:
 4537 087f 424B5031 		.ascii	"BKP17R\000"
 4537      375200
 4538              	.LASF121:
 4539 0886 5254435F 		.ascii	"RTC_TypeDef\000"
 4539      54797065 
 4539      44656600 
 4540              	.LASF150:
 4541 0892 77746F62 		.ascii	"wtobjp\000"
 4541      6A7000
 4542              	.LASF36:
 4543 0899 705F6E61 		.ascii	"p_name\000"
 4543      6D6500
 4544              	.LASF103:
 4545 08a0 424B5032 		.ascii	"BKP2R\000"
 4545      5200
 4546              	.LASF78:
 4547 08a6 74726163 		.ascii	"trace_buffer\000"
 4547      655F6275 
 4547      66666572 
 4547      00
 4548              	.LASF39:
 4549 08b3 705F666C 		.ascii	"p_flags\000"
 4549      61677300 
 4550              	.LASF115:
 4551 08bb 424B5031 		.ascii	"BKP14R\000"
 4551      345200
 4552              	.LASF177:
 4553 08c2 72746349 		.ascii	"rtcInit\000"
 4553      6E697400 
 4554              	.LASF145:
 4555 08ca 6D5F6372 		.ascii	"m_crit_thd\000"
 4555      69745F74 
 4555      686400
 4556              	.LASF154:
ARM GAS  C:\Users\jo\AppData\Local\Temp\ccqE6SHC.s 			page 88


 4557 08d5 6D5F6F77 		.ascii	"m_owner\000"
 4557      6E657200 
 4558              	.LASF129:
 4559 08dd 73655F77 		.ascii	"se_wtobjp\000"
 4559      746F626A 
 4559      7000
 4560              	.LASF33:
 4561 08e7 705F6374 		.ascii	"p_ctx\000"
 4561      7800
 4562              	.LASF68:
 4563 08ed 76745F66 		.ascii	"vt_func\000"
 4563      756E6300 
 4564              		.ident	"GCC: (GNU Tools for ARM Embedded Processors) 4.9.3 20141119 (release) [ARM/embedded-4_9-br
ARM GAS  C:\Users\jo\AppData\Local\Temp\ccqE6SHC.s 			page 89


DEFINED SYMBOLS
                            *ABS*:00000000 rtc.c
C:\Users\jo\AppData\Local\Temp\ccqE6SHC.s:19     .text.rtcInit:00000000 $t
C:\Users\jo\AppData\Local\Temp\ccqE6SHC.s:25     .text.rtcInit:00000000 rtcInit
C:\Users\jo\AppData\Local\Temp\ccqE6SHC.s:40     .text.rtcObjectInit:00000000 $t
C:\Users\jo\AppData\Local\Temp\ccqE6SHC.s:46     .text.rtcObjectInit:00000000 rtcObjectInit
C:\Users\jo\AppData\Local\Temp\ccqE6SHC.s:59     .text.rtcSetTime:00000000 $t
C:\Users\jo\AppData\Local\Temp\ccqE6SHC.s:65     .text.rtcSetTime:00000000 rtcSetTime
C:\Users\jo\AppData\Local\Temp\ccqE6SHC.s:126    .text.rtcSetTime:0000002c $d
C:\Users\jo\AppData\Local\Temp\ccqE6SHC.s:131    .text.rtcGetTime:00000000 $t
C:\Users\jo\AppData\Local\Temp\ccqE6SHC.s:137    .text.rtcGetTime:00000000 rtcGetTime
C:\Users\jo\AppData\Local\Temp\ccqE6SHC.s:197    .text.rtcGetTime:0000002c $d
C:\Users\jo\AppData\Local\Temp\ccqE6SHC.s:202    .text.rtcSetAlarm:00000000 $t
C:\Users\jo\AppData\Local\Temp\ccqE6SHC.s:208    .text.rtcSetAlarm:00000000 rtcSetAlarm
C:\Users\jo\AppData\Local\Temp\ccqE6SHC.s:255    .text.rtcSetAlarm:00000024 $d
C:\Users\jo\AppData\Local\Temp\ccqE6SHC.s:260    .text.rtcGetAlarm:00000000 $t
C:\Users\jo\AppData\Local\Temp\ccqE6SHC.s:266    .text.rtcGetAlarm:00000000 rtcGetAlarm
C:\Users\jo\AppData\Local\Temp\ccqE6SHC.s:336    .text.rtcGetAlarm:00000034 $d
C:\Users\jo\AppData\Local\Temp\ccqE6SHC.s:341    .text.rtcConvertDateTimeToStructTm:00000000 $t
C:\Users\jo\AppData\Local\Temp\ccqE6SHC.s:347    .text.rtcConvertDateTimeToStructTm:00000000 rtcConvertDateTimeToStructTm
C:\Users\jo\AppData\Local\Temp\ccqE6SHC.s:431    .text.rtcConvertDateTimeToStructTm:00000074 $d
C:\Users\jo\AppData\Local\Temp\ccqE6SHC.s:438    .text.rtcConvertStructTmToDateTime:00000000 $t
C:\Users\jo\AppData\Local\Temp\ccqE6SHC.s:444    .text.rtcConvertStructTmToDateTime:00000000 rtcConvertStructTmToDateTime
C:\Users\jo\AppData\Local\Temp\ccqE6SHC.s:525    .text.rtcConvertDateTimeToFAT:00000000 $t
C:\Users\jo\AppData\Local\Temp\ccqE6SHC.s:531    .text.rtcConvertDateTimeToFAT:00000000 rtcConvertDateTimeToFAT
C:\Users\jo\AppData\Local\Temp\ccqE6SHC.s:650    .text.rtcConvertDateTimeToFAT:00000090 $d
C:\Users\jo\AppData\Local\Temp\ccqE6SHC.s:658    .rodata.__func__.8205:00000000 $d
C:\Users\jo\AppData\Local\Temp\ccqE6SHC.s:662    .rodata.__func__.8205:00000000 __func__.8205
C:\Users\jo\AppData\Local\Temp\ccqE6SHC.s:665    .rodata.__func__.8211:00000000 $d
C:\Users\jo\AppData\Local\Temp\ccqE6SHC.s:669    .rodata.__func__.8211:00000000 __func__.8211
C:\Users\jo\AppData\Local\Temp\ccqE6SHC.s:672    .rodata.month_len:00000000 $d
C:\Users\jo\AppData\Local\Temp\ccqE6SHC.s:676    .rodata.month_len:00000000 month_len
C:\Users\jo\AppData\Local\Temp\ccqE6SHC.s:690    .rodata.__func__.8194:00000000 $d
C:\Users\jo\AppData\Local\Temp\ccqE6SHC.s:694    .rodata.__func__.8194:00000000 __func__.8194
C:\Users\jo\AppData\Local\Temp\ccqE6SHC.s:697    .rodata.__func__.8199:00000000 $d
C:\Users\jo\AppData\Local\Temp\ccqE6SHC.s:701    .rodata.__func__.8199:00000000 __func__.8199
                     .debug_frame:00000010 $d
C:\Users\jo\AppData\Local\Temp\ccqE6SHC.s:259    .text.rtcSetAlarm:00000028 $t
C:\Users\jo\AppData\Local\Temp\ccqE6SHC.s:340    .text.rtcGetAlarm:00000038 $t

UNDEFINED SYMBOLS
rtc_lld_init
rtc_lld_set_time
chSysHalt
rtc_lld_get_time
rtc_lld_set_alarm
rtc_lld_get_alarm
