ARM GAS  C:\Users\jo\AppData\Local\Temp\ccqE6SHC.s 			page 1


   1              		.syntax unified
   2              		.cpu cortex-m4
   3              		.fpu softvfp
   4              		.eabi_attribute 20, 1
   5              		.eabi_attribute 21, 1
   6              		.eabi_attribute 23, 3
   7              		.eabi_attribute 24, 1
   8              		.eabi_attribute 25, 1
   9              		.eabi_attribute 26, 1
  10              		.eabi_attribute 30, 2
  11              		.eabi_attribute 34, 1
  12              		.eabi_attribute 18, 4
  13              		.thumb
  14              		.file	"rtc.c"
  15              		.text
  16              	.Ltext0:
  17              		.cfi_sections	.debug_frame
  18              		.section	.text.rtcInit,"ax",%progbits
  19              		.align	2
  20              		.p2align 4,,15
  21              		.global	rtcInit
  22              		.thumb
  23              		.thumb_func
  24              		.type	rtcInit, %function
  25              	rtcInit:
  26              	.LFB255:
  27              		.file 1 "../../../os/hal/src/rtc.c"
  28              		.loc 1 70 0
  29              		.cfi_startproc
  30              		@ args = 0, pretend = 0, frame = 0
  31              		@ frame_needed = 0, uses_anonymous_args = 0
  32              		@ link register save eliminated.
  33              		.loc 1 72 0
  34 0000 FFF7FEBF 		b	rtc_lld_init
  35              	.LVL0:
  36              		.cfi_endproc
  37              	.LFE255:
  38              		.size	rtcInit, .-rtcInit
  39 0004 AFF30080 		.section	.text.rtcObjectInit,"ax",%progbits
  39      AFF30080 
  39      AFF30080 
  40              		.align	2
  41              		.p2align 4,,15
  42              		.global	rtcObjectInit
  43              		.thumb
  44              		.thumb_func
  45              		.type	rtcObjectInit, %function
  46              	rtcObjectInit:
  47              	.LFB256:
  48              		.loc 1 84 0
  49              		.cfi_startproc
  50              		@ args = 0, pretend = 0, frame = 0
  51              		@ frame_needed = 0, uses_anonymous_args = 0
  52              		@ link register save eliminated.
  53              	.LVL1:
  54 0000 7047     		bx	lr
  55              		.cfi_endproc
ARM GAS  C:\Users\jo\AppData\Local\Temp\ccqE6SHC.s 			page 2


  56              	.LFE256:
  57              		.size	rtcObjectInit, .-rtcObjectInit
  58 0002 00BFAFF3 		.section	.text.rtcSetTime,"ax",%progbits
  58      0080AFF3 
  58      0080AFF3 
  58      0080
  59              		.align	2
  60              		.p2align 4,,15
  61              		.global	rtcSetTime
  62              		.thumb
  63              		.thumb_func
  64              		.type	rtcSetTime, %function
  65              	rtcSetTime:
  66              	.LFB257:
  67              		.loc 1 107 0
  68              		.cfi_startproc
  69              		@ args = 0, pretend = 0, frame = 8
  70              		@ frame_needed = 0, uses_anonymous_args = 0
  71              	.LVL2:
  72              		.loc 1 107 0
  73 0000 10B5     		push	{r4, lr}
  74              		.cfi_def_cfa_offset 8
  75              		.cfi_offset 4, -8
  76              		.cfi_offset 14, -4
  77              		.loc 1 109 0
  78 0002 0446     		mov	r4, r0
  79              		.loc 1 107 0
  80 0004 82B0     		sub	sp, sp, #8
  81              		.cfi_def_cfa_offset 16
  82              		.loc 1 109 0
  83 0006 30B1     		cbz	r0, .L4
  84              		.loc 1 109 0 is_stmt 0 discriminator 2
  85 0008 29B1     		cbz	r1, .L4
  86              		.loc 1 111 0 is_stmt 1
  87 000a 2046     		mov	r0, r4
  88              		.loc 1 112 0
  89 000c 02B0     		add	sp, sp, #8
  90              		.cfi_remember_state
  91              		.cfi_def_cfa_offset 8
  92              		@ sp needed
  93 000e BDE81040 		pop	{r4, lr}
  94              		.cfi_restore 14
  95              		.cfi_restore 4
  96              		.cfi_def_cfa_offset 0
  97              		.loc 1 111 0
  98 0012 FFF7FEBF 		b	rtc_lld_set_time
  99              	.LVL3:
 100              	.L4:
 101              		.cfi_restore_state
 102              		.loc 1 109 0 discriminator 3
 103 0016 0548     		ldr	r0, .L11
 104              	.LVL4:
 105 0018 0191     		str	r1, [sp, #4]
 106 001a FFF7FEFF 		bl	chSysHalt
 107              	.LVL5:
 108 001e 0199     		ldr	r1, [sp, #4]
 109              		.loc 1 111 0 discriminator 3
ARM GAS  C:\Users\jo\AppData\Local\Temp\ccqE6SHC.s 			page 3


 110 0020 2046     		mov	r0, r4
 111              		.loc 1 112 0 discriminator 3
 112 0022 02B0     		add	sp, sp, #8
 113              		.cfi_def_cfa_offset 8
 114              		@ sp needed
 115 0024 BDE81040 		pop	{r4, lr}
 116              		.cfi_restore 4
 117              		.cfi_restore 14
 118              		.cfi_def_cfa_offset 0
 119              	.LVL6:
 120              		.loc 1 111 0 discriminator 3
 121 0028 FFF7FEBF 		b	rtc_lld_set_time
 122              	.LVL7:
 123              	.L12:
 124              		.align	2
 125              	.L11:
 126 002c 00000000 		.word	.LANCHOR0
 127              		.cfi_endproc
 128              	.LFE257:
 129              		.size	rtcSetTime, .-rtcSetTime
 130              		.section	.text.rtcGetTime,"ax",%progbits
 131              		.align	2
 132              		.p2align 4,,15
 133              		.global	rtcGetTime
 134              		.thumb
 135              		.thumb_func
 136              		.type	rtcGetTime, %function
 137              	rtcGetTime:
 138              	.LFB258:
 139              		.loc 1 128 0
 140              		.cfi_startproc
 141              		@ args = 0, pretend = 0, frame = 8
 142              		@ frame_needed = 0, uses_anonymous_args = 0
 143              	.LVL8:
 144 0000 10B5     		push	{r4, lr}
 145              		.cfi_def_cfa_offset 8
 146              		.cfi_offset 4, -8
 147              		.cfi_offset 14, -4
 148              		.loc 1 130 0
 149 0002 0446     		mov	r4, r0
 150              		.loc 1 128 0
 151 0004 82B0     		sub	sp, sp, #8
 152              		.cfi_def_cfa_offset 16
 153              		.loc 1 130 0
 154 0006 30B1     		cbz	r0, .L14
 155              		.loc 1 130 0 is_stmt 0 discriminator 2
 156 0008 29B1     		cbz	r1, .L14
 157              		.loc 1 132 0 is_stmt 1
 158 000a 2046     		mov	r0, r4
 159              		.loc 1 133 0
 160 000c 02B0     		add	sp, sp, #8
 161              		.cfi_remember_state
 162              		.cfi_def_cfa_offset 8
 163              		@ sp needed
 164 000e BDE81040 		pop	{r4, lr}
 165              		.cfi_restore 14
 166              		.cfi_restore 4
ARM GAS  C:\Users\jo\AppData\Local\Temp\ccqE6SHC.s 			page 4


 167              		.cfi_def_cfa_offset 0
 168              		.loc 1 132 0
 169 0012 FFF7FEBF 		b	rtc_lld_get_time
 170              	.LVL9:
 171              	.L14:
 172              		.cfi_restore_state
 173              		.loc 1 130 0 discriminator 3
 174 0016 0548     		ldr	r0, .L20
 175              	.LVL10:
 176 0018 0191     		str	r1, [sp, #4]
 177 001a FFF7FEFF 		bl	chSysHalt
 178              	.LVL11:
 179 001e 0199     		ldr	r1, [sp, #4]
 180              		.loc 1 132 0 discriminator 3
 181 0020 2046     		mov	r0, r4
 182              		.loc 1 133 0 discriminator 3
 183 0022 02B0     		add	sp, sp, #8
 184              		.cfi_def_cfa_offset 8
 185              		@ sp needed
 186 0024 BDE81040 		pop	{r4, lr}
 187              		.cfi_restore 4
 188              		.cfi_restore 14
 189              		.cfi_def_cfa_offset 0
 190              	.LVL12:
 191              		.loc 1 132 0 discriminator 3
 192 0028 FFF7FEBF 		b	rtc_lld_get_time
 193              	.LVL13:
 194              	.L21:
 195              		.align	2
 196              	.L20:
 197 002c 00000000 		.word	.LANCHOR1
 198              		.cfi_endproc
 199              	.LFE258:
 200              		.size	rtcGetTime, .-rtcGetTime
 201              		.section	.text.rtcSetAlarm,"ax",%progbits
 202              		.align	2
 203              		.p2align 4,,15
 204              		.global	rtcSetAlarm
 205              		.thumb
 206              		.thumb_func
 207              		.type	rtcSetAlarm, %function
 208              	rtcSetAlarm:
 209              	.LFB259:
 210              		.loc 1 153 0
 211              		.cfi_startproc
 212              		@ args = 0, pretend = 0, frame = 0
 213              		@ frame_needed = 0, uses_anonymous_args = 0
 214              	.LVL14:
 215 0000 70B5     		push	{r4, r5, r6, lr}
 216              		.cfi_def_cfa_offset 16
 217              		.cfi_offset 4, -16
 218              		.cfi_offset 5, -12
 219              		.cfi_offset 6, -8
 220              		.cfi_offset 14, -4
 221              		.loc 1 153 0
 222 0002 0D46     		mov	r5, r1
 223 0004 1646     		mov	r6, r2
ARM GAS  C:\Users\jo\AppData\Local\Temp\ccqE6SHC.s 			page 5


 224              		.loc 1 155 0
 225 0006 0446     		mov	r4, r0
 226 0008 08B1     		cbz	r0, .L23
 227              		.loc 1 155 0 is_stmt 0 discriminator 2
 228 000a 0129     		cmp	r1, #1
 229 000c 02D9     		bls	.L24
 230              	.L23:
 231              		.loc 1 155 0 discriminator 3
 232 000e 0548     		ldr	r0, .L29
 233              	.LVL15:
 234 0010 FFF7FEFF 		bl	chSysHalt
 235              	.LVL16:
 236              	.L24:
 237              		.loc 1 157 0 is_stmt 1
 238 0014 2046     		mov	r0, r4
 239 0016 2946     		mov	r1, r5
 240 0018 3246     		mov	r2, r6
 241              		.loc 1 158 0
 242 001a BDE87040 		pop	{r4, r5, r6, lr}
 243              		.cfi_restore 14
 244              		.cfi_restore 6
 245              		.cfi_restore 5
 246              		.cfi_restore 4
 247              		.cfi_def_cfa_offset 0
 248              	.LVL17:
 249              		.loc 1 157 0
 250 001e FFF7FEBF 		b	rtc_lld_set_alarm
 251              	.LVL18:
 252              	.L30:
 253 0022 00BF     		.align	2
 254              	.L29:
 255 0024 00000000 		.word	.LANCHOR2
 256              		.cfi_endproc
 257              	.LFE259:
 258              		.size	rtcSetAlarm, .-rtcSetAlarm
 259 0028 AFF30080 		.section	.text.rtcGetAlarm,"ax",%progbits
 259      AFF30080 
 260              		.align	2
 261              		.p2align 4,,15
 262              		.global	rtcGetAlarm
 263              		.thumb
 264              		.thumb_func
 265              		.type	rtcGetAlarm, %function
 266              	rtcGetAlarm:
 267              	.LFB260:
 268              		.loc 1 179 0
 269              		.cfi_startproc
 270              		@ args = 0, pretend = 0, frame = 0
 271              		@ frame_needed = 0, uses_anonymous_args = 0
 272              	.LVL19:
 273 0000 70B5     		push	{r4, r5, r6, lr}
 274              		.cfi_def_cfa_offset 16
 275              		.cfi_offset 4, -16
 276              		.cfi_offset 5, -12
 277              		.cfi_offset 6, -8
 278              		.cfi_offset 14, -4
 279              		.loc 1 179 0
ARM GAS  C:\Users\jo\AppData\Local\Temp\ccqE6SHC.s 			page 6


 280 0002 0D46     		mov	r5, r1
 281 0004 1646     		mov	r6, r2
 282              		.loc 1 181 0
 283 0006 0446     		mov	r4, r0
 284 0008 08B1     		cbz	r0, .L32
 285              		.loc 1 181 0 is_stmt 0 discriminator 2
 286 000a 0129     		cmp	r1, #1
 287 000c 09D9     		bls	.L39
 288              	.L32:
 289              		.loc 1 181 0 discriminator 5
 290 000e 0948     		ldr	r0, .L40
 291              	.LVL20:
 292 0010 FFF7FEFF 		bl	chSysHalt
 293              	.LVL21:
 294              		.loc 1 183 0 is_stmt 1 discriminator 5
 295 0014 2046     		mov	r0, r4
 296 0016 2946     		mov	r1, r5
 297 0018 3246     		mov	r2, r6
 298              		.loc 1 184 0 discriminator 5
 299 001a BDE87040 		pop	{r4, r5, r6, lr}
 300              		.cfi_remember_state
 301              		.cfi_restore 14
 302              		.cfi_restore 6
 303              		.cfi_restore 5
 304              		.cfi_restore 4
 305              		.cfi_def_cfa_offset 0
 306              	.LVL22:
 307              		.loc 1 183 0 discriminator 5
 308 001e FFF7FEBF 		b	rtc_lld_get_alarm
 309              	.LVL23:
 310              	.L39:
 311              		.cfi_restore_state
 312              		.loc 1 181 0 discriminator 4
 313 0022 002A     		cmp	r2, #0
 314 0024 F3D0     		beq	.L32
 315              		.loc 1 183 0
 316 0026 2046     		mov	r0, r4
 317              	.LVL24:
 318 0028 2946     		mov	r1, r5
 319              	.LVL25:
 320 002a 3246     		mov	r2, r6
 321              	.LVL26:
 322              		.loc 1 184 0
 323 002c BDE87040 		pop	{r4, r5, r6, lr}
 324              		.cfi_restore 4
 325              		.cfi_restore 5
 326              		.cfi_restore 6
 327              		.cfi_restore 14
 328              		.cfi_def_cfa_offset 0
 329              	.LVL27:
 330              		.loc 1 183 0
 331 0030 FFF7FEBF 		b	rtc_lld_get_alarm
 332              	.LVL28:
 333              	.L41:
 334              		.align	2
 335              	.L40:
 336 0034 00000000 		.word	.LANCHOR3
ARM GAS  C:\Users\jo\AppData\Local\Temp\ccqE6SHC.s 			page 7


 337              		.cfi_endproc
 338              	.LFE260:
 339              		.size	rtcGetAlarm, .-rtcGetAlarm
 340 0038 AFF30080 		.section	.text.rtcConvertDateTimeToStructTm,"ax",%progbits
 340      AFF30080 
 341              		.align	2
 342              		.p2align 4,,15
 343              		.global	rtcConvertDateTimeToStructTm
 344              		.thumb
 345              		.thumb_func
 346              		.type	rtcConvertDateTimeToStructTm, %function
 347              	rtcConvertDateTimeToStructTm:
 348              	.LFB261:
 349              		.loc 1 221 0
 350              		.cfi_startproc
 351              		@ args = 0, pretend = 0, frame = 0
 352              		@ frame_needed = 0, uses_anonymous_args = 0
 353              	.LVL29:
 354              		.loc 1 229 0
 355 0000 4268     		ldr	r2, [r0, #4]
 356 0002 1C4B     		ldr	r3, .L44
 357              		.loc 1 230 0
 358 0004 DFF870C0 		ldr	ip, .L44+4
 359              		.loc 1 229 0
 360 0008 C2F31A02 		ubfx	r2, r2, #0, #27
 361 000c 83FB0232 		smull	r3, r2, r3, r2
 362 0010 9209     		lsrs	r2, r2, #6
 363              	.LVL30:
 364              		.loc 1 221 0
 365 0012 2DE9F041 		push	{r4, r5, r6, r7, r8, lr}
 366              		.cfi_def_cfa_offset 24
 367              		.cfi_offset 4, -24
 368              		.cfi_offset 5, -20
 369              		.cfi_offset 6, -16
 370              		.cfi_offset 7, -12
 371              		.cfi_offset 8, -8
 372              		.cfi_offset 14, -4
 373              		.loc 1 225 0
 374 0016 4478     		ldrb	r4, [r0, #1]	@ zero_extendqisi2
 375              		.loc 1 224 0
 376 0018 0778     		ldrb	r7, [r0]	@ zero_extendqisi2
 377              		.loc 1 226 0
 378 001a 8678     		ldrb	r6, [r0, #2]	@ zero_extendqisi2
 379              		.loc 1 232 0
 380 001c DFF85CE0 		ldr	lr, .L44+8
 381              		.loc 1 230 0
 382 0020 ACFB0230 		umull	r3, r0, ip, r2
 383              	.LVL31:
 384 0024 4009     		lsrs	r0, r0, #5
 385 0026 C0EB0010 		rsb	r0, r0, r0, lsl #4
 386 002a A2EB8000 		sub	r0, r2, r0, lsl #2
 387              		.loc 1 231 0
 388 002e 131A     		subs	r3, r2, r0
 389              	.LVL32:
 390              		.loc 1 232 0
 391 0030 AEFB0382 		umull	r8, r2, lr, r3
 392 0034 D20A     		lsrs	r2, r2, #11
ARM GAS  C:\Users\jo\AppData\Local\Temp\ccqE6SHC.s 			page 8


 393 0036 4FF46168 		mov	r8, #3600
 394 003a 08FB1232 		mls	r2, r8, r2, r3
 395 003e ACFB02C2 		umull	ip, r2, ip, r2
 396 0042 5209     		lsrs	r2, r2, #5
 397              		.loc 1 233 0
 398 0044 A2EB021C 		sub	ip, r2, r2, lsl #4
 399 0048 03EB8C03 		add	r3, r3, ip, lsl #2
 400              	.LVL33:
 401              		.loc 1 227 0
 402 004c 2546     		mov	r5, r4
 403              		.loc 1 234 0
 404 004e AEFB03E3 		umull	lr, r3, lr, r3
 405              		.loc 1 225 0
 406 0052 04F00F04 		and	r4, r4, #15
 407              		.loc 1 224 0
 408 0056 5037     		adds	r7, r7, #80
 409              		.loc 1 225 0
 410 0058 013C     		subs	r4, r4, #1
 411              		.loc 1 226 0
 412 005a 06F01F06 		and	r6, r6, #31
 413              		.loc 1 227 0
 414 005e C5F30015 		ubfx	r5, r5, #4, #1
 415              		.loc 1 234 0
 416 0062 DB0A     		lsrs	r3, r3, #11
 417              		.loc 1 224 0
 418 0064 4F61     		str	r7, [r1, #20]
 419              		.loc 1 225 0
 420 0066 0C61     		str	r4, [r1, #16]
 421              		.loc 1 226 0
 422 0068 CE60     		str	r6, [r1, #12]
 423              		.loc 1 227 0
 424 006a 0D62     		str	r5, [r1, #32]
 425              		.loc 1 234 0
 426 006c 81E80D00 		stmia	r1, {r0, r2, r3}
 427 0070 BDE8F081 		pop	{r4, r5, r6, r7, r8, pc}
 428              	.L45:
 429              		.align	2
 430              	.L44:
 431 0074 D34D6210 		.word	274877907
 432 0078 89888888 		.word	-2004318071
 433 007c C5B3A291 		.word	-1851608123
 434              		.cfi_endproc
 435              	.LFE261:
 436              		.size	rtcConvertDateTimeToStructTm, .-rtcConvertDateTimeToStructTm
 437              		.section	.text.rtcConvertStructTmToDateTime,"ax",%progbits
 438              		.align	2
 439              		.p2align 4,,15
 440              		.global	rtcConvertStructTmToDateTime
 441              		.thumb
 442              		.thumb_func
 443              		.type	rtcConvertStructTmToDateTime, %function
 444              	rtcConvertStructTmToDateTime:
 445              	.LFB262:
 446              		.loc 1 248 0
 447              		.cfi_startproc
 448              		@ args = 0, pretend = 0, frame = 0
 449              		@ frame_needed = 0, uses_anonymous_args = 0
ARM GAS  C:\Users\jo\AppData\Local\Temp\ccqE6SHC.s 			page 9


 450              	.LVL34:
 451 0000 F0B5     		push	{r4, r5, r6, r7, lr}
 452              		.cfi_def_cfa_offset 20
 453              		.cfi_offset 4, -20
 454              		.cfi_offset 5, -16
 455              		.cfi_offset 6, -12
 456              		.cfi_offset 7, -8
 457              		.cfi_offset 14, -4
 458              		.loc 1 251 0
 459 0002 0769     		ldr	r7, [r0, #16]
 460              		.loc 1 253 0
 461 0004 8669     		ldr	r6, [r0, #24]
 462              		.loc 1 251 0
 463 0006 5478     		ldrb	r4, [r2, #1]	@ zero_extendqisi2
 464              		.loc 1 250 0
 465 0008 4369     		ldr	r3, [r0, #20]
 466              		.loc 1 254 0
 467 000a 056A     		ldr	r5, [r0, #32]
 468              		.loc 1 252 0
 469 000c 92F802E0 		ldrb	lr, [r2, #2]	@ zero_extendqisi2
 470              		.loc 1 251 0
 471 0010 0137     		adds	r7, r7, #1
 472 0012 67F30304 		bfi	r4, r7, #0, #4
 473              		.loc 1 253 0
 474 0016 0136     		adds	r6, r6, #1
 475 0018 66F34714 		bfi	r4, r6, #5, #3
 476              		.loc 1 250 0
 477 001c 503B     		subs	r3, r3, #80
 478              		.loc 1 252 0
 479 001e C768     		ldr	r7, [r0, #12]
 480              		.loc 1 253 0
 481 0020 5470     		strb	r4, [r2, #1]
 482              		.loc 1 250 0
 483 0022 1370     		strb	r3, [r2]
 484              		.loc 1 254 0
 485 0024 6B1C     		adds	r3, r5, #1
 486              		.loc 1 257 0
 487 0026 15BF     		itete	ne
 488 0028 5378     		ldrbne	r3, [r2, #1]	@ zero_extendqisi2
 489              		.loc 1 255 0
 490 002a E3B2     		uxtbeq	r3, r4
 491              		.loc 1 257 0
 492 002c 65F30413 		bfine	r3, r5, #4, #1
 493              		.loc 1 255 0
 494 0030 6FF30413 		bfceq	r3, #4, #1
 495              		.loc 1 257 0
 496 0034 5370     		strb	r3, [r2, #1]
 497              		.loc 1 259 0
 498 0036 19C8     		ldmia	r0, {r0, r3, r4}
 499              	.LVL35:
 500 0038 C3EB0313 		rsb	r3, r3, r3, lsl #4
 501 003c 9B00     		lsls	r3, r3, #2
 502 003e 4FF46166 		mov	r6, #3600
 503 0042 06FB0433 		mla	r3, r6, r4, r3
 504              		.loc 1 258 0
 505 0046 5568     		ldr	r5, [r2, #4]
 506              		.loc 1 259 0
ARM GAS  C:\Users\jo\AppData\Local\Temp\ccqE6SHC.s 			page 10


 507 0048 0344     		add	r3, r3, r0
 508 004a 4FF47A70 		mov	r0, #1000
 509              		.loc 1 258 0
 510 004e 00FB0311 		mla	r1, r0, r3, r1
 511              	.LVL36:
 512              		.loc 1 252 0
 513 0052 67F3040E 		bfi	lr, r7, #0, #5
 514              		.loc 1 258 0
 515 0056 61F31A05 		bfi	r5, r1, #0, #27
 516              		.loc 1 252 0
 517 005a 82F802E0 		strb	lr, [r2, #2]
 518              		.loc 1 258 0
 519 005e 5560     		str	r5, [r2, #4]
 520 0060 F0BD     		pop	{r4, r5, r6, r7, pc}
 521              		.cfi_endproc
 522              	.LFE262:
 523              		.size	rtcConvertStructTmToDateTime, .-rtcConvertStructTmToDateTime
 524 0062 00BFAFF3 		.section	.text.rtcConvertDateTimeToFAT,"ax",%progbits
 524      0080AFF3 
 524      0080AFF3 
 524      0080
 525              		.align	2
 526              		.p2align 4,,15
 527              		.global	rtcConvertDateTimeToFAT
 528              		.thumb
 529              		.thumb_func
 530              		.type	rtcConvertDateTimeToFAT, %function
 531              	rtcConvertDateTimeToFAT:
 532              	.LFB263:
 533              		.loc 1 272 0
 534              		.cfi_startproc
 535              		@ args = 0, pretend = 0, frame = 0
 536              		@ frame_needed = 0, uses_anonymous_args = 0
 537              		@ link register save eliminated.
 538              	.LVL37:
 539              		.loc 1 276 0
 540 0000 4268     		ldr	r2, [r0, #4]
 541 0002 234B     		ldr	r3, .L57
 542 0004 C2F31A01 		ubfx	r1, r2, #0, #27
 543              		.loc 1 272 0
 544 0008 F0B4     		push	{r4, r5, r6, r7}
 545              		.cfi_def_cfa_offset 16
 546              		.cfi_offset 4, -16
 547              		.cfi_offset 5, -12
 548              		.cfi_offset 6, -8
 549              		.cfi_offset 7, -4
 550              		.loc 1 276 0
 551 000a 83FB0123 		smull	r2, r3, r3, r1
 552              		.loc 1 277 0
 553 000e 214D     		ldr	r5, .L57+4
 554              		.loc 1 278 0
 555 0010 214F     		ldr	r7, .L57+8
 556              		.loc 1 281 0
 557 0012 4678     		ldrb	r6, [r0, #1]	@ zero_extendqisi2
 558              		.loc 1 280 0
 559 0014 8478     		ldrb	r4, [r0, #2]	@ zero_extendqisi2
 560              		.loc 1 276 0
ARM GAS  C:\Users\jo\AppData\Local\Temp\ccqE6SHC.s 			page 11


 561 0016 9B09     		lsrs	r3, r3, #6
 562              	.LVL38:
 563              		.loc 1 277 0
 564 0018 A5FB0321 		umull	r2, r1, r5, r3
 565 001c 4909     		lsrs	r1, r1, #5
 566 001e C1EB0111 		rsb	r1, r1, r1, lsl #4
 567 0022 A3EB8101 		sub	r1, r3, r1, lsl #2
 568              	.LVL39:
 569              		.loc 1 278 0
 570 0026 5B1A     		subs	r3, r3, r1
 571              	.LVL40:
 572 0028 A7FB0325 		umull	r2, r5, r7, r3
 573 002c ED0A     		lsrs	r5, r5, #11
 574 002e 4FF46162 		mov	r2, #3600
 575 0032 02FB1535 		mls	r5, r2, r5, r3
 576              	.LVL41:
 577              		.loc 1 279 0
 578 0036 C5EB0512 		rsb	r2, r5, r5, lsl #4
 579 003a A3EB8203 		sub	r3, r3, r2, lsl #2
 580 003e A7FB0332 		umull	r3, r2, r7, r3
 581              		.loc 1 284 0
 582 0042 F306     		lsls	r3, r6, #27
 583              		.loc 1 279 0
 584 0044 4FEAD222 		lsr	r2, r2, #11
 585              	.LVL42:
 586              		.loc 1 280 0
 587 0048 04F01F04 		and	r4, r4, #31
 588              	.LVL43:
 589              		.loc 1 281 0
 590 004c 06F00F07 		and	r7, r6, #15
 591              	.LVL44:
 592              		.loc 1 284 0
 593 0050 02D5     		bpl	.L56
 594              		.loc 1 285 0
 595 0052 0132     		adds	r2, r2, #1
 596              	.LVL45:
 597              		.loc 1 286 0
 598 0054 182A     		cmp	r2, #24
 599 0056 0ED0     		beq	.L53
 600              	.L56:
 601 0058 D202     		lsls	r2, r2, #11
 602              	.LVL46:
 603 005a 2404     		lsls	r4, r4, #16
 604              	.LVL47:
 605              	.L52:
 606              		.loc 1 301 0
 607 005c 0378     		ldrb	r3, [r0]	@ zero_extendqisi2
 608 005e 5B06     		lsls	r3, r3, #25
 609 0060 43EA5103 		orr	r3, r3, r1, lsr #1
 610 0064 43EA4513 		orr	r3, r3, r5, lsl #5
 611 0068 1343     		orrs	r3, r3, r2
 612 006a 43EA0400 		orr	r0, r3, r4
 613              	.LVL48:
 614              		.loc 1 304 0
 615 006e 40EA4750 		orr	r0, r0, r7, lsl #21
 616              	.LVL49:
 617 0072 F0BC     		pop	{r4, r5, r6, r7}
ARM GAS  C:\Users\jo\AppData\Local\Temp\ccqE6SHC.s 			page 12


 618              		.cfi_remember_state
 619              		.cfi_restore 7
 620              		.cfi_restore 6
 621              		.cfi_restore 5
 622              		.cfi_restore 4
 623              		.cfi_def_cfa_offset 0
 624              	.LVL50:
 625 0074 7047     		bx	lr
 626              	.LVL51:
 627              	.L53:
 628              		.cfi_restore_state
 629              		.loc 1 289 0
 630 0076 094B     		ldr	r3, .L57+12
 631 0078 3B44     		add	r3, r3, r7
 632              		.loc 1 288 0
 633 007a 0134     		adds	r4, r4, #1
 634              	.LVL52:
 635              		.loc 1 289 0
 636 007c 13F8013C 		ldrb	r3, [r3, #-1]	@ zero_extendqisi2
 637 0080 9C42     		cmp	r4, r3
 638 0082 92BF     		itee	ls
 639 0084 2404     		lslls	r4, r4, #16
 640              	.LVL53:
 641              		.loc 1 291 0
 642 0086 0137     		addhi	r7, r7, #1
 643              	.LVL54:
 644 0088 4FF48034 		movhi	r4, #65536
 645 008c 0022     		movs	r2, #0
 646 008e E5E7     		b	.L52
 647              	.L58:
 648              		.align	2
 649              	.L57:
 650 0090 D34D6210 		.word	274877907
 651 0094 89888888 		.word	-2004318071
 652 0098 C5B3A291 		.word	-1851608123
 653 009c 00000000 		.word	.LANCHOR4
 654              		.cfi_endproc
 655              	.LFE263:
 656              		.size	rtcConvertDateTimeToFAT, .-rtcConvertDateTimeToFAT
 657              		.section	.rodata.__func__.8205,"a",%progbits
 658              		.align	2
 659              		.set	.LANCHOR2,. + 0
 660              		.type	__func__.8205, %object
 661              		.size	__func__.8205, 12
 662              	__func__.8205:
 663 0000 72746353 		.ascii	"rtcSetAlarm\000"
 663      6574416C 
 663      61726D00 
 664              		.section	.rodata.__func__.8211,"a",%progbits
 665              		.align	2
 666              		.set	.LANCHOR3,. + 0
 667              		.type	__func__.8211, %object
 668              		.size	__func__.8211, 12
 669              	__func__.8211:
 670 0000 72746347 		.ascii	"rtcGetAlarm\000"
 670      6574416C 
 670      61726D00 
ARM GAS  C:\Users\jo\AppData\Local\Temp\ccqE6SHC.s 			page 13


 671              		.section	.rodata.month_len,"a",%progbits
 672              		.align	2
 673              		.set	.LANCHOR4,. + 0
 674              		.type	month_len, %object
 675              		.size	month_len, 12
 676              	month_len:
 677 0000 1F       		.byte	31
 678 0001 1E       		.byte	30
 679 0002 1F       		.byte	31
 680 0003 1E       		.byte	30
 681 0004 1F       		.byte	31
 682 0005 1E       		.byte	30
 683 0006 1F       		.byte	31
 684 0007 1F       		.byte	31
 685 0008 1E       		.byte	30
 686 0009 1F       		.byte	31
 687 000a 1E       		.byte	30
 688 000b 1F       		.byte	31
 689              		.section	.rodata.__func__.8194,"a",%progbits
 690              		.align	2
 691              		.set	.LANCHOR0,. + 0
 692              		.type	__func__.8194, %object
 693              		.size	__func__.8194, 11
 694              	__func__.8194:
 695 0000 72746353 		.ascii	"rtcSetTime\000"
 695      65745469 
 695      6D6500
 696 000b 00       		.section	.rodata.__func__.8199,"a",%progbits
 697              		.align	2
 698              		.set	.LANCHOR1,. + 0
 699              		.type	__func__.8199, %object
 700              		.size	__func__.8199, 11
 701              	__func__.8199:
 702 0000 72746347 		.ascii	"rtcGetTime\000"
 702      65745469 
 702      6D6500
 703 000b 00       		.text
 704              	.Letext0:
 705              		.file 2 "c:\\program files\\gnu tools arm embedded\\4.9 2014q4\\lib\\gcc\\arm-none-eabi\\4.9.3\\in
 706              		.file 3 "c:\\program files\\gnu tools arm embedded\\4.9 2014q4\\arm-none-eabi\\include\\machine\\_
 707              		.file 4 "c:\\program files\\gnu tools arm embedded\\4.9 2014q4\\arm-none-eabi\\include\\stdint.h"
 708              		.file 5 "../../../os/rt/ports/ARMCMx/compilers/GCC/chtypes.h"
 709              		.file 6 "../../../os/rt/include/chsystypes.h"
 710              		.file 7 "../../../os/rt/include/chschd.h"
 711              		.file 8 "../../../os/ext/CMSIS/ST/stm32f407xx.h"
 712              		.file 9 "../../../os/rt/ports/ARMCMx/chcore.h"
 713              		.file 10 "../../../os/rt/ports/ARMCMx/chcore_v7m.h"
 714              		.file 11 "../../../os/rt/include/chdebug.h"
 715              		.file 12 "../../../os/rt/include/chtm.h"
 716              		.file 13 "../../../os/rt/include/chstats.h"
 717              		.file 14 "../../../os/rt/include/chmtx.h"
 718              		.file 15 "c:\\program files\\gnu tools arm embedded\\4.9 2014q4\\arm-none-eabi\\include\\time.h"
 719              		.file 16 "../../../os/hal/include/rtc.h"
 720              		.file 17 "../../../os/hal/ports/STM32/LLD/RTCv2/rtc_lld.h"
 721              		.file 18 "../../../os/rt/include/chsys.h"
 722              		.file 19 "../../../os/ext/CMSIS/include/core_cm4.h"