ARM GAS  C:\Users\jo\AppData\Local\Temp\cczpOVhG.s 			page 1


   1              		.syntax unified
   2              		.cpu cortex-m4
   3              		.fpu softvfp
   4              		.eabi_attribute 20, 1
   5              		.eabi_attribute 21, 1
   6              		.eabi_attribute 23, 3
   7              		.eabi_attribute 24, 1
   8              		.eabi_attribute 25, 1
   9              		.eabi_attribute 26, 1
  10              		.eabi_attribute 30, 2
  11              		.eabi_attribute 34, 1
  12              		.eabi_attribute 18, 4
  13              		.thumb
  14              		.file	"rtc_lld.c"
  15              		.text
  16              	.Ltext0:
  17              		.cfi_sections	.debug_frame
  18              		.section	.text.rtc_lld_init,"ax",%progbits
  19              		.align	2
  20              		.p2align 4,,15
  21              		.global	rtc_lld_init
  22              		.thumb
  23              		.thumb_func
  24              		.type	rtc_lld_init, %function
  25              	rtc_lld_init:
  26              	.LFB261:
  27              		.file 1 "../../../os/hal/ports/STM32/LLD/RTCv2/rtc_lld.c"
  28              		.loc 1 294 0
  29              		.cfi_startproc
  30              		@ args = 0, pretend = 0, frame = 0
  31              		@ frame_needed = 0, uses_anonymous_args = 0
  32 0000 10B5     		push	{r4, lr}
  33              		.cfi_def_cfa_offset 8
  34              		.cfi_offset 4, -8
  35              		.cfi_offset 14, -4
  36              		.loc 1 297 0
  37 0002 124C     		ldr	r4, .L9
  38 0004 2046     		mov	r0, r4
  39 0006 FFF7FEFF 		bl	rtcObjectInit
  40              	.LVL0:
  41              		.loc 1 300 0
  42 000a 114B     		ldr	r3, .L9+4
  43 000c 2360     		str	r3, [r4]
  44              		.loc 1 304 0
  45 000e 5322     		movs	r2, #83
  46              		.loc 1 303 0
  47 0010 CA21     		movs	r1, #202
  48 0012 5962     		str	r1, [r3, #36]
  49              		.loc 1 304 0
  50 0014 5A62     		str	r2, [r3, #36]
  51              		.loc 1 308 0
  52 0016 DA68     		ldr	r2, [r3, #12]
  53 0018 12F0100F 		tst	r2, #16
  54              	.LBB10:
  55              	.LBB11:
  56              		.loc 1 77 0
  57 001c DA68     		ldr	r2, [r3, #12]
ARM GAS  C:\Users\jo\AppData\Local\Temp\cczpOVhG.s 			page 2


  58              	.LBE11:
  59              	.LBE10:
  60              		.loc 1 308 0
  61 001e 11D1     		bne	.L2
  62              	.LBB13:
  63              	.LBB12:
  64              		.loc 1 77 0
  65 0020 42F08002 		orr	r2, r2, #128
  66 0024 DA60     		str	r2, [r3, #12]
  67              	.L3:
  68              		.loc 1 78 0
  69 0026 DA68     		ldr	r2, [r3, #12]
  70 0028 0949     		ldr	r1, .L9+4
  71 002a 5206     		lsls	r2, r2, #25
  72 002c FBD5     		bpl	.L3
  73              	.LBE12:
  74              	.LBE13:
  75              		.loc 1 314 0
  76 002e 094B     		ldr	r3, .L9+8
  77              		.loc 1 312 0
  78 0030 0022     		movs	r2, #0
  79 0032 8A60     		str	r2, [r1, #8]
  80              		.loc 1 313 0
  81 0034 CA60     		str	r2, [r1, #12]
  82              		.loc 1 314 0
  83 0036 0B61     		str	r3, [r1, #16]
  84              		.loc 1 315 0
  85 0038 0B61     		str	r3, [r1, #16]
  86              	.LBB14:
  87              	.LBB15:
  88              		.loc 1 89 0
  89 003a CB68     		ldr	r3, [r1, #12]
  90 003c 23F08003 		bic	r3, r3, #128
  91 0040 CB60     		str	r3, [r1, #12]
  92 0042 10BD     		pop	{r4, pc}
  93              	.L2:
  94              	.LBE15:
  95              	.LBE14:
  96              		.loc 1 320 0
  97 0044 22F02002 		bic	r2, r2, #32
  98 0048 DA60     		str	r2, [r3, #12]
  99 004a 10BD     		pop	{r4, pc}
 100              	.L10:
 101              		.align	2
 102              	.L9:
 103 004c 00000000 		.word	.LANCHOR0
 104 0050 00280040 		.word	1073752064
 105 0054 FF007F00 		.word	8323327
 106              		.cfi_endproc
 107              	.LFE261:
 108              		.size	rtc_lld_init, .-rtc_lld_init
 109 0058 AFF30080 		.section	.text.rtc_lld_set_time,"ax",%progbits
 109      AFF30080 
 110              		.align	2
 111              		.p2align 4,,15
 112              		.global	rtc_lld_set_time
 113              		.thumb
ARM GAS  C:\Users\jo\AppData\Local\Temp\cczpOVhG.s 			page 3


 114              		.thumb_func
 115              		.type	rtc_lld_set_time, %function
 116              	rtc_lld_set_time:
 117              	.LFB262:
 118              		.loc 1 334 0
 119              		.cfi_startproc
 120              		@ args = 0, pretend = 0, frame = 8
 121              		@ frame_needed = 0, uses_anonymous_args = 0
 122              	.LVL1:
 123 0000 2DE9F04F 		push	{r4, r5, r6, r7, r8, r9, r10, fp, lr}
 124              		.cfi_def_cfa_offset 36
 125              		.cfi_offset 4, -36
 126              		.cfi_offset 5, -32
 127              		.cfi_offset 6, -28
 128              		.cfi_offset 7, -24
 129              		.cfi_offset 8, -20
 130              		.cfi_offset 9, -16
 131              		.cfi_offset 10, -12
 132              		.cfi_offset 11, -8
 133              		.cfi_offset 14, -4
 134              	.LBB24:
 135              	.LBB25:
 136              		.loc 1 143 0
 137 0004 4C68     		ldr	r4, [r1, #4]
 138 0006 454D     		ldr	r5, .L16
 139              	.LBE25:
 140              	.LBE24:
 141              	.LBB42:
 142              	.LBB43:
 143              		.loc 1 183 0
 144 0008 4A78     		ldrb	r2, [r1, #1]	@ zero_extendqisi2
 145              		.loc 1 177 0
 146 000a 0E78     		ldrb	r6, [r1]	@ zero_extendqisi2
 147              		.loc 1 189 0
 148 000c 91F802A0 		ldrb	r10, [r1, #2]	@ zero_extendqisi2
 149              	.LBE43:
 150              	.LBE42:
 151              	.LBB60:
 152              	.LBB26:
 153              		.loc 1 147 0
 154 0010 434B     		ldr	r3, .L16+4
 155              		.loc 1 143 0
 156 0012 C4F31A01 		ubfx	r1, r4, #0, #27
 157              	.LVL2:
 158 0016 85FB0141 		smull	r4, r1, r5, r1
 159 001a 8909     		lsrs	r1, r1, #6
 160              	.LVL3:
 161              	.LBE26:
 162              	.LBE60:
 163              		.loc 1 334 0
 164 001c 83B0     		sub	sp, sp, #12
 165              		.cfi_def_cfa_offset 48
 166              	.LBB61:
 167              	.LBB44:
 168              		.loc 1 183 0
 169 001e 1746     		mov	r7, r2
 170              	.LBE44:
ARM GAS  C:\Users\jo\AppData\Local\Temp\cczpOVhG.s 			page 4


 171              	.LBE61:
 172              	.LBB62:
 173              	.LBB27:
 174              		.loc 1 147 0
 175 0020 A3FB014C 		umull	r4, ip, r3, r1
 176              		.loc 1 148 0
 177 0024 3F4A     		ldr	r2, .L16+8
 178              	.LBE27:
 179              	.LBE62:
 180              	.LBB63:
 181              	.LBB45:
 182              		.loc 1 183 0
 183 0026 0197     		str	r7, [sp, #4]
 184 0028 07F00F0B 		and	fp, r7, #15
 185              	.LBE45:
 186              	.LBE63:
 187              	.LBB64:
 188              	.LBB28:
 189              		.loc 1 147 0
 190 002c 4FEADC0C 		lsr	ip, ip, #3
 191              	.LVL4:
 192              	.LBE28:
 193              	.LBE64:
 194              	.LBB65:
 195              	.LBB46:
 196              		.loc 1 184 0
 197 0030 A3FB0B59 		umull	r5, r9, r3, fp
 198              	.LBE46:
 199              	.LBE65:
 200              	.LBB66:
 201              	.LBB29:
 202              		.loc 1 148 0
 203 0034 A2FB0C57 		umull	r5, r7, r2, ip
 204 0038 BF08     		lsrs	r7, r7, #2
 205              	.LBE29:
 206              	.LBE66:
 207              	.LBB67:
 208              	.LBB47:
 209              		.loc 1 184 0
 210 003a 4FEAD909 		lsr	r9, r9, #3
 211              	.LBE47:
 212              	.LBE67:
 213              	.LBB68:
 214              	.LBB30:
 215              		.loc 1 152 0
 216 003e A3FB07E5 		umull	lr, r5, r3, r7
 217              	.LBE30:
 218              	.LBE68:
 219              	.LBB69:
 220              	.LBB48:
 221              		.loc 1 184 0
 222 0042 4FEA890E 		lsl	lr, r9, #2
 223              	.LBE48:
 224              	.LBE69:
 225              	.LBB70:
 226              	.LBB31:
 227              		.loc 1 152 0
ARM GAS  C:\Users\jo\AppData\Local\Temp\cczpOVhG.s 			page 5


 228 0046 ED08     		lsrs	r5, r5, #3
 229              	.LBE31:
 230              	.LBE70:
 231              	.LBB71:
 232              	.LBB49:
 233              		.loc 1 189 0
 234 0048 0AF01F0A 		and	r10, r10, #31
 235              		.loc 1 184 0
 236 004c CE44     		add	lr, lr, r9
 237              		.loc 1 178 0
 238 004e A3FB0684 		umull	r8, r4, r3, r6
 239              	.LBE49:
 240              	.LBE71:
 241              	.LBB72:
 242              	.LBB32:
 243              		.loc 1 154 0
 244 0052 A2FB0582 		umull	r8, r2, r2, r5
 245              	.LBE32:
 246              	.LBE72:
 247              	.LBB73:
 248              	.LBB50:
 249              		.loc 1 184 0
 250 0056 ABEB4E0E 		sub	lr, fp, lr, lsl #1
 251              		.loc 1 190 0
 252 005a A3FB0AB8 		umull	fp, r8, r3, r10
 253              	.LBE50:
 254              	.LBE73:
 255              	.LBB74:
 256              	.LBB33:
 257              		.loc 1 146 0
 258 005e 0CEB8C0B 		add	fp, ip, ip, lsl #2
 259 0062 A1EB4B01 		sub	r1, r1, fp, lsl #1
 260              	.LVL5:
 261              		.loc 1 148 0
 262 0066 07EB470B 		add	fp, r7, r7, lsl #1
 263              	.LBE33:
 264              	.LBE74:
 265              	.LBB75:
 266              	.LBB51:
 267              		.loc 1 178 0
 268 006a E408     		lsrs	r4, r4, #3
 269              	.LBE51:
 270              	.LBE75:
 271              	.LBB76:
 272              	.LBB34:
 273              		.loc 1 148 0
 274 006c ACEB4B0C 		sub	ip, ip, fp, lsl #1
 275              	.LVL6:
 276 0070 41EA0C11 		orr	r1, r1, ip, lsl #4
 277              	.LBE34:
 278              	.LBE76:
 279              	.LBB77:
 280              	.LBB52:
 281              		.loc 1 178 0
 282 0074 04EB840B 		add	fp, r4, r4, lsl #2
 283 0078 A6EB4B06 		sub	r6, r6, fp, lsl #1
 284              	.LBE52:
ARM GAS  C:\Users\jo\AppData\Local\Temp\cczpOVhG.s 			page 6


 285              	.LBE77:
 286              	.LBB78:
 287              	.LBB35:
 288              		.loc 1 148 0
 289 007c 0091     		str	r1, [sp]
 290              	.LBE35:
 291              	.LBE78:
 292              	.LBB79:
 293              	.LBB53:
 294              		.loc 1 190 0
 295 007e 4FEAD808 		lsr	r8, r8, #3
 296              		.loc 1 195 0
 297 0082 0199     		ldr	r1, [sp, #4]
 298              		.loc 1 184 0
 299 0084 4FEA0E2E 		lsl	lr, lr, #8
 300              	.LBE53:
 301              	.LBE79:
 302              	.LBB80:
 303              	.LBB36:
 304              		.loc 1 154 0
 305 0088 9208     		lsrs	r2, r2, #2
 306 008a 4EEA064E 		orr	lr, lr, r6, lsl #16
 307              	.LBE36:
 308              	.LBE80:
 309              	.LBB81:
 310              	.LBB54:
 311              		.loc 1 190 0
 312 008e 08EB8806 		add	r6, r8, r8, lsl #2
 313              	.LVL7:
 314              	.LBE54:
 315              	.LBE81:
 316              	.LBB82:
 317              	.LBB37:
 318              		.loc 1 152 0
 319 0092 05EB850C 		add	ip, r5, r5, lsl #2
 320              	.LBE37:
 321              	.LBE82:
 322              	.LBB83:
 323              	.LBB55:
 324              		.loc 1 190 0
 325 0096 AAEB460A 		sub	r10, r10, r6, lsl #1
 326              		.loc 1 180 0
 327 009a A3FB04B6 		umull	fp, r6, r3, r4
 328              	.LBE55:
 329              	.LBE83:
 330              	.LBB84:
 331              	.LBB38:
 332              		.loc 1 158 0
 333 009e A3FB02B3 		umull	fp, r3, r3, r2
 334              	.LBE38:
 335              	.LBE84:
 336              	.LBB85:
 337              	.LBB56:
 338              		.loc 1 195 0
 339 00a2 4FEA511B 		lsr	fp, r1, #5
 340              	.LBE56:
 341              	.LBE85:
ARM GAS  C:\Users\jo\AppData\Local\Temp\cczpOVhG.s 			page 7


 342              	.LBB86:
 343              	.LBB39:
 344              		.loc 1 152 0
 345 00a6 0099     		ldr	r1, [sp]
 346              		.loc 1 158 0
 347 00a8 DB08     		lsrs	r3, r3, #3
 348              		.loc 1 152 0
 349 00aa A7EB4C07 		sub	r7, r7, ip, lsl #1
 350              	.LVL8:
 351 00ae 4EEA0A0A 		orr	r10, lr, r10
 352              		.loc 1 154 0
 353 00b2 02EB420E 		add	lr, r2, r2, lsl #1
 354 00b6 A5EB4E05 		sub	r5, r5, lr, lsl #1
 355              		.loc 1 152 0
 356 00ba 41EA0721 		orr	r1, r1, r7, lsl #8
 357              	.LVL9:
 358              		.loc 1 158 0
 359 00be 03EB830E 		add	lr, r3, r3, lsl #2
 360              		.loc 1 154 0
 361 00c2 41EA0531 		orr	r1, r1, r5, lsl #12
 362              	.LVL10:
 363              		.loc 1 158 0
 364 00c6 A2EB4E02 		sub	r2, r2, lr, lsl #1
 365              	.LVL11:
 366              	.LBE39:
 367              	.LBE86:
 368              	.LBB87:
 369              	.LBB57:
 370              		.loc 1 180 0
 371 00ca F608     		lsrs	r6, r6, #3
 372 00cc 06EB8606 		add	r6, r6, r6, lsl #2
 373              	.LBE57:
 374              	.LBE87:
 375              	.LBB88:
 376              	.LBB40:
 377              		.loc 1 158 0
 378 00d0 41EA0242 		orr	r2, r1, r2, lsl #16
 379              	.LBE40:
 380              	.LBE88:
 381              	.LBB89:
 382              	.LBB58:
 383              		.loc 1 180 0
 384 00d4 A4EB4604 		sub	r4, r4, r6, lsl #1
 385              	.LBE58:
 386              	.LBE89:
 387              		.loc 1 334 0
 388 00d8 0746     		mov	r7, r0
 389              	.LBB90:
 390              	.LBB41:
 391              		.loc 1 160 0
 392 00da 42EA0356 		orr	r6, r2, r3, lsl #20
 393              	.LVL12:
 394              	.LBE41:
 395              	.LBE90:
 396              		.loc 1 342 0
 397 00de FFF7FEFF 		bl	chSysGetStatusAndLockX
 398              	.LVL13:
ARM GAS  C:\Users\jo\AppData\Local\Temp\cczpOVhG.s 			page 8


 399              	.LBB91:
 400              	.LBB92:
 401              		.loc 1 77 0
 402 00e2 114B     		ldr	r3, .L16+12
 403 00e4 4AEA4B3A 		orr	r10, r10, fp, lsl #13
 404 00e8 4AEA0455 		orr	r5, r10, r4, lsl #20
 405 00ec 1C68     		ldr	r4, [r3]
 406 00ee E368     		ldr	r3, [r4, #12]
 407 00f0 45EA0939 		orr	r9, r5, r9, lsl #12
 408 00f4 43F08003 		orr	r3, r3, #128
 409              	.LBE92:
 410              	.LBE91:
 411              	.LBB94:
 412              	.LBB59:
 413              		.loc 1 195 0
 414 00f8 49EA0815 		orr	r5, r9, r8, lsl #4
 415              	.LVL14:
 416              	.LBE59:
 417              	.LBE94:
 418              	.LBB95:
 419              	.LBB93:
 420              		.loc 1 77 0
 421 00fc E360     		str	r3, [r4, #12]
 422              	.L12:
 423              		.loc 1 78 0
 424 00fe E368     		ldr	r3, [r4, #12]
 425 0100 5B06     		lsls	r3, r3, #25
 426 0102 FCD5     		bpl	.L12
 427              	.LBE93:
 428              	.LBE95:
 429              		.loc 1 346 0
 430 0104 3B68     		ldr	r3, [r7]
 431 0106 1E60     		str	r6, [r3]
 432              		.loc 1 347 0
 433 0108 5D60     		str	r5, [r3, #4]
 434              	.LBB96:
 435              	.LBB97:
 436              		.loc 1 89 0
 437 010a E368     		ldr	r3, [r4, #12]
 438 010c 23F08003 		bic	r3, r3, #128
 439 0110 E360     		str	r3, [r4, #12]
 440              	.LBE97:
 441              	.LBE96:
 442              		.loc 1 352 0
 443 0112 03B0     		add	sp, sp, #12
 444              		.cfi_def_cfa_offset 36
 445              		@ sp needed
 446 0114 BDE8F04F 		pop	{r4, r5, r6, r7, r8, r9, r10, fp, lr}
 447              		.cfi_restore 14
 448              		.cfi_restore 11
 449              		.cfi_restore 10
 450              		.cfi_restore 9
 451              		.cfi_restore 8
 452              		.cfi_restore 7
 453              		.cfi_restore 6
 454              		.cfi_restore 5
 455              		.cfi_restore 4
ARM GAS  C:\Users\jo\AppData\Local\Temp\cczpOVhG.s 			page 9


 456              		.cfi_def_cfa_offset 0
 457              	.LVL15:
 458              		.loc 1 351 0
 459 0118 FFF7FEBF 		b	chSysRestoreStatusX
 460              	.LVL16:
 461              	.L17:
 462              		.align	2
 463              	.L16:
 464 011c D34D6210 		.word	274877907
 465 0120 CDCCCCCC 		.word	-858993459
 466 0124 ABAAAAAA 		.word	-1431655765
 467 0128 00000000 		.word	.LANCHOR0
 468              		.cfi_endproc
 469              	.LFE262:
 470              		.size	rtc_lld_set_time, .-rtc_lld_set_time
 471 012c AFF30080 		.section	.text.rtc_lld_get_time,"ax",%progbits
 472              		.align	2
 473              		.p2align 4,,15
 474              		.global	rtc_lld_get_time
 475              		.thumb
 476              		.thumb_func
 477              		.type	rtc_lld_get_time, %function
 478              	rtc_lld_get_time:
 479              	.LFB263:
 480              		.loc 1 363 0
 481              		.cfi_startproc
 482              		@ args = 0, pretend = 0, frame = 0
 483              		@ frame_needed = 0, uses_anonymous_args = 0
 484              	.LVL17:
 485 0000 2DE9F84F 		push	{r3, r4, r5, r6, r7, r8, r9, r10, fp, lr}
 486              		.cfi_def_cfa_offset 40
 487              		.cfi_offset 3, -40
 488              		.cfi_offset 4, -36
 489              		.cfi_offset 5, -32
 490              		.cfi_offset 6, -28
 491              		.cfi_offset 7, -24
 492              		.cfi_offset 8, -20
 493              		.cfi_offset 9, -16
 494              		.cfi_offset 10, -12
 495              		.cfi_offset 11, -8
 496              		.cfi_offset 14, -4
 497              		.loc 1 363 0
 498 0004 0446     		mov	r4, r0
 499 0006 0E46     		mov	r6, r1
 500              		.loc 1 372 0
 501 0008 FFF7FEFF 		bl	chSysGetStatusAndLockX
 502              	.LVL18:
 503 000c 2268     		ldr	r2, [r4]
 504              	.L19:
 505              		.loc 1 376 0 discriminator 1
 506 000e D368     		ldr	r3, [r2, #12]
 507 0010 9B06     		lsls	r3, r3, #26
 508 0012 FCD5     		bpl	.L19
 509              		.loc 1 379 0
 510 0014 976A     		ldr	r7, [r2, #40]
 511              	.LVL19:
 512              		.loc 1 381 0
ARM GAS  C:\Users\jo\AppData\Local\Temp\cczpOVhG.s 			page 10


 513 0016 1468     		ldr	r4, [r2]
 514              	.LVL20:
 515              		.loc 1 382 0
 516 0018 5568     		ldr	r5, [r2, #4]
 517              	.LVL21:
 518              		.loc 1 383 0
 519 001a D368     		ldr	r3, [r2, #12]
 520              	.LBB102:
 521              	.LBB103:
 522              		.loc 1 105 0
 523 001c DFF8C490 		ldr	r9, .L23+8
 524              	.LBE103:
 525              	.LBE102:
 526              		.loc 1 383 0
 527 0020 23F02003 		bic	r3, r3, #32
 528 0024 D360     		str	r3, [r2, #12]
 529              		.loc 1 386 0
 530 0026 FFF7FEFF 		bl	chSysRestoreStatusX
 531              	.LVL22:
 532              	.LBB110:
 533              	.LBB104:
 534              		.loc 1 104 0
 535 002a 2C48     		ldr	r0, .L23
 536              		.loc 1 103 0
 537 002c 2C4A     		ldr	r2, .L23+4
 538              	.LBE104:
 539              	.LBE110:
 540              	.LBB111:
 541              	.LBB112:
 542              		.loc 1 124 0
 543 002e 7178     		ldrb	r1, [r6, #1]	@ zero_extendqisi2
 544              	.LBE112:
 545              	.LBE111:
 546              		.loc 1 399 0
 547 0030 D6F804C0 		ldr	ip, [r6, #4]
 548              	.LBB123:
 549              	.LBB113:
 550              		.loc 1 126 0
 551 0034 96F802E0 		ldrb	lr, [r6, #2]	@ zero_extendqisi2
 552              	.LBE113:
 553              	.LBE123:
 554              	.LBB124:
 555              	.LBB105:
 556              		.loc 1 104 0
 557 0038 C4F30343 		ubfx	r3, r4, #16, #4
 558 003c 00FB03F3 		mul	r3, r0, r3
 559              		.loc 1 103 0
 560 0040 C4F30150 		ubfx	r0, r4, #20, #2
 561              	.LVL23:
 562              		.loc 1 104 0
 563 0044 02FB0033 		mla	r3, r2, r0, r3
 564              		.loc 1 108 0
 565 0048 4FF47A78 		mov	r8, #1000
 566 004c 04F00F02 		and	r2, r4, #15
 567              	.LVL24:
 568 0050 08FB0232 		mla	r2, r8, r2, r3
 569              	.LBE105:
ARM GAS  C:\Users\jo\AppData\Local\Temp\cczpOVhG.s 			page 11


 570              	.LBE124:
 571              	.LBB125:
 572              	.LBB114:
 573              		.loc 1 124 0
 574 0054 C5F3003A 		ubfx	r10, r5, #12, #1
 575              	.LBE114:
 576              	.LBE125:
 577              	.LBB126:
 578              	.LBB106:
 579              		.loc 1 105 0
 580 0058 C4F30233 		ubfx	r3, r4, #12, #3
 581 005c 09FB0323 		mla	r3, r9, r3, r2
 582              		.loc 1 106 0
 583 0060 C4F3032B 		ubfx	fp, r4, #8, #4
 584 0064 4EF66022 		movw	r2, #60000
 585              	.LBE106:
 586              	.LBE126:
 587              	.LBB127:
 588              	.LBB115:
 589              		.loc 1 124 0
 590 0068 4FEA8A09 		lsl	r9, r10, #2
 591              	.LBE115:
 592              	.LBE127:
 593              	.LBB128:
 594              	.LBB107:
 595              		.loc 1 107 0
 596 006c C4F30210 		ubfx	r0, r4, #4, #3
 597              	.LVL25:
 598 0070 02FB0B33 		mla	r3, r2, fp, r3
 599              	.LBE107:
 600              	.LBE128:
 601              	.LBB129:
 602              	.LBB116:
 603              		.loc 1 124 0
 604 0074 D144     		add	r9, r9, r10
 605              	.LBE116:
 606              	.LBE129:
 607              		.loc 1 395 0
 608 0076 3F04     		lsls	r7, r7, #16
 609              	.LVL26:
 610              	.LBB130:
 611              	.LBB108:
 612              		.loc 1 107 0
 613 0078 42F21074 		movw	r4, #10000
 614              	.LVL27:
 615              	.LBE108:
 616              	.LBE130:
 617              	.LBB131:
 618              	.LBB117:
 619              		.loc 1 124 0
 620 007c C5F3032A 		ubfx	r10, r5, #8, #4
 621              	.LBE117:
 622              	.LBE131:
 623              	.LBB132:
 624              	.LBB109:
 625              		.loc 1 108 0
 626 0080 04FB0034 		mla	r4, r4, r0, r3
ARM GAS  C:\Users\jo\AppData\Local\Temp\cczpOVhG.s 			page 12


 627              	.LBE109:
 628              	.LBE132:
 629              		.loc 1 395 0
 630 0084 3F0A     		lsrs	r7, r7, #8
 631              	.LBB133:
 632              	.LBB118:
 633              		.loc 1 124 0
 634 0086 0AEB4900 		add	r0, r10, r9, lsl #1
 635              		.loc 1 126 0
 636 008a C5F30113 		ubfx	r3, r5, #4, #2
 637              	.LBE118:
 638              	.LBE133:
 639              		.loc 1 395 0
 640 008e 08FB07F2 		mul	r2, r8, r7
 641              		.loc 1 399 0
 642 0092 24F07844 		bic	r4, r4, #-134217728
 643              	.LBB134:
 644              	.LBB119:
 645              		.loc 1 124 0
 646 0096 60F30301 		bfi	r1, r0, #0, #4
 647              		.loc 1 126 0
 648 009a 05F00F07 		and	r7, r5, #15
 649 009e 03EB8300 		add	r0, r3, r3, lsl #2
 650              		.loc 1 122 0
 651 00a2 C5F30353 		ubfx	r3, r5, #20, #4
 652              	.LBE119:
 653              	.LBE134:
 654              		.loc 1 399 0
 655 00a6 04EB1242 		add	r2, r4, r2, lsr #16
 656              	.LBB135:
 657              	.LBB120:
 658              		.loc 1 128 0
 659 00aa 4FEA5538 		lsr	r8, r5, #13
 660              		.loc 1 126 0
 661 00ae 07EB4004 		add	r4, r7, r0, lsl #1
 662              		.loc 1 122 0
 663 00b2 03EB8300 		add	r0, r3, r3, lsl #2
 664 00b6 C5F30343 		ubfx	r3, r5, #16, #4
 665              	.LBE120:
 666              	.LBE135:
 667              		.loc 1 399 0
 668 00ba 62F31A0C 		bfi	ip, r2, #0, #27
 669              	.LBB136:
 670              	.LBB121:
 671              		.loc 1 128 0
 672 00be 68F34711 		bfi	r1, r8, #5, #3
 673              		.loc 1 126 0
 674 00c2 64F3040E 		bfi	lr, r4, #0, #5
 675              		.loc 1 122 0
 676 00c6 03EB4003 		add	r3, r3, r0, lsl #1
 677              	.LBE121:
 678              	.LBE136:
 679              		.loc 1 399 0
 680 00ca C6F804C0 		str	ip, [r6, #4]
 681              	.LVL28:
 682              	.LBB137:
 683              	.LBB122:
ARM GAS  C:\Users\jo\AppData\Local\Temp\cczpOVhG.s 			page 13


 684              		.loc 1 128 0
 685 00ce 7170     		strb	r1, [r6, #1]
 686              		.loc 1 126 0
 687 00d0 86F802E0 		strb	lr, [r6, #2]
 688              		.loc 1 122 0
 689 00d4 3370     		strb	r3, [r6]
 690 00d6 BDE8F88F 		pop	{r3, r4, r5, r6, r7, r8, r9, r10, fp, pc}
 691              	.LVL29:
 692              	.L24:
 693 00da 00BF     		.align	2
 694              	.L23:
 695 00dc 80EE3600 		.word	3600000
 696 00e0 00512502 		.word	36000000
 697 00e4 C0270900 		.word	600000
 698              	.LBE122:
 699              	.LBE137:
 700              		.cfi_endproc
 701              	.LFE263:
 702              		.size	rtc_lld_get_time, .-rtc_lld_get_time
 703 00e8 AFF30080 		.section	.text.rtc_lld_set_alarm,"ax",%progbits
 703      AFF30080 
 704              		.align	2
 705              		.p2align 4,,15
 706              		.global	rtc_lld_set_alarm
 707              		.thumb
 708              		.thumb_func
 709              		.type	rtc_lld_set_alarm, %function
 710              	rtc_lld_set_alarm:
 711              	.LFB264:
 712              		.loc 1 420 0
 713              		.cfi_startproc
 714              		@ args = 0, pretend = 0, frame = 0
 715              		@ frame_needed = 0, uses_anonymous_args = 0
 716              	.LVL30:
 717 0000 70B5     		push	{r4, r5, r6, lr}
 718              		.cfi_def_cfa_offset 16
 719              		.cfi_offset 4, -16
 720              		.cfi_offset 5, -12
 721              		.cfi_offset 6, -8
 722              		.cfi_offset 14, -4
 723              		.loc 1 420 0
 724 0002 0E46     		mov	r6, r1
 725 0004 0546     		mov	r5, r0
 726 0006 1446     		mov	r4, r2
 727              		.loc 1 424 0
 728 0008 FFF7FEFF 		bl	chSysGetStatusAndLockX
 729              	.LVL31:
 730              		.loc 1 426 0
 731 000c BEB9     		cbnz	r6, .L26
 732              		.loc 1 427 0
 733 000e 002C     		cmp	r4, #0
 734 0010 36D0     		beq	.L27
 735              		.loc 1 428 0
 736 0012 2968     		ldr	r1, [r5]
 737 0014 8B68     		ldr	r3, [r1, #8]
 738 0016 23F48073 		bic	r3, r3, #256
 739 001a 8B60     		str	r3, [r1, #8]
ARM GAS  C:\Users\jo\AppData\Local\Temp\cczpOVhG.s 			page 14


 740              	.L28:
 741              		.loc 1 429 0 discriminator 1
 742 001c CB68     		ldr	r3, [r1, #12]
 743 001e DA07     		lsls	r2, r3, #31
 744 0020 FCD5     		bpl	.L28
 745              		.loc 1 431 0
 746 0022 2368     		ldr	r3, [r4]
 747 0024 CB61     		str	r3, [r1, #28]
 748              		.loc 1 432 0
 749 0026 8B68     		ldr	r3, [r1, #8]
 750 0028 43F48073 		orr	r3, r3, #256
 751 002c 8B60     		str	r3, [r1, #8]
 752              		.loc 1 433 0
 753 002e 8B68     		ldr	r3, [r1, #8]
 754 0030 43F48053 		orr	r3, r3, #4096
 755 0034 8B60     		str	r3, [r1, #8]
 756              	.L29:
 757              		.loc 1 459 0
 758 0036 BDE87040 		pop	{r4, r5, r6, lr}
 759              		.cfi_remember_state
 760              		.cfi_restore 14
 761              		.cfi_restore 6
 762              		.cfi_restore 5
 763              		.cfi_restore 4
 764              		.cfi_def_cfa_offset 0
 765              	.LVL32:
 766              		.loc 1 458 0
 767 003a FFF7FEBF 		b	chSysRestoreStatusX
 768              	.LVL33:
 769              	.L26:
 770              		.cfi_restore_state
 771              		.loc 1 442 0
 772 003e ACB1     		cbz	r4, .L30
 773              		.loc 1 443 0
 774 0040 2968     		ldr	r1, [r5]
 775 0042 8B68     		ldr	r3, [r1, #8]
 776 0044 23F40073 		bic	r3, r3, #512
 777 0048 8B60     		str	r3, [r1, #8]
 778              	.L31:
 779              		.loc 1 444 0 discriminator 1
 780 004a CB68     		ldr	r3, [r1, #12]
 781 004c 9B07     		lsls	r3, r3, #30
 782 004e FCD5     		bpl	.L31
 783              		.loc 1 446 0
 784 0050 2368     		ldr	r3, [r4]
 785 0052 0B62     		str	r3, [r1, #32]
 786              		.loc 1 447 0
 787 0054 8B68     		ldr	r3, [r1, #8]
 788 0056 43F40073 		orr	r3, r3, #512
 789 005a 8B60     		str	r3, [r1, #8]
 790              		.loc 1 448 0
 791 005c 8B68     		ldr	r3, [r1, #8]
 792 005e 43F40053 		orr	r3, r3, #8192
 793 0062 8B60     		str	r3, [r1, #8]
 794              		.loc 1 459 0
 795 0064 BDE87040 		pop	{r4, r5, r6, lr}
 796              		.cfi_remember_state
ARM GAS  C:\Users\jo\AppData\Local\Temp\cczpOVhG.s 			page 15


 797              		.cfi_restore 4
 798              		.cfi_restore 5
 799              		.cfi_restore 6
 800              		.cfi_restore 14
 801              		.cfi_def_cfa_offset 0
 802              	.LVL34:
 803              		.loc 1 458 0
 804 0068 FFF7FEBF 		b	chSysRestoreStatusX
 805              	.LVL35:
 806              	.L30:
 807              		.cfi_restore_state
 808              		.loc 1 451 0
 809 006c 2B68     		ldr	r3, [r5]
 810 006e 9A68     		ldr	r2, [r3, #8]
 811 0070 22F40052 		bic	r2, r2, #8192
 812 0074 9A60     		str	r2, [r3, #8]
 813              		.loc 1 452 0
 814 0076 9A68     		ldr	r2, [r3, #8]
 815 0078 22F40072 		bic	r2, r2, #512
 816 007c 9A60     		str	r2, [r3, #8]
 817 007e DAE7     		b	.L29
 818              	.L27:
 819              		.loc 1 436 0
 820 0080 2B68     		ldr	r3, [r5]
 821 0082 9A68     		ldr	r2, [r3, #8]
 822 0084 22F48052 		bic	r2, r2, #4096
 823 0088 9A60     		str	r2, [r3, #8]
 824              		.loc 1 437 0
 825 008a 9A68     		ldr	r2, [r3, #8]
 826 008c 22F48072 		bic	r2, r2, #256
 827 0090 9A60     		str	r2, [r3, #8]
 828 0092 D0E7     		b	.L29
 829              		.cfi_endproc
 830              	.LFE264:
 831              		.size	rtc_lld_set_alarm, .-rtc_lld_set_alarm
 832 0094 AFF30080 		.section	.text.rtc_lld_get_alarm,"ax",%progbits
 832      AFF30080 
 832      AFF30080 
 833              		.align	2
 834              		.p2align 4,,15
 835              		.global	rtc_lld_get_alarm
 836              		.thumb
 837              		.thumb_func
 838              		.type	rtc_lld_get_alarm, %function
 839              	rtc_lld_get_alarm:
 840              	.LFB265:
 841              		.loc 1 473 0
 842              		.cfi_startproc
 843              		@ args = 0, pretend = 0, frame = 0
 844              		@ frame_needed = 0, uses_anonymous_args = 0
 845              		@ link register save eliminated.
 846              	.LVL36:
 847              		.loc 1 476 0
 848 0000 0368     		ldr	r3, [r0]
 849              		.loc 1 475 0
 850 0002 11B1     		cbz	r1, .L40
 851              		.loc 1 479 0
ARM GAS  C:\Users\jo\AppData\Local\Temp\cczpOVhG.s 			page 16


 852 0004 1B6A     		ldr	r3, [r3, #32]
 853 0006 1360     		str	r3, [r2]
 854 0008 7047     		bx	lr
 855              	.L40:
 856              		.loc 1 476 0
 857 000a DB69     		ldr	r3, [r3, #28]
 858 000c 1360     		str	r3, [r2]
 859 000e 7047     		bx	lr
 860              		.cfi_endproc
 861              	.LFE265:
 862              		.size	rtc_lld_get_alarm, .-rtc_lld_get_alarm
 863              		.section	.text.rtcSTM32SetPeriodicWakeup,"ax",%progbits
 864              		.align	2
 865              		.p2align 4,,15
 866              		.global	rtcSTM32SetPeriodicWakeup
 867              		.thumb
 868              		.thumb_func
 869              		.type	rtcSTM32SetPeriodicWakeup, %function
 870              	rtcSTM32SetPeriodicWakeup:
 871              	.LFB266:
 872              		.loc 1 495 0
 873              		.cfi_startproc
 874              		@ args = 0, pretend = 0, frame = 0
 875              		@ frame_needed = 0, uses_anonymous_args = 0
 876              	.LVL37:
 877 0000 70B5     		push	{r4, r5, r6, lr}
 878              		.cfi_def_cfa_offset 16
 879              		.cfi_offset 4, -16
 880              		.cfi_offset 5, -12
 881              		.cfi_offset 6, -8
 882              		.cfi_offset 14, -4
 883              		.loc 1 495 0
 884 0002 0D46     		mov	r5, r1
 885 0004 0646     		mov	r6, r0
 886              		.loc 1 499 0
 887 0006 FFF7FEFF 		bl	chSysGetStatusAndLockX
 888              	.LVL38:
 889 000a 0446     		mov	r4, r0
 890              	.LVL39:
 891              		.loc 1 501 0
 892 000c F5B1     		cbz	r5, .L42
 893              		.loc 1 502 0
 894 000e 2B68     		ldr	r3, [r5]
 895 0010 B3F5403F 		cmp	r3, #196608
 896 0014 28D0     		beq	.L50
 897 0016 1946     		mov	r1, r3
 898              	.LVL40:
 899              	.L43:
 900              		.loc 1 504 0
 901 0018 3268     		ldr	r2, [r6]
 902 001a 9368     		ldr	r3, [r2, #8]
 903 001c 23F48063 		bic	r3, r3, #1024
 904 0020 9360     		str	r3, [r2, #8]
 905              	.L44:
 906              		.loc 1 505 0 discriminator 1
 907 0022 D368     		ldr	r3, [r2, #12]
 908 0024 5B07     		lsls	r3, r3, #29
ARM GAS  C:\Users\jo\AppData\Local\Temp\cczpOVhG.s 			page 17


 909 0026 FCD5     		bpl	.L44
 910              		.loc 1 507 0
 911 0028 8BB2     		uxth	r3, r1
 912              		.loc 1 508 0
 913 002a C1F30241 		ubfx	r1, r1, #16, #3
 914              		.loc 1 507 0
 915 002e 5361     		str	r3, [r2, #20]
 916              		.loc 1 508 0
 917 0030 9160     		str	r1, [r2, #8]
 918              		.loc 1 509 0
 919 0032 9368     		ldr	r3, [r2, #8]
 920 0034 43F48043 		orr	r3, r3, #16384
 921 0038 9360     		str	r3, [r2, #8]
 922              		.loc 1 510 0
 923 003a 9368     		ldr	r3, [r2, #8]
 924 003c 43F48063 		orr	r3, r3, #1024
 925              		.loc 1 518 0
 926 0040 2046     		mov	r0, r4
 927              		.loc 1 510 0
 928 0042 9360     		str	r3, [r2, #8]
 929              		.loc 1 519 0
 930 0044 BDE87040 		pop	{r4, r5, r6, lr}
 931              		.cfi_remember_state
 932              		.cfi_restore 14
 933              		.cfi_restore 6
 934              		.cfi_restore 5
 935              		.cfi_restore 4
 936              		.cfi_def_cfa_offset 0
 937              	.LVL41:
 938              		.loc 1 518 0
 939 0048 FFF7FEBF 		b	chSysRestoreStatusX
 940              	.LVL42:
 941              	.L42:
 942              		.cfi_restore_state
 943              		.loc 1 513 0
 944 004c 3368     		ldr	r3, [r6]
 945 004e 9A68     		ldr	r2, [r3, #8]
 946 0050 22F48042 		bic	r2, r2, #16384
 947 0054 9A60     		str	r2, [r3, #8]
 948              		.loc 1 514 0
 949 0056 9A68     		ldr	r2, [r3, #8]
 950 0058 22F48062 		bic	r2, r2, #1024
 951              		.loc 1 518 0
 952 005c 2046     		mov	r0, r4
 953              	.LVL43:
 954              		.loc 1 514 0
 955 005e 9A60     		str	r2, [r3, #8]
 956              		.loc 1 519 0
 957 0060 BDE87040 		pop	{r4, r5, r6, lr}
 958              		.cfi_remember_state
 959              		.cfi_restore 4
 960              		.cfi_restore 5
 961              		.cfi_restore 6
 962              		.cfi_restore 14
 963              		.cfi_def_cfa_offset 0
 964              	.LVL44:
 965              		.loc 1 518 0
ARM GAS  C:\Users\jo\AppData\Local\Temp\cczpOVhG.s 			page 18


 966 0064 FFF7FEBF 		b	chSysRestoreStatusX
 967              	.LVL45:
 968              	.L50:
 969              		.cfi_restore_state
 970              		.loc 1 502 0 discriminator 1
 971 0068 0248     		ldr	r0, .L51
 972              	.LVL46:
 973 006a FFF7FEFF 		bl	chSysHalt
 974              	.LVL47:
 975 006e 2968     		ldr	r1, [r5]
 976 0070 D2E7     		b	.L43
 977              	.L52:
 978 0072 00BF     		.align	2
 979              	.L51:
 980 0074 00000000 		.word	.LANCHOR1
 981              		.cfi_endproc
 982              	.LFE266:
 983              		.size	rtcSTM32SetPeriodicWakeup, .-rtcSTM32SetPeriodicWakeup
 984 0078 AFF30080 		.section	.text.rtcSTM32GetPeriodicWakeup,"ax",%progbits
 984      AFF30080 
 985              		.align	2
 986              		.p2align 4,,15
 987              		.global	rtcSTM32GetPeriodicWakeup
 988              		.thumb
 989              		.thumb_func
 990              		.type	rtcSTM32GetPeriodicWakeup, %function
 991              	rtcSTM32GetPeriodicWakeup:
 992              	.LFB267:
 993              		.loc 1 531 0
 994              		.cfi_startproc
 995              		@ args = 0, pretend = 0, frame = 0
 996              		@ frame_needed = 0, uses_anonymous_args = 0
 997              	.LVL48:
 998 0000 38B5     		push	{r3, r4, r5, lr}
 999              		.cfi_def_cfa_offset 16
 1000              		.cfi_offset 3, -16
 1001              		.cfi_offset 4, -12
 1002              		.cfi_offset 5, -8
 1003              		.cfi_offset 14, -4
 1004              		.loc 1 531 0
 1005 0002 0546     		mov	r5, r0
 1006 0004 0C46     		mov	r4, r1
 1007              		.loc 1 535 0
 1008 0006 FFF7FEFF 		bl	chSysGetStatusAndLockX
 1009              	.LVL49:
 1010              		.loc 1 538 0
 1011 000a 2B68     		ldr	r3, [r5]
 1012 000c 5A69     		ldr	r2, [r3, #20]
 1013              		.loc 1 539 0
 1014 000e 9B68     		ldr	r3, [r3, #8]
 1015 0010 03F00703 		and	r3, r3, #7
 1016 0014 42EA0343 		orr	r3, r2, r3, lsl #16
 1017 0018 2360     		str	r3, [r4]
 1018              		.loc 1 543 0
 1019 001a BDE83840 		pop	{r3, r4, r5, lr}
 1020              		.cfi_restore 14
 1021              		.cfi_restore 5
ARM GAS  C:\Users\jo\AppData\Local\Temp\cczpOVhG.s 			page 19


 1022              		.cfi_restore 4
 1023              		.cfi_restore 3
 1024              		.cfi_def_cfa_offset 0
 1025              	.LVL50:
 1026              		.loc 1 542 0
 1027 001e FFF7FEBF 		b	chSysRestoreStatusX
 1028              	.LVL51:
 1029              		.cfi_endproc
 1030              	.LFE267:
 1031              		.size	rtcSTM32GetPeriodicWakeup, .-rtcSTM32GetPeriodicWakeup
 1032              		.global	RTCD1
 1033 0022 00BFAFF3 		.section	.bss.RTCD1,"aw",%nobits
 1033      0080AFF3 
 1033      0080AFF3 
 1033      0080
 1034              		.align	2
 1035              		.set	.LANCHOR0,. + 0
 1036              		.type	RTCD1, %object
 1037              		.size	RTCD1, 4
 1038              	RTCD1:
 1039 0000 00000000 		.space	4
 1040              		.section	.rodata.__func__.8256,"a",%progbits
 1041              		.align	2
 1042              		.set	.LANCHOR1,. + 0
 1043              		.type	__func__.8256, %object
 1044              		.size	__func__.8256, 26
 1045              	__func__.8256:
 1046 0000 72746353 		.ascii	"rtcSTM32SetPeriodicWakeup\000"
 1046      544D3332 
 1046      53657450 
 1046      6572696F 
 1046      64696357 
 1047 001a 0000     		.text
 1048              	.Letext0:
 1049              		.file 2 "c:\\program files\\gnu tools arm embedded\\4.9 2014q4\\lib\\gcc\\arm-none-eabi\\4.9.3\\in
 1050              		.file 3 "c:\\program files\\gnu tools arm embedded\\4.9 2014q4\\arm-none-eabi\\include\\machine\\_
 1051              		.file 4 "c:\\program files\\gnu tools arm embedded\\4.9 2014q4\\arm-none-eabi\\include\\stdint.h"
 1052              		.file 5 "../../../os/rt/ports/ARMCMx/compilers/GCC/chtypes.h"
 1053              		.file 6 "../../../os/rt/include/chsystypes.h"
 1054              		.file 7 "../../../os/rt/include/chschd.h"
 1055              		.file 8 "../../../os/ext/CMSIS/ST/stm32f407xx.h"
 1056              		.file 9 "../../../os/rt/ports/ARMCMx/chcore.h"
 1057              		.file 10 "../../../os/rt/ports/ARMCMx/chcore_v7m.h"
 1058              		.file 11 "../../../os/rt/include/chdebug.h"
 1059              		.file 12 "../../../os/rt/include/chtm.h"
 1060              		.file 13 "../../../os/rt/include/chstats.h"
 1061              		.file 14 "../../../os/rt/include/chmtx.h"
 1062              		.file 15 "../../../os/hal/include/rtc.h"
 1063              		.file 16 "../../../os/hal/ports/STM32/LLD/RTCv2/rtc_lld.h"
 1064              		.file 17 "../../../os/ext/CMSIS/include/core_cm4.h"
 1065              		.file 18 "../../../os/rt/include/chsys.h"