ARM GAS  C:\Users\jo\AppData\Local\Temp\cc1S6wRf.s 			page 1


   1              		.syntax unified
   2              		.cpu cortex-m4
   3              		.fpu softvfp
   4              		.eabi_attribute 20, 1
   5              		.eabi_attribute 21, 1
   6              		.eabi_attribute 23, 3
   7              		.eabi_attribute 24, 1
   8              		.eabi_attribute 25, 1
   9              		.eabi_attribute 26, 1
  10              		.eabi_attribute 30, 2
  11              		.eabi_attribute 34, 1
  12              		.eabi_attribute 18, 4
  13              		.thumb
  14              		.file	"serial.c"
  15              		.text
  16              	.Ltext0:
  17              		.cfi_sections	.debug_frame
  18              		.section	.text.readt,"ax",%progbits
  19              		.align	2
  20              		.p2align 4,,15
  21              		.thumb
  22              		.thumb_func
  23              		.type	readt, %function
  24              	readt:
  25              	.LFB262:
  26              		.file 1 "../../../os/hal/src/serial.c"
  27              		.loc 1 90 0
  28              		.cfi_startproc
  29              		@ args = 0, pretend = 0, frame = 0
  30              		@ frame_needed = 0, uses_anonymous_args = 0
  31              		@ link register save eliminated.
  32              	.LVL0:
  33              		.loc 1 92 0
  34 0000 0C30     		adds	r0, r0, #12
  35              	.LVL1:
  36 0002 FFF7FEBF 		b	chIQReadTimeout
  37              	.LVL2:
  38              		.cfi_endproc
  39              	.LFE262:
  40              		.size	readt, .-readt
  41 0006 00BFAFF3 		.section	.text.read,"ax",%progbits
  41      0080AFF3 
  41      0080
  42              		.align	2
  43              		.p2align 4,,15
  44              		.thumb
  45              		.thumb_func
  46              		.type	read, %function
  47              	read:
  48              	.LFB256:
  49              		.loc 1 59 0
  50              		.cfi_startproc
  51              		@ args = 0, pretend = 0, frame = 0
  52              		@ frame_needed = 0, uses_anonymous_args = 0
  53              		@ link register save eliminated.
  54              	.LVL3:
  55              		.loc 1 61 0
ARM GAS  C:\Users\jo\AppData\Local\Temp\cc1S6wRf.s 			page 2


  56 0000 0C30     		adds	r0, r0, #12
  57              	.LVL4:
  58 0002 4FF0FF33 		mov	r3, #-1
  59 0006 FFF7FEBF 		b	chIQReadTimeout
  60              	.LVL5:
  61              		.cfi_endproc
  62              	.LFE256:
  63              		.size	read, .-read
  64 000a 00BFAFF3 		.section	.text.writet,"ax",%progbits
  64      0080
  65              		.align	2
  66              		.p2align 4,,15
  67              		.thumb
  68              		.thumb_func
  69              		.type	writet, %function
  70              	writet:
  71              	.LFB261:
  72              		.loc 1 85 0
  73              		.cfi_startproc
  74              		@ args = 0, pretend = 0, frame = 0
  75              		@ frame_needed = 0, uses_anonymous_args = 0
  76              		@ link register save eliminated.
  77              	.LVL6:
  78              		.loc 1 87 0
  79 0000 3030     		adds	r0, r0, #48
  80              	.LVL7:
  81 0002 FFF7FEBF 		b	chOQWriteTimeout
  82              	.LVL8:
  83              		.cfi_endproc
  84              	.LFE261:
  85              		.size	writet, .-writet
  86 0006 00BFAFF3 		.section	.text.write,"ax",%progbits
  86      0080AFF3 
  86      0080
  87              		.align	2
  88              		.p2align 4,,15
  89              		.thumb
  90              		.thumb_func
  91              		.type	write, %function
  92              	write:
  93              	.LFB255:
  94              		.loc 1 53 0
  95              		.cfi_startproc
  96              		@ args = 0, pretend = 0, frame = 0
  97              		@ frame_needed = 0, uses_anonymous_args = 0
  98              		@ link register save eliminated.
  99              	.LVL9:
 100              		.loc 1 55 0
 101 0000 3030     		adds	r0, r0, #48
 102              	.LVL10:
 103 0002 4FF0FF33 		mov	r3, #-1
 104 0006 FFF7FEBF 		b	chOQWriteTimeout
 105              	.LVL11:
 106              		.cfi_endproc
 107              	.LFE255:
 108              		.size	write, .-write
 109 000a 00BFAFF3 		.section	.text.gett,"ax",%progbits
ARM GAS  C:\Users\jo\AppData\Local\Temp\cc1S6wRf.s 			page 3


 109      0080
 110              		.align	2
 111              		.p2align 4,,15
 112              		.thumb
 113              		.thumb_func
 114              		.type	gett, %function
 115              	gett:
 116              	.LFB260:
 117              		.loc 1 80 0
 118              		.cfi_startproc
 119              		@ args = 0, pretend = 0, frame = 0
 120              		@ frame_needed = 0, uses_anonymous_args = 0
 121              		@ link register save eliminated.
 122              	.LVL12:
 123              		.loc 1 82 0
 124 0000 0C30     		adds	r0, r0, #12
 125              	.LVL13:
 126 0002 FFF7FEBF 		b	chIQGetTimeout
 127              	.LVL14:
 128              		.cfi_endproc
 129              	.LFE260:
 130              		.size	gett, .-gett
 131 0006 00BFAFF3 		.section	.text.get,"ax",%progbits
 131      0080AFF3 
 131      0080
 132              		.align	2
 133              		.p2align 4,,15
 134              		.thumb
 135              		.thumb_func
 136              		.type	get, %function
 137              	get:
 138              	.LFB258:
 139              		.loc 1 70 0
 140              		.cfi_startproc
 141              		@ args = 0, pretend = 0, frame = 0
 142              		@ frame_needed = 0, uses_anonymous_args = 0
 143              		@ link register save eliminated.
 144              	.LVL15:
 145              		.loc 1 72 0
 146 0000 0C30     		adds	r0, r0, #12
 147              	.LVL16:
 148 0002 4FF0FF31 		mov	r1, #-1
 149 0006 FFF7FEBF 		b	chIQGetTimeout
 150              	.LVL17:
 151              		.cfi_endproc
 152              	.LFE258:
 153              		.size	get, .-get
 154 000a 00BFAFF3 		.section	.text.putt,"ax",%progbits
 154      0080
 155              		.align	2
 156              		.p2align 4,,15
 157              		.thumb
 158              		.thumb_func
 159              		.type	putt, %function
 160              	putt:
 161              	.LFB259:
 162              		.loc 1 75 0
ARM GAS  C:\Users\jo\AppData\Local\Temp\cc1S6wRf.s 			page 4


 163              		.cfi_startproc
 164              		@ args = 0, pretend = 0, frame = 0
 165              		@ frame_needed = 0, uses_anonymous_args = 0
 166              		@ link register save eliminated.
 167              	.LVL18:
 168              		.loc 1 77 0
 169 0000 3030     		adds	r0, r0, #48
 170              	.LVL19:
 171 0002 FFF7FEBF 		b	chOQPutTimeout
 172              	.LVL20:
 173              		.cfi_endproc
 174              	.LFE259:
 175              		.size	putt, .-putt
 176 0006 00BFAFF3 		.section	.text.put,"ax",%progbits
 176      0080AFF3 
 176      0080
 177              		.align	2
 178              		.p2align 4,,15
 179              		.thumb
 180              		.thumb_func
 181              		.type	put, %function
 182              	put:
 183              	.LFB257:
 184              		.loc 1 65 0
 185              		.cfi_startproc
 186              		@ args = 0, pretend = 0, frame = 0
 187              		@ frame_needed = 0, uses_anonymous_args = 0
 188              		@ link register save eliminated.
 189              	.LVL21:
 190              		.loc 1 67 0
 191 0000 3030     		adds	r0, r0, #48
 192              	.LVL22:
 193 0002 4FF0FF32 		mov	r2, #-1
 194 0006 FFF7FEBF 		b	chOQPutTimeout
 195              	.LVL23:
 196              		.cfi_endproc
 197              	.LFE257:
 198              		.size	put, .-put
 199 000a 00BFAFF3 		.section	.text.sdInit,"ax",%progbits
 199      0080
 200              		.align	2
 201              		.p2align 4,,15
 202              		.global	sdInit
 203              		.thumb
 204              		.thumb_func
 205              		.type	sdInit, %function
 206              	sdInit:
 207              	.LFB263:
 208              		.loc 1 111 0
 209              		.cfi_startproc
 210              		@ args = 0, pretend = 0, frame = 0
 211              		@ frame_needed = 0, uses_anonymous_args = 0
 212              		@ link register save eliminated.
 213              		.loc 1 113 0
 214 0000 FFF7FEBF 		b	sd_lld_init
 215              	.LVL24:
 216              		.cfi_endproc
ARM GAS  C:\Users\jo\AppData\Local\Temp\cc1S6wRf.s 			page 5


 217              	.LFE263:
 218              		.size	sdInit, .-sdInit
 219 0004 AFF30080 		.section	.text.sdObjectInit,"ax",%progbits
 219      AFF30080 
 219      AFF30080 
 220              		.align	2
 221              		.p2align 4,,15
 222              		.global	sdObjectInit
 223              		.thumb
 224              		.thumb_func
 225              		.type	sdObjectInit, %function
 226              	sdObjectInit:
 227              	.LFB264:
 228              		.loc 1 131 0
 229              		.cfi_startproc
 230              		@ args = 0, pretend = 0, frame = 0
 231              		@ frame_needed = 0, uses_anonymous_args = 0
 232              	.LVL25:
 233 0000 70B5     		push	{r4, r5, r6, lr}
 234              		.cfi_def_cfa_offset 16
 235              		.cfi_offset 4, -16
 236              		.cfi_offset 5, -12
 237              		.cfi_offset 6, -8
 238              		.cfi_offset 14, -4
 239              		.loc 1 133 0
 240 0002 0E4B     		ldr	r3, .L12
 241              		.loc 1 131 0
 242 0004 0446     		mov	r4, r0
 243 0006 82B0     		sub	sp, sp, #8
 244              		.cfi_def_cfa_offset 24
 245              		.loc 1 133 0
 246 0008 40F8043B 		str	r3, [r0], #4
 247              	.LVL26:
 248              		.loc 1 135 0
 249 000c 0126     		movs	r6, #1
 250              		.loc 1 136 0
 251 000e 0094     		str	r4, [sp]
 252              		.loc 1 131 0
 253 0010 0B46     		mov	r3, r1
 254 0012 1546     		mov	r5, r2
 255              	.LBB53:
 256              	.LBB54:
 257              	.LBB55:
 258              		.file 2 "../../../os/rt/include/chevents.h"
 259              		.loc 2 172 0
 260 0014 6060     		str	r0, [r4, #4]
 261              	.LBE55:
 262              	.LBE54:
 263              	.LBE53:
 264              		.loc 1 136 0
 265 0016 04F15401 		add	r1, r4, #84
 266              	.LVL27:
 267 001a 04F10C00 		add	r0, r4, #12
 268              	.LVL28:
 269              		.loc 1 135 0
 270 001e 2672     		strb	r6, [r4, #8]
 271              		.loc 1 136 0
ARM GAS  C:\Users\jo\AppData\Local\Temp\cc1S6wRf.s 			page 6


 272 0020 1022     		movs	r2, #16
 273              	.LVL29:
 274 0022 FFF7FEFF 		bl	chIQObjectInit
 275              	.LVL30:
 276              		.loc 1 137 0
 277 0026 0094     		str	r4, [sp]
 278 0028 2B46     		mov	r3, r5
 279 002a 04F13000 		add	r0, r4, #48
 280 002e 04F16401 		add	r1, r4, #100
 281 0032 1022     		movs	r2, #16
 282 0034 FFF7FEFF 		bl	chOQObjectInit
 283              	.LVL31:
 284              		.loc 1 138 0
 285 0038 02B0     		add	sp, sp, #8
 286              		.cfi_def_cfa_offset 16
 287              		@ sp needed
 288 003a 70BD     		pop	{r4, r5, r6, pc}
 289              	.LVL32:
 290              	.L13:
 291              		.align	2
 292              	.L12:
 293 003c 00000000 		.word	.LANCHOR0
 294              		.cfi_endproc
 295              	.LFE264:
 296              		.size	sdObjectInit, .-sdObjectInit
 297              		.section	.text.sdStart,"ax",%progbits
 298              		.align	2
 299              		.p2align 4,,15
 300              		.global	sdStart
 301              		.thumb
 302              		.thumb_func
 303              		.type	sdStart, %function
 304              	sdStart:
 305              	.LFB265:
 306              		.loc 1 150 0
 307              		.cfi_startproc
 308              		@ args = 0, pretend = 0, frame = 0
 309              		@ frame_needed = 0, uses_anonymous_args = 0
 310              	.LVL33:
 311 0000 38B5     		push	{r3, r4, r5, lr}
 312              		.cfi_def_cfa_offset 16
 313              		.cfi_offset 3, -16
 314              		.cfi_offset 4, -12
 315              		.cfi_offset 5, -8
 316              		.cfi_offset 14, -4
 317              		.loc 1 150 0
 318 0002 0D46     		mov	r5, r1
 319              		.loc 1 152 0
 320 0004 0446     		mov	r4, r0
 321 0006 68B3     		cbz	r0, .L20
 322              	.LVL34:
 323              	.L15:
 324              	.LBB69:
 325              	.LBB70:
 326              	.LBB71:
 327              	.LBB72:
 328              	.LBB73:
ARM GAS  C:\Users\jo\AppData\Local\Temp\cc1S6wRf.s 			page 7


 329              	.LBB74:
 330              		.file 3 "../../../os/ext/CMSIS/include/core_cmFunc.h"
 331              		.loc 3 546 0
 332 0008 2023     		movs	r3, #32
 333              	@ 546 "../../../os/ext/CMSIS/include/core_cmFunc.h" 1
 334 000a 83F31188 		MSR basepri, r3
 335              	@ 0 "" 2
 336              		.thumb
 337              	.LBE74:
 338              	.LBE73:
 339              	.LBE72:
 340              		.file 4 "../../../os/rt/include/chsys.h"
 341              		.loc 4 300 0
 342 000e FFF7FEFF 		bl	_stats_start_measure_crit_thd
 343              	.LVL35:
 344              		.loc 4 301 0
 345 0012 FFF7FEFF 		bl	_dbg_check_lock
 346              	.LVL36:
 347              	.LBE71:
 348              	.LBE70:
 349              	.LBE69:
 350              		.loc 1 155 0
 351 0016 237A     		ldrb	r3, [r4, #8]	@ zero_extendqisi2
 352 0018 013B     		subs	r3, r3, #1
 353 001a 012B     		cmp	r3, #1
 354 001c 06D9     		bls	.L16
 355              		.loc 1 155 0 is_stmt 0 discriminator 1
 356 001e 1348     		ldr	r0, .L21
 357 0020 FFF7FEFF 		bl	puts
 358              	.LVL37:
 359              	@ 155 "../../../os/hal/src/serial.c" 1
 360 0024 00BE     		BKPT #0
 361              	
 362              	@ 0 "" 2
 363              		.thumb
 364 0026 1248     		ldr	r0, .L21+4
 365 0028 FFF7FEFF 		bl	chSysHalt
 366              	.LVL38:
 367              	.L16:
 368              		.loc 1 157 0 is_stmt 1
 369 002c 2946     		mov	r1, r5
 370 002e 2046     		mov	r0, r4
 371 0030 FFF7FEFF 		bl	sd_lld_start
 372              	.LVL39:
 373              		.loc 1 158 0
 374 0034 0223     		movs	r3, #2
 375 0036 2372     		strb	r3, [r4, #8]
 376              	.LBB75:
 377              	.LBB76:
 378              	.LBB77:
 379              		.loc 4 311 0
 380 0038 FFF7FEFF 		bl	_dbg_check_unlock
 381              	.LVL40:
 382              		.loc 4 312 0
 383 003c FFF7FEFF 		bl	_stats_stop_measure_crit_thd
 384              	.LVL41:
 385              		.loc 4 318 0
ARM GAS  C:\Users\jo\AppData\Local\Temp\cc1S6wRf.s 			page 8


 386 0040 0C4B     		ldr	r3, .L21+8
 387 0042 9A69     		ldr	r2, [r3, #24]
 388 0044 1B68     		ldr	r3, [r3]
 389 0046 9268     		ldr	r2, [r2, #8]
 390 0048 9B68     		ldr	r3, [r3, #8]
 391 004a 9A42     		cmp	r2, r3
 392 004c 06D2     		bcs	.L17
 393 004e 0A48     		ldr	r0, .L21+12
 394 0050 FFF7FEFF 		bl	puts
 395              	.LVL42:
 396              	@ 318 "../../../os/rt/include/chsys.h" 1
 397 0054 00BE     		BKPT #0
 398              	
 399              	@ 0 "" 2
 400              		.thumb
 401 0056 0948     		ldr	r0, .L21+16
 402 0058 FFF7FEFF 		bl	chSysHalt
 403              	.LVL43:
 404              	.L17:
 405              	.LBB78:
 406              	.LBB79:
 407              	.LBB80:
 408              		.loc 3 546 0
 409 005c 0023     		movs	r3, #0
 410              	@ 546 "../../../os/ext/CMSIS/include/core_cmFunc.h" 1
 411 005e 83F31188 		MSR basepri, r3
 412              	@ 0 "" 2
 413              		.thumb
 414 0062 38BD     		pop	{r3, r4, r5, pc}
 415              	.LVL44:
 416              	.L20:
 417              	.LBE80:
 418              	.LBE79:
 419              	.LBE78:
 420              	.LBE77:
 421              	.LBE76:
 422              	.LBE75:
 423              		.loc 1 152 0 discriminator 1
 424 0064 0248     		ldr	r0, .L21+4
 425              	.LVL45:
 426 0066 FFF7FEFF 		bl	chSysHalt
 427              	.LVL46:
 428 006a CDE7     		b	.L15
 429              	.L22:
 430              		.align	2
 431              	.L21:
 432 006c 00000000 		.word	.LC0
 433 0070 00000000 		.word	.LANCHOR1
 434 0074 00000000 		.word	ch
 435 0078 10000000 		.word	.LC1
 436 007c 00000000 		.word	.LANCHOR2
 437              		.cfi_endproc
 438              	.LFE265:
 439              		.size	sdStart, .-sdStart
 440              		.section	.text.sdStop,"ax",%progbits
 441              		.align	2
 442              		.p2align 4,,15
ARM GAS  C:\Users\jo\AppData\Local\Temp\cc1S6wRf.s 			page 9


 443              		.global	sdStop
 444              		.thumb
 445              		.thumb_func
 446              		.type	sdStop, %function
 447              	sdStop:
 448              	.LFB266:
 449              		.loc 1 171 0
 450              		.cfi_startproc
 451              		@ args = 0, pretend = 0, frame = 0
 452              		@ frame_needed = 0, uses_anonymous_args = 0
 453              	.LVL47:
 454 0000 10B5     		push	{r4, lr}
 455              		.cfi_def_cfa_offset 8
 456              		.cfi_offset 4, -8
 457              		.cfi_offset 14, -4
 458              		.loc 1 173 0
 459 0002 0446     		mov	r4, r0
 460 0004 0028     		cmp	r0, #0
 461 0006 36D0     		beq	.L28
 462              	.LVL48:
 463              	.L24:
 464              	.LBB96:
 465              	.LBB97:
 466              	.LBB98:
 467              	.LBB99:
 468              	.LBB100:
 469              	.LBB101:
 470              		.loc 3 546 0
 471 0008 2023     		movs	r3, #32
 472              	@ 546 "../../../os/ext/CMSIS/include/core_cmFunc.h" 1
 473 000a 83F31188 		MSR basepri, r3
 474              	@ 0 "" 2
 475              		.thumb
 476              	.LBE101:
 477              	.LBE100:
 478              	.LBE99:
 479              		.loc 4 300 0
 480 000e FFF7FEFF 		bl	_stats_start_measure_crit_thd
 481              	.LVL49:
 482              		.loc 4 301 0
 483 0012 FFF7FEFF 		bl	_dbg_check_lock
 484              	.LVL50:
 485              	.LBE98:
 486              	.LBE97:
 487              	.LBE96:
 488              		.loc 1 176 0
 489 0016 237A     		ldrb	r3, [r4, #8]	@ zero_extendqisi2
 490 0018 013B     		subs	r3, r3, #1
 491 001a 012B     		cmp	r3, #1
 492 001c 06D9     		bls	.L25
 493              		.loc 1 176 0 is_stmt 0 discriminator 1
 494 001e 1848     		ldr	r0, .L29
 495 0020 FFF7FEFF 		bl	puts
 496              	.LVL51:
 497              	@ 176 "../../../os/hal/src/serial.c" 1
 498 0024 00BE     		BKPT #0
 499              	
ARM GAS  C:\Users\jo\AppData\Local\Temp\cc1S6wRf.s 			page 10


 500              	@ 0 "" 2
 501              		.thumb
 502 0026 1748     		ldr	r0, .L29+4
 503 0028 FFF7FEFF 		bl	chSysHalt
 504              	.LVL52:
 505              	.L25:
 506              		.loc 1 178 0 is_stmt 1
 507 002c 2046     		mov	r0, r4
 508 002e FFF7FEFF 		bl	sd_lld_stop
 509              	.LVL53:
 510              		.loc 1 179 0
 511 0032 0123     		movs	r3, #1
 512 0034 2372     		strb	r3, [r4, #8]
 513              		.loc 1 180 0
 514 0036 04F13000 		add	r0, r4, #48
 515 003a FFF7FEFF 		bl	chOQResetI
 516              	.LVL54:
 517              		.loc 1 181 0
 518 003e 04F10C00 		add	r0, r4, #12
 519 0042 FFF7FEFF 		bl	chIQResetI
 520              	.LVL55:
 521              	.LBB102:
 522              	.LBB103:
 523              		.file 5 "../../../os/hal/osal/rt/osal.h"
 524              		.loc 5 532 0
 525 0046 FFF7FEFF 		bl	chSchRescheduleS
 526              	.LVL56:
 527              	.LBE103:
 528              	.LBE102:
 529              	.LBB104:
 530              	.LBB105:
 531              	.LBB106:
 532              		.loc 4 311 0
 533 004a FFF7FEFF 		bl	_dbg_check_unlock
 534              	.LVL57:
 535              		.loc 4 312 0
 536 004e FFF7FEFF 		bl	_stats_stop_measure_crit_thd
 537              	.LVL58:
 538              		.loc 4 318 0
 539 0052 0D4B     		ldr	r3, .L29+8
 540 0054 9A69     		ldr	r2, [r3, #24]
 541 0056 1B68     		ldr	r3, [r3]
 542 0058 9268     		ldr	r2, [r2, #8]
 543 005a 9B68     		ldr	r3, [r3, #8]
 544 005c 9A42     		cmp	r2, r3
 545 005e 06D2     		bcs	.L26
 546 0060 0A48     		ldr	r0, .L29+12
 547 0062 FFF7FEFF 		bl	puts
 548              	.LVL59:
 549              	@ 318 "../../../os/rt/include/chsys.h" 1
 550 0066 00BE     		BKPT #0
 551              	
 552              	@ 0 "" 2
 553              		.thumb
 554 0068 0948     		ldr	r0, .L29+16
 555 006a FFF7FEFF 		bl	chSysHalt
 556              	.LVL60:
ARM GAS  C:\Users\jo\AppData\Local\Temp\cc1S6wRf.s 			page 11


 557              	.L26:
 558              	.LBB107:
 559              	.LBB108:
 560              	.LBB109:
 561              		.loc 3 546 0
 562 006e 0023     		movs	r3, #0
 563              	@ 546 "../../../os/ext/CMSIS/include/core_cmFunc.h" 1
 564 0070 83F31188 		MSR basepri, r3
 565              	@ 0 "" 2
 566              		.thumb
 567 0074 10BD     		pop	{r4, pc}
 568              	.LVL61:
 569              	.L28:
 570              	.LBE109:
 571              	.LBE108:
 572              	.LBE107:
 573              	.LBE106:
 574              	.LBE105:
 575              	.LBE104:
 576              		.loc 1 173 0 discriminator 1
 577 0076 0348     		ldr	r0, .L29+4
 578              	.LVL62:
 579 0078 FFF7FEFF 		bl	chSysHalt
 580              	.LVL63:
 581 007c C4E7     		b	.L24
 582              	.L30:
 583 007e 00BF     		.align	2
 584              	.L29:
 585 0080 00000000 		.word	.LC0
 586 0084 00000000 		.word	.LANCHOR3
 587 0088 00000000 		.word	ch
 588 008c 10000000 		.word	.LC1
 589 0090 00000000 		.word	.LANCHOR2
 590              		.cfi_endproc
 591              	.LFE266:
 592              		.size	sdStop, .-sdStop
 593 0094 AFF30080 		.section	.text.sdIncomingDataI,"ax",%progbits
 593      AFF30080 
 593      AFF30080 
 594              		.align	2
 595              		.p2align 4,,15
 596              		.global	sdIncomingDataI
 597              		.thumb
 598              		.thumb_func
 599              		.type	sdIncomingDataI, %function
 600              	sdIncomingDataI:
 601              	.LFB267:
 602              		.loc 1 202 0
 603              		.cfi_startproc
 604              		@ args = 0, pretend = 0, frame = 0
 605              		@ frame_needed = 0, uses_anonymous_args = 0
 606              	.LVL64:
 607 0000 38B5     		push	{r3, r4, r5, lr}
 608              		.cfi_def_cfa_offset 16
 609              		.cfi_offset 3, -16
 610              		.cfi_offset 4, -12
 611              		.cfi_offset 5, -8
ARM GAS  C:\Users\jo\AppData\Local\Temp\cc1S6wRf.s 			page 12


 612              		.cfi_offset 14, -4
 613              		.loc 1 202 0
 614 0002 0446     		mov	r4, r0
 615 0004 0D46     		mov	r5, r1
 616              		.loc 1 204 0
 617 0006 FFF7FEFF 		bl	chDbgCheckClassI
 618              	.LVL65:
 619              		.loc 1 205 0
 620 000a E4B1     		cbz	r4, .L36
 621              	.L32:
 622              	.LVL66:
 623              	.LBB110:
 624              	.LBB111:
 625              		.file 6 "../../../os/rt/include/chqueues.h"
 626              		.loc 6 302 0
 627 000c FFF7FEFF 		bl	chDbgCheckClassI
 628              	.LVL67:
 629              	.LBE111:
 630              	.LBE110:
 631              		.loc 1 207 0
 632 0010 6369     		ldr	r3, [r4, #20]
 633 0012 3BB1     		cbz	r3, .L37
 634              		.loc 1 209 0
 635 0014 2946     		mov	r1, r5
 636 0016 04F10C00 		add	r0, r4, #12
 637              	.LVL68:
 638 001a FFF7FEFF 		bl	chIQPutI
 639              	.LVL69:
 640 001e 0028     		cmp	r0, #0
 641 0020 0BDB     		blt	.L38
 642              	.L31:
 643 0022 38BD     		pop	{r3, r4, r5, pc}
 644              	.LVL70:
 645              	.L37:
 646              	.LBB112:
 647              	.LBB113:
 648              		.loc 5 776 0
 649 0024 201D     		adds	r0, r4, #4
 650              	.LVL71:
 651 0026 0421     		movs	r1, #4
 652 0028 FFF7FEFF 		bl	chEvtBroadcastFlagsI
 653              	.LVL72:
 654              	.LBE113:
 655              	.LBE112:
 656              		.loc 1 209 0
 657 002c 2946     		mov	r1, r5
 658 002e 04F10C00 		add	r0, r4, #12
 659 0032 FFF7FEFF 		bl	chIQPutI
 660              	.LVL73:
 661 0036 0028     		cmp	r0, #0
 662 0038 F3DA     		bge	.L31
 663              	.LVL74:
 664              	.L38:
 665              	.LBB114:
 666              	.LBB115:
 667              		.loc 5 776 0
 668 003a 201D     		adds	r0, r4, #4
ARM GAS  C:\Users\jo\AppData\Local\Temp\cc1S6wRf.s 			page 13


 669              	.LVL75:
 670 003c 8021     		movs	r1, #128
 671              	.LBE115:
 672              	.LBE114:
 673              		.loc 1 211 0
 674 003e BDE83840 		pop	{r3, r4, r5, lr}
 675              		.cfi_remember_state
 676              		.cfi_restore 14
 677              		.cfi_restore 5
 678              		.cfi_restore 4
 679              		.cfi_restore 3
 680              		.cfi_def_cfa_offset 0
 681              	.LVL76:
 682              	.LBB117:
 683              	.LBB116:
 684              		.loc 5 776 0
 685 0042 FFF7FEBF 		b	chEvtBroadcastFlagsI
 686              	.LVL77:
 687              	.L36:
 688              		.cfi_restore_state
 689              	.LBE116:
 690              	.LBE117:
 691              		.loc 1 205 0 discriminator 1
 692 0046 0248     		ldr	r0, .L39
 693 0048 FFF7FEFF 		bl	chSysHalt
 694              	.LVL78:
 695 004c DEE7     		b	.L32
 696              	.L40:
 697 004e 00BF     		.align	2
 698              	.L39:
 699 0050 00000000 		.word	.LANCHOR4
 700              		.cfi_endproc
 701              	.LFE267:
 702              		.size	sdIncomingDataI, .-sdIncomingDataI
 703 0054 AFF30080 		.section	.text.sdRequestDataI,"ax",%progbits
 703      AFF30080 
 703      AFF30080 
 704              		.align	2
 705              		.p2align 4,,15
 706              		.global	sdRequestDataI
 707              		.thumb
 708              		.thumb_func
 709              		.type	sdRequestDataI, %function
 710              	sdRequestDataI:
 711              	.LFB268:
 712              		.loc 1 228 0
 713              		.cfi_startproc
 714              		@ args = 0, pretend = 0, frame = 0
 715              		@ frame_needed = 0, uses_anonymous_args = 0
 716              	.LVL79:
 717 0000 38B5     		push	{r3, r4, r5, lr}
 718              		.cfi_def_cfa_offset 16
 719              		.cfi_offset 3, -16
 720              		.cfi_offset 4, -12
 721              		.cfi_offset 5, -8
 722              		.cfi_offset 14, -4
 723              		.loc 1 228 0
ARM GAS  C:\Users\jo\AppData\Local\Temp\cc1S6wRf.s 			page 14


 724 0002 0446     		mov	r4, r0
 725              		.loc 1 231 0
 726 0004 FFF7FEFF 		bl	chDbgCheckClassI
 727              	.LVL80:
 728              		.loc 1 232 0
 729 0008 6CB1     		cbz	r4, .L45
 730              	.L42:
 731              		.loc 1 234 0
 732 000a 04F13000 		add	r0, r4, #48
 733 000e FFF7FEFF 		bl	chOQGetI
 734              	.LVL81:
 735              		.loc 1 235 0
 736 0012 051E     		subs	r5, r0, #0
 737 0014 01DB     		blt	.L46
 738              		.loc 1 238 0
 739 0016 2846     		mov	r0, r5
 740 0018 38BD     		pop	{r3, r4, r5, pc}
 741              	.LVL82:
 742              	.L46:
 743              	.LBB118:
 744              	.LBB119:
 745              		.loc 5 776 0
 746 001a 201D     		adds	r0, r4, #4
 747              	.LVL83:
 748 001c 0821     		movs	r1, #8
 749 001e FFF7FEFF 		bl	chEvtBroadcastFlagsI
 750              	.LVL84:
 751              	.LBE119:
 752              	.LBE118:
 753              		.loc 1 238 0
 754 0022 2846     		mov	r0, r5
 755 0024 38BD     		pop	{r3, r4, r5, pc}
 756              	.LVL85:
 757              	.L45:
 758              		.loc 1 232 0 discriminator 1
 759 0026 0248     		ldr	r0, .L47
 760 0028 FFF7FEFF 		bl	chSysHalt
 761              	.LVL86:
 762 002c EDE7     		b	.L42
 763              	.L48:
 764 002e 00BF     		.align	2
 765              	.L47:
 766 0030 00000000 		.word	.LANCHOR5
 767              		.cfi_endproc
 768              	.LFE268:
 769              		.size	sdRequestDataI, .-sdRequestDataI
 770 0034 AFF30080 		.section	.rodata.__func__.8243,"a",%progbits
 770      AFF30080 
 770      AFF30080 
 771              		.align	2
 772              		.set	.LANCHOR4,. + 0
 773              		.type	__func__.8243, %object
 774              		.size	__func__.8243, 16
 775              	__func__.8243:
 776 0000 7364496E 		.ascii	"sdIncomingDataI\000"
 776      636F6D69 
 776      6E674461 
ARM GAS  C:\Users\jo\AppData\Local\Temp\cc1S6wRf.s 			page 15


 776      74614900 
 777              		.section	.rodata.__func__.8234,"a",%progbits
 778              		.align	2
 779              		.set	.LANCHOR1,. + 0
 780              		.type	__func__.8234, %object
 781              		.size	__func__.8234, 8
 782              	__func__.8234:
 783 0000 73645374 		.ascii	"sdStart\000"
 783      61727400 
 784              		.section	.rodata.__func__.8238,"a",%progbits
 785              		.align	2
 786              		.set	.LANCHOR3,. + 0
 787              		.type	__func__.8238, %object
 788              		.size	__func__.8238, 7
 789              	__func__.8238:
 790 0000 73645374 		.ascii	"sdStop\000"
 790      6F7000
 791 0007 00       		.section	.rodata.vmt,"a",%progbits
 792              		.align	2
 793              		.set	.LANCHOR0,. + 0
 794              		.type	vmt, %object
 795              		.size	vmt, 32
 796              	vmt:
 797 0000 00000000 		.word	write
 798 0004 00000000 		.word	read
 799 0008 00000000 		.word	put
 800 000c 00000000 		.word	get
 801 0010 00000000 		.word	putt
 802 0014 00000000 		.word	gett
 803 0018 00000000 		.word	writet
 804 001c 00000000 		.word	readt
 805              		.section	.rodata.__func__.8248,"a",%progbits
 806              		.align	2
 807              		.set	.LANCHOR5,. + 0
 808              		.type	__func__.8248, %object
 809              		.size	__func__.8248, 15
 810              	__func__.8248:
 811 0000 73645265 		.ascii	"sdRequestDataI\000"
 811      71756573 
 811      74446174 
 811      614900
 812 000f 00       		.section	.rodata.str1.4,"aMS",%progbits,1
 813              		.align	2
 814              	.LC0:
 815 0000 696E7661 		.ascii	"invalid state\000"
 815      6C696420 
 815      73746174 
 815      6500
 816 000e 0000     		.space	2
 817              	.LC1:
 818 0010 7072696F 		.ascii	"priority violation, missing reschedule\000"
 818      72697479 
 818      2076696F 
 818      6C617469 
 818      6F6E2C20 
 819 0037 00       		.section	.rodata.__func__.6751,"a",%progbits
 820              		.align	2
ARM GAS  C:\Users\jo\AppData\Local\Temp\cc1S6wRf.s 			page 16


 821              		.set	.LANCHOR2,. + 0
 822              		.type	__func__.6751, %object
 823              		.size	__func__.6751, 12
 824              	__func__.6751:
 825 0000 63685379 		.ascii	"chSysUnlock\000"
 825      73556E6C 
 825      6F636B00 
 826              		.text
 827              	.Letext0:
 828              		.file 7 "c:\\program files\\gnu tools arm embedded\\4.9 2014q4\\lib\\gcc\\arm-none-eabi\\4.9.3\\in
 829              		.file 8 "c:\\program files\\gnu tools arm embedded\\4.9 2014q4\\arm-none-eabi\\include\\machine\\_
 830              		.file 9 "c:\\program files\\gnu tools arm embedded\\4.9 2014q4\\arm-none-eabi\\include\\stdint.h"
 831              		.file 10 "../../../os/rt/ports/ARMCMx/compilers/GCC/chtypes.h"
 832              		.file 11 "../../../os/rt/include/chsystypes.h"
 833              		.file 12 "../../../os/rt/include/chschd.h"
 834              		.file 13 "../../../os/ext/CMSIS/ST/stm32f407xx.h"
 835              		.file 14 "../../../os/rt/ports/ARMCMx/chcore.h"
 836              		.file 15 "../../../os/rt/ports/ARMCMx/chcore_v7m.h"
 837              		.file 16 "../../../os/rt/include/chdebug.h"
 838              		.file 17 "../../../os/rt/include/chtm.h"
 839              		.file 18 "../../../os/rt/include/chstats.h"
 840              		.file 19 "../../../os/rt/include/chmtx.h"
 841              		.file 20 "../../../os/hal/include/serial.h"
 842              		.file 21 "../../../os/hal/ports/STM32/LLD/USARTv1/serial_lld.h"
 843              		.file 22 "../../../os/ext/CMSIS/include/core_cm4.h"
 844              		.file 23 "<built-in>"