ARM GAS  C:\Users\jo\AppData\Local\Temp\ccJopvHE.s 			page 1


   1              		.syntax unified
   2              		.cpu cortex-m4
   3              		.fpu softvfp
   4              		.eabi_attribute 20, 1
   5              		.eabi_attribute 21, 1
   6              		.eabi_attribute 23, 3
   7              		.eabi_attribute 24, 1
   8              		.eabi_attribute 25, 1
   9              		.eabi_attribute 26, 1
  10              		.eabi_attribute 30, 2
  11              		.eabi_attribute 34, 1
  12              		.eabi_attribute 18, 4
  13              		.thumb
  14              		.file	"sha1.c"
  15              		.text
  16              	.Ltext0:
  17              		.cfi_sections	.debug_frame
  18              		.section	.text.sha1_starts,"ax",%progbits
  19              		.align	2
  20              		.p2align 4,,15
  21              		.global	sha1_starts
  22              		.thumb
  23              		.thumb_func
  24              		.type	sha1_starts, %function
  25              	sha1_starts:
  26              	.LFB0:
  27              		.file 1 "../../../os/ext/PolarSSL/library/sha1.c"
  28              		.loc 1 105 0
  29              		.cfi_startproc
  30              		@ args = 0, pretend = 0, frame = 0
  31              		@ frame_needed = 0, uses_anonymous_args = 0
  32              		@ link register save eliminated.
  33              	.LVL0:
  34 0000 30B4     		push	{r4, r5}
  35              		.cfi_def_cfa_offset 8
  36              		.cfi_offset 4, -8
  37              		.cfi_offset 5, -4
  38              		.loc 1 109 0
  39 0002 074B     		ldr	r3, .L3
  40              		.loc 1 110 0
  41 0004 074D     		ldr	r5, .L3+4
  42              		.loc 1 111 0
  43 0006 084C     		ldr	r4, .L3+8
  44              		.loc 1 112 0
  45 0008 0849     		ldr	r1, .L3+12
  46              		.loc 1 113 0
  47 000a 094A     		ldr	r2, .L3+16
  48              		.loc 1 109 0
  49 000c 8360     		str	r3, [r0, #8]
  50              		.loc 1 106 0
  51 000e 0023     		movs	r3, #0
  52              		.loc 1 110 0
  53 0010 C560     		str	r5, [r0, #12]
  54              		.loc 1 111 0
  55 0012 0461     		str	r4, [r0, #16]
  56              		.loc 1 112 0
  57 0014 4161     		str	r1, [r0, #20]
ARM GAS  C:\Users\jo\AppData\Local\Temp\ccJopvHE.s 			page 2


  58              		.loc 1 113 0
  59 0016 8261     		str	r2, [r0, #24]
  60              		.loc 1 106 0
  61 0018 0360     		str	r3, [r0]
  62              		.loc 1 107 0
  63 001a 4360     		str	r3, [r0, #4]
  64              		.loc 1 114 0
  65 001c 30BC     		pop	{r4, r5}
  66              		.cfi_restore 5
  67              		.cfi_restore 4
  68              		.cfi_def_cfa_offset 0
  69 001e 7047     		bx	lr
  70              	.L4:
  71              		.align	2
  72              	.L3:
  73 0020 01234567 		.word	1732584193
  74 0024 89ABCDEF 		.word	-271733879
  75 0028 FEDCBA98 		.word	-1732584194
  76 002c 76543210 		.word	271733878
  77 0030 F0E1D2C3 		.word	-1009589776
  78              		.cfi_endproc
  79              	.LFE0:
  80              		.size	sha1_starts, .-sha1_starts
  81 0034 AFF30080 		.section	.text.sha1_process,"ax",%progbits
  81      AFF30080 
  81      AFF30080 
  82              		.align	2
  83              		.p2align 4,,15
  84              		.global	sha1_process
  85              		.thumb
  86              		.thumb_func
  87              		.type	sha1_process, %function
  88              	sha1_process:
  89              	.LFB1:
  90              		.loc 1 117 0
  91              		.cfi_startproc
  92              		@ args = 0, pretend = 0, frame = 192
  93              		@ frame_needed = 0, uses_anonymous_args = 0
  94              	.LVL1:
  95 0000 2DE9F04F 		push	{r4, r5, r6, r7, r8, r9, r10, fp, lr}
  96              		.cfi_def_cfa_offset 36
  97              		.cfi_offset 4, -36
  98              		.cfi_offset 5, -32
  99              		.cfi_offset 6, -28
 100              		.cfi_offset 7, -24
 101              		.cfi_offset 8, -20
 102              		.cfi_offset 9, -16
 103              		.cfi_offset 10, -12
 104              		.cfi_offset 11, -8
 105              		.cfi_offset 14, -4
 106 0004 B1B0     		sub	sp, sp, #196
 107              		.cfi_def_cfa_offset 232
 108              		.loc 1 122 0
 109 0006 4A7A     		ldrb	r2, [r1, #9]	@ zero_extendqisi2
 110 0008 0192     		str	r2, [sp, #4]
 111              		.loc 1 123 0
 112 000a 0A7B     		ldrb	r2, [r1, #12]	@ zero_extendqisi2
ARM GAS  C:\Users\jo\AppData\Local\Temp\ccJopvHE.s 			page 3


 113 000c 0392     		str	r2, [sp, #12]
 114 000e CA7B     		ldrb	r2, [r1, #15]	@ zero_extendqisi2
 115 0010 0492     		str	r2, [sp, #16]
 116 0012 8A7B     		ldrb	r2, [r1, #14]	@ zero_extendqisi2
 117 0014 0592     		str	r2, [sp, #20]
 118              		.loc 1 124 0
 119 0016 0A7C     		ldrb	r2, [r1, #16]	@ zero_extendqisi2
 120 0018 0692     		str	r2, [sp, #24]
 121 001a 4A7C     		ldrb	r2, [r1, #17]	@ zero_extendqisi2
 122 001c 0792     		str	r2, [sp, #28]
 123 001e CA7C     		ldrb	r2, [r1, #19]	@ zero_extendqisi2
 124 0020 0892     		str	r2, [sp, #32]
 125 0022 8A7C     		ldrb	r2, [r1, #18]	@ zero_extendqisi2
 126 0024 0992     		str	r2, [sp, #36]
 127              		.loc 1 125 0
 128 0026 0A7D     		ldrb	r2, [r1, #20]	@ zero_extendqisi2
 129 0028 0A92     		str	r2, [sp, #40]
 130 002a 4A7D     		ldrb	r2, [r1, #21]	@ zero_extendqisi2
 131              		.loc 1 120 0
 132 002c 91F800B0 		ldrb	fp, [r1]	@ zero_extendqisi2
 133 0030 CE78     		ldrb	r6, [r1, #3]	@ zero_extendqisi2
 134 0032 91F80290 		ldrb	r9, [r1, #2]	@ zero_extendqisi2
 135              		.loc 1 121 0
 136 0036 91F804A0 		ldrb	r10, [r1, #4]	@ zero_extendqisi2
 137 003a CD79     		ldrb	r5, [r1, #7]	@ zero_extendqisi2
 138              		.loc 1 122 0
 139 003c 91F80880 		ldrb	r8, [r1, #8]	@ zero_extendqisi2
 140 0040 91F80BE0 		ldrb	lr, [r1, #11]	@ zero_extendqisi2
 141 0044 8F7A     		ldrb	r7, [r1, #10]	@ zero_extendqisi2
 142              		.loc 1 117 0
 143 0046 1490     		str	r0, [sp, #80]
 144              		.loc 1 120 0
 145 0048 4C78     		ldrb	r4, [r1, #1]	@ zero_extendqisi2
 146              		.loc 1 121 0
 147 004a 4879     		ldrb	r0, [r1, #5]	@ zero_extendqisi2
 148              	.LVL2:
 149 004c 91F806C0 		ldrb	ip, [r1, #6]	@ zero_extendqisi2
 150              		.loc 1 123 0
 151 0050 4B7B     		ldrb	r3, [r1, #13]	@ zero_extendqisi2
 152              		.loc 1 125 0
 153 0052 0D92     		str	r2, [sp, #52]
 154              	.LVL3:
 155 0054 CA7D     		ldrb	r2, [r1, #23]	@ zero_extendqisi2
 156 0056 0E92     		str	r2, [sp, #56]
 157 0058 8A7D     		ldrb	r2, [r1, #22]	@ zero_extendqisi2
 158 005a 0F92     		str	r2, [sp, #60]
 159              		.loc 1 126 0
 160 005c 0A7E     		ldrb	r2, [r1, #24]	@ zero_extendqisi2
 161 005e 1092     		str	r2, [sp, #64]
 162 0060 4A7E     		ldrb	r2, [r1, #25]	@ zero_extendqisi2
 163 0062 1192     		str	r2, [sp, #68]
 164 0064 CA7E     		ldrb	r2, [r1, #27]	@ zero_extendqisi2
 165 0066 1292     		str	r2, [sp, #72]
 166 0068 8A7E     		ldrb	r2, [r1, #26]	@ zero_extendqisi2
 167 006a 1592     		str	r2, [sp, #84]
 168              		.loc 1 127 0
 169 006c 0A7F     		ldrb	r2, [r1, #28]	@ zero_extendqisi2
ARM GAS  C:\Users\jo\AppData\Local\Temp\ccJopvHE.s 			page 4


 170 006e 1692     		str	r2, [sp, #88]
 171 0070 4A7F     		ldrb	r2, [r1, #29]	@ zero_extendqisi2
 172 0072 1792     		str	r2, [sp, #92]
 173 0074 CA7F     		ldrb	r2, [r1, #31]	@ zero_extendqisi2
 174 0076 1892     		str	r2, [sp, #96]
 175 0078 8A7F     		ldrb	r2, [r1, #30]	@ zero_extendqisi2
 176 007a 1992     		str	r2, [sp, #100]
 177              		.loc 1 128 0
 178 007c 91F82020 		ldrb	r2, [r1, #32]	@ zero_extendqisi2
 179 0080 1A92     		str	r2, [sp, #104]
 180 0082 91F82120 		ldrb	r2, [r1, #33]	@ zero_extendqisi2
 181 0086 1B92     		str	r2, [sp, #108]
 182              		.loc 1 129 0
 183 0088 91F82420 		ldrb	r2, [r1, #36]	@ zero_extendqisi2
 184 008c 1C92     		str	r2, [sp, #112]
 185              		.loc 1 120 0
 186 008e 2404     		lsls	r4, r4, #16
 187              		.loc 1 122 0
 188 0090 019A     		ldr	r2, [sp, #4]
 189              		.loc 1 120 0
 190 0092 44EA0B64 		orr	r4, r4, fp, lsl #24
 191 0096 3443     		orrs	r4, r4, r6
 192              		.loc 1 122 0
 193 0098 1204     		lsls	r2, r2, #16
 194              		.loc 1 120 0
 195 009a 44EA0924 		orr	r4, r4, r9, lsl #8
 196              		.loc 1 122 0
 197 009e 42EA0862 		orr	r2, r2, r8, lsl #24
 198              		.loc 1 121 0
 199 00a2 0004     		lsls	r0, r0, #16
 200              		.loc 1 128 0
 201 00a4 91F82360 		ldrb	r6, [r1, #35]	@ zero_extendqisi2
 202 00a8 91F822B0 		ldrb	fp, [r1, #34]	@ zero_extendqisi2
 203              		.loc 1 120 0
 204 00ac 0B94     		str	r4, [sp, #44]
 205              	.LVL4:
 206              		.loc 1 129 0
 207 00ae 91F82790 		ldrb	r9, [r1, #39]	@ zero_extendqisi2
 208 00b2 91F82540 		ldrb	r4, [r1, #37]	@ zero_extendqisi2
 209 00b6 42EA0E02 		orr	r2, r2, lr
 210              		.loc 1 121 0
 211 00ba 40EA0A60 		orr	r0, r0, r10, lsl #24
 212              		.loc 1 129 0
 213 00be 91F826A0 		ldrb	r10, [r1, #38]	@ zero_extendqisi2
 214              		.loc 1 130 0
 215 00c2 91F82880 		ldrb	r8, [r1, #40]	@ zero_extendqisi2
 216              	.LVL5:
 217              		.loc 1 131 0
 218 00c6 91F82CE0 		ldrb	lr, [r1, #44]	@ zero_extendqisi2
 219 00ca CDF87CE0 		str	lr, [sp, #124]
 220              		.loc 1 122 0
 221 00ce 42EA072E 		orr	lr, r2, r7, lsl #8
 222              		.loc 1 123 0
 223 00d2 039F     		ldr	r7, [sp, #12]
 224              		.loc 1 122 0
 225 00d4 CDF808E0 		str	lr, [sp, #8]
 226              	.LVL6:
ARM GAS  C:\Users\jo\AppData\Local\Temp\ccJopvHE.s 			page 5


 227              		.loc 1 123 0
 228 00d8 1B04     		lsls	r3, r3, #16
 229 00da 43EA0763 		orr	r3, r3, r7, lsl #24
 230 00de 049F     		ldr	r7, [sp, #16]
 231              		.loc 1 131 0
 232 00e0 91F82FE0 		ldrb	lr, [r1, #47]	@ zero_extendqisi2
 233 00e4 CDF884E0 		str	lr, [sp, #132]
 234 00e8 3B43     		orrs	r3, r3, r7
 235 00ea 91F82EE0 		ldrb	lr, [r1, #46]	@ zero_extendqisi2
 236              		.loc 1 124 0
 237 00ee 079F     		ldr	r7, [sp, #28]
 238              		.loc 1 131 0
 239 00f0 CDF888E0 		str	lr, [sp, #136]
 240              		.loc 1 132 0
 241 00f4 91F830E0 		ldrb	lr, [r1, #48]	@ zero_extendqisi2
 242 00f8 CDF88CE0 		str	lr, [sp, #140]
 243 00fc 2843     		orrs	r0, r0, r5
 244              		.loc 1 124 0
 245 00fe 4FEA074E 		lsl	lr, r7, #16
 246              		.loc 1 123 0
 247 0102 059F     		ldr	r7, [sp, #20]
 248              		.loc 1 130 0
 249 0104 91F82950 		ldrb	r5, [r1, #41]	@ zero_extendqisi2
 250 0108 0195     		str	r5, [sp, #4]
 251              		.loc 1 121 0
 252 010a 40EA0C2C 		orr	ip, r0, ip, lsl #8
 253 010e CDF830C0 		str	ip, [sp, #48]
 254              	.LVL7:
 255              		.loc 1 123 0
 256 0112 43EA072C 		orr	ip, r3, r7, lsl #8
 257              		.loc 1 130 0
 258 0116 91F82B50 		ldrb	r5, [r1, #43]	@ zero_extendqisi2
 259              		.loc 1 123 0
 260 011a CDF80CC0 		str	ip, [sp, #12]
 261              	.LVL8:
 262              		.loc 1 132 0
 263 011e 91F831C0 		ldrb	ip, [r1, #49]	@ zero_extendqisi2
 264              		.loc 1 124 0
 265 0122 069A     		ldr	r2, [sp, #24]
 266              		.loc 1 130 0
 267 0124 1D95     		str	r5, [sp, #116]
 268              		.loc 1 132 0
 269 0126 CDF890C0 		str	ip, [sp, #144]
 270              		.loc 1 130 0
 271 012a 91F82A50 		ldrb	r5, [r1, #42]	@ zero_extendqisi2
 272              		.loc 1 132 0
 273 012e 91F833C0 		ldrb	ip, [r1, #51]	@ zero_extendqisi2
 274              		.loc 1 130 0
 275 0132 1E95     		str	r5, [sp, #120]
 276              		.loc 1 132 0
 277 0134 CDF894C0 		str	ip, [sp, #148]
 278              		.loc 1 131 0
 279 0138 91F82D50 		ldrb	r5, [r1, #45]	@ zero_extendqisi2
 280              		.loc 1 132 0
 281 013c 91F832C0 		ldrb	ip, [r1, #50]	@ zero_extendqisi2
 282              		.loc 1 125 0
 283 0140 0D9F     		ldr	r7, [sp, #52]
ARM GAS  C:\Users\jo\AppData\Local\Temp\ccJopvHE.s 			page 6


 284              		.loc 1 131 0
 285 0142 2095     		str	r5, [sp, #128]
 286              		.loc 1 132 0
 287 0144 CDF898C0 		str	ip, [sp, #152]
 288              		.loc 1 124 0
 289 0148 4EEA026E 		orr	lr, lr, r2, lsl #24
 290 014c 089A     		ldr	r2, [sp, #32]
 291              		.loc 1 133 0
 292 014e 91F834C0 		ldrb	ip, [r1, #52]	@ zero_extendqisi2
 293              	.LVL9:
 294              		.loc 1 125 0
 295 0152 0A9B     		ldr	r3, [sp, #40]
 296              		.loc 1 133 0
 297 0154 CDF89CC0 		str	ip, [sp, #156]
 298              		.loc 1 125 0
 299 0158 3F04     		lsls	r7, r7, #16
 300              	.LVL10:
 301 015a 4EEA020E 		orr	lr, lr, r2
 302 015e 47EA0367 		orr	r7, r7, r3, lsl #24
 303              		.loc 1 124 0
 304 0162 099A     		ldr	r2, [sp, #36]
 305 0164 0E9B     		ldr	r3, [sp, #56]
 306              		.loc 1 133 0
 307 0166 91F835C0 		ldrb	ip, [r1, #53]	@ zero_extendqisi2
 308 016a CDF8A0C0 		str	ip, [sp, #160]
 309              		.loc 1 124 0
 310 016e 4EEA022E 		orr	lr, lr, r2, lsl #8
 311 0172 1F43     		orrs	r7, r7, r3
 312              		.loc 1 126 0
 313 0174 119B     		ldr	r3, [sp, #68]
 314              		.loc 1 133 0
 315 0176 91F837C0 		ldrb	ip, [r1, #55]	@ zero_extendqisi2
 316              		.loc 1 124 0
 317 017a CDF810E0 		str	lr, [sp, #16]
 318              	.LVL11:
 319              		.loc 1 133 0
 320 017e 91F836E0 		ldrb	lr, [r1, #54]	@ zero_extendqisi2
 321 0182 CDF8A4C0 		str	ip, [sp, #164]
 322 0186 CDF828E0 		str	lr, [sp, #40]
 323              		.loc 1 126 0
 324 018a 4FEA034C 		lsl	ip, r3, #16
 325              		.loc 1 134 0
 326 018e 91F838E0 		ldrb	lr, [r1, #56]	@ zero_extendqisi2
 327              		.loc 1 125 0
 328 0192 0F9B     		ldr	r3, [sp, #60]
 329              		.loc 1 134 0
 330 0194 CDF8A8E0 		str	lr, [sp, #168]
 331 0198 91F839E0 		ldrb	lr, [r1, #57]	@ zero_extendqisi2
 332 019c CDF8ACE0 		str	lr, [sp, #172]
 333              		.loc 1 125 0
 334 01a0 47EA032E 		orr	lr, r7, r3, lsl #8
 335 01a4 CDF834E0 		str	lr, [sp, #52]
 336              	.LVL12:
 337              		.loc 1 134 0
 338 01a8 91F83BE0 		ldrb	lr, [r1, #59]	@ zero_extendqisi2
 339 01ac CDF844E0 		str	lr, [sp, #68]
 340 01b0 91F83AE0 		ldrb	lr, [r1, #58]	@ zero_extendqisi2
ARM GAS  C:\Users\jo\AppData\Local\Temp\ccJopvHE.s 			page 7


 341              		.loc 1 126 0
 342 01b4 109F     		ldr	r7, [sp, #64]
 343              		.loc 1 134 0
 344 01b6 CDF8B0E0 		str	lr, [sp, #176]
 345              		.loc 1 135 0
 346 01ba 91F83CE0 		ldrb	lr, [r1, #60]	@ zero_extendqisi2
 347 01be CDF8B4E0 		str	lr, [sp, #180]
 348 01c2 91F83DE0 		ldrb	lr, [r1, #61]	@ zero_extendqisi2
 349              		.loc 1 126 0
 350 01c6 4CEA076C 		orr	ip, ip, r7, lsl #24
 351 01ca 129F     		ldr	r7, [sp, #72]
 352              		.loc 1 135 0
 353 01cc CDF848E0 		str	lr, [sp, #72]
 354 01d0 91F83FE0 		ldrb	lr, [r1, #63]	@ zero_extendqisi2
 355 01d4 91F83E10 		ldrb	r1, [r1, #62]	@ zero_extendqisi2
 356              	.LVL13:
 357 01d8 CDF8B8E0 		str	lr, [sp, #184]
 358 01dc 2F91     		str	r1, [sp, #188]
 359              		.loc 1 151 0
 360 01de 149A     		ldr	r2, [sp, #80]
 361              	.LVL14:
 362 01e0 9368     		ldr	r3, [r2, #8]
 363              	.LVL15:
 364              		.loc 1 152 0
 365 01e2 D168     		ldr	r1, [r2, #12]
 366 01e4 1391     		str	r1, [sp, #76]
 367              		.loc 1 151 0
 368 01e6 1846     		mov	r0, r3
 369              		.loc 1 152 0
 370 01e8 1346     		mov	r3, r2
 371              		.loc 1 126 0
 372 01ea 159A     		ldr	r2, [sp, #84]
 373 01ec 4CEA070C 		orr	ip, ip, r7
 374              		.loc 1 127 0
 375 01f0 179F     		ldr	r7, [sp, #92]
 376              		.loc 1 161 0
 377 01f2 1790     		str	r0, [sp, #92]
 378              		.loc 1 126 0
 379 01f4 4CEA022E 		orr	lr, ip, r2, lsl #8
 380              		.loc 1 127 0
 381 01f8 169A     		ldr	r2, [sp, #88]
 382              		.loc 1 126 0
 383 01fa CDF83CE0 		str	lr, [sp, #60]
 384              	.LVL16:
 385              		.loc 1 127 0
 386 01fe 3F04     		lsls	r7, r7, #16
 387              		.loc 1 153 0
 388 0200 1946     		mov	r1, r3
 389              		.loc 1 127 0
 390 0202 47EA0267 		orr	r7, r7, r2, lsl #24
 391              		.loc 1 153 0
 392 0206 1A46     		mov	r2, r3
 393 0208 1B69     		ldr	r3, [r3, #16]
 394 020a 0E93     		str	r3, [sp, #56]
 395 020c 189B     		ldr	r3, [sp, #96]
 396              		.loc 1 154 0
 397 020e 5269     		ldr	r2, [r2, #20]
ARM GAS  C:\Users\jo\AppData\Local\Temp\ccJopvHE.s 			page 8


 398 0210 1F43     		orrs	r7, r7, r3
 399              		.loc 1 128 0
 400 0212 1B9B     		ldr	r3, [sp, #108]
 401 0214 4FEA034C 		lsl	ip, r3, #16
 402              		.loc 1 127 0
 403 0218 199B     		ldr	r3, [sp, #100]
 404 021a 47EA032E 		orr	lr, r7, r3, lsl #8
 405              		.loc 1 155 0
 406 021e 8F69     		ldr	r7, [r1, #24]
 407              		.loc 1 128 0
 408 0220 1A99     		ldr	r1, [sp, #104]
 409              		.loc 1 155 0
 410 0222 1697     		str	r7, [sp, #88]
 411              		.loc 1 160 0
 412 0224 0E9F     		ldr	r7, [sp, #56]
 413 0226 D84B     		ldr	r3, .L7
 414              		.loc 1 127 0
 415 0228 CDF840E0 		str	lr, [sp, #64]
 416              	.LVL17:
 417              		.loc 1 154 0
 418 022c 1546     		mov	r5, r2
 419              		.loc 1 128 0
 420 022e 4CEA016C 		orr	ip, ip, r1, lsl #24
 421 0232 4CEA060C 		orr	ip, ip, r6
 422              		.loc 1 160 0
 423 0236 85EA0702 		eor	r2, r5, r7
 424 023a 2E46     		mov	r6, r5
 425 023c 139D     		ldr	r5, [sp, #76]
 426 023e 1596     		str	r6, [sp, #84]
 427 0240 2A40     		ands	r2, r2, r5
 428 0242 7240     		eors	r2, r2, r6
 429              		.loc 1 129 0
 430 0244 1C9E     		ldr	r6, [sp, #112]
 431 0246 2404     		lsls	r4, r4, #16
 432 0248 44EA0664 		orr	r4, r4, r6, lsl #24
 433 024c 169E     		ldr	r6, [sp, #88]
 434 024e 1E44     		add	r6, r6, r3
 435 0250 06EBF066 		add	r6, r6, r0, ror #27
 436 0254 44EA0909 		orr	r9, r4, r9
 437 0258 3244     		add	r2, r2, r6
 438              		.loc 1 130 0
 439 025a 019C     		ldr	r4, [sp, #4]
 440              		.loc 1 160 0
 441 025c 0B9E     		ldr	r6, [sp, #44]
 442 025e 4FEAB501 		ror	r1, r5, #2
 443 0262 3244     		add	r2, r2, r6
 444              		.loc 1 130 0
 445 0264 2504     		lsls	r5, r4, #16
 446              		.loc 1 161 0
 447 0266 81EA0706 		eor	r6, r1, r7
 448 026a 159C     		ldr	r4, [sp, #84]
 449 026c 0640     		ands	r6, r6, r0
 450              		.loc 1 128 0
 451 026e 4CEA0B2E 		orr	lr, ip, fp, lsl #8
 452 0272 1C44     		add	r4, r4, r3
 453              		.loc 1 161 0
 454 0274 7E40     		eors	r6, r6, r7
ARM GAS  C:\Users\jo\AppData\Local\Temp\ccJopvHE.s 			page 9


 455              		.loc 1 128 0
 456 0276 CDF814E0 		str	lr, [sp, #20]
 457              		.loc 1 161 0
 458 027a 4FEAB007 		ror	r7, r0, #2
 459              		.loc 1 129 0
 460 027e 49EA0A2E 		orr	lr, r9, r10, lsl #8
 461 0282 2644     		add	r6, r6, r4
 462 0284 0C9C     		ldr	r4, [sp, #48]
 463 0286 CDF818E0 		str	lr, [sp, #24]
 464              		.loc 1 162 0
 465 028a 87EA010E 		eor	lr, r7, r1
 466 028e 2644     		add	r6, r6, r4
 467 0290 02EA0E0E 		and	lr, r2, lr
 468 0294 039C     		ldr	r4, [sp, #12]
 469 0296 1D98     		ldr	r0, [sp, #116]
 470 0298 8EEA010E 		eor	lr, lr, r1
 471 029c 1944     		add	r1, r1, r3
 472              		.loc 1 130 0
 473 029e 45EA0865 		orr	r5, r5, r8, lsl #24
 474 02a2 2144     		add	r1, r1, r4
 475 02a4 0E9C     		ldr	r4, [sp, #56]
 476 02a6 45EA0008 		orr	r8, r5, r0
 477 02aa 0298     		ldr	r0, [sp, #8]
 478 02ac 1E9D     		ldr	r5, [sp, #120]
 479 02ae 1C44     		add	r4, r4, r3
 480              		.loc 1 161 0
 481 02b0 06EBF266 		add	r6, r6, r2, ror #27
 482 02b4 0444     		add	r4, r4, r0
 483              		.loc 1 162 0
 484 02b6 4FEAB202 		ror	r2, r2, #2
 485 02ba 7444     		add	r4, r4, lr
 486              		.loc 1 163 0
 487 02bc 82EA070E 		eor	lr, r2, r7
 488 02c0 0498     		ldr	r0, [sp, #16]
 489 02c2 0EEA060E 		and	lr, lr, r6
 490 02c6 8EEA070E 		eor	lr, lr, r7
 491 02ca 1F44     		add	r7, r7, r3
 492 02cc 0744     		add	r7, r7, r0
 493              		.loc 1 131 0
 494 02ce 2098     		ldr	r0, [sp, #128]
 495 02d0 7144     		add	r1, r1, lr
 496              		.loc 1 130 0
 497 02d2 48EA052E 		orr	lr, r8, r5, lsl #8
 498              		.loc 1 131 0
 499 02d6 1F9D     		ldr	r5, [sp, #124]
 500              		.loc 1 130 0
 501 02d8 CDF81CE0 		str	lr, [sp, #28]
 502              		.loc 1 162 0
 503 02dc 04EBF664 		add	r4, r4, r6, ror #27
 504              		.loc 1 131 0
 505 02e0 0004     		lsls	r0, r0, #16
 506              		.loc 1 163 0
 507 02e2 4FEAB606 		ror	r6, r6, #2
 508              		.loc 1 131 0
 509 02e6 40EA0560 		orr	r0, r0, r5, lsl #24
 510              		.loc 1 164 0
 511 02ea 86EA0205 		eor	r5, r6, r2
ARM GAS  C:\Users\jo\AppData\Local\Temp\ccJopvHE.s 			page 10


 512 02ee 2540     		ands	r5, r5, r4
 513 02f0 5540     		eors	r5, r5, r2
 514 02f2 2F44     		add	r7, r7, r5
 515 02f4 219D     		ldr	r5, [sp, #132]
 516              		.loc 1 163 0
 517 02f6 01EBF461 		add	r1, r1, r4, ror #27
 518              		.loc 1 164 0
 519 02fa 4FEAB404 		ror	r4, r4, #2
 520 02fe 2843     		orrs	r0, r0, r5
 521              		.loc 1 165 0
 522 0300 84EA0605 		eor	r5, r4, r6
 523 0304 0D40     		ands	r5, r5, r1
 524 0306 85EA0608 		eor	r8, r5, r6
 525              		.loc 1 132 0
 526 030a 249D     		ldr	r5, [sp, #144]
 527 030c 4FEA054C 		lsl	ip, r5, #16
 528              		.loc 1 131 0
 529 0310 229D     		ldr	r5, [sp, #136]
 530 0312 40EA052E 		orr	lr, r0, r5, lsl #8
 531 0316 0D98     		ldr	r0, [sp, #52]
 532              		.loc 1 132 0
 533 0318 239D     		ldr	r5, [sp, #140]
 534              		.loc 1 131 0
 535 031a CDF820E0 		str	lr, [sp, #32]
 536 031e 00EB030B 		add	fp, r0, r3
 537              		.loc 1 132 0
 538 0322 4CEA056C 		orr	ip, ip, r5, lsl #24
 539 0326 0F9D     		ldr	r5, [sp, #60]
 540 0328 5A44     		add	r2, r2, fp
 541              		.loc 1 164 0
 542 032a 07EBF167 		add	r7, r7, r1, ror #27
 543 032e 02EB080B 		add	fp, r2, r8
 544              		.loc 1 165 0
 545 0332 4FEAB101 		ror	r1, r1, #2
 546 0336 05EB0308 		add	r8, r5, r3
 547 033a 259D     		ldr	r5, [sp, #148]
 548              		.loc 1 166 0
 549 033c 81EA0402 		eor	r2, r1, r4
 550 0340 4CEA050C 		orr	ip, ip, r5
 551 0344 3A40     		ands	r2, r2, r7
 552 0346 109D     		ldr	r5, [sp, #64]
 553              		.loc 1 165 0
 554 0348 0BEBF76B 		add	fp, fp, r7, ror #27
 555              		.loc 1 166 0
 556 034c 6240     		eors	r2, r2, r4
 557 034e 4FEAB707 		ror	r7, r7, #2
 558 0352 4644     		add	r6, r6, r8
 559 0354 05EB0309 		add	r9, r5, r3
 560 0358 06EB0208 		add	r8, r6, r2
 561              		.loc 1 133 0
 562 035c 289D     		ldr	r5, [sp, #160]
 563 035e 059E     		ldr	r6, [sp, #20]
 564              		.loc 1 167 0
 565 0360 87EA0102 		eor	r2, r7, r1
 566 0364 02EA0B02 		and	r2, r2, fp
 567              		.loc 1 166 0
 568 0368 08EBFB68 		add	r8, r8, fp, ror #27
ARM GAS  C:\Users\jo\AppData\Local\Temp\ccJopvHE.s 			page 11


 569              		.loc 1 167 0
 570 036c 4A40     		eors	r2, r2, r1
 571 036e 4FEABB0B 		ror	fp, fp, #2
 572 0372 4C44     		add	r4, r4, r9
 573              		.loc 1 133 0
 574 0374 4FEA054A 		lsl	r10, r5, #16
 575              		.loc 1 132 0
 576 0378 269D     		ldr	r5, [sp, #152]
 577 037a 04EB0209 		add	r9, r4, r2
 578              		.loc 1 168 0
 579 037e 8BEA0702 		eor	r2, fp, r7
 580              		.loc 1 132 0
 581 0382 4CEA052E 		orr	lr, ip, r5, lsl #8
 582 0386 F018     		adds	r0, r6, r3
 583              		.loc 1 133 0
 584 0388 279D     		ldr	r5, [sp, #156]
 585              		.loc 1 132 0
 586 038a CDF824E0 		str	lr, [sp, #36]
 587              		.loc 1 168 0
 588 038e 02EA0802 		and	r2, r2, r8
 589 0392 7A40     		eors	r2, r2, r7
 590 0394 0144     		add	r1, r1, r0
 591 0396 8818     		adds	r0, r1, r2
 592              		.loc 1 133 0
 593 0398 4AEA056A 		orr	r10, r10, r5, lsl #24
 594 039c 299A     		ldr	r2, [sp, #164]
 595 039e 069D     		ldr	r5, [sp, #24]
 596              		.loc 1 167 0
 597 03a0 09EBF869 		add	r9, r9, r8, ror #27
 598              		.loc 1 168 0
 599 03a4 4FEAB808 		ror	r8, r8, #2
 600              		.loc 1 169 0
 601 03a8 88EA0B01 		eor	r1, r8, fp
 602 03ac 4AEA020A 		orr	r10, r10, r2
 603 03b0 EA18     		adds	r2, r5, r3
 604              		.loc 1 134 0
 605 03b2 2B9D     		ldr	r5, [sp, #172]
 606              		.loc 1 169 0
 607 03b4 01EA0901 		and	r1, r1, r9
 608 03b8 3A44     		add	r2, r2, r7
 609              		.loc 1 133 0
 610 03ba 0A9F     		ldr	r7, [sp, #40]
 611              		.loc 1 168 0
 612 03bc 00EBF960 		add	r0, r0, r9, ror #27
 613              		.loc 1 169 0
 614 03c0 81EA0B01 		eor	r1, r1, fp
 615 03c4 4FEAB909 		ror	r9, r9, #2
 616              		.loc 1 134 0
 617 03c8 4FEA054C 		lsl	ip, r5, #16
 618 03cc 079D     		ldr	r5, [sp, #28]
 619              		.loc 1 133 0
 620 03ce 4AEA072A 		orr	r10, r10, r7, lsl #8
 621 03d2 0A44     		add	r2, r2, r1
 622              		.loc 1 134 0
 623 03d4 2A9F     		ldr	r7, [sp, #168]
 624              		.loc 1 170 0
 625 03d6 89EA0801 		eor	r1, r9, r8
ARM GAS  C:\Users\jo\AppData\Local\Temp\ccJopvHE.s 			page 12


 626 03da EE18     		adds	r6, r5, r3
 627 03dc 0140     		ands	r1, r1, r0
 628 03de 4FEAB00E 		ror	lr, r0, #2
 629 03e2 81EA0801 		eor	r1, r1, r8
 630 03e6 5E44     		add	r6, r6, fp
 631              		.loc 1 134 0
 632 03e8 4CEA076C 		orr	ip, ip, r7, lsl #24
 633 03ec 089F     		ldr	r7, [sp, #32]
 634              		.loc 1 169 0
 635 03ee 02EBF062 		add	r2, r2, r0, ror #27
 636 03f2 0E44     		add	r6, r6, r1
 637              		.loc 1 171 0
 638 03f4 8EEA0901 		eor	r1, lr, r9
 639              		.loc 1 170 0
 640 03f8 06EBF266 		add	r6, r6, r2, ror #27
 641 03fc FC18     		adds	r4, r7, r3
 642              		.loc 1 171 0
 643 03fe 1140     		ands	r1, r1, r2
 644 0400 4FEAB202 		ror	r2, r2, #2
 645 0404 81EA0901 		eor	r1, r1, r9
 646              		.loc 1 172 0
 647 0408 82EA0E05 		eor	r5, r2, lr
 648 040c 4444     		add	r4, r4, r8
 649 040e 3540     		ands	r5, r5, r6
 650 0410 0C44     		add	r4, r4, r1
 651 0412 4FEAB607 		ror	r7, r6, #2
 652              		.loc 1 171 0
 653 0416 04EBF664 		add	r4, r4, r6, ror #27
 654              		.loc 1 172 0
 655 041a 85EA0E01 		eor	r1, r5, lr
 656 041e 099E     		ldr	r6, [sp, #36]
 657 0420 119D     		ldr	r5, [sp, #68]
 658 0422 4CEA050C 		orr	ip, ip, r5
 659 0426 F518     		adds	r5, r6, r3
 660 0428 4D44     		add	r5, r5, r9
 661 042a 05EB0109 		add	r9, r5, r1
 662              		.loc 1 134 0
 663 042e 2C9D     		ldr	r5, [sp, #176]
 664              		.loc 1 135 0
 665 0430 129E     		ldr	r6, [sp, #72]
 666              		.loc 1 133 0
 667 0432 5046     		mov	r0, r10
 668              		.loc 1 134 0
 669 0434 4CEA052C 		orr	ip, ip, r5, lsl #8
 670              		.loc 1 173 0
 671 0438 87EA0201 		eor	r1, r7, r2
 672              		.loc 1 134 0
 673 043c CDF804C0 		str	ip, [sp, #4]
 674 0440 0A90     		str	r0, [sp, #40]
 675              		.loc 1 135 0
 676 0442 2D9D     		ldr	r5, [sp, #180]
 677              		.loc 1 173 0
 678 0444 2140     		ands	r1, r1, r4
 679 0446 1844     		add	r0, r0, r3
 680              		.loc 1 135 0
 681 0448 3604     		lsls	r6, r6, #16
 682              		.loc 1 173 0
ARM GAS  C:\Users\jo\AppData\Local\Temp\ccJopvHE.s 			page 13


 683 044a 4FEAB40B 		ror	fp, r4, #2
 684 044e 7044     		add	r0, r0, lr
 685              		.loc 1 135 0
 686 0450 46EA0566 		orr	r6, r6, r5, lsl #24
 687              		.loc 1 173 0
 688 0454 5140     		eors	r1, r1, r2
 689              		.loc 1 172 0
 690 0456 09EBF465 		add	r5, r9, r4, ror #27
 691 045a 2E9C     		ldr	r4, [sp, #184]
 692 045c 0144     		add	r1, r1, r0
 693 045e 0198     		ldr	r0, [sp, #4]
 694 0460 2643     		orrs	r6, r6, r4
 695 0462 029C     		ldr	r4, [sp, #8]
 696 0464 00EB0308 		add	r8, r0, r3
 697              		.loc 1 135 0
 698 0468 2F98     		ldr	r0, [sp, #188]
 699 046a A646     		mov	lr, r4
 700 046c 0B9C     		ldr	r4, [sp, #44]
 701 046e 46EA0029 		orr	r9, r6, r0, lsl #8
 702 0472 0598     		ldr	r0, [sp, #20]
 703              		.loc 1 173 0
 704 0474 01EBF56A 		add	r10, r1, r5, ror #27
 705              		.loc 1 174 0
 706 0478 8BEA070C 		eor	ip, fp, r7
 707 047c 0399     		ldr	r1, [sp, #12]
 708 047e 8EEA0404 		eor	r4, lr, r4
 709 0482 0CEA050C 		and	ip, ip, r5
 710 0486 4440     		eors	r4, r4, r0
 711              		.loc 1 176 0
 712 0488 0A98     		ldr	r0, [sp, #40]
 713              		.loc 1 135 0
 714 048a 4E46     		mov	r6, r9
 715              	.LVL18:
 716              		.loc 1 174 0
 717 048c 8CEA0709 		eor	r9, ip, r7
 718 0490 8C46     		mov	ip, r1
 719 0492 0C99     		ldr	r1, [sp, #48]
 720 0494 0B96     		str	r6, [sp, #44]
 721              		.loc 1 176 0
 722 0496 4440     		eors	r4, r4, r0
 723              		.loc 1 174 0
 724 0498 4FEAB50E 		ror	lr, r5, #2
 725 049c 8CEA010C 		eor	ip, ip, r1
 726              		.loc 1 176 0
 727 04a0 4FEAF471 		ror	r1, r4, #31
 728 04a4 0846     		mov	r0, r1
 729              		.loc 1 175 0
 730 04a6 8EEA0B05 		eor	r5, lr, fp
 731              	.LVL19:
 732 04aa 0699     		ldr	r1, [sp, #24]
 733 04ac 0C90     		str	r0, [sp, #48]
 734 04ae 05EA0A05 		and	r5, r5, r10
 735 04b2 8CEA010C 		eor	ip, ip, r1
 736 04b6 85EA0B01 		eor	r1, r5, fp
 737 04ba 049D     		ldr	r5, [sp, #16]
 738 04bc 4244     		add	r2, r2, r8
 739              	.LVL20:
ARM GAS  C:\Users\jo\AppData\Local\Temp\ccJopvHE.s 			page 14


 740 04be A846     		mov	r8, r5
 741 04c0 029D     		ldr	r5, [sp, #8]
 742 04c2 1E44     		add	r6, r6, r3
 743 04c4 3E44     		add	r6, r6, r7
 744 04c6 88EA0504 		eor	r4, r8, r5
 745 04ca 079F     		ldr	r7, [sp, #28]
 746              	.LVL21:
 747              		.loc 1 177 0
 748 04cc 019D     		ldr	r5, [sp, #4]
 749 04ce 9144     		add	r9, r9, r2
 750              		.loc 1 175 0
 751 04d0 4FEABA02 		ror	r2, r10, #2
 752              		.loc 1 174 0
 753 04d4 09EBFA69 		add	r9, r9, r10, ror #27
 754              	.LVL22:
 755              		.loc 1 177 0
 756 04d8 8CEA050C 		eor	ip, ip, r5
 757              		.loc 1 176 0
 758 04dc 82EA0E0A 		eor	r10, r2, lr
 759              	.LVL23:
 760 04e0 0546     		mov	r5, r0
 761 04e2 7C40     		eors	r4, r4, r7
 762              		.loc 1 178 0
 763 04e4 0B9F     		ldr	r7, [sp, #44]
 764              		.loc 1 176 0
 765 04e6 0AEA090A 		and	r10, r10, r9
 766 04ea 1D44     		add	r5, r5, r3
 767              		.loc 1 177 0
 768 04ec 4FEAFC7C 		ror	ip, ip, #31
 769 04f0 CDF808C0 		str	ip, [sp, #8]
 770 04f4 5D44     		add	r5, r5, fp
 771              		.loc 1 176 0
 772 04f6 8AEA0E00 		eor	r0, r10, lr
 773              		.loc 1 178 0
 774 04fa 7C40     		eors	r4, r4, r7
 775 04fc 0D9F     		ldr	r7, [sp, #52]
 776 04fe 2844     		add	r0, r0, r5
 777 0500 029D     		ldr	r5, [sp, #8]
 778 0502 B846     		mov	r8, r7
 779 0504 3144     		add	r1, r1, r6
 780 0506 039F     		ldr	r7, [sp, #12]
 781              		.loc 1 176 0
 782 0508 4FEAB906 		ror	r6, r9, #2
 783              		.loc 1 175 0
 784 050c 01EBF961 		add	r1, r1, r9, ror #27
 785              	.LVL24:
 786              		.loc 1 178 0
 787 0510 4FEAF474 		ror	r4, r4, #31
 788 0514 05EB0309 		add	r9, r5, r3
 789              	.LVL25:
 790 0518 089D     		ldr	r5, [sp, #32]
 791 051a 0394     		str	r4, [sp, #12]
 792 051c 88EA0707 		eor	r7, r8, r7
 793              		.loc 1 179 0
 794 0520 0C9C     		ldr	r4, [sp, #48]
 795              		.loc 1 177 0
 796 0522 86EA020C 		eor	ip, r6, r2
ARM GAS  C:\Users\jo\AppData\Local\Temp\ccJopvHE.s 			page 15


 797 0526 6F40     		eors	r7, r7, r5
 798 0528 0CEA010C 		and	ip, ip, r1
 799              		.loc 1 179 0
 800 052c 6740     		eors	r7, r7, r4
 801 052e 0F9C     		ldr	r4, [sp, #60]
 802              		.loc 1 177 0
 803 0530 4FEAB10B 		ror	fp, r1, #2
 804              	.LVL26:
 805              		.loc 1 176 0
 806 0534 00EBF160 		add	r0, r0, r1, ror #27
 807              	.LVL27:
 808              		.loc 1 177 0
 809 0538 8CEA0208 		eor	r8, ip, r2
 810 053c 09EB0E01 		add	r1, r9, lr
 811              	.LVL28:
 812 0540 8844     		add	r8, r8, r1
 813 0542 A646     		mov	lr, r4
 814              	.LVL29:
 815 0544 0399     		ldr	r1, [sp, #12]
 816 0546 049C     		ldr	r4, [sp, #16]
 817              		.loc 1 178 0
 818 0548 8BEA0605 		eor	r5, fp, r6
 819 054c 1944     		add	r1, r1, r3
 820 054e 8EEA040E 		eor	lr, lr, r4
 821 0552 05EA0004 		and	r4, r5, r0
 822              		.loc 1 179 0
 823 0556 4FEAF775 		ror	r5, r7, #31
 824 055a 099F     		ldr	r7, [sp, #36]
 825 055c 0495     		str	r5, [sp, #16]
 826              		.loc 1 178 0
 827 055e 4FEAB00A 		ror	r10, r0, #2
 828 0562 109D     		ldr	r5, [sp, #64]
 829              		.loc 1 177 0
 830 0564 08EBF068 		add	r8, r8, r0, ror #27
 831 0568 8818     		adds	r0, r1, r2
 832              	.LVL30:
 833              		.loc 1 187 0
 834 056a 0299     		ldr	r1, [sp, #8]
 835 056c 8EEA070E 		eor	lr, lr, r7
 836              	.LVL31:
 837 0570 AC46     		mov	ip, r5
 838 0572 8EEA010E 		eor	lr, lr, r1
 839 0576 0D9D     		ldr	r5, [sp, #52]
 840 0578 0A99     		ldr	r1, [sp, #40]
 841 057a 049A     		ldr	r2, [sp, #16]
 842              	.LVL32:
 843 057c 8CEA0507 		eor	r7, ip, r5
 844              		.loc 1 178 0
 845 0580 84EA0605 		eor	r5, r4, r6
 846 0584 D418     		adds	r4, r2, r3
 847 0586 01E0     		b	.L8
 848              	.L9:
 849              		.align	2
 850              	.L7:
 851 0588 9979825A 		.word	1518500249
 852              	.L8:
 853              		.loc 1 188 0
ARM GAS  C:\Users\jo\AppData\Local\Temp\ccJopvHE.s 			page 16


 854 058c 039A     		ldr	r2, [sp, #12]
 855 058e 4F40     		eors	r7, r7, r1
 856 0590 5740     		eors	r7, r7, r2
 857 0592 0F99     		ldr	r1, [sp, #60]
 858 0594 059A     		ldr	r2, [sp, #20]
 859 0596 3444     		add	r4, r4, r6
 860 0598 4FEAF776 		ror	r6, r7, #31
 861              	.LVL33:
 862 059c 3346     		mov	r3, r6
 863 059e 019E     		ldr	r6, [sp, #4]
 864 05a0 069F     		ldr	r7, [sp, #24]
 865 05a2 0D93     		str	r3, [sp, #52]
 866 05a4 82EA010C 		eor	ip, r2, r1
 867 05a8 8CEA060C 		eor	ip, ip, r6
 868 05ac D64A     		ldr	r2, .L10
 869              		.loc 1 189 0
 870 05ae 049E     		ldr	r6, [sp, #16]
 871              		.loc 1 187 0
 872 05b0 4FEAFE7E 		ror	lr, lr, #31
 873              		.loc 1 179 0
 874 05b4 8AEA0B09 		eor	r9, r10, fp
 875 05b8 7244     		add	r2, lr, r2
 876 05ba 09EA0809 		and	r9, r9, r8
 877              		.loc 1 189 0
 878 05be 8CEA060C 		eor	ip, ip, r6
 879 05c2 109E     		ldr	r6, [sp, #64]
 880              		.loc 1 179 0
 881 05c4 89EA0B09 		eor	r9, r9, fp
 882 05c8 9344     		add	fp, fp, r2
 883              	.LVL34:
 884 05ca 0B9A     		ldr	r2, [sp, #44]
 885 05cc 7740     		eors	r7, r7, r6
 886 05ce 0544     		add	r5, r5, r0
 887 05d0 5740     		eors	r7, r7, r2
 888 05d2 CD4E     		ldr	r6, .L10
 889 05d4 079A     		ldr	r2, [sp, #28]
 890 05d6 CD48     		ldr	r0, .L10+4
 891              		.loc 1 178 0
 892 05d8 05EBF861 		add	r1, r5, r8, ror #27
 893              	.LVL35:
 894              		.loc 1 189 0
 895 05dc 4FEAFC7C 		ror	ip, ip, #31
 896              		.loc 1 179 0
 897 05e0 4FEAB808 		ror	r8, r8, #2
 898              	.LVL36:
 899 05e4 88EA0A05 		eor	r5, r8, r10
 900 05e8 9E19     		adds	r6, r3, r6
 901              		.loc 1 189 0
 902 05ea 6346     		mov	r3, ip
 903 05ec 9446     		mov	ip, r2
 904 05ee 059A     		ldr	r2, [sp, #20]
 905 05f0 0F93     		str	r3, [sp, #60]
 906              		.loc 1 187 0
 907 05f2 4D40     		eors	r5, r5, r1
 908 05f4 8CEA020C 		eor	ip, ip, r2
 909 05f8 0BEB0502 		add	r2, fp, r5
 910 05fc 06EB0A05 		add	r5, r6, r10
ARM GAS  C:\Users\jo\AppData\Local\Temp\ccJopvHE.s 			page 17


 911 0600 0C9E     		ldr	r6, [sp, #48]
 912 0602 A144     		add	r9, r9, r4
 913 0604 8CEA060C 		eor	ip, ip, r6
 914 0608 4FEAB104 		ror	r4, r1, #2
 915 060c 089E     		ldr	r6, [sp, #32]
 916              		.loc 1 179 0
 917 060e 09EBF169 		add	r9, r9, r1, ror #27
 918              	.LVL37:
 919              		.loc 1 190 0
 920 0612 87EA0E07 		eor	r7, r7, lr
 921 0616 84EA0801 		eor	r1, r4, r8
 922              	.LVL38:
 923              		.loc 1 188 0
 924 061a 81EA0901 		eor	r1, r1, r9
 925              		.loc 1 190 0
 926 061e 4FEAF777 		ror	r7, r7, #31
 927 0622 B246     		mov	r10, r6
 928              	.LVL39:
 929 0624 069E     		ldr	r6, [sp, #24]
 930 0626 2944     		add	r1, r1, r5
 931 0628 03F1DD45 		add	r5, r3, #1853882368
 932 062c 3B46     		mov	r3, r7
 933              		.loc 1 191 0
 934 062e 0D9F     		ldr	r7, [sp, #52]
 935 0630 8AEA060A 		eor	r10, r10, r6
 936 0634 029E     		ldr	r6, [sp, #8]
 937 0636 8CEA070C 		eor	ip, ip, r7
 938              		.loc 1 192 0
 939 063a 0F9F     		ldr	r7, [sp, #60]
 940 063c 8AEA060A 		eor	r10, r10, r6
 941 0640 8AEA070A 		eor	r10, r10, r7
 942 0644 099F     		ldr	r7, [sp, #36]
 943 0646 B04E     		ldr	r6, .L10
 944              		.loc 1 191 0
 945 0648 4FEAFC7C 		ror	ip, ip, #31
 946 064c 05F5B305 		add	r5, r5, #5865472
 947 0650 CDF814C0 		str	ip, [sp, #20]
 948              		.loc 1 188 0
 949 0654 4FEAB90B 		ror	fp, r9, #2
 950 0658 BC46     		mov	ip, r7
 951 065a 05F5D745 		add	r5, r5, #27520
 952 065e 079F     		ldr	r7, [sp, #28]
 953              		.loc 1 187 0
 954 0660 02EBF962 		add	r2, r2, r9, ror #27
 955              	.LVL40:
 956 0664 2135     		adds	r5, r5, #33
 957 0666 8BEA0409 		eor	r9, fp, r4
 958              	.LVL41:
 959              		.loc 1 188 0
 960 066a 01EBF261 		add	r1, r1, r2, ror #27
 961              	.LVL42:
 962 066e 4544     		add	r5, r5, r8
 963              		.loc 1 189 0
 964 0670 89EA0209 		eor	r9, r9, r2
 965 0674 8CEA070C 		eor	ip, ip, r7
 966 0678 4FEAB202 		ror	r2, r2, #2
 967              	.LVL43:
ARM GAS  C:\Users\jo\AppData\Local\Temp\ccJopvHE.s 			page 18


 968 067c 039F     		ldr	r7, [sp, #12]
 969 067e A944     		add	r9, r9, r5
 970 0680 9E19     		adds	r6, r3, r6
 971 0682 82EA0B05 		eor	r5, r2, fp
 972              		.loc 1 190 0
 973 0686 4FEAB108 		ror	r8, r1, #2
 974              	.LVL44:
 975              		.loc 1 189 0
 976 068a 09EBF169 		add	r9, r9, r1, ror #27
 977              	.LVL45:
 978 068e 2644     		add	r6, r6, r4
 979              		.loc 1 190 0
 980 0690 6940     		eors	r1, r1, r5
 981              	.LVL46:
 982 0692 8CEA070C 		eor	ip, ip, r7
 983 0696 059D     		ldr	r5, [sp, #20]
 984 0698 0A9F     		ldr	r7, [sp, #40]
 985 069a 9B4C     		ldr	r4, .L10
 986              	.LVL47:
 987              		.loc 1 192 0
 988 069c 4FEAFA7A 		ror	r10, r10, #31
 989 06a0 CDF818A0 		str	r10, [sp, #24]
 990              	.LVL48:
 991 06a4 2C19     		adds	r4, r5, r4
 992 06a6 BA46     		mov	r10, r7
 993 06a8 089F     		ldr	r7, [sp, #32]
 994 06aa A344     		add	fp, fp, r4
 995              	.LVL49:
 996 06ac 049C     		ldr	r4, [sp, #16]
 997 06ae 8AEA070A 		eor	r10, r10, r7
 998 06b2 8AEA040A 		eor	r10, r10, r4
 999              		.loc 1 194 0
 1000 06b6 059C     		ldr	r4, [sp, #20]
 1001 06b8 069F     		ldr	r7, [sp, #24]
 1002              		.loc 1 193 0
 1003 06ba 8CEA030C 		eor	ip, ip, r3
 1004              		.loc 1 194 0
 1005 06be 8AEA040A 		eor	r10, r10, r4
 1006 06c2 019C     		ldr	r4, [sp, #4]
 1007              		.loc 1 193 0
 1008 06c4 4FEAFC7C 		ror	ip, ip, #31
 1009 06c8 88EA0205 		eor	r5, r8, r2
 1010 06cc CDF81CC0 		str	ip, [sp, #28]
 1011 06d0 A446     		mov	ip, r4
 1012 06d2 099C     		ldr	r4, [sp, #36]
 1013              		.loc 1 191 0
 1014 06d4 85EA0905 		eor	r5, r5, r9
 1015 06d8 5D44     		add	r5, r5, fp
 1016 06da 8CEA040C 		eor	ip, ip, r4
 1017 06de DFF828B2 		ldr	fp, .L10
 1018 06e2 8CEA0E0C 		eor	ip, ip, lr
 1019 06e6 BB44     		add	fp, r7, fp
 1020              		.loc 1 195 0
 1021 06e8 8CEA070C 		eor	ip, ip, r7
 1022 06ec 0B9F     		ldr	r7, [sp, #44]
 1023              		.loc 1 194 0
 1024 06ee 4FEAFA7A 		ror	r10, r10, #31
ARM GAS  C:\Users\jo\AppData\Local\Temp\ccJopvHE.s 			page 19


 1025 06f2 CDF820A0 		str	r10, [sp, #32]
 1026 06f6 BA46     		mov	r10, r7
 1027 06f8 0A9F     		ldr	r7, [sp, #40]
 1028 06fa 8AEA070A 		eor	r10, r10, r7
 1029 06fe 0D9F     		ldr	r7, [sp, #52]
 1030 0700 0E44     		add	r6, r6, r1
 1031              		.loc 1 190 0
 1032 0702 06EBF966 		add	r6, r6, r9, ror #27
 1033              	.LVL50:
 1034              		.loc 1 191 0
 1035 0706 4FEAB901 		ror	r1, r9, #2
 1036 070a 8AEA070A 		eor	r10, r10, r7
 1037 070e 0C9F     		ldr	r7, [sp, #48]
 1038 0710 05EBF664 		add	r4, r5, r6, ror #27
 1039              	.LVL51:
 1040 0714 81EA0809 		eor	r9, r1, r8
 1041 0718 079D     		ldr	r5, [sp, #28]
 1042 071a 5A44     		add	r2, r2, fp
 1043              	.LVL52:
 1044              		.loc 1 195 0
 1045 071c 4FEAFC7C 		ror	ip, ip, #31
 1046 0720 DFF8E4B1 		ldr	fp, .L10
 1047 0724 CDF824C0 		str	ip, [sp, #36]
 1048              		.loc 1 192 0
 1049 0728 89EA0609 		eor	r9, r9, r6
 1050 072c BC46     		mov	ip, r7
 1051 072e 4FEAB606 		ror	r6, r6, #2
 1052              	.LVL53:
 1053 0732 019F     		ldr	r7, [sp, #4]
 1054 0734 4A44     		add	r2, r2, r9
 1055 0736 AB44     		add	fp, r5, fp
 1056 0738 86EA0105 		eor	r5, r6, r1
 1057 073c 02EBF462 		add	r2, r2, r4, ror #27
 1058              	.LVL54:
 1059              		.loc 1 193 0
 1060 0740 4FEAB409 		ror	r9, r4, #2
 1061 0744 6540     		eors	r5, r5, r4
 1062 0746 8CEA070C 		eor	ip, ip, r7
 1063 074a 089C     		ldr	r4, [sp, #32]
 1064              	.LVL55:
 1065              		.loc 1 196 0
 1066 074c 079F     		ldr	r7, [sp, #28]
 1067 074e C344     		add	fp, fp, r8
 1068 0750 8AEA070A 		eor	r10, r10, r7
 1069 0754 04F1DD48 		add	r8, r4, #1853882368
 1070              	.LVL56:
 1071 0758 0F9F     		ldr	r7, [sp, #60]
 1072 075a 08F5B308 		add	r8, r8, #5865472
 1073 075e 8CEA070C 		eor	ip, ip, r7
 1074 0762 08F5D748 		add	r8, r8, #27520
 1075              		.loc 1 197 0
 1076 0766 089F     		ldr	r7, [sp, #32]
 1077 0768 89EA0604 		eor	r4, r9, r6
 1078 076c 08F12108 		add	r8, r8, #33
 1079              		.loc 1 194 0
 1080 0770 5440     		eors	r4, r4, r2
 1081 0772 5D44     		add	r5, r5, fp
ARM GAS  C:\Users\jo\AppData\Local\Temp\ccJopvHE.s 			page 20


 1082 0774 4144     		add	r1, r1, r8
 1083              	.LVL57:
 1084              		.loc 1 197 0
 1085 0776 8CEA070C 		eor	ip, ip, r7
 1086 077a 029F     		ldr	r7, [sp, #8]
 1087              		.loc 1 194 0
 1088 077c 4FEAB208 		ror	r8, r2, #2
 1089              		.loc 1 193 0
 1090 0780 05EBF265 		add	r5, r5, r2, ror #27
 1091              	.LVL58:
 1092 0784 2144     		add	r1, r1, r4
 1093 0786 099A     		ldr	r2, [sp, #36]
 1094              	.LVL59:
 1095 0788 5F4C     		ldr	r4, .L10
 1096              		.loc 1 196 0
 1097 078a 4FEAFA7A 		ror	r10, r10, #31
 1098 078e CDF804A0 		str	r10, [sp, #4]
 1099 0792 BA46     		mov	r10, r7
 1100 0794 0B9F     		ldr	r7, [sp, #44]
 1101 0796 1419     		adds	r4, r2, r4
 1102 0798 8AEA070A 		eor	r10, r10, r7
 1103 079c 88EA0902 		eor	r2, r8, r9
 1104 07a0 2644     		add	r6, r6, r4
 1105              	.LVL60:
 1106              		.loc 1 198 0
 1107 07a2 099C     		ldr	r4, [sp, #36]
 1108 07a4 0C9F     		ldr	r7, [sp, #48]
 1109              		.loc 1 195 0
 1110 07a6 6A40     		eors	r2, r2, r5
 1111 07a8 8AEA030A 		eor	r10, r10, r3
 1112 07ac 1644     		add	r6, r6, r2
 1113              		.loc 1 198 0
 1114 07ae 8AEA040A 		eor	r10, r10, r4
 1115 07b2 019A     		ldr	r2, [sp, #4]
 1116 07b4 039C     		ldr	r4, [sp, #12]
 1117 07b6 02F1DD42 		add	r2, r2, #1853882368
 1118 07ba 7C40     		eors	r4, r4, r7
 1119 07bc 059F     		ldr	r7, [sp, #20]
 1120 07be 02F5B302 		add	r2, r2, #5865472
 1121              		.loc 1 197 0
 1122 07c2 4FEAFC7C 		ror	ip, ip, #31
 1123 07c6 7C40     		eors	r4, r4, r7
 1124 07c8 02F5D742 		add	r2, r2, #27520
 1125 07cc 049F     		ldr	r7, [sp, #16]
 1126 07ce CDF828C0 		str	ip, [sp, #40]
 1127              	.LVL61:
 1128 07d2 2132     		adds	r2, r2, #33
 1129              		.loc 1 198 0
 1130 07d4 4FEAFA7A 		ror	r10, r10, #31
 1131              		.loc 1 194 0
 1132 07d8 01EBF561 		add	r1, r1, r5, ror #27
 1133              	.LVL62:
 1134              		.loc 1 198 0
 1135 07dc CDF82CA0 		str	r10, [sp, #44]
 1136              		.loc 1 195 0
 1137 07e0 4FEAB505 		ror	r5, r5, #2
 1138              	.LVL63:
ARM GAS  C:\Users\jo\AppData\Local\Temp\ccJopvHE.s 			page 21


 1139 07e4 9144     		add	r9, r9, r2
 1140              	.LVL64:
 1141 07e6 BA46     		mov	r10, r7
 1142 07e8 0A9A     		ldr	r2, [sp, #40]
 1143 07ea 029F     		ldr	r7, [sp, #8]
 1144 07ec 85EA080B 		eor	fp, r5, r8
 1145 07f0 06EBF166 		add	r6, r6, r1, ror #27
 1146              	.LVL65:
 1147              		.loc 1 196 0
 1148 07f4 4FEAB10C 		ror	ip, r1, #2
 1149 07f8 8AEA070A 		eor	r10, r10, r7
 1150 07fc 8BEA0101 		eor	r1, fp, r1
 1151              	.LVL66:
 1152              		.loc 1 199 0
 1153 0800 019F     		ldr	r7, [sp, #4]
 1154 0802 02F1DD4B 		add	fp, r2, #1853882368
 1155 0806 0BF5B30B 		add	fp, fp, #5865472
 1156 080a 7C40     		eors	r4, r4, r7
 1157 080c 0BF5D74B 		add	fp, fp, #27520
 1158 0810 069F     		ldr	r7, [sp, #24]
 1159 0812 8CEA0502 		eor	r2, ip, r5
 1160 0816 0BF1210B 		add	fp, fp, #33
 1161 081a 4FEAF474 		ror	r4, r4, #31
 1162              		.loc 1 197 0
 1163 081e 7240     		eors	r2, r2, r6
 1164              		.loc 1 199 0
 1165 0820 0294     		str	r4, [sp, #8]
 1166              	.LVL67:
 1167 0822 4944     		add	r1, r1, r9
 1168              		.loc 1 200 0
 1169 0824 0A9C     		ldr	r4, [sp, #40]
 1170 0826 D844     		add	r8, r8, fp
 1171              	.LVL68:
 1172              		.loc 1 196 0
 1173 0828 01EBF661 		add	r1, r1, r6, ror #27
 1174              	.LVL69:
 1175              		.loc 1 197 0
 1176 082c 4FEAB60B 		ror	fp, r6, #2
 1177 0830 8AEA070A 		eor	r10, r10, r7
 1178 0834 0B9E     		ldr	r6, [sp, #44]
 1179              	.LVL70:
 1180 0836 039F     		ldr	r7, [sp, #12]
 1181 0838 9044     		add	r8, r8, r2
 1182 083a 334A     		ldr	r2, .L10
 1183              		.loc 1 200 0
 1184 083c 8AEA040A 		eor	r10, r10, r4
 1185 0840 B218     		adds	r2, r6, r2
 1186 0842 4FEAFA79 		ror	r9, r10, #31
 1187 0846 CDF80C90 		str	r9, [sp, #12]
 1188              	.LVL71:
 1189 084a 8BEA0C06 		eor	r6, fp, ip
 1190 084e 1544     		add	r5, r5, r2
 1191              	.LVL72:
 1192 0850 079A     		ldr	r2, [sp, #28]
 1193 0852 8EEA0704 		eor	r4, lr, r7
 1194              		.loc 1 198 0
 1195 0856 4E40     		eors	r6, r6, r1
ARM GAS  C:\Users\jo\AppData\Local\Temp\ccJopvHE.s 			page 22


 1196 0858 84EA020A 		eor	r10, r4, r2
 1197 085c 3544     		add	r5, r5, r6
 1198 085e 2A4C     		ldr	r4, .L10
 1199 0860 029E     		ldr	r6, [sp, #8]
 1200 0862 0D9F     		ldr	r7, [sp, #52]
 1201              	.LVL73:
 1202 0864 3419     		adds	r4, r6, r4
 1203              		.loc 1 201 0
 1204 0866 0B9E     		ldr	r6, [sp, #44]
 1205 0868 8AEA0606 		eor	r6, r10, r6
 1206 086c BA46     		mov	r10, r7
 1207 086e 049F     		ldr	r7, [sp, #16]
 1208              		.loc 1 197 0
 1209 0870 08EBF168 		add	r8, r8, r1, ror #27
 1210              	.LVL74:
 1211 0874 8AEA070A 		eor	r10, r10, r7
 1212              		.loc 1 198 0
 1213 0878 4FEAB101 		ror	r1, r1, #2
 1214              	.LVL75:
 1215 087c 039F     		ldr	r7, [sp, #12]
 1216 087e 81EA0B02 		eor	r2, r1, fp
 1217 0882 05EBF865 		add	r5, r5, r8, ror #27
 1218              	.LVL76:
 1219              		.loc 1 199 0
 1220 0886 4FEAB809 		ror	r9, r8, #2
 1221 088a 82EA0808 		eor	r8, r2, r8
 1222              	.LVL77:
 1223 088e 07F1DD42 		add	r2, r7, #1853882368
 1224 0892 02F5B302 		add	r2, r2, #5865472
 1225              		.loc 1 201 0
 1226 0896 4FEAF676 		ror	r6, r6, #31
 1227 089a 02F5D742 		add	r2, r2, #27520
 1228 089e 0496     		str	r6, [sp, #16]
 1229              	.LVL78:
 1230 08a0 2132     		adds	r2, r2, #33
 1231 08a2 089E     		ldr	r6, [sp, #32]
 1232 08a4 9344     		add	fp, fp, r2
 1233              	.LVL79:
 1234              		.loc 1 202 0
 1235 08a6 029A     		ldr	r2, [sp, #8]
 1236 08a8 A444     		add	ip, ip, r4
 1237              	.LVL80:
 1238 08aa 8AEA060A 		eor	r10, r10, r6
 1239 08ae 0F9E     		ldr	r6, [sp, #60]
 1240 08b0 89EA0104 		eor	r4, r9, r1
 1241 08b4 E044     		add	r8, r8, ip
 1242 08b6 8AEA020A 		eor	r10, r10, r2
 1243 08ba 099A     		ldr	r2, [sp, #36]
 1244 08bc DFF848C0 		ldr	ip, .L10
 1245              		.loc 1 199 0
 1246 08c0 08EBF568 		add	r8, r8, r5, ror #27
 1247              	.LVL81:
 1248 08c4 86EA0E0E 		eor	lr, r6, lr
 1249              	.LVL82:
 1250              		.loc 1 200 0
 1251 08c8 6C40     		eors	r4, r4, r5
 1252 08ca 4FEAB506 		ror	r6, r5, #2
ARM GAS  C:\Users\jo\AppData\Local\Temp\ccJopvHE.s 			page 23


 1253 08ce 049D     		ldr	r5, [sp, #16]
 1254              	.LVL83:
 1255 08d0 8EEA020E 		eor	lr, lr, r2
 1256 08d4 AC44     		add	ip, r5, ip
 1257              		.loc 1 203 0
 1258 08d6 8EEA070E 		eor	lr, lr, r7
 1259 08da 86EA0905 		eor	r5, r6, r9
 1260 08de 0D9F     		ldr	r7, [sp, #52]
 1261              	.LVL84:
 1262              		.loc 1 201 0
 1263 08e0 85EA0802 		eor	r2, r5, r8
 1264              		.loc 1 202 0
 1265 08e4 4FEAFA7A 		ror	r10, r10, #31
 1266 08e8 019D     		ldr	r5, [sp, #4]
 1267 08ea CDF830A0 		str	r10, [sp, #48]
 1268              	.LVL85:
 1269 08ee 6144     		add	r1, r1, ip
 1270              	.LVL86:
 1271 08f0 83EA070A 		eor	r10, r3, r7
 1272 08f4 8AEA050A 		eor	r10, r10, r5
 1273 08f8 1144     		add	r1, r1, r2
 1274 08fa 0C9D     		ldr	r5, [sp, #48]
 1275 08fc 024A     		ldr	r2, .L10
 1276 08fe AA18     		adds	r2, r5, r2
 1277              		.loc 1 204 0
 1278 0900 049D     		ldr	r5, [sp, #16]
 1279 0902 8AEA050A 		eor	r10, r10, r5
 1280 0906 03E0     		b	.L11
 1281              	.L12:
 1282              		.align	2
 1283              	.L10:
 1284 0908 A1EBD96E 		.word	1859775393
 1285 090c DCBC1B8F 		.word	-1894007588
 1286              	.L11:
 1287 0910 059D     		ldr	r5, [sp, #20]
 1288 0912 9144     		add	r9, r9, r2
 1289              	.LVL87:
 1290              		.loc 1 203 0
 1291 0914 4FEAFE7E 		ror	lr, lr, #31
 1292 0918 D84A     		ldr	r2, .L13
 1293 091a 7746     		mov	r7, lr
 1294 091c AC46     		mov	ip, r5
 1295 091e 0F9D     		ldr	r5, [sp, #60]
 1296 0920 0F97     		str	r7, [sp, #60]
 1297              	.LVL88:
 1298 0922 BA18     		adds	r2, r7, r2
 1299 0924 5C44     		add	r4, r4, fp
 1300 0926 0A9F     		ldr	r7, [sp, #40]
 1301              		.loc 1 200 0
 1302 0928 04EBF864 		add	r4, r4, r8, ror #27
 1303              	.LVL89:
 1304 092c 8CEA0505 		eor	r5, ip, r5
 1305              	.LVL90:
 1306              		.loc 1 201 0
 1307 0930 4FEAB808 		ror	r8, r8, #2
 1308              	.LVL91:
 1309 0934 88EA060B 		eor	fp, r8, r6
ARM GAS  C:\Users\jo\AppData\Local\Temp\ccJopvHE.s 			page 24


 1310 0938 7D40     		eors	r5, r5, r7
 1311 093a 1644     		add	r6, r6, r2
 1312              	.LVL92:
 1313 093c 069F     		ldr	r7, [sp, #24]
 1314              		.loc 1 205 0
 1315 093e 0C9A     		ldr	r2, [sp, #48]
 1316              		.loc 1 201 0
 1317 0940 01EBF461 		add	r1, r1, r4, ror #27
 1318              	.LVL93:
 1319              		.loc 1 202 0
 1320 0944 4FEAB40E 		ror	lr, r4, #2
 1321 0948 8BEA0404 		eor	r4, fp, r4
 1322              	.LVL94:
 1323 094c 8EEA080C 		eor	ip, lr, r8
 1324              		.loc 1 204 0
 1325 0950 4FEAFA7A 		ror	r10, r10, #31
 1326 0954 7B40     		eors	r3, r3, r7
 1327              	.LVL95:
 1328 0956 4C44     		add	r4, r4, r9
 1329              		.loc 1 205 0
 1330 0958 5540     		eors	r5, r5, r2
 1331 095a 0B9A     		ldr	r2, [sp, #44]
 1332              	.LVL96:
 1333              		.loc 1 204 0
 1334 095c CDF834A0 		str	r10, [sp, #52]
 1335              	.LVL97:
 1336              		.loc 1 203 0
 1337 0960 4FEAB10B 		ror	fp, r1, #2
 1338              		.loc 1 202 0
 1339 0964 04EBF164 		add	r4, r4, r1, ror #27
 1340              	.LVL98:
 1341              		.loc 1 203 0
 1342 0968 8CEA010C 		eor	ip, ip, r1
 1343 096c 1F46     		mov	r7, r3
 1344 096e 0AF1DD41 		add	r1, r10, #1853882368
 1345              	.LVL99:
 1346              		.loc 1 205 0
 1347 0972 4FEAF575 		ror	r5, r5, #31
 1348 0976 5740     		eors	r7, r7, r2
 1349 0978 01F5B301 		add	r1, r1, #5865472
 1350 097c 2A46     		mov	r2, r5
 1351              		.loc 1 206 0
 1352 097e 0F9D     		ldr	r5, [sp, #60]
 1353 0980 DFF8F892 		ldr	r9, .L13
 1354 0984 1092     		str	r2, [sp, #64]
 1355              	.LVL100:
 1356 0986 01F5D741 		add	r1, r1, #27520
 1357 098a 6F40     		eors	r7, r7, r5
 1358 098c 2131     		adds	r1, r1, #33
 1359 098e 8844     		add	r8, r8, r1
 1360              	.LVL101:
 1361 0990 4FEAF771 		ror	r1, r7, #31
 1362 0994 0B46     		mov	r3, r1
 1363 0996 8BEA0E0A 		eor	r10, fp, lr
 1364 099a 0799     		ldr	r1, [sp, #28]
 1365 099c 1193     		str	r3, [sp, #68]
 1366              	.LVL102:
ARM GAS  C:\Users\jo\AppData\Local\Temp\ccJopvHE.s 			page 25


 1367 099e 6644     		add	r6, r6, ip
 1368              		.loc 1 203 0
 1369 09a0 06EBF466 		add	r6, r6, r4, ror #27
 1370              	.LVL103:
 1371              		.loc 1 204 0
 1372 09a4 8AEA040A 		eor	r10, r10, r4
 1373 09a8 4FEAB404 		ror	r4, r4, #2
 1374              	.LVL104:
 1375 09ac 84EA0B07 		eor	r7, r4, fp
 1376 09b0 8C46     		mov	ip, r1
 1377 09b2 D044     		add	r8, r8, r10
 1378 09b4 0599     		ldr	r1, [sp, #20]
 1379              		.loc 1 205 0
 1380 09b6 4FEAB605 		ror	r5, r6, #2
 1381              		.loc 1 204 0
 1382 09ba 08EBF668 		add	r8, r8, r6, ror #27
 1383              	.LVL105:
 1384              		.loc 1 205 0
 1385 09be 7E40     		eors	r6, r6, r7
 1386              	.LVL106:
 1387 09c0 029F     		ldr	r7, [sp, #8]
 1388 09c2 9144     		add	r9, r2, r9
 1389 09c4 8CEA0102 		eor	r2, ip, r1
 1390              	.LVL107:
 1391 09c8 7A40     		eors	r2, r2, r7
 1392 09ca 089F     		ldr	r7, [sp, #32]
 1393 09cc BC46     		mov	ip, r7
 1394 09ce 069F     		ldr	r7, [sp, #24]
 1395 09d0 1946     		mov	r1, r3
 1396 09d2 AA4B     		ldr	r3, .L13
 1397 09d4 8CEA070A 		eor	r10, ip, r7
 1398              		.loc 1 214 0
 1399 09d8 0D9F     		ldr	r7, [sp, #52]
 1400 09da CB18     		adds	r3, r1, r3
 1401 09dc 85EA0401 		eor	r1, r5, r4
 1402              		.loc 1 206 0
 1403 09e0 81EA0801 		eor	r1, r1, r8
 1404              		.loc 1 214 0
 1405 09e4 7A40     		eors	r2, r2, r7
 1406 09e6 5B44     		add	r3, r3, fp
 1407 09e8 039F     		ldr	r7, [sp, #12]
 1408 09ea 0B44     		add	r3, r3, r1
 1409 09ec 4FEAF271 		ror	r1, r2, #31
 1410 09f0 0A46     		mov	r2, r1
 1411              		.loc 1 215 0
 1412 09f2 1099     		ldr	r1, [sp, #64]
 1413 09f4 1292     		str	r2, [sp, #72]
 1414              	.LVL108:
 1415 09f6 8AEA070A 		eor	r10, r10, r7
 1416 09fa CE44     		add	lr, lr, r9
 1417              	.LVL109:
 1418 09fc 8AEA010A 		eor	r10, r10, r1
 1419 0a00 7644     		add	r6, r6, lr
 1420 0a02 1146     		mov	r1, r2
 1421 0a04 4FEAFA7E 		ror	lr, r10, #31
 1422 0a08 099A     		ldr	r2, [sp, #36]
 1423 0a0a CDF814E0 		str	lr, [sp, #20]
ARM GAS  C:\Users\jo\AppData\Local\Temp\ccJopvHE.s 			page 26


 1424 0a0e 0144     		add	r1, r1, r0
 1425 0a10 9646     		mov	lr, r2
 1426 0a12 0C44     		add	r4, r4, r1
 1427              	.LVL110:
 1428 0a14 079A     		ldr	r2, [sp, #28]
 1429 0a16 0599     		ldr	r1, [sp, #20]
 1430 0a18 8EEA020C 		eor	ip, lr, r2
 1431 0a1c 8E46     		mov	lr, r1
 1432 0a1e 0499     		ldr	r1, [sp, #16]
 1433              		.loc 1 205 0
 1434 0a20 06EBF866 		add	r6, r6, r8, ror #27
 1435              	.LVL111:
 1436              		.loc 1 206 0
 1437 0a24 03EBF663 		add	r3, r3, r6, ror #27
 1438              	.LVL112:
 1439              		.loc 1 214 0
 1440 0a28 4FEAB607 		ror	r7, r6, #2
 1441 0a2c 8CEA010C 		eor	ip, ip, r1
 1442 0a30 0199     		ldr	r1, [sp, #4]
 1443              		.loc 1 206 0
 1444 0a32 4FEAB808 		ror	r8, r8, #2
 1445              	.LVL113:
 1446              		.loc 1 215 0
 1447 0a36 43EA070A 		orr	r10, r3, r7
 1448 0a3a 0AEA0809 		and	r9, r10, r8
 1449 0a3e 8A46     		mov	r10, r1
 1450 0a40 0899     		ldr	r1, [sp, #32]
 1451              		.loc 1 214 0
 1452 0a42 46EA080B 		orr	fp, r6, r8
 1453 0a46 8AEA010A 		eor	r10, r10, r1
 1454              		.loc 1 216 0
 1455 0a4a 1199     		ldr	r1, [sp, #68]
 1456              		.loc 1 214 0
 1457 0a4c 0BEA050B 		and	fp, fp, r5
 1458 0a50 06EA0806 		and	r6, r6, r8
 1459              	.LVL114:
 1460 0a54 4BEA0606 		orr	r6, fp, r6
 1461              		.loc 1 216 0
 1462 0a58 8CEA010C 		eor	ip, ip, r1
 1463 0a5c 04EBF364 		add	r4, r4, r3, ror #27
 1464 0a60 0C99     		ldr	r1, [sp, #48]
 1465              		.loc 1 214 0
 1466 0a62 3444     		add	r4, r4, r6
 1467              	.LVL115:
 1468              		.loc 1 217 0
 1469 0a64 129E     		ldr	r6, [sp, #72]
 1470 0a66 8644     		add	lr, lr, r0
 1471 0a68 8AEA010A 		eor	r10, r10, r1
 1472              		.loc 1 215 0
 1473 0a6c 03EA0702 		and	r2, r3, r7
 1474              		.loc 1 217 0
 1475 0a70 8AEA060A 		eor	r10, r10, r6
 1476 0a74 7544     		add	r5, r5, lr
 1477              	.LVL116:
 1478              		.loc 1 216 0
 1479 0a76 4FEAFC7E 		ror	lr, ip, #31
 1480              		.loc 1 215 0
ARM GAS  C:\Users\jo\AppData\Local\Temp\ccJopvHE.s 			page 27


 1481 0a7a 49EA0209 		orr	r9, r9, r2
 1482              		.loc 1 217 0
 1483 0a7e 4FEAFA7C 		ror	ip, r10, #31
 1484              		.loc 1 216 0
 1485 0a82 7246     		mov	r2, lr
 1486              		.loc 1 217 0
 1487 0a84 CDF818C0 		str	ip, [sp, #24]
 1488              	.LVL117:
 1489 0a88 0892     		str	r2, [sp, #32]
 1490              	.LVL118:
 1491 0a8a 0244     		add	r2, r2, r0
 1492 0a8c 0999     		ldr	r1, [sp, #36]
 1493 0a8e 0A9E     		ldr	r6, [sp, #40]
 1494 0a90 9044     		add	r8, r8, r2
 1495              	.LVL119:
 1496 0a92 069A     		ldr	r2, [sp, #24]
 1497              		.loc 1 215 0
 1498 0a94 4FEAB303 		ror	r3, r3, #2
 1499              	.LVL120:
 1500 0a98 86EA010C 		eor	ip, r6, r1
 1501 0a9c 1118     		adds	r1, r2, r0
 1502 0a9e 0F9A     		ldr	r2, [sp, #60]
 1503              		.loc 1 216 0
 1504 0aa0 44EA030A 		orr	r10, r4, r3
 1505 0aa4 4D44     		add	r5, r5, r9
 1506              		.loc 1 215 0
 1507 0aa6 05EBF465 		add	r5, r5, r4, ror #27
 1508              	.LVL121:
 1509              		.loc 1 216 0
 1510 0aaa 4FEAB40E 		ror	lr, r4, #2
 1511 0aae 0AEA0706 		and	r6, r10, r7
 1512 0ab2 1C40     		ands	r4, r4, r3
 1513              	.LVL122:
 1514 0ab4 8CEA020C 		eor	ip, ip, r2
 1515 0ab8 0B9A     		ldr	r2, [sp, #44]
 1516 0aba 3443     		orrs	r4, r4, r6
 1517              		.loc 1 218 0
 1518 0abc 059E     		ldr	r6, [sp, #20]
 1519 0abe 9246     		mov	r10, r2
 1520 0ac0 019A     		ldr	r2, [sp, #4]
 1521 0ac2 08EBF568 		add	r8, r8, r5, ror #27
 1522 0ac6 8CEA060C 		eor	ip, ip, r6
 1523 0aca 0D9E     		ldr	r6, [sp, #52]
 1524              		.loc 1 216 0
 1525 0acc A044     		add	r8, r8, r4
 1526 0ace 8AEA020A 		eor	r10, r10, r2
 1527              		.loc 1 219 0
 1528 0ad2 089C     		ldr	r4, [sp, #32]
 1529 0ad4 8AEA060A 		eor	r10, r10, r6
 1530 0ad8 8AEA040A 		eor	r10, r10, r4
 1531              		.loc 1 218 0
 1532 0adc 4FEAFC7C 		ror	ip, ip, #31
 1533 0ae0 029C     		ldr	r4, [sp, #8]
 1534 0ae2 0A9E     		ldr	r6, [sp, #40]
 1535 0ae4 0F44     		add	r7, r7, r1
 1536              	.LVL123:
 1537 0ae6 6146     		mov	r1, ip
ARM GAS  C:\Users\jo\AppData\Local\Temp\ccJopvHE.s 			page 28


 1538              		.loc 1 219 0
 1539 0ae8 4FEAFA7C 		ror	ip, r10, #31
 1540 0aec CDF804C0 		str	ip, [sp, #4]
 1541              		.loc 1 217 0
 1542 0af0 45EA0E09 		orr	r9, r5, lr
 1543              	.LVL124:
 1544 0af4 0991     		str	r1, [sp, #36]
 1545 0af6 84EA060C 		eor	ip, r4, r6
 1546 0afa 0144     		add	r1, r1, r0
 1547 0afc 019E     		ldr	r6, [sp, #4]
 1548 0afe 109C     		ldr	r4, [sp, #64]
 1549 0b00 05EA0E02 		and	r2, r5, lr
 1550 0b04 09EA0309 		and	r9, r9, r3
 1551 0b08 4FEAB505 		ror	r5, r5, #2
 1552              	.LVL125:
 1553 0b0c 0B44     		add	r3, r3, r1
 1554              	.LVL126:
 1555 0b0e 0399     		ldr	r1, [sp, #12]
 1556 0b10 49EA0209 		orr	r9, r9, r2
 1557 0b14 0644     		add	r6, r6, r0
 1558              		.loc 1 218 0
 1559 0b16 48EA0502 		orr	r2, r8, r5
 1560 0b1a 02EA0E02 		and	r2, r2, lr
 1561 0b1e 8A46     		mov	r10, r1
 1562 0b20 B644     		add	lr, lr, r6
 1563              	.LVL127:
 1564 0b22 0B99     		ldr	r1, [sp, #44]
 1565              		.loc 1 220 0
 1566 0b24 069E     		ldr	r6, [sp, #24]
 1567 0b26 8CEA040C 		eor	ip, ip, r4
 1568 0b2a 8CEA060C 		eor	ip, ip, r6
 1569 0b2e 119E     		ldr	r6, [sp, #68]
 1570              		.loc 1 221 0
 1571 0b30 099C     		ldr	r4, [sp, #36]
 1572 0b32 8AEA010A 		eor	r10, r10, r1
 1573 0b36 4F44     		add	r7, r7, r9
 1574 0b38 8AEA060A 		eor	r10, r10, r6
 1575              		.loc 1 217 0
 1576 0b3c 07EBF867 		add	r7, r7, r8, ror #27
 1577              	.LVL128:
 1578              		.loc 1 218 0
 1579 0b40 4FEAB80B 		ror	fp, r8, #2
 1580              		.loc 1 221 0
 1581 0b44 8AEA040A 		eor	r10, r10, r4
 1582              		.loc 1 218 0
 1583 0b48 08EA0508 		and	r8, r8, r5
 1584              	.LVL129:
 1585              		.loc 1 220 0
 1586 0b4c 4FEAFC7C 		ror	ip, ip, #31
 1587              		.loc 1 218 0
 1588 0b50 42EA0808 		orr	r8, r2, r8
 1589              		.loc 1 220 0
 1590 0b54 6246     		mov	r2, ip
 1591              		.loc 1 221 0
 1592 0b56 4FEAFA7C 		ror	ip, r10, #31
 1593 0b5a CDF81CC0 		str	ip, [sp, #28]
 1594 0b5e 0A92     		str	r2, [sp, #40]
ARM GAS  C:\Users\jo\AppData\Local\Temp\ccJopvHE.s 			page 29


 1595 0b60 049C     		ldr	r4, [sp, #16]
 1596 0b62 9446     		mov	ip, r2
 1597 0b64 029A     		ldr	r2, [sp, #8]
 1598              		.loc 1 219 0
 1599 0b66 47EA0B09 		orr	r9, r7, fp
 1600 0b6a 07EA0B01 		and	r1, r7, fp
 1601 0b6e 09EA0509 		and	r9, r9, r5
 1602 0b72 5440     		eors	r4, r4, r2
 1603 0b74 079A     		ldr	r2, [sp, #28]
 1604 0b76 49EA0109 		orr	r9, r9, r1
 1605 0b7a CE44     		add	lr, lr, r9
 1606 0b7c 02EB0009 		add	r9, r2, r0
 1607 0b80 129A     		ldr	r2, [sp, #72]
 1608 0b82 5440     		eors	r4, r4, r2
 1609 0b84 0C9A     		ldr	r2, [sp, #48]
 1610 0b86 8444     		add	ip, ip, r0
 1611 0b88 03EBF763 		add	r3, r3, r7, ror #27
 1612              		.loc 1 218 0
 1613 0b8c 4344     		add	r3, r3, r8
 1614              	.LVL130:
 1615              		.loc 1 219 0
 1616 0b8e 4FEAB707 		ror	r7, r7, #2
 1617              	.LVL131:
 1618 0b92 6544     		add	r5, r5, ip
 1619              	.LVL132:
 1620 0b94 9446     		mov	ip, r2
 1621 0b96 039A     		ldr	r2, [sp, #12]
 1622 0b98 0EEBF36E 		add	lr, lr, r3, ror #27
 1623              	.LVL133:
 1624              		.loc 1 220 0
 1625 0b9c 4FEAB306 		ror	r6, r3, #2
 1626 0ba0 43EA070A 		orr	r10, r3, r7
 1627 0ba4 0AEA0B08 		and	r8, r10, fp
 1628              		.loc 1 221 0
 1629 0ba8 4EEA0601 		orr	r1, lr, r6
 1630 0bac 8CEA020A 		eor	r10, ip, r2
 1631 0bb0 05EBFE6C 		add	ip, r5, lr, ror #27
 1632              		.loc 1 222 0
 1633 0bb4 019D     		ldr	r5, [sp, #4]
 1634              		.loc 1 221 0
 1635 0bb6 0EEA0602 		and	r2, lr, r6
 1636              		.loc 1 220 0
 1637 0bba 3B40     		ands	r3, r3, r7
 1638              	.LVL134:
 1639              		.loc 1 221 0
 1640 0bbc 3940     		ands	r1, r1, r7
 1641              		.loc 1 220 0
 1642 0bbe 48EA0303 		orr	r3, r8, r3
 1643 0bc2 CB44     		add	fp, fp, r9
 1644              	.LVL135:
 1645              		.loc 1 221 0
 1646 0bc4 1143     		orrs	r1, r1, r2
 1647              		.loc 1 222 0
 1648 0bc6 6C40     		eors	r4, r4, r5
 1649 0bc8 059D     		ldr	r5, [sp, #20]
 1650              		.loc 1 220 0
 1651 0bca 9C44     		add	ip, ip, r3
ARM GAS  C:\Users\jo\AppData\Local\Temp\ccJopvHE.s 			page 30


 1652              	.LVL136:
 1653 0bcc 0BEB0103 		add	r3, fp, r1
 1654              		.loc 1 222 0
 1655 0bd0 4FEAF471 		ror	r1, r4, #31
 1656 0bd4 8AEA050A 		eor	r10, r10, r5
 1657 0bd8 0D46     		mov	r5, r1
 1658              		.loc 1 223 0
 1659 0bda 0A99     		ldr	r1, [sp, #40]
 1660 0bdc 0B95     		str	r5, [sp, #44]
 1661 0bde 8AEA010A 		eor	r10, r10, r1
 1662 0be2 2946     		mov	r1, r5
 1663 0be4 0F9D     		ldr	r5, [sp, #60]
 1664              		.loc 1 221 0
 1665 0be6 4FEABE04 		ror	r4, lr, #2
 1666 0bea A946     		mov	r9, r5
 1667              		.loc 1 223 0
 1668 0bec 4FEAFA7E 		ror	lr, r10, #31
 1669              	.LVL137:
 1670 0bf0 049D     		ldr	r5, [sp, #16]
 1671 0bf2 CDF808E0 		str	lr, [sp, #8]
 1672              	.LVL138:
 1673 0bf6 0144     		add	r1, r1, r0
 1674              		.loc 1 221 0
 1675 0bf8 03EBFC63 		add	r3, r3, ip, ror #27
 1676              	.LVL139:
 1677              		.loc 1 222 0
 1678 0bfc 4FEABC08 		ror	r8, ip, #2
 1679 0c00 89EA0502 		eor	r2, r9, r5
 1680 0c04 0F44     		add	r7, r7, r1
 1681              	.LVL140:
 1682 0c06 029D     		ldr	r5, [sp, #8]
 1683 0c08 0899     		ldr	r1, [sp, #32]
 1684              		.loc 1 223 0
 1685 0c0a 43EA080A 		orr	r10, r3, r8
 1686 0c0e 05EB000B 		add	fp, r5, r0
 1687 0c12 0AEA0409 		and	r9, r10, r4
 1688 0c16 03EA0805 		and	r5, r3, r8
 1689 0c1a 4A40     		eors	r2, r2, r1
 1690 0c1c 0D99     		ldr	r1, [sp, #52]
 1691              		.loc 1 222 0
 1692 0c1e 4CEA040E 		orr	lr, ip, r4
 1693              		.loc 1 223 0
 1694 0c22 49EA0509 		orr	r9, r9, r5
 1695              		.loc 1 224 0
 1696 0c26 079D     		ldr	r5, [sp, #28]
 1697              		.loc 1 222 0
 1698 0c28 0EEA060E 		and	lr, lr, r6
 1699 0c2c 0CEA040C 		and	ip, ip, r4
 1700              	.LVL141:
 1701 0c30 8A46     		mov	r10, r1
 1702 0c32 0C99     		ldr	r1, [sp, #48]
 1703 0c34 07EBF367 		add	r7, r7, r3, ror #27
 1704 0c38 4EEA0C0C 		orr	ip, lr, ip
 1705              		.loc 1 224 0
 1706 0c3c 6A40     		eors	r2, r2, r5
 1707 0c3e 069D     		ldr	r5, [sp, #24]
 1708 0c40 8AEA010A 		eor	r10, r10, r1
ARM GAS  C:\Users\jo\AppData\Local\Temp\ccJopvHE.s 			page 31


 1709 0c44 5E44     		add	r6, r6, fp
 1710              	.LVL142:
 1711              		.loc 1 222 0
 1712 0c46 07EB0C01 		add	r1, r7, ip
 1713              	.LVL143:
 1714              		.loc 1 224 0
 1715 0c4a 4FEAF277 		ror	r7, r2, #31
 1716 0c4e 8AEA050E 		eor	lr, r10, r5
 1717 0c52 06EB090A 		add	r10, r6, r9
 1718 0c56 3E46     		mov	r6, r7
 1719              		.loc 1 225 0
 1720 0c58 0B9F     		ldr	r7, [sp, #44]
 1721 0c5a 0F9D     		ldr	r5, [sp, #60]
 1722 0c5c 0C96     		str	r6, [sp, #48]
 1723              	.LVL144:
 1724 0c5e 8EEA070E 		eor	lr, lr, r7
 1725 0c62 4FEAFE7E 		ror	lr, lr, #31
 1726 0c66 CDF80CE0 		str	lr, [sp, #12]
 1727 0c6a 3218     		adds	r2, r6, r0
 1728 0c6c 1444     		add	r4, r4, r2
 1729              	.LVL145:
 1730 0c6e 039A     		ldr	r2, [sp, #12]
 1731 0c70 109E     		ldr	r6, [sp, #64]
 1732 0c72 9146     		mov	r9, r2
 1733 0c74 099A     		ldr	r2, [sp, #36]
 1734              		.loc 1 223 0
 1735 0c76 4FEAB303 		ror	r3, r3, #2
 1736 0c7a 01E0     		b	.L14
 1737              	.L15:
 1738              		.align	2
 1739              	.L13:
 1740 0c7c A1EBD96E 		.word	1859775393
 1741              	.L14:
 1742              	.LVL146:
 1743 0c80 86EA050E 		eor	lr, r6, r5
 1744 0c84 0AEBF16A 		add	r10, r10, r1, ror #27
 1745              	.LVL147:
 1746              		.loc 1 224 0
 1747 0c88 4FEAB10C 		ror	ip, r1, #2
 1748 0c8c 01EA0305 		and	r5, r1, r3
 1749 0c90 41EA0307 		orr	r7, r1, r3
 1750 0c94 8EEA020E 		eor	lr, lr, r2
 1751 0c98 0D99     		ldr	r1, [sp, #52]
 1752              	.LVL148:
 1753 0c9a 119A     		ldr	r2, [sp, #68]
 1754              		.loc 1 225 0
 1755 0c9c 4AEA0C0B 		orr	fp, r10, ip
 1756              		.loc 1 224 0
 1757 0ca0 07EA0807 		and	r7, r7, r8
 1758 0ca4 82EA0106 		eor	r6, r2, r1
 1759              		.loc 1 225 0
 1760 0ca8 0BEA030B 		and	fp, fp, r3
 1761 0cac 0AEA0C01 		and	r1, r10, ip
 1762              		.loc 1 224 0
 1763 0cb0 47EA0502 		orr	r2, r7, r5
 1764              		.loc 1 226 0
 1765 0cb4 029F     		ldr	r7, [sp, #8]
ARM GAS  C:\Users\jo\AppData\Local\Temp\ccJopvHE.s 			page 32


 1766 0cb6 109D     		ldr	r5, [sp, #64]
 1767              		.loc 1 225 0
 1768 0cb8 4BEA010B 		orr	fp, fp, r1
 1769 0cbc 0199     		ldr	r1, [sp, #4]
 1770              		.loc 1 226 0
 1771 0cbe 8EEA070E 		eor	lr, lr, r7
 1772              		.loc 1 227 0
 1773 0cc2 0C9F     		ldr	r7, [sp, #48]
 1774 0cc4 4E40     		eors	r6, r6, r1
 1775 0cc6 7E40     		eors	r6, r6, r7
 1776 0cc8 8144     		add	r9, r9, r0
 1777 0cca 129F     		ldr	r7, [sp, #72]
 1778 0ccc 4FEAF676 		ror	r6, r6, #31
 1779 0cd0 0F96     		str	r6, [sp, #60]
 1780              	.LVL149:
 1781 0cd2 C844     		add	r8, r8, r9
 1782              	.LVL150:
 1783              		.loc 1 226 0
 1784 0cd4 4FEAFE7E 		ror	lr, lr, #31
 1785 0cd8 CDF834E0 		str	lr, [sp, #52]
 1786              	.LVL151:
 1787 0cdc 08EB0B01 		add	r1, r8, fp
 1788 0ce0 0EEB000B 		add	fp, lr, r0
 1789 0ce4 87EA050E 		eor	lr, r7, r5
 1790 0ce8 0F9D     		ldr	r5, [sp, #60]
 1791 0cea 0A9F     		ldr	r7, [sp, #40]
 1792 0cec 04EBFA64 		add	r4, r4, r10, ror #27
 1793 0cf0 A946     		mov	r9, r5
 1794 0cf2 059D     		ldr	r5, [sp, #20]
 1795              		.loc 1 224 0
 1796 0cf4 2244     		add	r2, r2, r4
 1797              	.LVL152:
 1798              		.loc 1 225 0
 1799 0cf6 4FEABA0A 		ror	r10, r10, #2
 1800              	.LVL153:
 1801              		.loc 1 226 0
 1802 0cfa 42EA0A06 		orr	r6, r2, r10
 1803 0cfe 5B44     		add	r3, r3, fp
 1804              	.LVL154:
 1805 0d00 AB46     		mov	fp, r5
 1806 0d02 119D     		ldr	r5, [sp, #68]
 1807              		.loc 1 225 0
 1808 0d04 01EBF261 		add	r1, r1, r2, ror #27
 1809              	.LVL155:
 1810              		.loc 1 226 0
 1811 0d08 4FEAB204 		ror	r4, r2, #2
 1812 0d0c 06EA0C06 		and	r6, r6, ip
 1813 0d10 02EA0A02 		and	r2, r2, r10
 1814              	.LVL156:
 1815 0d14 8EEA070E 		eor	lr, lr, r7
 1816 0d18 8BEA0507 		eor	r7, fp, r5
 1817 0d1c 46EA020B 		orr	fp, r6, r2
 1818              		.loc 1 228 0
 1819 0d20 039E     		ldr	r6, [sp, #12]
 1820              		.loc 1 227 0
 1821 0d22 41EA0408 		orr	r8, r1, r4
 1822 0d26 03EBF163 		add	r3, r3, r1, ror #27
ARM GAS  C:\Users\jo\AppData\Local\Temp\ccJopvHE.s 			page 33


 1823              		.loc 1 228 0
 1824 0d2a 8EEA060E 		eor	lr, lr, r6
 1825 0d2e 079E     		ldr	r6, [sp, #28]
 1826              		.loc 1 226 0
 1827 0d30 9B44     		add	fp, fp, r3
 1828              	.LVL157:
 1829              		.loc 1 227 0
 1830 0d32 01EA0405 		and	r5, r1, r4
 1831              		.loc 1 229 0
 1832 0d36 0D9B     		ldr	r3, [sp, #52]
 1833 0d38 8144     		add	r9, r9, r0
 1834              	.LVL158:
 1835              		.loc 1 227 0
 1836 0d3a 08EA0A08 		and	r8, r8, r10
 1837              		.loc 1 228 0
 1838 0d3e 4FEAFE7E 		ror	lr, lr, #31
 1839 0d42 7246     		mov	r2, lr
 1840              		.loc 1 227 0
 1841 0d44 48EA0508 		orr	r8, r8, r5
 1842 0d48 7740     		eors	r7, r7, r6
 1843 0d4a CC44     		add	ip, ip, r9
 1844              	.LVL159:
 1845 0d4c 1092     		str	r2, [sp, #64]
 1846              	.LVL160:
 1847 0d4e 0CEB0809 		add	r9, ip, r8
 1848              		.loc 1 229 0
 1849 0d52 87EA030E 		eor	lr, r7, r3
 1850 0d56 02EB0008 		add	r8, r2, r0
 1851 0d5a 129F     		ldr	r7, [sp, #72]
 1852 0d5c 089A     		ldr	r2, [sp, #32]
 1853 0d5e 4FEAFE7E 		ror	lr, lr, #31
 1854 0d62 82EA070C 		eor	ip, r2, r7
 1855 0d66 0B9F     		ldr	r7, [sp, #44]
 1856 0d68 CDF810E0 		str	lr, [sp, #16]
 1857              		.loc 1 227 0
 1858 0d6c 4FEAB101 		ror	r1, r1, #2
 1859              	.LVL161:
 1860 0d70 09EBFB69 		add	r9, r9, fp, ror #27
 1861              	.LVL162:
 1862              		.loc 1 228 0
 1863 0d74 4FEABB03 		ror	r3, fp, #2
 1864 0d78 4BEA0106 		orr	r6, fp, r1
 1865 0d7c 049A     		ldr	r2, [sp, #16]
 1866 0d7e 8CEA070C 		eor	ip, ip, r7
 1867 0d82 069F     		ldr	r7, [sp, #24]
 1868              		.loc 1 229 0
 1869 0d84 49EA0305 		orr	r5, r9, r3
 1870              		.loc 1 228 0
 1871 0d88 0BEA010B 		and	fp, fp, r1
 1872              	.LVL163:
 1873 0d8c 2640     		ands	r6, r6, r4
 1874 0d8e 0244     		add	r2, r2, r0
 1875 0d90 C244     		add	r10, r10, r8
 1876              	.LVL164:
 1877              		.loc 1 229 0
 1878 0d92 0D40     		ands	r5, r5, r1
 1879              		.loc 1 228 0
ARM GAS  C:\Users\jo\AppData\Local\Temp\ccJopvHE.s 			page 34


 1880 0d94 46EA0B08 		orr	r8, r6, fp
 1881 0d98 BE46     		mov	lr, r7
 1882              		.loc 1 229 0
 1883 0d9a 09EA0306 		and	r6, r9, r3
 1884 0d9e 059F     		ldr	r7, [sp, #20]
 1885 0da0 3543     		orrs	r5, r5, r6
 1886 0da2 1444     		add	r4, r4, r2
 1887              	.LVL165:
 1888 0da4 029E     		ldr	r6, [sp, #8]
 1889              		.loc 1 230 0
 1890 0da6 0F9A     		ldr	r2, [sp, #60]
 1891 0da8 8EEA070E 		eor	lr, lr, r7
 1892 0dac 2C44     		add	r4, r4, r5
 1893              		.loc 1 231 0
 1894 0dae 109D     		ldr	r5, [sp, #64]
 1895 0db0 0C9F     		ldr	r7, [sp, #48]
 1896              		.loc 1 230 0
 1897 0db2 8CEA020C 		eor	ip, ip, r2
 1898 0db6 8EEA060E 		eor	lr, lr, r6
 1899 0dba 4FEAFC7C 		ror	ip, ip, #31
 1900              		.loc 1 231 0
 1901 0dbe 8EEA050E 		eor	lr, lr, r5
 1902              		.loc 1 230 0
 1903 0dc2 6646     		mov	r6, ip
 1904 0dc4 099D     		ldr	r5, [sp, #36]
 1905 0dc6 1196     		str	r6, [sp, #68]
 1906              	.LVL166:
 1907              		.loc 1 231 0
 1908 0dc8 4FEAFE7E 		ror	lr, lr, #31
 1909 0dcc CDF814E0 		str	lr, [sp, #20]
 1910 0dd0 0644     		add	r6, r6, r0
 1911 0dd2 AE46     		mov	lr, r5
 1912 0dd4 3144     		add	r1, r1, r6
 1913              	.LVL167:
 1914 0dd6 089D     		ldr	r5, [sp, #32]
 1915 0dd8 059E     		ldr	r6, [sp, #20]
 1916 0dda 8EEA0502 		eor	r2, lr, r5
 1917 0dde B646     		mov	lr, r6
 1918              		.loc 1 232 0
 1919 0de0 049E     		ldr	r6, [sp, #16]
 1920 0de2 7A40     		eors	r2, r2, r7
 1921 0de4 0AEBF96A 		add	r10, r10, r9, ror #27
 1922 0de8 7240     		eors	r2, r2, r6
 1923 0dea 019E     		ldr	r6, [sp, #4]
 1924              		.loc 1 228 0
 1925 0dec D044     		add	r8, r8, r10
 1926              	.LVL168:
 1927              		.loc 1 230 0
 1928 0dee 4FEAB80B 		ror	fp, r8, #2
 1929              		.loc 1 229 0
 1930 0df2 04EBF864 		add	r4, r4, r8, ror #27
 1931              	.LVL169:
 1932 0df6 4FEAB909 		ror	r9, r9, #2
 1933              	.LVL170:
 1934 0dfa B446     		mov	ip, r6
 1935 0dfc 069E     		ldr	r6, [sp, #24]
 1936              		.loc 1 230 0
ARM GAS  C:\Users\jo\AppData\Local\Temp\ccJopvHE.s 			page 35


 1937 0dfe 48EA0905 		orr	r5, r8, r9
 1938              		.loc 1 231 0
 1939 0e02 44EA0B0A 		orr	r10, r4, fp
 1940              		.loc 1 230 0
 1941 0e06 08EA0907 		and	r7, r8, r9
 1942              		.loc 1 231 0
 1943 0e0a 0AEA090A 		and	r10, r10, r9
 1944 0e0e 8644     		add	lr, lr, r0
 1945              		.loc 1 230 0
 1946 0e10 1D40     		ands	r5, r5, r3
 1947 0e12 8CEA060C 		eor	ip, ip, r6
 1948              		.loc 1 232 0
 1949 0e16 4FEAF272 		ror	r2, r2, #31
 1950              		.loc 1 231 0
 1951 0e1a 04EA0B06 		and	r6, r4, fp
 1952              		.loc 1 230 0
 1953 0e1e 3D43     		orrs	r5, r5, r7
 1954 0e20 7344     		add	r3, r3, lr
 1955              	.LVL171:
 1956              		.loc 1 232 0
 1957 0e22 1746     		mov	r7, r2
 1958              		.loc 1 231 0
 1959 0e24 4AEA0606 		orr	r6, r10, r6
 1960 0e28 039A     		ldr	r2, [sp, #12]
 1961 0e2a 1E44     		add	r6, r6, r3
 1962              		.loc 1 233 0
 1963 0e2c 119B     		ldr	r3, [sp, #68]
 1964 0e2e 01EBF461 		add	r1, r1, r4, ror #27
 1965 0e32 8CEA020C 		eor	ip, ip, r2
 1966              		.loc 1 230 0
 1967 0e36 01EB0508 		add	r8, r1, r5
 1968              	.LVL172:
 1969 0e3a 0999     		ldr	r1, [sp, #36]
 1970 0e3c 0997     		str	r7, [sp, #36]
 1971              		.loc 1 233 0
 1972 0e3e 8CEA0305 		eor	r5, ip, r3
 1973 0e42 0A9B     		ldr	r3, [sp, #40]
 1974 0e44 4B40     		eors	r3, r3, r1
 1975 0e46 4FEAF571 		ror	r1, r5, #31
 1976              		.loc 1 231 0
 1977 0e4a 06EBF86E 		add	lr, r6, r8, ror #27
 1978              	.LVL173:
 1979              		.loc 1 233 0
 1980 0e4e 0691     		str	r1, [sp, #24]
 1981 0e50 079D     		ldr	r5, [sp, #28]
 1982 0e52 019E     		ldr	r6, [sp, #4]
 1983 0e54 0D99     		ldr	r1, [sp, #52]
 1984 0e56 4B40     		eors	r3, r3, r1
 1985 0e58 85EA0601 		eor	r1, r5, r6
 1986              		.loc 1 241 0
 1987 0e5c 059E     		ldr	r6, [sp, #20]
 1988 0e5e 7340     		eors	r3, r3, r6
 1989 0e60 0F9E     		ldr	r6, [sp, #60]
 1990 0e62 7140     		eors	r1, r1, r6
 1991 0e64 069E     		ldr	r6, [sp, #24]
 1992              		.loc 1 231 0
 1993 0e66 4FEAB404 		ror	r4, r4, #2
ARM GAS  C:\Users\jo\AppData\Local\Temp\ccJopvHE.s 			page 36


 1994              	.LVL174:
 1995              		.loc 1 232 0
 1996 0e6a 48EA0402 		orr	r2, r8, r4
 1997 0e6e 0744     		add	r7, r7, r0
 1998 0e70 3044     		add	r0, r0, r6
 1999 0e72 0B9E     		ldr	r6, [sp, #44]
 2000 0e74 4FEAB80C 		ror	ip, r8, #2
 2001 0e78 02EA0B02 		and	r2, r2, fp
 2002 0e7c 08EA0405 		and	r5, r8, r4
 2003              		.loc 1 241 0
 2004 0e80 4FEAF373 		ror	r3, r3, #31
 2005              		.loc 1 233 0
 2006 0e84 4EEA0C0A 		orr	r10, lr, ip
 2007              		.loc 1 232 0
 2008 0e88 1543     		orrs	r5, r5, r2
 2009 0e8a 4F44     		add	r7, r7, r9
 2010              		.loc 1 241 0
 2011 0e8c 1A46     		mov	r2, r3
 2012 0e8e B146     		mov	r9, r6
 2013              	.LVL175:
 2014              		.loc 1 242 0
 2015 0e90 099B     		ldr	r3, [sp, #36]
 2016 0e92 0A9E     		ldr	r6, [sp, #40]
 2017 0e94 0A92     		str	r2, [sp, #40]
 2018              		.loc 1 233 0
 2019 0e96 0EEA0C08 		and	r8, lr, ip
 2020              	.LVL176:
 2021 0e9a 07EBFE67 		add	r7, r7, lr, ror #27
 2022 0e9e 0AEA040A 		and	r10, r10, r4
 2023 0ea2 89EA0609 		eor	r9, r9, r6
 2024 0ea6 5844     		add	r0, r0, fp
 2025              		.loc 1 232 0
 2026 0ea8 7E19     		adds	r6, r7, r5
 2027              		.loc 1 242 0
 2028 0eaa 5940     		eors	r1, r1, r3
 2029              	.LVL177:
 2030 0eac 109D     		ldr	r5, [sp, #64]
 2031              		.loc 1 233 0
 2032 0eae 4AEA0803 		orr	r3, r10, r8
 2033              		.loc 1 242 0
 2034 0eb2 4FEAF171 		ror	r1, r1, #31
 2035 0eb6 0344     		add	r3, r3, r0
 2036              		.loc 1 243 0
 2037 0eb8 0698     		ldr	r0, [sp, #24]
 2038              		.loc 1 242 0
 2039 0eba 0191     		str	r1, [sp, #4]
 2040              		.loc 1 233 0
 2041 0ebc 4FEABE07 		ror	r7, lr, #2
 2042 0ec0 89EA0501 		eor	r1, r9, r5
 2043 0ec4 02F14A4E 		add	lr, r2, #-905969664
 2044              	.LVL178:
 2045              		.loc 1 243 0
 2046 0ec8 4140     		eors	r1, r1, r0
 2047 0eca 0EF5C50E 		add	lr, lr, #6455296
 2048 0ece 0298     		ldr	r0, [sp, #8]
 2049 0ed0 0EF5834E 		add	lr, lr, #16768
 2050 0ed4 87EA0C05 		eor	r5, r7, ip
ARM GAS  C:\Users\jo\AppData\Local\Temp\ccJopvHE.s 			page 37


 2051 0ed8 8046     		mov	r8, r0
 2052 0eda 0EF1560E 		add	lr, lr, #86
 2053 0ede 0798     		ldr	r0, [sp, #28]
 2054              		.loc 1 241 0
 2055 0ee0 4FEAB60B 		ror	fp, r6, #2
 2056              	.LVL179:
 2057              		.loc 1 233 0
 2058 0ee4 03EBF663 		add	r3, r3, r6, ror #27
 2059              	.LVL180:
 2060 0ee8 0EEB0402 		add	r2, lr, r4
 2061              		.loc 1 241 0
 2062 0eec 6E40     		eors	r6, r6, r5
 2063              	.LVL181:
 2064 0eee 019C     		ldr	r4, [sp, #4]
 2065              	.LVL182:
 2066              		.loc 1 243 0
 2067 0ef0 4FEAF175 		ror	r5, r1, #31
 2068 0ef4 0499     		ldr	r1, [sp, #16]
 2069 0ef6 0795     		str	r5, [sp, #28]
 2070 0ef8 1644     		add	r6, r6, r2
 2071 0efa 88EA0000 		eor	r0, r8, r0
 2072              		.loc 1 244 0
 2073 0efe 0A9A     		ldr	r2, [sp, #40]
 2074 0f00 0C9D     		ldr	r5, [sp, #48]
 2075 0f02 04F14A4E 		add	lr, r4, #-905969664
 2076 0f06 4840     		eors	r0, r0, r1
 2077 0f08 0B99     		ldr	r1, [sp, #44]
 2078 0f0a 5040     		eors	r0, r0, r2
 2079 0f0c 0EF5C50E 		add	lr, lr, #6455296
 2080 0f10 119A     		ldr	r2, [sp, #68]
 2081 0f12 8BEA0704 		eor	r4, fp, r7
 2082 0f16 4D40     		eors	r5, r5, r1
 2083 0f18 0EF5834E 		add	lr, lr, #16768
 2084              		.loc 1 242 0
 2085 0f1c 4FEAB30A 		ror	r10, r3, #2
 2086 0f20 5C40     		eors	r4, r4, r3
 2087 0f22 0EF1560E 		add	lr, lr, #86
 2088 0f26 5540     		eors	r5, r5, r2
 2089              		.loc 1 241 0
 2090 0f28 06EBF362 		add	r2, r6, r3, ror #27
 2091              	.LVL183:
 2092 0f2c 079B     		ldr	r3, [sp, #28]
 2093              	.LVL184:
 2094 0f2e 0399     		ldr	r1, [sp, #12]
 2095 0f30 F444     		add	ip, ip, lr
 2096              	.LVL185:
 2097 0f32 0CEB040E 		add	lr, ip, r4
 2098              		.loc 1 245 0
 2099 0f36 019C     		ldr	r4, [sp, #4]
 2100 0f38 9C46     		mov	ip, r3
 2101 0f3a D04B     		ldr	r3, .L16
 2102 0f3c 8AEA0B06 		eor	r6, r10, fp
 2103 0f40 6344     		add	r3, ip, r3
 2104 0f42 6540     		eors	r5, r5, r4
 2105 0f44 1F44     		add	r7, r7, r3
 2106              	.LVL186:
 2107              		.loc 1 244 0
ARM GAS  C:\Users\jo\AppData\Local\Temp\ccJopvHE.s 			page 38


 2108 0f46 4FEAF070 		ror	r0, r0, #31
 2109              		.loc 1 243 0
 2110 0f4a 86EA0203 		eor	r3, r6, r2
 2111              		.loc 1 245 0
 2112 0f4e 4FEAF575 		ror	r5, r5, #31
 2113              		.loc 1 244 0
 2114 0f52 0890     		str	r0, [sp, #32]
 2115 0f54 3B44     		add	r3, r3, r7
 2116 0f56 0298     		ldr	r0, [sp, #8]
 2117              		.loc 1 245 0
 2118 0f58 0295     		str	r5, [sp, #8]
 2119              	.LVL187:
 2120 0f5a 089F     		ldr	r7, [sp, #32]
 2121 0f5c C74D     		ldr	r5, .L16
 2122 0f5e 059E     		ldr	r6, [sp, #20]
 2123 0f60 7D19     		adds	r5, r7, r5
 2124 0f62 4840     		eors	r0, r0, r1
 2125              	.LVL188:
 2126              		.loc 1 246 0
 2127 0f64 079F     		ldr	r7, [sp, #28]
 2128 0f66 0C99     		ldr	r1, [sp, #48]
 2129 0f68 7040     		eors	r0, r0, r6
 2130              		.loc 1 243 0
 2131 0f6a 4FEAB20C 		ror	ip, r2, #2
 2132              		.loc 1 246 0
 2133 0f6e 7840     		eors	r0, r0, r7
 2134 0f70 0D9F     		ldr	r7, [sp, #52]
 2135              		.loc 1 242 0
 2136 0f72 0EEBF26E 		add	lr, lr, r2, ror #27
 2137              	.LVL189:
 2138 0f76 8CEA0A04 		eor	r4, ip, r10
 2139 0f7a 87EA0102 		eor	r2, r7, r1
 2140              	.LVL190:
 2141 0f7e 029F     		ldr	r7, [sp, #8]
 2142              		.loc 1 244 0
 2143 0f80 84EA0E01 		eor	r1, r4, lr
 2144 0f84 05EB0B04 		add	r4, r5, fp
 2145              		.loc 1 246 0
 2146 0f88 4FEAF075 		ror	r5, r0, #31
 2147 0f8c 0998     		ldr	r0, [sp, #36]
 2148 0f8e 0B95     		str	r5, [sp, #44]
 2149              		.loc 1 244 0
 2150 0f90 4FEABE06 		ror	r6, lr, #2
 2151 0f94 07F14A48 		add	r8, r7, #-905969664
 2152              	.LVL191:
 2153 0f98 4240     		eors	r2, r2, r0
 2154 0f9a 0F9F     		ldr	r7, [sp, #60]
 2155 0f9c 0398     		ldr	r0, [sp, #12]
 2156              		.loc 1 243 0
 2157 0f9e 03EBFE63 		add	r3, r3, lr, ror #27
 2158              	.LVL192:
 2159 0fa2 0C44     		add	r4, r4, r1
 2160 0fa4 86EA0C0E 		eor	lr, r6, ip
 2161              	.LVL193:
 2162              		.loc 1 244 0
 2163 0fa8 04EBF364 		add	r4, r4, r3, ror #27
 2164              	.LVL194:
ARM GAS  C:\Users\jo\AppData\Local\Temp\ccJopvHE.s 			page 39


 2165 0fac 87EA0005 		eor	r5, r7, r0
 2166              		.loc 1 245 0
 2167 0fb0 8EEA030E 		eor	lr, lr, r3
 2168 0fb4 4FEAB300 		ror	r0, r3, #2
 2169 0fb8 0B9B     		ldr	r3, [sp, #44]
 2170              	.LVL195:
 2171              		.loc 1 247 0
 2172 0fba 0899     		ldr	r1, [sp, #32]
 2173 0fbc 9946     		mov	r9, r3
 2174 0fbe AF4B     		ldr	r3, .L16
 2175 0fc0 4A40     		eors	r2, r2, r1
 2176 0fc2 0699     		ldr	r1, [sp, #24]
 2177 0fc4 4B44     		add	r3, r9, r3
 2178 0fc6 4FEAF279 		ror	r9, r2, #31
 2179              		.loc 1 248 0
 2180 0fca 029A     		ldr	r2, [sp, #8]
 2181 0fcc 4D40     		eors	r5, r5, r1
 2182 0fce 08F5C508 		add	r8, r8, #6455296
 2183 0fd2 5540     		eors	r5, r5, r2
 2184 0fd4 08F58348 		add	r8, r8, #16768
 2185 0fd8 109A     		ldr	r2, [sp, #64]
 2186 0fda 0D99     		ldr	r1, [sp, #52]
 2187 0fdc 08F15608 		add	r8, r8, #86
 2188 0fe0 4FEAF575 		ror	r5, r5, #31
 2189 0fe4 0395     		str	r5, [sp, #12]
 2190              	.LVL196:
 2191 0fe6 C244     		add	r10, r10, r8
 2192              	.LVL197:
 2193 0fe8 0A9D     		ldr	r5, [sp, #40]
 2194 0fea 80EA0608 		eor	r8, r0, r6
 2195 0fee 5140     		eors	r1, r1, r2
 2196              		.loc 1 246 0
 2197 0ff0 88EA0402 		eor	r2, r8, r4
 2198 0ff4 03EB0C08 		add	r8, r3, ip
 2199              		.loc 1 249 0
 2200 0ff8 0B9B     		ldr	r3, [sp, #44]
 2201 0ffa 6940     		eors	r1, r1, r5
 2202 0ffc 5940     		eors	r1, r1, r3
 2203 0ffe 9F4D     		ldr	r5, .L16
 2204 1000 049B     		ldr	r3, [sp, #16]
 2205 1002 4D44     		add	r5, r9, r5
 2206 1004 D644     		add	lr, lr, r10
 2207 1006 9A46     		mov	r10, r3
 2208              		.loc 1 245 0
 2209 1008 0EEBF46E 		add	lr, lr, r4, ror #27
 2210              	.LVL198:
 2211 100c 2E44     		add	r6, r6, r5
 2212              	.LVL199:
 2213 100e 9044     		add	r8, r8, r2
 2214              		.loc 1 249 0
 2215 1010 4FEAF175 		ror	r5, r1, #31
 2216 1014 8AEA0702 		eor	r2, r10, r7
 2217 1018 0199     		ldr	r1, [sp, #4]
 2218 101a 039F     		ldr	r7, [sp, #12]
 2219 101c 974B     		ldr	r3, .L16
 2220 101e 0C95     		str	r5, [sp, #48]
 2221              		.loc 1 247 0
ARM GAS  C:\Users\jo\AppData\Local\Temp\ccJopvHE.s 			page 40


 2222 1020 4FEABE0B 		ror	fp, lr, #2
 2223              		.loc 1 246 0
 2224 1024 4FEAB404 		ror	r4, r4, #2
 2225              	.LVL200:
 2226 1028 08EBFE68 		add	r8, r8, lr, ror #27
 2227              	.LVL201:
 2228 102c 109D     		ldr	r5, [sp, #64]
 2229 102e FB18     		adds	r3, r7, r3
 2230 1030 4A40     		eors	r2, r2, r1
 2231 1032 8BEA0407 		eor	r7, fp, r4
 2232 1036 1199     		ldr	r1, [sp, #68]
 2233 1038 84EA000C 		eor	ip, r4, r0
 2234              		.loc 1 250 0
 2235 103c 82EA0902 		eor	r2, r2, r9
 2236 1040 1844     		add	r0, r0, r3
 2237              	.LVL202:
 2238              		.loc 1 248 0
 2239 1042 87EA0803 		eor	r3, r7, r8
 2240 1046 079F     		ldr	r7, [sp, #28]
 2241              		.loc 1 247 0
 2242 1048 8CEA0E0C 		eor	ip, ip, lr
 2243              		.loc 1 250 0
 2244 104c 4FEAF272 		ror	r2, r2, #31
 2245 1050 81EA050E 		eor	lr, r1, r5
 2246              	.LVL203:
 2247 1054 8EEA070E 		eor	lr, lr, r7
 2248 1058 0D92     		str	r2, [sp, #52]
 2249 105a 0C9F     		ldr	r7, [sp, #48]
 2250              		.loc 1 251 0
 2251 105c 039A     		ldr	r2, [sp, #12]
 2252 105e 06EB0C05 		add	r5, r6, ip
 2253 1062 0344     		add	r3, r3, r0
 2254              		.loc 1 248 0
 2255 1064 4FEAB806 		ror	r6, r8, #2
 2256 1068 0598     		ldr	r0, [sp, #20]
 2257              		.loc 1 247 0
 2258 106a 05EBF865 		add	r5, r5, r8, ror #27
 2259              	.LVL204:
 2260              		.loc 1 251 0
 2261 106e 8EEA0201 		eor	r1, lr, r2
 2262 1072 07F14A4C 		add	ip, r7, #-905969664
 2263 1076 86EA0B07 		eor	r7, r6, fp
 2264              		.loc 1 249 0
 2265 107a 4FEAB50A 		ror	r10, r5, #2
 2266              		.loc 1 248 0
 2267 107e 03EBF563 		add	r3, r3, r5, ror #27
 2268              	.LVL205:
 2269 1082 8646     		mov	lr, r0
 2270              		.loc 1 249 0
 2271 1084 6F40     		eors	r7, r7, r5
 2272 1086 0498     		ldr	r0, [sp, #16]
 2273              		.loc 1 251 0
 2274 1088 4FEAF175 		ror	r5, r1, #31
 2275              	.LVL206:
 2276 108c 0495     		str	r5, [sp, #16]
 2277              	.LVL207:
 2278 108e 089D     		ldr	r5, [sp, #32]
ARM GAS  C:\Users\jo\AppData\Local\Temp\ccJopvHE.s 			page 41


 2279 1090 1199     		ldr	r1, [sp, #68]
 2280 1092 8EEA000E 		eor	lr, lr, r0
 2281 1096 8EEA050E 		eor	lr, lr, r5
 2282 109a 0CF5C50C 		add	ip, ip, #6455296
 2283 109e 0D9D     		ldr	r5, [sp, #52]
 2284 10a0 7648     		ldr	r0, .L16
 2285              	.LVL208:
 2286 10a2 0CF5834C 		add	ip, ip, #16768
 2287 10a6 2818     		adds	r0, r5, r0
 2288 10a8 0CF1560C 		add	ip, ip, #86
 2289              		.loc 1 252 0
 2290 10ac 0C9D     		ldr	r5, [sp, #48]
 2291 10ae 6444     		add	r4, r4, ip
 2292              	.LVL209:
 2293 10b0 8AEA0602 		eor	r2, r10, r6
 2294              	.LVL210:
 2295 10b4 2744     		add	r7, r7, r4
 2296 10b6 8EEA050E 		eor	lr, lr, r5
 2297 10ba 099D     		ldr	r5, [sp, #36]
 2298 10bc 6F4C     		ldr	r4, .L16
 2299              		.loc 1 250 0
 2300 10be 4FEAB308 		ror	r8, r3, #2
 2301              		.loc 1 249 0
 2302 10c2 07EBF367 		add	r7, r7, r3, ror #27
 2303              	.LVL211:
 2304              		.loc 1 250 0
 2305 10c6 5340     		eors	r3, r3, r2
 2306              	.LVL212:
 2307 10c8 029A     		ldr	r2, [sp, #8]
 2308 10ca 85EA010C 		eor	ip, r5, r1
 2309 10ce 0499     		ldr	r1, [sp, #16]
 2310 10d0 8344     		add	fp, fp, r0
 2311              	.LVL213:
 2312 10d2 8CEA020C 		eor	ip, ip, r2
 2313 10d6 0598     		ldr	r0, [sp, #20]
 2314 10d8 069A     		ldr	r2, [sp, #24]
 2315 10da 2144     		add	r1, r1, r4
 2316              		.loc 1 252 0
 2317 10dc 4FEAFE7E 		ror	lr, lr, #31
 2318 10e0 CDF83CE0 		str	lr, [sp, #60]
 2319 10e4 82EA000E 		eor	lr, r2, r0
 2320 10e8 8A19     		adds	r2, r1, r6
 2321              		.loc 1 253 0
 2322 10ea 0D9E     		ldr	r6, [sp, #52]
 2323              	.LVL214:
 2324 10ec 88EA0A05 		eor	r5, r8, r10
 2325 10f0 0BEB0300 		add	r0, fp, r3
 2326              		.loc 1 250 0
 2327 10f4 00EBF760 		add	r0, r0, r7, ror #27
 2328              	.LVL215:
 2329              		.loc 1 251 0
 2330 10f8 4FEAB70B 		ror	fp, r7, #2
 2331 10fc 85EA0701 		eor	r1, r5, r7
 2332              		.loc 1 253 0
 2333 1100 8CEA060C 		eor	ip, ip, r6
 2334 1104 0F9F     		ldr	r7, [sp, #60]
 2335              	.LVL216:
ARM GAS  C:\Users\jo\AppData\Local\Temp\ccJopvHE.s 			page 42


 2336 1106 0B9E     		ldr	r6, [sp, #44]
 2337              		.loc 1 254 0
 2338 1108 049B     		ldr	r3, [sp, #16]
 2339 110a 3D19     		adds	r5, r7, r4
 2340 110c 8EEA060E 		eor	lr, lr, r6
 2341 1110 8BEA0807 		eor	r7, fp, r8
 2342 1114 099E     		ldr	r6, [sp, #36]
 2343 1116 5544     		add	r5, r5, r10
 2344 1118 8EEA030E 		eor	lr, lr, r3
 2345              		.loc 1 252 0
 2346 111c 4740     		eors	r7, r7, r0
 2347 111e 0A9B     		ldr	r3, [sp, #40]
 2348 1120 2F44     		add	r7, r7, r5
 2349              		.loc 1 253 0
 2350 1122 4FEAFC7C 		ror	ip, ip, #31
 2351 1126 019D     		ldr	r5, [sp, #4]
 2352 1128 0597     		str	r7, [sp, #20]
 2353 112a 1144     		add	r1, r1, r2
 2354 112c 83EA0602 		eor	r2, r3, r6
 2355 1130 0CEB0403 		add	r3, ip, r4
 2356 1134 AA46     		mov	r10, r5
 2357              	.LVL217:
 2358 1136 4344     		add	r3, r8, r3
 2359 1138 069D     		ldr	r5, [sp, #24]
 2360 113a 0693     		str	r3, [sp, #24]
 2361 113c 039B     		ldr	r3, [sp, #12]
 2362              		.loc 1 255 0
 2363 113e 0F9F     		ldr	r7, [sp, #60]
 2364 1140 8AEA0505 		eor	r5, r10, r5
 2365 1144 5D40     		eors	r5, r5, r3
 2366 1146 079B     		ldr	r3, [sp, #28]
 2367 1148 9846     		mov	r8, r3
 2368              	.LVL218:
 2369 114a 0A9B     		ldr	r3, [sp, #40]
 2370              		.loc 1 251 0
 2371 114c 01EBF066 		add	r6, r1, r0, ror #27
 2372              	.LVL219:
 2373 1150 88EA0303 		eor	r3, r8, r3
 2374              		.loc 1 252 0
 2375 1154 4FEAB000 		ror	r0, r0, #2
 2376              	.LVL220:
 2377 1158 0393     		str	r3, [sp, #12]
 2378              	.LVL221:
 2379 115a 80EA0B01 		eor	r1, r0, fp
 2380 115e 069B     		ldr	r3, [sp, #24]
 2381 1160 82EA0902 		eor	r2, r2, r9
 2382              		.loc 1 255 0
 2383 1164 7A40     		eors	r2, r2, r7
 2384              		.loc 1 253 0
 2385 1166 7140     		eors	r1, r1, r6
 2386              		.loc 1 252 0
 2387 1168 059F     		ldr	r7, [sp, #20]
 2388              	.LVL222:
 2389              		.loc 1 253 0
 2390 116a 4FEAB609 		ror	r9, r6, #2
 2391              	.LVL223:
 2392 116e 1944     		add	r1, r1, r3
ARM GAS  C:\Users\jo\AppData\Local\Temp\ccJopvHE.s 			page 43


 2393              		.loc 1 256 0
 2394 1170 85EA0C0C 		eor	ip, r5, ip
 2395 1174 039B     		ldr	r3, [sp, #12]
 2396 1176 0C9D     		ldr	r5, [sp, #48]
 2397              		.loc 1 252 0
 2398 1178 07EBF667 		add	r7, r7, r6, ror #27
 2399              		.loc 1 255 0
 2400 117c 4FEAF272 		ror	r2, r2, #31
 2401 1180 89EA0006 		eor	r6, r9, r0
 2402              	.LVL224:
 2403              		.loc 1 254 0
 2404 1184 4FEAB708 		ror	r8, r7, #2
 2405 1188 7E40     		eors	r6, r6, r7
 2406 118a 6B40     		eors	r3, r3, r5
 2407              		.loc 1 253 0
 2408 118c 01EBF767 		add	r7, r1, r7, ror #27
 2409              		.loc 1 254 0
 2410 1190 4FEAFE7E 		ror	lr, lr, #31
 2411              	.LVL225:
 2412 1194 1119     		adds	r1, r2, r4
 2413              		.loc 1 256 0
 2414 1196 4FEAFC75 		ror	r5, ip, #31
 2415 119a 0EEB040A 		add	r10, lr, r4
 2416 119e 0844     		add	r0, r0, r1
 2417              	.LVL226:
 2418              		.loc 1 257 0
 2419 11a0 83EA0E0E 		eor	lr, r3, lr
 2420 11a4 0199     		ldr	r1, [sp, #4]
 2421 11a6 089B     		ldr	r3, [sp, #32]
 2422 11a8 0195     		str	r5, [sp, #4]
 2423 11aa DA44     		add	r10, r10, fp
 2424 11ac 05EB040B 		add	fp, r5, r4
 2425              	.LVL227:
 2426 11b0 0D9D     		ldr	r5, [sp, #52]
 2427 11b2 B244     		add	r10, r10, r6
 2428 11b4 5940     		eors	r1, r1, r3
 2429 11b6 88EA0906 		eor	r6, r8, r9
 2430              		.loc 1 254 0
 2431 11ba 0AEBF76A 		add	r10, r10, r7, ror #27
 2432              	.LVL228:
 2433              		.loc 1 255 0
 2434 11be 7E40     		eors	r6, r6, r7
 2435 11c0 6940     		eors	r1, r1, r5
 2436 11c2 4FEAB707 		ror	r7, r7, #2
 2437              	.LVL229:
 2438 11c6 3044     		add	r0, r0, r6
 2439              		.loc 1 258 0
 2440 11c8 4A40     		eors	r2, r2, r1
 2441 11ca 87EA0806 		eor	r6, r7, r8
 2442 11ce 0299     		ldr	r1, [sp, #8]
 2443 11d0 049D     		ldr	r5, [sp, #16]
 2444              		.loc 1 256 0
 2445 11d2 86EA0A06 		eor	r6, r6, r10
 2446 11d6 D944     		add	r9, r9, fp
 2447              	.LVL230:
 2448 11d8 4FEABA03 		ror	r3, r10, #2
 2449              		.loc 1 255 0
ARM GAS  C:\Users\jo\AppData\Local\Temp\ccJopvHE.s 			page 44


 2450 11dc 00EBFA60 		add	r0, r0, r10, ror #27
 2451              		.loc 1 257 0
 2452 11e0 4FEAFE7E 		ror	lr, lr, #31
 2453              	.LVL231:
 2454 11e4 8A46     		mov	r10, r1
 2455              	.LVL232:
 2456 11e6 B144     		add	r9, r9, r6
 2457 11e8 0799     		ldr	r1, [sp, #28]
 2458 11ea 0B9E     		ldr	r6, [sp, #44]
 2459 11ec 0EEB040C 		add	ip, lr, r4
 2460 11f0 83EA070B 		eor	fp, r3, r7
 2461              		.loc 1 256 0
 2462 11f4 09EBF069 		add	r9, r9, r0, ror #27
 2463 11f8 8AEA0101 		eor	r1, r10, r1
 2464 11fc E044     		add	r8, r8, ip
 2465              	.LVL233:
 2466              		.loc 1 257 0
 2467 11fe 4FEAB00A 		ror	r10, r0, #2
 2468 1202 8BEA000C 		eor	ip, fp, r0
 2469 1206 B346     		mov	fp, r6
 2470              		.loc 1 259 0
 2471 1208 0198     		ldr	r0, [sp, #4]
 2472              	.LVL234:
 2473 120a 089E     		ldr	r6, [sp, #32]
 2474 120c 6940     		eors	r1, r1, r5
 2475              	.LVL235:
 2476 120e 0F9D     		ldr	r5, [sp, #60]
 2477 1210 8BEA0606 		eor	r6, fp, r6
 2478 1214 04EBF272 		add	r2, r4, r2, ror #31
 2479 1218 8AEA030B 		eor	fp, r10, r3
 2480 121c E044     		add	r8, r8, ip
 2481 121e 4140     		eors	r1, r1, r0
 2482 1220 1798     		ldr	r0, [sp, #92]
 2483              		.loc 1 257 0
 2484 1222 08EBF968 		add	r8, r8, r9, ror #27
 2485              	.LVL236:
 2486              		.loc 1 258 0
 2487 1226 8BEA090B 		eor	fp, fp, r9
 2488 122a 6E40     		eors	r6, r6, r5
 2489 122c 4FEAB909 		ror	r9, r9, #2
 2490              	.LVL237:
 2491 1230 3A44     		add	r2, r2, r7
 2492 1232 89EA0A0C 		eor	ip, r9, r10
 2493              		.loc 1 260 0
 2494 1236 86EA0E06 		eor	r6, r6, lr
 2495 123a 04EBF171 		add	r1, r4, r1, ror #31
 2496 123e 5A44     		add	r2, r2, fp
 2497 1240 0444     		add	r4, r4, r0
 2498              		.loc 1 258 0
 2499 1242 02EBF862 		add	r2, r2, r8, ror #27
 2500              	.LVL238:
 2501              		.loc 1 259 0
 2502 1246 4FEAB800 		ror	r0, r8, #2
 2503 124a 04EBF676 		add	r6, r4, r6, ror #31
 2504 124e 1944     		add	r1, r1, r3
 2505 1250 8CEA0808 		eor	r8, ip, r8
 2506              	.LVL239:
ARM GAS  C:\Users\jo\AppData\Local\Temp\ccJopvHE.s 			page 45


 2507              		.loc 1 267 0
 2508 1254 0E9C     		ldr	r4, [sp, #56]
 2509              		.loc 1 266 0
 2510 1256 149D     		ldr	r5, [sp, #80]
 2511 1258 B244     		add	r10, r10, r6
 2512              	.LVL240:
 2513 125a 4144     		add	r1, r1, r8
 2514 125c 139E     		ldr	r6, [sp, #76]
 2515 125e 80EA0907 		eor	r7, r0, r9
 2516              		.loc 1 259 0
 2517 1262 01EBF261 		add	r1, r1, r2, ror #27
 2518              	.LVL241:
 2519              		.loc 1 266 0
 2520 1266 8B19     		adds	r3, r1, r6
 2521              		.loc 1 260 0
 2522 1268 5740     		eors	r7, r7, r2
 2523              		.loc 1 269 0
 2524 126a 169E     		ldr	r6, [sp, #88]
 2525              		.loc 1 266 0
 2526 126c EB60     		str	r3, [r5, #12]
 2527              		.loc 1 267 0
 2528 126e 04EBB202 		add	r2, r4, r2, ror #2
 2529              	.LVL242:
 2530              		.loc 1 268 0
 2531 1272 159C     		ldr	r4, [sp, #84]
 2532              		.loc 1 267 0
 2533 1274 2A61     		str	r2, [r5, #16]
 2534 1276 BA44     		add	r10, r10, r7
 2535 1278 02E0     		b	.L17
 2536              	.L18:
 2537 127a 00BF     		.align	2
 2538              	.L16:
 2539 127c D6C162CA 		.word	-899497514
 2540              	.L17:
 2541              		.loc 1 268 0
 2542 1280 2044     		add	r0, r0, r4
 2543              	.LVL243:
 2544              		.loc 1 265 0
 2545 1282 0AEBF161 		add	r1, r10, r1, ror #27
 2546              	.LVL244:
 2547              		.loc 1 269 0
 2548 1286 4E44     		add	r6, r9, r6
 2549              		.loc 1 265 0
 2550 1288 A960     		str	r1, [r5, #8]
 2551              		.loc 1 268 0
 2552 128a 6861     		str	r0, [r5, #20]
 2553              		.loc 1 269 0
 2554 128c AE61     		str	r6, [r5, #24]
 2555              		.loc 1 270 0
 2556 128e 31B0     		add	sp, sp, #196
 2557              		.cfi_def_cfa_offset 36
 2558              		@ sp needed
 2559 1290 BDE8F08F 		pop	{r4, r5, r6, r7, r8, r9, r10, fp, pc}
 2560              		.cfi_endproc
 2561              	.LFE1:
 2562              		.size	sha1_process, .-sha1_process
 2563 1294 AFF30080 		.section	.text.sha1_update.part.0,"ax",%progbits
ARM GAS  C:\Users\jo\AppData\Local\Temp\ccJopvHE.s 			page 46


 2563      AFF30080 
 2563      AFF30080 
 2564              		.align	2
 2565              		.p2align 4,,15
 2566              		.thumb
 2567              		.thumb_func
 2568              		.type	sha1_update.part.0, %function
 2569              	sha1_update.part.0:
 2570              	.LFB12:
 2571              		.loc 1 275 0
 2572              		.cfi_startproc
 2573              		@ args = 0, pretend = 0, frame = 0
 2574              		@ frame_needed = 0, uses_anonymous_args = 0
 2575              	.LVL245:
 2576 0000 2DE9F843 		push	{r3, r4, r5, r6, r7, r8, r9, lr}
 2577              		.cfi_def_cfa_offset 32
 2578              		.cfi_offset 3, -32
 2579              		.cfi_offset 4, -28
 2580              		.cfi_offset 5, -24
 2581              		.cfi_offset 6, -20
 2582              		.cfi_offset 7, -16
 2583              		.cfi_offset 8, -12
 2584              		.cfi_offset 9, -8
 2585              		.cfi_offset 14, -4
 2586              		.loc 1 275 0
 2587 0004 0646     		mov	r6, r0
 2588              		.loc 1 283 0
 2589 0006 0068     		ldr	r0, [r0]
 2590              	.LVL246:
 2591              		.loc 1 286 0
 2592 0008 1318     		adds	r3, r2, r0
 2593              		.loc 1 289 0
 2594 000a 9A42     		cmp	r2, r3
 2595              		.loc 1 275 0
 2596 000c 1746     		mov	r7, r2
 2597 000e 8946     		mov	r9, r1
 2598              		.loc 1 286 0
 2599 0010 3360     		str	r3, [r6]
 2600              		.loc 1 283 0
 2601 0012 00F03F08 		and	r8, r0, #63
 2602              	.LVL247:
 2603              		.loc 1 289 0
 2604 0016 02D9     		bls	.L20
 2605              		.loc 1 290 0
 2606 0018 7368     		ldr	r3, [r6, #4]
 2607 001a 0133     		adds	r3, r3, #1
 2608 001c 7360     		str	r3, [r6, #4]
 2609              	.L20:
 2610              		.loc 1 292 0
 2611 001e B8F1000F 		cmp	r8, #0
 2612 0022 16D0     		beq	.L21
 2613              		.loc 1 284 0
 2614 0024 C8F14004 		rsb	r4, r8, #64
 2615              		.loc 1 292 0
 2616 0028 BC42     		cmp	r4, r7
 2617 002a 02D9     		bls	.L32
 2618              	.LVL248:
ARM GAS  C:\Users\jo\AppData\Local\Temp\ccJopvHE.s 			page 47


 2619              	.L23:
 2620              		.loc 1 308 0
 2621 002c 47BB     		cbnz	r7, .L33
 2622              	.LVL249:
 2623              	.L19:
 2624 002e BDE8F883 		pop	{r3, r4, r5, r6, r7, r8, r9, pc}
 2625              	.LVL250:
 2626              	.L32:
 2627              		.loc 1 294 0
 2628 0032 06EB0800 		add	r0, r6, r8
 2629 0036 4946     		mov	r1, r9
 2630              	.LVL251:
 2631 0038 2246     		mov	r2, r4
 2632              	.LVL252:
 2633 003a 1C30     		adds	r0, r0, #28
 2634 003c FFF7FEFF 		bl	memcpy
 2635              	.LVL253:
 2636              		.loc 1 295 0
 2637 0040 3046     		mov	r0, r6
 2638 0042 06F11C01 		add	r1, r6, #28
 2639 0046 FFF7FEFF 		bl	sha1_process
 2640              	.LVL254:
 2641              		.loc 1 297 0
 2642 004a 3F1B     		subs	r7, r7, r4
 2643              	.LVL255:
 2644              		.loc 1 296 0
 2645 004c A144     		add	r9, r9, r4
 2646              	.LVL256:
 2647              		.loc 1 298 0
 2648 004e 4FF00008 		mov	r8, #0
 2649              	.LVL257:
 2650              	.L21:
 2651              		.loc 1 301 0
 2652 0052 3F2F     		cmp	r7, #63
 2653 0054 EAD9     		bls	.L23
 2654 0056 3D46     		mov	r5, r7
 2655 0058 4C46     		mov	r4, r9
 2656              	.LVL258:
 2657              	.L24:
 2658              		.loc 1 303 0
 2659 005a 2146     		mov	r1, r4
 2660              		.loc 1 305 0
 2661 005c 403D     		subs	r5, r5, #64
 2662              	.LVL259:
 2663              		.loc 1 303 0
 2664 005e 3046     		mov	r0, r6
 2665 0060 FFF7FEFF 		bl	sha1_process
 2666              	.LVL260:
 2667              		.loc 1 301 0
 2668 0064 3F2D     		cmp	r5, #63
 2669              		.loc 1 304 0
 2670 0066 04F14004 		add	r4, r4, #64
 2671              	.LVL261:
 2672              		.loc 1 301 0
 2673 006a F6D8     		bhi	.L24
 2674 006c A7F14003 		sub	r3, r7, #64
 2675 0070 23F03F03 		bic	r3, r3, #63
ARM GAS  C:\Users\jo\AppData\Local\Temp\ccJopvHE.s 			page 48


 2676 0074 4033     		adds	r3, r3, #64
 2677 0076 07F03F07 		and	r7, r7, #63
 2678 007a 9944     		add	r9, r9, r3
 2679              		.loc 1 308 0
 2680 007c 002F     		cmp	r7, #0
 2681 007e D6D0     		beq	.L19
 2682              	.LVL262:
 2683              	.L33:
 2684              		.loc 1 309 0
 2685 0080 06EB0800 		add	r0, r6, r8
 2686 0084 4946     		mov	r1, r9
 2687 0086 3A46     		mov	r2, r7
 2688 0088 1C30     		adds	r0, r0, #28
 2689              		.loc 1 310 0
 2690 008a BDE8F843 		pop	{r3, r4, r5, r6, r7, r8, r9, lr}
 2691              		.cfi_restore 14
 2692              		.cfi_restore 9
 2693              		.cfi_restore 8
 2694              		.cfi_restore 7
 2695              		.cfi_restore 6
 2696              		.cfi_restore 5
 2697              		.cfi_restore 4
 2698              		.cfi_restore 3
 2699              		.cfi_def_cfa_offset 0
 2700              	.LVL263:
 2701              		.loc 1 309 0
 2702 008e FFF7FEBF 		b	memcpy
 2703              	.LVL264:
 2704              		.cfi_endproc
 2705              	.LFE12:
 2706              		.size	sha1_update.part.0, .-sha1_update.part.0
 2707 0092 00BFAFF3 		.section	.text.sha1_update,"ax",%progbits
 2707      0080AFF3 
 2707      0080AFF3 
 2707      0080
 2708              		.align	2
 2709              		.p2align 4,,15
 2710              		.global	sha1_update
 2711              		.thumb
 2712              		.thumb_func
 2713              		.type	sha1_update, %function
 2714              	sha1_update:
 2715              	.LFB2:
 2716              		.loc 1 276 0
 2717              		.cfi_startproc
 2718              		@ args = 0, pretend = 0, frame = 0
 2719              		@ frame_needed = 0, uses_anonymous_args = 0
 2720              		@ link register save eliminated.
 2721              	.LVL265:
 2722              		.loc 1 280 0
 2723 0000 0AB1     		cbz	r2, .L34
 2724 0002 FFF7FEBF 		b	sha1_update.part.0
 2725              	.LVL266:
 2726              	.L34:
 2727 0006 7047     		bx	lr
 2728              		.cfi_endproc
 2729              	.LFE2:
ARM GAS  C:\Users\jo\AppData\Local\Temp\ccJopvHE.s 			page 49


 2730              		.size	sha1_update, .-sha1_update
 2731 0008 AFF30080 		.section	.text.sha1_finish,"ax",%progbits
 2731      AFF30080 
 2732              		.align	2
 2733              		.p2align 4,,15
 2734              		.global	sha1_finish
 2735              		.thumb
 2736              		.thumb_func
 2737              		.type	sha1_finish, %function
 2738              	sha1_finish:
 2739              	.LFB3:
 2740              		.loc 1 324 0
 2741              		.cfi_startproc
 2742              		@ args = 0, pretend = 0, frame = 8
 2743              		@ frame_needed = 0, uses_anonymous_args = 0
 2744              	.LVL267:
 2745 0000 2DE9F041 		push	{r4, r5, r6, r7, r8, lr}
 2746              		.cfi_def_cfa_offset 24
 2747              		.cfi_offset 4, -24
 2748              		.cfi_offset 5, -20
 2749              		.cfi_offset 6, -16
 2750              		.cfi_offset 7, -12
 2751              		.cfi_offset 8, -8
 2752              		.cfi_offset 14, -4
 2753              		.loc 1 329 0
 2754 0004 0268     		ldr	r2, [r0]
 2755              		.loc 1 324 0
 2756 0006 0D46     		mov	r5, r1
 2757              		.loc 1 330 0
 2758 0008 4168     		ldr	r1, [r0, #4]
 2759              	.LVL268:
 2760              		.loc 1 329 0
 2761 000a 530F     		lsrs	r3, r2, #29
 2762              		.loc 1 324 0
 2763 000c 82B0     		sub	sp, sp, #8
 2764              		.cfi_def_cfa_offset 32
 2765              		.loc 1 329 0
 2766 000e 43EAC103 		orr	r3, r3, r1, lsl #3
 2767              	.LVL269:
 2768              		.loc 1 331 0
 2769 0012 D100     		lsls	r1, r2, #3
 2770              	.LVL270:
 2771              		.loc 1 336 0
 2772 0014 02F03F02 		and	r2, r2, #63
 2773              	.LVL271:
 2774              		.loc 1 324 0
 2775 0018 0446     		mov	r4, r0
 2776              		.loc 1 337 0
 2777 001a 372A     		cmp	r2, #55
 2778              		.loc 1 334 0
 2779 001c 4FEA1120 		lsr	r0, r1, #8
 2780              	.LVL272:
 2781              		.loc 1 333 0
 2782 0020 4FEA1368 		lsr	r8, r3, #24
 2783 0024 4FEA134C 		lsr	ip, r3, #16
 2784 0028 4FEA132E 		lsr	lr, r3, #8
 2785              		.loc 1 337 0
ARM GAS  C:\Users\jo\AppData\Local\Temp\ccJopvHE.s 			page 50


 2786 002c 94BF     		ite	ls
 2787 002e C2F13802 		rsbls	r2, r2, #56
 2788              	.LVL273:
 2789 0032 C2F17802 		rsbhi	r2, r2, #120
 2790              	.LVL274:
 2791              		.loc 1 334 0
 2792 0036 0F0E     		lsrs	r7, r1, #24
 2793 0038 0E0C     		lsrs	r6, r1, #16
 2794 003a 8DF80710 		strb	r1, [sp, #7]
 2795 003e 8DF80600 		strb	r0, [sp, #6]
 2796              	.LBB44:
 2797              	.LBB45:
 2798 0042 2249     		ldr	r1, .L40
 2799              	.LVL275:
 2800              	.LBE45:
 2801              	.LBE44:
 2802              		.loc 1 333 0
 2803 0044 8DF80330 		strb	r3, [sp, #3]
 2804              	.LBB48:
 2805              	.LBB46:
 2806 0048 2046     		mov	r0, r4
 2807              	.LBE46:
 2808              	.LBE48:
 2809 004a 8DF801C0 		strb	ip, [sp, #1]
 2810 004e 8DF802E0 		strb	lr, [sp, #2]
 2811 0052 8DF80080 		strb	r8, [sp]
 2812              		.loc 1 334 0
 2813 0056 8DF80470 		strb	r7, [sp, #4]
 2814 005a 8DF80560 		strb	r6, [sp, #5]
 2815              	.LBB49:
 2816              	.LBB47:
 2817 005e FFF7FEFF 		bl	sha1_update.part.0
 2818              	.LVL276:
 2819              	.LBE47:
 2820              	.LBE49:
 2821              	.LBB50:
 2822              	.LBB51:
 2823 0062 2046     		mov	r0, r4
 2824 0064 6946     		mov	r1, sp
 2825 0066 0822     		movs	r2, #8
 2826 0068 FFF7FEFF 		bl	sha1_update.part.0
 2827              	.LVL277:
 2828              	.LBE51:
 2829              	.LBE50:
 2830              		.loc 1 342 0
 2831 006c E37A     		ldrb	r3, [r4, #11]	@ zero_extendqisi2
 2832 006e 2B70     		strb	r3, [r5]
 2833 0070 6389     		ldrh	r3, [r4, #10]
 2834 0072 6B70     		strb	r3, [r5, #1]
 2835 0074 A368     		ldr	r3, [r4, #8]
 2836 0076 1B0A     		lsrs	r3, r3, #8
 2837 0078 AB70     		strb	r3, [r5, #2]
 2838 007a A368     		ldr	r3, [r4, #8]
 2839 007c EB70     		strb	r3, [r5, #3]
 2840              		.loc 1 343 0
 2841 007e E37B     		ldrb	r3, [r4, #15]	@ zero_extendqisi2
 2842 0080 2B71     		strb	r3, [r5, #4]
ARM GAS  C:\Users\jo\AppData\Local\Temp\ccJopvHE.s 			page 51


 2843 0082 E389     		ldrh	r3, [r4, #14]
 2844 0084 6B71     		strb	r3, [r5, #5]
 2845 0086 E368     		ldr	r3, [r4, #12]
 2846 0088 1B0A     		lsrs	r3, r3, #8
 2847 008a AB71     		strb	r3, [r5, #6]
 2848 008c E368     		ldr	r3, [r4, #12]
 2849 008e EB71     		strb	r3, [r5, #7]
 2850              		.loc 1 344 0
 2851 0090 E37C     		ldrb	r3, [r4, #19]	@ zero_extendqisi2
 2852 0092 2B72     		strb	r3, [r5, #8]
 2853 0094 638A     		ldrh	r3, [r4, #18]
 2854 0096 6B72     		strb	r3, [r5, #9]
 2855 0098 2369     		ldr	r3, [r4, #16]
 2856 009a 1B0A     		lsrs	r3, r3, #8
 2857 009c AB72     		strb	r3, [r5, #10]
 2858 009e 2369     		ldr	r3, [r4, #16]
 2859 00a0 EB72     		strb	r3, [r5, #11]
 2860              		.loc 1 345 0
 2861 00a2 E37D     		ldrb	r3, [r4, #23]	@ zero_extendqisi2
 2862 00a4 2B73     		strb	r3, [r5, #12]
 2863 00a6 E38A     		ldrh	r3, [r4, #22]
 2864 00a8 6B73     		strb	r3, [r5, #13]
 2865 00aa 6369     		ldr	r3, [r4, #20]
 2866 00ac 1B0A     		lsrs	r3, r3, #8
 2867 00ae AB73     		strb	r3, [r5, #14]
 2868 00b0 6369     		ldr	r3, [r4, #20]
 2869 00b2 EB73     		strb	r3, [r5, #15]
 2870              		.loc 1 346 0
 2871 00b4 E37E     		ldrb	r3, [r4, #27]	@ zero_extendqisi2
 2872 00b6 2B74     		strb	r3, [r5, #16]
 2873 00b8 638B     		ldrh	r3, [r4, #26]
 2874 00ba 6B74     		strb	r3, [r5, #17]
 2875 00bc A369     		ldr	r3, [r4, #24]
 2876 00be 1B0A     		lsrs	r3, r3, #8
 2877 00c0 AB74     		strb	r3, [r5, #18]
 2878 00c2 A369     		ldr	r3, [r4, #24]
 2879 00c4 EB74     		strb	r3, [r5, #19]
 2880              		.loc 1 347 0
 2881 00c6 02B0     		add	sp, sp, #8
 2882              		.cfi_def_cfa_offset 24
 2883              	.LVL278:
 2884              		@ sp needed
 2885 00c8 BDE8F081 		pop	{r4, r5, r6, r7, r8, pc}
 2886              	.LVL279:
 2887              	.L41:
 2888              		.align	2
 2889              	.L40:
 2890 00cc 00000000 		.word	.LANCHOR0
 2891              		.cfi_endproc
 2892              	.LFE3:
 2893              		.size	sha1_finish, .-sha1_finish
 2894              		.section	.text.sha1,"ax",%progbits
 2895              		.align	2
 2896              		.p2align 4,,15
 2897              		.global	sha1
 2898              		.thumb
 2899              		.thumb_func
ARM GAS  C:\Users\jo\AppData\Local\Temp\ccJopvHE.s 			page 52


 2900              		.type	sha1, %function
 2901              	sha1:
 2902              	.LFB4:
 2903              		.loc 1 355 0
 2904              		.cfi_startproc
 2905              		@ args = 0, pretend = 0, frame = 224
 2906              		@ frame_needed = 0, uses_anonymous_args = 0
 2907              	.LVL280:
 2908 0000 F0B5     		push	{r4, r5, r6, r7, lr}
 2909              		.cfi_def_cfa_offset 20
 2910              		.cfi_offset 4, -20
 2911              		.cfi_offset 5, -16
 2912              		.cfi_offset 6, -12
 2913              		.cfi_offset 7, -8
 2914              		.cfi_offset 14, -4
 2915 0002 B9B0     		sub	sp, sp, #228
 2916              		.cfi_def_cfa_offset 248
 2917              	.LVL281:
 2918              	.LBB52:
 2919              	.LBB53:
 2920              		.loc 1 106 0
 2921 0004 0023     		movs	r3, #0
 2922              		.loc 1 113 0
 2923 0006 114C     		ldr	r4, .L48
 2924              		.loc 1 109 0
 2925 0008 DFF84CC0 		ldr	ip, .L48+12
 2926              		.loc 1 110 0
 2927 000c DFF84CE0 		ldr	lr, .L48+16
 2928              		.loc 1 111 0
 2929 0010 0F4F     		ldr	r7, .L48+4
 2930              		.loc 1 112 0
 2931 0012 104E     		ldr	r6, .L48+8
 2932              		.loc 1 113 0
 2933 0014 0794     		str	r4, [sp, #28]
 2934              	.LVL282:
 2935              	.LBE53:
 2936              	.LBE52:
 2937              		.loc 1 355 0
 2938 0016 1546     		mov	r5, r2
 2939              	.LBB55:
 2940              	.LBB54:
 2941              		.loc 1 106 0
 2942 0018 0193     		str	r3, [sp, #4]
 2943              		.loc 1 107 0
 2944 001a 0293     		str	r3, [sp, #8]
 2945              		.loc 1 109 0
 2946 001c CDF80CC0 		str	ip, [sp, #12]
 2947              		.loc 1 110 0
 2948 0020 CDF810E0 		str	lr, [sp, #16]
 2949              		.loc 1 111 0
 2950 0024 0597     		str	r7, [sp, #20]
 2951              		.loc 1 112 0
 2952 0026 0696     		str	r6, [sp, #24]
 2953              	.LBE54:
 2954              	.LBE55:
 2955              	.LBB56:
 2956              	.LBB57:
ARM GAS  C:\Users\jo\AppData\Local\Temp\ccJopvHE.s 			page 53


 2957              		.loc 1 280 0
 2958 0028 0A46     		mov	r2, r1
 2959              	.LVL283:
 2960 002a 01AC     		add	r4, sp, #4
 2961              	.LVL284:
 2962 002c 19B1     		cbz	r1, .L43
 2963 002e 0146     		mov	r1, r0
 2964              	.LVL285:
 2965 0030 2046     		mov	r0, r4
 2966              	.LVL286:
 2967 0032 FFF7FEFF 		bl	sha1_update.part.0
 2968              	.LVL287:
 2969              	.L43:
 2970              	.LBE57:
 2971              	.LBE56:
 2972              		.loc 1 372 0
 2973 0036 2946     		mov	r1, r5
 2974 0038 2046     		mov	r0, r4
 2975 003a FFF7FEFF 		bl	sha1_finish
 2976              	.LVL288:
 2977              		.loc 1 374 0
 2978 003e 2046     		mov	r0, r4
 2979 0040 0021     		movs	r1, #0
 2980 0042 DC22     		movs	r2, #220
 2981 0044 FFF7FEFF 		bl	memset
 2982              	.LVL289:
 2983              		.loc 1 376 0
 2984 0048 39B0     		add	sp, sp, #228
 2985              		.cfi_def_cfa_offset 20
 2986              		@ sp needed
 2987 004a F0BD     		pop	{r4, r5, r6, r7, pc}
 2988              	.LVL290:
 2989              	.L49:
 2990              		.align	2
 2991              	.L48:
 2992 004c F0E1D2C3 		.word	-1009589776
 2993 0050 FEDCBA98 		.word	-1732584194
 2994 0054 76543210 		.word	271733878
 2995 0058 01234567 		.word	1732584193
 2996 005c 89ABCDEF 		.word	-271733879
 2997              		.cfi_endproc
 2998              	.LFE4:
 2999              		.size	sha1, .-sha1
 3000              		.section	.text.sha1_file,"ax",%progbits
 3001              		.align	2
 3002              		.p2align 4,,15
 3003              		.global	sha1_file
 3004              		.thumb
 3005              		.thumb_func
 3006              		.type	sha1_file, %function
 3007              	sha1_file:
 3008              	.LFB5:
 3009              		.loc 1 383 0
 3010              		.cfi_startproc
 3011              		@ args = 0, pretend = 0, frame = 1248
 3012              		@ frame_needed = 0, uses_anonymous_args = 0
 3013              	.LVL291:
ARM GAS  C:\Users\jo\AppData\Local\Temp\ccJopvHE.s 			page 54


 3014 0000 70B5     		push	{r4, r5, r6, lr}
 3015              		.cfi_def_cfa_offset 16
 3016              		.cfi_offset 4, -16
 3017              		.cfi_offset 5, -12
 3018              		.cfi_offset 6, -8
 3019              		.cfi_offset 14, -4
 3020 0002 0E46     		mov	r6, r1
 3021 0004 ADF59C6D 		sub	sp, sp, #1248
 3022              		.cfi_def_cfa_offset 1264
 3023              		.loc 1 389 0
 3024 0008 1F49     		ldr	r1, .L59
 3025              	.LVL292:
 3026 000a FFF7FEFF 		bl	fopen
 3027              	.LVL293:
 3028 000e 0546     		mov	r5, r0
 3029 0010 0028     		cmp	r0, #0
 3030 0012 35D0     		beq	.L55
 3031              	.LVL294:
 3032              	.LBB58:
 3033              	.LBB59:
 3034              		.loc 1 109 0
 3035 0014 1D4B     		ldr	r3, .L59+4
 3036              		.loc 1 110 0
 3037 0016 1E4C     		ldr	r4, .L59+8
 3038              		.loc 1 111 0
 3039 0018 1E48     		ldr	r0, .L59+12
 3040              	.LVL295:
 3041              		.loc 1 112 0
 3042 001a 1F49     		ldr	r1, .L59+16
 3043              		.loc 1 113 0
 3044 001c 1F4A     		ldr	r2, .L59+20
 3045              		.loc 1 109 0
 3046 001e 0393     		str	r3, [sp, #12]
 3047              		.loc 1 106 0
 3048 0020 0023     		movs	r3, #0
 3049              		.loc 1 110 0
 3050 0022 0494     		str	r4, [sp, #16]
 3051              		.loc 1 111 0
 3052 0024 0590     		str	r0, [sp, #20]
 3053              		.loc 1 112 0
 3054 0026 0691     		str	r1, [sp, #24]
 3055              		.loc 1 113 0
 3056 0028 0792     		str	r2, [sp, #28]
 3057              		.loc 1 106 0
 3058 002a 0193     		str	r3, [sp, #4]
 3059              		.loc 1 107 0
 3060 002c 0293     		str	r3, [sp, #8]
 3061              	.L52:
 3062              	.LBE59:
 3063              	.LBE58:
 3064              		.loc 1 394 0
 3065 002e 0121     		movs	r1, #1
 3066 0030 4FF48062 		mov	r2, #1024
 3067 0034 38A8     		add	r0, sp, #224
 3068 0036 2B46     		mov	r3, r5
 3069 0038 FFF7FEFF 		bl	fread
 3070              	.LVL296:
ARM GAS  C:\Users\jo\AppData\Local\Temp\ccJopvHE.s 			page 55


 3071              	.LBB60:
 3072              	.LBB61:
 3073 003c 38A9     		add	r1, sp, #224
 3074              	.LVL297:
 3075              	.LBE61:
 3076              	.LBE60:
 3077 003e 0446     		mov	r4, r0
 3078              	.LVL298:
 3079              	.LBB64:
 3080              	.LBB62:
 3081 0040 0246     		mov	r2, r0
 3082              	.LBE62:
 3083              	.LBE64:
 3084 0042 18B1     		cbz	r0, .L57
 3085              	.LBB65:
 3086              	.LBB63:
 3087 0044 01A8     		add	r0, sp, #4
 3088              	.LVL299:
 3089 0046 FFF7FEFF 		bl	sha1_update.part.0
 3090              	.LVL300:
 3091 004a F0E7     		b	.L52
 3092              	.LVL301:
 3093              	.L57:
 3094              	.LBE63:
 3095              	.LBE65:
 3096              		.loc 1 397 0
 3097 004c 3146     		mov	r1, r6
 3098              	.LVL302:
 3099 004e 01A8     		add	r0, sp, #4
 3100              	.LVL303:
 3101 0050 FFF7FEFF 		bl	sha1_finish
 3102              	.LVL304:
 3103              		.loc 1 399 0
 3104 0054 2146     		mov	r1, r4
 3105 0056 01A8     		add	r0, sp, #4
 3106              	.LVL305:
 3107 0058 DC22     		movs	r2, #220
 3108 005a FFF7FEFF 		bl	memset
 3109              	.LVL306:
 3110              		.loc 1 401 0
 3111 005e AC89     		ldrh	r4, [r5, #12]
 3112              	.LVL307:
 3113 0060 04F04004 		and	r4, r4, #64
 3114 0064 A4B2     		uxth	r4, r4
 3115              		.loc 1 403 0
 3116 0066 2846     		mov	r0, r5
 3117              		.loc 1 401 0
 3118 0068 2CB9     		cbnz	r4, .L58
 3119              	.LVL308:
 3120              		.loc 1 407 0
 3121 006a FFF7FEFF 		bl	fclose
 3122              	.LVL309:
 3123              		.loc 1 408 0
 3124 006e 2046     		mov	r0, r4
 3125              	.LVL310:
 3126              	.L51:
 3127              		.loc 1 409 0
ARM GAS  C:\Users\jo\AppData\Local\Temp\ccJopvHE.s 			page 56


 3128 0070 0DF59C6D 		add	sp, sp, #1248
 3129              		.cfi_remember_state
 3130              		.cfi_def_cfa_offset 16
 3131              		@ sp needed
 3132 0074 70BD     		pop	{r4, r5, r6, pc}
 3133              	.LVL311:
 3134              	.L58:
 3135              		.cfi_restore_state
 3136              		.loc 1 403 0
 3137 0076 FFF7FEFF 		bl	fclose
 3138              	.LVL312:
 3139              		.loc 1 404 0
 3140 007a 6FF07500 		mvn	r0, #117
 3141 007e F7E7     		b	.L51
 3142              	.LVL313:
 3143              	.L55:
 3144              		.loc 1 390 0
 3145 0080 6FF07500 		mvn	r0, #117
 3146              	.LVL314:
 3147 0084 F4E7     		b	.L51
 3148              	.L60:
 3149 0086 00BF     		.align	2
 3150              	.L59:
 3151 0088 00000000 		.word	.LC0
 3152 008c 01234567 		.word	1732584193
 3153 0090 89ABCDEF 		.word	-271733879
 3154 0094 FEDCBA98 		.word	-1732584194
 3155 0098 76543210 		.word	271733878
 3156 009c F0E1D2C3 		.word	-1009589776
 3157              		.cfi_endproc
 3158              	.LFE5:
 3159              		.size	sha1_file, .-sha1_file
 3160              		.section	.text.sha1_hmac_starts,"ax",%progbits
 3161              		.align	2
 3162              		.p2align 4,,15
 3163              		.global	sha1_hmac_starts
 3164              		.thumb
 3165              		.thumb_func
 3166              		.type	sha1_hmac_starts, %function
 3167              	sha1_hmac_starts:
 3168              	.LFB6:
 3169              		.loc 1 416 0
 3170              		.cfi_startproc
 3171              		@ args = 0, pretend = 0, frame = 24
 3172              		@ frame_needed = 0, uses_anonymous_args = 0
 3173              	.LVL315:
 3174 0000 2DE9F041 		push	{r4, r5, r6, r7, r8, lr}
 3175              		.cfi_def_cfa_offset 24
 3176              		.cfi_offset 4, -24
 3177              		.cfi_offset 5, -20
 3178              		.cfi_offset 6, -16
 3179              		.cfi_offset 7, -12
 3180              		.cfi_offset 8, -8
 3181              		.cfi_offset 14, -4
 3182              		.loc 1 420 0
 3183 0004 402A     		cmp	r2, #64
 3184              		.loc 1 416 0
ARM GAS  C:\Users\jo\AppData\Local\Temp\ccJopvHE.s 			page 57


 3185 0006 86B0     		sub	sp, sp, #24
 3186              		.cfi_def_cfa_offset 48
 3187              		.loc 1 416 0
 3188 0008 1546     		mov	r5, r2
 3189 000a 0646     		mov	r6, r0
 3190 000c 8846     		mov	r8, r1
 3191              		.loc 1 420 0
 3192 000e 3DD8     		bhi	.L71
 3193              		.loc 1 427 0
 3194 0010 00F15C07 		add	r7, r0, #92
 3195 0014 3621     		movs	r1, #54
 3196              	.LVL316:
 3197 0016 4022     		movs	r2, #64
 3198              	.LVL317:
 3199 0018 3846     		mov	r0, r7
 3200              	.LVL318:
 3201              		.loc 1 428 0
 3202 001a 06F19C04 		add	r4, r6, #156
 3203              		.loc 1 427 0
 3204 001e FFF7FEFF 		bl	memset
 3205              	.LVL319:
 3206              		.loc 1 428 0
 3207 0022 2046     		mov	r0, r4
 3208 0024 5C21     		movs	r1, #92
 3209 0026 4022     		movs	r2, #64
 3210 0028 FFF7FEFF 		bl	memset
 3211              	.LVL320:
 3212              		.loc 1 430 0
 3213 002c BDB1     		cbz	r5, .L64
 3214              	.LVL321:
 3215              	.L63:
 3216 002e 06F15B0E 		add	lr, r6, #91
 3217 0032 2046     		mov	r0, r4
 3218 0034 4146     		mov	r1, r8
 3219              		.loc 1 424 0 discriminator 3
 3220 0036 7446     		mov	r4, lr
 3221 0038 0022     		movs	r2, #0
 3222              	.LVL322:
 3223              	.L65:
 3224              		.loc 1 432 0 discriminator 3
 3225 003a 91F800C0 		ldrb	ip, [r1]	@ zero_extendqisi2
 3226 003e 14F8013F 		ldrb	r3, [r4, #1]!	@ zero_extendqisi2
 3227 0042 8CEA0303 		eor	r3, ip, r3
 3228 0046 0EF8013F 		strb	r3, [lr, #1]!
 3229              		.loc 1 433 0 discriminator 3
 3230 004a 11F801CB 		ldrb	ip, [r1], #1	@ zero_extendqisi2
 3231 004e 0378     		ldrb	r3, [r0]	@ zero_extendqisi2
 3232              		.loc 1 430 0 discriminator 3
 3233 0050 0132     		adds	r2, r2, #1
 3234              	.LVL323:
 3235              		.loc 1 433 0 discriminator 3
 3236 0052 8CEA0303 		eor	r3, ip, r3
 3237              		.loc 1 430 0 discriminator 3
 3238 0056 AA42     		cmp	r2, r5
 3239              		.loc 1 433 0 discriminator 3
 3240 0058 00F8013B 		strb	r3, [r0], #1
 3241              		.loc 1 430 0 discriminator 3
ARM GAS  C:\Users\jo\AppData\Local\Temp\ccJopvHE.s 			page 58


 3242 005c EDD3     		bcc	.L65
 3243              	.LVL324:
 3244              	.L64:
 3245              	.LBB66:
 3246              	.LBB67:
 3247              		.loc 1 106 0
 3248 005e 0023     		movs	r3, #0
 3249              		.loc 1 109 0
 3250 0060 DFF868E0 		ldr	lr, .L72+16
 3251              		.loc 1 110 0
 3252 0064 154D     		ldr	r5, .L72
 3253              	.LVL325:
 3254              		.loc 1 111 0
 3255 0066 164C     		ldr	r4, .L72+4
 3256              		.loc 1 112 0
 3257 0068 1648     		ldr	r0, .L72+8
 3258              		.loc 1 113 0
 3259 006a 174A     		ldr	r2, .L72+12
 3260              		.loc 1 112 0
 3261 006c 7061     		str	r0, [r6, #20]
 3262              		.loc 1 113 0
 3263 006e B261     		str	r2, [r6, #24]
 3264              		.loc 1 106 0
 3265 0070 3360     		str	r3, [r6]
 3266              	.LVL326:
 3267              	.LBE67:
 3268              	.LBE66:
 3269              	.LBB69:
 3270              	.LBB70:
 3271 0072 3946     		mov	r1, r7
 3272              	.LBE70:
 3273              	.LBE69:
 3274              	.LBB72:
 3275              	.LBB68:
 3276              		.loc 1 107 0
 3277 0074 7360     		str	r3, [r6, #4]
 3278              		.loc 1 109 0
 3279 0076 C6F808E0 		str	lr, [r6, #8]
 3280              		.loc 1 110 0
 3281 007a F560     		str	r5, [r6, #12]
 3282              		.loc 1 111 0
 3283 007c 3461     		str	r4, [r6, #16]
 3284              	.LBE68:
 3285              	.LBE72:
 3286              	.LBB73:
 3287              	.LBB71:
 3288 007e 3046     		mov	r0, r6
 3289 0080 4022     		movs	r2, #64
 3290 0082 FFF7FEFF 		bl	sha1_update.part.0
 3291              	.LVL327:
 3292              	.LBE71:
 3293              	.LBE73:
 3294              		.loc 1 440 0
 3295 0086 06B0     		add	sp, sp, #24
 3296              		.cfi_remember_state
 3297              		.cfi_def_cfa_offset 24
 3298              		@ sp needed
ARM GAS  C:\Users\jo\AppData\Local\Temp\ccJopvHE.s 			page 59


 3299 0088 BDE8F081 		pop	{r4, r5, r6, r7, r8, pc}
 3300              	.LVL328:
 3301              	.L71:
 3302              		.cfi_restore_state
 3303              		.loc 1 422 0
 3304 008c 0846     		mov	r0, r1
 3305              	.LVL329:
 3306              		.loc 1 427 0
 3307 008e 06F15C07 		add	r7, r6, #92
 3308              		.loc 1 422 0
 3309 0092 1146     		mov	r1, r2
 3310              	.LVL330:
 3311 0094 01AA     		add	r2, sp, #4
 3312              	.LVL331:
 3313 0096 FFF7FEFF 		bl	sha1
 3314              	.LVL332:
 3315              		.loc 1 428 0
 3316 009a 06F19C04 		add	r4, r6, #156
 3317              		.loc 1 427 0
 3318 009e 3621     		movs	r1, #54
 3319 00a0 4022     		movs	r2, #64
 3320 00a2 3846     		mov	r0, r7
 3321 00a4 FFF7FEFF 		bl	memset
 3322              	.LVL333:
 3323              		.loc 1 428 0
 3324 00a8 2046     		mov	r0, r4
 3325 00aa 5C21     		movs	r1, #92
 3326 00ac 4022     		movs	r2, #64
 3327              		.loc 1 424 0
 3328 00ae 0DF10408 		add	r8, sp, #4
 3329              	.LVL334:
 3330              		.loc 1 428 0
 3331 00b2 FFF7FEFF 		bl	memset
 3332              	.LVL335:
 3333              		.loc 1 423 0
 3334 00b6 1425     		movs	r5, #20
 3335 00b8 B9E7     		b	.L63
 3336              	.L73:
 3337 00ba 00BF     		.align	2
 3338              	.L72:
 3339 00bc 89ABCDEF 		.word	-271733879
 3340 00c0 FEDCBA98 		.word	-1732584194
 3341 00c4 76543210 		.word	271733878
 3342 00c8 F0E1D2C3 		.word	-1009589776
 3343 00cc 01234567 		.word	1732584193
 3344              		.cfi_endproc
 3345              	.LFE6:
 3346              		.size	sha1_hmac_starts, .-sha1_hmac_starts
 3347              		.section	.text.sha1_hmac_update,"ax",%progbits
 3348              		.align	2
 3349              		.p2align 4,,15
 3350              		.global	sha1_hmac_update
 3351              		.thumb
 3352              		.thumb_func
 3353              		.type	sha1_hmac_update, %function
 3354              	sha1_hmac_update:
 3355              	.LFB7:
ARM GAS  C:\Users\jo\AppData\Local\Temp\ccJopvHE.s 			page 60


 3356              		.loc 1 446 0
 3357              		.cfi_startproc
 3358              		@ args = 0, pretend = 0, frame = 0
 3359              		@ frame_needed = 0, uses_anonymous_args = 0
 3360              		@ link register save eliminated.
 3361              	.LVL336:
 3362              	.LBB74:
 3363              	.LBB75:
 3364              		.loc 1 280 0
 3365 0000 02B9     		cbnz	r2, .L76
 3366 0002 7047     		bx	lr
 3367              	.L76:
 3368 0004 FFF7FEBF 		b	sha1_update.part.0
 3369              	.LVL337:
 3370              	.LBE75:
 3371              	.LBE74:
 3372              		.cfi_endproc
 3373              	.LFE7:
 3374              		.size	sha1_hmac_update, .-sha1_hmac_update
 3375 0008 AFF30080 		.section	.text.sha1_hmac_finish,"ax",%progbits
 3375      AFF30080 
 3376              		.align	2
 3377              		.p2align 4,,15
 3378              		.global	sha1_hmac_finish
 3379              		.thumb
 3380              		.thumb_func
 3381              		.type	sha1_hmac_finish, %function
 3382              	sha1_hmac_finish:
 3383              	.LFB8:
 3384              		.loc 1 454 0
 3385              		.cfi_startproc
 3386              		@ args = 0, pretend = 0, frame = 24
 3387              		@ frame_needed = 0, uses_anonymous_args = 0
 3388              	.LVL338:
 3389 0000 70B5     		push	{r4, r5, r6, lr}
 3390              		.cfi_def_cfa_offset 16
 3391              		.cfi_offset 4, -16
 3392              		.cfi_offset 5, -12
 3393              		.cfi_offset 6, -8
 3394              		.cfi_offset 14, -4
 3395 0002 86B0     		sub	sp, sp, #24
 3396              		.cfi_def_cfa_offset 40
 3397              		.loc 1 454 0
 3398 0004 0446     		mov	r4, r0
 3399 0006 0D46     		mov	r5, r1
 3400              		.loc 1 457 0
 3401 0008 01A9     		add	r1, sp, #4
 3402              	.LVL339:
 3403 000a FFF7FEFF 		bl	sha1_finish
 3404              	.LVL340:
 3405              	.LBB76:
 3406              	.LBB77:
 3407              		.loc 1 109 0
 3408 000e 0F4B     		ldr	r3, .L79
 3409 0010 A360     		str	r3, [r4, #8]
 3410              		.loc 1 110 0
 3411 0012 0F4E     		ldr	r6, .L79+4
ARM GAS  C:\Users\jo\AppData\Local\Temp\ccJopvHE.s 			page 61


 3412              		.loc 1 111 0
 3413 0014 0F48     		ldr	r0, .L79+8
 3414              		.loc 1 112 0
 3415 0016 1049     		ldr	r1, .L79+12
 3416              		.loc 1 113 0
 3417 0018 104A     		ldr	r2, .L79+16
 3418              		.loc 1 111 0
 3419 001a 2061     		str	r0, [r4, #16]
 3420              		.loc 1 106 0
 3421 001c 0023     		movs	r3, #0
 3422 001e 2360     		str	r3, [r4]
 3423              		.loc 1 107 0
 3424 0020 6360     		str	r3, [r4, #4]
 3425              		.loc 1 112 0
 3426 0022 6161     		str	r1, [r4, #20]
 3427              		.loc 1 113 0
 3428 0024 A261     		str	r2, [r4, #24]
 3429              	.LVL341:
 3430              	.LBE77:
 3431              	.LBE76:
 3432              	.LBB79:
 3433              	.LBB80:
 3434 0026 2046     		mov	r0, r4
 3435 0028 04F19C01 		add	r1, r4, #156
 3436              	.LVL342:
 3437              	.LBE80:
 3438              	.LBE79:
 3439              	.LBB82:
 3440              	.LBB78:
 3441              		.loc 1 110 0
 3442 002c E660     		str	r6, [r4, #12]
 3443              	.LBE78:
 3444              	.LBE82:
 3445              	.LBB83:
 3446              	.LBB81:
 3447 002e 4022     		movs	r2, #64
 3448 0030 FFF7FEFF 		bl	sha1_update.part.0
 3449              	.LVL343:
 3450              	.LBE81:
 3451              	.LBE83:
 3452              	.LBB84:
 3453              	.LBB85:
 3454 0034 2046     		mov	r0, r4
 3455 0036 01A9     		add	r1, sp, #4
 3456              	.LVL344:
 3457 0038 1422     		movs	r2, #20
 3458 003a FFF7FEFF 		bl	sha1_update.part.0
 3459              	.LVL345:
 3460              	.LBE85:
 3461              	.LBE84:
 3462              		.loc 1 461 0
 3463 003e 2046     		mov	r0, r4
 3464 0040 2946     		mov	r1, r5
 3465 0042 FFF7FEFF 		bl	sha1_finish
 3466              	.LVL346:
 3467              		.loc 1 464 0
 3468 0046 06B0     		add	sp, sp, #24
ARM GAS  C:\Users\jo\AppData\Local\Temp\ccJopvHE.s 			page 62


 3469              		.cfi_def_cfa_offset 16
 3470              		@ sp needed
 3471 0048 70BD     		pop	{r4, r5, r6, pc}
 3472              	.LVL347:
 3473              	.L80:
 3474 004a 00BF     		.align	2
 3475              	.L79:
 3476 004c 01234567 		.word	1732584193
 3477 0050 89ABCDEF 		.word	-271733879
 3478 0054 FEDCBA98 		.word	-1732584194
 3479 0058 76543210 		.word	271733878
 3480 005c F0E1D2C3 		.word	-1009589776
 3481              		.cfi_endproc
 3482              	.LFE8:
 3483              		.size	sha1_hmac_finish, .-sha1_hmac_finish
 3484              		.section	.text.sha1_hmac_reset,"ax",%progbits
 3485              		.align	2
 3486              		.p2align 4,,15
 3487              		.global	sha1_hmac_reset
 3488              		.thumb
 3489              		.thumb_func
 3490              		.type	sha1_hmac_reset, %function
 3491              	sha1_hmac_reset:
 3492              	.LFB9:
 3493              		.loc 1 470 0
 3494              		.cfi_startproc
 3495              		@ args = 0, pretend = 0, frame = 0
 3496              		@ frame_needed = 0, uses_anonymous_args = 0
 3497              		@ link register save eliminated.
 3498              	.LVL348:
 3499 0000 70B4     		push	{r4, r5, r6}
 3500              		.cfi_def_cfa_offset 12
 3501              		.cfi_offset 4, -12
 3502              		.cfi_offset 5, -8
 3503              		.cfi_offset 6, -4
 3504              	.LBB86:
 3505              	.LBB87:
 3506              		.loc 1 109 0
 3507 0002 094B     		ldr	r3, .L83
 3508              		.loc 1 110 0
 3509 0004 094E     		ldr	r6, .L83+4
 3510              		.loc 1 111 0
 3511 0006 0A4D     		ldr	r5, .L83+8
 3512              		.loc 1 112 0
 3513 0008 0A4C     		ldr	r4, .L83+12
 3514              		.loc 1 113 0
 3515 000a 0B4A     		ldr	r2, .L83+16
 3516              		.loc 1 109 0
 3517 000c 8360     		str	r3, [r0, #8]
 3518              	.LBE87:
 3519              	.LBE86:
 3520              		.loc 1 470 0
 3521 000e 0146     		mov	r1, r0
 3522              	.LVL349:
 3523              	.LBB89:
 3524              	.LBB88:
 3525              		.loc 1 106 0
ARM GAS  C:\Users\jo\AppData\Local\Temp\ccJopvHE.s 			page 63


 3526 0010 0023     		movs	r3, #0
 3527              		.loc 1 110 0
 3528 0012 C660     		str	r6, [r0, #12]
 3529              		.loc 1 111 0
 3530 0014 0561     		str	r5, [r0, #16]
 3531              		.loc 1 112 0
 3532 0016 4461     		str	r4, [r0, #20]
 3533              		.loc 1 113 0
 3534 0018 8261     		str	r2, [r0, #24]
 3535              	.LVL350:
 3536              		.loc 1 106 0
 3537 001a 0360     		str	r3, [r0]
 3538              		.loc 1 107 0
 3539 001c 4360     		str	r3, [r0, #4]
 3540              	.LBE88:
 3541              	.LBE89:
 3542              	.LBB90:
 3543              	.LBB91:
 3544 001e 5C31     		adds	r1, r1, #92
 3545              	.LVL351:
 3546 0020 4022     		movs	r2, #64
 3547              	.LBE91:
 3548              	.LBE90:
 3549              		.loc 1 473 0
 3550 0022 70BC     		pop	{r4, r5, r6}
 3551              		.cfi_restore 6
 3552              		.cfi_restore 5
 3553              		.cfi_restore 4
 3554              		.cfi_def_cfa_offset 0
 3555              	.LBB93:
 3556              	.LBB92:
 3557 0024 FFF7FEBF 		b	sha1_update.part.0
 3558              	.LVL352:
 3559              	.L84:
 3560              		.align	2
 3561              	.L83:
 3562 0028 01234567 		.word	1732584193
 3563 002c 89ABCDEF 		.word	-271733879
 3564 0030 FEDCBA98 		.word	-1732584194
 3565 0034 76543210 		.word	271733878
 3566 0038 F0E1D2C3 		.word	-1009589776
 3567              	.LBE92:
 3568              	.LBE93:
 3569              		.cfi_endproc
 3570              	.LFE9:
 3571              		.size	sha1_hmac_reset, .-sha1_hmac_reset
 3572 003c AFF30080 		.section	.text.sha1_hmac,"ax",%progbits
 3573              		.align	2
 3574              		.p2align 4,,15
 3575              		.global	sha1_hmac
 3576              		.thumb
 3577              		.thumb_func
 3578              		.type	sha1_hmac, %function
 3579              	sha1_hmac:
 3580              	.LFB10:
 3581              		.loc 1 481 0
 3582              		.cfi_startproc
ARM GAS  C:\Users\jo\AppData\Local\Temp\ccJopvHE.s 			page 64


 3583              		@ args = 4, pretend = 0, frame = 224
 3584              		@ frame_needed = 0, uses_anonymous_args = 0
 3585              	.LVL353:
 3586 0000 70B5     		push	{r4, r5, r6, lr}
 3587              		.cfi_def_cfa_offset 16
 3588              		.cfi_offset 4, -16
 3589              		.cfi_offset 5, -12
 3590              		.cfi_offset 6, -8
 3591              		.cfi_offset 14, -4
 3592 0002 0D46     		mov	r5, r1
 3593 0004 B8B0     		sub	sp, sp, #224
 3594              		.cfi_def_cfa_offset 240
 3595              		.loc 1 499 0
 3596 0006 0146     		mov	r1, r0
 3597              	.LVL354:
 3598              		.loc 1 481 0
 3599 0008 1646     		mov	r6, r2
 3600 000a 1C46     		mov	r4, r3
 3601              		.loc 1 499 0
 3602 000c 2A46     		mov	r2, r5
 3603              	.LVL355:
 3604 000e 01A8     		add	r0, sp, #4
 3605              	.LVL356:
 3606 0010 FFF7FEFF 		bl	sha1_hmac_starts
 3607              	.LVL357:
 3608              	.LBB94:
 3609              	.LBB95:
 3610              	.LBB96:
 3611              		.loc 1 280 0
 3612 0014 24B1     		cbz	r4, .L86
 3613 0016 3146     		mov	r1, r6
 3614 0018 2246     		mov	r2, r4
 3615 001a 01A8     		add	r0, sp, #4
 3616              	.LVL358:
 3617 001c FFF7FEFF 		bl	sha1_update.part.0
 3618              	.LVL359:
 3619              	.L86:
 3620              	.LBE96:
 3621              	.LBE95:
 3622              	.LBE94:
 3623              		.loc 1 501 0
 3624 0020 01A8     		add	r0, sp, #4
 3625              	.LVL360:
 3626 0022 3C99     		ldr	r1, [sp, #240]
 3627 0024 FFF7FEFF 		bl	sha1_hmac_finish
 3628              	.LVL361:
 3629              		.loc 1 503 0
 3630 0028 01A8     		add	r0, sp, #4
 3631              	.LVL362:
 3632 002a 0021     		movs	r1, #0
 3633 002c DC22     		movs	r2, #220
 3634 002e FFF7FEFF 		bl	memset
 3635              	.LVL363:
 3636              		.loc 1 505 0
 3637 0032 38B0     		add	sp, sp, #224
 3638              		.cfi_def_cfa_offset 16
 3639              		@ sp needed
ARM GAS  C:\Users\jo\AppData\Local\Temp\ccJopvHE.s 			page 65


 3640 0034 70BD     		pop	{r4, r5, r6, pc}
 3641              		.cfi_endproc
 3642              	.LFE10:
 3643              		.size	sha1_hmac, .-sha1_hmac
 3644 0036 00BFAFF3 		.section	.text.sha1_self_test,"ax",%progbits
 3644      0080AFF3 
 3644      0080
 3645              		.align	2
 3646              		.p2align 4,,15
 3647              		.global	sha1_self_test
 3648              		.thumb
 3649              		.thumb_func
 3650              		.type	sha1_self_test, %function
 3651              	sha1_self_test:
 3652              	.LFB11:
 3653              		.loc 1 603 0
 3654              		.cfi_startproc
 3655              		@ args = 0, pretend = 0, frame = 1272
 3656              		@ frame_needed = 0, uses_anonymous_args = 0
 3657              	.LVL364:
 3658 0000 2DE9F04F 		push	{r4, r5, r6, r7, r8, r9, r10, fp, lr}
 3659              		.cfi_def_cfa_offset 36
 3660              		.cfi_offset 4, -36
 3661              		.cfi_offset 5, -32
 3662              		.cfi_offset 6, -28
 3663              		.cfi_offset 7, -24
 3664              		.cfi_offset 8, -20
 3665              		.cfi_offset 9, -16
 3666              		.cfi_offset 10, -12
 3667              		.cfi_offset 11, -8
 3668              		.cfi_offset 14, -4
 3669 0004 644C     		ldr	r4, .L150
 3670 0006 654E     		ldr	r6, .L150+4
 3671              	.LBB97:
 3672              	.LBB98:
 3673              		.loc 1 109 0
 3674 0008 DFF8B8B1 		ldr	fp, .L150+44
 3675              		.loc 1 110 0
 3676 000c DFF8B8A1 		ldr	r10, .L150+48
 3677              		.loc 1 111 0
 3678 0010 DFF8B891 		ldr	r9, .L150+52
 3679              		.loc 1 113 0
 3680 0014 624F     		ldr	r7, .L150+8
 3681              	.LBE98:
 3682              	.LBE97:
 3683              		.loc 1 603 0
 3684 0016 ADF2FC4D 		subw	sp, sp, #1276
 3685              		.cfi_def_cfa_offset 1312
 3686              		.loc 1 603 0
 3687 001a 0546     		mov	r5, r0
 3688              		.loc 1 612 0
 3689 001c 4FF00008 		mov	r8, #0
 3690              	.LVL365:
 3691              	.L100:
 3692              		.loc 1 614 0
 3693 0020 002D     		cmp	r5, #0
 3694 0022 75D1     		bne	.L140
ARM GAS  C:\Users\jo\AppData\Local\Temp\ccJopvHE.s 			page 66


 3695              	.L92:
 3696              	.LVL366:
 3697              	.LBB101:
 3698              	.LBB99:
 3699              		.loc 1 106 0
 3700 0024 0022     		movs	r2, #0
 3701              		.loc 1 112 0
 3702 0026 5F4B     		ldr	r3, .L150+12
 3703              		.loc 1 109 0
 3704 0028 CDF824B0 		str	fp, [sp, #36]
 3705              	.LBE99:
 3706              	.LBE101:
 3707              		.loc 1 619 0
 3708 002c B8F1020F 		cmp	r8, #2
 3709              	.LBB102:
 3710              	.LBB100:
 3711              		.loc 1 110 0
 3712 0030 CDF828A0 		str	r10, [sp, #40]
 3713              		.loc 1 111 0
 3714 0034 CDF82C90 		str	r9, [sp, #44]
 3715              		.loc 1 112 0
 3716 0038 0C93     		str	r3, [sp, #48]
 3717              		.loc 1 113 0
 3718 003a 0D97     		str	r7, [sp, #52]
 3719              		.loc 1 106 0
 3720 003c 0792     		str	r2, [sp, #28]
 3721              		.loc 1 107 0
 3722 003e 0892     		str	r2, [sp, #32]
 3723              	.LBE100:
 3724              	.LBE102:
 3725              		.loc 1 619 0
 3726 0040 00F09380 		beq	.L141
 3727              		.loc 1 628 0
 3728 0044 584A     		ldr	r2, .L150+16
 3729              		.loc 1 627 0
 3730 0046 52F82820 		ldr	r2, [r2, r8, lsl #2]
 3731              	.LVL367:
 3732              	.LBB103:
 3733              	.LBB104:
 3734              		.loc 1 280 0
 3735 004a 002A     		cmp	r2, #0
 3736 004c 5BD1     		bne	.L142
 3737              	.LVL368:
 3738              	.L95:
 3739              	.LBE104:
 3740              	.LBE103:
 3741              		.loc 1 630 0
 3742 004e 07A8     		add	r0, sp, #28
 3743              	.LVL369:
 3744 0050 02A9     		add	r1, sp, #8
 3745 0052 FFF7FEFF 		bl	sha1_finish
 3746              	.LVL370:
 3747              		.loc 1 632 0
 3748 0056 02A8     		add	r0, sp, #8
 3749 0058 2146     		mov	r1, r4
 3750 005a 1422     		movs	r2, #20
 3751 005c FFF7FEFF 		bl	memcmp
ARM GAS  C:\Users\jo\AppData\Local\Temp\ccJopvHE.s 			page 67


 3752              	.LVL371:
 3753 0060 0028     		cmp	r0, #0
 3754 0062 67D1     		bne	.L107
 3755              		.loc 1 640 0
 3756 0064 002D     		cmp	r5, #0
 3757 0066 59D1     		bne	.L143
 3758              	.L99:
 3759              		.loc 1 612 0 discriminator 2
 3760 0068 08F10108 		add	r8, r8, #1
 3761              	.LVL372:
 3762 006c B8F1030F 		cmp	r8, #3
 3763 0070 04F11404 		add	r4, r4, #20
 3764 0074 06F13906 		add	r6, r6, #57
 3765 0078 D2D1     		bne	.L100
 3766              		.loc 1 644 0
 3767 007a 002D     		cmp	r5, #0
 3768 007c 64D1     		bne	.L144
 3769              	.L101:
 3770              	.LVL373:
 3771 007e 4B4F     		ldr	r7, .L150+20
 3772 0080 DFF84C81 		ldr	r8, .L150+56
 3773 0084 4A4E     		ldr	r6, .L150+24
 3774 0086 DFF84CB1 		ldr	fp, .L150+60
 3775              		.loc 1 659 0 discriminator 1
 3776 008a DFF84CA1 		ldr	r10, .L150+64
 3777              		.loc 1 621 0 discriminator 1
 3778 008e 0024     		movs	r4, #0
 3779              	.LVL374:
 3780              	.L109:
 3781              		.loc 1 649 0
 3782 0090 85BB     		cbnz	r5, .L145
 3783              	.L102:
 3784 0092 631F     		subs	r3, r4, #5
 3785              		.loc 1 652 0
 3786 0094 012B     		cmp	r3, #1
 3787 0096 5BD9     		bls	.L146
 3788              		.loc 1 658 0
 3789 0098 07A8     		add	r0, sp, #28
 3790              	.LVL375:
 3791 009a 3146     		mov	r1, r6
 3792 009c 5AF82420 		ldr	r2, [r10, r4, lsl #2]
 3793 00a0 4FEA8409 		lsl	r9, r4, #2
 3794 00a4 FFF7FEFF 		bl	sha1_hmac_starts
 3795              	.LVL376:
 3796              	.L104:
 3797              		.loc 1 661 0
 3798 00a8 5BF80920 		ldr	r2, [fp, r9]
 3799              	.LVL377:
 3800              	.LBB106:
 3801              	.LBB107:
 3802              	.LBB108:
 3803              		.loc 1 280 0
 3804 00ac EAB9     		cbnz	r2, .L147
 3805              	.LVL378:
 3806              	.L105:
 3807              	.LBE108:
 3808              	.LBE107:
ARM GAS  C:\Users\jo\AppData\Local\Temp\ccJopvHE.s 			page 68


 3809              	.LBE106:
 3810              		.loc 1 664 0
 3811 00ae 07A8     		add	r0, sp, #28
 3812              	.LVL379:
 3813 00b0 02A9     		add	r1, sp, #8
 3814 00b2 FFF7FEFF 		bl	sha1_hmac_finish
 3815              	.LVL380:
 3816              		.loc 1 666 0
 3817 00b6 042C     		cmp	r4, #4
 3818              		.loc 1 668 0
 3819 00b8 0CBF     		ite	eq
 3820 00ba 0C22     		moveq	r2, #12
 3821 00bc 1422     		movne	r2, #20
 3822 00be 02A8     		add	r0, sp, #8
 3823 00c0 3946     		mov	r1, r7
 3824 00c2 FFF7FEFF 		bl	memcmp
 3825              	.LVL381:
 3826 00c6 8146     		mov	r9, r0
 3827              	.LVL382:
 3828 00c8 A0BB     		cbnz	r0, .L107
 3829              		.loc 1 676 0
 3830 00ca C5B9     		cbnz	r5, .L148
 3831              	.L108:
 3832              		.loc 1 647 0 discriminator 2
 3833 00cc 0134     		adds	r4, r4, #1
 3834              	.LVL383:
 3835 00ce 072C     		cmp	r4, #7
 3836 00d0 07F11407 		add	r7, r7, #20
 3837 00d4 08F14A08 		add	r8, r8, #74
 3838 00d8 06F11A06 		add	r6, r6, #26
 3839 00dc D8D1     		bne	.L109
 3840              		.loc 1 680 0
 3841 00de 0DBB     		cbnz	r5, .L149
 3842              	.LVL384:
 3843              	.L98:
 3844              		.loc 1 684 0
 3845 00e0 4846     		mov	r0, r9
 3846 00e2 0DF2FC4D 		addw	sp, sp, #1276
 3847              		.cfi_remember_state
 3848              		.cfi_def_cfa_offset 36
 3849              		@ sp needed
 3850 00e6 BDE8F08F 		pop	{r4, r5, r6, r7, r8, r9, r10, fp, pc}
 3851              	.LVL385:
 3852              	.L147:
 3853              		.cfi_restore_state
 3854              	.LBB111:
 3855              	.LBB110:
 3856              	.LBB109:
 3857 00ea 07A8     		add	r0, sp, #28
 3858              	.LVL386:
 3859 00ec 4146     		mov	r1, r8
 3860 00ee FFF7FEFF 		bl	sha1_update.part.0
 3861              	.LVL387:
 3862 00f2 DCE7     		b	.L105
 3863              	.LVL388:
 3864              	.L145:
 3865              	.LBE109:
ARM GAS  C:\Users\jo\AppData\Local\Temp\ccJopvHE.s 			page 69


 3866              	.LBE110:
 3867              	.LBE111:
 3868              		.loc 1 650 0
 3869 00f4 611C     		adds	r1, r4, #1
 3870 00f6 2F48     		ldr	r0, .L150+28
 3871 00f8 FFF7FEFF 		bl	printf
 3872              	.LVL389:
 3873 00fc C9E7     		b	.L102
 3874              	.LVL390:
 3875              	.L148:
 3876              		.loc 1 677 0
 3877 00fe 2E48     		ldr	r0, .L150+32
 3878 0100 FFF7FEFF 		bl	puts
 3879              	.LVL391:
 3880 0104 E2E7     		b	.L108
 3881              	.LVL392:
 3882              	.L142:
 3883              	.LBB112:
 3884              	.LBB105:
 3885 0106 07A8     		add	r0, sp, #28
 3886              	.LVL393:
 3887 0108 3146     		mov	r1, r6
 3888 010a FFF7FEFF 		bl	sha1_update.part.0
 3889              	.LVL394:
 3890 010e 9EE7     		b	.L95
 3891              	.LVL395:
 3892              	.L140:
 3893              	.LBE105:
 3894              	.LBE112:
 3895              		.loc 1 615 0
 3896 0110 08F10101 		add	r1, r8, #1
 3897 0114 2948     		ldr	r0, .L150+36
 3898 0116 FFF7FEFF 		bl	printf
 3899              	.LVL396:
 3900 011a 83E7     		b	.L92
 3901              	.LVL397:
 3902              	.L143:
 3903              		.loc 1 641 0
 3904 011c 2648     		ldr	r0, .L150+32
 3905 011e FFF7FEFF 		bl	puts
 3906              	.LVL398:
 3907 0122 A1E7     		b	.L99
 3908              	.LVL399:
 3909              	.L149:
 3910              		.loc 1 681 0
 3911 0124 0A20     		movs	r0, #10
 3912 0126 FFF7FEFF 		bl	putchar
 3913              	.LVL400:
 3914              		.loc 1 684 0
 3915 012a 4846     		mov	r0, r9
 3916 012c 0DF2FC4D 		addw	sp, sp, #1276
 3917              		.cfi_remember_state
 3918              		.cfi_def_cfa_offset 36
 3919              		@ sp needed
 3920 0130 BDE8F08F 		pop	{r4, r5, r6, r7, r8, r9, r10, fp, pc}
 3921              	.LVL401:
 3922              	.L107:
ARM GAS  C:\Users\jo\AppData\Local\Temp\ccJopvHE.s 			page 70


 3923              		.cfi_restore_state
 3924              		.loc 1 637 0
 3925 0134 4FF00109 		mov	r9, #1
 3926              		.loc 1 634 0
 3927 0138 002D     		cmp	r5, #0
 3928 013a D1D0     		beq	.L98
 3929              		.loc 1 635 0
 3930 013c 2048     		ldr	r0, .L150+40
 3931 013e FFF7FEFF 		bl	puts
 3932              	.LVL402:
 3933              		.loc 1 637 0
 3934 0142 4FF00109 		mov	r9, #1
 3935 0146 CBE7     		b	.L98
 3936              	.LVL403:
 3937              	.L144:
 3938              		.loc 1 645 0
 3939 0148 0A20     		movs	r0, #10
 3940 014a FFF7FEFF 		bl	putchar
 3941              	.LVL404:
 3942 014e 96E7     		b	.L101
 3943              	.LVL405:
 3944              	.L146:
 3945              		.loc 1 654 0
 3946 0150 AA21     		movs	r1, #170
 3947 0152 5022     		movs	r2, #80
 3948 0154 3EA8     		add	r0, sp, #248
 3949 0156 FFF7FEFF 		bl	memset
 3950              	.LVL406:
 3951              		.loc 1 655 0
 3952 015a 07A8     		add	r0, sp, #28
 3953              	.LVL407:
 3954 015c 3EA9     		add	r1, sp, #248
 3955 015e 5022     		movs	r2, #80
 3956 0160 FFF7FEFF 		bl	sha1_hmac_starts
 3957              	.LVL408:
 3958 0164 4FEA8409 		lsl	r9, r4, #2
 3959 0168 9EE7     		b	.L104
 3960              	.LVL409:
 3961              	.L141:
 3962              		.loc 1 621 0
 3963 016a 3EA8     		add	r0, sp, #248
 3964 016c 6121     		movs	r1, #97
 3965 016e 4FF47A72 		mov	r2, #1000
 3966 0172 FFF7FEFF 		bl	memset
 3967              	.LVL410:
 3968 0176 4FF47A7C 		mov	ip, #1000
 3969              	.LVL411:
 3970              	.L94:
 3971              	.LBB113:
 3972              	.LBB114:
 3973 017a 07A8     		add	r0, sp, #28
 3974              	.LVL412:
 3975 017c 3EA9     		add	r1, sp, #248
 3976              	.LVL413:
 3977 017e 4FF47A72 		mov	r2, #1000
 3978 0182 CDF804C0 		str	ip, [sp, #4]
 3979              	.LVL414:
ARM GAS  C:\Users\jo\AppData\Local\Temp\ccJopvHE.s 			page 71


 3980 0186 FFF7FEFF 		bl	sha1_update.part.0
 3981              	.LVL415:
 3982              	.LBE114:
 3983              	.LBE113:
 3984              		.loc 1 623 0 discriminator 3
 3985 018a DDF804C0 		ldr	ip, [sp, #4]
 3986 018e BCF1010C 		subs	ip, ip, #1
 3987 0192 F2D1     		bne	.L94
 3988 0194 5BE7     		b	.L95
 3989              	.L151:
 3990 0196 00BF     		.align	2
 3991              	.L150:
 3992 0198 00000000 		.word	.LANCHOR1
 3993 019c 00000000 		.word	.LANCHOR2
 3994 01a0 F0E1D2C3 		.word	-1009589776
 3995 01a4 76543210 		.word	271733878
 3996 01a8 00000000 		.word	.LANCHOR3
 3997 01ac 00000000 		.word	.LANCHOR4
 3998 01b0 00000000 		.word	.LANCHOR6
 3999 01b4 28000000 		.word	.LC4
 4000 01b8 20000000 		.word	.LC3
 4001 01bc 04000000 		.word	.LC1
 4002 01c0 18000000 		.word	.LC2
 4003 01c4 01234567 		.word	1732584193
 4004 01c8 89ABCDEF 		.word	-271733879
 4005 01cc FEDCBA98 		.word	-1732584194
 4006 01d0 00000000 		.word	.LANCHOR5
 4007 01d4 00000000 		.word	.LANCHOR8
 4008 01d8 00000000 		.word	.LANCHOR7
 4009              		.cfi_endproc
 4010              	.LFE11:
 4011              		.size	sha1_self_test, .-sha1_self_test
 4012 01dc AFF30080 		.section	.data.sha1_test_buf,"aw",%progbits
 4013              		.align	2
 4014              		.set	.LANCHOR2,. + 0
 4015              		.type	sha1_test_buf, %object
 4016              		.size	sha1_test_buf, 171
 4017              	sha1_test_buf:
 4018 0000 61626300 		.ascii	"abc\000"
 4019 0004 00000000 		.space	53
 4019      00000000 
 4019      00000000 
 4019      00000000 
 4019      00000000 
 4020 0039 61626364 		.ascii	"abcdbcdecdefdefgefghfghighijhijkijkljklmklmnlmnomno"
 4020      62636465 
 4020      63646566 
 4020      64656667 
 4020      65666768 
 4021 006c 706E6F70 		.ascii	"pnopq\000"
 4021      7100
 4022 0072 00       		.ascii	"\000"
 4023 0073 00000000 		.space	56
 4023      00000000 
 4023      00000000 
 4023      00000000 
 4023      00000000 
ARM GAS  C:\Users\jo\AppData\Local\Temp\ccJopvHE.s 			page 72


 4024 00ab 00       		.section	.rodata.sha1_padding,"a",%progbits
 4025              		.align	2
 4026              		.set	.LANCHOR0,. + 0
 4027              		.type	sha1_padding, %object
 4028              		.size	sha1_padding, 64
 4029              	sha1_padding:
 4030 0000 80       		.byte	-128
 4031 0001 00       		.byte	0
 4032 0002 00       		.byte	0
 4033 0003 00       		.byte	0
 4034 0004 00       		.byte	0
 4035 0005 00       		.byte	0
 4036 0006 00       		.byte	0
 4037 0007 00       		.byte	0
 4038 0008 00       		.byte	0
 4039 0009 00       		.byte	0
 4040 000a 00       		.byte	0
 4041 000b 00       		.byte	0
 4042 000c 00       		.byte	0
 4043 000d 00       		.byte	0
 4044 000e 00       		.byte	0
 4045 000f 00       		.byte	0
 4046 0010 00       		.byte	0
 4047 0011 00       		.byte	0
 4048 0012 00       		.byte	0
 4049 0013 00       		.byte	0
 4050 0014 00       		.byte	0
 4051 0015 00       		.byte	0
 4052 0016 00       		.byte	0
 4053 0017 00       		.byte	0
 4054 0018 00       		.byte	0
 4055 0019 00       		.byte	0
 4056 001a 00       		.byte	0
 4057 001b 00       		.byte	0
 4058 001c 00       		.byte	0
 4059 001d 00       		.byte	0
 4060 001e 00       		.byte	0
 4061 001f 00       		.byte	0
 4062 0020 00       		.byte	0
 4063 0021 00       		.byte	0
 4064 0022 00       		.byte	0
 4065 0023 00       		.byte	0
 4066 0024 00       		.byte	0
 4067 0025 00       		.byte	0
 4068 0026 00       		.byte	0
 4069 0027 00       		.byte	0
 4070 0028 00       		.byte	0
 4071 0029 00       		.byte	0
 4072 002a 00       		.byte	0
 4073 002b 00       		.byte	0
 4074 002c 00       		.byte	0
 4075 002d 00       		.byte	0
 4076 002e 00       		.byte	0
 4077 002f 00       		.byte	0
 4078 0030 00       		.byte	0
 4079 0031 00       		.byte	0
 4080 0032 00       		.byte	0
ARM GAS  C:\Users\jo\AppData\Local\Temp\ccJopvHE.s 			page 73


 4081 0033 00       		.byte	0
 4082 0034 00       		.byte	0
 4083 0035 00       		.byte	0
 4084 0036 00       		.byte	0
 4085 0037 00       		.byte	0
 4086 0038 00       		.byte	0
 4087 0039 00       		.byte	0
 4088 003a 00       		.byte	0
 4089 003b 00       		.byte	0
 4090 003c 00       		.byte	0
 4091 003d 00       		.byte	0
 4092 003e 00       		.byte	0
 4093 003f 00       		.byte	0
 4094              		.section	.rodata.sha1_hmac_test_sum,"a",%progbits
 4095              		.align	2
 4096              		.set	.LANCHOR4,. + 0
 4097              		.type	sha1_hmac_test_sum, %object
 4098              		.size	sha1_hmac_test_sum, 140
 4099              	sha1_hmac_test_sum:
 4100 0000 B6       		.byte	-74
 4101 0001 17       		.byte	23
 4102 0002 31       		.byte	49
 4103 0003 86       		.byte	-122
 4104 0004 55       		.byte	85
 4105 0005 05       		.byte	5
 4106 0006 72       		.byte	114
 4107 0007 64       		.byte	100
 4108 0008 E2       		.byte	-30
 4109 0009 8B       		.byte	-117
 4110 000a C0       		.byte	-64
 4111 000b B6       		.byte	-74
 4112 000c FB       		.byte	-5
 4113 000d 37       		.byte	55
 4114 000e 8C       		.byte	-116
 4115 000f 8E       		.byte	-114
 4116 0010 F1       		.byte	-15
 4117 0011 46       		.byte	70
 4118 0012 BE       		.byte	-66
 4119 0013 00       		.byte	0
 4120 0014 EF       		.byte	-17
 4121 0015 FC       		.byte	-4
 4122 0016 DF       		.byte	-33
 4123 0017 6A       		.byte	106
 4124 0018 E5       		.byte	-27
 4125 0019 EB       		.byte	-21
 4126 001a 2F       		.byte	47
 4127 001b A2       		.byte	-94
 4128 001c D2       		.byte	-46
 4129 001d 74       		.byte	116
 4130 001e 16       		.byte	22
 4131 001f D5       		.byte	-43
 4132 0020 F1       		.byte	-15
 4133 0021 84       		.byte	-124
 4134 0022 DF       		.byte	-33
 4135 0023 9C       		.byte	-100
 4136 0024 25       		.byte	37
 4137 0025 9A       		.byte	-102
ARM GAS  C:\Users\jo\AppData\Local\Temp\ccJopvHE.s 			page 74


 4138 0026 7C       		.byte	124
 4139 0027 79       		.byte	121
 4140 0028 12       		.byte	18
 4141 0029 5D       		.byte	93
 4142 002a 73       		.byte	115
 4143 002b 42       		.byte	66
 4144 002c B9       		.byte	-71
 4145 002d AC       		.byte	-84
 4146 002e 11       		.byte	17
 4147 002f CD       		.byte	-51
 4148 0030 91       		.byte	-111
 4149 0031 A3       		.byte	-93
 4150 0032 9A       		.byte	-102
 4151 0033 F4       		.byte	-12
 4152 0034 8A       		.byte	-118
 4153 0035 A1       		.byte	-95
 4154 0036 7B       		.byte	123
 4155 0037 4F       		.byte	79
 4156 0038 63       		.byte	99
 4157 0039 F1       		.byte	-15
 4158 003a 75       		.byte	117
 4159 003b D3       		.byte	-45
 4160 003c 4C       		.byte	76
 4161 003d 90       		.byte	-112
 4162 003e 07       		.byte	7
 4163 003f F4       		.byte	-12
 4164 0040 02       		.byte	2
 4165 0041 62       		.byte	98
 4166 0042 50       		.byte	80
 4167 0043 C6       		.byte	-58
 4168 0044 BC       		.byte	-68
 4169 0045 84       		.byte	-124
 4170 0046 14       		.byte	20
 4171 0047 F9       		.byte	-7
 4172 0048 BF       		.byte	-65
 4173 0049 50       		.byte	80
 4174 004a C8       		.byte	-56
 4175 004b 6C       		.byte	108
 4176 004c 2D       		.byte	45
 4177 004d 72       		.byte	114
 4178 004e 35       		.byte	53
 4179 004f DA       		.byte	-38
 4180 0050 4C       		.byte	76
 4181 0051 1A       		.byte	26
 4182 0052 03       		.byte	3
 4183 0053 42       		.byte	66
 4184 0054 4B       		.byte	75
 4185 0055 55       		.byte	85
 4186 0056 E0       		.byte	-32
 4187 0057 7F       		.byte	127
 4188 0058 E7       		.byte	-25
 4189 0059 F2       		.byte	-14
 4190 005a 7B       		.byte	123
 4191 005b E1       		.byte	-31
 4192 005c 00000000 		.space	8
 4192      00000000 
 4193 0064 AA       		.byte	-86
ARM GAS  C:\Users\jo\AppData\Local\Temp\ccJopvHE.s 			page 75


 4194 0065 4A       		.byte	74
 4195 0066 E5       		.byte	-27
 4196 0067 E1       		.byte	-31
 4197 0068 52       		.byte	82
 4198 0069 72       		.byte	114
 4199 006a D0       		.byte	-48
 4200 006b 0E       		.byte	14
 4201 006c 95       		.byte	-107
 4202 006d 70       		.byte	112
 4203 006e 56       		.byte	86
 4204 006f 37       		.byte	55
 4205 0070 CE       		.byte	-50
 4206 0071 8A       		.byte	-118
 4207 0072 3B       		.byte	59
 4208 0073 55       		.byte	85
 4209 0074 ED       		.byte	-19
 4210 0075 40       		.byte	64
 4211 0076 21       		.byte	33
 4212 0077 12       		.byte	18
 4213 0078 E8       		.byte	-24
 4214 0079 E9       		.byte	-23
 4215 007a 9D       		.byte	-99
 4216 007b 0F       		.byte	15
 4217 007c 45       		.byte	69
 4218 007d 23       		.byte	35
 4219 007e 7D       		.byte	125
 4220 007f 78       		.byte	120
 4221 0080 6D       		.byte	109
 4222 0081 6B       		.byte	107
 4223 0082 BA       		.byte	-70
 4224 0083 A7       		.byte	-89
 4225 0084 96       		.byte	-106
 4226 0085 5C       		.byte	92
 4227 0086 78       		.byte	120
 4228 0087 08       		.byte	8
 4229 0088 BB       		.byte	-69
 4230 0089 FF       		.byte	-1
 4231 008a 1A       		.byte	26
 4232 008b 91       		.byte	-111
 4233              		.section	.data.sha1_hmac_test_buf,"aw",%progbits
 4234              		.align	2
 4235              		.set	.LANCHOR5,. + 0
 4236              		.type	sha1_hmac_test_buf, %object
 4237              		.size	sha1_hmac_test_buf, 518
 4238              	sha1_hmac_test_buf:
 4239 0000 48692054 		.ascii	"Hi There\000"
 4239      68657265 
 4239      00
 4240 0009 00000000 		.space	65
 4240      00000000 
 4240      00000000 
 4240      00000000 
 4240      00000000 
 4241 004a 77686174 		.ascii	"what do ya want for nothing?\000"
 4241      20646F20 
 4241      79612077 
 4241      616E7420 
ARM GAS  C:\Users\jo\AppData\Local\Temp\ccJopvHE.s 			page 76


 4241      666F7220 
 4242 0067 00000000 		.space	45
 4242      00000000 
 4242      00000000 
 4242      00000000 
 4242      00000000 
 4243 0094 DDDDDDDD 		.ascii	"\335\335\335\335\335\335\335\335\335\335\335\335\335"
 4243      DDDDDDDD 
 4243      DDDDDDDD 
 4243      DD
 4244 00a1 DDDDDDDD 		.ascii	"\335\335\335\335\335\335\335\335\335\335\335\335\335"
 4244      DDDDDDDD 
 4244      DDDDDDDD 
 4244      DD
 4245 00ae DDDDDDDD 		.ascii	"\335\335\335\335\335\335\335\335\335\335\335\335\335"
 4245      DDDDDDDD 
 4245      DDDDDDDD 
 4245      DD
 4246 00bb DDDDDDDD 		.ascii	"\335\335\335\335\335\335\335\335\335\335\335\000"
 4246      DDDDDDDD 
 4246      DDDDDD00 
 4247 00c7 00000000 		.space	23
 4247      00000000 
 4247      00000000 
 4247      00000000 
 4247      00000000 
 4248 00de CDCDCDCD 		.ascii	"\315\315\315\315\315\315\315\315\315\315\315\315\315"
 4248      CDCDCDCD 
 4248      CDCDCDCD 
 4248      CD
 4249 00eb CDCDCDCD 		.ascii	"\315\315\315\315\315\315\315\315\315\315\315\315\315"
 4249      CDCDCDCD 
 4249      CDCDCDCD 
 4249      CD
 4250 00f8 CDCDCDCD 		.ascii	"\315\315\315\315\315\315\315\315\315\315\315\315\315"
 4250      CDCDCDCD 
 4250      CDCDCDCD 
 4250      CD
 4251 0105 CDCDCDCD 		.ascii	"\315\315\315\315\315\315\315\315\315\315\315\000"
 4251      CDCDCDCD 
 4251      CDCDCD00 
 4252 0111 00000000 		.space	23
 4252      00000000 
 4252      00000000 
 4252      00000000 
 4252      00000000 
 4253 0128 54657374 		.ascii	"Test With Truncation\000"
 4253      20576974 
 4253      68205472 
 4253      756E6361 
 4253      74696F6E 
 4254 013d 00000000 		.space	53
 4254      00000000 
 4254      00000000 
 4254      00000000 
 4254      00000000 
 4255 0172 54657374 		.ascii	"Test Using Larger Than Block-Size Key - Hash Key Fi"
ARM GAS  C:\Users\jo\AppData\Local\Temp\ccJopvHE.s 			page 77


 4255      20557369 
 4255      6E67204C 
 4255      61726765 
 4255      72205468 
 4256 01a5 72737400 		.ascii	"rst\000"
 4257 01a9 00000000 		.space	19
 4257      00000000 
 4257      00000000 
 4257      00000000 
 4257      000000
 4258 01bc 54657374 		.ascii	"Test Using Larger Than Block-Size Key and Larger Th"
 4258      20557369 
 4258      6E67204C 
 4258      61726765 
 4258      72205468 
 4259 01ef 616E204F 		.ascii	"an One Block-Size Data\000"
 4259      6E652042 
 4259      6C6F636B 
 4259      2D53697A 
 4259      65204461 
 4260 0206 0000     		.section	.rodata.str1.4,"aMS",%progbits,1
 4261              		.align	2
 4262              	.LC0:
 4263 0000 726200   		.ascii	"rb\000"
 4264 0003 00       		.space	1
 4265              	.LC1:
 4266 0004 20205348 		.ascii	"  SHA-1 test #%d: \000"
 4266      412D3120 
 4266      74657374 
 4266      20232564 
 4266      3A2000
 4267 0017 00       		.space	1
 4268              	.LC2:
 4269 0018 6661696C 		.ascii	"failed\000"
 4269      656400
 4270 001f 00       		.space	1
 4271              	.LC3:
 4272 0020 70617373 		.ascii	"passed\000"
 4272      656400
 4273 0027 00       		.space	1
 4274              	.LC4:
 4275 0028 2020484D 		.ascii	"  HMAC-SHA-1 test #%d: \000"
 4275      41432D53 
 4275      48412D31 
 4275      20746573 
 4275      74202325 
 4276              		.section	.rodata.sha1_hmac_test_keylen,"a",%progbits
 4277              		.align	2
 4278              		.set	.LANCHOR7,. + 0
 4279              		.type	sha1_hmac_test_keylen, %object
 4280              		.size	sha1_hmac_test_keylen, 28
 4281              	sha1_hmac_test_keylen:
 4282 0000 14000000 		.word	20
 4283 0004 04000000 		.word	4
 4284 0008 14000000 		.word	20
 4285 000c 19000000 		.word	25
 4286 0010 14000000 		.word	20
ARM GAS  C:\Users\jo\AppData\Local\Temp\ccJopvHE.s 			page 78


 4287 0014 50000000 		.word	80
 4288 0018 50000000 		.word	80
 4289              		.section	.data.sha1_hmac_test_key,"aw",%progbits
 4290              		.align	2
 4291              		.set	.LANCHOR6,. + 0
 4292              		.type	sha1_hmac_test_key, %object
 4293              		.size	sha1_hmac_test_key, 182
 4294              	sha1_hmac_test_key:
 4295 0000 0B0B0B0B 		.ascii	"\013\013\013\013\013\013\013\013\013\013\013\013\013"
 4295      0B0B0B0B 
 4295      0B0B0B0B 
 4295      0B
 4296 000d 0B0B0B0B 		.ascii	"\013\013\013\013\013\013\013\000"
 4296      0B0B0B00 
 4297 0015 00000000 		.space	5
 4297      00
 4298 001a 4A656665 		.ascii	"Jefe\000"
 4298      00
 4299 001f 00000000 		.space	21
 4299      00000000 
 4299      00000000 
 4299      00000000 
 4299      00000000 
 4300 0034 AAAAAAAA 		.ascii	"\252\252\252\252\252\252\252\252\252\252\252\252\252"
 4300      AAAAAAAA 
 4300      AAAAAAAA 
 4300      AA
 4301 0041 AAAAAAAA 		.ascii	"\252\252\252\252\252\252\252\000"
 4301      AAAAAA00 
 4302 0049 00000000 		.space	5
 4302      00
 4303 004e 01020304 		.ascii	"\001\002\003\004\005\006\007\010\011\012\013\014\015"
 4303      05060708 
 4303      090A0B0C 
 4303      0D
 4304 005b 0E0F1011 		.ascii	"\016\017\020\021\022\023\024\025\026\027\030\031\000"
 4304      12131415 
 4304      16171819 
 4304      00
 4305 0068 0C0C0C0C 		.ascii	"\014\014\014\014\014\014\014\014\014\014\014\014\014"
 4305      0C0C0C0C 
 4305      0C0C0C0C 
 4305      0C
 4306 0075 0C0C0C0C 		.ascii	"\014\014\014\014\014\014\014\000"
 4306      0C0C0C00 
 4307 007d 00000000 		.space	5
 4307      00
 4308 0082 00       		.ascii	"\000"
 4309 0083 00000000 		.space	25
 4309      00000000 
 4309      00000000 
 4309      00000000 
 4309      00000000 
 4310 009c 00       		.ascii	"\000"
 4311 009d 00000000 		.space	25
 4311      00000000 
 4311      00000000 
ARM GAS  C:\Users\jo\AppData\Local\Temp\ccJopvHE.s 			page 79


 4311      00000000 
 4311      00000000 
 4312 00b6 0000     		.section	.rodata.sha1_hmac_test_buflen,"a",%progbits
 4313              		.align	2
 4314              		.set	.LANCHOR8,. + 0
 4315              		.type	sha1_hmac_test_buflen, %object
 4316              		.size	sha1_hmac_test_buflen, 28
 4317              	sha1_hmac_test_buflen:
 4318 0000 08000000 		.word	8
 4319 0004 1C000000 		.word	28
 4320 0008 32000000 		.word	50
 4321 000c 32000000 		.word	50
 4322 0010 14000000 		.word	20
 4323 0014 36000000 		.word	54
 4324 0018 49000000 		.word	73
 4325              		.section	.rodata.sha1_test_sum,"a",%progbits
 4326              		.align	2
 4327              		.set	.LANCHOR1,. + 0
 4328              		.type	sha1_test_sum, %object
 4329              		.size	sha1_test_sum, 60
 4330              	sha1_test_sum:
 4331 0000 A9       		.byte	-87
 4332 0001 99       		.byte	-103
 4333 0002 3E       		.byte	62
 4334 0003 36       		.byte	54
 4335 0004 47       		.byte	71
 4336 0005 06       		.byte	6
 4337 0006 81       		.byte	-127
 4338 0007 6A       		.byte	106
 4339 0008 BA       		.byte	-70
 4340 0009 3E       		.byte	62
 4341 000a 25       		.byte	37
 4342 000b 71       		.byte	113
 4343 000c 78       		.byte	120
 4344 000d 50       		.byte	80
 4345 000e C2       		.byte	-62
 4346 000f 6C       		.byte	108
 4347 0010 9C       		.byte	-100
 4348 0011 D0       		.byte	-48
 4349 0012 D8       		.byte	-40
 4350 0013 9D       		.byte	-99
 4351 0014 84       		.byte	-124
 4352 0015 98       		.byte	-104
 4353 0016 3E       		.byte	62
 4354 0017 44       		.byte	68
 4355 0018 1C       		.byte	28
 4356 0019 3B       		.byte	59
 4357 001a D2       		.byte	-46
 4358 001b 6E       		.byte	110
 4359 001c BA       		.byte	-70
 4360 001d AE       		.byte	-82
 4361 001e 4A       		.byte	74
 4362 001f A1       		.byte	-95
 4363 0020 F9       		.byte	-7
 4364 0021 51       		.byte	81
 4365 0022 29       		.byte	41
 4366 0023 E5       		.byte	-27
ARM GAS  C:\Users\jo\AppData\Local\Temp\ccJopvHE.s 			page 80


 4367 0024 E5       		.byte	-27
 4368 0025 46       		.byte	70
 4369 0026 70       		.byte	112
 4370 0027 F1       		.byte	-15
 4371 0028 34       		.byte	52
 4372 0029 AA       		.byte	-86
 4373 002a 97       		.byte	-105
 4374 002b 3C       		.byte	60
 4375 002c D4       		.byte	-44
 4376 002d C4       		.byte	-60
 4377 002e DA       		.byte	-38
 4378 002f A4       		.byte	-92
 4379 0030 F6       		.byte	-10
 4380 0031 1E       		.byte	30
 4381 0032 EB       		.byte	-21
 4382 0033 2B       		.byte	43
 4383 0034 DB       		.byte	-37
 4384 0035 AD       		.byte	-83
 4385 0036 27       		.byte	39
 4386 0037 31       		.byte	49
 4387 0038 65       		.byte	101
 4388 0039 34       		.byte	52
 4389 003a 01       		.byte	1
 4390 003b 6F       		.byte	111
 4391              		.section	.rodata.sha1_test_buflen,"a",%progbits
 4392              		.align	2
 4393              		.set	.LANCHOR3,. + 0
 4394              		.type	sha1_test_buflen, %object
 4395              		.size	sha1_test_buflen, 12
 4396              	sha1_test_buflen:
 4397 0000 03000000 		.word	3
 4398 0004 38000000 		.word	56
 4399 0008 E8030000 		.word	1000
 4400              		.text
 4401              	.Letext0:
 4402              		.file 2 "c:\\program files\\gnu tools arm embedded\\4.9 2014q4\\lib\\gcc\\arm-none-eabi\\4.9.3\\in
 4403              		.file 3 "c:\\program files\\gnu tools arm embedded\\4.9 2014q4\\arm-none-eabi\\include\\machine\\_
 4404              		.file 4 "c:\\program files\\gnu tools arm embedded\\4.9 2014q4\\arm-none-eabi\\include\\sys\\lock.
 4405              		.file 5 "c:\\program files\\gnu tools arm embedded\\4.9 2014q4\\arm-none-eabi\\include\\sys\\_type
 4406              		.file 6 "c:\\program files\\gnu tools arm embedded\\4.9 2014q4\\arm-none-eabi\\include\\sys\\reent
 4407              		.file 7 "c:\\program files\\gnu tools arm embedded\\4.9 2014q4\\arm-none-eabi\\include\\stdint.h"
 4408              		.file 8 "../../../demos/STM32/RT-STM32F407-DISCOVERY-uHttp/uhttp-1.1/PolarSSL/include/polarssl/sha
 4409              		.file 9 "c:\\program files\\gnu tools arm embedded\\4.9 2014q4\\arm-none-eabi\\include\\stdio.h"
 4410              		.file 10 "c:\\program files\\gnu tools arm embedded\\4.9 2014q4\\arm-none-eabi\\include\\string.h"
 4411              		.file 11 "<built-in>"