ARM GAS  C:\Users\jo\AppData\Local\Temp\ccpKXchH.s 			page 1


   1              		.syntax unified
   2              		.cpu cortex-m4
   3              		.fpu softvfp
   4              		.eabi_attribute 20, 1
   5              		.eabi_attribute 21, 1
   6              		.eabi_attribute 23, 3
   7              		.eabi_attribute 24, 1
   8              		.eabi_attribute 25, 1
   9              		.eabi_attribute 26, 1
  10              		.eabi_attribute 30, 2
  11              		.eabi_attribute 34, 1
  12              		.eabi_attribute 18, 4
  13              		.thumb
  14              		.file	"sockets.c"
  15              		.text
  16              	.Ltext0:
  17              		.cfi_sections	.debug_frame
  18              		.section	.text.alloc_socket,"ax",%progbits
  19              		.align	2
  20              		.p2align 4,,15
  21              		.thumb
  22              		.thumb_func
  23              		.type	alloc_socket, %function
  24              	alloc_socket:
  25              	.LFB259:
  26              		.file 1 "../../../os/ext/lwip-1.4.1/src/api/sockets.c"
  27              		.loc 1 244 0
  28              		.cfi_startproc
  29              		@ args = 0, pretend = 0, frame = 0
  30              		@ frame_needed = 0, uses_anonymous_args = 0
  31              		@ link register save eliminated.
  32              	.LVL0:
  33 0000 F0B4     		push	{r4, r5, r6, r7}
  34              		.cfi_def_cfa_offset 16
  35              		.cfi_offset 4, -16
  36              		.cfi_offset 5, -12
  37              		.cfi_offset 6, -8
  38              		.cfi_offset 7, -4
  39              		.loc 1 252 0
  40 0002 134C     		ldr	r4, .L12
  41 0004 2268     		ldr	r2, [r4]
  42 0006 32B1     		cbz	r2, .L2
  43              	.LVL1:
  44 0008 A369     		ldr	r3, [r4, #24]
  45 000a 1BB1     		cbz	r3, .L10
  46              		.loc 1 270 0
  47 000c 4FF0FF30 		mov	r0, #-1
  48              	.LVL2:
  49              	.L3:
  50              		.loc 1 271 0
  51 0010 F0BC     		pop	{r4, r5, r6, r7}
  52              		.cfi_remember_state
  53              		.cfi_restore 7
  54              		.cfi_restore 6
  55              		.cfi_restore 5
  56              		.cfi_restore 4
  57              		.cfi_def_cfa_offset 0
ARM GAS  C:\Users\jo\AppData\Local\Temp\ccpKXchH.s 			page 2


  58 0012 7047     		bx	lr
  59              	.LVL3:
  60              	.L10:
  61              		.cfi_restore_state
  62              		.loc 1 249 0
  63 0014 0122     		movs	r2, #1
  64              	.LVL4:
  65              	.L2:
  66              		.loc 1 253 0
  67 0016 5300     		lsls	r3, r2, #1
  68 0018 9D18     		adds	r5, r3, r2
  69              		.loc 1 262 0
  70 001a 0778     		ldrb	r7, [r0]	@ zero_extendqisi2
  71              		.loc 1 253 0
  72 001c ED00     		lsls	r5, r5, #3
  73 001e 6619     		adds	r6, r4, r5
  74 0020 6051     		str	r0, [r4, r5]
  75              		.loc 1 262 0
  76 0022 102F     		cmp	r7, #16
  77              		.loc 1 257 0
  78 0024 4FF00000 		mov	r0, #0
  79              	.LVL5:
  80              		.loc 1 259 0
  81 0028 7081     		strh	r0, [r6, #10]	@ movhi
  82              		.loc 1 257 0
  83 002a 7060     		str	r0, [r6, #4]
  84              		.loc 1 258 0
  85 002c 3081     		strh	r0, [r6, #8]	@ movhi
  86              		.loc 1 262 0
  87 002e 0AD0     		beq	.L11
  88 0030 0121     		movs	r1, #1
  89              	.LVL6:
  90              	.L4:
  91              		.loc 1 262 0 is_stmt 0 discriminator 6
  92 0032 1344     		add	r3, r3, r2
  93 0034 04EBC303 		add	r3, r4, r3, lsl #3
  94              		.loc 1 263 0 is_stmt 1 discriminator 6
  95 0038 0024     		movs	r4, #0
  96              		.loc 1 266 0 discriminator 6
  97 003a 1046     		mov	r0, r2
  98              		.loc 1 262 0 discriminator 6
  99 003c 9981     		strh	r1, [r3, #12]	@ movhi
 100              		.loc 1 263 0 discriminator 6
 101 003e DC81     		strh	r4, [r3, #14]	@ movhi
 102              		.loc 1 264 0 discriminator 6
 103 0040 1C61     		str	r4, [r3, #16]
 104              		.loc 1 265 0 discriminator 6
 105 0042 5C61     		str	r4, [r3, #20]
 106              		.loc 1 266 0 discriminator 6
 107 0044 E4E7     		b	.L3
 108              	.LVL7:
 109              	.L11:
 110 0046 091A     		subs	r1, r1, r0
 111              	.LVL8:
 112 0048 18BF     		it	ne
 113 004a 0121     		movne	r1, #1
 114 004c F1E7     		b	.L4
ARM GAS  C:\Users\jo\AppData\Local\Temp\ccpKXchH.s 			page 3


 115              	.L13:
 116 004e 00BF     		.align	2
 117              	.L12:
 118 0050 00000000 		.word	.LANCHOR0
 119              		.cfi_endproc
 120              	.LFE259:
 121              		.size	alloc_socket, .-alloc_socket
 122 0054 AFF30080 		.section	.text.chprintf.constprop.1,"ax",%progbits
 122      AFF30080 
 122      AFF30080 
 123              		.align	2
 124              		.p2align 4,,15
 125              		.thumb
 126              		.thumb_func
 127              		.type	chprintf.constprop.1, %function
 128              	chprintf.constprop.1:
 129              	.LFB287:
 130              		.file 2 "../../../os/hal/lib/streams/chprintf.h"
 131              		.loc 2 69 0
 132              		.cfi_startproc
 133              		@ args = 4, pretend = 12, frame = 8
 134              		@ frame_needed = 0, uses_anonymous_args = 1
 135              	.LVL9:
 136 0000 0EB4     		push	{r1, r2, r3}
 137              		.cfi_def_cfa_offset 12
 138              		.cfi_offset 1, -12
 139              		.cfi_offset 2, -8
 140              		.cfi_offset 3, -4
 141 0002 00B5     		push	{lr}
 142              		.cfi_def_cfa_offset 16
 143              		.cfi_offset 14, -16
 144 0004 82B0     		sub	sp, sp, #8
 145              		.cfi_def_cfa_offset 24
 146              		.loc 2 69 0
 147 0006 03AA     		add	r2, sp, #12
 148              		.loc 2 74 0
 149 0008 0548     		ldr	r0, .L16
 150              	.LVL10:
 151              		.loc 2 69 0
 152 000a 52F8041B 		ldr	r1, [r2], #4
 153              		.loc 2 73 0
 154 000e 0192     		str	r2, [sp, #4]
 155              		.loc 2 74 0
 156 0010 FFF7FEFF 		bl	chvprintf
 157              	.LVL11:
 158              		.loc 2 78 0
 159 0014 02B0     		add	sp, sp, #8
 160              		.cfi_def_cfa_offset 16
 161              		@ sp needed
 162 0016 5DF804EB 		ldr	lr, [sp], #4
 163              		.cfi_restore 14
 164              		.cfi_def_cfa_offset 12
 165 001a 03B0     		add	sp, sp, #12
 166              		.cfi_restore 3
 167              		.cfi_restore 2
 168              		.cfi_restore 1
 169              		.cfi_def_cfa_offset 0
ARM GAS  C:\Users\jo\AppData\Local\Temp\ccpKXchH.s 			page 4


 170 001c 7047     		bx	lr
 171              	.L17:
 172 001e 00BF     		.align	2
 173              	.L16:
 174 0020 00000000 		.word	itm_port
 175              		.cfi_endproc
 176              	.LFE287:
 177              		.size	chprintf.constprop.1, .-chprintf.constprop.1
 178 0024 AFF30080 		.section	.text.lwip_setsockopt_internal,"ax",%progbits
 178      AFF30080 
 178      AFF30080 
 179              		.align	2
 180              		.p2align 4,,15
 181              		.thumb
 182              		.thumb_func
 183              		.type	lwip_setsockopt_internal, %function
 184              	lwip_setsockopt_internal:
 185              	.LFB283:
 186              		.loc 1 2073 0
 187              		.cfi_startproc
 188              		@ args = 0, pretend = 0, frame = 0
 189              		@ frame_needed = 0, uses_anonymous_args = 0
 190              	.LVL12:
 191 0000 F0B5     		push	{r4, r5, r6, r7, lr}
 192              		.cfi_def_cfa_offset 20
 193              		.cfi_offset 4, -20
 194              		.cfi_offset 5, -16
 195              		.cfi_offset 6, -12
 196              		.cfi_offset 7, -8
 197              		.cfi_offset 14, -4
 198              		.loc 1 2082 0
 199 0002 0446     		mov	r4, r0
 200              		.loc 1 2073 0
 201 0004 83B0     		sub	sp, sp, #12
 202              		.cfi_def_cfa_offset 32
 203              		.loc 1 2082 0
 204 0006 0028     		cmp	r0, #0
 205 0008 00F0AE80 		beq	.L56
 206              	.LVL13:
 207              	.L19:
 208              		.loc 1 2093 0
 209 000c A168     		ldr	r1, [r4, #8]
 210              		.loc 1 2085 0
 211 000e 2568     		ldr	r5, [r4]
 212              	.LVL14:
 213              		.loc 1 2087 0
 214 0010 6268     		ldr	r2, [r4, #4]
 215              	.LVL15:
 216              		.loc 1 2090 0
 217 0012 E368     		ldr	r3, [r4, #12]
 218              	.LVL16:
 219              		.loc 1 2091 0
 220 0014 2069     		ldr	r0, [r4, #16]
 221              	.LVL17:
 222              		.loc 1 2093 0
 223 0016 0629     		cmp	r1, #6
 224 0018 3CD0     		beq	.L21
ARM GAS  C:\Users\jo\AppData\Local\Temp\ccpKXchH.s 			page 5


 225 001a 40F6FF74 		movw	r4, #4095
 226              	.LVL18:
 227 001e A142     		cmp	r1, r4
 228 0020 23D0     		beq	.L22
 229 0022 91B1     		cbz	r1, .L57
 230              		.loc 1 2274 0 discriminator 1
 231 0024 614B     		ldr	r3, .L61
 232              	.LVL19:
 233 0026 0093     		str	r3, [sp]
 234              	.LVL20:
 235 0028 6148     		ldr	r0, .L61+4
 236              	.LVL21:
 237 002a 6249     		ldr	r1, .L61+8
 238              	.LVL22:
 239 002c 624A     		ldr	r2, .L61+12
 240              	.LVL23:
 241 002e 40F6E203 		movw	r3, #2274
 242 0032 FFF7FEFF 		bl	chprintf.constprop.1
 243              	.LVL24:
 244              	.LBB76:
 245              	.LBB77:
 246              		.file 3 "../../../os/hal/osal/rt/osal.h"
 247              		.loc 3 414 0 discriminator 1
 248 0036 6048     		ldr	r0, .L61+12
 249 0038 FFF7FEFF 		bl	chSysHalt
 250              	.LVL25:
 251              	.L30:
 252              	.LBE77:
 253              	.LBE76:
 254              		.loc 1 2277 0
 255 003c 2868     		ldr	r0, [r5]
 256 003e 0C30     		adds	r0, r0, #12
 257              		.loc 1 2278 0
 258 0040 03B0     		add	sp, sp, #12
 259              		.cfi_remember_state
 260              		.cfi_def_cfa_offset 20
 261              		@ sp needed
 262 0042 BDE8F040 		pop	{r4, r5, r6, r7, lr}
 263              		.cfi_restore 14
 264              		.cfi_restore 7
 265              		.cfi_restore 6
 266              		.cfi_restore 5
 267              		.cfi_restore 4
 268              		.cfi_def_cfa_offset 0
 269              	.LVL26:
 270              		.loc 1 2277 0
 271 0046 FFF7FEBF 		b	sys_sem_signal
 272              	.LVL27:
 273              	.L57:
 274              		.cfi_restore_state
 275              		.loc 1 2150 0
 276 004a 012B     		cmp	r3, #1
 277 004c 51D0     		beq	.L33
 278 004e 022B     		cmp	r3, #2
 279 0050 5BD1     		bne	.L51
 280              		.loc 1 2152 0
 281 0052 2B68     		ldr	r3, [r5]
ARM GAS  C:\Users\jo\AppData\Local\Temp\ccpKXchH.s 			page 6


 282              	.LVL28:
 283 0054 0168     		ldr	r1, [r0]
 284              	.LVL29:
 285 0056 5B68     		ldr	r3, [r3, #4]
 286              		.loc 1 2153 0
 287 0058 5548     		ldr	r0, .L61+4
 288              	.LVL30:
 289              		.loc 1 2152 0
 290 005a 9972     		strb	r1, [r3, #10]
 291              	.LVL31:
 292              		.loc 1 2153 0
 293 005c 2B68     		ldr	r3, [r5]
 294 005e 5749     		ldr	r1, .L61+16
 295 0060 5B68     		ldr	r3, [r3, #4]
 296 0062 9B7A     		ldrb	r3, [r3, #10]	@ zero_extendqisi2
 297 0064 FFF7FEFF 		bl	chprintf.constprop.1
 298              	.LVL32:
 299 0068 E8E7     		b	.L30
 300              	.LVL33:
 301              	.L22:
 302              		.loc 1 2097 0
 303 006a 202B     		cmp	r3, #32
 304 006c 5AD0     		beq	.L25
 305 006e 41F20A01 		movw	r1, #4106
 306              	.LVL34:
 307 0072 8B42     		cmp	r3, r1
 308 0074 1FD0     		beq	.L26
 309 0076 082B     		cmp	r3, #8
 310 0078 54D0     		beq	.L25
 311              		.loc 1 2143 0 discriminator 1
 312 007a 4C4B     		ldr	r3, .L61
 313              	.LVL35:
 314 007c 0093     		str	r3, [sp]
 315              	.LVL36:
 316 007e 4D49     		ldr	r1, .L61+8
 317 0080 4F4A     		ldr	r2, .L61+20
 318              	.LVL37:
 319 0082 4B48     		ldr	r0, .L61+4
 320              	.LVL38:
 321 0084 40F65F03 		movw	r3, #2143
 322 0088 FFF7FEFF 		bl	chprintf.constprop.1
 323              	.LVL39:
 324              	.LBB78:
 325              	.LBB79:
 326              		.loc 3 414 0 discriminator 1
 327 008c 4C48     		ldr	r0, .L61+20
 328 008e FFF7FEFF 		bl	chSysHalt
 329              	.LVL40:
 330 0092 D3E7     		b	.L30
 331              	.LVL41:
 332              	.L21:
 333              	.LBE79:
 334              	.LBE78:
 335              		.loc 1 2204 0
 336 0094 012B     		cmp	r3, #1
 337 0096 18D0     		beq	.L36
 338 0098 022B     		cmp	r3, #2
ARM GAS  C:\Users\jo\AppData\Local\Temp\ccpKXchH.s 			page 7


 339 009a 58D1     		bne	.L58
 340              		.loc 1 2215 0
 341 009c 2B68     		ldr	r3, [r5]
 342              	.LVL42:
 343 009e 0468     		ldr	r4, [r0]
 344              	.LVL43:
 345 00a0 5968     		ldr	r1, [r3, #4]
 346              	.LVL44:
 347              		.loc 1 2216 0
 348 00a2 4348     		ldr	r0, .L61+4
 349              	.LVL45:
 350              		.loc 1 2215 0
 351 00a4 C1F89040 		str	r4, [r1, #144]
 352              		.loc 1 2216 0
 353 00a8 5B68     		ldr	r3, [r3, #4]
 354 00aa 4649     		ldr	r1, .L61+24
 355 00ac D3F89030 		ldr	r3, [r3, #144]
 356 00b0 FFF7FEFF 		bl	chprintf.constprop.1
 357              	.LVL46:
 358 00b4 C2E7     		b	.L30
 359              	.LVL47:
 360              	.L26:
 361              		.loc 1 2135 0
 362 00b6 0368     		ldr	r3, [r0]
 363              	.LVL48:
 364 00b8 002B     		cmp	r3, #0
 365 00ba 6FD0     		beq	.L31
 366              		.loc 1 2136 0
 367 00bc 2B68     		ldr	r3, [r5]
 368 00be 5A68     		ldr	r2, [r3, #4]
 369              	.LVL49:
 370 00c0 137C     		ldrb	r3, [r2, #16]	@ zero_extendqisi2
 371 00c2 43F00103 		orr	r3, r3, #1
 372 00c6 1374     		strb	r3, [r2, #16]
 373              	.LVL50:
 374 00c8 B8E7     		b	.L30
 375              	.LVL51:
 376              	.L36:
 377              		.loc 1 2206 0
 378 00ca 0368     		ldr	r3, [r0]
 379              	.LVL52:
 380 00cc 002B     		cmp	r3, #0
 381 00ce 5ED1     		bne	.L59
 382              		.loc 1 2209 0
 383 00d0 2B68     		ldr	r3, [r5]
 384 00d2 5968     		ldr	r1, [r3, #4]
 385              	.LVL53:
 386 00d4 8B7F     		ldrb	r3, [r1, #30]	@ zero_extendqisi2
 387 00d6 23F04003 		bic	r3, r3, #64
 388 00da 8B77     		strb	r3, [r1, #30]
 389              	.LVL54:
 390              	.L39:
 391              		.loc 1 2211 0 discriminator 1
 392 00dc 0668     		ldr	r6, [r0]
 393 00de 3A4C     		ldr	r4, .L61+28
 394              	.LVL55:
 395 00e0 3A4B     		ldr	r3, .L61+32
ARM GAS  C:\Users\jo\AppData\Local\Temp\ccpKXchH.s 			page 8


 396 00e2 3B49     		ldr	r1, .L61+36
 397 00e4 3248     		ldr	r0, .L61+4
 398              	.LVL56:
 399 00e6 002E     		cmp	r6, #0
 400 00e8 08BF     		it	eq
 401 00ea 2346     		moveq	r3, r4
 402 00ec FFF7FEFF 		bl	chprintf.constprop.1
 403              	.LVL57:
 404              		.loc 1 2213 0 discriminator 1
 405 00f0 A4E7     		b	.L30
 406              	.LVL58:
 407              	.L33:
 408              		.loc 1 2157 0
 409 00f2 2B68     		ldr	r3, [r5]
 410              	.LVL59:
 411 00f4 0168     		ldr	r1, [r0]
 412              	.LVL60:
 413 00f6 5B68     		ldr	r3, [r3, #4]
 414              		.loc 1 2158 0
 415 00f8 2D48     		ldr	r0, .L61+4
 416              	.LVL61:
 417              		.loc 1 2157 0
 418 00fa 5972     		strb	r1, [r3, #9]
 419              	.LVL62:
 420              		.loc 1 2158 0
 421 00fc 2B68     		ldr	r3, [r5]
 422 00fe 3549     		ldr	r1, .L61+40
 423 0100 5B68     		ldr	r3, [r3, #4]
 424 0102 5B7A     		ldrb	r3, [r3, #9]	@ zero_extendqisi2
 425 0104 FFF7FEFF 		bl	chprintf.constprop.1
 426              	.LVL63:
 427 0108 98E7     		b	.L30
 428              	.LVL64:
 429              	.L51:
 430              		.loc 1 2196 0 discriminator 1
 431 010a 284B     		ldr	r3, .L61
 432              	.LVL65:
 433 010c 0093     		str	r3, [sp]
 434              	.LVL66:
 435 010e 2949     		ldr	r1, .L61+8
 436              	.LVL67:
 437 0110 2B4A     		ldr	r2, .L61+20
 438              	.LVL68:
 439 0112 2748     		ldr	r0, .L61+4
 440              	.LVL69:
 441 0114 40F69403 		movw	r3, #2196
 442 0118 FFF7FEFF 		bl	chprintf.constprop.1
 443              	.LVL70:
 444              	.LBB80:
 445              	.LBB81:
 446              		.loc 3 414 0 discriminator 1
 447 011c 2848     		ldr	r0, .L61+20
 448 011e FFF7FEFF 		bl	chSysHalt
 449              	.LVL71:
 450 0122 8BE7     		b	.L30
 451              	.LVL72:
 452              	.L25:
ARM GAS  C:\Users\jo\AppData\Local\Temp\ccpKXchH.s 			page 9


 453              	.LBE81:
 454              	.LBE80:
 455              		.loc 1 2110 0
 456 0124 0168     		ldr	r1, [r0]
 457 0126 0029     		cmp	r1, #0
 458 0128 2BD1     		bne	.L60
 459              		.loc 1 2113 0
 460 012a 2968     		ldr	r1, [r5]
 461 012c 4C68     		ldr	r4, [r1, #4]
 462 012e 217A     		ldrb	r1, [r4, #8]	@ zero_extendqisi2
 463 0130 21EA0301 		bic	r1, r1, r3
 464 0134 2172     		strb	r1, [r4, #8]
 465              	.LVL73:
 466              	.L28:
 467              		.loc 1 2115 0 discriminator 1
 468 0136 0768     		ldr	r7, [r0]
 469 0138 244E     		ldr	r6, .L61+32
 470 013a 234C     		ldr	r4, .L61+28
 471 013c 2649     		ldr	r1, .L61+44
 472 013e 1C48     		ldr	r0, .L61+4
 473              	.LVL74:
 474 0140 002F     		cmp	r7, #0
 475 0142 18BF     		it	ne
 476 0144 3446     		movne	r4, r6
 477 0146 0094     		str	r4, [sp]
 478 0148 FFF7FEFF 		bl	chprintf.constprop.1
 479              	.LVL75:
 480              		.loc 1 2117 0 discriminator 1
 481 014c 76E7     		b	.L30
 482              	.LVL76:
 483              	.L58:
 484              		.loc 1 2238 0 discriminator 1
 485 014e 174B     		ldr	r3, .L61
 486              	.LVL77:
 487 0150 0093     		str	r3, [sp]
 488              	.LVL78:
 489 0152 1849     		ldr	r1, .L61+8
 490              	.LVL79:
 491 0154 1A4A     		ldr	r2, .L61+20
 492              	.LVL80:
 493 0156 1648     		ldr	r0, .L61+4
 494              	.LVL81:
 495 0158 40F6BE03 		movw	r3, #2238
 496 015c FFF7FEFF 		bl	chprintf.constprop.1
 497              	.LVL82:
 498              	.LBB82:
 499              	.LBB83:
 500              		.loc 3 414 0 discriminator 1
 501 0160 1748     		ldr	r0, .L61+20
 502 0162 FFF7FEFF 		bl	chSysHalt
 503              	.LVL83:
 504 0166 69E7     		b	.L30
 505              	.LVL84:
 506              	.L56:
 507              	.LBE83:
 508              	.LBE82:
 509              		.loc 1 2082 0 discriminator 1
ARM GAS  C:\Users\jo\AppData\Local\Temp\ccpKXchH.s 			page 10


 510 0168 104B     		ldr	r3, .L61
 511 016a 0093     		str	r3, [sp]
 512 016c 1149     		ldr	r1, .L61+8
 513 016e 1B4A     		ldr	r2, .L61+48
 514 0170 0F48     		ldr	r0, .L61+4
 515              	.LVL85:
 516 0172 40F62203 		movw	r3, #2082
 517 0176 FFF7FEFF 		bl	chprintf.constprop.1
 518              	.LVL86:
 519              	.LBB84:
 520              	.LBB85:
 521              		.loc 3 414 0 discriminator 1
 522 017a 1848     		ldr	r0, .L61+48
 523 017c FFF7FEFF 		bl	chSysHalt
 524              	.LVL87:
 525 0180 44E7     		b	.L19
 526              	.LVL88:
 527              	.L60:
 528              	.LBE85:
 529              	.LBE84:
 530              		.loc 1 2111 0
 531 0182 2968     		ldr	r1, [r5]
 532 0184 4C68     		ldr	r4, [r1, #4]
 533 0186 217A     		ldrb	r1, [r4, #8]	@ zero_extendqisi2
 534 0188 1943     		orrs	r1, r1, r3
 535 018a 2172     		strb	r1, [r4, #8]
 536              	.LVL89:
 537 018c D3E7     		b	.L28
 538              	.LVL90:
 539              	.L59:
 540              		.loc 1 2207 0
 541 018e 2B68     		ldr	r3, [r5]
 542 0190 5968     		ldr	r1, [r3, #4]
 543              	.LVL91:
 544 0192 8B7F     		ldrb	r3, [r1, #30]	@ zero_extendqisi2
 545 0194 43F04003 		orr	r3, r3, #64
 546 0198 8B77     		strb	r3, [r1, #30]
 547              	.LVL92:
 548 019a 9FE7     		b	.L39
 549              	.LVL93:
 550              	.L31:
 551              		.loc 1 2138 0
 552 019c 2B68     		ldr	r3, [r5]
 553 019e 5A68     		ldr	r2, [r3, #4]
 554              	.LVL94:
 555 01a0 137C     		ldrb	r3, [r2, #16]	@ zero_extendqisi2
 556 01a2 23F00103 		bic	r3, r3, #1
 557 01a6 1374     		strb	r3, [r2, #16]
 558              	.LVL95:
 559 01a8 48E7     		b	.L30
 560              	.L62:
 561 01aa 00BF     		.align	2
 562              	.L61:
 563 01ac 3C000000 		.word	.LC4
 564 01b0 00000000 		.word	itm_port
 565 01b4 08000000 		.word	.LC2
 566 01b8 94010000 		.word	.LC11
ARM GAS  C:\Users\jo\AppData\Local\Temp\ccpKXchH.s 			page 11


 567 01bc BC000000 		.word	.LC7
 568 01c0 A8000000 		.word	.LC6
 569 01c4 5C010000 		.word	.LC10
 570 01c8 04000000 		.word	.LC1
 571 01cc 00000000 		.word	.LC0
 572 01d0 24010000 		.word	.LC9
 573 01d4 F0000000 		.word	.LC8
 574 01d8 6C000000 		.word	.LC5
 575 01dc 30000000 		.word	.LC3
 576              		.cfi_endproc
 577              	.LFE283:
 578              		.size	lwip_setsockopt_internal, .-lwip_setsockopt_internal
 579              		.section	.text.lwip_getsockopt_internal,"ax",%progbits
 580              		.align	2
 581              		.p2align 4,,15
 582              		.thumb
 583              		.thumb_func
 584              		.type	lwip_getsockopt_internal, %function
 585              	lwip_getsockopt_internal:
 586              	.LFB281:
 587              		.loc 1 1656 0
 588              		.cfi_startproc
 589              		@ args = 0, pretend = 0, frame = 0
 590              		@ frame_needed = 0, uses_anonymous_args = 0
 591              	.LVL96:
 592 0000 F0B5     		push	{r4, r5, r6, r7, lr}
 593              		.cfi_def_cfa_offset 20
 594              		.cfi_offset 4, -20
 595              		.cfi_offset 5, -16
 596              		.cfi_offset 6, -12
 597              		.cfi_offset 7, -8
 598              		.cfi_offset 14, -4
 599              		.loc 1 1665 0
 600 0002 0446     		mov	r4, r0
 601              		.loc 1 1656 0
 602 0004 83B0     		sub	sp, sp, #12
 603              		.cfi_def_cfa_offset 32
 604              		.loc 1 1665 0
 605 0006 0028     		cmp	r0, #0
 606 0008 00F0C980 		beq	.L116
 607              	.LVL97:
 608              	.L64:
 609              		.loc 1 1676 0
 610 000c A268     		ldr	r2, [r4, #8]
 611              		.loc 1 1673 0
 612 000e E368     		ldr	r3, [r4, #12]
 613              		.loc 1 1676 0
 614 0010 062A     		cmp	r2, #6
 615              		.loc 1 1670 0
 616 0012 94E86000 		ldmia	r4, {r5, r6}
 617              	.LVL98:
 618              		.loc 1 1674 0
 619 0016 2469     		ldr	r4, [r4, #16]
 620              	.LVL99:
 621              		.loc 1 1676 0
 622 0018 46D0     		beq	.L66
 623 001a 40F6FF71 		movw	r1, #4095
ARM GAS  C:\Users\jo\AppData\Local\Temp\ccpKXchH.s 			page 12


 624 001e 8A42     		cmp	r2, r1
 625 0020 23D0     		beq	.L67
 626 0022 92B1     		cbz	r2, .L117
 627              		.loc 1 1856 0 discriminator 1
 628 0024 7A4B     		ldr	r3, .L123
 629              	.LVL100:
 630 0026 0093     		str	r3, [sp]
 631              	.LVL101:
 632 0028 7A49     		ldr	r1, .L123+4
 633 002a 7B4A     		ldr	r2, .L123+8
 634              	.LVL102:
 635 002c 7B48     		ldr	r0, .L123+12
 636 002e 4FF4E863 		mov	r3, #1856
 637 0032 FFF7FEFF 		bl	chprintf.constprop.1
 638              	.LVL103:
 639              	.LBB86:
 640              	.LBB87:
 641              		.loc 3 414 0 discriminator 1
 642 0036 7848     		ldr	r0, .L123+8
 643 0038 FFF7FEFF 		bl	chSysHalt
 644              	.LVL104:
 645 003c 2868     		ldr	r0, [r5]
 646              	.LVL105:
 647              	.L76:
 648              	.LBE87:
 649              	.LBE86:
 650              		.loc 1 1859 0
 651 003e 0C30     		adds	r0, r0, #12
 652              		.loc 1 1860 0
 653 0040 03B0     		add	sp, sp, #12
 654              		.cfi_remember_state
 655              		.cfi_def_cfa_offset 20
 656              		@ sp needed
 657 0042 BDE8F040 		pop	{r4, r5, r6, r7, lr}
 658              		.cfi_restore 14
 659              		.cfi_restore 7
 660              		.cfi_restore 6
 661              		.cfi_restore 5
 662              		.cfi_restore 4
 663              		.cfi_def_cfa_offset 0
 664              	.LVL106:
 665              		.loc 1 1859 0
 666 0046 FFF7FEBF 		b	sys_sem_signal
 667              	.LVL107:
 668              	.L117:
 669              		.cfi_restore_state
 670              		.loc 1 1759 0
 671 004a 012B     		cmp	r3, #1
 672 004c 3CD0     		beq	.L86
 673 004e 022B     		cmp	r3, #2
 674 0050 40F09780 		bne	.L109
 675              		.loc 1 1761 0
 676 0054 2B68     		ldr	r3, [r5]
 677              	.LVL108:
 678              		.loc 1 1762 0
 679 0056 7148     		ldr	r0, .L123+12
 680              		.loc 1 1761 0
ARM GAS  C:\Users\jo\AppData\Local\Temp\ccpKXchH.s 			page 13


 681 0058 5B68     		ldr	r3, [r3, #4]
 682              		.loc 1 1762 0
 683 005a 7149     		ldr	r1, .L123+16
 684              		.loc 1 1761 0
 685 005c 9B7A     		ldrb	r3, [r3, #10]	@ zero_extendqisi2
 686 005e 2360     		str	r3, [r4]
 687              	.LVL109:
 688              		.loc 1 1762 0
 689 0060 3246     		mov	r2, r6
 690              	.LVL110:
 691 0062 FFF7FEFF 		bl	chprintf.constprop.1
 692              	.LVL111:
 693 0066 2868     		ldr	r0, [r5]
 694 0068 E9E7     		b	.L76
 695              	.LVL112:
 696              	.L67:
 697              		.loc 1 1680 0
 698 006a 202B     		cmp	r3, #32
 699 006c 4ED0     		beq	.L70
 700 006e 49DD     		ble	.L118
 701 0070 41F20802 		movw	r2, #4104
 702              	.LVL113:
 703 0074 9342     		cmp	r3, r2
 704 0076 00F0A680 		beq	.L72
 705 007a 41F20A02 		movw	r2, #4106
 706 007e 9342     		cmp	r3, r2
 707 0080 00F09A80 		beq	.L73
 708 0084 41F20702 		movw	r2, #4103
 709 0088 9342     		cmp	r3, r2
 710 008a 53D0     		beq	.L119
 711              	.L69:
 712              		.loc 1 1752 0 discriminator 1
 713 008c 604B     		ldr	r3, .L123
 714              	.LVL114:
 715 008e 0093     		str	r3, [sp]
 716              	.LVL115:
 717 0090 6049     		ldr	r1, .L123+4
 718 0092 644A     		ldr	r2, .L123+20
 719 0094 6148     		ldr	r0, .L123+12
 720 0096 4FF4DB63 		mov	r3, #1752
 721 009a FFF7FEFF 		bl	chprintf.constprop.1
 722              	.LVL116:
 723              	.LBB88:
 724              	.LBB89:
 725              		.loc 3 414 0 discriminator 1
 726 009e 6148     		ldr	r0, .L123+20
 727 00a0 FFF7FEFF 		bl	chSysHalt
 728              	.LVL117:
 729 00a4 2868     		ldr	r0, [r5]
 730 00a6 CAE7     		b	.L76
 731              	.LVL118:
 732              	.L66:
 733              	.LBE89:
 734              	.LBE88:
 735              		.loc 1 1800 0
 736 00a8 012B     		cmp	r3, #1
 737 00aa 18D0     		beq	.L89
ARM GAS  C:\Users\jo\AppData\Local\Temp\ccpKXchH.s 			page 14


 738 00ac 022B     		cmp	r3, #2
 739 00ae 5AD1     		bne	.L120
 740              		.loc 1 1807 0
 741 00b0 2B68     		ldr	r3, [r5]
 742              	.LVL119:
 743              		.loc 1 1808 0
 744 00b2 5A48     		ldr	r0, .L123+12
 745              		.loc 1 1807 0
 746 00b4 5B68     		ldr	r3, [r3, #4]
 747              		.loc 1 1808 0
 748 00b6 5C49     		ldr	r1, .L123+24
 749              		.loc 1 1807 0
 750 00b8 D3F89030 		ldr	r3, [r3, #144]
 751 00bc 2360     		str	r3, [r4]
 752              	.LVL120:
 753              		.loc 1 1808 0
 754 00be 3246     		mov	r2, r6
 755              	.LVL121:
 756 00c0 FFF7FEFF 		bl	chprintf.constprop.1
 757              	.LVL122:
 758 00c4 2868     		ldr	r0, [r5]
 759 00c6 BAE7     		b	.L76
 760              	.LVL123:
 761              	.L86:
 762              		.loc 1 1766 0
 763 00c8 2B68     		ldr	r3, [r5]
 764              	.LVL124:
 765              		.loc 1 1767 0
 766 00ca 5448     		ldr	r0, .L123+12
 767              		.loc 1 1766 0
 768 00cc 5B68     		ldr	r3, [r3, #4]
 769              		.loc 1 1767 0
 770 00ce 5749     		ldr	r1, .L123+28
 771              		.loc 1 1766 0
 772 00d0 5B7A     		ldrb	r3, [r3, #9]	@ zero_extendqisi2
 773 00d2 2360     		str	r3, [r4]
 774              	.LVL125:
 775              		.loc 1 1767 0
 776 00d4 3246     		mov	r2, r6
 777              	.LVL126:
 778 00d6 FFF7FEFF 		bl	chprintf.constprop.1
 779              	.LVL127:
 780 00da 2868     		ldr	r0, [r5]
 781 00dc AFE7     		b	.L76
 782              	.LVL128:
 783              	.L89:
 784              		.loc 1 1802 0
 785 00de 2B68     		ldr	r3, [r5]
 786              	.LVL129:
 787              		.loc 1 1803 0
 788 00e0 DFF854E1 		ldr	lr, .L123+40
 789              		.loc 1 1802 0
 790 00e4 5A68     		ldr	r2, [r3, #4]
 791              	.LVL130:
 792              		.loc 1 1803 0
 793 00e6 524B     		ldr	r3, .L123+32
 794              		.loc 1 1802 0
ARM GAS  C:\Users\jo\AppData\Local\Temp\ccpKXchH.s 			page 15


 795 00e8 977F     		ldrb	r7, [r2, #30]	@ zero_extendqisi2
 796              		.loc 1 1803 0
 797 00ea 4C48     		ldr	r0, .L123+12
 798 00ec 5149     		ldr	r1, .L123+36
 799              		.loc 1 1802 0
 800 00ee C7F38017 		ubfx	r7, r7, #6, #1
 801              		.loc 1 1803 0
 802 00f2 3246     		mov	r2, r6
 803              		.loc 1 1802 0
 804 00f4 2760     		str	r7, [r4]
 805              	.LVL131:
 806              		.loc 1 1803 0
 807 00f6 002F     		cmp	r7, #0
 808 00f8 18BF     		it	ne
 809 00fa 7346     		movne	r3, lr
 810 00fc FFF7FEFF 		bl	chprintf.constprop.1
 811              	.LVL132:
 812 0100 2868     		ldr	r0, [r5]
 813              		.loc 1 1805 0
 814 0102 9CE7     		b	.L76
 815              	.LVL133:
 816              	.L118:
 817              		.loc 1 1680 0
 818 0104 022B     		cmp	r3, #2
 819 0106 01D0     		beq	.L70
 820 0108 082B     		cmp	r3, #8
 821 010a BFD1     		bne	.L69
 822              	.L70:
 823              		.loc 1 1694 0
 824 010c 2968     		ldr	r1, [r5]
 825              		.loc 1 1695 0
 826 010e 4A4A     		ldr	r2, .L123+40
 827              	.LVL134:
 828              		.loc 1 1694 0
 829 0110 4968     		ldr	r1, [r1, #4]
 830              		.loc 1 1695 0
 831 0112 DFF81CE1 		ldr	lr, .L123+32
 832              		.loc 1 1694 0
 833 0116 0F7A     		ldrb	r7, [r1, #8]	@ zero_extendqisi2
 834              		.loc 1 1695 0
 835 0118 4048     		ldr	r0, .L123+12
 836 011a 4849     		ldr	r1, .L123+44
 837              		.loc 1 1694 0
 838 011c 1F40     		ands	r7, r7, r3
 839              		.loc 1 1695 0
 840 011e 002F     		cmp	r7, #0
 841 0120 18BF     		it	ne
 842 0122 9646     		movne	lr, r2
 843              		.loc 1 1694 0
 844 0124 2760     		str	r7, [r4]
 845              	.LVL135:
 846              		.loc 1 1695 0
 847 0126 3246     		mov	r2, r6
 848 0128 CDF800E0 		str	lr, [sp]
 849 012c FFF7FEFF 		bl	chprintf.constprop.1
 850              	.LVL136:
 851 0130 2868     		ldr	r0, [r5]
ARM GAS  C:\Users\jo\AppData\Local\Temp\ccpKXchH.s 			page 16


 852              		.loc 1 1697 0
 853 0132 84E7     		b	.L76
 854              	.LVL137:
 855              	.L119:
 856              		.loc 1 1722 0
 857 0134 2B69     		ldr	r3, [r5, #16]
 858              	.LVL138:
 859 0136 002B     		cmp	r3, #0
 860 0138 5DD1     		bne	.L121
 861              	.L82:
 862              		.loc 1 1723 0
 863 013a 2B68     		ldr	r3, [r5]
 864 013c 93F90830 		ldrsb	r3, [r3, #8]
 865 0140 5B42     		negs	r3, r3
 866 0142 0F2B     		cmp	r3, #15
 867 0144 96BF     		itet	ls
 868 0146 3E4A     		ldrls	r2, .L123+48
 869 0148 0523     		movhi	r3, #5
 870 014a 52F82330 		ldrls	r3, [r2, r3, lsl #2]
 871 014e 2B61     		str	r3, [r5, #16]
 872              	.L83:
 873              		.loc 1 1726 0
 874 0150 0022     		movs	r2, #0
 875              		.loc 1 1725 0
 876 0152 2360     		str	r3, [r4]
 877              	.LVL139:
 878              		.loc 1 1726 0
 879 0154 2A61     		str	r2, [r5, #16]
 880              		.loc 1 1727 0
 881 0156 2368     		ldr	r3, [r4]
 882 0158 3048     		ldr	r0, .L123+12
 883 015a 3A49     		ldr	r1, .L123+52
 884 015c 3246     		mov	r2, r6
 885 015e FFF7FEFF 		bl	chprintf.constprop.1
 886              	.LVL140:
 887 0162 2868     		ldr	r0, [r5]
 888 0164 6BE7     		b	.L76
 889              	.LVL141:
 890              	.L120:
 891              		.loc 1 1830 0 discriminator 1
 892 0166 2A4B     		ldr	r3, .L123
 893              	.LVL142:
 894 0168 0093     		str	r3, [sp]
 895              	.LVL143:
 896 016a 2A49     		ldr	r1, .L123+4
 897 016c 2D4A     		ldr	r2, .L123+20
 898              	.LVL144:
 899 016e 2B48     		ldr	r0, .L123+12
 900 0170 40F22673 		movw	r3, #1830
 901 0174 FFF7FEFF 		bl	chprintf.constprop.1
 902              	.LVL145:
 903              	.LBB90:
 904              	.LBB91:
 905              		.loc 3 414 0 discriminator 1
 906 0178 2A48     		ldr	r0, .L123+20
 907 017a FFF7FEFF 		bl	chSysHalt
 908              	.LVL146:
ARM GAS  C:\Users\jo\AppData\Local\Temp\ccpKXchH.s 			page 17


 909 017e 2868     		ldr	r0, [r5]
 910 0180 5DE7     		b	.L76
 911              	.LVL147:
 912              	.L109:
 913              	.LBE91:
 914              	.LBE90:
 915              		.loc 1 1792 0 discriminator 1
 916 0182 234B     		ldr	r3, .L123
 917              	.LVL148:
 918 0184 0093     		str	r3, [sp]
 919              	.LVL149:
 920 0186 2349     		ldr	r1, .L123+4
 921 0188 264A     		ldr	r2, .L123+20
 922              	.LVL150:
 923 018a 2448     		ldr	r0, .L123+12
 924 018c 4FF4E063 		mov	r3, #1792
 925 0190 FFF7FEFF 		bl	chprintf.constprop.1
 926              	.LVL151:
 927              	.LBB92:
 928              	.LBB93:
 929              		.loc 3 414 0 discriminator 1
 930 0194 2348     		ldr	r0, .L123+20
 931 0196 FFF7FEFF 		bl	chSysHalt
 932              	.LVL152:
 933 019a 2868     		ldr	r0, [r5]
 934 019c 4FE7     		b	.L76
 935              	.LVL153:
 936              	.L116:
 937              	.LBE93:
 938              	.LBE92:
 939              		.loc 1 1665 0 discriminator 1
 940 019e 1C4B     		ldr	r3, .L123
 941 01a0 0093     		str	r3, [sp]
 942 01a2 1C49     		ldr	r1, .L123+4
 943 01a4 284A     		ldr	r2, .L123+56
 944 01a6 1D48     		ldr	r0, .L123+12
 945              	.LVL154:
 946 01a8 40F28163 		movw	r3, #1665
 947 01ac FFF7FEFF 		bl	chprintf.constprop.1
 948              	.LVL155:
 949              	.LBB94:
 950              	.LBB95:
 951              		.loc 3 414 0 discriminator 1
 952 01b0 2548     		ldr	r0, .L123+56
 953 01b2 FFF7FEFF 		bl	chSysHalt
 954              	.LVL156:
 955 01b6 29E7     		b	.L64
 956              	.LVL157:
 957              	.L73:
 958              	.LBE95:
 959              	.LBE94:
 960              		.loc 1 1748 0
 961 01b8 2868     		ldr	r0, [r5]
 962 01ba 4368     		ldr	r3, [r0, #4]
 963              	.LVL158:
 964 01bc 1B7C     		ldrb	r3, [r3, #16]	@ zero_extendqisi2
 965 01be 03F00103 		and	r3, r3, #1
ARM GAS  C:\Users\jo\AppData\Local\Temp\ccpKXchH.s 			page 18


 966 01c2 2360     		str	r3, [r4]
 967              	.LVL159:
 968              		.loc 1 1749 0
 969 01c4 3BE7     		b	.L76
 970              	.LVL160:
 971              	.L72:
 972              		.loc 1 1700 0
 973 01c6 2B68     		ldr	r3, [r5]
 974              	.LVL161:
 975 01c8 1B78     		ldrb	r3, [r3]	@ zero_extendqisi2
 976 01ca 03F0F002 		and	r2, r3, #240
 977 01ce 202A     		cmp	r2, #32
 978 01d0 14D0     		beq	.L78
 979 01d2 402A     		cmp	r2, #64
 980 01d4 18D0     		beq	.L79
 981 01d6 102A     		cmp	r2, #16
 982 01d8 13D0     		beq	.L122
 983              		.loc 1 1711 0
 984 01da 2360     		str	r3, [r4]
 985              	.LVL162:
 986              		.loc 1 1712 0
 987 01dc 0F48     		ldr	r0, .L123+12
 988 01de 1B49     		ldr	r1, .L123+60
 989 01e0 3246     		mov	r2, r6
 990 01e2 FFF7FEFF 		bl	chprintf.constprop.1
 991              	.LVL163:
 992 01e6 2368     		ldr	r3, [r4]
 993              	.L81:
 994              		.loc 1 1716 0 discriminator 1
 995 01e8 0C48     		ldr	r0, .L123+12
 996 01ea 1949     		ldr	r1, .L123+64
 997 01ec 3246     		mov	r2, r6
 998 01ee FFF7FEFF 		bl	chprintf.constprop.1
 999              	.LVL164:
 1000 01f2 2868     		ldr	r0, [r5]
 1001              		.loc 1 1718 0 discriminator 1
 1002 01f4 23E7     		b	.L76
 1003              	.LVL165:
 1004              	.L121:
 1005              		.loc 1 1722 0 discriminator 1
 1006 01f6 732B     		cmp	r3, #115
 1007 01f8 AAD1     		bne	.L83
 1008 01fa 9EE7     		b	.L82
 1009              	.L78:
 1010              		.loc 1 1708 0
 1011 01fc 0223     		movs	r3, #2
 1012 01fe 2360     		str	r3, [r4]
 1013              	.LVL166:
 1014              		.loc 1 1709 0
 1015 0200 F2E7     		b	.L81
 1016              	.LVL167:
 1017              	.L122:
 1018              		.loc 1 1705 0
 1019 0202 0123     		movs	r3, #1
 1020 0204 2360     		str	r3, [r4]
 1021              	.LVL168:
 1022              		.loc 1 1706 0
ARM GAS  C:\Users\jo\AppData\Local\Temp\ccpKXchH.s 			page 19


 1023 0206 EFE7     		b	.L81
 1024              	.LVL169:
 1025              	.L79:
 1026              		.loc 1 1702 0
 1027 0208 0323     		movs	r3, #3
 1028 020a 2360     		str	r3, [r4]
 1029              	.LVL170:
 1030              		.loc 1 1703 0
 1031 020c ECE7     		b	.L81
 1032              	.L124:
 1033 020e 00BF     		.align	2
 1034              	.L123:
 1035 0210 3C000000 		.word	.LC4
 1036 0214 08000000 		.word	.LC2
 1037 0218 94010000 		.word	.LC11
 1038 021c 00000000 		.word	itm_port
 1039 0220 84020000 		.word	.LC16
 1040 0224 A8000000 		.word	.LC6
 1041 0228 18030000 		.word	.LC19
 1042 022c B4020000 		.word	.LC17
 1043 0230 04000000 		.word	.LC1
 1044 0234 E4020000 		.word	.LC18
 1045 0238 00000000 		.word	.LC0
 1046 023c A4010000 		.word	.LC12
 1047 0240 00000000 		.word	.LANCHOR1
 1048 0244 54020000 		.word	.LC15
 1049 0248 30000000 		.word	.LC3
 1050 024c DC010000 		.word	.LC13
 1051 0250 24020000 		.word	.LC14
 1052              		.cfi_endproc
 1053              	.LFE281:
 1054              		.size	lwip_getsockopt_internal, .-lwip_getsockopt_internal
 1055 0254 AFF30080 		.section	.text.lwip_selscan,"ax",%progbits
 1055      AFF30080 
 1055      AFF30080 
 1056              		.align	2
 1057              		.p2align 4,,15
 1058              		.thumb
 1059              		.thumb_func
 1060              		.type	lwip_selscan, %function
 1061              	lwip_selscan:
 1062              	.LFB273:
 1063              		.loc 1 1028 0
 1064              		.cfi_startproc
 1065              		@ args = 12, pretend = 0, frame = 32
 1066              		@ frame_needed = 0, uses_anonymous_args = 0
 1067              	.LVL171:
 1068 0000 2DE9F04F 		push	{r4, r5, r6, r7, r8, r9, r10, fp, lr}
 1069              		.cfi_def_cfa_offset 36
 1070              		.cfi_offset 4, -36
 1071              		.cfi_offset 5, -32
 1072              		.cfi_offset 6, -28
 1073              		.cfi_offset 7, -24
 1074              		.cfi_offset 8, -20
 1075              		.cfi_offset 9, -16
 1076              		.cfi_offset 10, -12
 1077              		.cfi_offset 11, -8
ARM GAS  C:\Users\jo\AppData\Local\Temp\ccpKXchH.s 			page 20


 1078              		.cfi_offset 14, -4
 1079 0004 89B0     		sub	sp, sp, #36
 1080              		.cfi_def_cfa_offset 72
 1081              	.LVL172:
 1082              	.LBB96:
 1083              		.loc 1 1034 0
 1084 0006 02AC     		add	r4, sp, #8
 1085              	.LVL173:
 1086 0008 0025     		movs	r5, #0
 1087              	.LVL174:
 1088              	.L126:
 1089              		.loc 1 1034 0 is_stmt 0 discriminator 3
 1090 000a 04F8015B 		strb	r5, [r4], #1
 1091              	.LVL175:
 1092 000e 04AE     		add	r6, sp, #16
 1093 0010 B442     		cmp	r4, r6
 1094 0012 FAD1     		bne	.L126
 1095 0014 3446     		mov	r4, r6
 1096              	.LVL176:
 1097              	.LBE96:
 1098              	.LBB97:
 1099              		.loc 1 1035 0 is_stmt 1
 1100 0016 0025     		movs	r5, #0
 1101              	.L127:
 1102              	.LVL177:
 1103              		.loc 1 1035 0 is_stmt 0 discriminator 3
 1104 0018 04F8015B 		strb	r5, [r4], #1
 1105              	.LVL178:
 1106 001c 06AE     		add	r6, sp, #24
 1107 001e B442     		cmp	r4, r6
 1108 0020 FAD1     		bne	.L127
 1109 0022 3446     		mov	r4, r6
 1110              	.LVL179:
 1111              	.LBE97:
 1112              	.LBB98:
 1113              		.loc 1 1036 0 is_stmt 1
 1114 0024 0025     		movs	r5, #0
 1115              	.L128:
 1116              	.LVL180:
 1117              		.loc 1 1036 0 is_stmt 0 discriminator 3
 1118 0026 04F8015B 		strb	r5, [r4], #1
 1119              	.LVL181:
 1120 002a 08AE     		add	r6, sp, #32
 1121 002c B442     		cmp	r4, r6
 1122 002e FAD1     		bne	.L128
 1123              	.LVL182:
 1124              	.LBE98:
 1125              		.loc 1 1040 0 is_stmt 1 discriminator 1
 1126 0030 0028     		cmp	r0, #0
 1127 0032 40F39380 		ble	.L136
 1128              		.loc 1 1040 0 is_stmt 0
 1129 0036 4FF0000B 		mov	fp, #0
 1130 003a DFF858A1 		ldr	r10, .L172+16
 1131 003e 9946     		mov	r9, r3
 1132 0040 9046     		mov	r8, r2
 1133 0042 0F46     		mov	r7, r1
 1134 0044 5C46     		mov	r4, fp
ARM GAS  C:\Users\jo\AppData\Local\Temp\ccpKXchH.s 			page 21


 1135              	.LVL183:
 1136 0046 0646     		mov	r6, r0
 1137              	.LVL184:
 1138              	.L135:
 1139              	.LBB99:
 1140              	.LBB100:
 1141              	.LBB101:
 1142              		.loc 1 225 0 is_stmt 1
 1143 0048 012C     		cmp	r4, #1
 1144 004a 40F28A80 		bls	.L168
 1145              	.LBE101:
 1146              	.LBE100:
 1147              		.loc 1 1044 0
 1148 004e 0025     		movs	r5, #0
 1149              		.loc 1 1043 0
 1150 0050 AC46     		mov	ip, r5
 1151              		.loc 1 1042 0
 1152 0052 AE46     		mov	lr, r5
 1153              		.loc 1 1041 0
 1154 0054 2846     		mov	r0, r5
 1155              	.LVL185:
 1156              	.L130:
 1157              		.loc 1 1057 0
 1158 0056 07B3     		cbz	r7, .L131
 1159              		.loc 1 1057 0 is_stmt 0 discriminator 1
 1160 0058 6209     		lsrs	r2, r4, #5
 1161 005a 04F01F01 		and	r1, r4, #31
 1162 005e 57F82230 		ldr	r3, [r7, r2, lsl #2]
 1163 0062 0B41     		asrs	r3, r3, r1
 1164 0064 DB07     		lsls	r3, r3, #31
 1165 0066 18D5     		bpl	.L131
 1166              		.loc 1 1057 0 discriminator 2
 1167 0068 0028     		cmp	r0, #0
 1168 006a 5FD0     		beq	.L169
 1169              	.LVL186:
 1170              	.L132:
 1171              		.loc 1 1058 0 is_stmt 1
 1172 006c 08AB     		add	r3, sp, #32
 1173 006e 03EB8202 		add	r2, r3, r2, lsl #2
 1174 0072 4FF0010E 		mov	lr, #1
 1175 0076 52F8183C 		ldr	r3, [r2, #-24]
 1176              		.loc 1 1059 0
 1177 007a 4248     		ldr	r0, .L172
 1178              	.LVL187:
 1179 007c CDF804C0 		str	ip, [sp, #4]
 1180              		.loc 1 1058 0
 1181 0080 0EFA01F1 		lsl	r1, lr, r1
 1182 0084 0B43     		orrs	r3, r3, r1
 1183 0086 42F8183C 		str	r3, [r2, #-24]
 1184              		.loc 1 1059 0
 1185 008a 3F49     		ldr	r1, .L172+4
 1186 008c 2246     		mov	r2, r4
 1187 008e FFF7FEFF 		bl	chprintf.constprop.1
 1188              	.LVL188:
 1189              		.loc 1 1060 0
 1190 0092 DDF804C0 		ldr	ip, [sp, #4]
 1191 0096 0BF1010B 		add	fp, fp, #1
ARM GAS  C:\Users\jo\AppData\Local\Temp\ccpKXchH.s 			page 22


 1192              	.LVL189:
 1193              	.L131:
 1194              		.loc 1 1063 0
 1195 009a B8F1000F 		cmp	r8, #0
 1196 009e 0AD0     		beq	.L133
 1197              		.loc 1 1063 0 is_stmt 0 discriminator 1
 1198 00a0 6209     		lsrs	r2, r4, #5
 1199 00a2 04F01F01 		and	r1, r4, #31
 1200 00a6 58F82230 		ldr	r3, [r8, r2, lsl #2]
 1201 00aa 0B41     		asrs	r3, r3, r1
 1202 00ac D807     		lsls	r0, r3, #31
 1203 00ae 02D5     		bpl	.L133
 1204              		.loc 1 1063 0 discriminator 2
 1205 00b0 BCF1000F 		cmp	ip, #0
 1206 00b4 26D1     		bne	.L170
 1207              	.L133:
 1208              		.loc 1 1069 0 is_stmt 1
 1209 00b6 B9F1000F 		cmp	r9, #0
 1210 00ba 08D0     		beq	.L134
 1211              		.loc 1 1069 0 is_stmt 0 discriminator 1
 1212 00bc 6209     		lsrs	r2, r4, #5
 1213 00be 04F01F01 		and	r1, r4, #31
 1214 00c2 59F82230 		ldr	r3, [r9, r2, lsl #2]
 1215 00c6 0B41     		asrs	r3, r3, r1
 1216 00c8 DB07     		lsls	r3, r3, #31
 1217 00ca 00D5     		bpl	.L134
 1218              		.loc 1 1069 0 discriminator 2
 1219 00cc A5BB     		cbnz	r5, .L171
 1220              	.LVL190:
 1221              	.L134:
 1222              	.LBE99:
 1223              		.loc 1 1040 0 is_stmt 1 discriminator 2
 1224 00ce 0134     		adds	r4, r4, #1
 1225              	.LVL191:
 1226 00d0 B442     		cmp	r4, r6
 1227 00d2 0AF1180A 		add	r10, r10, #24
 1228 00d6 B7D1     		bne	.L135
 1229              	.LVL192:
 1230              	.L129:
 1231              		.loc 1 1076 0
 1232 00d8 02AB     		add	r3, sp, #8
 1233 00da 93E80300 		ldmia	r3, {r0, r1}
 1234 00de 129B     		ldr	r3, [sp, #72]
 1235 00e0 83E80300 		stmia	r3, {r0, r1}
 1236              		.loc 1 1077 0
 1237 00e4 04AB     		add	r3, sp, #16
 1238 00e6 93E80300 		ldmia	r3, {r0, r1}
 1239 00ea 139B     		ldr	r3, [sp, #76]
 1240 00ec 83E80300 		stmia	r3, {r0, r1}
 1241              		.loc 1 1078 0
 1242 00f0 06AB     		add	r3, sp, #24
 1243 00f2 93E80300 		ldmia	r3, {r0, r1}
 1244 00f6 149B     		ldr	r3, [sp, #80]
 1245 00f8 83E80300 		stmia	r3, {r0, r1}
 1246              		.loc 1 1082 0
 1247 00fc 5846     		mov	r0, fp
 1248 00fe 09B0     		add	sp, sp, #36
ARM GAS  C:\Users\jo\AppData\Local\Temp\ccpKXchH.s 			page 23


 1249              		.cfi_remember_state
 1250              		.cfi_def_cfa_offset 36
 1251              		@ sp needed
 1252 0100 BDE8F08F 		pop	{r4, r5, r6, r7, r8, r9, r10, fp, pc}
 1253              	.LVL193:
 1254              	.L170:
 1255              		.cfi_restore_state
 1256              	.LBB104:
 1257              		.loc 1 1064 0
 1258 0104 08AB     		add	r3, sp, #32
 1259 0106 03EB8202 		add	r2, r3, r2, lsl #2
 1260 010a 4FF0010E 		mov	lr, #1
 1261 010e 52F8103C 		ldr	r3, [r2, #-16]
 1262              		.loc 1 1065 0
 1263 0112 1C48     		ldr	r0, .L172
 1264              		.loc 1 1064 0
 1265 0114 0EFA01F1 		lsl	r1, lr, r1
 1266 0118 0B43     		orrs	r3, r3, r1
 1267 011a 42F8103C 		str	r3, [r2, #-16]
 1268              		.loc 1 1065 0
 1269 011e 1B49     		ldr	r1, .L172+8
 1270 0120 2246     		mov	r2, r4
 1271 0122 FFF7FEFF 		bl	chprintf.constprop.1
 1272              	.LVL194:
 1273              		.loc 1 1066 0
 1274 0126 0BF1010B 		add	fp, fp, #1
 1275              	.LVL195:
 1276 012a C4E7     		b	.L133
 1277              	.LVL196:
 1278              	.L169:
 1279              		.loc 1 1057 0 discriminator 3
 1280 012c 0FFA8EFE 		sxth	lr, lr
 1281 0130 BEF1000F 		cmp	lr, #0
 1282 0134 9ADC     		bgt	.L132
 1283 0136 B0E7     		b	.L131
 1284              	.LVL197:
 1285              	.L171:
 1286              		.loc 1 1070 0
 1287 0138 08AB     		add	r3, sp, #32
 1288 013a 03EB8202 		add	r2, r3, r2, lsl #2
 1289 013e 0125     		movs	r5, #1
 1290              	.LVL198:
 1291 0140 52F8083C 		ldr	r3, [r2, #-8]
 1292              		.loc 1 1071 0
 1293 0144 0F48     		ldr	r0, .L172
 1294              		.loc 1 1070 0
 1295 0146 05FA01F1 		lsl	r1, r5, r1
 1296 014a 0B43     		orrs	r3, r3, r1
 1297 014c 42F8083C 		str	r3, [r2, #-8]
 1298              		.loc 1 1071 0
 1299 0150 0F49     		ldr	r1, .L172+12
 1300 0152 2246     		mov	r2, r4
 1301 0154 FFF7FEFF 		bl	chprintf.constprop.1
 1302              	.LVL199:
 1303              		.loc 1 1072 0
 1304 0158 AB44     		add	fp, fp, r5
 1305              	.LVL200:
ARM GAS  C:\Users\jo\AppData\Local\Temp\ccpKXchH.s 			page 24


 1306 015a B8E7     		b	.L134
 1307              	.LVL201:
 1308              	.L136:
 1309              	.LBE104:
 1310              		.loc 1 1040 0
 1311 015c 4FF0000B 		mov	fp, #0
 1312 0160 BAE7     		b	.L129
 1313              	.LVL202:
 1314              	.L168:
 1315              	.LBB105:
 1316              	.LBB103:
 1317              	.LBB102:
 1318              		.loc 1 228 0
 1319 0162 DAF80050 		ldr	r5, [r10]
 1320 0166 45B1     		cbz	r5, .L138
 1321              	.LBE102:
 1322              	.LBE103:
 1323              		.loc 1 1049 0
 1324 0168 DAF80400 		ldr	r0, [r10, #4]
 1325              	.LVL203:
 1326              		.loc 1 1050 0
 1327 016c BAF80AE0 		ldrh	lr, [r10, #10]
 1328              	.LVL204:
 1329              		.loc 1 1051 0
 1330 0170 BAF80CC0 		ldrh	ip, [r10, #12]
 1331              	.LVL205:
 1332              		.loc 1 1052 0
 1333 0174 BAF80E50 		ldrh	r5, [r10, #14]
 1334              	.LVL206:
 1335 0178 6DE7     		b	.L130
 1336              	.LVL207:
 1337              	.L138:
 1338              		.loc 1 1043 0
 1339 017a AC46     		mov	ip, r5
 1340              		.loc 1 1042 0
 1341 017c AE46     		mov	lr, r5
 1342              		.loc 1 1041 0
 1343 017e 2846     		mov	r0, r5
 1344 0180 69E7     		b	.L130
 1345              	.L173:
 1346 0182 00BF     		.align	2
 1347              	.L172:
 1348 0184 00000000 		.word	itm_port
 1349 0188 50030000 		.word	.LC20
 1350 018c 78030000 		.word	.LC21
 1351 0190 A0030000 		.word	.LC22
 1352 0194 00000000 		.word	.LANCHOR0
 1353              	.LBE105:
 1354              		.cfi_endproc
 1355              	.LFE273:
 1356              		.size	lwip_selscan, .-lwip_selscan
 1357 0198 AFF30080 		.section	.text.get_socket,"ax",%progbits
 1357      AFF30080 
 1358              		.align	2
 1359              		.p2align 4,,15
 1360              		.thumb
 1361              		.thumb_func
ARM GAS  C:\Users\jo\AppData\Local\Temp\ccpKXchH.s 			page 25


 1362              		.type	get_socket, %function
 1363              	get_socket:
 1364              	.LFB257:
 1365              		.loc 1 196 0
 1366              		.cfi_startproc
 1367              		@ args = 0, pretend = 0, frame = 0
 1368              		@ frame_needed = 0, uses_anonymous_args = 0
 1369              	.LVL208:
 1370              		.loc 1 199 0
 1371 0000 0128     		cmp	r0, #1
 1372              		.loc 1 196 0
 1373 0002 10B5     		push	{r4, lr}
 1374              		.cfi_def_cfa_offset 8
 1375              		.cfi_offset 4, -8
 1376              		.cfi_offset 14, -4
 1377              		.loc 1 199 0
 1378 0004 08D8     		bhi	.L179
 1379              		.loc 1 205 0
 1380 0006 00EB4003 		add	r3, r0, r0, lsl #1
 1381 000a DB00     		lsls	r3, r3, #3
 1382 000c 094A     		ldr	r2, .L181
 1383              		.loc 1 207 0
 1384 000e D458     		ldr	r4, [r2, r3]
 1385              		.loc 1 205 0
 1386 0010 1344     		add	r3, r3, r2
 1387              	.LVL209:
 1388              		.loc 1 207 0
 1389 0012 44B1     		cbz	r4, .L180
 1390              		.loc 1 213 0
 1391 0014 1846     		mov	r0, r3
 1392              	.LVL210:
 1393              		.loc 1 214 0
 1394 0016 10BD     		pop	{r4, pc}
 1395              	.LVL211:
 1396              	.L179:
 1397              		.loc 1 200 0 discriminator 1
 1398 0018 0246     		mov	r2, r0
 1399 001a 0749     		ldr	r1, .L181+4
 1400 001c 0748     		ldr	r0, .L181+8
 1401              	.LVL212:
 1402 001e FFF7FEFF 		bl	chprintf.constprop.1
 1403              	.LVL213:
 1404              		.loc 1 202 0 discriminator 1
 1405 0022 0020     		movs	r0, #0
 1406 0024 10BD     		pop	{r4, pc}
 1407              	.LVL214:
 1408              	.L180:
 1409              	.LBB108:
 1410              	.LBB109:
 1411              		.loc 1 208 0
 1412 0026 0246     		mov	r2, r0
 1413 0028 0549     		ldr	r1, .L181+12
 1414 002a 0448     		ldr	r0, .L181+8
 1415              	.LVL215:
 1416 002c FFF7FEFF 		bl	chprintf.constprop.1
 1417              	.LVL216:
 1418 0030 2046     		mov	r0, r4
ARM GAS  C:\Users\jo\AppData\Local\Temp\ccpKXchH.s 			page 26


 1419 0032 10BD     		pop	{r4, pc}
 1420              	.L182:
 1421              		.align	2
 1422              	.L181:
 1423 0034 00000000 		.word	.LANCHOR0
 1424 0038 CC030000 		.word	.LC23
 1425 003c 00000000 		.word	itm_port
 1426 0040 E8030000 		.word	.LC24
 1427              	.LBE109:
 1428              	.LBE108:
 1429              		.cfi_endproc
 1430              	.LFE257:
 1431              		.size	get_socket, .-get_socket
 1432 0044 AFF30080 		.section	.text.event_callback,"ax",%progbits
 1432      AFF30080 
 1432      AFF30080 
 1433              		.align	2
 1434              		.p2align 4,,15
 1435              		.thumb
 1436              		.thumb_func
 1437              		.type	event_callback, %function
 1438              	event_callback:
 1439              	.LFB275:
 1440              		.loc 1 1248 0
 1441              		.cfi_startproc
 1442              		@ args = 0, pretend = 0, frame = 0
 1443              		@ frame_needed = 0, uses_anonymous_args = 0
 1444              	.LVL217:
 1445              		.loc 1 1258 0
 1446 0000 0028     		cmp	r0, #0
 1447 0002 76D0     		beq	.L230
 1448              		.loc 1 1248 0
 1449 0004 2DE9F047 		push	{r4, r5, r6, r7, r8, r9, r10, lr}
 1450              		.cfi_def_cfa_offset 32
 1451              		.cfi_offset 4, -32
 1452              		.cfi_offset 5, -28
 1453              		.cfi_offset 6, -24
 1454              		.cfi_offset 7, -20
 1455              		.cfi_offset 8, -16
 1456              		.cfi_offset 9, -12
 1457              		.cfi_offset 10, -8
 1458              		.cfi_offset 14, -4
 1459              		.loc 1 1259 0
 1460 0008 8769     		ldr	r7, [r0, #24]
 1461              	.LVL218:
 1462              		.loc 1 1260 0
 1463 000a 002F     		cmp	r7, #0
 1464              		.loc 1 1248 0
 1465 000c 82B0     		sub	sp, sp, #8
 1466              		.cfi_def_cfa_offset 40
 1467              		.loc 1 1260 0
 1468 000e 0CDB     		blt	.L231
 1469              		.loc 1 1278 0
 1470 0010 3846     		mov	r0, r7
 1471              	.LVL219:
 1472 0012 0C46     		mov	r4, r1
 1473 0014 FFF7FEFF 		bl	get_socket
ARM GAS  C:\Users\jo\AppData\Local\Temp\ccpKXchH.s 			page 27


 1474              	.LVL220:
 1475              		.loc 1 1279 0
 1476 0018 0646     		mov	r6, r0
 1477 001a 48B1     		cbz	r0, .L183
 1478              		.loc 1 1288 0
 1479 001c 042C     		cmp	r4, #4
 1480 001e 5BD8     		bhi	.L188
 1481 0020 DFE804F0 		tbb	[pc, r4]
 1482              	.L190:
 1483 0024 09       		.byte	(.L189-.L190)/2
 1484 0025 4D       		.byte	(.L191-.L190)/2
 1485 0026 51       		.byte	(.L192-.L190)/2
 1486 0027 54       		.byte	(.L193-.L190)/2
 1487 0028 57       		.byte	(.L194-.L190)/2
 1488              	.LVL221:
 1489 0029 00       		.p2align 1
 1490              	.L231:
 1491              		.loc 1 1268 0
 1492 002a 09B9     		cbnz	r1, .L183
 1493              		.loc 1 1269 0
 1494 002c 013F     		subs	r7, r7, #1
 1495              	.LVL222:
 1496 002e 8761     		str	r7, [r0, #24]
 1497              	.LVL223:
 1498              	.L183:
 1499              		.loc 1 1360 0
 1500 0030 02B0     		add	sp, sp, #8
 1501              		.cfi_remember_state
 1502              		.cfi_def_cfa_offset 32
 1503              		@ sp needed
 1504 0032 BDE8F087 		pop	{r4, r5, r6, r7, r8, r9, r10, pc}
 1505              	.LVL224:
 1506              	.L189:
 1507              		.cfi_restore_state
 1508              		.loc 1 1290 0
 1509 0036 4389     		ldrh	r3, [r0, #10]
 1510 0038 0133     		adds	r3, r3, #1
 1511 003a 4381     		strh	r3, [r0, #10]	@ movhi
 1512              	.LVL225:
 1513              	.L195:
 1514              		.loc 1 1309 0
 1515 003c 7369     		ldr	r3, [r6, #20]
 1516 003e 002B     		cmp	r3, #0
 1517 0040 F6D0     		beq	.L183
 1518              	.LBB110:
 1519              		.loc 1 1328 0
 1520 0042 07F01F02 		and	r2, r7, #31
 1521 0046 0123     		movs	r3, #1
 1522 0048 DFF8BC80 		ldr	r8, .L232+20
 1523 004c 294D     		ldr	r5, .L232
 1524 004e 4FEA5719 		lsr	r9, r7, #5
 1525 0052 03FA02FA 		lsl	r10, r3, r2
 1526              		.loc 1 1343 0
 1527 0056 1F46     		mov	r7, r3
 1528              	.LVL226:
 1529              	.L200:
 1530              	.LBE110:
ARM GAS  C:\Users\jo\AppData\Local\Temp\ccpKXchH.s 			page 28


 1531              		.loc 1 1322 0
 1532 0058 D8F80040 		ldr	r4, [r8]
 1533              	.LVL227:
 1534 005c 64B9     		cbnz	r4, .L201
 1535 005e E7E7     		b	.L183
 1536              	.LVL228:
 1537              	.L198:
 1538              	.LBB111:
 1539              		.loc 1 1343 0
 1540 0060 6761     		str	r7, [r4, #20]
 1541              		.loc 1 1346 0
 1542 0062 04F11800 		add	r0, r4, #24
 1543 0066 FFF7FEFF 		bl	sys_sem_signal
 1544              	.LVL229:
 1545              	.L196:
 1546              	.LBE111:
 1547              		.loc 1 1350 0
 1548 006a 2A68     		ldr	r2, [r5]
 1549              	.LVL230:
 1550              		.loc 1 1354 0
 1551 006c 2B68     		ldr	r3, [r5]
 1552 006e 9A42     		cmp	r2, r3
 1553 0070 F2D1     		bne	.L200
 1554              		.loc 1 1322 0 discriminator 2
 1555 0072 2468     		ldr	r4, [r4]
 1556              	.LVL231:
 1557 0074 002C     		cmp	r4, #0
 1558 0076 DBD0     		beq	.L183
 1559              	.LVL232:
 1560              	.L201:
 1561              		.loc 1 1323 0
 1562 0078 6369     		ldr	r3, [r4, #20]
 1563 007a 002B     		cmp	r3, #0
 1564 007c F5D1     		bne	.L196
 1565              	.LVL233:
 1566              	.LBB112:
 1567              		.loc 1 1327 0
 1568 007e B6F90A30 		ldrsh	r3, [r6, #10]
 1569 0082 002B     		cmp	r3, #0
 1570 0084 06DD     		ble	.L197
 1571              		.loc 1 1328 0
 1572 0086 A368     		ldr	r3, [r4, #8]
 1573 0088 23B1     		cbz	r3, .L197
 1574 008a 53F82930 		ldr	r3, [r3, r9, lsl #2]
 1575              		.loc 1 1328 0 is_stmt 0 discriminator 1
 1576 008e 1AEA030F 		tst	r10, r3
 1577 0092 E5D1     		bne	.L198
 1578              	.L197:
 1579              		.loc 1 1332 0 is_stmt 1
 1580 0094 B389     		ldrh	r3, [r6, #12]
 1581 0096 33B1     		cbz	r3, .L228
 1582              		.loc 1 1333 0 discriminator 1
 1583 0098 E368     		ldr	r3, [r4, #12]
 1584 009a 23B1     		cbz	r3, .L228
 1585 009c 53F82930 		ldr	r3, [r3, r9, lsl #2]
 1586              		.loc 1 1333 0 is_stmt 0 discriminator 2
 1587 00a0 1AEA030F 		tst	r10, r3
ARM GAS  C:\Users\jo\AppData\Local\Temp\ccpKXchH.s 			page 29


 1588 00a4 DCD1     		bne	.L198
 1589              	.L228:
 1590              		.loc 1 1337 0 is_stmt 1
 1591 00a6 F389     		ldrh	r3, [r6, #14]
 1592 00a8 002B     		cmp	r3, #0
 1593 00aa DED0     		beq	.L196
 1594              		.loc 1 1338 0 discriminator 1
 1595 00ac 2369     		ldr	r3, [r4, #16]
 1596 00ae 002B     		cmp	r3, #0
 1597 00b0 DBD0     		beq	.L196
 1598 00b2 53F82930 		ldr	r3, [r3, r9, lsl #2]
 1599              		.loc 1 1338 0 is_stmt 0 discriminator 2
 1600 00b6 1AEA030F 		tst	r10, r3
 1601 00ba D6D0     		beq	.L196
 1602 00bc D0E7     		b	.L198
 1603              	.LVL234:
 1604              	.L191:
 1605              	.LBE112:
 1606              		.loc 1 1293 0 is_stmt 1
 1607 00be 4389     		ldrh	r3, [r0, #10]
 1608 00c0 013B     		subs	r3, r3, #1
 1609 00c2 4381     		strh	r3, [r0, #10]	@ movhi
 1610              		.loc 1 1294 0
 1611 00c4 BAE7     		b	.L195
 1612              	.L192:
 1613              		.loc 1 1296 0
 1614 00c6 0123     		movs	r3, #1
 1615 00c8 8381     		strh	r3, [r0, #12]	@ movhi
 1616              		.loc 1 1297 0
 1617 00ca B7E7     		b	.L195
 1618              	.L193:
 1619              		.loc 1 1299 0
 1620 00cc 0023     		movs	r3, #0
 1621 00ce 8381     		strh	r3, [r0, #12]	@ movhi
 1622              		.loc 1 1300 0
 1623 00d0 B4E7     		b	.L195
 1624              	.L194:
 1625              		.loc 1 1302 0
 1626 00d2 0123     		movs	r3, #1
 1627 00d4 C381     		strh	r3, [r0, #14]	@ movhi
 1628              		.loc 1 1303 0
 1629 00d6 B1E7     		b	.L195
 1630              	.L188:
 1631              		.loc 1 1305 0 discriminator 1
 1632 00d8 074B     		ldr	r3, .L232+4
 1633 00da 0093     		str	r3, [sp]
 1634 00dc 0749     		ldr	r1, .L232+8
 1635 00de 084A     		ldr	r2, .L232+12
 1636 00e0 0848     		ldr	r0, .L232+16
 1637              	.LVL235:
 1638 00e2 40F21953 		movw	r3, #1305
 1639 00e6 FFF7FEFF 		bl	chprintf.constprop.1
 1640              	.LVL236:
 1641              	.LBB113:
 1642              	.LBB114:
 1643              		.loc 3 414 0 discriminator 1
 1644 00ea 0548     		ldr	r0, .L232+12
ARM GAS  C:\Users\jo\AppData\Local\Temp\ccpKXchH.s 			page 30


 1645 00ec FFF7FEFF 		bl	chSysHalt
 1646              	.LVL237:
 1647 00f0 A4E7     		b	.L195
 1648              	.LVL238:
 1649              	.L230:
 1650              		.cfi_def_cfa_offset 0
 1651              		.cfi_restore 4
 1652              		.cfi_restore 5
 1653              		.cfi_restore 6
 1654              		.cfi_restore 7
 1655              		.cfi_restore 8
 1656              		.cfi_restore 9
 1657              		.cfi_restore 10
 1658              		.cfi_restore 14
 1659 00f2 7047     		bx	lr
 1660              	.L233:
 1661              		.align	2
 1662              	.L232:
 1663 00f4 00000000 		.word	.LANCHOR3
 1664 00f8 3C000000 		.word	.LC4
 1665 00fc 08000000 		.word	.LC2
 1666 0100 04040000 		.word	.LC25
 1667 0104 00000000 		.word	itm_port
 1668 0108 00000000 		.word	.LANCHOR2
 1669              	.LBE114:
 1670              	.LBE113:
 1671              		.cfi_endproc
 1672              	.LFE275:
 1673              		.size	event_callback, .-event_callback
 1674 010c AFF30080 		.section	.text.lwip_getaddrname,"ax",%progbits
 1675              		.align	2
 1676              		.p2align 4,,15
 1677              		.thumb
 1678              		.thumb_func
 1679              		.type	lwip_getaddrname, %function
 1680              	lwip_getaddrname:
 1681              	.LFB277:
 1682              		.loc 1 1409 0
 1683              		.cfi_startproc
 1684              		@ args = 0, pretend = 0, frame = 24
 1685              		@ frame_needed = 0, uses_anonymous_args = 0
 1686              	.LVL239:
 1687 0000 2DE9F043 		push	{r4, r5, r6, r7, r8, r9, lr}
 1688              		.cfi_def_cfa_offset 28
 1689              		.cfi_offset 4, -28
 1690              		.cfi_offset 5, -24
 1691              		.cfi_offset 6, -20
 1692              		.cfi_offset 7, -16
 1693              		.cfi_offset 8, -12
 1694              		.cfi_offset 9, -8
 1695              		.cfi_offset 14, -4
 1696 0004 89B0     		sub	sp, sp, #36
 1697              		.cfi_def_cfa_offset 64
 1698              		.loc 1 1409 0
 1699 0006 0F46     		mov	r7, r1
 1700 0008 1646     		mov	r6, r2
 1701 000a 9946     		mov	r9, r3
ARM GAS  C:\Users\jo\AppData\Local\Temp\ccpKXchH.s 			page 31


 1702 000c 8046     		mov	r8, r0
 1703              		.loc 1 1414 0
 1704 000e FFF7FEFF 		bl	get_socket
 1705              	.LVL240:
 1706              		.loc 1 1415 0
 1707 0012 0446     		mov	r4, r0
 1708 0014 0028     		cmp	r0, #0
 1709 0016 40D0     		beq	.L237
 1710              		.loc 1 1419 0
 1711 0018 0022     		movs	r2, #0
 1712              		.loc 1 1420 0
 1713 001a 1025     		movs	r5, #16
 1714              		.loc 1 1421 0
 1715 001c 0223     		movs	r3, #2
 1716              		.loc 1 1419 0
 1717 001e 0492     		str	r2, [sp, #16]
 1718 0020 0592     		str	r2, [sp, #20]
 1719 0022 0692     		str	r2, [sp, #24]
 1720 0024 0792     		str	r2, [sp, #28]
 1721              		.loc 1 1421 0
 1722 0026 8DF81130 		strb	r3, [sp, #17]
 1723              		.loc 1 1420 0
 1724 002a 8DF81050 		strb	r5, [sp, #16]
 1725              		.loc 1 1424 0
 1726 002e 4B46     		mov	r3, r9
 1727 0030 03A9     		add	r1, sp, #12
 1728 0032 0DF11202 		add	r2, sp, #18
 1729 0036 0068     		ldr	r0, [r0]
 1730              	.LVL241:
 1731 0038 FFF7FEFF 		bl	netconn_getaddr
 1732              	.LVL242:
 1733              		.loc 1 1426 0
 1734 003c 4246     		mov	r2, r8
 1735 003e 1849     		ldr	r1, .L239
 1736 0040 1848     		ldr	r0, .L239+4
 1737 0042 FFF7FEFF 		bl	chprintf.constprop.1
 1738              	.LVL243:
 1739              		.loc 1 1427 0
 1740 0046 9DF80E00 		ldrb	r0, [sp, #14]	@ zero_extendqisi2
 1741 004a 9DF80F10 		ldrb	r1, [sp, #15]	@ zero_extendqisi2
 1742 004e 9DF80D30 		ldrb	r3, [sp, #13]	@ zero_extendqisi2
 1743 0052 9DF80C20 		ldrb	r2, [sp, #12]	@ zero_extendqisi2
 1744 0056 8DE80300 		stmia	sp, {r0, r1}
 1745 005a 1349     		ldr	r1, .L239+8
 1746 005c 1148     		ldr	r0, .L239+4
 1747 005e FFF7FEFF 		bl	chprintf.constprop.1
 1748              	.LVL244:
 1749              		.loc 1 1428 0
 1750 0062 1249     		ldr	r1, .L239+12
 1751 0064 BDF81220 		ldrh	r2, [sp, #18]
 1752 0068 0E48     		ldr	r0, .L239+4
 1753 006a FFF7FEFF 		bl	chprintf.constprop.1
 1754              	.LVL245:
 1755              		.loc 1 1430 0
 1756 006e BDF81200 		ldrh	r0, [sp, #18]
 1757 0072 FFF7FEFF 		bl	lwip_htons
 1758              	.LVL246:
ARM GAS  C:\Users\jo\AppData\Local\Temp\ccpKXchH.s 			page 32


 1759              		.loc 1 1433 0
 1760 0076 3268     		ldr	r2, [r6]
 1761              		.loc 1 1431 0
 1762 0078 039B     		ldr	r3, [sp, #12]
 1763              		.loc 1 1430 0
 1764 007a ADF81200 		strh	r0, [sp, #18]	@ movhi
 1765              		.loc 1 1433 0
 1766 007e AA42     		cmp	r2, r5
 1767              		.loc 1 1434 0
 1768 0080 84BF     		itt	hi
 1769 0082 3560     		strhi	r5, [r6]
 1770 0084 2A46     		movhi	r2, r5
 1771              		.loc 1 1437 0
 1772 0086 3846     		mov	r0, r7
 1773 0088 04A9     		add	r1, sp, #16
 1774              		.loc 1 1431 0
 1775 008a 0593     		str	r3, [sp, #20]
 1776              		.loc 1 1437 0
 1777 008c FFF7FEFF 		bl	memcpy
 1778              	.LVL247:
 1779              		.loc 1 1438 0
 1780 0090 0020     		movs	r0, #0
 1781 0092 2061     		str	r0, [r4, #16]
 1782              	.L235:
 1783              		.loc 1 1440 0
 1784 0094 09B0     		add	sp, sp, #36
 1785              		.cfi_remember_state
 1786              		.cfi_def_cfa_offset 28
 1787              		@ sp needed
 1788 0096 BDE8F083 		pop	{r4, r5, r6, r7, r8, r9, pc}
 1789              	.LVL248:
 1790              	.L237:
 1791              		.cfi_restore_state
 1792              		.loc 1 1416 0
 1793 009a 4FF0FF30 		mov	r0, #-1
 1794              	.LVL249:
 1795 009e F9E7     		b	.L235
 1796              	.L240:
 1797              		.align	2
 1798              	.L239:
 1799 00a0 14040000 		.word	.LC26
 1800 00a4 00000000 		.word	itm_port
 1801 00a8 30040000 		.word	.LC27
 1802 00ac 3C040000 		.word	.LC28
 1803              		.cfi_endproc
 1804              	.LFE277:
 1805              		.size	lwip_getaddrname, .-lwip_getaddrname
 1806              		.section	.text.lwip_socket_init,"ax",%progbits
 1807              		.align	2
 1808              		.p2align 4,,15
 1809              		.global	lwip_socket_init
 1810              		.thumb
 1811              		.thumb_func
 1812              		.type	lwip_socket_init, %function
 1813              	lwip_socket_init:
 1814              	.LFB256:
 1815              		.loc 1 185 0
ARM GAS  C:\Users\jo\AppData\Local\Temp\ccpKXchH.s 			page 33


 1816              		.cfi_startproc
 1817              		@ args = 0, pretend = 0, frame = 0
 1818              		@ frame_needed = 0, uses_anonymous_args = 0
 1819              		@ link register save eliminated.
 1820 0000 7047     		bx	lr
 1821              		.cfi_endproc
 1822              	.LFE256:
 1823              		.size	lwip_socket_init, .-lwip_socket_init
 1824 0002 00BFAFF3 		.section	.text.lwip_accept,"ax",%progbits
 1824      0080AFF3 
 1824      0080AFF3 
 1824      0080
 1825              		.align	2
 1826              		.p2align 4,,15
 1827              		.global	lwip_accept
 1828              		.thumb
 1829              		.thumb_func
 1830              		.type	lwip_accept, %function
 1831              	lwip_accept:
 1832              	.LFB261:
 1833              		.loc 1 313 0
 1834              		.cfi_startproc
 1835              		@ args = 0, pretend = 0, frame = 32
 1836              		@ frame_needed = 0, uses_anonymous_args = 0
 1837              	.LVL250:
 1838              		.loc 1 313 0
 1839 0000 2DE9F041 		push	{r4, r5, r6, r7, r8, lr}
 1840              		.cfi_def_cfa_offset 24
 1841              		.cfi_offset 4, -24
 1842              		.cfi_offset 5, -20
 1843              		.cfi_offset 6, -16
 1844              		.cfi_offset 7, -12
 1845              		.cfi_offset 8, -8
 1846              		.cfi_offset 14, -4
 1847 0004 0746     		mov	r7, r0
 1848 0006 8AB0     		sub	sp, sp, #40
 1849              		.cfi_def_cfa_offset 64
 1850              		.loc 1 313 0
 1851 0008 0E46     		mov	r6, r1
 1852 000a 1446     		mov	r4, r2
 1853              		.loc 1 323 0
 1854 000c 7E49     		ldr	r1, .L276
 1855              	.LVL251:
 1856 000e 7F48     		ldr	r0, .L276+4
 1857              	.LVL252:
 1858 0010 3A46     		mov	r2, r7
 1859              	.LVL253:
 1860 0012 FFF7FEFF 		bl	chprintf.constprop.1
 1861              	.LVL254:
 1862              		.loc 1 324 0
 1863 0016 3846     		mov	r0, r7
 1864 0018 FFF7FEFF 		bl	get_socket
 1865              	.LVL255:
 1866              		.loc 1 325 0
 1867 001c 0546     		mov	r5, r0
 1868 001e 0028     		cmp	r0, #0
 1869 0020 00F0DD80 		beq	.L257
ARM GAS  C:\Users\jo\AppData\Local\Temp\ccpKXchH.s 			page 34


 1870              		.loc 1 329 0
 1871 0024 0068     		ldr	r0, [r0]
 1872              	.LVL256:
 1873 0026 037F     		ldrb	r3, [r0, #28]	@ zero_extendqisi2
 1874 0028 9A07     		lsls	r2, r3, #30
 1875 002a 04D5     		bpl	.L244
 1876              		.loc 1 329 0 is_stmt 0 discriminator 1
 1877 002c B5F90A30 		ldrsh	r3, [r5, #10]
 1878 0030 002B     		cmp	r3, #0
 1879 0032 40F3DE80 		ble	.L270
 1880              	.L244:
 1881              		.loc 1 336 0 is_stmt 1
 1882 0036 04A9     		add	r1, sp, #16
 1883 0038 FFF7FEFF 		bl	netconn_accept
 1884              	.LVL257:
 1885              		.loc 1 337 0
 1886 003c 8046     		mov	r8, r0
 1887 003e 0028     		cmp	r0, #0
 1888 0040 40F08C80 		bne	.L271
 1889              		.loc 1 346 0
 1890 0044 0498     		ldr	r0, [sp, #16]
 1891              	.LVL258:
 1892 0046 0028     		cmp	r0, #0
 1893 0048 00F09880 		beq	.L272
 1894              	.L248:
 1895              		.loc 1 348 0 discriminator 1
 1896 004c 037F     		ldrb	r3, [r0, #28]	@ zero_extendqisi2
 1897 004e 43F00803 		orr	r3, r3, #8
 1898 0052 0377     		strb	r3, [r0, #28]
 1899              		.loc 1 351 0 discriminator 1
 1900 0054 05A9     		add	r1, sp, #20
 1901 0056 0DF10E02 		add	r2, sp, #14
 1902 005a 0023     		movs	r3, #0
 1903 005c FFF7FEFF 		bl	netconn_getaddr
 1904              	.LVL259:
 1905              		.loc 1 352 0 discriminator 1
 1906 0060 8046     		mov	r8, r0
 1907 0062 0028     		cmp	r0, #0
 1908 0064 40F0A580 		bne	.L273
 1909              		.loc 1 362 0
 1910 0068 06B3     		cbz	r6, .L251
 1911              		.loc 1 363 0
 1912 006a 002C     		cmp	r4, #0
 1913 006c 00F09480 		beq	.L274
 1914              	.LVL260:
 1915              	.L252:
 1916              		.loc 1 364 0
 1917 0070 0023     		movs	r3, #0
 1918              		.loc 1 365 0
 1919 0072 4FF01008 		mov	r8, #16
 1920              		.loc 1 366 0
 1921 0076 0222     		movs	r2, #2
 1922              		.loc 1 367 0
 1923 0078 BDF80E00 		ldrh	r0, [sp, #14]
 1924              		.loc 1 364 0
 1925 007c 0693     		str	r3, [sp, #24]
 1926 007e 0793     		str	r3, [sp, #28]
ARM GAS  C:\Users\jo\AppData\Local\Temp\ccpKXchH.s 			page 35


 1927 0080 0893     		str	r3, [sp, #32]
 1928 0082 0993     		str	r3, [sp, #36]
 1929              		.loc 1 366 0
 1930 0084 8DF81920 		strb	r2, [sp, #25]
 1931              		.loc 1 365 0
 1932 0088 8DF81880 		strb	r8, [sp, #24]
 1933              		.loc 1 367 0
 1934 008c FFF7FEFF 		bl	lwip_htons
 1935              	.LVL261:
 1936              		.loc 1 370 0
 1937 0090 2268     		ldr	r2, [r4]
 1938              		.loc 1 368 0
 1939 0092 059B     		ldr	r3, [sp, #20]
 1940              		.loc 1 367 0
 1941 0094 ADF81A00 		strh	r0, [sp, #26]	@ movhi
 1942              		.loc 1 370 0
 1943 0098 4245     		cmp	r2, r8
 1944              		.loc 1 371 0
 1945 009a 84BF     		itt	hi
 1946 009c C4F80080 		strhi	r8, [r4]
 1947 00a0 4246     		movhi	r2, r8
 1948              		.loc 1 373 0
 1949 00a2 3046     		mov	r0, r6
 1950 00a4 06A9     		add	r1, sp, #24
 1951              		.loc 1 368 0
 1952 00a6 0793     		str	r3, [sp, #28]
 1953              		.loc 1 373 0
 1954 00a8 FFF7FEFF 		bl	memcpy
 1955              	.LVL262:
 1956              	.L251:
 1957              		.loc 1 376 0
 1958 00ac 0498     		ldr	r0, [sp, #16]
 1959 00ae 0121     		movs	r1, #1
 1960 00b0 FFF7FEFF 		bl	alloc_socket
 1961              	.LVL263:
 1962              		.loc 1 377 0
 1963 00b4 431C     		adds	r3, r0, #1
 1964              		.loc 1 376 0
 1965 00b6 0446     		mov	r4, r0
 1966              	.LVL264:
 1967              		.loc 1 377 0
 1968 00b8 00F09480 		beq	.L275
 1969              		.loc 1 382 0
 1970 00bc 0128     		cmp	r0, #1
 1971 00be 0BD9     		bls	.L255
 1972              		.loc 1 382 0 is_stmt 0 discriminator 1
 1973 00c0 534B     		ldr	r3, .L276+8
 1974 00c2 0093     		str	r3, [sp]
 1975 00c4 5148     		ldr	r0, .L276+4
 1976              	.LVL265:
 1977 00c6 5349     		ldr	r1, .L276+12
 1978 00c8 534A     		ldr	r2, .L276+16
 1979 00ca 4FF4BF73 		mov	r3, #382
 1980 00ce FFF7FEFF 		bl	chprintf.constprop.1
 1981              	.LVL266:
 1982              	.LBB115:
 1983              	.LBB116:
ARM GAS  C:\Users\jo\AppData\Local\Temp\ccpKXchH.s 			page 36


 1984              		.loc 3 414 0 is_stmt 1 discriminator 1
 1985 00d2 5148     		ldr	r0, .L276+16
 1986 00d4 FFF7FEFF 		bl	chSysHalt
 1987              	.LVL267:
 1988              	.L255:
 1989              	.LBE116:
 1990              	.LBE115:
 1991              		.loc 1 383 0
 1992 00d8 DDF810E0 		ldr	lr, [sp, #16]
 1993 00dc 4F4B     		ldr	r3, .L276+20
 1994 00de DEF82820 		ldr	r2, [lr, #40]
 1995 00e2 9A42     		cmp	r2, r3
 1996 00e4 0DD0     		beq	.L256
 1997              		.loc 1 383 0 is_stmt 0 discriminator 1
 1998 00e6 4A4B     		ldr	r3, .L276+8
 1999 00e8 0093     		str	r3, [sp]
 2000 00ea 4A49     		ldr	r1, .L276+12
 2001 00ec 4C4A     		ldr	r2, .L276+24
 2002 00ee 4748     		ldr	r0, .L276+4
 2003 00f0 40F27F13 		movw	r3, #383
 2004 00f4 FFF7FEFF 		bl	chprintf.constprop.1
 2005              	.LVL268:
 2006              	.LBB117:
 2007              	.LBB118:
 2008              		.loc 3 414 0 is_stmt 1 discriminator 1
 2009 00f8 4948     		ldr	r0, .L276+24
 2010 00fa FFF7FEFF 		bl	chSysHalt
 2011              	.LVL269:
 2012 00fe DDF810E0 		ldr	lr, [sp, #16]
 2013              	.LVL270:
 2014              	.L256:
 2015              	.LBE118:
 2016              	.LBE117:
 2017              		.loc 1 392 0
 2018 0102 484B     		ldr	r3, .L276+28
 2019 0104 DEF81860 		ldr	r6, [lr, #24]
 2020              	.LVL271:
 2021              		.loc 1 396 0
 2022 0108 4749     		ldr	r1, .L276+32
 2023 010a 4048     		ldr	r0, .L276+4
 2024              		.loc 1 392 0
 2025 010c 04EB4402 		add	r2, r4, r4, lsl #1
 2026 0110 03EBC203 		add	r3, r3, r2, lsl #3
 2027              		.loc 1 396 0
 2028 0114 3A46     		mov	r2, r7
 2029 0116 5F89     		ldrh	r7, [r3, #10]
 2030              	.LVL272:
 2031 0118 013F     		subs	r7, r7, #1
 2032              		.loc 1 392 0
 2033 011a BE1B     		subs	r6, r7, r6
 2034 011c 5E81     		strh	r6, [r3, #10]	@ movhi
 2035              		.loc 1 393 0
 2036 011e CEF81840 		str	r4, [lr, #24]
 2037              		.loc 1 396 0
 2038 0122 2346     		mov	r3, r4
 2039 0124 FFF7FEFF 		bl	chprintf.constprop.1
 2040              	.LVL273:
ARM GAS  C:\Users\jo\AppData\Local\Temp\ccpKXchH.s 			page 37


 2041              		.loc 1 397 0
 2042 0128 9DF81600 		ldrb	r0, [sp, #22]	@ zero_extendqisi2
 2043 012c 9DF81710 		ldrb	r1, [sp, #23]	@ zero_extendqisi2
 2044 0130 9DF81530 		ldrb	r3, [sp, #21]	@ zero_extendqisi2
 2045 0134 9DF81420 		ldrb	r2, [sp, #20]	@ zero_extendqisi2
 2046 0138 8DE80300 		stmia	sp, {r0, r1}
 2047 013c 3B49     		ldr	r1, .L276+36
 2048 013e 3348     		ldr	r0, .L276+4
 2049 0140 FFF7FEFF 		bl	chprintf.constprop.1
 2050              	.LVL274:
 2051              		.loc 1 398 0
 2052 0144 3148     		ldr	r0, .L276+4
 2053 0146 3A49     		ldr	r1, .L276+40
 2054 0148 BDF80E20 		ldrh	r2, [sp, #14]
 2055 014c FFF7FEFF 		bl	chprintf.constprop.1
 2056              	.LVL275:
 2057              		.loc 1 400 0
 2058 0150 0023     		movs	r3, #0
 2059              		.loc 1 401 0
 2060 0152 2046     		mov	r0, r4
 2061              		.loc 1 400 0
 2062 0154 2B61     		str	r3, [r5, #16]
 2063              	.LVL276:
 2064              	.L243:
 2065              		.loc 1 402 0
 2066 0156 0AB0     		add	sp, sp, #40
 2067              		.cfi_remember_state
 2068              		.cfi_def_cfa_offset 24
 2069              		@ sp needed
 2070 0158 BDE8F081 		pop	{r4, r5, r6, r7, r8, pc}
 2071              	.LVL277:
 2072              	.L271:
 2073              		.cfi_restore_state
 2074              		.loc 1 338 0 discriminator 1
 2075 015c 4346     		mov	r3, r8
 2076 015e 3A46     		mov	r2, r7
 2077 0160 2A48     		ldr	r0, .L276+4
 2078              	.LVL278:
 2079 0162 3449     		ldr	r1, .L276+44
 2080 0164 FFF7FEFF 		bl	chprintf.constprop.1
 2081              	.LVL279:
 2082              		.loc 1 339 0 discriminator 1
 2083 0168 2B68     		ldr	r3, [r5]
 2084 016a 1B78     		ldrb	r3, [r3]	@ zero_extendqisi2
 2085 016c 102B     		cmp	r3, #16
 2086 016e 29D0     		beq	.L269
 2087              		.loc 1 340 0
 2088 0170 5F24     		movs	r4, #95
 2089              	.LVL280:
 2090              		.loc 1 341 0
 2091 0172 2046     		mov	r0, r4
 2092              		.loc 1 340 0
 2093 0174 2C61     		str	r4, [r5, #16]
 2094              		.loc 1 402 0
 2095 0176 0AB0     		add	sp, sp, #40
 2096              		.cfi_remember_state
 2097              		.cfi_def_cfa_offset 24
ARM GAS  C:\Users\jo\AppData\Local\Temp\ccpKXchH.s 			page 38


 2098              		@ sp needed
 2099 0178 BDE8F081 		pop	{r4, r5, r6, r7, r8, pc}
 2100              	.LVL281:
 2101              	.L272:
 2102              		.cfi_restore_state
 2103              		.loc 1 346 0 discriminator 1
 2104 017c 244B     		ldr	r3, .L276+8
 2105 017e 0093     		str	r3, [sp]
 2106 0180 2449     		ldr	r1, .L276+12
 2107 0182 2D4A     		ldr	r2, .L276+48
 2108 0184 2148     		ldr	r0, .L276+4
 2109 0186 4FF4AD73 		mov	r3, #346
 2110 018a FFF7FEFF 		bl	chprintf.constprop.1
 2111              	.LVL282:
 2112              	.LBB119:
 2113              	.LBB120:
 2114              		.loc 3 414 0 discriminator 1
 2115 018e 2A48     		ldr	r0, .L276+48
 2116 0190 FFF7FEFF 		bl	chSysHalt
 2117              	.LVL283:
 2118 0194 0498     		ldr	r0, [sp, #16]
 2119 0196 59E7     		b	.L248
 2120              	.LVL284:
 2121              	.L274:
 2122              	.LBE120:
 2123              	.LBE119:
 2124              		.loc 1 363 0 discriminator 1
 2125 0198 1D4B     		ldr	r3, .L276+8
 2126 019a 0093     		str	r3, [sp]
 2127 019c 1D49     		ldr	r1, .L276+12
 2128 019e 274A     		ldr	r2, .L276+52
 2129 01a0 1A48     		ldr	r0, .L276+4
 2130              	.LVL285:
 2131 01a2 40F26B13 		movw	r3, #363
 2132 01a6 FFF7FEFF 		bl	chprintf.constprop.1
 2133              	.LVL286:
 2134              	.LBB121:
 2135              	.LBB122:
 2136              		.loc 3 414 0 discriminator 1
 2137 01aa 2448     		ldr	r0, .L276+52
 2138 01ac FFF7FEFF 		bl	chSysHalt
 2139              	.LVL287:
 2140 01b0 5EE7     		b	.L252
 2141              	.LVL288:
 2142              	.L273:
 2143              	.LBE122:
 2144              	.LBE121:
 2145              		.loc 1 353 0 discriminator 1
 2146 01b2 3A46     		mov	r2, r7
 2147 01b4 1548     		ldr	r0, .L276+4
 2148              	.LVL289:
 2149 01b6 2249     		ldr	r1, .L276+56
 2150 01b8 4346     		mov	r3, r8
 2151 01ba FFF7FEFF 		bl	chprintf.constprop.1
 2152              	.LVL290:
 2153              		.loc 1 354 0 discriminator 1
 2154 01be 0498     		ldr	r0, [sp, #16]
ARM GAS  C:\Users\jo\AppData\Local\Temp\ccpKXchH.s 			page 39


 2155 01c0 FFF7FEFF 		bl	netconn_delete
 2156              	.LVL291:
 2157              	.L269:
 2158              		.loc 1 355 0 discriminator 1
 2159 01c4 C8F10008 		rsb	r8, r8, #0
 2160 01c8 B8F10F0F 		cmp	r8, #15
 2161 01cc 96BF     		itet	ls
 2162 01ce 1D4B     		ldrls	r3, .L276+60
 2163 01d0 0523     		movhi	r3, #5
 2164 01d2 53F82830 		ldrls	r3, [r3, r8, lsl #2]
 2165 01d6 2B61     		str	r3, [r5, #16]
 2166              		.loc 1 356 0 discriminator 1
 2167 01d8 4FF0FF30 		mov	r0, #-1
 2168 01dc BBE7     		b	.L243
 2169              	.LVL292:
 2170              	.L257:
 2171              		.loc 1 326 0
 2172 01de 4FF0FF30 		mov	r0, #-1
 2173              	.LVL293:
 2174 01e2 B8E7     		b	.L243
 2175              	.LVL294:
 2176              	.L275:
 2177              		.loc 1 378 0
 2178 01e4 0498     		ldr	r0, [sp, #16]
 2179              	.LVL295:
 2180 01e6 FFF7FEFF 		bl	netconn_delete
 2181              	.LVL296:
 2182              		.loc 1 379 0
 2183 01ea 1723     		movs	r3, #23
 2184              		.loc 1 380 0
 2185 01ec 2046     		mov	r0, r4
 2186              		.loc 1 379 0
 2187 01ee 2B61     		str	r3, [r5, #16]
 2188              		.loc 1 380 0
 2189 01f0 B1E7     		b	.L243
 2190              	.LVL297:
 2191              	.L270:
 2192              		.loc 1 330 0 discriminator 1
 2193 01f2 3A46     		mov	r2, r7
 2194 01f4 0548     		ldr	r0, .L276+4
 2195 01f6 1449     		ldr	r1, .L276+64
 2196 01f8 FFF7FEFF 		bl	chprintf.constprop.1
 2197              	.LVL298:
 2198              		.loc 1 331 0 discriminator 1
 2199 01fc 0B23     		movs	r3, #11
 2200 01fe 2B61     		str	r3, [r5, #16]
 2201              		.loc 1 332 0 discriminator 1
 2202 0200 4FF0FF30 		mov	r0, #-1
 2203 0204 A7E7     		b	.L243
 2204              	.L277:
 2205 0206 00BF     		.align	2
 2206              	.L276:
 2207 0208 48040000 		.word	.LC29
 2208 020c 00000000 		.word	itm_port
 2209 0210 3C000000 		.word	.LC4
 2210 0214 08000000 		.word	.LC2
 2211 0218 10050000 		.word	.LC35
ARM GAS  C:\Users\jo\AppData\Local\Temp\ccpKXchH.s 			page 40


 2212 021c 00000000 		.word	event_callback
 2213 0220 28050000 		.word	.LC36
 2214 0224 00000000 		.word	.LANCHOR0
 2215 0228 4C050000 		.word	.LC37
 2216 022c 30040000 		.word	.LC27
 2217 0230 78050000 		.word	.LC38
 2218 0234 84040000 		.word	.LC31
 2219 0238 B4040000 		.word	.LC32
 2220 023c F4040000 		.word	.LC34
 2221 0240 C4040000 		.word	.LC33
 2222 0244 00000000 		.word	.LANCHOR1
 2223 0248 5C040000 		.word	.LC30
 2224              		.cfi_endproc
 2225              	.LFE261:
 2226              		.size	lwip_accept, .-lwip_accept
 2227 024c AFF30080 		.section	.text.lwip_bind,"ax",%progbits
 2228              		.align	2
 2229              		.p2align 4,,15
 2230              		.global	lwip_bind
 2231              		.thumb
 2232              		.thumb_func
 2233              		.type	lwip_bind, %function
 2234              	lwip_bind:
 2235              	.LFB262:
 2236              		.loc 1 406 0
 2237              		.cfi_startproc
 2238              		@ args = 0, pretend = 0, frame = 8
 2239              		@ frame_needed = 0, uses_anonymous_args = 0
 2240              	.LVL299:
 2241 0000 F0B5     		push	{r4, r5, r6, r7, lr}
 2242              		.cfi_def_cfa_offset 20
 2243              		.cfi_offset 4, -20
 2244              		.cfi_offset 5, -16
 2245              		.cfi_offset 6, -12
 2246              		.cfi_offset 7, -8
 2247              		.cfi_offset 14, -4
 2248 0002 85B0     		sub	sp, sp, #20
 2249              		.cfi_def_cfa_offset 40
 2250              		.loc 1 406 0
 2251 0004 0C46     		mov	r4, r1
 2252 0006 1746     		mov	r7, r2
 2253 0008 0646     		mov	r6, r0
 2254              		.loc 1 413 0
 2255 000a FFF7FEFF 		bl	get_socket
 2256              	.LVL300:
 2257              		.loc 1 414 0
 2258 000e 0546     		mov	r5, r0
 2259 0010 0028     		cmp	r0, #0
 2260 0012 59D0     		beq	.L284
 2261              		.loc 1 419 0
 2262 0014 102F     		cmp	r7, #16
 2263 0016 36D1     		bne	.L280
 2264              		.loc 1 419 0 is_stmt 0 discriminator 2
 2265 0018 6378     		ldrb	r3, [r4, #1]	@ zero_extendqisi2
 2266 001a 022B     		cmp	r3, #2
 2267 001c 33D1     		bne	.L280
 2268              		.loc 1 419 0 discriminator 4
ARM GAS  C:\Users\jo\AppData\Local\Temp\ccpKXchH.s 			page 41


 2269 001e A307     		lsls	r3, r4, #30
 2270 0020 31D1     		bne	.L280
 2271              	.LVL301:
 2272              		.loc 1 424 0 is_stmt 1
 2273 0022 6368     		ldr	r3, [r4, #4]
 2274              		.loc 1 427 0
 2275 0024 2A49     		ldr	r1, .L288
 2276 0026 2B48     		ldr	r0, .L288+4
 2277              	.LVL302:
 2278              		.loc 1 425 0
 2279 0028 6488     		ldrh	r4, [r4, #2]
 2280              	.LVL303:
 2281              		.loc 1 424 0
 2282 002a 0393     		str	r3, [sp, #12]
 2283              		.loc 1 427 0
 2284 002c 3246     		mov	r2, r6
 2285 002e FFF7FEFF 		bl	chprintf.constprop.1
 2286              	.LVL304:
 2287              		.loc 1 428 0
 2288 0032 9DF80E00 		ldrb	r0, [sp, #14]	@ zero_extendqisi2
 2289 0036 9DF80F10 		ldrb	r1, [sp, #15]	@ zero_extendqisi2
 2290 003a 9DF80D30 		ldrb	r3, [sp, #13]	@ zero_extendqisi2
 2291 003e 9DF80C20 		ldrb	r2, [sp, #12]	@ zero_extendqisi2
 2292 0042 8DE80300 		stmia	sp, {r0, r1}
 2293 0046 2449     		ldr	r1, .L288+8
 2294 0048 2248     		ldr	r0, .L288+4
 2295 004a FFF7FEFF 		bl	chprintf.constprop.1
 2296              	.LVL305:
 2297              		.loc 1 429 0
 2298 004e 2046     		mov	r0, r4
 2299 0050 FFF7FEFF 		bl	lwip_ntohs
 2300              	.LVL306:
 2301 0054 2149     		ldr	r1, .L288+12
 2302 0056 0246     		mov	r2, r0
 2303 0058 1E48     		ldr	r0, .L288+4
 2304 005a FFF7FEFF 		bl	chprintf.constprop.1
 2305              	.LVL307:
 2306              		.loc 1 431 0
 2307 005e 2046     		mov	r0, r4
 2308 0060 2C68     		ldr	r4, [r5]
 2309              	.LVL308:
 2310 0062 FFF7FEFF 		bl	lwip_ntohs
 2311              	.LVL309:
 2312 0066 03A9     		add	r1, sp, #12
 2313 0068 0246     		mov	r2, r0
 2314 006a 2046     		mov	r0, r4
 2315 006c FFF7FEFF 		bl	netconn_bind
 2316              	.LVL310:
 2317              		.loc 1 433 0
 2318 0070 0446     		mov	r4, r0
 2319              		.loc 1 434 0
 2320 0072 3246     		mov	r2, r6
 2321 0074 1748     		ldr	r0, .L288+4
 2322              	.LVL311:
 2323              		.loc 1 433 0
 2324 0076 C4B9     		cbnz	r4, .L287
 2325              		.loc 1 439 0 discriminator 1
ARM GAS  C:\Users\jo\AppData\Local\Temp\ccpKXchH.s 			page 42


 2326 0078 1949     		ldr	r1, .L288+16
 2327 007a FFF7FEFF 		bl	chprintf.constprop.1
 2328              	.LVL312:
 2329              		.loc 1 440 0 discriminator 1
 2330 007e 2C61     		str	r4, [r5, #16]
 2331              		.loc 1 441 0 discriminator 1
 2332 0080 2046     		mov	r0, r4
 2333              	.LVL313:
 2334              	.L279:
 2335              		.loc 1 442 0
 2336 0082 05B0     		add	sp, sp, #20
 2337              		.cfi_remember_state
 2338              		.cfi_def_cfa_offset 20
 2339              		@ sp needed
 2340 0084 F0BD     		pop	{r4, r5, r6, r7, pc}
 2341              	.LVL314:
 2342              	.L280:
 2343              		.cfi_restore_state
 2344              		.loc 1 419 0 discriminator 5
 2345 0086 174B     		ldr	r3, .L288+20
 2346 0088 0093     		str	r3, [sp]
 2347 008a 1749     		ldr	r1, .L288+24
 2348 008c 174A     		ldr	r2, .L288+28
 2349 008e 1148     		ldr	r0, .L288+4
 2350              	.LVL315:
 2351 0090 40F2A513 		movw	r3, #421
 2352 0094 FFF7FEFF 		bl	chprintf.constprop.1
 2353              	.LVL316:
 2354              	.LBB123:
 2355              	.LBB124:
 2356              		.loc 3 414 0 discriminator 5
 2357 0098 1448     		ldr	r0, .L288+28
 2358 009a FFF7FEFF 		bl	chSysHalt
 2359              	.LVL317:
 2360              	.LBE124:
 2361              	.LBE123:
 2362              		.loc 1 419 0 discriminator 5
 2363 009e 0523     		movs	r3, #5
 2364 00a0 4FF0FF30 		mov	r0, #-1
 2365 00a4 2B61     		str	r3, [r5, #16]
 2366              		.loc 1 442 0 discriminator 5
 2367 00a6 05B0     		add	sp, sp, #20
 2368              		.cfi_remember_state
 2369              		.cfi_def_cfa_offset 20
 2370              		@ sp needed
 2371 00a8 F0BD     		pop	{r4, r5, r6, r7, pc}
 2372              	.LVL318:
 2373              	.L287:
 2374              		.cfi_restore_state
 2375              		.loc 1 434 0 discriminator 1
 2376 00aa 2346     		mov	r3, r4
 2377 00ac 1049     		ldr	r1, .L288+32
 2378              		.loc 1 435 0 discriminator 1
 2379 00ae 6442     		negs	r4, r4
 2380              		.loc 1 434 0 discriminator 1
 2381 00b0 FFF7FEFF 		bl	chprintf.constprop.1
 2382              	.LVL319:
ARM GAS  C:\Users\jo\AppData\Local\Temp\ccpKXchH.s 			page 43


 2383              		.loc 1 435 0 discriminator 1
 2384 00b4 0F2C     		cmp	r4, #15
 2385 00b6 96BF     		itet	ls
 2386 00b8 0E4B     		ldrls	r3, .L288+36
 2387 00ba 0523     		movhi	r3, #5
 2388 00bc 53F82430 		ldrls	r3, [r3, r4, lsl #2]
 2389 00c0 2B61     		str	r3, [r5, #16]
 2390              		.loc 1 436 0 discriminator 1
 2391 00c2 4FF0FF30 		mov	r0, #-1
 2392 00c6 DCE7     		b	.L279
 2393              	.LVL320:
 2394              	.L284:
 2395              		.loc 1 415 0
 2396 00c8 4FF0FF30 		mov	r0, #-1
 2397              	.LVL321:
 2398 00cc D9E7     		b	.L279
 2399              	.L289:
 2400 00ce 00BF     		.align	2
 2401              	.L288:
 2402 00d0 A0050000 		.word	.LC40
 2403 00d4 00000000 		.word	itm_port
 2404 00d8 30040000 		.word	.LC27
 2405 00dc 3C040000 		.word	.LC28
 2406 00e0 D4050000 		.word	.LC42
 2407 00e4 3C000000 		.word	.LC4
 2408 00e8 08000000 		.word	.LC2
 2409 00ec 84050000 		.word	.LC39
 2410 00f0 B4050000 		.word	.LC41
 2411 00f4 00000000 		.word	.LANCHOR1
 2412              		.cfi_endproc
 2413              	.LFE262:
 2414              		.size	lwip_bind, .-lwip_bind
 2415 00f8 AFF30080 		.section	.text.lwip_close,"ax",%progbits
 2415      AFF30080 
 2416              		.align	2
 2417              		.p2align 4,,15
 2418              		.global	lwip_close
 2419              		.thumb
 2420              		.thumb_func
 2421              		.type	lwip_close, %function
 2422              	lwip_close:
 2423              	.LFB263:
 2424              		.loc 1 446 0
 2425              		.cfi_startproc
 2426              		@ args = 0, pretend = 0, frame = 0
 2427              		@ frame_needed = 0, uses_anonymous_args = 0
 2428              	.LVL322:
 2429 0000 70B5     		push	{r4, r5, r6, lr}
 2430              		.cfi_def_cfa_offset 16
 2431              		.cfi_offset 4, -16
 2432              		.cfi_offset 5, -12
 2433              		.cfi_offset 6, -8
 2434              		.cfi_offset 14, -4
 2435              		.loc 1 450 0
 2436 0002 0246     		mov	r2, r0
 2437              		.loc 1 446 0
 2438 0004 0446     		mov	r4, r0
ARM GAS  C:\Users\jo\AppData\Local\Temp\ccpKXchH.s 			page 44


 2439 0006 82B0     		sub	sp, sp, #8
 2440              		.cfi_def_cfa_offset 24
 2441              		.loc 1 450 0
 2442 0008 2049     		ldr	r1, .L305
 2443 000a 2148     		ldr	r0, .L305+4
 2444              	.LVL323:
 2445 000c FFF7FEFF 		bl	chprintf.constprop.1
 2446              	.LVL324:
 2447              		.loc 1 452 0
 2448 0010 2046     		mov	r0, r4
 2449 0012 FFF7FEFF 		bl	get_socket
 2450              	.LVL325:
 2451              		.loc 1 453 0
 2452 0016 0446     		mov	r4, r0
 2453              	.LVL326:
 2454 0018 0028     		cmp	r0, #0
 2455 001a 33D0     		beq	.L297
 2456              		.loc 1 457 0
 2457 001c 0368     		ldr	r3, [r0]
 2458 001e B3B1     		cbz	r3, .L292
 2459              		.loc 1 463 0
 2460 0020 1846     		mov	r0, r3
 2461              	.LVL327:
 2462              		.loc 1 458 0
 2463 0022 1E78     		ldrb	r6, [r3]	@ zero_extendqisi2
 2464              	.LVL328:
 2465              		.loc 1 463 0
 2466 0024 FFF7FEFF 		bl	netconn_delete
 2467              	.LVL329:
 2468              	.LBB129:
 2469              	.LBB130:
 2470              		.loc 1 285 0
 2471 0028 6068     		ldr	r0, [r4, #4]
 2472              	.LVL330:
 2473              		.loc 1 286 0
 2474 002a 0025     		movs	r5, #0
 2475 002c 6560     		str	r5, [r4, #4]
 2476              		.loc 1 287 0
 2477 002e 2581     		strh	r5, [r4, #8]	@ movhi
 2478              		.loc 1 288 0
 2479 0030 2561     		str	r5, [r4, #16]
 2480              		.loc 1 292 0
 2481 0032 2560     		str	r5, [r4]
 2482              		.loc 1 296 0
 2483 0034 18B1     		cbz	r0, .L303
 2484              		.loc 1 297 0
 2485 0036 102E     		cmp	r6, #16
 2486 0038 04D0     		beq	.L304
 2487              	.LVL331:
 2488              	.L295:
 2489              		.loc 1 300 0
 2490 003a FFF7FEFF 		bl	netbuf_delete
 2491              	.LVL332:
 2492              	.L303:
 2493              	.LBE130:
 2494              	.LBE129:
 2495              		.loc 1 467 0
ARM GAS  C:\Users\jo\AppData\Local\Temp\ccpKXchH.s 			page 45


 2496 003e 0020     		movs	r0, #0
 2497              	.LVL333:
 2498              	.L301:
 2499              		.loc 1 468 0
 2500 0040 02B0     		add	sp, sp, #8
 2501              		.cfi_remember_state
 2502              		.cfi_def_cfa_offset 16
 2503              		@ sp needed
 2504 0042 70BD     		pop	{r4, r5, r6, pc}
 2505              	.LVL334:
 2506              	.L304:
 2507              		.cfi_restore_state
 2508              	.LBB133:
 2509              	.LBB131:
 2510              		.loc 1 298 0
 2511 0044 FFF7FEFF 		bl	pbuf_free
 2512              	.LVL335:
 2513              	.LBE131:
 2514              	.LBE133:
 2515              		.loc 1 467 0
 2516 0048 2846     		mov	r0, r5
 2517              		.loc 1 468 0
 2518 004a 02B0     		add	sp, sp, #8
 2519              		.cfi_remember_state
 2520              		.cfi_def_cfa_offset 16
 2521              		@ sp needed
 2522 004c 70BD     		pop	{r4, r5, r6, pc}
 2523              	.LVL336:
 2524              	.L292:
 2525              		.cfi_restore_state
 2526              		.loc 1 460 0
 2527 004e 4268     		ldr	r2, [r0, #4]
 2528 0050 62B1     		cbz	r2, .L294
 2529              		.loc 1 460 0 is_stmt 0 discriminator 1
 2530 0052 104B     		ldr	r3, .L305+8
 2531 0054 0093     		str	r3, [sp]
 2532 0056 1049     		ldr	r1, .L305+12
 2533 0058 104A     		ldr	r2, .L305+16
 2534 005a 0D48     		ldr	r0, .L305+4
 2535              	.LVL337:
 2536 005c 4FF4E673 		mov	r3, #460
 2537 0060 FFF7FEFF 		bl	chprintf.constprop.1
 2538              	.LVL338:
 2539              	.LBB134:
 2540              	.LBB135:
 2541              		.loc 3 414 0 is_stmt 1 discriminator 1
 2542 0064 0D48     		ldr	r0, .L305+16
 2543 0066 FFF7FEFF 		bl	chSysHalt
 2544              	.LVL339:
 2545 006a 2368     		ldr	r3, [r4]
 2546              	.LVL340:
 2547              	.L294:
 2548              	.LBE135:
 2549              	.LBE134:
 2550              		.loc 1 463 0
 2551 006c 1846     		mov	r0, r3
 2552 006e FFF7FEFF 		bl	netconn_delete
ARM GAS  C:\Users\jo\AppData\Local\Temp\ccpKXchH.s 			page 46


 2553              	.LVL341:
 2554              	.LBB136:
 2555              	.LBB132:
 2556              		.loc 1 285 0
 2557 0072 6068     		ldr	r0, [r4, #4]
 2558              	.LVL342:
 2559              		.loc 1 286 0
 2560 0074 0023     		movs	r3, #0
 2561 0076 6360     		str	r3, [r4, #4]
 2562              		.loc 1 287 0
 2563 0078 2381     		strh	r3, [r4, #8]	@ movhi
 2564              		.loc 1 288 0
 2565 007a 2361     		str	r3, [r4, #16]
 2566              		.loc 1 292 0
 2567 007c 2360     		str	r3, [r4]
 2568              		.loc 1 296 0
 2569 007e 0028     		cmp	r0, #0
 2570 0080 DBD1     		bne	.L295
 2571 0082 DCE7     		b	.L303
 2572              	.LVL343:
 2573              	.L297:
 2574              	.LBE132:
 2575              	.LBE136:
 2576              		.loc 1 454 0
 2577 0084 4FF0FF30 		mov	r0, #-1
 2578              	.LVL344:
 2579 0088 DAE7     		b	.L301
 2580              	.L306:
 2581 008a 00BF     		.align	2
 2582              	.L305:
 2583 008c F0050000 		.word	.LC43
 2584 0090 00000000 		.word	itm_port
 2585 0094 3C000000 		.word	.LC4
 2586 0098 08000000 		.word	.LC2
 2587 009c 00060000 		.word	.LC44
 2588              		.cfi_endproc
 2589              	.LFE263:
 2590              		.size	lwip_close, .-lwip_close
 2591              		.section	.text.lwip_connect,"ax",%progbits
 2592              		.align	2
 2593              		.p2align 4,,15
 2594              		.global	lwip_connect
 2595              		.thumb
 2596              		.thumb_func
 2597              		.type	lwip_connect, %function
 2598              	lwip_connect:
 2599              	.LFB264:
 2600              		.loc 1 472 0
 2601              		.cfi_startproc
 2602              		@ args = 0, pretend = 0, frame = 8
 2603              		@ frame_needed = 0, uses_anonymous_args = 0
 2604              	.LVL345:
 2605 0000 F0B5     		push	{r4, r5, r6, r7, lr}
 2606              		.cfi_def_cfa_offset 20
 2607              		.cfi_offset 4, -20
 2608              		.cfi_offset 5, -16
 2609              		.cfi_offset 6, -12
ARM GAS  C:\Users\jo\AppData\Local\Temp\ccpKXchH.s 			page 47


 2610              		.cfi_offset 7, -8
 2611              		.cfi_offset 14, -4
 2612 0002 85B0     		sub	sp, sp, #20
 2613              		.cfi_def_cfa_offset 40
 2614              		.loc 1 472 0
 2615 0004 0C46     		mov	r4, r1
 2616 0006 1746     		mov	r7, r2
 2617 0008 0646     		mov	r6, r0
 2618              		.loc 1 477 0
 2619 000a FFF7FEFF 		bl	get_socket
 2620              	.LVL346:
 2621              		.loc 1 478 0
 2622 000e 0546     		mov	r5, r0
 2623 0010 0028     		cmp	r0, #0
 2624 0012 59D0     		beq	.L313
 2625              		.loc 1 483 0
 2626 0014 102F     		cmp	r7, #16
 2627 0016 36D1     		bne	.L309
 2628              		.loc 1 483 0 is_stmt 0 discriminator 2
 2629 0018 6378     		ldrb	r3, [r4, #1]	@ zero_extendqisi2
 2630 001a 022B     		cmp	r3, #2
 2631 001c 33D1     		bne	.L309
 2632              		.loc 1 483 0 discriminator 4
 2633 001e A307     		lsls	r3, r4, #30
 2634 0020 31D1     		bne	.L309
 2635              	.LVL347:
 2636              	.LBB137:
 2637              		.loc 1 495 0 is_stmt 1
 2638 0022 6368     		ldr	r3, [r4, #4]
 2639              		.loc 1 498 0
 2640 0024 2A49     		ldr	r1, .L317
 2641 0026 2B48     		ldr	r0, .L317+4
 2642              	.LVL348:
 2643              		.loc 1 496 0
 2644 0028 6488     		ldrh	r4, [r4, #2]
 2645              	.LVL349:
 2646              		.loc 1 495 0
 2647 002a 0393     		str	r3, [sp, #12]
 2648              		.loc 1 498 0
 2649 002c 3246     		mov	r2, r6
 2650 002e FFF7FEFF 		bl	chprintf.constprop.1
 2651              	.LVL350:
 2652              		.loc 1 499 0
 2653 0032 9DF80E00 		ldrb	r0, [sp, #14]	@ zero_extendqisi2
 2654 0036 9DF80F10 		ldrb	r1, [sp, #15]	@ zero_extendqisi2
 2655 003a 9DF80D30 		ldrb	r3, [sp, #13]	@ zero_extendqisi2
 2656 003e 9DF80C20 		ldrb	r2, [sp, #12]	@ zero_extendqisi2
 2657 0042 8DE80300 		stmia	sp, {r0, r1}
 2658 0046 2449     		ldr	r1, .L317+8
 2659 0048 2248     		ldr	r0, .L317+4
 2660 004a FFF7FEFF 		bl	chprintf.constprop.1
 2661              	.LVL351:
 2662              		.loc 1 500 0
 2663 004e 2046     		mov	r0, r4
 2664 0050 FFF7FEFF 		bl	lwip_ntohs
 2665              	.LVL352:
 2666 0054 2149     		ldr	r1, .L317+12
ARM GAS  C:\Users\jo\AppData\Local\Temp\ccpKXchH.s 			page 48


 2667 0056 0246     		mov	r2, r0
 2668 0058 1E48     		ldr	r0, .L317+4
 2669 005a FFF7FEFF 		bl	chprintf.constprop.1
 2670              	.LVL353:
 2671              		.loc 1 502 0
 2672 005e 2046     		mov	r0, r4
 2673 0060 2C68     		ldr	r4, [r5]
 2674              	.LVL354:
 2675 0062 FFF7FEFF 		bl	lwip_ntohs
 2676              	.LVL355:
 2677 0066 03A9     		add	r1, sp, #12
 2678 0068 0246     		mov	r2, r0
 2679 006a 2046     		mov	r0, r4
 2680 006c FFF7FEFF 		bl	netconn_connect
 2681              	.LVL356:
 2682              	.LBE137:
 2683              		.loc 1 505 0
 2684 0070 0446     		mov	r4, r0
 2685              		.loc 1 506 0
 2686 0072 3246     		mov	r2, r6
 2687 0074 1748     		ldr	r0, .L317+4
 2688              	.LVL357:
 2689              		.loc 1 505 0
 2690 0076 C4B9     		cbnz	r4, .L316
 2691              		.loc 1 511 0 discriminator 1
 2692 0078 1949     		ldr	r1, .L317+16
 2693 007a FFF7FEFF 		bl	chprintf.constprop.1
 2694              	.LVL358:
 2695              		.loc 1 512 0 discriminator 1
 2696 007e 2C61     		str	r4, [r5, #16]
 2697              		.loc 1 513 0 discriminator 1
 2698 0080 2046     		mov	r0, r4
 2699              	.LVL359:
 2700              	.L308:
 2701              		.loc 1 514 0
 2702 0082 05B0     		add	sp, sp, #20
 2703              		.cfi_remember_state
 2704              		.cfi_def_cfa_offset 20
 2705              		@ sp needed
 2706 0084 F0BD     		pop	{r4, r5, r6, r7, pc}
 2707              	.LVL360:
 2708              	.L309:
 2709              		.cfi_restore_state
 2710              		.loc 1 483 0 discriminator 5
 2711 0086 174B     		ldr	r3, .L317+20
 2712 0088 0093     		str	r3, [sp]
 2713 008a 1749     		ldr	r1, .L317+24
 2714 008c 174A     		ldr	r2, .L317+28
 2715 008e 1148     		ldr	r0, .L317+4
 2716              	.LVL361:
 2717 0090 40F2E513 		movw	r3, #485
 2718 0094 FFF7FEFF 		bl	chprintf.constprop.1
 2719              	.LVL362:
 2720              	.LBB138:
 2721              	.LBB139:
 2722              		.loc 3 414 0 discriminator 5
 2723 0098 1448     		ldr	r0, .L317+28
ARM GAS  C:\Users\jo\AppData\Local\Temp\ccpKXchH.s 			page 49


 2724 009a FFF7FEFF 		bl	chSysHalt
 2725              	.LVL363:
 2726              	.LBE139:
 2727              	.LBE138:
 2728              		.loc 1 483 0 discriminator 5
 2729 009e 0523     		movs	r3, #5
 2730 00a0 4FF0FF30 		mov	r0, #-1
 2731 00a4 2B61     		str	r3, [r5, #16]
 2732              		.loc 1 514 0 discriminator 5
 2733 00a6 05B0     		add	sp, sp, #20
 2734              		.cfi_remember_state
 2735              		.cfi_def_cfa_offset 20
 2736              		@ sp needed
 2737 00a8 F0BD     		pop	{r4, r5, r6, r7, pc}
 2738              	.LVL364:
 2739              	.L316:
 2740              		.cfi_restore_state
 2741              		.loc 1 506 0 discriminator 1
 2742 00aa 2346     		mov	r3, r4
 2743 00ac 1049     		ldr	r1, .L317+32
 2744              		.loc 1 507 0 discriminator 1
 2745 00ae 6442     		negs	r4, r4
 2746              		.loc 1 506 0 discriminator 1
 2747 00b0 FFF7FEFF 		bl	chprintf.constprop.1
 2748              	.LVL365:
 2749              		.loc 1 507 0 discriminator 1
 2750 00b4 0F2C     		cmp	r4, #15
 2751 00b6 96BF     		itet	ls
 2752 00b8 0E4B     		ldrls	r3, .L317+36
 2753 00ba 0523     		movhi	r3, #5
 2754 00bc 53F82430 		ldrls	r3, [r3, r4, lsl #2]
 2755 00c0 2B61     		str	r3, [r5, #16]
 2756              		.loc 1 508 0 discriminator 1
 2757 00c2 4FF0FF30 		mov	r0, #-1
 2758 00c6 DCE7     		b	.L308
 2759              	.LVL366:
 2760              	.L313:
 2761              		.loc 1 479 0
 2762 00c8 4FF0FF30 		mov	r0, #-1
 2763              	.LVL367:
 2764 00cc D9E7     		b	.L308
 2765              	.L318:
 2766 00ce 00BF     		.align	2
 2767              	.L317:
 2768 00d0 38060000 		.word	.LC46
 2769 00d4 00000000 		.word	itm_port
 2770 00d8 30040000 		.word	.LC27
 2771 00dc 3C040000 		.word	.LC28
 2772 00e0 74060000 		.word	.LC48
 2773 00e4 3C000000 		.word	.LC4
 2774 00e8 08000000 		.word	.LC2
 2775 00ec 18060000 		.word	.LC45
 2776 00f0 50060000 		.word	.LC47
 2777 00f4 00000000 		.word	.LANCHOR1
 2778              		.cfi_endproc
 2779              	.LFE264:
 2780              		.size	lwip_connect, .-lwip_connect
ARM GAS  C:\Users\jo\AppData\Local\Temp\ccpKXchH.s 			page 50


 2781 00f8 AFF30080 		.section	.text.lwip_listen,"ax",%progbits
 2781      AFF30080 
 2782              		.align	2
 2783              		.p2align 4,,15
 2784              		.global	lwip_listen
 2785              		.thumb
 2786              		.thumb_func
 2787              		.type	lwip_listen, %function
 2788              	lwip_listen:
 2789              	.LFB265:
 2790              		.loc 1 526 0
 2791              		.cfi_startproc
 2792              		@ args = 0, pretend = 0, frame = 0
 2793              		@ frame_needed = 0, uses_anonymous_args = 0
 2794              	.LVL368:
 2795 0000 70B5     		push	{r4, r5, r6, lr}
 2796              		.cfi_def_cfa_offset 16
 2797              		.cfi_offset 4, -16
 2798              		.cfi_offset 5, -12
 2799              		.cfi_offset 6, -8
 2800              		.cfi_offset 14, -4
 2801              		.loc 1 530 0
 2802 0002 0246     		mov	r2, r0
 2803 0004 0B46     		mov	r3, r1
 2804              		.loc 1 526 0
 2805 0006 0646     		mov	r6, r0
 2806 0008 0C46     		mov	r4, r1
 2807              		.loc 1 530 0
 2808 000a 1848     		ldr	r0, .L330
 2809              	.LVL369:
 2810 000c 1849     		ldr	r1, .L330+4
 2811              	.LVL370:
 2812 000e FFF7FEFF 		bl	chprintf.constprop.1
 2813              	.LVL371:
 2814              		.loc 1 532 0
 2815 0012 3046     		mov	r0, r6
 2816 0014 FFF7FEFF 		bl	get_socket
 2817              	.LVL372:
 2818              		.loc 1 533 0
 2819 0018 0546     		mov	r5, r0
 2820 001a C8B1     		cbz	r0, .L325
 2821              	.LVL373:
 2822              		.loc 1 538 0
 2823 001c FE2C     		cmp	r4, #254
 2824 001e DABF     		itte	le
 2825 0020 24EAE471 		bicle	r1, r4, r4, asr #31
 2826 0024 C9B2     		uxtble	r1, r1
 2827 0026 FF21     		movgt	r1, #255
 2828              		.loc 1 540 0
 2829 0028 0068     		ldr	r0, [r0]
 2830              	.LVL374:
 2831 002a FFF7FEFF 		bl	netconn_listen_with_backlog
 2832              	.LVL375:
 2833              		.loc 1 542 0
 2834 002e 0446     		mov	r4, r0
 2835 0030 08B9     		cbnz	r0, .L329
 2836              		.loc 1 552 0
ARM GAS  C:\Users\jo\AppData\Local\Temp\ccpKXchH.s 			page 51


 2837 0032 2861     		str	r0, [r5, #16]
 2838              		.loc 1 553 0
 2839 0034 70BD     		pop	{r4, r5, r6, pc}
 2840              	.LVL376:
 2841              	.L329:
 2842              		.loc 1 543 0 discriminator 1
 2843 0036 2346     		mov	r3, r4
 2844 0038 3246     		mov	r2, r6
 2845 003a 0C48     		ldr	r0, .L330
 2846              	.LVL377:
 2847 003c 0D49     		ldr	r1, .L330+8
 2848 003e FFF7FEFF 		bl	chprintf.constprop.1
 2849              	.LVL378:
 2850              		.loc 1 544 0 discriminator 1
 2851 0042 2B68     		ldr	r3, [r5]
 2852 0044 1B78     		ldrb	r3, [r3]	@ zero_extendqisi2
 2853 0046 102B     		cmp	r3, #16
 2854 0048 05D0     		beq	.L323
 2855              		.loc 1 545 0
 2856 004a 5F20     		movs	r0, #95
 2857 004c 2861     		str	r0, [r5, #16]
 2858              		.loc 1 546 0
 2859 004e 70BD     		pop	{r4, r5, r6, pc}
 2860              	.LVL379:
 2861              	.L325:
 2862              		.loc 1 534 0
 2863 0050 4FF0FF30 		mov	r0, #-1
 2864              	.LVL380:
 2865              		.loc 1 554 0
 2866 0054 70BD     		pop	{r4, r5, r6, pc}
 2867              	.LVL381:
 2868              	.L323:
 2869              		.loc 1 548 0
 2870 0056 6442     		negs	r4, r4
 2871 0058 0F2C     		cmp	r4, #15
 2872 005a 96BF     		itet	ls
 2873 005c 064B     		ldrls	r3, .L330+12
 2874 005e 0523     		movhi	r3, #5
 2875 0060 53F82430 		ldrls	r3, [r3, r4, lsl #2]
 2876 0064 2B61     		str	r3, [r5, #16]
 2877              		.loc 1 549 0
 2878 0066 4FF0FF30 		mov	r0, #-1
 2879 006a 70BD     		pop	{r4, r5, r6, pc}
 2880              	.LVL382:
 2881              	.L331:
 2882              		.align	2
 2883              	.L330:
 2884 006c 00000000 		.word	itm_port
 2885 0070 90060000 		.word	.LC49
 2886 0074 B0060000 		.word	.LC50
 2887 0078 00000000 		.word	.LANCHOR1
 2888              		.cfi_endproc
 2889              	.LFE265:
 2890              		.size	lwip_listen, .-lwip_listen
 2891 007c AFF30080 		.section	.text.lwip_recvfrom,"ax",%progbits
 2892              		.align	2
 2893              		.p2align 4,,15
ARM GAS  C:\Users\jo\AppData\Local\Temp\ccpKXchH.s 			page 52


 2894              		.global	lwip_recvfrom
 2895              		.thumb
 2896              		.thumb_func
 2897              		.type	lwip_recvfrom, %function
 2898              	lwip_recvfrom:
 2899              	.LFB266:
 2900              		.loc 1 559 0
 2901              		.cfi_startproc
 2902              		@ args = 8, pretend = 0, frame = 48
 2903              		@ frame_needed = 0, uses_anonymous_args = 0
 2904              	.LVL383:
 2905 0000 2DE9F04F 		push	{r4, r5, r6, r7, r8, r9, r10, fp, lr}
 2906              		.cfi_def_cfa_offset 36
 2907              		.cfi_offset 4, -36
 2908              		.cfi_offset 5, -32
 2909              		.cfi_offset 6, -28
 2910              		.cfi_offset 7, -24
 2911              		.cfi_offset 8, -20
 2912              		.cfi_offset 9, -16
 2913              		.cfi_offset 10, -12
 2914              		.cfi_offset 11, -8
 2915              		.cfi_offset 14, -4
 2916 0004 8FB0     		sub	sp, sp, #60
 2917              		.cfi_def_cfa_offset 96
 2918              		.loc 1 559 0
 2919 0006 1746     		mov	r7, r2
 2920 0008 9946     		mov	r9, r3
 2921 000a 0446     		mov	r4, r0
 2922              		.loc 1 570 0
 2923 000c 0246     		mov	r2, r0
 2924              	.LVL384:
 2925 000e 0B46     		mov	r3, r1
 2926              	.LVL385:
 2927              		.loc 1 559 0
 2928 0010 0590     		str	r0, [sp, #20]
 2929 0012 0391     		str	r1, [sp, #12]
 2930              		.loc 1 570 0
 2931 0014 8DE88002 		stmia	sp, {r7, r9}
 2932 0018 B249     		ldr	r1, .L400
 2933              	.LVL386:
 2934 001a B348     		ldr	r0, .L400+4
 2935              	.LVL387:
 2936              		.loc 1 561 0
 2937 001c 0025     		movs	r5, #0
 2938 001e 0895     		str	r5, [sp, #32]
 2939              	.LVL388:
 2940              		.loc 1 570 0
 2941 0020 FFF7FEFF 		bl	chprintf.constprop.1
 2942              	.LVL389:
 2943              		.loc 1 571 0
 2944 0024 2046     		mov	r0, r4
 2945 0026 FFF7FEFF 		bl	get_socket
 2946              	.LVL390:
 2947              		.loc 1 572 0
 2948 002a 0446     		mov	r4, r0
 2949              	.LVL391:
 2950 002c 0028     		cmp	r0, #0
ARM GAS  C:\Users\jo\AppData\Local\Temp\ccpKXchH.s 			page 53


 2951 002e 00F0AC81 		beq	.L373
 2952              		.loc 1 572 0 is_stmt 0 discriminator 1
 2953 0032 A846     		mov	r8, r5
 2954              	.LVL392:
 2955              	.L369:
 2956              		.loc 1 577 0 is_stmt 1 discriminator 1
 2957 0034 AC48     		ldr	r0, .L400+4
 2958 0036 AD49     		ldr	r1, .L400+8
 2959 0038 6268     		ldr	r2, [r4, #4]
 2960 003a FFF7FEFF 		bl	chprintf.constprop.1
 2961              	.LVL393:
 2962              		.loc 1 579 0 discriminator 1
 2963 003e 6368     		ldr	r3, [r4, #4]
 2964 0040 002B     		cmp	r3, #0
 2965 0042 00F0F680 		beq	.L334
 2966              		.loc 1 580 0
 2967 0046 0893     		str	r3, [sp, #32]
 2968 0048 9A46     		mov	r10, r3
 2969              	.L335:
 2970              		.loc 1 629 0
 2971 004a 2368     		ldr	r3, [r4]
 2972              		.loc 1 635 0
 2973 004c A849     		ldr	r1, .L400+12
 2974              		.loc 1 629 0
 2975 004e 1B78     		ldrb	r3, [r3]	@ zero_extendqisi2
 2976              		.loc 1 635 0
 2977 0050 A548     		ldr	r0, .L400+4
 2978              		.loc 1 629 0
 2979 0052 102B     		cmp	r3, #16
 2980              		.loc 1 632 0
 2981 0054 18BF     		it	ne
 2982 0056 DAF800A0 		ldrne	r10, [r10]
 2983              	.LVL394:
 2984              		.loc 1 634 0
 2985 005a BAF80850 		ldrh	r5, [r10, #8]
 2986              	.LVL395:
 2987              		.loc 1 635 0
 2988 005e CDF80080 		str	r8, [sp]
 2989 0062 2389     		ldrh	r3, [r4, #8]
 2990 0064 0193     		str	r3, [sp, #4]
 2991 0066 2A46     		mov	r2, r5
 2992 0068 3B46     		mov	r3, r7
 2993 006a FFF7FEFF 		bl	chprintf.constprop.1
 2994              	.LVL396:
 2995              		.loc 1 638 0
 2996 006e 2389     		ldrh	r3, [r4, #8]
 2997              		.loc 1 648 0
 2998 0070 039A     		ldr	r2, [sp, #12]
 2999              		.loc 1 638 0
 3000 0072 ED1A     		subs	r5, r5, r3
 3001              	.LVL397:
 3002 0074 ADB2     		uxth	r5, r5
 3003              	.LVL398:
 3004              		.loc 1 640 0
 3005 0076 AF42     		cmp	r7, r5
 3006              		.loc 1 643 0
 3007 0078 94BF     		ite	ls
ARM GAS  C:\Users\jo\AppData\Local\Temp\ccpKXchH.s 			page 54


 3008 007a BEB2     		uxthls	r6, r7
 3009              	.LVL399:
 3010              		.loc 1 641 0
 3011 007c 2E46     		movhi	r6, r5
 3012              	.LVL400:
 3013              		.loc 1 648 0
 3014 007e 02EB0801 		add	r1, r2, r8
 3015 0082 5046     		mov	r0, r10
 3016 0084 3246     		mov	r2, r6
 3017 0086 FFF7FEFF 		bl	pbuf_copy_partial
 3018              	.LVL401:
 3019              		.loc 1 652 0
 3020 008a 2068     		ldr	r0, [r4]
 3021 008c 0378     		ldrb	r3, [r0]	@ zero_extendqisi2
 3022 008e 102B     		cmp	r3, #16
 3023              		.loc 1 650 0
 3024 0090 B044     		add	r8, r8, r6
 3025              	.LVL402:
 3026              		.loc 1 652 0
 3027 0092 40F0F880 		bne	.L348
 3028              		.loc 1 653 0
 3029 0096 B742     		cmp	r7, r6
 3030 0098 C0F0BC80 		bcc	.L393
 3031              	.L349:
 3032              	.LVL403:
 3033              		.loc 1 655 0
 3034 009c BF1B     		subs	r7, r7, r6
 3035              	.LVL404:
 3036 009e 00F09480 		beq	.L350
 3037              		.loc 1 656 0 discriminator 1
 3038 00a2 9AF80D20 		ldrb	r2, [r10, #13]	@ zero_extendqisi2
 3039              		.loc 1 655 0 discriminator 1
 3040 00a6 D207     		lsls	r2, r2, #31
 3041 00a8 00F18F80 		bmi	.L350
 3042              		.loc 1 656 0
 3043 00ac B4F90A20 		ldrsh	r2, [r4, #10]
 3044 00b0 002A     		cmp	r2, #0
 3045 00b2 40F38A80 		ble	.L350
 3046              		.loc 1 657 0
 3047 00b6 19F0010A 		ands	r10, r9, #1
 3048              	.LVL405:
 3049 00ba 5FD0     		beq	.L354
 3050              	.LVL406:
 3051              	.LBB140:
 3052              		.loc 1 668 0
 3053 00bc 189A     		ldr	r2, [sp, #96]
 3054              	.LBE140:
 3055 00be 4FF0010A 		mov	r10, #1
 3056              	.LBB143:
 3057 00c2 002A     		cmp	r2, #0
 3058 00c4 00F08780 		beq	.L355
 3059              	.L371:
 3060              		.loc 1 668 0 is_stmt 0 discriminator 1
 3061 00c8 199A     		ldr	r2, [sp, #100]
 3062 00ca 002A     		cmp	r2, #0
 3063 00cc 00F08380 		beq	.L355
 3064              	.LBB141:
ARM GAS  C:\Users\jo\AppData\Local\Temp\ccpKXchH.s 			page 55


 3065              		.loc 1 671 0 is_stmt 1
 3066 00d0 102B     		cmp	r3, #16
 3067 00d2 00F0E280 		beq	.L394
 3068              	.L356:
 3069              		.loc 1 675 0
 3070 00d6 089B     		ldr	r3, [sp, #32]
 3071              		.loc 1 676 0
 3072 00d8 9889     		ldrh	r0, [r3, #12]
 3073 00da ADF81E00 		strh	r0, [sp, #30]	@ movhi
 3074              		.loc 1 675 0
 3075 00de 03F1080B 		add	fp, r3, #8
 3076              	.LVL407:
 3077              	.L357:
 3078              		.loc 1 679 0
 3079 00e2 0023     		movs	r3, #0
 3080              		.loc 1 680 0
 3081 00e4 1021     		movs	r1, #16
 3082              		.loc 1 681 0
 3083 00e6 0222     		movs	r2, #2
 3084              		.loc 1 679 0
 3085 00e8 0A93     		str	r3, [sp, #40]
 3086 00ea 0B93     		str	r3, [sp, #44]
 3087 00ec 0C93     		str	r3, [sp, #48]
 3088 00ee 0D93     		str	r3, [sp, #52]
 3089              		.loc 1 680 0
 3090 00f0 8DF82810 		strb	r1, [sp, #40]
 3091 00f4 0491     		str	r1, [sp, #16]
 3092              		.loc 1 681 0
 3093 00f6 8DF82920 		strb	r2, [sp, #41]
 3094              		.loc 1 682 0
 3095 00fa FFF7FEFF 		bl	lwip_htons
 3096              	.LVL408:
 3097              		.loc 1 685 0
 3098 00fe 199B     		ldr	r3, [sp, #100]
 3099              		.loc 1 682 0
 3100 0100 ADF82A00 		strh	r0, [sp, #42]	@ movhi
 3101              		.loc 1 685 0
 3102 0104 1A68     		ldr	r2, [r3]
 3103              		.loc 1 683 0
 3104 0106 DBF80030 		ldr	r3, [fp]
 3105 010a 0B93     		str	r3, [sp, #44]
 3106              		.loc 1 685 0
 3107 010c 102A     		cmp	r2, #16
 3108 010e 0499     		ldr	r1, [sp, #16]
 3109 0110 02D9     		bls	.L358
 3110              		.loc 1 686 0
 3111 0112 199B     		ldr	r3, [sp, #100]
 3112 0114 0A46     		mov	r2, r1
 3113 0116 1960     		str	r1, [r3]
 3114              	.L358:
 3115              		.loc 1 689 0
 3116 0118 0AA9     		add	r1, sp, #40
 3117 011a 1898     		ldr	r0, [sp, #96]
 3118 011c FFF7FEFF 		bl	memcpy
 3119              	.LVL409:
 3120              		.loc 1 691 0
 3121 0120 7449     		ldr	r1, .L400+16
ARM GAS  C:\Users\jo\AppData\Local\Temp\ccpKXchH.s 			page 56


 3122 0122 059A     		ldr	r2, [sp, #20]
 3123 0124 7048     		ldr	r0, .L400+4
 3124 0126 FFF7FEFF 		bl	chprintf.constprop.1
 3125              	.LVL410:
 3126              		.loc 1 692 0
 3127 012a 9BF80210 		ldrb	r1, [fp, #2]	@ zero_extendqisi2
 3128 012e 9BF80020 		ldrb	r2, [fp]	@ zero_extendqisi2
 3129 0132 9BF80130 		ldrb	r3, [fp, #1]	@ zero_extendqisi2
 3130 0136 0091     		str	r1, [sp]
 3131 0138 9BF80310 		ldrb	r1, [fp, #3]	@ zero_extendqisi2
 3132 013c 0191     		str	r1, [sp, #4]
 3133              	.LVL411:
 3134              	.L391:
 3135              	.LBE141:
 3136              		.loc 1 705 0 discriminator 17
 3137 013e 6E49     		ldr	r1, .L400+20
 3138 0140 6948     		ldr	r0, .L400+4
 3139 0142 FFF7FEFF 		bl	chprintf.constprop.1
 3140              	.LVL412:
 3141              		.loc 1 706 0 discriminator 17
 3142 0146 6848     		ldr	r0, .L400+4
 3143 0148 6C49     		ldr	r1, .L400+24
 3144 014a BDF81E20 		ldrh	r2, [sp, #30]
 3145 014e 4346     		mov	r3, r8
 3146 0150 FFF7FEFF 		bl	chprintf.constprop.1
 3147              	.LVL413:
 3148              	.LBE143:
 3149              		.loc 1 712 0 discriminator 17
 3150 0154 BAF1000F 		cmp	r10, #0
 3151 0158 0CD0     		beq	.L363
 3152              	.LVL414:
 3153              	.L370:
 3154              		.loc 1 733 0
 3155 015a B8F1000F 		cmp	r8, #0
 3156 015e 03D0     		beq	.L365
 3157              	.L364:
 3158              		.loc 1 735 0
 3159 0160 2068     		ldr	r0, [r4]
 3160 0162 4146     		mov	r1, r8
 3161 0164 FFF7FEFF 		bl	netconn_recved
 3162              	.LVL415:
 3163              	.L365:
 3164              		.loc 1 737 0
 3165 0168 0023     		movs	r3, #0
 3166              		.loc 1 738 0
 3167 016a 4046     		mov	r0, r8
 3168              		.loc 1 737 0
 3169 016c 2361     		str	r3, [r4, #16]
 3170              	.LVL416:
 3171              	.L389:
 3172              		.loc 1 739 0
 3173 016e 0FB0     		add	sp, sp, #60
 3174              		.cfi_remember_state
 3175              		.cfi_def_cfa_offset 36
 3176              		@ sp needed
 3177 0170 BDE8F08F 		pop	{r4, r5, r6, r7, r8, r9, r10, fp, pc}
 3178              	.LVL417:
ARM GAS  C:\Users\jo\AppData\Local\Temp\ccpKXchH.s 			page 57


 3179              	.L363:
 3180              		.cfi_restore_state
 3181 0174 2368     		ldr	r3, [r4]
 3182 0176 1B78     		ldrb	r3, [r3]	@ zero_extendqisi2
 3183              		.loc 1 712 0
 3184 0178 4FF0010A 		mov	r10, #1
 3185              	.LVL418:
 3186              	.L354:
 3187              		.loc 1 716 0
 3188 017c 102B     		cmp	r3, #16
 3189 017e 10D1     		bne	.L366
 3190              		.loc 1 716 0 is_stmt 0 discriminator 1
 3191 0180 AD1B     		subs	r5, r5, r6
 3192              	.LVL419:
 3193 0182 002D     		cmp	r5, #0
 3194 0184 0DDD     		ble	.L366
 3195              		.loc 1 718 0 is_stmt 1
 3196 0186 2389     		ldrh	r3, [r4, #8]
 3197              		.loc 1 717 0
 3198 0188 089A     		ldr	r2, [sp, #32]
 3199 018a 6260     		str	r2, [r4, #4]
 3200              		.loc 1 718 0
 3201 018c 1E44     		add	r6, r6, r3
 3202              	.LVL420:
 3203 018e 2681     		strh	r6, [r4, #8]	@ movhi
 3204              		.loc 1 719 0
 3205 0190 5548     		ldr	r0, .L400+4
 3206 0192 5B49     		ldr	r1, .L400+28
 3207 0194 FFF7FEFF 		bl	chprintf.constprop.1
 3208              	.LVL421:
 3209              		.loc 1 731 0
 3210 0198 BAF1000F 		cmp	r10, #0
 3211 019c 3FF44AAF 		beq	.L369
 3212 01a0 DBE7     		b	.L370
 3213              	.LVL422:
 3214              	.L366:
 3215              		.loc 1 721 0
 3216 01a2 0023     		movs	r3, #0
 3217 01a4 6360     		str	r3, [r4, #4]
 3218              		.loc 1 722 0
 3219 01a6 2381     		strh	r3, [r4, #8]	@ movhi
 3220              		.loc 1 723 0
 3221 01a8 4F48     		ldr	r0, .L400+4
 3222 01aa 5649     		ldr	r1, .L400+32
 3223 01ac 089A     		ldr	r2, [sp, #32]
 3224 01ae FFF7FEFF 		bl	chprintf.constprop.1
 3225              	.LVL423:
 3226              		.loc 1 724 0
 3227 01b2 2368     		ldr	r3, [r4]
 3228              		.loc 1 725 0
 3229 01b4 0898     		ldr	r0, [sp, #32]
 3230              		.loc 1 724 0
 3231 01b6 1B78     		ldrb	r3, [r3]	@ zero_extendqisi2
 3232 01b8 102B     		cmp	r3, #16
 3233 01ba 5DD0     		beq	.L395
 3234              		.loc 1 727 0
 3235 01bc FFF7FEFF 		bl	netbuf_delete
ARM GAS  C:\Users\jo\AppData\Local\Temp\ccpKXchH.s 			page 58


 3236              	.LVL424:
 3237              		.loc 1 731 0
 3238 01c0 BAF1000F 		cmp	r10, #0
 3239 01c4 3FF436AF 		beq	.L369
 3240 01c8 C7E7     		b	.L370
 3241              	.LVL425:
 3242              	.L350:
 3243              	.LBB144:
 3244              		.loc 1 668 0
 3245 01ca 189A     		ldr	r2, [sp, #96]
 3246 01cc 09F0010A 		and	r10, r9, #1
 3247              	.LVL426:
 3248 01d0 002A     		cmp	r2, #0
 3249 01d2 7FF479AF 		bne	.L371
 3250              	.L355:
 3251              		.loc 1 696 0
 3252 01d6 102B     		cmp	r3, #16
 3253 01d8 72D0     		beq	.L396
 3254              	.L360:
 3255              		.loc 1 700 0
 3256 01da 089B     		ldr	r3, [sp, #32]
 3257              		.loc 1 704 0
 3258 01dc 4248     		ldr	r0, .L400+4
 3259              		.loc 1 701 0
 3260 01de 9A89     		ldrh	r2, [r3, #12]
 3261 01e0 ADF81E20 		strh	r2, [sp, #30]	@ movhi
 3262              		.loc 1 700 0
 3263 01e4 03F1080C 		add	ip, r3, #8
 3264              		.loc 1 704 0
 3265 01e8 4249     		ldr	r1, .L400+16
 3266 01ea 059A     		ldr	r2, [sp, #20]
 3267              		.loc 1 700 0
 3268 01ec CDF810C0 		str	ip, [sp, #16]
 3269              	.LVL427:
 3270              		.loc 1 704 0
 3271 01f0 FFF7FEFF 		bl	chprintf.constprop.1
 3272              	.LVL428:
 3273              		.loc 1 705 0
 3274 01f4 DDF810C0 		ldr	ip, [sp, #16]
 3275 01f8 BCF1000F 		cmp	ip, #0
 3276 01fc 5BD0     		beq	.L377
 3277              	.L361:
 3278              	.LVL429:
 3279              		.loc 1 705 0 is_stmt 0 discriminator 2
 3280 01fe 9CF80020 		ldrb	r2, [ip]	@ zero_extendqisi2
 3281 0202 9CF80130 		ldrb	r3, [ip, #1]	@ zero_extendqisi2
 3282 0206 9CF80210 		ldrb	r1, [ip, #2]	@ zero_extendqisi2
 3283 020a 9CF80300 		ldrb	r0, [ip, #3]	@ zero_extendqisi2
 3284              	.LVL430:
 3285              	.L362:
 3286              		.loc 1 705 0 discriminator 17
 3287 020e 0091     		str	r1, [sp]
 3288 0210 0190     		str	r0, [sp, #4]
 3289 0212 94E7     		b	.L391
 3290              	.LVL431:
 3291              	.L393:
 3292              	.LBE144:
ARM GAS  C:\Users\jo\AppData\Local\Temp\ccpKXchH.s 			page 59


 3293              		.loc 1 653 0 is_stmt 1 discriminator 1
 3294 0214 3C4B     		ldr	r3, .L400+36
 3295 0216 0093     		str	r3, [sp]
 3296 0218 3C49     		ldr	r1, .L400+40
 3297 021a 3D4A     		ldr	r2, .L400+44
 3298 021c 3248     		ldr	r0, .L400+4
 3299 021e 40F28D23 		movw	r3, #653
 3300 0222 FFF7FEFF 		bl	chprintf.constprop.1
 3301              	.LVL432:
 3302              	.LBB145:
 3303              	.LBB146:
 3304              		.loc 3 414 0 discriminator 1
 3305 0226 3A48     		ldr	r0, .L400+44
 3306 0228 FFF7FEFF 		bl	chSysHalt
 3307              	.LVL433:
 3308 022c 2068     		ldr	r0, [r4]
 3309 022e 0378     		ldrb	r3, [r0]	@ zero_extendqisi2
 3310 0230 34E7     		b	.L349
 3311              	.LVL434:
 3312              	.L334:
 3313              	.LBE146:
 3314              	.LBE145:
 3315              		.loc 1 583 0
 3316 0232 19F0080F 		tst	r9, #8
 3317 0236 03D1     		bne	.L336
 3318              		.loc 1 583 0 is_stmt 0 discriminator 2
 3319 0238 2068     		ldr	r0, [r4]
 3320 023a 037F     		ldrb	r3, [r0, #28]	@ zero_extendqisi2
 3321 023c 9907     		lsls	r1, r3, #30
 3322 023e 05D5     		bpl	.L337
 3323              	.L336:
 3324              		.loc 1 583 0 discriminator 3
 3325 0240 B4F90A30 		ldrsh	r3, [r4, #10]
 3326 0244 002B     		cmp	r3, #0
 3327 0246 40F39280 		ble	.L338
 3328 024a 2068     		ldr	r0, [r4]
 3329              	.L337:
 3330              		.loc 1 599 0 is_stmt 1
 3331 024c 0378     		ldrb	r3, [r0]	@ zero_extendqisi2
 3332 024e 102B     		cmp	r3, #16
 3333              		.loc 1 600 0
 3334 0250 08A9     		add	r1, sp, #32
 3335              		.loc 1 599 0
 3336 0252 2CD0     		beq	.L397
 3337              		.loc 1 602 0
 3338 0254 FFF7FEFF 		bl	netconn_recv
 3339              	.LVL435:
 3340 0258 0546     		mov	r5, r0
 3341              	.LVL436:
 3342              	.L341:
 3343              		.loc 1 604 0 discriminator 1
 3344 025a 6EB2     		sxtb	r6, r5
 3345 025c 3246     		mov	r2, r6
 3346 025e 2248     		ldr	r0, .L400+4
 3347 0260 2C49     		ldr	r1, .L400+48
 3348 0262 089B     		ldr	r3, [sp, #32]
 3349 0264 FFF7FEFF 		bl	chprintf.constprop.1
ARM GAS  C:\Users\jo\AppData\Local\Temp\ccpKXchH.s 			page 60


 3350              	.LVL437:
 3351              		.loc 1 607 0 discriminator 1
 3352 0268 002D     		cmp	r5, #0
 3353 026a 63D1     		bne	.L398
 3354              		.loc 1 625 0
 3355 026c 089B     		ldr	r3, [sp, #32]
 3356 026e 002B     		cmp	r3, #0
 3357 0270 52D0     		beq	.L399
 3358              	.L345:
 3359              		.loc 1 626 0
 3360 0272 6360     		str	r3, [r4, #4]
 3361 0274 9A46     		mov	r10, r3
 3362 0276 E8E6     		b	.L335
 3363              	.LVL438:
 3364              	.L395:
 3365              		.loc 1 725 0
 3366 0278 FFF7FEFF 		bl	pbuf_free
 3367              	.LVL439:
 3368              		.loc 1 731 0
 3369 027c BAF1000F 		cmp	r10, #0
 3370 0280 3FF4D8AE 		beq	.L369
 3371 0284 69E7     		b	.L370
 3372              	.LVL440:
 3373              	.L348:
 3374              	.LBB147:
 3375              		.loc 1 668 0
 3376 0286 189B     		ldr	r3, [sp, #96]
 3377 0288 09F0010A 		and	r10, r9, #1
 3378              	.LVL441:
 3379 028c 002B     		cmp	r3, #0
 3380 028e A4D0     		beq	.L360
 3381 0290 199B     		ldr	r3, [sp, #100]
 3382 0292 002B     		cmp	r3, #0
 3383 0294 7FF41FAF 		bne	.L356
 3384 0298 9FE7     		b	.L360
 3385              	.L394:
 3386              	.LVL442:
 3387              	.LBB142:
 3388              		.loc 1 673 0
 3389 029a 09A9     		add	r1, sp, #36
 3390              	.LVL443:
 3391 029c 0DF11E02 		add	r2, sp, #30
 3392 02a0 0023     		movs	r3, #0
 3393              		.loc 1 672 0
 3394 02a2 8B46     		mov	fp, r1
 3395              		.loc 1 673 0
 3396 02a4 FFF7FEFF 		bl	netconn_getaddr
 3397              	.LVL444:
 3398 02a8 BDF81E00 		ldrh	r0, [sp, #30]
 3399 02ac 19E7     		b	.L357
 3400              	.LVL445:
 3401              	.L397:
 3402              	.LBE142:
 3403              	.LBE147:
 3404              		.loc 1 600 0
 3405 02ae FFF7FEFF 		bl	netconn_recv_tcp_pbuf
 3406              	.LVL446:
ARM GAS  C:\Users\jo\AppData\Local\Temp\ccpKXchH.s 			page 61


 3407 02b2 0546     		mov	r5, r0
 3408              	.LVL447:
 3409 02b4 D1E7     		b	.L341
 3410              	.LVL448:
 3411              	.L377:
 3412              	.LBB148:
 3413              		.loc 1 705 0
 3414 02b6 6146     		mov	r1, ip
 3415 02b8 6346     		mov	r3, ip
 3416 02ba 6246     		mov	r2, ip
 3417 02bc 6046     		mov	r0, ip
 3418 02be A6E7     		b	.L362
 3419              	.LVL449:
 3420              	.L396:
 3421              		.loc 1 698 0
 3422 02c0 09A9     		add	r1, sp, #36
 3423              	.LVL450:
 3424 02c2 0DF11E02 		add	r2, sp, #30
 3425 02c6 0023     		movs	r3, #0
 3426 02c8 FFF7FEFF 		bl	netconn_getaddr
 3427              	.LVL451:
 3428              		.loc 1 697 0
 3429 02cc 0DF1240C 		add	ip, sp, #36
 3430              	.LVL452:
 3431              		.loc 1 704 0
 3432 02d0 0548     		ldr	r0, .L400+4
 3433 02d2 0849     		ldr	r1, .L400+16
 3434 02d4 059A     		ldr	r2, [sp, #20]
 3435              		.loc 1 697 0
 3436 02d6 CDF810C0 		str	ip, [sp, #16]
 3437              		.loc 1 704 0
 3438 02da FFF7FEFF 		bl	chprintf.constprop.1
 3439              	.LVL453:
 3440 02de DDF810C0 		ldr	ip, [sp, #16]
 3441 02e2 8CE7     		b	.L361
 3442              	.L401:
 3443              		.align	2
 3444              	.L400:
 3445 02e4 D0060000 		.word	.LC51
 3446 02e8 00000000 		.word	itm_port
 3447 02ec F8060000 		.word	.LC52
 3448 02f0 BC070000 		.word	.LC57
 3449 02f4 20080000 		.word	.LC59
 3450 02f8 30040000 		.word	.LC27
 3451 02fc 3C080000 		.word	.LC60
 3452 0300 50080000 		.word	.LC61
 3453 0304 78080000 		.word	.LC62
 3454 0308 3C000000 		.word	.LC4
 3455 030c 08000000 		.word	.LC2
 3456 0310 F8070000 		.word	.LC58
 3457 0314 50070000 		.word	.LC54
 3458              	.LVL454:
 3459              	.L399:
 3460              	.LBE148:
 3461              		.loc 1 625 0 discriminator 1
 3462 0318 1D4B     		ldr	r3, .L402
 3463 031a 0093     		str	r3, [sp]
ARM GAS  C:\Users\jo\AppData\Local\Temp\ccpKXchH.s 			page 62


 3464 031c 1D49     		ldr	r1, .L402+4
 3465 031e 1E4A     		ldr	r2, .L402+8
 3466 0320 1E48     		ldr	r0, .L402+12
 3467 0322 40F27123 		movw	r3, #625
 3468 0326 FFF7FEFF 		bl	chprintf.constprop.1
 3469              	.LVL455:
 3470              	.LBB149:
 3471              	.LBB150:
 3472              		.loc 3 414 0 discriminator 1
 3473 032a 1B48     		ldr	r0, .L402+8
 3474 032c FFF7FEFF 		bl	chSysHalt
 3475              	.LVL456:
 3476 0330 089B     		ldr	r3, [sp, #32]
 3477 0332 9EE7     		b	.L345
 3478              	.LVL457:
 3479              	.L398:
 3480              	.LBE150:
 3481              	.LBE149:
 3482              		.loc 1 608 0
 3483 0334 B8F1000F 		cmp	r8, #0
 3484 0338 7FF412AF 		bne	.L364
 3485              		.loc 1 616 0 discriminator 1
 3486 033c 3046     		mov	r0, r6
 3487 033e FFF7FEFF 		bl	lwip_strerr
 3488              	.LVL458:
 3489 0342 059A     		ldr	r2, [sp, #20]
 3490 0344 1649     		ldr	r1, .L402+16
 3491 0346 0346     		mov	r3, r0
 3492 0348 1448     		ldr	r0, .L402+12
 3493 034a FFF7FEFF 		bl	chprintf.constprop.1
 3494              	.LVL459:
 3495              		.loc 1 618 0 discriminator 1
 3496 034e 7342     		negs	r3, r6
 3497 0350 0F2B     		cmp	r3, #15
 3498 0352 96BF     		itet	ls
 3499 0354 134A     		ldrls	r2, .L402+20
 3500 0356 0523     		movhi	r3, #5
 3501 0358 52F82330 		ldrls	r3, [r2, r3, lsl #2]
 3502 035c 2361     		str	r3, [r4, #16]
 3503              		.loc 1 619 0 discriminator 1
 3504 035e 16F10C08 		adds	r8, r6, #12
 3505              	.LVL460:
 3506 0362 18BF     		it	ne
 3507 0364 4FF00108 		movne	r8, #1
 3508 0368 C8F10000 		rsb	r0, r8, #0
 3509 036c FFE6     		b	.L389
 3510              	.LVL461:
 3511              	.L338:
 3512              		.loc 1 585 0
 3513 036e B8F1000F 		cmp	r8, #0
 3514 0372 7FF4F5AE 		bne	.L364
 3515              		.loc 1 592 0 discriminator 1
 3516 0376 059A     		ldr	r2, [sp, #20]
 3517 0378 0848     		ldr	r0, .L402+12
 3518 037a 0B49     		ldr	r1, .L402+24
 3519 037c FFF7FEFF 		bl	chprintf.constprop.1
 3520              	.LVL462:
ARM GAS  C:\Users\jo\AppData\Local\Temp\ccpKXchH.s 			page 63


 3521              		.loc 1 593 0 discriminator 1
 3522 0380 0B23     		movs	r3, #11
 3523 0382 2361     		str	r3, [r4, #16]
 3524              		.loc 1 594 0 discriminator 1
 3525 0384 4FF0FF30 		mov	r0, #-1
 3526 0388 F1E6     		b	.L389
 3527              	.LVL463:
 3528              	.L373:
 3529              		.loc 1 573 0
 3530 038a 4FF0FF30 		mov	r0, #-1
 3531              	.LVL464:
 3532 038e EEE6     		b	.L389
 3533              	.L403:
 3534              		.align	2
 3535              	.L402:
 3536 0390 3C000000 		.word	.LC4
 3537 0394 08000000 		.word	.LC2
 3538 0398 B0070000 		.word	.LC56
 3539 039c 00000000 		.word	itm_port
 3540 03a0 80070000 		.word	.LC55
 3541 03a4 00000000 		.word	.LANCHOR1
 3542 03a8 24070000 		.word	.LC53
 3543              		.cfi_endproc
 3544              	.LFE266:
 3545              		.size	lwip_recvfrom, .-lwip_recvfrom
 3546 03ac AFF30080 		.section	.text.lwip_read,"ax",%progbits
 3547              		.align	2
 3548              		.p2align 4,,15
 3549              		.global	lwip_read
 3550              		.thumb
 3551              		.thumb_func
 3552              		.type	lwip_read, %function
 3553              	lwip_read:
 3554              	.LFB267:
 3555              		.loc 1 743 0
 3556              		.cfi_startproc
 3557              		@ args = 0, pretend = 0, frame = 0
 3558              		@ frame_needed = 0, uses_anonymous_args = 0
 3559              	.LVL465:
 3560 0000 00B5     		push	{lr}
 3561              		.cfi_def_cfa_offset 4
 3562              		.cfi_offset 14, -4
 3563 0002 83B0     		sub	sp, sp, #12
 3564              		.cfi_def_cfa_offset 16
 3565              		.loc 1 744 0
 3566 0004 0023     		movs	r3, #0
 3567 0006 0093     		str	r3, [sp]
 3568 0008 0193     		str	r3, [sp, #4]
 3569 000a FFF7FEFF 		bl	lwip_recvfrom
 3570              	.LVL466:
 3571              		.loc 1 745 0
 3572 000e 03B0     		add	sp, sp, #12
 3573              		.cfi_def_cfa_offset 4
 3574              		@ sp needed
 3575 0010 5DF804FB 		ldr	pc, [sp], #4
 3576              		.cfi_endproc
 3577              	.LFE267:
ARM GAS  C:\Users\jo\AppData\Local\Temp\ccpKXchH.s 			page 64


 3578              		.size	lwip_read, .-lwip_read
 3579 0014 AFF30080 		.section	.text.lwip_recv,"ax",%progbits
 3579      AFF30080 
 3579      AFF30080 
 3580              		.align	2
 3581              		.p2align 4,,15
 3582              		.global	lwip_recv
 3583              		.thumb
 3584              		.thumb_func
 3585              		.type	lwip_recv, %function
 3586              	lwip_recv:
 3587              	.LFB268:
 3588              		.loc 1 749 0
 3589              		.cfi_startproc
 3590              		@ args = 0, pretend = 0, frame = 0
 3591              		@ frame_needed = 0, uses_anonymous_args = 0
 3592              	.LVL467:
 3593 0000 10B5     		push	{r4, lr}
 3594              		.cfi_def_cfa_offset 8
 3595              		.cfi_offset 4, -8
 3596              		.cfi_offset 14, -4
 3597 0002 82B0     		sub	sp, sp, #8
 3598              		.cfi_def_cfa_offset 16
 3599              		.loc 1 750 0
 3600 0004 0024     		movs	r4, #0
 3601 0006 0094     		str	r4, [sp]
 3602 0008 0194     		str	r4, [sp, #4]
 3603 000a FFF7FEFF 		bl	lwip_recvfrom
 3604              	.LVL468:
 3605              		.loc 1 751 0
 3606 000e 02B0     		add	sp, sp, #8
 3607              		.cfi_def_cfa_offset 8
 3608              		@ sp needed
 3609 0010 10BD     		pop	{r4, pc}
 3610              		.cfi_endproc
 3611              	.LFE268:
 3612              		.size	lwip_recv, .-lwip_recv
 3613 0012 00BFAFF3 		.section	.text.lwip_sendto,"ax",%progbits
 3613      0080AFF3 
 3613      0080AFF3 
 3613      0080
 3614              		.align	2
 3615              		.p2align 4,,15
 3616              		.global	lwip_sendto
 3617              		.thumb
 3618              		.thumb_func
 3619              		.type	lwip_sendto, %function
 3620              	lwip_sendto:
 3621              	.LFB270:
 3622              		.loc 1 792 0
 3623              		.cfi_startproc
 3624              		@ args = 8, pretend = 0, frame = 16
 3625              		@ frame_needed = 0, uses_anonymous_args = 0
 3626              	.LVL469:
 3627 0000 2DE9F047 		push	{r4, r5, r6, r7, r8, r9, r10, lr}
 3628              		.cfi_def_cfa_offset 32
 3629              		.cfi_offset 4, -32
ARM GAS  C:\Users\jo\AppData\Local\Temp\ccpKXchH.s 			page 65


 3630              		.cfi_offset 5, -28
 3631              		.cfi_offset 6, -24
 3632              		.cfi_offset 7, -20
 3633              		.cfi_offset 8, -16
 3634              		.cfi_offset 9, -12
 3635              		.cfi_offset 10, -8
 3636              		.cfi_offset 14, -4
 3637 0004 86B0     		sub	sp, sp, #24
 3638              		.cfi_def_cfa_offset 56
 3639              		.loc 1 792 0
 3640 0006 0F46     		mov	r7, r1
 3641 0008 1446     		mov	r4, r2
 3642 000a 9946     		mov	r9, r3
 3643 000c 8046     		mov	r8, r0
 3644 000e 0E9D     		ldr	r5, [sp, #56]
 3645 0010 DDF83CA0 		ldr	r10, [sp, #60]
 3646              		.loc 1 802 0
 3647 0014 FFF7FEFF 		bl	get_socket
 3648              	.LVL470:
 3649              		.loc 1 803 0
 3650 0018 0646     		mov	r6, r0
 3651 001a 0028     		cmp	r0, #0
 3652 001c 4AD0     		beq	.L427
 3653              		.loc 1 807 0
 3654 001e 0368     		ldr	r3, [r0]
 3655 0020 1B78     		ldrb	r3, [r3]	@ zero_extendqisi2
 3656 0022 102B     		cmp	r3, #16
 3657 0024 00F08480 		beq	.L429
 3658              		.loc 1 818 0
 3659 0028 B4F5803F 		cmp	r4, #65536
 3660 002c 48D2     		bcs	.L430
 3661              		.loc 1 819 0
 3662 002e A4B2     		uxth	r4, r4
 3663              	.LVL471:
 3664              		.loc 1 820 0
 3665 0030 002D     		cmp	r5, #0
 3666 0032 54D0     		beq	.L431
 3667              	.LVL472:
 3668              	.L413:
 3669              		.loc 1 820 0 is_stmt 0 discriminator 3
 3670 0034 BAF1100F 		cmp	r10, #16
 3671 0038 6BD1     		bne	.L415
 3672              		.loc 1 820 0 discriminator 5
 3673 003a 6B78     		ldrb	r3, [r5, #1]	@ zero_extendqisi2
 3674 003c 022B     		cmp	r3, #2
 3675 003e 68D1     		bne	.L415
 3676              		.loc 1 820 0 discriminator 7
 3677 0040 15F00303 		ands	r3, r5, #3
 3678 0044 65D1     		bne	.L415
 3679              	.LVL473:
 3680              		.loc 1 901 0 is_stmt 1
 3681 0046 6A68     		ldr	r2, [r5, #4]
 3682              		.loc 1 902 0
 3683 0048 6888     		ldrh	r0, [r5, #2]
 3684              		.loc 1 896 0
 3685 004a 0393     		str	r3, [sp, #12]
 3686 004c 0293     		str	r3, [sp, #8]
ARM GAS  C:\Users\jo\AppData\Local\Temp\ccpKXchH.s 			page 66


 3687              		.loc 1 901 0
 3688 004e 0492     		str	r2, [sp, #16]
 3689              		.loc 1 902 0
 3690 0050 FFF7FEFF 		bl	lwip_ntohs
 3691              	.LVL474:
 3692              		.loc 1 903 0
 3693 0054 ADF81400 		strh	r0, [sp, #20]	@ movhi
 3694 0058 0546     		mov	r5, r0
 3695              	.LVL475:
 3696              	.L420:
 3697              		.loc 1 910 0 discriminator 1
 3698 005a 4246     		mov	r2, r8
 3699 005c 3849     		ldr	r1, .L433
 3700 005e 3948     		ldr	r0, .L433+4
 3701 0060 3B46     		mov	r3, r7
 3702 0062 8DE81002 		stmia	sp, {r4, r9}
 3703 0066 FFF7FEFF 		bl	chprintf.constprop.1
 3704              	.LVL476:
 3705              		.loc 1 912 0 discriminator 1
 3706 006a 9DF81200 		ldrb	r0, [sp, #18]	@ zero_extendqisi2
 3707 006e 9DF81310 		ldrb	r1, [sp, #19]	@ zero_extendqisi2
 3708 0072 9DF81130 		ldrb	r3, [sp, #17]	@ zero_extendqisi2
 3709 0076 9DF81020 		ldrb	r2, [sp, #16]	@ zero_extendqisi2
 3710 007a 8DE80300 		stmia	sp, {r0, r1}
 3711 007e 3249     		ldr	r1, .L433+8
 3712 0080 3048     		ldr	r0, .L433+4
 3713 0082 FFF7FEFF 		bl	chprintf.constprop.1
 3714              	.LVL477:
 3715              		.loc 1 913 0 discriminator 1
 3716 0086 2A46     		mov	r2, r5
 3717 0088 3049     		ldr	r1, .L433+12
 3718 008a 2E48     		ldr	r0, .L433+4
 3719 008c FFF7FEFF 		bl	chprintf.constprop.1
 3720              	.LVL478:
 3721              		.loc 1 933 0 discriminator 1
 3722 0090 3946     		mov	r1, r7
 3723 0092 2246     		mov	r2, r4
 3724 0094 02A8     		add	r0, sp, #8
 3725 0096 FFF7FEFF 		bl	netbuf_ref
 3726              	.LVL479:
 3727              		.loc 1 935 0 discriminator 1
 3728 009a 0546     		mov	r5, r0
 3729 009c 60B3     		cbz	r0, .L432
 3730              	.LVL480:
 3731              		.loc 1 941 0
 3732 009e 02A8     		add	r0, sp, #8
 3733 00a0 FFF7FEFF 		bl	netbuf_free
 3734              	.LVL481:
 3735              		.loc 1 943 0
 3736 00a4 6B42     		negs	r3, r5
 3737 00a6 0F2B     		cmp	r3, #15
 3738 00a8 3FD8     		bhi	.L428
 3739              	.L421:
 3740              		.loc 1 943 0 is_stmt 0 discriminator 1
 3741 00aa 294A     		ldr	r2, .L433+16
 3742 00ac 52F82330 		ldr	r3, [r2, r3, lsl #2]
 3743              	.L418:
ARM GAS  C:\Users\jo\AppData\Local\Temp\ccpKXchH.s 			page 67


 3744              		.loc 1 943 0 discriminator 4
 3745 00b0 3361     		str	r3, [r6, #16]
 3746              		.loc 1 944 0 is_stmt 1 discriminator 4
 3747 00b2 0DB1     		cbz	r5, .L424
 3748              	.LVL482:
 3749              	.L427:
 3750              		.loc 1 820 0 discriminator 8
 3751 00b4 4FF0FF34 		mov	r4, #-1
 3752              	.L424:
 3753              		.loc 1 945 0
 3754 00b8 2046     		mov	r0, r4
 3755 00ba 06B0     		add	sp, sp, #24
 3756              		.cfi_remember_state
 3757              		.cfi_def_cfa_offset 32
 3758              		@ sp needed
 3759 00bc BDE8F087 		pop	{r4, r5, r6, r7, r8, r9, r10, pc}
 3760              	.LVL483:
 3761              	.L430:
 3762              		.cfi_restore_state
 3763              		.loc 1 818 0 discriminator 1
 3764 00c0 244B     		ldr	r3, .L433+20
 3765 00c2 0093     		str	r3, [sp]
 3766 00c4 2449     		ldr	r1, .L433+24
 3767 00c6 254A     		ldr	r2, .L433+28
 3768 00c8 1E48     		ldr	r0, .L433+4
 3769              	.LVL484:
 3770 00ca 40F23233 		movw	r3, #818
 3771 00ce FFF7FEFF 		bl	chprintf.constprop.1
 3772              	.LVL485:
 3773              	.LBB151:
 3774              	.LBB152:
 3775              		.loc 3 414 0 discriminator 1
 3776 00d2 2248     		ldr	r0, .L433+28
 3777 00d4 FFF7FEFF 		bl	chSysHalt
 3778              	.LVL486:
 3779              	.LBE152:
 3780              	.LBE151:
 3781              		.loc 1 819 0 discriminator 1
 3782 00d8 A4B2     		uxth	r4, r4
 3783              	.LVL487:
 3784              		.loc 1 820 0 discriminator 1
 3785 00da 002D     		cmp	r5, #0
 3786 00dc AAD1     		bne	.L413
 3787              	.LVL488:
 3788              	.L431:
 3789              		.loc 1 820 0 is_stmt 0 discriminator 2
 3790 00de BAF1000F 		cmp	r10, #0
 3791 00e2 A7D1     		bne	.L413
 3792              	.LVL489:
 3793              		.loc 1 896 0 is_stmt 1
 3794 00e4 CDF80CA0 		str	r10, [sp, #12]
 3795 00e8 CDF808A0 		str	r10, [sp, #8]
 3796              	.LVL490:
 3797              		.loc 1 906 0
 3798 00ec CDF810A0 		str	r10, [sp, #16]
 3799              		.loc 1 907 0
 3800 00f0 ADF814A0 		strh	r10, [sp, #20]	@ movhi
ARM GAS  C:\Users\jo\AppData\Local\Temp\ccpKXchH.s 			page 68


 3801 00f4 5546     		mov	r5, r10
 3802 00f6 B0E7     		b	.L420
 3803              	.LVL491:
 3804              	.L432:
 3805              		.loc 1 937 0
 3806 00f8 02A9     		add	r1, sp, #8
 3807 00fa 3068     		ldr	r0, [r6]
 3808              	.LVL492:
 3809 00fc FFF7FEFF 		bl	netconn_send
 3810              	.LVL493:
 3811 0100 0546     		mov	r5, r0
 3812              	.LVL494:
 3813              		.loc 1 941 0
 3814 0102 02A8     		add	r0, sp, #8
 3815 0104 FFF7FEFF 		bl	netbuf_free
 3816              	.LVL495:
 3817              		.loc 1 943 0
 3818 0108 6B42     		negs	r3, r5
 3819 010a 0F2B     		cmp	r3, #15
 3820 010c CDD9     		bls	.L421
 3821 010e 0523     		movs	r3, #5
 3822 0110 CEE7     		b	.L418
 3823              	.LVL496:
 3824              	.L415:
 3825              		.loc 1 820 0 discriminator 8
 3826 0112 104B     		ldr	r3, .L433+20
 3827 0114 0093     		str	r3, [sp]
 3828 0116 0B48     		ldr	r0, .L433+4
 3829 0118 0F49     		ldr	r1, .L433+24
 3830 011a 114A     		ldr	r2, .L433+32
 3831 011c 40F23733 		movw	r3, #823
 3832 0120 FFF7FEFF 		bl	chprintf.constprop.1
 3833              	.LVL497:
 3834              	.LBB153:
 3835              	.LBB154:
 3836              		.loc 3 414 0 discriminator 8
 3837 0124 0E48     		ldr	r0, .L433+32
 3838 0126 FFF7FEFF 		bl	chSysHalt
 3839              	.LVL498:
 3840              	.L428:
 3841              	.LBE154:
 3842              	.LBE153:
 3843              		.loc 1 820 0 discriminator 8
 3844 012a 0523     		movs	r3, #5
 3845 012c 3361     		str	r3, [r6, #16]
 3846 012e C1E7     		b	.L427
 3847              	.LVL499:
 3848              	.L429:
 3849              		.loc 1 809 0
 3850 0130 2246     		mov	r2, r4
 3851 0132 4046     		mov	r0, r8
 3852              	.LVL500:
 3853 0134 3946     		mov	r1, r7
 3854 0136 4B46     		mov	r3, r9
 3855 0138 FFF7FEFF 		bl	lwip_send
 3856              	.LVL501:
 3857 013c 0446     		mov	r4, r0
ARM GAS  C:\Users\jo\AppData\Local\Temp\ccpKXchH.s 			page 69


 3858              	.LVL502:
 3859 013e BBE7     		b	.L424
 3860              	.L434:
 3861              		.align	2
 3862              	.L433:
 3863 0140 E0080000 		.word	.LC65
 3864 0144 00000000 		.word	itm_port
 3865 0148 30040000 		.word	.LC27
 3866 014c 78050000 		.word	.LC38
 3867 0150 00000000 		.word	.LANCHOR1
 3868 0154 3C000000 		.word	.LC4
 3869 0158 08000000 		.word	.LC2
 3870 015c 9C080000 		.word	.LC63
 3871 0160 C0080000 		.word	.LC64
 3872              		.cfi_endproc
 3873              	.LFE270:
 3874              		.size	lwip_sendto, .-lwip_sendto
 3875 0164 AFF30080 		.section	.text.lwip_send,"ax",%progbits
 3875      AFF30080 
 3875      AFF30080 
 3876              		.align	2
 3877              		.p2align 4,,15
 3878              		.global	lwip_send
 3879              		.thumb
 3880              		.thumb_func
 3881              		.type	lwip_send, %function
 3882              	lwip_send:
 3883              	.LFB269:
 3884              		.loc 1 755 0
 3885              		.cfi_startproc
 3886              		@ args = 0, pretend = 0, frame = 8
 3887              		@ frame_needed = 0, uses_anonymous_args = 0
 3888              	.LVL503:
 3889 0000 2DE9F041 		push	{r4, r5, r6, r7, r8, lr}
 3890              		.cfi_def_cfa_offset 24
 3891              		.cfi_offset 4, -24
 3892              		.cfi_offset 5, -20
 3893              		.cfi_offset 6, -16
 3894              		.cfi_offset 7, -12
 3895              		.cfi_offset 8, -8
 3896              		.cfi_offset 14, -4
 3897 0004 84B0     		sub	sp, sp, #16
 3898              		.cfi_def_cfa_offset 40
 3899              		.loc 1 755 0
 3900 0006 0446     		mov	r4, r0
 3901              		.loc 1 761 0
 3902 0008 0092     		str	r2, [sp]
 3903 000a 0193     		str	r3, [sp, #4]
 3904              		.loc 1 755 0
 3905 000c 8846     		mov	r8, r1
 3906 000e 1746     		mov	r7, r2
 3907 0010 1E46     		mov	r6, r3
 3908              		.loc 1 761 0
 3909 0012 0246     		mov	r2, r0
 3910              	.LVL504:
 3911 0014 0B46     		mov	r3, r1
 3912              	.LVL505:
ARM GAS  C:\Users\jo\AppData\Local\Temp\ccpKXchH.s 			page 70


 3913 0016 2548     		ldr	r0, .L449
 3914              	.LVL506:
 3915 0018 2549     		ldr	r1, .L449+4
 3916              	.LVL507:
 3917 001a FFF7FEFF 		bl	chprintf.constprop.1
 3918              	.LVL508:
 3919              		.loc 1 764 0
 3920 001e 2046     		mov	r0, r4
 3921 0020 FFF7FEFF 		bl	get_socket
 3922              	.LVL509:
 3923              		.loc 1 765 0
 3924 0024 0546     		mov	r5, r0
 3925 0026 60B3     		cbz	r0, .L442
 3926              		.loc 1 769 0
 3927 0028 0068     		ldr	r0, [r0]
 3928              	.LVL510:
 3929 002a 0378     		ldrb	r3, [r0]	@ zero_extendqisi2
 3930 002c 102B     		cmp	r3, #16
 3931 002e 31D1     		bne	.L447
 3932              		.loc 1 781 0
 3933 0030 0DF1100E 		add	lr, sp, #16
 3934              		.loc 1 778 0
 3935 0034 16F0100F 		tst	r6, #16
 3936              		.loc 1 781 0
 3937 0038 4FF00002 		mov	r2, #0
 3938 003c 4EF8042D 		str	r2, [lr, #-4]!
 3939              		.loc 1 778 0
 3940 0040 14BF     		ite	ne
 3941 0042 0323     		movne	r3, #3
 3942 0044 0123     		moveq	r3, #1
 3943 0046 16F0080F 		tst	r6, #8
 3944 004a 0CBF     		ite	eq
 3945 004c 1646     		moveq	r6, r2
 3946              	.LVL511:
 3947 004e 0426     		movne	r6, #4
 3948              	.LVL512:
 3949              		.loc 1 782 0
 3950 0050 3343     		orrs	r3, r3, r6
 3951              	.LVL513:
 3952 0052 4146     		mov	r1, r8
 3953 0054 3A46     		mov	r2, r7
 3954 0056 CDF800E0 		str	lr, [sp]
 3955              	.LVL514:
 3956 005a FFF7FEFF 		bl	netconn_write_partly
 3957              	.LVL515:
 3958              		.loc 1 784 0
 3959 005e 039B     		ldr	r3, [sp, #12]
 3960 0060 0093     		str	r3, [sp]
 3961 0062 2246     		mov	r2, r4
 3962 0064 0346     		mov	r3, r0
 3963              		.loc 1 782 0
 3964 0066 0646     		mov	r6, r0
 3965              	.LVL516:
 3966              		.loc 1 784 0
 3967 0068 1249     		ldr	r1, .L449+8
 3968 006a 1048     		ldr	r0, .L449
 3969              	.LVL517:
ARM GAS  C:\Users\jo\AppData\Local\Temp\ccpKXchH.s 			page 71


 3970 006c FFF7FEFF 		bl	chprintf.constprop.1
 3971              	.LVL518:
 3972              		.loc 1 785 0
 3973 0070 7342     		negs	r3, r6
 3974 0072 0F2B     		cmp	r3, #15
 3975 0074 96BF     		itet	ls
 3976 0076 104A     		ldrls	r2, .L449+12
 3977 0078 0523     		movhi	r3, #5
 3978 007a 52F82330 		ldrls	r3, [r2, r3, lsl #2]
 3979 007e 2B61     		str	r3, [r5, #16]
 3980              		.loc 1 786 0
 3981 0080 26B1     		cbz	r6, .L448
 3982              	.L442:
 3983              		.loc 1 766 0
 3984 0082 4FF0FF30 		mov	r0, #-1
 3985              		.loc 1 787 0
 3986 0086 04B0     		add	sp, sp, #16
 3987              		.cfi_remember_state
 3988              		.cfi_def_cfa_offset 24
 3989              		@ sp needed
 3990 0088 BDE8F081 		pop	{r4, r5, r6, r7, r8, pc}
 3991              	.LVL519:
 3992              	.L448:
 3993              		.cfi_restore_state
 3994              		.loc 1 786 0 discriminator 1
 3995 008c 0398     		ldr	r0, [sp, #12]
 3996              		.loc 1 787 0 discriminator 1
 3997 008e 04B0     		add	sp, sp, #16
 3998              		.cfi_remember_state
 3999              		.cfi_def_cfa_offset 24
 4000              		@ sp needed
 4001 0090 BDE8F081 		pop	{r4, r5, r6, r7, r8, pc}
 4002              	.LVL520:
 4003              	.L447:
 4004              		.cfi_restore_state
 4005              		.loc 1 771 0
 4006 0094 0025     		movs	r5, #0
 4007              	.LVL521:
 4008 0096 2046     		mov	r0, r4
 4009 0098 4146     		mov	r1, r8
 4010 009a 3A46     		mov	r2, r7
 4011 009c 3346     		mov	r3, r6
 4012 009e 0095     		str	r5, [sp]
 4013 00a0 0195     		str	r5, [sp, #4]
 4014 00a2 FFF7FEFF 		bl	lwip_sendto
 4015              	.LVL522:
 4016              		.loc 1 787 0
 4017 00a6 04B0     		add	sp, sp, #16
 4018              		.cfi_def_cfa_offset 24
 4019              		@ sp needed
 4020 00a8 BDE8F081 		pop	{r4, r5, r6, r7, r8, pc}
 4021              	.LVL523:
 4022              	.L450:
 4023              		.align	2
 4024              	.L449:
 4025 00ac 00000000 		.word	itm_port
 4026 00b0 18090000 		.word	.LC66
ARM GAS  C:\Users\jo\AppData\Local\Temp\ccpKXchH.s 			page 72


 4027 00b4 48090000 		.word	.LC67
 4028 00b8 00000000 		.word	.LANCHOR1
 4029              		.cfi_endproc
 4030              	.LFE269:
 4031              		.size	lwip_send, .-lwip_send
 4032 00bc AFF30080 		.section	.text.lwip_socket,"ax",%progbits
 4033              		.align	2
 4034              		.p2align 4,,15
 4035              		.global	lwip_socket
 4036              		.thumb
 4037              		.thumb_func
 4038              		.type	lwip_socket, %function
 4039              	lwip_socket:
 4040              	.LFB271:
 4041              		.loc 1 949 0
 4042              		.cfi_startproc
 4043              		@ args = 0, pretend = 0, frame = 0
 4044              		@ frame_needed = 0, uses_anonymous_args = 0
 4045              	.LVL524:
 4046 0000 F0B5     		push	{r4, r5, r6, r7, lr}
 4047              		.cfi_def_cfa_offset 20
 4048              		.cfi_offset 4, -20
 4049              		.cfi_offset 5, -16
 4050              		.cfi_offset 6, -12
 4051              		.cfi_offset 7, -8
 4052              		.cfi_offset 14, -4
 4053              		.loc 1 956 0
 4054 0002 0229     		cmp	r1, #2
 4055              		.loc 1 949 0
 4056 0004 83B0     		sub	sp, sp, #12
 4057              		.cfi_def_cfa_offset 32
 4058              		.loc 1 949 0
 4059 0006 0646     		mov	r6, r0
 4060 0008 1446     		mov	r4, r2
 4061              		.loc 1 956 0
 4062 000a 4CD0     		beq	.L453
 4063 000c 0329     		cmp	r1, #3
 4064 000e 31D0     		beq	.L454
 4065 0010 0129     		cmp	r1, #1
 4066 0012 0AD0     		beq	.L476
 4067              		.loc 1 978 0 discriminator 1
 4068 0014 0092     		str	r2, [sp]
 4069 0016 0B46     		mov	r3, r1
 4070 0018 0246     		mov	r2, r0
 4071              	.LVL525:
 4072 001a 3049     		ldr	r1, .L478
 4073              	.LVL526:
 4074 001c 3048     		ldr	r0, .L478+4
 4075              	.LVL527:
 4076 001e FFF7FEFF 		bl	chprintf.constprop.1
 4077              	.LVL528:
 4078              		.loc 1 981 0 discriminator 1
 4079 0022 4FF0FF30 		mov	r0, #-1
 4080              	.LVL529:
 4081              	.L462:
 4082              		.loc 1 1001 0
 4083 0026 03B0     		add	sp, sp, #12
ARM GAS  C:\Users\jo\AppData\Local\Temp\ccpKXchH.s 			page 73


 4084              		.cfi_remember_state
 4085              		.cfi_def_cfa_offset 20
 4086              		@ sp needed
 4087 0028 F0BD     		pop	{r4, r5, r6, r7, pc}
 4088              	.LVL530:
 4089              	.L476:
 4090              		.cfi_restore_state
 4091              		.loc 1 969 0
 4092 002a 0021     		movs	r1, #0
 4093              	.LVL531:
 4094 002c 2D4A     		ldr	r2, .L478+8
 4095              	.LVL532:
 4096              		.loc 1 970 0
 4097 002e 2E4F     		ldr	r7, .L478+12
 4098              		.loc 1 969 0
 4099 0030 1020     		movs	r0, #16
 4100              	.LVL533:
 4101 0032 FFF7FEFF 		bl	netconn_new_with_proto_and_callback
 4102              	.LVL534:
 4103              		.loc 1 970 0
 4104 0036 2D4A     		ldr	r2, .L478+16
 4105 0038 2D49     		ldr	r1, .L478+20
 4106              		.loc 1 969 0
 4107 003a 0546     		mov	r5, r0
 4108              	.LVL535:
 4109              		.loc 1 970 0
 4110 003c 2346     		mov	r3, r4
 4111 003e 2848     		ldr	r0, .L478+4
 4112              	.LVL536:
 4113 0040 022E     		cmp	r6, #2
 4114 0042 08BF     		it	eq
 4115 0044 3A46     		moveq	r2, r7
 4116 0046 FFF7FEFF 		bl	chprintf.constprop.1
 4117              	.LVL537:
 4118              		.loc 1 972 0
 4119 004a 2DB3     		cbz	r5, .L464
 4120              		.loc 1 974 0 discriminator 1
 4121 004c 2B7F     		ldrb	r3, [r5, #28]	@ zero_extendqisi2
 4122 004e 43F00803 		orr	r3, r3, #8
 4123 0052 2B77     		strb	r3, [r5, #28]
 4124              	.L463:
 4125              		.loc 1 990 0
 4126 0054 2846     		mov	r0, r5
 4127 0056 0021     		movs	r1, #0
 4128 0058 FFF7FEFF 		bl	alloc_socket
 4129              	.LVL538:
 4130              		.loc 1 992 0
 4131 005c 431C     		adds	r3, r0, #1
 4132              		.loc 1 990 0
 4133 005e 0446     		mov	r4, r0
 4134              	.LVL539:
 4135              		.loc 1 992 0
 4136 0060 37D0     		beq	.L477
 4137              		.loc 1 997 0
 4138 0062 A861     		str	r0, [r5, #24]
 4139              		.loc 1 998 0
 4140 0064 2349     		ldr	r1, .L478+24
ARM GAS  C:\Users\jo\AppData\Local\Temp\ccpKXchH.s 			page 74


 4141 0066 1E48     		ldr	r0, .L478+4
 4142              	.LVL540:
 4143 0068 2246     		mov	r2, r4
 4144 006a FFF7FEFF 		bl	chprintf.constprop.1
 4145              	.LVL541:
 4146              		.loc 1 1000 0
 4147 006e 2046     		mov	r0, r4
 4148              		.loc 1 1001 0
 4149 0070 03B0     		add	sp, sp, #12
 4150              		.cfi_remember_state
 4151              		.cfi_def_cfa_offset 20
 4152              		@ sp needed
 4153 0072 F0BD     		pop	{r4, r5, r6, r7, pc}
 4154              	.LVL542:
 4155              	.L454:
 4156              		.cfi_restore_state
 4157              		.loc 1 958 0
 4158 0074 D1B2     		uxtb	r1, r2
 4159              	.LVL543:
 4160 0076 4020     		movs	r0, #64
 4161              	.LVL544:
 4162 0078 1A4A     		ldr	r2, .L478+8
 4163              	.LVL545:
 4164              		.loc 1 959 0
 4165 007a 1B4F     		ldr	r7, .L478+12
 4166              		.loc 1 958 0
 4167 007c FFF7FEFF 		bl	netconn_new_with_proto_and_callback
 4168              	.LVL546:
 4169              		.loc 1 959 0
 4170 0080 1A4A     		ldr	r2, .L478+16
 4171 0082 1D49     		ldr	r1, .L478+28
 4172              		.loc 1 958 0
 4173 0084 0546     		mov	r5, r0
 4174              	.LVL547:
 4175              		.loc 1 959 0
 4176 0086 2346     		mov	r3, r4
 4177 0088 1548     		ldr	r0, .L478+4
 4178              	.LVL548:
 4179 008a 022E     		cmp	r6, #2
 4180 008c 08BF     		it	eq
 4181 008e 3A46     		moveq	r2, r7
 4182 0090 FFF7FEFF 		bl	chprintf.constprop.1
 4183              	.LVL549:
 4184              		.loc 1 984 0
 4185 0094 002D     		cmp	r5, #0
 4186 0096 DDD1     		bne	.L463
 4187              	.L464:
 4188              	.LVL550:
 4189              		.loc 1 985 0
 4190 0098 1148     		ldr	r0, .L478+4
 4191 009a 1849     		ldr	r1, .L478+32
 4192 009c FFF7FEFF 		bl	chprintf.constprop.1
 4193              	.LVL551:
 4194              		.loc 1 987 0
 4195 00a0 4FF0FF30 		mov	r0, #-1
 4196 00a4 BFE7     		b	.L462
 4197              	.LVL552:
ARM GAS  C:\Users\jo\AppData\Local\Temp\ccpKXchH.s 			page 75


 4198              	.L453:
 4199              		.loc 1 963 0
 4200 00a6 882A     		cmp	r2, #136
 4201 00a8 0CBF     		ite	eq
 4202 00aa 2120     		moveq	r0, #33
 4203              	.LVL553:
 4204 00ac 2020     		movne	r0, #32
 4205 00ae 0021     		movs	r1, #0
 4206              	.LVL554:
 4207 00b0 0C4A     		ldr	r2, .L478+8
 4208              	.LVL555:
 4209              		.loc 1 965 0
 4210 00b2 0D4F     		ldr	r7, .L478+12
 4211              		.loc 1 963 0
 4212 00b4 FFF7FEFF 		bl	netconn_new_with_proto_and_callback
 4213              	.LVL556:
 4214              		.loc 1 965 0
 4215 00b8 0C4A     		ldr	r2, .L478+16
 4216 00ba 1149     		ldr	r1, .L478+36
 4217              		.loc 1 963 0
 4218 00bc 0546     		mov	r5, r0
 4219              	.LVL557:
 4220              		.loc 1 965 0
 4221 00be 2346     		mov	r3, r4
 4222 00c0 0748     		ldr	r0, .L478+4
 4223              	.LVL558:
 4224 00c2 022E     		cmp	r6, #2
 4225 00c4 08BF     		it	eq
 4226 00c6 3A46     		moveq	r2, r7
 4227 00c8 FFF7FEFF 		bl	chprintf.constprop.1
 4228              	.LVL559:
 4229              		.loc 1 984 0
 4230 00cc 002D     		cmp	r5, #0
 4231 00ce C1D1     		bne	.L463
 4232 00d0 E2E7     		b	.L464
 4233              	.LVL560:
 4234              	.L477:
 4235              		.loc 1 993 0
 4236 00d2 2846     		mov	r0, r5
 4237              	.LVL561:
 4238 00d4 FFF7FEFF 		bl	netconn_delete
 4239              	.LVL562:
 4240              		.loc 1 995 0
 4241 00d8 2046     		mov	r0, r4
 4242 00da A4E7     		b	.L462
 4243              	.L479:
 4244              		.align	2
 4245              	.L478:
 4246 00dc 140A0000 		.word	.LC74
 4247 00e0 00000000 		.word	itm_port
 4248 00e4 00000000 		.word	event_callback
 4249 00e8 6C090000 		.word	.LC68
 4250 00ec 74090000 		.word	.LC69
 4251 00f0 C4090000 		.word	.LC72
 4252 00f4 3C0A0000 		.word	.LC75
 4253 00f8 7C090000 		.word	.LC70
 4254 00fc E8090000 		.word	.LC73
ARM GAS  C:\Users\jo\AppData\Local\Temp\ccpKXchH.s 			page 76


 4255 0100 A0090000 		.word	.LC71
 4256              		.cfi_endproc
 4257              	.LFE271:
 4258              		.size	lwip_socket, .-lwip_socket
 4259 0104 AFF30080 		.section	.text.lwip_write,"ax",%progbits
 4259      AFF30080 
 4259      AFF30080 
 4260              		.align	2
 4261              		.p2align 4,,15
 4262              		.global	lwip_write
 4263              		.thumb
 4264              		.thumb_func
 4265              		.type	lwip_write, %function
 4266              	lwip_write:
 4267              	.LFB272:
 4268              		.loc 1 1005 0
 4269              		.cfi_startproc
 4270              		@ args = 0, pretend = 0, frame = 0
 4271              		@ frame_needed = 0, uses_anonymous_args = 0
 4272              		@ link register save eliminated.
 4273              	.LVL563:
 4274              		.loc 1 1006 0
 4275 0000 0023     		movs	r3, #0
 4276 0002 FFF7FEBF 		b	lwip_send
 4277              	.LVL564:
 4278              		.cfi_endproc
 4279              	.LFE272:
 4280              		.size	lwip_write, .-lwip_write
 4281 0006 00BFAFF3 		.section	.text.lwip_select,"ax",%progbits
 4281      0080AFF3 
 4281      0080
 4282              		.align	2
 4283              		.p2align 4,,15
 4284              		.global	lwip_select
 4285              		.thumb
 4286              		.thumb_func
 4287              		.type	lwip_select, %function
 4288              	lwip_select:
 4289              	.LFB274:
 4290              		.loc 1 1090 0
 4291              		.cfi_startproc
 4292              		@ args = 4, pretend = 0, frame = 72
 4293              		@ frame_needed = 0, uses_anonymous_args = 0
 4294              	.LVL565:
 4295 0000 2DE9F04F 		push	{r4, r5, r6, r7, r8, r9, r10, fp, lr}
 4296              		.cfi_def_cfa_offset 36
 4297              		.cfi_offset 4, -36
 4298              		.cfi_offset 5, -32
 4299              		.cfi_offset 6, -28
 4300              		.cfi_offset 7, -24
 4301              		.cfi_offset 8, -20
 4302              		.cfi_offset 9, -16
 4303              		.cfi_offset 10, -12
 4304              		.cfi_offset 11, -8
 4305              		.cfi_offset 14, -4
 4306 0004 97B0     		sub	sp, sp, #92
 4307              		.cfi_def_cfa_offset 128
ARM GAS  C:\Users\jo\AppData\Local\Temp\ccpKXchH.s 			page 77


 4308              		.loc 1 1090 0
 4309 0006 0746     		mov	r7, r0
 4310 0008 DDF880B0 		ldr	fp, [sp, #128]
 4311 000c 0D46     		mov	r5, r1
 4312 000e 1646     		mov	r6, r2
 4313 0010 9846     		mov	r8, r3
 4314              		.loc 1 1100 0
 4315 0012 BBF1000F 		cmp	fp, #0
 4316 0016 00F03581 		beq	.L482
 4317              		.loc 1 1100 0 is_stmt 0 discriminator 2
 4318 001a 9BE80C00 		ldmia	fp, {r2, r3}
 4319              	.LVL566:
 4320              		.loc 1 1107 0 is_stmt 1 discriminator 2
 4321 001e 0DF12C0E 		add	lr, sp, #44
 4322              		.loc 1 1100 0 discriminator 2
 4323 0022 0292     		str	r2, [sp, #8]
 4324 0024 0393     		str	r3, [sp, #12]
 4325 0026 AC49     		ldr	r1, .L587
 4326              	.LVL567:
 4327 0028 AC48     		ldr	r0, .L587+4
 4328              	.LVL568:
 4329              		.loc 1 1107 0 discriminator 2
 4330 002a CDF818E0 		str	lr, [sp, #24]
 4331              		.loc 1 1100 0 discriminator 2
 4332 002e 3A46     		mov	r2, r7
 4333 0030 2B46     		mov	r3, r5
 4334              		.loc 1 1107 0 discriminator 2
 4335 0032 09AC     		add	r4, sp, #36
 4336              		.loc 1 1100 0 discriminator 2
 4337 0034 8DE84001 		stmia	sp, {r6, r8}
 4338              		.loc 1 1107 0 discriminator 2
 4339 0038 0594     		str	r4, [sp, #20]
 4340              		.loc 1 1100 0 discriminator 2
 4341 003a FFF7FEFF 		bl	chprintf.constprop.1
 4342              	.LVL569:
 4343              		.loc 1 1107 0 discriminator 2
 4344 003e 059C     		ldr	r4, [sp, #20]
 4345 0040 0094     		str	r4, [sp]
 4346 0042 0DF1340A 		add	r10, sp, #52
 4347 0046 069C     		ldr	r4, [sp, #24]
 4348 0048 0194     		str	r4, [sp, #4]
 4349 004a CDF808A0 		str	r10, [sp, #8]
 4350 004e 3846     		mov	r0, r7
 4351 0050 2946     		mov	r1, r5
 4352 0052 3246     		mov	r2, r6
 4353 0054 4346     		mov	r3, r8
 4354 0056 FFF7FEFF 		bl	lwip_selscan
 4355              	.LVL570:
 4356              		.loc 1 1110 0 discriminator 2
 4357 005a 8146     		mov	r9, r0
 4358 005c 0028     		cmp	r0, #0
 4359 005e 40F0B280 		bne	.L483
 4360              		.loc 1 1111 0 discriminator 1
 4361 0062 DBF80030 		ldr	r3, [fp]
 4362 0066 002B     		cmp	r3, #0
 4363 0068 00F0CA80 		beq	.L578
 4364              	.L484:
ARM GAS  C:\Users\jo\AppData\Local\Temp\ccpKXchH.s 			page 78


 4365              		.loc 1 1123 0
 4366 006c 0023     		movs	r3, #0
 4367              		.loc 1 1129 0
 4368 006e 1946     		mov	r1, r3
 4369 0070 15A8     		add	r0, sp, #84
 4370              	.LVL571:
 4371              		.loc 1 1125 0
 4372 0072 1195     		str	r5, [sp, #68]
 4373              		.loc 1 1126 0
 4374 0074 1296     		str	r6, [sp, #72]
 4375              		.loc 1 1127 0
 4376 0076 CDF84C80 		str	r8, [sp, #76]
 4377              		.loc 1 1123 0
 4378 007a 0F93     		str	r3, [sp, #60]
 4379              		.loc 1 1124 0
 4380 007c 1093     		str	r3, [sp, #64]
 4381              		.loc 1 1128 0
 4382 007e 1493     		str	r3, [sp, #80]
 4383              		.loc 1 1129 0
 4384 0080 FFF7FEFF 		bl	sys_sem_new
 4385              	.LVL572:
 4386              		.loc 1 1130 0
 4387 0084 0028     		cmp	r0, #0
 4388 0086 40F07A81 		bne	.L522
 4389              		.loc 1 1140 0
 4390 008a 954B     		ldr	r3, .L587+8
 4391 008c 1B68     		ldr	r3, [r3]
 4392 008e 0F93     		str	r3, [sp, #60]
 4393              		.loc 1 1141 0
 4394 0090 0BB1     		cbz	r3, .L487
 4395              		.loc 1 1142 0
 4396 0092 0FAA     		add	r2, sp, #60
 4397 0094 5A60     		str	r2, [r3, #4]
 4398              	.L487:
 4399              		.loc 1 1144 0
 4400 0096 924B     		ldr	r3, .L587+8
 4401 0098 0FAA     		add	r2, sp, #60
 4402 009a 1A60     		str	r2, [r3]
 4403              		.loc 1 1146 0
 4404 009c 914B     		ldr	r3, .L587+12
 4405 009e 914A     		ldr	r2, .L587+12
 4406 00a0 1B68     		ldr	r3, [r3]
 4407              		.loc 1 1152 0
 4408 00a2 002F     		cmp	r7, #0
 4409              		.loc 1 1146 0
 4410 00a4 03F10103 		add	r3, r3, #1
 4411 00a8 1360     		str	r3, [r2]
 4412              	.LVL573:
 4413              		.loc 1 1152 0
 4414 00aa 40F33E81 		ble	.L488
 4415 00ae DFF85492 		ldr	r9, .L587+44
 4416              	.LVL574:
 4417 00b2 0024     		movs	r4, #0
 4418              	.LVL575:
 4419              	.L496:
 4420              		.loc 1 1153 0
 4421 00b4 CDB1     		cbz	r5, .L489
ARM GAS  C:\Users\jo\AppData\Local\Temp\ccpKXchH.s 			page 79


 4422              		.loc 1 1153 0 is_stmt 0 discriminator 1
 4423 00b6 6309     		lsrs	r3, r4, #5
 4424 00b8 04F01F02 		and	r2, r4, #31
 4425 00bc 55F82330 		ldr	r3, [r5, r3, lsl #2]
 4426 00c0 1341     		asrs	r3, r3, r2
 4427 00c2 DA07     		lsls	r2, r3, #31
 4428 00c4 11D5     		bpl	.L489
 4429              	.L490:
 4430              	.LVL576:
 4431              	.LBB155:
 4432              	.LBB156:
 4433              	.LBB157:
 4434              		.loc 1 225 0 is_stmt 1
 4435 00c6 012C     		cmp	r4, #1
 4436 00c8 40F27681 		bls	.L579
 4437              	.L495:
 4438              	.LBE157:
 4439              	.LBE156:
 4440              		.loc 1 1157 0
 4441 00cc 864B     		ldr	r3, .L587+16
 4442 00ce 8348     		ldr	r0, .L587+4
 4443 00d0 8649     		ldr	r1, .L587+20
 4444 00d2 874A     		ldr	r2, .L587+24
 4445 00d4 0093     		str	r3, [sp]
 4446 00d6 40F28543 		movw	r3, #1157
 4447              	.LVL577:
 4448              	.L574:
 4449              	.LBE155:
 4450              	.LBB162:
 4451              		.loc 1 1189 0
 4452 00da FFF7FEFF 		bl	chprintf.constprop.1
 4453              	.LVL578:
 4454              	.LBB163:
 4455              	.LBB164:
 4456              		.loc 3 414 0
 4457 00de 8448     		ldr	r0, .L587+24
 4458 00e0 FFF7FEFF 		bl	chSysHalt
 4459              	.LVL579:
 4460              	.LBE164:
 4461              	.LBE163:
 4462              		.loc 1 1191 0
 4463 00e4 0023     		movs	r3, #0
 4464 00e6 5B69     		ldr	r3, [r3, #20]
 4465 00e8 FFDE     		.inst	0xdeff
 4466              	.LVL580:
 4467              	.L489:
 4468              	.LBE162:
 4469              		.loc 1 1153 0 discriminator 3
 4470 00ea 3EB1     		cbz	r6, .L491
 4471              		.loc 1 1154 0
 4472 00ec 6309     		lsrs	r3, r4, #5
 4473 00ee 04F01F02 		and	r2, r4, #31
 4474 00f2 56F82330 		ldr	r3, [r6, r3, lsl #2]
 4475 00f6 1341     		asrs	r3, r3, r2
 4476 00f8 DB07     		lsls	r3, r3, #31
 4477 00fa E4D4     		bmi	.L490
 4478              	.L491:
ARM GAS  C:\Users\jo\AppData\Local\Temp\ccpKXchH.s 			page 80


 4479              		.loc 1 1154 0 is_stmt 0 discriminator 1
 4480 00fc B8F1000F 		cmp	r8, #0
 4481 0100 07D0     		beq	.L493
 4482              		.loc 1 1155 0 is_stmt 1
 4483 0102 6309     		lsrs	r3, r4, #5
 4484 0104 04F01F02 		and	r2, r4, #31
 4485 0108 58F82330 		ldr	r3, [r8, r3, lsl #2]
 4486 010c 1341     		asrs	r3, r3, r2
 4487 010e D807     		lsls	r0, r3, #31
 4488 0110 D9D4     		bmi	.L490
 4489              	.L493:
 4490              		.loc 1 1152 0 discriminator 2
 4491 0112 0134     		adds	r4, r4, #1
 4492              	.LVL581:
 4493 0114 BC42     		cmp	r4, r7
 4494 0116 09F11809 		add	r9, r9, #24
 4495 011a CBD1     		bne	.L496
 4496              		.loc 1 1167 0
 4497 011c 059B     		ldr	r3, [sp, #20]
 4498 011e 0093     		str	r3, [sp]
 4499 0120 069B     		ldr	r3, [sp, #24]
 4500 0122 0193     		str	r3, [sp, #4]
 4501 0124 CDF808A0 		str	r10, [sp, #8]
 4502 0128 3846     		mov	r0, r7
 4503 012a 2946     		mov	r1, r5
 4504 012c 3246     		mov	r2, r6
 4505 012e 4346     		mov	r3, r8
 4506 0130 FFF7FEFF 		bl	lwip_selscan
 4507              	.LVL582:
 4508              		.loc 1 1168 0
 4509 0134 8146     		mov	r9, r0
 4510 0136 0028     		cmp	r0, #0
 4511 0138 6CD1     		bne	.L580
 4512              		.loc 1 1170 0
 4513 013a BBF1000F 		cmp	fp, #0
 4514 013e 00F05581 		beq	.L581
 4515              	.LVL583:
 4516              	.L520:
 4517              		.loc 1 1174 0
 4518 0142 DBF80430 		ldr	r3, [fp, #4]
 4519 0146 6B49     		ldr	r1, .L587+28
 4520 0148 DBF80020 		ldr	r2, [fp]
 4521 014c 03F5FA73 		add	r3, r3, #500
 4522 0150 81FB0301 		smull	r0, r1, r1, r3
 4523              	.LVL584:
 4524 0154 DB17     		asrs	r3, r3, #31
 4525 0156 C3EBA113 		rsb	r3, r3, r1, asr #6
 4526 015a 4FF47A71 		mov	r1, #1000
 4527 015e 01FB0231 		mla	r1, r1, r2, r3
 4528              	.LVL585:
 4529              		.loc 1 1177 0
 4530 0162 0029     		cmp	r1, #0
 4531              	.LVL586:
 4532              		.loc 1 1181 0
 4533 0164 08BF     		it	eq
 4534 0166 0121     		moveq	r1, #1
 4535              	.LVL587:
ARM GAS  C:\Users\jo\AppData\Local\Temp\ccpKXchH.s 			page 81


 4536 0168 15A8     		add	r0, sp, #84
 4537 016a FFF7FEFF 		bl	sys_arch_sem_wait
 4538              	.LVL588:
 4539              		.loc 1 1184 0
 4540 016e 002F     		cmp	r7, #0
 4541              		.loc 1 1181 0
 4542 0170 0790     		str	r0, [sp, #28]
 4543              	.LVL589:
 4544              		.loc 1 1184 0
 4545 0172 4FF00009 		mov	r9, #0
 4546              	.LVL590:
 4547 0176 4FDC     		bgt	.L518
 4548              	.LVL591:
 4549              	.L499:
 4550              		.loc 1 1198 0
 4551 0178 0F9B     		ldr	r3, [sp, #60]
 4552 017a 0BB1     		cbz	r3, .L508
 4553              		.loc 1 1199 0
 4554 017c 109A     		ldr	r2, [sp, #64]
 4555 017e 5A60     		str	r2, [r3, #4]
 4556              	.L508:
 4557              		.loc 1 1201 0
 4558 0180 574A     		ldr	r2, .L587+8
 4559 0182 1268     		ldr	r2, [r2]
 4560 0184 0FA9     		add	r1, sp, #60
 4561 0186 8A42     		cmp	r2, r1
 4562              		.loc 1 1202 0
 4563 0188 109A     		ldr	r2, [sp, #64]
 4564              		.loc 1 1201 0
 4565 018a 00F0BD80 		beq	.L582
 4566              		.loc 1 1205 0
 4567 018e 002A     		cmp	r2, #0
 4568 0190 00F0E680 		beq	.L583
 4569              	.L512:
 4570              		.loc 1 1206 0
 4571 0194 1360     		str	r3, [r2]
 4572              	.L511:
 4573              		.loc 1 1209 0
 4574 0196 534B     		ldr	r3, .L587+12
 4575 0198 524A     		ldr	r2, .L587+12
 4576 019a 1B68     		ldr	r3, [r3]
 4577              		.loc 1 1212 0
 4578 019c 15A8     		add	r0, sp, #84
 4579              		.loc 1 1209 0
 4580 019e 0133     		adds	r3, r3, #1
 4581 01a0 1360     		str	r3, [r2]
 4582              		.loc 1 1212 0
 4583 01a2 FFF7FEFF 		bl	sys_sem_free
 4584              	.LVL592:
 4585              		.loc 1 1213 0
 4586 01a6 079B     		ldr	r3, [sp, #28]
 4587 01a8 0133     		adds	r3, r3, #1
 4588 01aa 66D0     		beq	.L584
 4589              		.loc 1 1222 0
 4590 01ac 059B     		ldr	r3, [sp, #20]
 4591 01ae 0093     		str	r3, [sp]
 4592 01b0 069B     		ldr	r3, [sp, #24]
ARM GAS  C:\Users\jo\AppData\Local\Temp\ccpKXchH.s 			page 82


 4593 01b2 0193     		str	r3, [sp, #4]
 4594 01b4 CDF808A0 		str	r10, [sp, #8]
 4595 01b8 3846     		mov	r0, r7
 4596 01ba 2946     		mov	r1, r5
 4597 01bc 3246     		mov	r2, r6
 4598 01be 4346     		mov	r3, r8
 4599 01c0 FFF7FEFF 		bl	lwip_selscan
 4600              	.LVL593:
 4601 01c4 8146     		mov	r9, r0
 4602              	.LVL594:
 4603              	.L483:
 4604              		.loc 1 1225 0 discriminator 1
 4605 01c6 4548     		ldr	r0, .L587+4
 4606              	.LVL595:
 4607 01c8 4B49     		ldr	r1, .L587+32
 4608 01ca 4A46     		mov	r2, r9
 4609 01cc FFF7FEFF 		bl	chprintf.constprop.1
 4610              	.LVL596:
 4611              	.L485:
 4612              		.loc 1 1228 0
 4613 01d0 25B1     		cbz	r5, .L514
 4614              		.loc 1 1229 0
 4615 01d2 059B     		ldr	r3, [sp, #20]
 4616 01d4 93E80300 		ldmia	r3, {r0, r1}
 4617 01d8 85E80300 		stmia	r5, {r0, r1}
 4618              	.L514:
 4619              		.loc 1 1231 0
 4620 01dc 26B1     		cbz	r6, .L515
 4621              		.loc 1 1232 0
 4622 01de 069B     		ldr	r3, [sp, #24]
 4623 01e0 93E80300 		ldmia	r3, {r0, r1}
 4624 01e4 86E80300 		stmia	r6, {r0, r1}
 4625              	.L515:
 4626              		.loc 1 1234 0
 4627 01e8 B8F1000F 		cmp	r8, #0
 4628 01ec 6FD0     		beq	.L526
 4629              		.loc 1 1235 0
 4630 01ee 9AE80300 		ldmia	r10, {r0, r1}
 4631 01f2 88E80300 		stmia	r8, {r0, r1}
 4632              		.loc 1 1239 0
 4633 01f6 CC46     		mov	ip, r9
 4634              	.L572:
 4635              		.loc 1 1240 0
 4636 01f8 6046     		mov	r0, ip
 4637 01fa 17B0     		add	sp, sp, #92
 4638              		.cfi_remember_state
 4639              		.cfi_def_cfa_offset 36
 4640              		@ sp needed
 4641 01fc BDE8F08F 		pop	{r4, r5, r6, r7, r8, r9, r10, fp, pc}
 4642              	.LVL597:
 4643              	.L578:
 4644              		.cfi_restore_state
 4645              		.loc 1 1111 0 discriminator 2
 4646 0200 DBF80430 		ldr	r3, [fp, #4]
 4647 0204 002B     		cmp	r3, #0
 4648 0206 7FF431AF 		bne	.L484
 4649              		.loc 1 1112 0 discriminator 1
ARM GAS  C:\Users\jo\AppData\Local\Temp\ccpKXchH.s 			page 83


 4650 020a 3C49     		ldr	r1, .L587+36
 4651 020c 3348     		ldr	r0, .L587+4
 4652              	.LVL598:
 4653 020e FFF7FEFF 		bl	chprintf.constprop.1
 4654              	.LVL599:
 4655              		.loc 1 1115 0 discriminator 1
 4656 0212 DDE7     		b	.L485
 4657              	.LVL600:
 4658              	.L580:
 4659              		.loc 1 1091 0
 4660 0214 0023     		movs	r3, #0
 4661 0216 0793     		str	r3, [sp, #28]
 4662              	.LVL601:
 4663              	.L518:
 4664 0218 DFF8E8B0 		ldr	fp, .L587+44
 4665 021c 0024     		movs	r4, #0
 4666              	.LVL602:
 4667              	.L507:
 4668              		.loc 1 1185 0
 4669 021e 95B1     		cbz	r5, .L500
 4670              		.loc 1 1185 0 is_stmt 0 discriminator 1
 4671 0220 6309     		lsrs	r3, r4, #5
 4672 0222 04F01F02 		and	r2, r4, #31
 4673 0226 55F82330 		ldr	r3, [r5, r3, lsl #2]
 4674 022a 1341     		asrs	r3, r3, r2
 4675 022c D907     		lsls	r1, r3, #31
 4676 022e 0AD5     		bpl	.L500
 4677              	.L501:
 4678              	.LVL603:
 4679              	.LBB171:
 4680              	.LBB165:
 4681              	.LBB166:
 4682              		.loc 1 225 0 is_stmt 1
 4683 0230 012C     		cmp	r4, #1
 4684 0232 40F2A780 		bls	.L585
 4685              	.L506:
 4686              	.LBE166:
 4687              	.LBE165:
 4688              		.loc 1 1189 0
 4689 0236 2C4B     		ldr	r3, .L587+16
 4690 0238 0093     		str	r3, [sp]
 4691 023a 2848     		ldr	r0, .L587+4
 4692 023c 2B49     		ldr	r1, .L587+20
 4693 023e 2C4A     		ldr	r2, .L587+24
 4694 0240 40F2A543 		movw	r3, #1189
 4695 0244 49E7     		b	.L574
 4696              	.LVL604:
 4697              	.L500:
 4698              	.LBE171:
 4699              		.loc 1 1185 0 discriminator 3
 4700 0246 3EB1     		cbz	r6, .L502
 4701              		.loc 1 1186 0
 4702 0248 6309     		lsrs	r3, r4, #5
 4703 024a 04F01F02 		and	r2, r4, #31
 4704 024e 56F82330 		ldr	r3, [r6, r3, lsl #2]
 4705 0252 1341     		asrs	r3, r3, r2
 4706 0254 DA07     		lsls	r2, r3, #31
ARM GAS  C:\Users\jo\AppData\Local\Temp\ccpKXchH.s 			page 84


 4707 0256 EBD4     		bmi	.L501
 4708              	.L502:
 4709              		.loc 1 1186 0 is_stmt 0 discriminator 1
 4710 0258 B8F1000F 		cmp	r8, #0
 4711 025c 07D0     		beq	.L504
 4712              		.loc 1 1187 0 is_stmt 1
 4713 025e 6309     		lsrs	r3, r4, #5
 4714 0260 04F01F02 		and	r2, r4, #31
 4715 0264 58F82330 		ldr	r3, [r8, r3, lsl #2]
 4716 0268 1341     		asrs	r3, r3, r2
 4717 026a DB07     		lsls	r3, r3, #31
 4718 026c E0D4     		bmi	.L501
 4719              	.L504:
 4720              		.loc 1 1184 0 discriminator 2
 4721 026e 0134     		adds	r4, r4, #1
 4722              	.LVL605:
 4723 0270 A742     		cmp	r7, r4
 4724 0272 0BF1180B 		add	fp, fp, #24
 4725 0276 D2DC     		bgt	.L507
 4726 0278 7EE7     		b	.L499
 4727              	.LVL606:
 4728              	.L584:
 4729              		.loc 1 1215 0 discriminator 1
 4730 027a 2149     		ldr	r1, .L587+40
 4731 027c 1748     		ldr	r0, .L587+4
 4732 027e FFF7FEFF 		bl	chprintf.constprop.1
 4733              	.LVL607:
 4734              		.loc 1 1218 0 discriminator 1
 4735 0282 A5E7     		b	.L485
 4736              	.LVL608:
 4737              	.L482:
 4738              		.loc 1 1100 0
 4739 0284 4FF0FF33 		mov	r3, #-1
 4740              	.LVL609:
 4741              		.loc 1 1107 0
 4742 0288 0DF12C0E 		add	lr, sp, #44
 4743              		.loc 1 1100 0
 4744 028c 0293     		str	r3, [sp, #8]
 4745 028e 0393     		str	r3, [sp, #12]
 4746 0290 1149     		ldr	r1, .L587
 4747              	.LVL610:
 4748 0292 1248     		ldr	r0, .L587+4
 4749              	.LVL611:
 4750              		.loc 1 1107 0
 4751 0294 CDF818E0 		str	lr, [sp, #24]
 4752              		.loc 1 1100 0
 4753 0298 3A46     		mov	r2, r7
 4754              	.LVL612:
 4755 029a 2B46     		mov	r3, r5
 4756              		.loc 1 1107 0
 4757 029c 09AC     		add	r4, sp, #36
 4758              		.loc 1 1100 0
 4759 029e 8DE84001 		stmia	sp, {r6, r8}
 4760              		.loc 1 1107 0
 4761 02a2 0594     		str	r4, [sp, #20]
 4762              		.loc 1 1100 0
 4763 02a4 FFF7FEFF 		bl	chprintf.constprop.1
ARM GAS  C:\Users\jo\AppData\Local\Temp\ccpKXchH.s 			page 85


 4764              	.LVL613:
 4765              		.loc 1 1107 0
 4766 02a8 059C     		ldr	r4, [sp, #20]
 4767 02aa 0094     		str	r4, [sp]
 4768 02ac 0DF1340A 		add	r10, sp, #52
 4769 02b0 069C     		ldr	r4, [sp, #24]
 4770 02b2 0194     		str	r4, [sp, #4]
 4771 02b4 CDF808A0 		str	r10, [sp, #8]
 4772 02b8 3846     		mov	r0, r7
 4773 02ba 2946     		mov	r1, r5
 4774 02bc 3246     		mov	r2, r6
 4775 02be 4346     		mov	r3, r8
 4776 02c0 FFF7FEFF 		bl	lwip_selscan
 4777              	.LVL614:
 4778              		.loc 1 1110 0
 4779 02c4 8146     		mov	r9, r0
 4780 02c6 0028     		cmp	r0, #0
 4781 02c8 3FF4D0AE 		beq	.L484
 4782 02cc 7BE7     		b	.L483
 4783              	.LVL615:
 4784              	.L526:
 4785              		.loc 1 1239 0
 4786 02ce CC46     		mov	ip, r9
 4787              		.loc 1 1240 0
 4788 02d0 6046     		mov	r0, ip
 4789 02d2 17B0     		add	sp, sp, #92
 4790              		.cfi_remember_state
 4791              		.cfi_def_cfa_offset 36
 4792              		@ sp needed
 4793 02d4 BDE8F08F 		pop	{r4, r5, r6, r7, r8, r9, r10, fp, pc}
 4794              	.LVL616:
 4795              	.L588:
 4796              		.align	2
 4797              	.L587:
 4798 02d8 400A0000 		.word	.LC76
 4799 02dc 00000000 		.word	itm_port
 4800 02e0 00000000 		.word	.LANCHOR2
 4801 02e4 00000000 		.word	.LANCHOR3
 4802 02e8 3C000000 		.word	.LC4
 4803 02ec 08000000 		.word	.LC2
 4804 02f0 3C0B0000 		.word	.LC84
 4805 02f4 D34D6210 		.word	274877907
 4806 02f8 240B0000 		.word	.LC83
 4807 02fc 740A0000 		.word	.LC77
 4808 0300 040B0000 		.word	.LC82
 4809 0304 00000000 		.word	.LANCHOR0
 4810              	.LVL617:
 4811              	.L582:
 4812              		.cfi_restore_state
 4813              		.loc 1 1202 0
 4814 0308 62B1     		cbz	r2, .L510
 4815              		.loc 1 1202 0 is_stmt 0 discriminator 1
 4816 030a 3B4B     		ldr	r3, .L589
 4817 030c 0093     		str	r3, [sp]
 4818 030e 3B49     		ldr	r1, .L589+4
 4819 0310 3B4A     		ldr	r2, .L589+8
 4820 0312 3C48     		ldr	r0, .L589+12
ARM GAS  C:\Users\jo\AppData\Local\Temp\ccpKXchH.s 			page 86


 4821 0314 40F2B243 		movw	r3, #1202
 4822 0318 FFF7FEFF 		bl	chprintf.constprop.1
 4823              	.LVL618:
 4824              	.LBB172:
 4825              	.LBB173:
 4826              		.loc 3 414 0 is_stmt 1 discriminator 1
 4827 031c 3848     		ldr	r0, .L589+8
 4828 031e FFF7FEFF 		bl	chSysHalt
 4829              	.LVL619:
 4830 0322 0F9B     		ldr	r3, [sp, #60]
 4831              	.LVL620:
 4832              	.L510:
 4833              	.LBE173:
 4834              	.LBE172:
 4835              		.loc 1 1203 0
 4836 0324 384A     		ldr	r2, .L589+16
 4837 0326 1360     		str	r3, [r2]
 4838 0328 35E7     		b	.L511
 4839              	.LVL621:
 4840              	.L488:
 4841              		.loc 1 1167 0
 4842 032a 059B     		ldr	r3, [sp, #20]
 4843 032c 0093     		str	r3, [sp]
 4844 032e 069B     		ldr	r3, [sp, #24]
 4845 0330 0193     		str	r3, [sp, #4]
 4846 0332 CDF808A0 		str	r10, [sp, #8]
 4847 0336 3846     		mov	r0, r7
 4848              	.LVL622:
 4849 0338 2946     		mov	r1, r5
 4850 033a 3246     		mov	r2, r6
 4851 033c 4346     		mov	r3, r8
 4852 033e FFF7FEFF 		bl	lwip_selscan
 4853              	.LVL623:
 4854              		.loc 1 1168 0
 4855 0342 8146     		mov	r9, r0
 4856 0344 48B9     		cbnz	r0, .L586
 4857              		.loc 1 1170 0
 4858 0346 BBF1000F 		cmp	fp, #0
 4859 034a 7FF4FAAE 		bne	.L520
 4860              	.LVL624:
 4861              		.loc 1 1181 0
 4862 034e 15A8     		add	r0, sp, #84
 4863              	.LVL625:
 4864 0350 4946     		mov	r1, r9
 4865 0352 FFF7FEFF 		bl	sys_arch_sem_wait
 4866              	.LVL626:
 4867 0356 0790     		str	r0, [sp, #28]
 4868              	.LVL627:
 4869 0358 0EE7     		b	.L499
 4870              	.LVL628:
 4871              	.L586:
 4872              		.loc 1 1091 0
 4873 035a 0023     		movs	r3, #0
 4874 035c 0793     		str	r3, [sp, #28]
 4875 035e 0BE7     		b	.L499
 4876              	.LVL629:
 4877              	.L583:
ARM GAS  C:\Users\jo\AppData\Local\Temp\ccpKXchH.s 			page 87


 4878              		.loc 1 1205 0 discriminator 1
 4879 0360 254B     		ldr	r3, .L589
 4880 0362 2A4A     		ldr	r2, .L589+20
 4881 0364 0093     		str	r3, [sp]
 4882 0366 2549     		ldr	r1, .L589+4
 4883 0368 2648     		ldr	r0, .L589+12
 4884 036a 40F2B543 		movw	r3, #1205
 4885 036e FFF7FEFF 		bl	chprintf.constprop.1
 4886              	.LVL630:
 4887              	.LBB174:
 4888              	.LBB175:
 4889              		.loc 3 414 0 discriminator 1
 4890 0372 2648     		ldr	r0, .L589+20
 4891 0374 FFF7FEFF 		bl	chSysHalt
 4892              	.LVL631:
 4893 0378 109A     		ldr	r2, [sp, #64]
 4894 037a 0F9B     		ldr	r3, [sp, #60]
 4895 037c 0AE7     		b	.L512
 4896              	.LVL632:
 4897              	.L522:
 4898              	.LBE175:
 4899              	.LBE174:
 4900              		.loc 1 1133 0
 4901 037e 4FF0FF3C 		mov	ip, #-1
 4902 0382 39E7     		b	.L572
 4903              	.LVL633:
 4904              	.L585:
 4905              	.LBB176:
 4906              	.LBB168:
 4907              	.LBB167:
 4908              		.loc 1 228 0
 4909 0384 DBF80030 		ldr	r3, [fp]
 4910 0388 002B     		cmp	r3, #0
 4911 038a 3FF454AF 		beq	.L506
 4912              	.LBE167:
 4913              	.LBE168:
 4914              		.loc 1 1191 0
 4915 038e DBF81430 		ldr	r3, [fp, #20]
 4916 0392 013B     		subs	r3, r3, #1
 4917              		.loc 1 1192 0
 4918 0394 002B     		cmp	r3, #0
 4919              		.loc 1 1191 0
 4920 0396 CBF81430 		str	r3, [fp, #20]
 4921              		.loc 1 1192 0
 4922 039a BFF668AF 		bge	.L504
 4923              		.loc 1 1192 0 is_stmt 0 discriminator 1
 4924 039e 164B     		ldr	r3, .L589
 4925 03a0 0093     		str	r3, [sp]
 4926 03a2 1649     		ldr	r1, .L589+4
 4927 03a4 1A4A     		ldr	r2, .L589+24
 4928 03a6 1748     		ldr	r0, .L589+12
 4929 03a8 4FF49563 		mov	r3, #1192
 4930 03ac FFF7FEFF 		bl	chprintf.constprop.1
 4931              	.LVL634:
 4932              	.LBB169:
 4933              	.LBB170:
 4934              		.loc 3 414 0 is_stmt 1 discriminator 1
ARM GAS  C:\Users\jo\AppData\Local\Temp\ccpKXchH.s 			page 88


 4935 03b0 1748     		ldr	r0, .L589+24
 4936 03b2 FFF7FEFF 		bl	chSysHalt
 4937              	.LVL635:
 4938 03b6 5AE7     		b	.L504
 4939              	.LVL636:
 4940              	.L579:
 4941              	.LBE170:
 4942              	.LBE169:
 4943              	.LBE176:
 4944              	.LBB177:
 4945              	.LBB159:
 4946              	.LBB158:
 4947              		.loc 1 228 0
 4948 03b8 D9F80030 		ldr	r3, [r9]
 4949 03bc 002B     		cmp	r3, #0
 4950 03be 3FF485AE 		beq	.L495
 4951              	.LBE158:
 4952              	.LBE159:
 4953              		.loc 1 1159 0
 4954 03c2 D9F81430 		ldr	r3, [r9, #20]
 4955 03c6 0133     		adds	r3, r3, #1
 4956              		.loc 1 1160 0
 4957 03c8 002B     		cmp	r3, #0
 4958              		.loc 1 1159 0
 4959 03ca C9F81430 		str	r3, [r9, #20]
 4960              		.loc 1 1160 0
 4961 03ce 3FF7A0AE 		bgt	.L493
 4962              		.loc 1 1160 0 is_stmt 0 discriminator 1
 4963 03d2 094B     		ldr	r3, .L589
 4964 03d4 0093     		str	r3, [sp]
 4965 03d6 0949     		ldr	r1, .L589+4
 4966 03d8 0E4A     		ldr	r2, .L589+28
 4967 03da 0A48     		ldr	r0, .L589+12
 4968 03dc 4FF49163 		mov	r3, #1160
 4969 03e0 FFF7FEFF 		bl	chprintf.constprop.1
 4970              	.LVL637:
 4971              	.LBB160:
 4972              	.LBB161:
 4973              		.loc 3 414 0 is_stmt 1 discriminator 1
 4974 03e4 0B48     		ldr	r0, .L589+28
 4975 03e6 FFF7FEFF 		bl	chSysHalt
 4976              	.LVL638:
 4977 03ea 92E6     		b	.L493
 4978              	.LVL639:
 4979              	.L581:
 4980              	.LBE161:
 4981              	.LBE160:
 4982              	.LBE177:
 4983              		.loc 1 1181 0
 4984 03ec 15A8     		add	r0, sp, #84
 4985              	.LVL640:
 4986 03ee 4946     		mov	r1, r9
 4987 03f0 FFF7FEFF 		bl	sys_arch_sem_wait
 4988              	.LVL641:
 4989 03f4 0790     		str	r0, [sp, #28]
 4990              	.LVL642:
 4991 03f6 0FE7     		b	.L518
ARM GAS  C:\Users\jo\AppData\Local\Temp\ccpKXchH.s 			page 89


 4992              	.L590:
 4993              		.align	2
 4994              	.L589:
 4995 03f8 3C000000 		.word	.LC4
 4996 03fc 08000000 		.word	.LC2
 4997 0400 D40A0000 		.word	.LC80
 4998 0404 00000000 		.word	itm_port
 4999 0408 00000000 		.word	.LANCHOR2
 5000 040c EC0A0000 		.word	.LC81
 5001 0410 B80A0000 		.word	.LC79
 5002 0414 9C0A0000 		.word	.LC78
 5003              		.cfi_endproc
 5004              	.LFE274:
 5005              		.size	lwip_select, .-lwip_select
 5006 0418 AFF30080 		.section	.text.lwip_shutdown,"ax",%progbits
 5006      AFF30080 
 5007              		.align	2
 5008              		.p2align 4,,15
 5009              		.global	lwip_shutdown
 5010              		.thumb
 5011              		.thumb_func
 5012              		.type	lwip_shutdown, %function
 5013              	lwip_shutdown:
 5014              	.LFB276:
 5015              		.loc 1 1368 0
 5016              		.cfi_startproc
 5017              		@ args = 0, pretend = 0, frame = 0
 5018              		@ frame_needed = 0, uses_anonymous_args = 0
 5019              	.LVL643:
 5020 0000 38B5     		push	{r3, r4, r5, lr}
 5021              		.cfi_def_cfa_offset 16
 5022              		.cfi_offset 3, -16
 5023              		.cfi_offset 4, -12
 5024              		.cfi_offset 5, -8
 5025              		.cfi_offset 14, -4
 5026              		.loc 1 1373 0
 5027 0002 0246     		mov	r2, r0
 5028              		.loc 1 1368 0
 5029 0004 0446     		mov	r4, r0
 5030              		.loc 1 1373 0
 5031 0006 0B46     		mov	r3, r1
 5032              		.loc 1 1368 0
 5033 0008 0D46     		mov	r5, r1
 5034              		.loc 1 1373 0
 5035 000a 1B48     		ldr	r0, .L603
 5036              	.LVL644:
 5037 000c 1B49     		ldr	r1, .L603+4
 5038              	.LVL645:
 5039 000e FFF7FEFF 		bl	chprintf.constprop.1
 5040              	.LVL646:
 5041              		.loc 1 1375 0
 5042 0012 2046     		mov	r0, r4
 5043 0014 FFF7FEFF 		bl	get_socket
 5044              	.LVL647:
 5045              		.loc 1 1376 0
 5046 0018 0446     		mov	r4, r0
 5047              	.LVL648:
ARM GAS  C:\Users\jo\AppData\Local\Temp\ccpKXchH.s 			page 90


 5048 001a 48B3     		cbz	r0, .L597
 5049              		.loc 1 1380 0
 5050 001c 0068     		ldr	r0, [r0]
 5051              	.LVL649:
 5052 001e 28B1     		cbz	r0, .L593
 5053              		.loc 1 1381 0
 5054 0020 0378     		ldrb	r3, [r0]	@ zero_extendqisi2
 5055 0022 102B     		cmp	r3, #16
 5056 0024 05D0     		beq	.L594
 5057              		.loc 1 1382 0
 5058 0026 5F20     		movs	r0, #95
 5059 0028 2061     		str	r0, [r4, #16]
 5060              		.loc 1 1383 0
 5061 002a 38BD     		pop	{r3, r4, r5, pc}
 5062              	.LVL650:
 5063              	.L593:
 5064              		.loc 1 1386 0
 5065 002c 6B20     		movs	r0, #107
 5066 002e 2061     		str	r0, [r4, #16]
 5067              		.loc 1 1387 0
 5068 0030 38BD     		pop	{r3, r4, r5, pc}
 5069              	.LVL651:
 5070              	.L594:
 5071              		.loc 1 1390 0
 5072 0032 35B1     		cbz	r5, .L598
 5073              		.loc 1 1392 0
 5074 0034 012D     		cmp	r5, #1
 5075 0036 15D0     		beq	.L599
 5076              		.loc 1 1394 0
 5077 0038 022D     		cmp	r5, #2
 5078 003a 16D0     		beq	.L600
 5079              		.loc 1 1398 0
 5080 003c 1620     		movs	r0, #22
 5081 003e 2061     		str	r0, [r4, #16]
 5082              		.loc 1 1399 0
 5083 0040 38BD     		pop	{r3, r4, r5, pc}
 5084              	.LVL652:
 5085              	.L598:
 5086              		.loc 1 1371 0
 5087 0042 2A46     		mov	r2, r5
 5088              		.loc 1 1391 0
 5089 0044 0121     		movs	r1, #1
 5090              	.L595:
 5091              	.LVL653:
 5092              		.loc 1 1401 0
 5093 0046 FFF7FEFF 		bl	netconn_shutdown
 5094              	.LVL654:
 5095              		.loc 1 1403 0
 5096 004a 4342     		negs	r3, r0
 5097 004c 0F2B     		cmp	r3, #15
 5098 004e 96BF     		itet	ls
 5099 0050 0B4A     		ldrls	r2, .L603+8
 5100 0052 0523     		movhi	r3, #5
 5101 0054 52F82330 		ldrls	r3, [r2, r3, lsl #2]
 5102 0058 2361     		str	r3, [r4, #16]
 5103              		.loc 1 1404 0
 5104 005a 0030     		adds	r0, r0, #0
ARM GAS  C:\Users\jo\AppData\Local\Temp\ccpKXchH.s 			page 91


 5105              	.LVL655:
 5106 005c 18BF     		it	ne
 5107 005e 0120     		movne	r0, #1
 5108 0060 4042     		negs	r0, r0
 5109 0062 38BD     		pop	{r3, r4, r5, pc}
 5110              	.LVL656:
 5111              	.L599:
 5112              		.loc 1 1393 0
 5113 0064 2A46     		mov	r2, r5
 5114              		.loc 1 1371 0
 5115 0066 0021     		movs	r1, #0
 5116 0068 EDE7     		b	.L595
 5117              	.L600:
 5118              		.loc 1 1396 0
 5119 006a 0122     		movs	r2, #1
 5120              		.loc 1 1395 0
 5121 006c 1146     		mov	r1, r2
 5122 006e EAE7     		b	.L595
 5123              	.LVL657:
 5124              	.L597:
 5125              		.loc 1 1377 0
 5126 0070 4FF0FF30 		mov	r0, #-1
 5127              	.LVL658:
 5128              		.loc 1 1405 0
 5129 0074 38BD     		pop	{r3, r4, r5, pc}
 5130              	.LVL659:
 5131              	.L604:
 5132 0076 00BF     		.align	2
 5133              	.L603:
 5134 0078 00000000 		.word	itm_port
 5135 007c 4C0B0000 		.word	.LC85
 5136 0080 00000000 		.word	.LANCHOR1
 5137              		.cfi_endproc
 5138              	.LFE276:
 5139              		.size	lwip_shutdown, .-lwip_shutdown
 5140 0084 AFF30080 		.section	.text.lwip_getpeername,"ax",%progbits
 5140      AFF30080 
 5140      AFF30080 
 5141              		.align	2
 5142              		.p2align 4,,15
 5143              		.global	lwip_getpeername
 5144              		.thumb
 5145              		.thumb_func
 5146              		.type	lwip_getpeername, %function
 5147              	lwip_getpeername:
 5148              	.LFB278:
 5149              		.loc 1 1444 0
 5150              		.cfi_startproc
 5151              		@ args = 0, pretend = 0, frame = 0
 5152              		@ frame_needed = 0, uses_anonymous_args = 0
 5153              		@ link register save eliminated.
 5154              	.LVL660:
 5155              		.loc 1 1445 0
 5156 0000 0023     		movs	r3, #0
 5157 0002 FFF7FEBF 		b	lwip_getaddrname
 5158              	.LVL661:
 5159              		.cfi_endproc
ARM GAS  C:\Users\jo\AppData\Local\Temp\ccpKXchH.s 			page 92


 5160              	.LFE278:
 5161              		.size	lwip_getpeername, .-lwip_getpeername
 5162 0006 00BFAFF3 		.section	.text.lwip_getsockname,"ax",%progbits
 5162      0080AFF3 
 5162      0080
 5163              		.align	2
 5164              		.p2align 4,,15
 5165              		.global	lwip_getsockname
 5166              		.thumb
 5167              		.thumb_func
 5168              		.type	lwip_getsockname, %function
 5169              	lwip_getsockname:
 5170              	.LFB279:
 5171              		.loc 1 1450 0
 5172              		.cfi_startproc
 5173              		@ args = 0, pretend = 0, frame = 0
 5174              		@ frame_needed = 0, uses_anonymous_args = 0
 5175              		@ link register save eliminated.
 5176              	.LVL662:
 5177              		.loc 1 1451 0
 5178 0000 0123     		movs	r3, #1
 5179 0002 FFF7FEBF 		b	lwip_getaddrname
 5180              	.LVL663:
 5181              		.cfi_endproc
 5182              	.LFE279:
 5183              		.size	lwip_getsockname, .-lwip_getsockname
 5184 0006 00BFAFF3 		.section	.text.lwip_getsockopt,"ax",%progbits
 5184      0080AFF3 
 5184      0080
 5185              		.align	2
 5186              		.p2align 4,,15
 5187              		.global	lwip_getsockopt
 5188              		.thumb
 5189              		.thumb_func
 5190              		.type	lwip_getsockopt, %function
 5191              	lwip_getsockopt:
 5192              	.LFB280:
 5193              		.loc 1 1456 0
 5194              		.cfi_startproc
 5195              		@ args = 4, pretend = 0, frame = 32
 5196              		@ frame_needed = 0, uses_anonymous_args = 0
 5197              	.LVL664:
 5198 0000 2DE9F047 		push	{r4, r5, r6, r7, r8, r9, r10, lr}
 5199              		.cfi_def_cfa_offset 32
 5200              		.cfi_offset 4, -32
 5201              		.cfi_offset 5, -28
 5202              		.cfi_offset 6, -24
 5203              		.cfi_offset 7, -20
 5204              		.cfi_offset 8, -16
 5205              		.cfi_offset 9, -12
 5206              		.cfi_offset 10, -8
 5207              		.cfi_offset 14, -4
 5208 0004 8AB0     		sub	sp, sp, #40
 5209              		.cfi_def_cfa_offset 72
 5210              		.loc 1 1456 0
 5211 0006 0D46     		mov	r5, r1
 5212 0008 1746     		mov	r7, r2
ARM GAS  C:\Users\jo\AppData\Local\Temp\ccpKXchH.s 			page 93


 5213 000a 9846     		mov	r8, r3
 5214 000c 8246     		mov	r10, r0
 5215 000e 129E     		ldr	r6, [sp, #72]
 5216              		.loc 1 1458 0
 5217 0010 FFF7FEFF 		bl	get_socket
 5218              	.LVL665:
 5219              		.loc 1 1461 0
 5220 0014 0446     		mov	r4, r0
 5221 0016 0028     		cmp	r0, #0
 5222 0018 00F09480 		beq	.L627
 5223              		.loc 1 1465 0
 5224 001c B8F1000F 		cmp	r8, #0
 5225 0020 00F08B80 		beq	.L609
 5226              		.loc 1 1465 0 is_stmt 0 discriminator 1
 5227 0024 002E     		cmp	r6, #0
 5228 0026 00F08880 		beq	.L609
 5229              		.loc 1 1471 0 is_stmt 1
 5230 002a 062D     		cmp	r5, #6
 5231 002c 55D0     		beq	.L612
 5232 002e 40F6FF73 		movw	r3, #4095
 5233 0032 9D42     		cmp	r5, r3
 5234 0034 0ED0     		beq	.L613
 5235 0036 3DB3     		cbz	r5, .L657
 5236              		.loc 1 1624 0 discriminator 1
 5237 0038 2B46     		mov	r3, r5
 5238 003a 0097     		str	r7, [sp]
 5239 003c 5246     		mov	r2, r10
 5240 003e 4348     		ldr	r0, .L661
 5241              	.LVL666:
 5242 0040 4349     		ldr	r1, .L661+4
 5243 0042 FFF7FEFF 		bl	chprintf.constprop.1
 5244              	.LVL667:
 5245 0046 5C23     		movs	r3, #92
 5246              	.LVL668:
 5247              	.L626:
 5248              		.loc 1 1631 0
 5249 0048 2361     		str	r3, [r4, #16]
 5250              		.loc 1 1632 0
 5251 004a 4FF0FF30 		mov	r0, #-1
 5252              	.L650:
 5253              		.loc 1 1652 0
 5254 004e 0AB0     		add	sp, sp, #40
 5255              		.cfi_remember_state
 5256              		.cfi_def_cfa_offset 32
 5257              		@ sp needed
 5258 0050 BDE8F087 		pop	{r4, r5, r6, r7, r8, r9, r10, pc}
 5259              	.LVL669:
 5260              	.L613:
 5261              		.cfi_restore_state
 5262              		.loc 1 1475 0
 5263 0054 202F     		cmp	r7, #32
 5264 0056 1AD0     		beq	.L654
 5265 0058 48DD     		ble	.L658
 5266 005a 41F20703 		movw	r3, #4103
 5267 005e 9F42     		cmp	r7, r3
 5268 0060 48DB     		blt	.L615
 5269 0062 41F20803 		movw	r3, #4104
ARM GAS  C:\Users\jo\AppData\Local\Temp\ccpKXchH.s 			page 94


 5270 0066 9F42     		cmp	r7, r3
 5271 0068 11DD     		ble	.L654
 5272 006a 41F20A03 		movw	r3, #4106
 5273 006e 9F42     		cmp	r7, r3
 5274 0070 40D1     		bne	.L615
 5275              		.loc 1 1513 0
 5276 0072 0268     		ldr	r2, [r0]
 5277              		.loc 1 1509 0
 5278 0074 3368     		ldr	r3, [r6]
 5279              		.loc 1 1513 0
 5280 0076 1178     		ldrb	r1, [r2]	@ zero_extendqisi2
 5281              		.loc 1 1510 0
 5282 0078 032B     		cmp	r3, #3
 5283 007a 8CBF     		ite	hi
 5284 007c 0023     		movhi	r3, #0
 5285 007e 1623     		movls	r3, #22
 5286              	.LVL670:
 5287              		.loc 1 1513 0
 5288 0080 2029     		cmp	r1, #32
 5289 0082 52D0     		beq	.L659
 5290              	.L631:
 5291 0084 6123     		movs	r3, #97
 5292              	.LVL671:
 5293 0086 DFE7     		b	.L626
 5294              	.LVL672:
 5295              	.L657:
 5296              		.loc 1 1530 0
 5297 0088 7B1E     		subs	r3, r7, #1
 5298 008a 012B     		cmp	r3, #1
 5299 008c 3AD8     		bhi	.L623
 5300              	.L654:
 5301              		.loc 1 1536 0
 5302 008e 3368     		ldr	r3, [r6]
 5303 0090 032B     		cmp	r3, #3
 5304 0092 01D8     		bhi	.L620
 5305              	.L633:
 5306 0094 1623     		movs	r3, #22
 5307              	.LVL673:
 5308 0096 D7E7     		b	.L626
 5309              	.L620:
 5310              		.loc 1 1644 0
 5311 0098 4FF00009 		mov	r9, #0
 5312              		.loc 1 1645 0
 5313 009c 03A9     		add	r1, sp, #12
 5314 009e 0122     		movs	r2, #1
 5315 00a0 2C48     		ldr	r0, .L661+8
 5316              	.LVL674:
 5317              		.loc 1 1636 0
 5318 00a2 0394     		str	r4, [sp, #12]
 5319              		.loc 1 1638 0
 5320 00a4 CDF810A0 		str	r10, [sp, #16]
 5321              		.loc 1 1640 0
 5322 00a8 0595     		str	r5, [sp, #20]
 5323              		.loc 1 1641 0
 5324 00aa 0697     		str	r7, [sp, #24]
 5325              		.loc 1 1642 0
 5326 00ac CDF81C80 		str	r8, [sp, #28]
ARM GAS  C:\Users\jo\AppData\Local\Temp\ccpKXchH.s 			page 95


 5327              		.loc 1 1643 0
 5328 00b0 0896     		str	r6, [sp, #32]
 5329              		.loc 1 1644 0
 5330 00b2 8DF82490 		strb	r9, [sp, #36]
 5331              		.loc 1 1645 0
 5332 00b6 FFF7FEFF 		bl	tcpip_callback_with_block
 5333              	.LVL675:
 5334              		.loc 1 1646 0
 5335 00ba 2068     		ldr	r0, [r4]
 5336 00bc 4946     		mov	r1, r9
 5337 00be 0C30     		adds	r0, r0, #12
 5338 00c0 FFF7FEFF 		bl	sys_arch_sem_wait
 5339              	.LVL676:
 5340              		.loc 1 1650 0
 5341 00c4 9DF92400 		ldrsb	r0, [sp, #36]
 5342 00c8 2061     		str	r0, [r4, #16]
 5343              	.LVL677:
 5344              		.loc 1 1651 0
 5345 00ca B0EB0900 		subs	r0, r0, r9
 5346              	.LVL678:
 5347 00ce 18BF     		it	ne
 5348 00d0 0120     		movne	r0, #1
 5349 00d2 4042     		negs	r0, r0
 5350              		.loc 1 1652 0
 5351 00d4 0AB0     		add	sp, sp, #40
 5352              		.cfi_remember_state
 5353              		.cfi_def_cfa_offset 32
 5354              		@ sp needed
 5355 00d6 BDE8F087 		pop	{r4, r5, r6, r7, r8, r9, r10, pc}
 5356              	.LVL679:
 5357              	.L612:
 5358              		.cfi_restore_state
 5359              		.loc 1 1571 0
 5360 00da 3368     		ldr	r3, [r6]
 5361 00dc 032B     		cmp	r3, #3
 5362 00de D9D9     		bls	.L633
 5363              		.loc 1 1577 0
 5364 00e0 0368     		ldr	r3, [r0]
 5365 00e2 1B78     		ldrb	r3, [r3]	@ zero_extendqisi2
 5366 00e4 102B     		cmp	r3, #16
 5367 00e6 15D0     		beq	.L660
 5368              		.loc 1 1578 0
 5369 00e8 0020     		movs	r0, #0
 5370              	.LVL680:
 5371 00ea B0E7     		b	.L650
 5372              	.LVL681:
 5373              	.L658:
 5374              		.loc 1 1475 0
 5375 00ec 022F     		cmp	r7, #2
 5376 00ee CED0     		beq	.L654
 5377 00f0 082F     		cmp	r7, #8
 5378 00f2 CCD0     		beq	.L654
 5379              	.L615:
 5380              		.loc 1 1522 0 discriminator 1
 5381 00f4 3B46     		mov	r3, r7
 5382 00f6 5246     		mov	r2, r10
 5383 00f8 1448     		ldr	r0, .L661
ARM GAS  C:\Users\jo\AppData\Local\Temp\ccpKXchH.s 			page 96


 5384              	.LVL682:
 5385 00fa 1749     		ldr	r1, .L661+12
 5386 00fc FFF7FEFF 		bl	chprintf.constprop.1
 5387              	.LVL683:
 5388 0100 5C23     		movs	r3, #92
 5389 0102 A1E7     		b	.L626
 5390              	.LVL684:
 5391              	.L623:
 5392              		.loc 1 1562 0 discriminator 1
 5393 0104 3B46     		mov	r3, r7
 5394 0106 5246     		mov	r2, r10
 5395 0108 1048     		ldr	r0, .L661
 5396              	.LVL685:
 5397 010a 1449     		ldr	r1, .L661+16
 5398 010c FFF7FEFF 		bl	chprintf.constprop.1
 5399              	.LVL686:
 5400 0110 5C23     		movs	r3, #92
 5401 0112 99E7     		b	.L626
 5402              	.LVL687:
 5403              	.L660:
 5404              		.loc 1 1580 0
 5405 0114 7B1E     		subs	r3, r7, #1
 5406 0116 012B     		cmp	r3, #1
 5407 0118 BED9     		bls	.L620
 5408              		.loc 1 1591 0 discriminator 1
 5409 011a 3B46     		mov	r3, r7
 5410 011c 5246     		mov	r2, r10
 5411 011e 0B48     		ldr	r0, .L661
 5412              	.LVL688:
 5413 0120 0F49     		ldr	r1, .L661+20
 5414 0122 FFF7FEFF 		bl	chprintf.constprop.1
 5415              	.LVL689:
 5416 0126 5C23     		movs	r3, #92
 5417 0128 8EE7     		b	.L626
 5418              	.LVL690:
 5419              	.L659:
 5420              		.loc 1 1514 0 discriminator 1
 5421 012a 5268     		ldr	r2, [r2, #4]
 5422 012c 127C     		ldrb	r2, [r2, #16]	@ zero_extendqisi2
 5423              		.loc 1 1513 0 discriminator 1
 5424 012e 9207     		lsls	r2, r2, #30
 5425 0130 A8D4     		bmi	.L631
 5426              		.loc 1 1630 0
 5427 0132 002B     		cmp	r3, #0
 5428 0134 B0D0     		beq	.L620
 5429 0136 5BB2     		sxtb	r3, r3
 5430              	.LVL691:
 5431 0138 86E7     		b	.L626
 5432              	.LVL692:
 5433              	.L609:
 5434              		.loc 1 1466 0
 5435 013a 0E23     		movs	r3, #14
 5436 013c 2361     		str	r3, [r4, #16]
 5437              		.loc 1 1467 0
 5438 013e 4FF0FF30 		mov	r0, #-1
 5439              	.LVL693:
 5440 0142 84E7     		b	.L650
ARM GAS  C:\Users\jo\AppData\Local\Temp\ccpKXchH.s 			page 97


 5441              	.LVL694:
 5442              	.L627:
 5443              		.loc 1 1462 0
 5444 0144 4FF0FF30 		mov	r0, #-1
 5445              	.LVL695:
 5446 0148 81E7     		b	.L650
 5447              	.L662:
 5448 014a 00BF     		.align	2
 5449              	.L661:
 5450 014c 00000000 		.word	itm_port
 5451 0150 1C0C0000 		.word	.LC89
 5452 0154 00000000 		.word	lwip_getsockopt_internal
 5453 0158 680B0000 		.word	.LC86
 5454 015c A40B0000 		.word	.LC87
 5455 0160 E00B0000 		.word	.LC88
 5456              		.cfi_endproc
 5457              	.LFE280:
 5458              		.size	lwip_getsockopt, .-lwip_getsockopt
 5459 0164 AFF30080 		.section	.text.lwip_setsockopt,"ax",%progbits
 5459      AFF30080 
 5459      AFF30080 
 5460              		.align	2
 5461              		.p2align 4,,15
 5462              		.global	lwip_setsockopt
 5463              		.thumb
 5464              		.thumb_func
 5465              		.type	lwip_setsockopt, %function
 5466              	lwip_setsockopt:
 5467              	.LFB282:
 5468              		.loc 1 1864 0
 5469              		.cfi_startproc
 5470              		@ args = 4, pretend = 0, frame = 32
 5471              		@ frame_needed = 0, uses_anonymous_args = 0
 5472              	.LVL696:
 5473 0000 2DE9F043 		push	{r4, r5, r6, r7, r8, r9, lr}
 5474              		.cfi_def_cfa_offset 28
 5475              		.cfi_offset 4, -28
 5476              		.cfi_offset 5, -24
 5477              		.cfi_offset 6, -20
 5478              		.cfi_offset 7, -16
 5479              		.cfi_offset 8, -12
 5480              		.cfi_offset 9, -8
 5481              		.cfi_offset 14, -4
 5482 0004 8BB0     		sub	sp, sp, #44
 5483              		.cfi_def_cfa_offset 72
 5484              		.loc 1 1864 0
 5485 0006 0D46     		mov	r5, r1
 5486 0008 1646     		mov	r6, r2
 5487 000a 1F46     		mov	r7, r3
 5488 000c 8146     		mov	r9, r0
 5489              		.loc 1 1865 0
 5490 000e FFF7FEFF 		bl	get_socket
 5491              	.LVL697:
 5492              		.loc 1 1869 0
 5493 0012 0446     		mov	r4, r0
 5494 0014 0028     		cmp	r0, #0
 5495 0016 7ED0     		beq	.L681
ARM GAS  C:\Users\jo\AppData\Local\Temp\ccpKXchH.s 			page 98


 5496              		.loc 1 1873 0
 5497 0018 002F     		cmp	r7, #0
 5498 001a 7FD0     		beq	.L706
 5499              		.loc 1 1879 0
 5500 001c 062D     		cmp	r5, #6
 5501 001e 4BD0     		beq	.L667
 5502 0020 40F6FF73 		movw	r3, #4095
 5503 0024 9D42     		cmp	r5, r3
 5504 0026 0ED0     		beq	.L668
 5505 0028 EDB1     		cbz	r5, .L707
 5506              		.loc 1 2040 0 discriminator 1
 5507 002a 2B46     		mov	r3, r5
 5508 002c 0096     		str	r6, [sp]
 5509 002e 4A46     		mov	r2, r9
 5510 0030 3D48     		ldr	r0, .L710
 5511              	.LVL698:
 5512 0032 3E49     		ldr	r1, .L710+4
 5513 0034 FFF7FEFF 		bl	chprintf.constprop.1
 5514              	.LVL699:
 5515 0038 5C23     		movs	r3, #92
 5516              	.LVL700:
 5517              	.L680:
 5518              		.loc 1 2047 0
 5519 003a 2361     		str	r3, [r4, #16]
 5520              		.loc 1 2048 0
 5521 003c 4FF0FF30 		mov	r0, #-1
 5522              	.L698:
 5523              		.loc 1 2069 0
 5524 0040 0BB0     		add	sp, sp, #44
 5525              		.cfi_remember_state
 5526              		.cfi_def_cfa_offset 28
 5527              		@ sp needed
 5528 0042 BDE8F083 		pop	{r4, r5, r6, r7, r8, r9, pc}
 5529              	.LVL701:
 5530              	.L668:
 5531              		.cfi_restore_state
 5532              		.loc 1 1883 0
 5533 0046 202E     		cmp	r6, #32
 5534 0048 10D0     		beq	.L703
 5535 004a 41F20A03 		movw	r3, #4106
 5536 004e 9E42     		cmp	r6, r3
 5537 0050 3BD0     		beq	.L672
 5538 0052 082E     		cmp	r6, #8
 5539 0054 0AD0     		beq	.L703
 5540              		.loc 1 1925 0 discriminator 1
 5541 0056 3346     		mov	r3, r6
 5542 0058 4A46     		mov	r2, r9
 5543 005a 3348     		ldr	r0, .L710
 5544              	.LVL702:
 5545 005c 3449     		ldr	r1, .L710+8
 5546 005e FFF7FEFF 		bl	chprintf.constprop.1
 5547              	.LVL703:
 5548 0062 5C23     		movs	r3, #92
 5549 0064 E9E7     		b	.L680
 5550              	.LVL704:
 5551              	.L707:
 5552              		.loc 1 1933 0
ARM GAS  C:\Users\jo\AppData\Local\Temp\ccpKXchH.s 			page 99


 5553 0066 731E     		subs	r3, r6, #1
 5554 0068 012B     		cmp	r3, #1
 5555 006a 39D8     		bhi	.L677
 5556              	.L703:
 5557              		.loc 1 1939 0
 5558 006c 129B     		ldr	r3, [sp, #72]
 5559 006e 032B     		cmp	r3, #3
 5560 0070 01D8     		bhi	.L674
 5561              	.L687:
 5562 0072 1623     		movs	r3, #22
 5563              	.LVL705:
 5564 0074 E1E7     		b	.L680
 5565              	.L674:
 5566              		.loc 1 2061 0
 5567 0076 4FF00008 		mov	r8, #0
 5568              		.loc 1 2060 0
 5569 007a 12AB     		add	r3, sp, #72
 5570              	.LVL706:
 5571              		.loc 1 2062 0
 5572 007c 03A9     		add	r1, sp, #12
 5573 007e 0122     		movs	r2, #1
 5574 0080 2C48     		ldr	r0, .L710+12
 5575              	.LVL707:
 5576              		.loc 1 2060 0
 5577 0082 0893     		str	r3, [sp, #32]
 5578              		.loc 1 2053 0
 5579 0084 0394     		str	r4, [sp, #12]
 5580              		.loc 1 2055 0
 5581 0086 CDF81090 		str	r9, [sp, #16]
 5582              		.loc 1 2057 0
 5583 008a 0595     		str	r5, [sp, #20]
 5584              		.loc 1 2058 0
 5585 008c 0696     		str	r6, [sp, #24]
 5586              		.loc 1 2059 0
 5587 008e 0797     		str	r7, [sp, #28]
 5588              		.loc 1 2061 0
 5589 0090 8DF82480 		strb	r8, [sp, #36]
 5590              		.loc 1 2062 0
 5591 0094 FFF7FEFF 		bl	tcpip_callback_with_block
 5592              	.LVL708:
 5593              		.loc 1 2063 0
 5594 0098 2068     		ldr	r0, [r4]
 5595 009a 4146     		mov	r1, r8
 5596 009c 0C30     		adds	r0, r0, #12
 5597 009e FFF7FEFF 		bl	sys_arch_sem_wait
 5598              	.LVL709:
 5599              		.loc 1 2067 0
 5600 00a2 9DF92400 		ldrsb	r0, [sp, #36]
 5601 00a6 2061     		str	r0, [r4, #16]
 5602              	.LVL710:
 5603              		.loc 1 2068 0
 5604 00a8 B0EB0800 		subs	r0, r0, r8
 5605              	.LVL711:
 5606 00ac 18BF     		it	ne
 5607 00ae 0120     		movne	r0, #1
 5608 00b0 4042     		negs	r0, r0
 5609              		.loc 1 2069 0
ARM GAS  C:\Users\jo\AppData\Local\Temp\ccpKXchH.s 			page 100


 5610 00b2 0BB0     		add	sp, sp, #44
 5611              		.cfi_remember_state
 5612              		.cfi_def_cfa_offset 28
 5613              		@ sp needed
 5614 00b4 BDE8F083 		pop	{r4, r5, r6, r7, r8, r9, pc}
 5615              	.LVL712:
 5616              	.L667:
 5617              		.cfi_restore_state
 5618              		.loc 1 1988 0
 5619 00b8 129B     		ldr	r3, [sp, #72]
 5620 00ba 032B     		cmp	r3, #3
 5621 00bc D9D9     		bls	.L687
 5622              		.loc 1 1994 0
 5623 00be 0368     		ldr	r3, [r0]
 5624 00c0 1B78     		ldrb	r3, [r3]	@ zero_extendqisi2
 5625 00c2 102B     		cmp	r3, #16
 5626 00c4 14D0     		beq	.L708
 5627              		.loc 1 1995 0
 5628 00c6 0020     		movs	r0, #0
 5629              	.LVL713:
 5630 00c8 BAE7     		b	.L698
 5631              	.LVL714:
 5632              	.L672:
 5633              		.loc 1 1917 0
 5634 00ca 0268     		ldr	r2, [r0]
 5635              		.loc 1 1913 0
 5636 00cc 129B     		ldr	r3, [sp, #72]
 5637              		.loc 1 1917 0
 5638 00ce 1178     		ldrb	r1, [r2]	@ zero_extendqisi2
 5639              		.loc 1 1914 0
 5640 00d0 032B     		cmp	r3, #3
 5641 00d2 8CBF     		ite	hi
 5642 00d4 0023     		movhi	r3, #0
 5643 00d6 1623     		movls	r3, #22
 5644              	.LVL715:
 5645              		.loc 1 1917 0
 5646 00d8 2029     		cmp	r1, #32
 5647 00da 14D0     		beq	.L709
 5648              	.L685:
 5649 00dc 6123     		movs	r3, #97
 5650              	.LVL716:
 5651 00de ACE7     		b	.L680
 5652              	.LVL717:
 5653              	.L677:
 5654              		.loc 1 1979 0 discriminator 1
 5655 00e0 3346     		mov	r3, r6
 5656 00e2 4A46     		mov	r2, r9
 5657 00e4 1048     		ldr	r0, .L710
 5658              	.LVL718:
 5659 00e6 1449     		ldr	r1, .L710+16
 5660 00e8 FFF7FEFF 		bl	chprintf.constprop.1
 5661              	.LVL719:
 5662 00ec 5C23     		movs	r3, #92
 5663 00ee A4E7     		b	.L680
 5664              	.LVL720:
 5665              	.L708:
 5666              		.loc 1 1997 0
ARM GAS  C:\Users\jo\AppData\Local\Temp\ccpKXchH.s 			page 101


 5667 00f0 731E     		subs	r3, r6, #1
 5668 00f2 012B     		cmp	r3, #1
 5669 00f4 BFD9     		bls	.L674
 5670              		.loc 1 2008 0 discriminator 1
 5671 00f6 3346     		mov	r3, r6
 5672 00f8 4A46     		mov	r2, r9
 5673 00fa 0B48     		ldr	r0, .L710
 5674              	.LVL721:
 5675 00fc 0F49     		ldr	r1, .L710+20
 5676 00fe FFF7FEFF 		bl	chprintf.constprop.1
 5677              	.LVL722:
 5678 0102 5C23     		movs	r3, #92
 5679 0104 99E7     		b	.L680
 5680              	.LVL723:
 5681              	.L709:
 5682              		.loc 1 1918 0 discriminator 1
 5683 0106 5268     		ldr	r2, [r2, #4]
 5684 0108 127C     		ldrb	r2, [r2, #16]	@ zero_extendqisi2
 5685              		.loc 1 1917 0 discriminator 1
 5686 010a 9207     		lsls	r2, r2, #30
 5687 010c E6D4     		bmi	.L685
 5688              		.loc 1 2046 0
 5689 010e 002B     		cmp	r3, #0
 5690 0110 B1D0     		beq	.L674
 5691 0112 5BB2     		sxtb	r3, r3
 5692              	.LVL724:
 5693 0114 91E7     		b	.L680
 5694              	.LVL725:
 5695              	.L681:
 5696              		.loc 1 1870 0
 5697 0116 4FF0FF30 		mov	r0, #-1
 5698              	.LVL726:
 5699 011a 91E7     		b	.L698
 5700              	.LVL727:
 5701              	.L706:
 5702              		.loc 1 1874 0
 5703 011c 0E23     		movs	r3, #14
 5704 011e 0361     		str	r3, [r0, #16]
 5705              		.loc 1 1875 0
 5706 0120 4FF0FF30 		mov	r0, #-1
 5707              	.LVL728:
 5708 0124 8CE7     		b	.L698
 5709              	.L711:
 5710 0126 00BF     		.align	2
 5711              	.L710:
 5712 0128 00000000 		.word	itm_port
 5713 012c 0C0D0000 		.word	.LC93
 5714 0130 580C0000 		.word	.LC90
 5715 0134 00000000 		.word	lwip_setsockopt_internal
 5716 0138 940C0000 		.word	.LC91
 5717 013c D00C0000 		.word	.LC92
 5718              		.cfi_endproc
 5719              	.LFE282:
 5720              		.size	lwip_setsockopt, .-lwip_setsockopt
 5721              		.section	.text.lwip_ioctl,"ax",%progbits
 5722              		.align	2
 5723              		.p2align 4,,15
ARM GAS  C:\Users\jo\AppData\Local\Temp\ccpKXchH.s 			page 102


 5724              		.global	lwip_ioctl
 5725              		.thumb
 5726              		.thumb_func
 5727              		.type	lwip_ioctl, %function
 5728              	lwip_ioctl:
 5729              	.LFB284:
 5730              		.loc 1 2282 0
 5731              		.cfi_startproc
 5732              		@ args = 0, pretend = 0, frame = 0
 5733              		@ frame_needed = 0, uses_anonymous_args = 0
 5734              	.LVL729:
 5735 0000 F0B5     		push	{r4, r5, r6, r7, lr}
 5736              		.cfi_def_cfa_offset 20
 5737              		.cfi_offset 4, -20
 5738              		.cfi_offset 5, -16
 5739              		.cfi_offset 6, -12
 5740              		.cfi_offset 7, -8
 5741              		.cfi_offset 14, -4
 5742 0002 83B0     		sub	sp, sp, #12
 5743              		.cfi_def_cfa_offset 32
 5744              		.loc 1 2282 0
 5745 0004 0E46     		mov	r6, r1
 5746 0006 1546     		mov	r5, r2
 5747 0008 0746     		mov	r7, r0
 5748              		.loc 1 2283 0
 5749 000a FFF7FEFF 		bl	get_socket
 5750              	.LVL730:
 5751              		.loc 1 2290 0
 5752 000e 0446     		mov	r4, r0
 5753 0010 38B3     		cbz	r0, .L719
 5754              		.loc 1 2294 0
 5755 0012 154B     		ldr	r3, .L726
 5756 0014 9E42     		cmp	r6, r3
 5757 0016 18D1     		bne	.L723
 5758              	.LVL731:
 5759              		.loc 1 2327 0
 5760 0018 0DB1     		cbz	r5, .L716
 5761              		.loc 1 2327 0 is_stmt 0 discriminator 1
 5762 001a 2B68     		ldr	r3, [r5]
 5763 001c 73B9     		cbnz	r3, .L717
 5764              	.L716:
 5765              		.loc 1 2330 0 is_stmt 1
 5766 001e 2268     		ldr	r2, [r4]
 5767 0020 137F     		ldrb	r3, [r2, #28]	@ zero_extendqisi2
 5768 0022 23F00203 		bic	r3, r3, #2
 5769 0026 1377     		strb	r3, [r2, #28]
 5770 0028 0023     		movs	r3, #0
 5771              	.LVL732:
 5772              	.L718:
 5773              		.loc 1 2331 0 discriminator 1
 5774 002a 3A46     		mov	r2, r7
 5775 002c 0F48     		ldr	r0, .L726+4
 5776              	.LVL733:
 5777 002e 1049     		ldr	r1, .L726+8
 5778 0030 FFF7FEFF 		bl	chprintf.constprop.1
 5779              	.LVL734:
 5780              		.loc 1 2332 0 discriminator 1
ARM GAS  C:\Users\jo\AppData\Local\Temp\ccpKXchH.s 			page 103


 5781 0034 0020     		movs	r0, #0
 5782 0036 2061     		str	r0, [r4, #16]
 5783              	.L724:
 5784              		.loc 1 2340 0
 5785 0038 03B0     		add	sp, sp, #12
 5786              		.cfi_remember_state
 5787              		.cfi_def_cfa_offset 20
 5788              		@ sp needed
 5789 003a F0BD     		pop	{r4, r5, r6, r7, pc}
 5790              	.LVL735:
 5791              	.L717:
 5792              		.cfi_restore_state
 5793              		.loc 1 2330 0
 5794 003c 0268     		ldr	r2, [r0]
 5795 003e 137F     		ldrb	r3, [r2, #28]	@ zero_extendqisi2
 5796 0040 43F00203 		orr	r3, r3, #2
 5797 0044 1377     		strb	r3, [r2, #28]
 5798 0046 0123     		movs	r3, #1
 5799 0048 EFE7     		b	.L718
 5800              	.LVL736:
 5801              	.L723:
 5802              		.loc 1 2336 0 discriminator 1
 5803 004a 3346     		mov	r3, r6
 5804 004c 0095     		str	r5, [sp]
 5805 004e 3A46     		mov	r2, r7
 5806 0050 0648     		ldr	r0, .L726+4
 5807              	.LVL737:
 5808 0052 0849     		ldr	r1, .L726+12
 5809 0054 FFF7FEFF 		bl	chprintf.constprop.1
 5810              	.LVL738:
 5811              		.loc 1 2337 0 discriminator 1
 5812 0058 2623     		movs	r3, #38
 5813 005a 2361     		str	r3, [r4, #16]
 5814              		.loc 1 2338 0 discriminator 1
 5815 005c 4FF0FF30 		mov	r0, #-1
 5816 0060 EAE7     		b	.L724
 5817              	.LVL739:
 5818              	.L719:
 5819              		.loc 1 2291 0
 5820 0062 4FF0FF30 		mov	r0, #-1
 5821              	.LVL740:
 5822 0066 E7E7     		b	.L724
 5823              	.L727:
 5824              		.align	2
 5825              	.L726:
 5826 0068 7E660480 		.word	-2147195266
 5827 006c 00000000 		.word	itm_port
 5828 0070 480D0000 		.word	.LC94
 5829 0074 680D0000 		.word	.LC95
 5830              		.cfi_endproc
 5831              	.LFE284:
 5832              		.size	lwip_ioctl, .-lwip_ioctl
 5833 0078 AFF30080 		.section	.text.lwip_fcntl,"ax",%progbits
 5833      AFF30080 
 5834              		.align	2
 5835              		.p2align 4,,15
 5836              		.global	lwip_fcntl
ARM GAS  C:\Users\jo\AppData\Local\Temp\ccpKXchH.s 			page 104


 5837              		.thumb
 5838              		.thumb_func
 5839              		.type	lwip_fcntl, %function
 5840              	lwip_fcntl:
 5841              	.LFB285:
 5842              		.loc 1 2348 0
 5843              		.cfi_startproc
 5844              		@ args = 0, pretend = 0, frame = 0
 5845              		@ frame_needed = 0, uses_anonymous_args = 0
 5846              	.LVL741:
 5847 0000 70B5     		push	{r4, r5, r6, lr}
 5848              		.cfi_def_cfa_offset 16
 5849              		.cfi_offset 4, -16
 5850              		.cfi_offset 5, -12
 5851              		.cfi_offset 6, -8
 5852              		.cfi_offset 14, -4
 5853 0002 82B0     		sub	sp, sp, #8
 5854              		.cfi_def_cfa_offset 24
 5855              		.loc 1 2348 0
 5856 0004 0C46     		mov	r4, r1
 5857 0006 1546     		mov	r5, r2
 5858 0008 0646     		mov	r6, r0
 5859              		.loc 1 2349 0
 5860 000a FFF7FEFF 		bl	get_socket
 5861              	.LVL742:
 5862              		.loc 1 2352 0
 5863 000e F0B1     		cbz	r0, .L736
 5864              		.loc 1 2352 0 is_stmt 0 discriminator 1
 5865 0010 0368     		ldr	r3, [r0]
 5866 0012 E3B1     		cbz	r3, .L736
 5867              		.loc 1 2356 0 is_stmt 1
 5868 0014 032C     		cmp	r4, #3
 5869 0016 15D0     		beq	.L731
 5870 0018 042C     		cmp	r4, #4
 5871 001a 0AD0     		beq	.L732
 5872              		.loc 1 2368 0 discriminator 1
 5873 001c 0095     		str	r5, [sp]
 5874 001e 3246     		mov	r2, r6
 5875 0020 2346     		mov	r3, r4
 5876 0022 0F48     		ldr	r0, .L740
 5877              	.LVL743:
 5878 0024 0F49     		ldr	r1, .L740+4
 5879 0026 FFF7FEFF 		bl	chprintf.constprop.1
 5880              	.LVL744:
 5881              		.loc 1 2350 0 discriminator 1
 5882 002a 4FF0FF30 		mov	r0, #-1
 5883              	.L729:
 5884              		.loc 1 2372 0
 5885 002e 02B0     		add	sp, sp, #8
 5886              		.cfi_remember_state
 5887              		.cfi_def_cfa_offset 16
 5888              		@ sp needed
 5889 0030 70BD     		pop	{r4, r5, r6, pc}
 5890              	.LVL745:
 5891              	.L732:
 5892              		.cfi_restore_state
 5893              		.loc 1 2361 0
ARM GAS  C:\Users\jo\AppData\Local\Temp\ccpKXchH.s 			page 105


 5894 0032 35F00100 		bics	r0, r5, #1
 5895              	.LVL746:
 5896 0036 0AD1     		bne	.L736
 5897              		.loc 1 2363 0
 5898 0038 1A7F     		ldrb	r2, [r3, #28]	@ zero_extendqisi2
 5899 003a 65B1     		cbz	r5, .L733
 5900              		.loc 1 2363 0 is_stmt 0 discriminator 1
 5901 003c 42F00202 		orr	r2, r2, #2
 5902 0040 1A77     		strb	r2, [r3, #28]
 5903 0042 F4E7     		b	.L729
 5904              	.LVL747:
 5905              	.L731:
 5906              		.loc 1 2358 0 is_stmt 1
 5907 0044 187F     		ldrb	r0, [r3, #28]	@ zero_extendqisi2
 5908              	.LVL748:
 5909 0046 C0F34000 		ubfx	r0, r0, #1, #1
 5910              	.LVL749:
 5911              		.loc 1 2372 0
 5912 004a 02B0     		add	sp, sp, #8
 5913              		.cfi_remember_state
 5914              		.cfi_def_cfa_offset 16
 5915              		@ sp needed
 5916 004c 70BD     		pop	{r4, r5, r6, pc}
 5917              	.LVL750:
 5918              	.L736:
 5919              		.cfi_restore_state
 5920              		.loc 1 2353 0
 5921 004e 4FF0FF30 		mov	r0, #-1
 5922              		.loc 1 2372 0
 5923 0052 02B0     		add	sp, sp, #8
 5924              		.cfi_remember_state
 5925              		.cfi_def_cfa_offset 16
 5926              		@ sp needed
 5927 0054 70BD     		pop	{r4, r5, r6, pc}
 5928              	.LVL751:
 5929              	.L733:
 5930              		.cfi_restore_state
 5931              		.loc 1 2363 0 discriminator 2
 5932 0056 22F00202 		bic	r2, r2, #2
 5933 005a 1A77     		strb	r2, [r3, #28]
 5934 005c E7E7     		b	.L729
 5935              	.L741:
 5936 005e 00BF     		.align	2
 5937              	.L740:
 5938 0060 00000000 		.word	itm_port
 5939 0064 8C0D0000 		.word	.LC96
 5940              		.cfi_endproc
 5941              	.LFE285:
 5942              		.size	lwip_fcntl, .-lwip_fcntl
 5943 0068 AFF30080 		.section	.rodata.err_to_errno_table,"a",%progbits
 5943      AFF30080 
 5944              		.align	2
 5945              		.set	.LANCHOR1,. + 0
 5946              		.type	err_to_errno_table, %object
 5947              		.size	err_to_errno_table, 64
 5948              	err_to_errno_table:
 5949 0000 00000000 		.word	0
ARM GAS  C:\Users\jo\AppData\Local\Temp\ccpKXchH.s 			page 106


 5950 0004 0C000000 		.word	12
 5951 0008 69000000 		.word	105
 5952 000c 0B000000 		.word	11
 5953 0010 71000000 		.word	113
 5954 0014 73000000 		.word	115
 5955 0018 16000000 		.word	22
 5956 001c 0B000000 		.word	11
 5957 0020 62000000 		.word	98
 5958 0024 72000000 		.word	114
 5959 0028 67000000 		.word	103
 5960 002c 68000000 		.word	104
 5961 0030 6B000000 		.word	107
 5962 0034 6B000000 		.word	107
 5963 0038 05000000 		.word	5
 5964 003c FFFFFFFF 		.word	-1
 5965              		.section	.bss.select_cb_list,"aw",%nobits
 5966              		.align	2
 5967              		.set	.LANCHOR2,. + 0
 5968              		.type	select_cb_list, %object
 5969              		.size	select_cb_list, 4
 5970              	select_cb_list:
 5971 0000 00000000 		.space	4
 5972              		.section	.bss.sockets,"aw",%nobits
 5973              		.align	2
 5974              		.set	.LANCHOR0,. + 0
 5975              		.type	sockets, %object
 5976              		.size	sockets, 48
 5977              	sockets:
 5978 0000 00000000 		.space	48
 5978      00000000 
 5978      00000000 
 5978      00000000 
 5978      00000000 
 5979              		.section	.bss.select_cb_ctr,"aw",%nobits
 5980              		.align	2
 5981              		.set	.LANCHOR3,. + 0
 5982              		.type	select_cb_ctr, %object
 5983              		.size	select_cb_ctr, 4
 5984              	select_cb_ctr:
 5985 0000 00000000 		.space	4
 5986              		.section	.rodata.str1.4,"aMS",%progbits,1
 5987              		.align	2
 5988              	.LC0:
 5989 0000 6F6E00   		.ascii	"on\000"
 5990 0003 00       		.space	1
 5991              	.LC1:
 5992 0004 6F666600 		.ascii	"off\000"
 5993              	.LC2:
 5994 0008 41737365 		.ascii	"Assertion \"%s\" failed at line %d in %s\012\000"
 5994      7274696F 
 5994      6E202225 
 5994      73222066 
 5994      61696C65 
 5995              	.LC3:
 5996 0030 61726720 		.ascii	"arg != NULL\000"
 5996      213D204E 
 5996      554C4C00 
ARM GAS  C:\Users\jo\AppData\Local\Temp\ccpKXchH.s 			page 107


 5997              	.LC4:
 5998 003c 2E2E2F2E 		.ascii	"../../../os/ext/lwip-1.4.1/src/api/sockets.c\000"
 5998      2E2F2E2E 
 5998      2F6F732F 
 5998      6578742F 
 5998      6C776970 
 5999 0069 000000   		.space	3
 6000              	.LC5:
 6001 006c 6C776970 		.ascii	"lwip_setsockopt(%d, SOL_SOCKET, optname=0x%x, ..) -"
 6001      5F736574 
 6001      736F636B 
 6001      6F707428 
 6001      25642C20 
 6002 009f 3E202573 		.ascii	"> %s\012\000"
 6002      0A00
 6003 00a5 000000   		.space	3
 6004              	.LC6:
 6005 00a8 756E6861 		.ascii	"unhandled optname\000"
 6005      6E646C65 
 6005      64206F70 
 6005      746E616D 
 6005      6500
 6006 00ba 0000     		.space	2
 6007              	.LC7:
 6008 00bc 6C776970 		.ascii	"lwip_setsockopt(%d, IPPROTO_IP, IP_TTL, ..) -> %d\012"
 6008      5F736574 
 6008      736F636B 
 6008      6F707428 
 6008      25642C20 
 6009 00ee 00       		.ascii	"\000"
 6010 00ef 00       		.space	1
 6011              	.LC8:
 6012 00f0 6C776970 		.ascii	"lwip_setsockopt(%d, IPPROTO_IP, IP_TOS, ..)-> %d\012"
 6012      5F736574 
 6012      736F636B 
 6012      6F707428 
 6012      25642C20 
 6013 0121 00       		.ascii	"\000"
 6014 0122 0000     		.space	2
 6015              	.LC9:
 6016 0124 6C776970 		.ascii	"lwip_setsockopt(%d, IPPROTO_TCP, TCP_NODELAY) -> %s"
 6016      5F736574 
 6016      736F636B 
 6016      6F707428 
 6016      25642C20 
 6017 0157 0A00     		.ascii	"\012\000"
 6018 0159 000000   		.space	3
 6019              	.LC10:
 6020 015c 6C776970 		.ascii	"lwip_setsockopt(%d, IPPROTO_TCP, TCP_KEEPALIVE) -> "
 6020      5F736574 
 6020      736F636B 
 6020      6F707428 
 6020      25642C20 
 6021 018f 25750A00 		.ascii	"%u\012\000"
 6022 0193 00       		.space	1
 6023              	.LC11:
 6024 0194 756E6861 		.ascii	"unhandled level\000"
ARM GAS  C:\Users\jo\AppData\Local\Temp\ccpKXchH.s 			page 108


 6024      6E646C65 
 6024      64206C65 
 6024      76656C00 
 6025              	.LC12:
 6026 01a4 6C776970 		.ascii	"lwip_getsockopt(%d, SOL_SOCKET, optname=0x%x, ..) ="
 6026      5F676574 
 6026      736F636B 
 6026      6F707428 
 6026      25642C20 
 6027 01d7 2025730A 		.ascii	" %s\012\000"
 6027      00
 6028              	.LC13:
 6029 01dc 6C776970 		.ascii	"lwip_getsockopt(%d, SOL_SOCKET, SO_TYPE): unrecogni"
 6029      5F676574 
 6029      736F636B 
 6029      6F707428 
 6029      25642C20 
 6030 020f 7A656420 		.ascii	"zed socket type %d\012\000"
 6030      736F636B 
 6030      65742074 
 6030      79706520 
 6030      25640A00 
 6031 0223 00       		.space	1
 6032              	.LC14:
 6033 0224 6C776970 		.ascii	"lwip_getsockopt(%d, SOL_SOCKET, SO_TYPE) = %d\012\000"
 6033      5F676574 
 6033      736F636B 
 6033      6F707428 
 6033      25642C20 
 6034 0253 00       		.space	1
 6035              	.LC15:
 6036 0254 6C776970 		.ascii	"lwip_getsockopt(%d, SOL_SOCKET, SO_ERROR) = %d\012\000"
 6036      5F676574 
 6036      736F636B 
 6036      6F707428 
 6036      25642C20 
 6037              	.LC16:
 6038 0284 6C776970 		.ascii	"lwip_getsockopt(%d, IPPROTO_IP, IP_TTL) = %d\012\000"
 6038      5F676574 
 6038      736F636B 
 6038      6F707428 
 6038      25642C20 
 6039 02b2 0000     		.space	2
 6040              	.LC17:
 6041 02b4 6C776970 		.ascii	"lwip_getsockopt(%d, IPPROTO_IP, IP_TOS) = %d\012\000"
 6041      5F676574 
 6041      736F636B 
 6041      6F707428 
 6041      25642C20 
 6042 02e2 0000     		.space	2
 6043              	.LC18:
 6044 02e4 6C776970 		.ascii	"lwip_getsockopt(%d, IPPROTO_TCP, TCP_NODELAY) = %s\012"
 6044      5F676574 
 6044      736F636B 
 6044      6F707428 
 6044      25642C20 
 6045 0317 00       		.ascii	"\000"
ARM GAS  C:\Users\jo\AppData\Local\Temp\ccpKXchH.s 			page 109


 6046              	.LC19:
 6047 0318 6C776970 		.ascii	"lwip_getsockopt(%d, IPPROTO_IP, TCP_KEEPALIVE) = %d"
 6047      5F676574 
 6047      736F636B 
 6047      6F707428 
 6047      25642C20 
 6048 034b 0A00     		.ascii	"\012\000"
 6049 034d 000000   		.space	3
 6050              	.LC20:
 6051 0350 6C776970 		.ascii	"lwip_selscan: fd=%d ready for reading\012\000"
 6051      5F73656C 
 6051      7363616E 
 6051      3A206664 
 6051      3D256420 
 6052 0377 00       		.space	1
 6053              	.LC21:
 6054 0378 6C776970 		.ascii	"lwip_selscan: fd=%d ready for writing\012\000"
 6054      5F73656C 
 6054      7363616E 
 6054      3A206664 
 6054      3D256420 
 6055 039f 00       		.space	1
 6056              	.LC22:
 6057 03a0 6C776970 		.ascii	"lwip_selscan: fd=%d ready for exception\012\000"
 6057      5F73656C 
 6057      7363616E 
 6057      3A206664 
 6057      3D256420 
 6058 03c9 000000   		.space	3
 6059              	.LC23:
 6060 03cc 6765745F 		.ascii	"get_socket(%d): invalid\012\000"
 6060      736F636B 
 6060      65742825 
 6060      64293A20 
 6060      696E7661 
 6061 03e5 000000   		.space	3
 6062              	.LC24:
 6063 03e8 6765745F 		.ascii	"get_socket(%d): not active\012\000"
 6063      736F636B 
 6063      65742825 
 6063      64293A20 
 6063      6E6F7420 
 6064              	.LC25:
 6065 0404 756E6B6E 		.ascii	"unknown event\000"
 6065      6F776E20 
 6065      6576656E 
 6065      7400
 6066 0412 0000     		.space	2
 6067              	.LC26:
 6068 0414 6C776970 		.ascii	"lwip_getaddrname(%d, addr=\000"
 6068      5F676574 
 6068      61646472 
 6068      6E616D65 
 6068      2825642C 
 6069 042f 00       		.space	1
 6070              	.LC27:
 6071 0430 25752E25 		.ascii	"%u.%u.%u.%u\000"
ARM GAS  C:\Users\jo\AppData\Local\Temp\ccpKXchH.s 			page 110


 6071      752E2575 
 6071      2E257500 
 6072              	.LC28:
 6073 043c 20706F72 		.ascii	" port=%u)\012\000"
 6073      743D2575 
 6073      290A00
 6074 0447 00       		.space	1
 6075              	.LC29:
 6076 0448 6C776970 		.ascii	"lwip_accept(%d)...\012\000"
 6076      5F616363 
 6076      65707428 
 6076      2564292E 
 6076      2E2E0A00 
 6077              	.LC30:
 6078 045c 6C776970 		.ascii	"lwip_accept(%d): returning EWOULDBLOCK\012\000"
 6078      5F616363 
 6078      65707428 
 6078      2564293A 
 6078      20726574 
 6079              	.LC31:
 6080 0484 6C776970 		.ascii	"lwip_accept(%d): netconn_acept failed, err=%d\012\000"
 6080      5F616363 
 6080      65707428 
 6080      2564293A 
 6080      206E6574 
 6081 04b3 00       		.space	1
 6082              	.LC32:
 6083 04b4 6E657763 		.ascii	"newconn != NULL\000"
 6083      6F6E6E20 
 6083      213D204E 
 6083      554C4C00 
 6084              	.LC33:
 6085 04c4 6C776970 		.ascii	"lwip_accept(%d): netconn_peer failed, err=%d\012\000"
 6085      5F616363 
 6085      65707428 
 6085      2564293A 
 6085      206E6574 
 6086 04f2 0000     		.space	2
 6087              	.LC34:
 6088 04f4 61646472 		.ascii	"addr valid but addrlen NULL\000"
 6088      2076616C 
 6088      69642062 
 6088      75742061 
 6088      6464726C 
 6089              	.LC35:
 6090 0510 696E7661 		.ascii	"invalid socket index\000"
 6090      6C696420 
 6090      736F636B 
 6090      65742069 
 6090      6E646578 
 6091 0525 000000   		.space	3
 6092              	.LC36:
 6093 0528 6E657763 		.ascii	"newconn->callback == event_callback\000"
 6093      6F6E6E2D 
 6093      3E63616C 
 6093      6C626163 
 6093      6B203D3D 
ARM GAS  C:\Users\jo\AppData\Local\Temp\ccpKXchH.s 			page 111


 6094              	.LC37:
 6095 054c 6C776970 		.ascii	"lwip_accept(%d) returning new sock=%d addr=\000"
 6095      5F616363 
 6095      65707428 
 6095      25642920 
 6095      72657475 
 6096              	.LC38:
 6097 0578 20706F72 		.ascii	" port=%u\012\000"
 6097      743D2575 
 6097      0A00
 6098 0582 0000     		.space	2
 6099              	.LC39:
 6100 0584 6C776970 		.ascii	"lwip_bind: invalid address\000"
 6100      5F62696E 
 6100      643A2069 
 6100      6E76616C 
 6100      69642061 
 6101 059f 00       		.space	1
 6102              	.LC40:
 6103 05a0 6C776970 		.ascii	"lwip_bind(%d, addr=\000"
 6103      5F62696E 
 6103      64282564 
 6103      2C206164 
 6103      64723D00 
 6104              	.LC41:
 6105 05b4 6C776970 		.ascii	"lwip_bind(%d) failed, err=%d\012\000"
 6105      5F62696E 
 6105      64282564 
 6105      29206661 
 6105      696C6564 
 6106 05d2 0000     		.space	2
 6107              	.LC42:
 6108 05d4 6C776970 		.ascii	"lwip_bind(%d) succeeded\012\000"
 6108      5F62696E 
 6108      64282564 
 6108      29207375 
 6108      63636565 
 6109 05ed 000000   		.space	3
 6110              	.LC43:
 6111 05f0 6C776970 		.ascii	"lwip_close(%d)\012\000"
 6111      5F636C6F 
 6111      73652825 
 6111      64290A00 
 6112              	.LC44:
 6113 0600 736F636B 		.ascii	"sock->lastdata == NULL\000"
 6113      2D3E6C61 
 6113      73746461 
 6113      7461203D 
 6113      3D204E55 
 6114 0617 00       		.space	1
 6115              	.LC45:
 6116 0618 6C776970 		.ascii	"lwip_connect: invalid address\000"
 6116      5F636F6E 
 6116      6E656374 
 6116      3A20696E 
 6116      76616C69 
 6117 0636 0000     		.space	2
ARM GAS  C:\Users\jo\AppData\Local\Temp\ccpKXchH.s 			page 112


 6118              	.LC46:
 6119 0638 6C776970 		.ascii	"lwip_connect(%d, addr=\000"
 6119      5F636F6E 
 6119      6E656374 
 6119      2825642C 
 6119      20616464 
 6120 064f 00       		.space	1
 6121              	.LC47:
 6122 0650 6C776970 		.ascii	"lwip_connect(%d) failed, err=%d\012\000"
 6122      5F636F6E 
 6122      6E656374 
 6122      28256429 
 6122      20666169 
 6123 0671 000000   		.space	3
 6124              	.LC48:
 6125 0674 6C776970 		.ascii	"lwip_connect(%d) succeeded\012\000"
 6125      5F636F6E 
 6125      6E656374 
 6125      28256429 
 6125      20737563 
 6126              	.LC49:
 6127 0690 6C776970 		.ascii	"lwip_listen(%d, backlog=%d)\012\000"
 6127      5F6C6973 
 6127      74656E28 
 6127      25642C20 
 6127      6261636B 
 6128 06ad 000000   		.space	3
 6129              	.LC50:
 6130 06b0 6C776970 		.ascii	"lwip_listen(%d) failed, err=%d\012\000"
 6130      5F6C6973 
 6130      74656E28 
 6130      25642920 
 6130      6661696C 
 6131              	.LC51:
 6132 06d0 6C776970 		.ascii	"lwip_recvfrom(%d, %p, %u, 0x%x, ..)\012\000"
 6132      5F726563 
 6132      7666726F 
 6132      6D282564 
 6132      2C202570 
 6133 06f5 000000   		.space	3
 6134              	.LC52:
 6135 06f8 6C776970 		.ascii	"lwip_recvfrom: top while sock->lastdata=%p\012\000"
 6135      5F726563 
 6135      7666726F 
 6135      6D3A2074 
 6135      6F702077 
 6136              	.LC53:
 6137 0724 6C776970 		.ascii	"lwip_recvfrom(%d): returning EWOULDBLOCK\012\000"
 6137      5F726563 
 6137      7666726F 
 6137      6D282564 
 6137      293A2072 
 6138 074e 0000     		.space	2
 6139              	.LC54:
 6140 0750 6C776970 		.ascii	"lwip_recvfrom: netconn_recv err=%d, netbuf=%p\012\000"
 6140      5F726563 
 6140      7666726F 
ARM GAS  C:\Users\jo\AppData\Local\Temp\ccpKXchH.s 			page 113


 6140      6D3A206E 
 6140      6574636F 
 6141 077f 00       		.space	1
 6142              	.LC55:
 6143 0780 6C776970 		.ascii	"lwip_recvfrom(%d): buf == NULL, error is \"%s\"!\012"
 6143      5F726563 
 6143      7666726F 
 6143      6D282564 
 6143      293A2062 
 6144 07af 00       		.ascii	"\000"
 6145              	.LC56:
 6146 07b0 62756620 		.ascii	"buf != NULL\000"
 6146      213D204E 
 6146      554C4C00 
 6147              	.LC57:
 6148 07bc 6C776970 		.ascii	"lwip_recvfrom: buflen=%u len=%u off=%d sock->lastof"
 6148      5F726563 
 6148      7666726F 
 6148      6D3A2062 
 6148      75666C65 
 6149 07ef 66736574 		.ascii	"fset=%u\012\000"
 6149      3D25750A 
 6149      00
 6150              	.LC58:
 6151 07f8 696E7661 		.ascii	"invalid copylen, len would underflow\000"
 6151      6C696420 
 6151      636F7079 
 6151      6C656E2C 
 6151      206C656E 
 6152 081d 000000   		.space	3
 6153              	.LC59:
 6154 0820 6C776970 		.ascii	"lwip_recvfrom(%d): addr=\000"
 6154      5F726563 
 6154      7666726F 
 6154      6D282564 
 6154      293A2061 
 6155 0839 000000   		.space	3
 6156              	.LC60:
 6157 083c 20706F72 		.ascii	" port=%u len=%d\012\000"
 6157      743D2575 
 6157      206C656E 
 6157      3D25640A 
 6157      00
 6158 084d 000000   		.space	3
 6159              	.LC61:
 6160 0850 6C776970 		.ascii	"lwip_recvfrom: lastdata now netbuf=%p\012\000"
 6160      5F726563 
 6160      7666726F 
 6160      6D3A206C 
 6160      61737464 
 6161 0877 00       		.space	1
 6162              	.LC62:
 6163 0878 6C776970 		.ascii	"lwip_recvfrom: deleting netbuf=%p\012\000"
 6163      5F726563 
 6163      7666726F 
 6163      6D3A2064 
 6163      656C6574 
ARM GAS  C:\Users\jo\AppData\Local\Temp\ccpKXchH.s 			page 114


 6164 089b 00       		.space	1
 6165              	.LC63:
 6166 089c 6C776970 		.ascii	"lwip_sendto: size must fit in u16_t\000"
 6166      5F73656E 
 6166      64746F3A 
 6166      2073697A 
 6166      65206D75 
 6167              	.LC64:
 6168 08c0 6C776970 		.ascii	"lwip_sendto: invalid address\000"
 6168      5F73656E 
 6168      64746F3A 
 6168      20696E76 
 6168      616C6964 
 6169 08dd 000000   		.space	3
 6170              	.LC65:
 6171 08e0 6C776970 		.ascii	"lwip_sendto(%d, data=%p, short_size=%u, flags=0x%x "
 6171      5F73656E 
 6171      64746F28 
 6171      25642C20 
 6171      64617461 
 6172 0913 746F3D00 		.ascii	"to=\000"
 6173 0917 00       		.space	1
 6174              	.LC66:
 6175 0918 6C776970 		.ascii	"lwip_send(%d, data=%p, size=%u, flags=0x%x)\012\000"
 6175      5F73656E 
 6175      64282564 
 6175      2C206461 
 6175      74613D25 
 6176 0945 000000   		.space	3
 6177              	.LC67:
 6178 0948 6C776970 		.ascii	"lwip_send(%d) err=%d written=%u\012\000"
 6178      5F73656E 
 6178      64282564 
 6178      29206572 
 6178      723D2564 
 6179 0969 000000   		.space	3
 6180              	.LC68:
 6181 096c 50465F49 		.ascii	"PF_INET\000"
 6181      4E455400 
 6182              	.LC69:
 6183 0974 554E4B4E 		.ascii	"UNKNOWN\000"
 6183      4F574E00 
 6184              	.LC70:
 6185 097c 6C776970 		.ascii	"lwip_socket(%s, SOCK_RAW, %d) = \000"
 6185      5F736F63 
 6185      6B657428 
 6185      25732C20 
 6185      534F434B 
 6186 099d 000000   		.space	3
 6187              	.LC71:
 6188 09a0 6C776970 		.ascii	"lwip_socket(%s, SOCK_DGRAM, %d) = \000"
 6188      5F736F63 
 6188      6B657428 
 6188      25732C20 
 6188      534F434B 
 6189 09c3 00       		.space	1
 6190              	.LC72:
ARM GAS  C:\Users\jo\AppData\Local\Temp\ccpKXchH.s 			page 115


 6191 09c4 6C776970 		.ascii	"lwip_socket(%s, SOCK_STREAM, %d) = \000"
 6191      5F736F63 
 6191      6B657428 
 6191      25732C20 
 6191      534F434B 
 6192              	.LC73:
 6193 09e8 2D31202F 		.ascii	"-1 / ENOBUFS (could not create netconn)\012\000"
 6193      20454E4F 
 6193      42554653 
 6193      2028636F 
 6193      756C6420 
 6194 0a11 000000   		.space	3
 6195              	.LC74:
 6196 0a14 6C776970 		.ascii	"lwip_socket(%d, %d/UNKNOWN, %d) = -1\012\000"
 6196      5F736F63 
 6196      6B657428 
 6196      25642C20 
 6196      25642F55 
 6197 0a3a 0000     		.space	2
 6198              	.LC75:
 6199 0a3c 25640A00 		.ascii	"%d\012\000"
 6200              	.LC76:
 6201 0a40 6C776970 		.ascii	"lwip_select(%d, %p, %p, %p, tvsec=%d tvusec=%d)\012"
 6201      5F73656C 
 6201      65637428 
 6201      25642C20 
 6201      25702C20 
 6202 0a70 00       		.ascii	"\000"
 6203 0a71 000000   		.space	3
 6204              	.LC77:
 6205 0a74 6C776970 		.ascii	"lwip_select: no timeout, returning 0\012\000"
 6205      5F73656C 
 6205      6563743A 
 6205      206E6F20 
 6205      74696D65 
 6206 0a9a 0000     		.space	2
 6207              	.LC78:
 6208 0a9c 736F636B 		.ascii	"sock->select_waiting > 0\000"
 6208      2D3E7365 
 6208      6C656374 
 6208      5F776169 
 6208      74696E67 
 6209 0ab5 000000   		.space	3
 6210              	.LC79:
 6211 0ab8 736F636B 		.ascii	"sock->select_waiting >= 0\000"
 6211      2D3E7365 
 6211      6C656374 
 6211      5F776169 
 6211      74696E67 
 6212 0ad2 0000     		.space	2
 6213              	.LC80:
 6214 0ad4 73656C65 		.ascii	"select_cb.prev == NULL\000"
 6214      63745F63 
 6214      622E7072 
 6214      6576203D 
 6214      3D204E55 
 6215 0aeb 00       		.space	1
ARM GAS  C:\Users\jo\AppData\Local\Temp\ccpKXchH.s 			page 116


 6216              	.LC81:
 6217 0aec 73656C65 		.ascii	"select_cb.prev != NULL\000"
 6217      63745F63 
 6217      622E7072 
 6217      65762021 
 6217      3D204E55 
 6218 0b03 00       		.space	1
 6219              	.LC82:
 6220 0b04 6C776970 		.ascii	"lwip_select: timeout expired\012\000"
 6220      5F73656C 
 6220      6563743A 
 6220      2074696D 
 6220      656F7574 
 6221 0b22 0000     		.space	2
 6222              	.LC83:
 6223 0b24 6C776970 		.ascii	"lwip_select: nready=%d\012\000"
 6223      5F73656C 
 6223      6563743A 
 6223      206E7265 
 6223      6164793D 
 6224              	.LC84:
 6225 0b3c 736F636B 		.ascii	"sock != NULL\000"
 6225      20213D20 
 6225      4E554C4C 
 6225      00
 6226 0b49 000000   		.space	3
 6227              	.LC85:
 6228 0b4c 6C776970 		.ascii	"lwip_shutdown(%d, how=%d)\012\000"
 6228      5F736875 
 6228      74646F77 
 6228      6E282564 
 6228      2C20686F 
 6229 0b67 00       		.space	1
 6230              	.LC86:
 6231 0b68 6C776970 		.ascii	"lwip_getsockopt(%d, SOL_SOCKET, UNIMPL: optname=0x%"
 6231      5F676574 
 6231      736F636B 
 6231      6F707428 
 6231      25642C20 
 6232 0b9b 782C202E 		.ascii	"x, ..)\012\000"
 6232      2E290A00 
 6233 0ba3 00       		.space	1
 6234              	.LC87:
 6235 0ba4 6C776970 		.ascii	"lwip_getsockopt(%d, IPPROTO_IP, UNIMPL: optname=0x%"
 6235      5F676574 
 6235      736F636B 
 6235      6F707428 
 6235      25642C20 
 6236 0bd7 782C202E 		.ascii	"x, ..)\012\000"
 6236      2E290A00 
 6237 0bdf 00       		.space	1
 6238              	.LC88:
 6239 0be0 6C776970 		.ascii	"lwip_getsockopt(%d, IPPROTO_TCP, UNIMPL: optname=0x"
 6239      5F676574 
 6239      736F636B 
 6239      6F707428 
 6239      25642C20 
ARM GAS  C:\Users\jo\AppData\Local\Temp\ccpKXchH.s 			page 117


 6240 0c13 25782C20 		.ascii	"%x, ..)\012\000"
 6240      2E2E290A 
 6240      00
 6241              	.LC89:
 6242 0c1c 6C776970 		.ascii	"lwip_getsockopt(%d, level=0x%x, UNIMPL: optname=0x%"
 6242      5F676574 
 6242      736F636B 
 6242      6F707428 
 6242      25642C20 
 6243 0c4f 782C202E 		.ascii	"x, ..)\012\000"
 6243      2E290A00 
 6244 0c57 00       		.space	1
 6245              	.LC90:
 6246 0c58 6C776970 		.ascii	"lwip_setsockopt(%d, SOL_SOCKET, UNIMPL: optname=0x%"
 6246      5F736574 
 6246      736F636B 
 6246      6F707428 
 6246      25642C20 
 6247 0c8b 782C202E 		.ascii	"x, ..)\012\000"
 6247      2E290A00 
 6248 0c93 00       		.space	1
 6249              	.LC91:
 6250 0c94 6C776970 		.ascii	"lwip_setsockopt(%d, IPPROTO_IP, UNIMPL: optname=0x%"
 6250      5F736574 
 6250      736F636B 
 6250      6F707428 
 6250      25642C20 
 6251 0cc7 782C202E 		.ascii	"x, ..)\012\000"
 6251      2E290A00 
 6252 0ccf 00       		.space	1
 6253              	.LC92:
 6254 0cd0 6C776970 		.ascii	"lwip_setsockopt(%d, IPPROTO_TCP, UNIMPL: optname=0x"
 6254      5F736574 
 6254      736F636B 
 6254      6F707428 
 6254      25642C20 
 6255 0d03 25782C20 		.ascii	"%x, ..)\012\000"
 6255      2E2E290A 
 6255      00
 6256              	.LC93:
 6257 0d0c 6C776970 		.ascii	"lwip_setsockopt(%d, level=0x%x, UNIMPL: optname=0x%"
 6257      5F736574 
 6257      736F636B 
 6257      6F707428 
 6257      25642C20 
 6258 0d3f 782C202E 		.ascii	"x, ..)\012\000"
 6258      2E290A00 
 6259 0d47 00       		.space	1
 6260              	.LC94:
 6261 0d48 6C776970 		.ascii	"lwip_ioctl(%d, FIONBIO, %d)\012\000"
 6261      5F696F63 
 6261      746C2825 
 6261      642C2046 
 6261      494F4E42 
 6262 0d65 000000   		.space	3
 6263              	.LC95:
 6264 0d68 6C776970 		.ascii	"lwip_ioctl(%d, UNIMPL: 0x%lx, %p)\012\000"
ARM GAS  C:\Users\jo\AppData\Local\Temp\ccpKXchH.s 			page 118


 6264      5F696F63 
 6264      746C2825 
 6264      642C2055 
 6264      4E494D50 
 6265 0d8b 00       		.space	1
 6266              	.LC96:
 6267 0d8c 6C776970 		.ascii	"lwip_fcntl(%d, UNIMPL: %d, %d)\012\000"
 6267      5F66636E 
 6267      746C2825 
 6267      642C2055 
 6267      4E494D50 
 6268              		.text
 6269              	.Letext0:
 6270              		.file 4 "c:\\program files\\gnu tools arm embedded\\4.9 2014q4\\lib\\gcc\\arm-none-eabi\\4.9.3\\in
 6271              		.file 5 "c:\\program files\\gnu tools arm embedded\\4.9 2014q4\\arm-none-eabi\\include\\machine\\_
 6272              		.file 6 "c:\\program files\\gnu tools arm embedded\\4.9 2014q4\\arm-none-eabi\\include\\stdint.h"
 6273              		.file 7 "../../../os/rt/ports/ARMCMx/compilers/GCC/chtypes.h"
 6274              		.file 8 "../../../os/rt/include/chsystypes.h"
 6275              		.file 9 "../../../os/rt/include/chschd.h"
 6276              		.file 10 "../../../os/rt/ports/ARMCMx/chcore.h"
 6277              		.file 11 "../../../os/rt/ports/ARMCMx/chcore_v7m.h"
 6278              		.file 12 "c:\\program files\\gnu tools arm embedded\\4.9 2014q4\\lib\\gcc\\arm-none-eabi\\4.9.3\\i
 6279              		.file 13 "<built-in>"
 6280              		.file 14 "c:\\program files\\gnu tools arm embedded\\4.9 2014q4\\arm-none-eabi\\include\\sys\\type
 6281              		.file 15 "../../../os/rt/include/chdebug.h"
 6282              		.file 16 "../../../os/rt/include/chtm.h"
 6283              		.file 17 "../../../os/rt/include/chstats.h"
 6284              		.file 18 "../../../os/rt/include/chmtx.h"
 6285              		.file 19 "../../../os/rt/include/chsem.h"
 6286              		.file 20 "../../../os/rt/include/chmboxes.h"
 6287              		.file 21 "../../../os/rt/include/chstreams.h"
 6288              		.file 22 "./ITM_trace.h"
 6289              		.file 23 "../../../os/various/lwip_bindings/arch/cc.h"
 6290              		.file 24 "../../../os/ext/lwip-1.4.1/src/include/ipv4/lwip/ip_addr.h"
 6291              		.file 25 "../../../os/ext/lwip-1.4.1/src/include/ipv4/lwip/inet.h"
 6292              		.file 26 "../../../os/ext/lwip-1.4.1/src/include/lwip/sockets.h"
 6293              		.file 27 "../../../os/ext/lwip-1.4.1/src/include/lwip/err.h"
 6294              		.file 28 "../../../os/ext/lwip-1.4.1/src/include/lwip/pbuf.h"
 6295              		.file 29 "../../../os/ext/lwip-1.4.1/src/include/lwip/netbuf.h"
 6296              		.file 30 "../../../os/various/lwip_bindings/arch/sys_arch.h"
 6297              		.file 31 "../../../os/ext/lwip-1.4.1/src/include/lwip/api.h"
 6298              		.file 32 "../../../os/ext/lwip-1.4.1/src/include/ipv4/lwip/ip.h"
 6299              		.file 33 "../../../os/ext/lwip-1.4.1/src/include/lwip/tcp.h"
 6300              		.file 34 "../../../os/ext/lwip-1.4.1/src/include/lwip/udp.h"
 6301              		.file 35 "../../../os/ext/lwip-1.4.1/src/include/lwip/api_msg.h"
 6302              		.file 36 "../../../os/ext/lwip-1.4.1/src/include/lwip/tcpip.h"
 6303              		.file 37 "../../../os/ext/CMSIS/include/core_cm4.h"
 6304              		.file 38 "../../../os/rt/include/chsys.h"
 6305              		.file 39 "../../../os/ext/lwip-1.4.1/src/include/lwip/sys.h"
 6306              		.file 40 "../../../os/ext/lwip-1.4.1/src/include/lwip/def.h"
 6307              		.section	.debug_info,"",%progbits
 6308              	.Ldebug_info0:
 6309 0000 6A460000 		.4byte	0x466a
 6310 0004 0400     		.2byte	0x4
 6311 0006 00000000 		.4byte	.Ldebug_abbrev0
 6312 000a 04       		.byte	0x4
 6313 000b 01       		.uleb128 0x1
ARM GAS  C:\Users\jo\AppData\Local\Temp\ccpKXchH.s 			page 119


 6314 000c 9B000000 		.4byte	.LASF436
 6315 0010 01       		.byte	0x1
 6316 0011 B80B0000 		.4byte	.LASF437
 6317 0015 CD020000 		.4byte	.LASF438
 6318 0019 28010000 		.4byte	.Ldebug_ranges0+0x128
 6319 001d 00000000 		.4byte	0
 6320 0021 00000000 		.4byte	.Ldebug_line0
 6321 0025 02       		.uleb128 0x2
 6322 0026 04       		.byte	0x4
 6323 0027 05       		.byte	0x5
 6324 0028 696E7400 		.ascii	"int\000"
 6325 002c 03       		.uleb128 0x3
 6326 002d 6C060000 		.4byte	.LASF1
 6327 0031 04       		.byte	0x4
 6328 0032 D4       		.byte	0xd4
 6329 0033 37000000 		.4byte	0x37
 6330 0037 04       		.uleb128 0x4
 6331 0038 04       		.byte	0x4
 6332 0039 07       		.byte	0x7
 6333 003a F5010000 		.4byte	.LASF0
 6334 003e 03       		.uleb128 0x3
 6335 003f 980B0000 		.4byte	.LASF2
 6336 0043 05       		.byte	0x5
 6337 0044 1B       		.byte	0x1b
 6338 0045 49000000 		.4byte	0x49
 6339 0049 04       		.uleb128 0x4
 6340 004a 01       		.byte	0x1
 6341 004b 06       		.byte	0x6
 6342 004c 13040000 		.4byte	.LASF3
 6343 0050 03       		.uleb128 0x3
 6344 0051 410E0000 		.4byte	.LASF4
 6345 0055 05       		.byte	0x5
 6346 0056 1D       		.byte	0x1d
 6347 0057 5B000000 		.4byte	0x5b
 6348 005b 04       		.uleb128 0x4
 6349 005c 01       		.byte	0x1
 6350 005d 08       		.byte	0x8
 6351 005e 26100000 		.4byte	.LASF5
 6352 0062 03       		.uleb128 0x3
 6353 0063 460A0000 		.4byte	.LASF6
 6354 0067 05       		.byte	0x5
 6355 0068 29       		.byte	0x29
 6356 0069 6D000000 		.4byte	0x6d
 6357 006d 04       		.uleb128 0x4
 6358 006e 02       		.byte	0x2
 6359 006f 05       		.byte	0x5
 6360 0070 EE0C0000 		.4byte	.LASF7
 6361 0074 03       		.uleb128 0x3
 6362 0075 61050000 		.4byte	.LASF8
 6363 0079 05       		.byte	0x5
 6364 007a 2B       		.byte	0x2b
 6365 007b 7F000000 		.4byte	0x7f
 6366 007f 04       		.uleb128 0x4
 6367 0080 02       		.byte	0x2
 6368 0081 07       		.byte	0x7
 6369 0082 09120000 		.4byte	.LASF9
 6370 0086 03       		.uleb128 0x3
ARM GAS  C:\Users\jo\AppData\Local\Temp\ccpKXchH.s 			page 120


 6371 0087 89020000 		.4byte	.LASF10
 6372 008b 05       		.byte	0x5
 6373 008c 3F       		.byte	0x3f
 6374 008d 91000000 		.4byte	0x91
 6375 0091 04       		.uleb128 0x4
 6376 0092 04       		.byte	0x4
 6377 0093 05       		.byte	0x5
 6378 0094 260D0000 		.4byte	.LASF11
 6379 0098 03       		.uleb128 0x3
 6380 0099 F7080000 		.4byte	.LASF12
 6381 009d 05       		.byte	0x5
 6382 009e 41       		.byte	0x41
 6383 009f A3000000 		.4byte	0xa3
 6384 00a3 04       		.uleb128 0x4
 6385 00a4 04       		.byte	0x4
 6386 00a5 07       		.byte	0x7
 6387 00a6 0E0F0000 		.4byte	.LASF13
 6388 00aa 04       		.uleb128 0x4
 6389 00ab 08       		.byte	0x8
 6390 00ac 05       		.byte	0x5
 6391 00ad BE080000 		.4byte	.LASF14
 6392 00b1 03       		.uleb128 0x3
 6393 00b2 2F070000 		.4byte	.LASF15
 6394 00b6 05       		.byte	0x5
 6395 00b7 5B       		.byte	0x5b
 6396 00b8 BC000000 		.4byte	0xbc
 6397 00bc 04       		.uleb128 0x4
 6398 00bd 08       		.byte	0x8
 6399 00be 07       		.byte	0x7
 6400 00bf 11050000 		.4byte	.LASF16
 6401 00c3 03       		.uleb128 0x3
 6402 00c4 3A040000 		.4byte	.LASF17
 6403 00c8 06       		.byte	0x6
 6404 00c9 14       		.byte	0x14
 6405 00ca 3E000000 		.4byte	0x3e
 6406 00ce 03       		.uleb128 0x3
 6407 00cf 07090000 		.4byte	.LASF18
 6408 00d3 06       		.byte	0x6
 6409 00d4 15       		.byte	0x15
 6410 00d5 50000000 		.4byte	0x50
 6411 00d9 03       		.uleb128 0x3
 6412 00da F3040000 		.4byte	.LASF19
 6413 00de 06       		.byte	0x6
 6414 00df 20       		.byte	0x20
 6415 00e0 62000000 		.4byte	0x62
 6416 00e4 03       		.uleb128 0x3
 6417 00e5 0A0C0000 		.4byte	.LASF20
 6418 00e9 06       		.byte	0x6
 6419 00ea 21       		.byte	0x21
 6420 00eb 74000000 		.4byte	0x74
 6421 00ef 03       		.uleb128 0x3
 6422 00f0 590F0000 		.4byte	.LASF21
 6423 00f4 06       		.byte	0x6
 6424 00f5 2C       		.byte	0x2c
 6425 00f6 86000000 		.4byte	0x86
 6426 00fa 03       		.uleb128 0x3
 6427 00fb 31040000 		.4byte	.LASF22
ARM GAS  C:\Users\jo\AppData\Local\Temp\ccpKXchH.s 			page 121


 6428 00ff 06       		.byte	0x6
 6429 0100 2D       		.byte	0x2d
 6430 0101 98000000 		.4byte	0x98
 6431 0105 03       		.uleb128 0x3
 6432 0106 B90D0000 		.4byte	.LASF23
 6433 010a 06       		.byte	0x6
 6434 010b 39       		.byte	0x39
 6435 010c B1000000 		.4byte	0xb1
 6436 0110 05       		.uleb128 0x5
 6437 0111 EF000000 		.4byte	0xef
 6438 0115 03       		.uleb128 0x3
 6439 0116 4E0C0000 		.4byte	.LASF24
 6440 011a 07       		.byte	0x7
 6441 011b 45       		.byte	0x45
 6442 011c FA000000 		.4byte	0xfa
 6443 0120 03       		.uleb128 0x3
 6444 0121 47080000 		.4byte	.LASF25
 6445 0125 07       		.byte	0x7
 6446 0126 46       		.byte	0x46
 6447 0127 05010000 		.4byte	0x105
 6448 012b 03       		.uleb128 0x3
 6449 012c A90B0000 		.4byte	.LASF26
 6450 0130 07       		.byte	0x7
 6451 0131 48       		.byte	0x48
 6452 0132 CE000000 		.4byte	0xce
 6453 0136 03       		.uleb128 0x3
 6454 0137 8A080000 		.4byte	.LASF27
 6455 013b 07       		.byte	0x7
 6456 013c 49       		.byte	0x49
 6457 013d CE000000 		.4byte	0xce
 6458 0141 03       		.uleb128 0x3
 6459 0142 C20C0000 		.4byte	.LASF28
 6460 0146 07       		.byte	0x7
 6461 0147 4A       		.byte	0x4a
 6462 0148 CE000000 		.4byte	0xce
 6463 014c 03       		.uleb128 0x3
 6464 014d B7040000 		.4byte	.LASF29
 6465 0151 07       		.byte	0x7
 6466 0152 4C       		.byte	0x4c
 6467 0153 FA000000 		.4byte	0xfa
 6468 0157 03       		.uleb128 0x3
 6469 0158 060A0000 		.4byte	.LASF30
 6470 015c 07       		.byte	0x7
 6471 015d 4D       		.byte	0x4d
 6472 015e EF000000 		.4byte	0xef
 6473 0162 03       		.uleb128 0x3
 6474 0163 5B040000 		.4byte	.LASF31
 6475 0167 07       		.byte	0x7
 6476 0168 4F       		.byte	0x4f
 6477 0169 FA000000 		.4byte	0xfa
 6478 016d 03       		.uleb128 0x3
 6479 016e 000A0000 		.4byte	.LASF32
 6480 0172 07       		.byte	0x7
 6481 0173 51       		.byte	0x51
 6482 0174 EF000000 		.4byte	0xef
 6483 0178 03       		.uleb128 0x3
 6484 0179 B10B0000 		.4byte	.LASF33
ARM GAS  C:\Users\jo\AppData\Local\Temp\ccpKXchH.s 			page 122


 6485 017d 07       		.byte	0x7
 6486 017e 52       		.byte	0x52
 6487 017f FA000000 		.4byte	0xfa
 6488 0183 03       		.uleb128 0x3
 6489 0184 A0010000 		.4byte	.LASF34
 6490 0188 08       		.byte	0x8
 6491 0189 33       		.byte	0x33
 6492 018a FA000000 		.4byte	0xfa
 6493 018e 03       		.uleb128 0x3
 6494 018f 22060000 		.4byte	.LASF35
 6495 0193 08       		.byte	0x8
 6496 0194 3F       		.byte	0x3f
 6497 0195 99010000 		.4byte	0x199
 6498 0199 06       		.uleb128 0x6
 6499 019a 5B090000 		.4byte	.LASF56
 6500 019e 60       		.byte	0x60
 6501 019f 09       		.byte	0x9
 6502 01a0 BE       		.byte	0xbe
 6503 01a1 9F020000 		.4byte	0x29f
 6504 01a5 07       		.uleb128 0x7
 6505 01a6 37060000 		.4byte	.LASF36
 6506 01aa 09       		.byte	0x9
 6507 01ab BF       		.byte	0xbf
 6508 01ac 5E060000 		.4byte	0x65e
 6509 01b0 00       		.byte	0
 6510 01b1 07       		.uleb128 0x7
 6511 01b2 E90E0000 		.4byte	.LASF37
 6512 01b6 09       		.byte	0x9
 6513 01b7 C1       		.byte	0xc1
 6514 01b8 5E060000 		.4byte	0x65e
 6515 01bc 04       		.byte	0x4
 6516 01bd 07       		.uleb128 0x7
 6517 01be 75000000 		.4byte	.LASF38
 6518 01c2 09       		.byte	0x9
 6519 01c3 C3       		.byte	0xc3
 6520 01c4 4C010000 		.4byte	0x14c
 6521 01c8 08       		.byte	0x8
 6522 01c9 07       		.uleb128 0x7
 6523 01ca C20D0000 		.4byte	.LASF39
 6524 01ce 09       		.byte	0x9
 6525 01cf C4       		.byte	0xc4
 6526 01d0 02050000 		.4byte	0x502
 6527 01d4 0C       		.byte	0xc
 6528 01d5 07       		.uleb128 0x7
 6529 01d6 B3050000 		.4byte	.LASF40
 6530 01da 09       		.byte	0x9
 6531 01db C6       		.byte	0xc6
 6532 01dc 5E060000 		.4byte	0x65e
 6533 01e0 10       		.byte	0x10
 6534 01e1 07       		.uleb128 0x7
 6535 01e2 DA080000 		.4byte	.LASF41
 6536 01e6 09       		.byte	0x9
 6537 01e7 C7       		.byte	0xc7
 6538 01e8 5E060000 		.4byte	0x65e
 6539 01ec 14       		.byte	0x14
 6540 01ed 07       		.uleb128 0x7
 6541 01ee CB070000 		.4byte	.LASF42
ARM GAS  C:\Users\jo\AppData\Local\Temp\ccpKXchH.s 			page 123


 6542 01f2 09       		.byte	0x9
 6543 01f3 CE       		.byte	0xce
 6544 01f4 CB050000 		.4byte	0x5cb
 6545 01f8 18       		.byte	0x18
 6546 01f9 07       		.uleb128 0x7
 6547 01fa EC080000 		.4byte	.LASF43
 6548 01fe 09       		.byte	0x9
 6549 01ff D4       		.byte	0xd4
 6550 0200 A8070000 		.4byte	0x7a8
 6551 0204 1C       		.byte	0x1c
 6552 0205 07       		.uleb128 0x7
 6553 0206 4E0B0000 		.4byte	.LASF44
 6554 020a 09       		.byte	0x9
 6555 020b D9       		.byte	0xd9
 6556 020c 36010000 		.4byte	0x136
 6557 0210 20       		.byte	0x20
 6558 0211 07       		.uleb128 0x7
 6559 0212 3E0A0000 		.4byte	.LASF45
 6560 0216 09       		.byte	0x9
 6561 0217 DD       		.byte	0xdd
 6562 0218 2B010000 		.4byte	0x12b
 6563 021c 21       		.byte	0x21
 6564 021d 07       		.uleb128 0x7
 6565 021e 74100000 		.4byte	.LASF46
 6566 0222 09       		.byte	0x9
 6567 0223 E2       		.byte	0xe2
 6568 0224 41010000 		.4byte	0x141
 6569 0228 22       		.byte	0x22
 6570 0229 08       		.uleb128 0x8
 6571 022a 705F7500 		.ascii	"p_u\000"
 6572 022e 09       		.byte	0x9
 6573 022f 1401     		.2byte	0x114
 6574 0231 70070000 		.4byte	0x770
 6575 0235 24       		.byte	0x24
 6576 0236 09       		.uleb128 0x9
 6577 0237 7F020000 		.4byte	.LASF47
 6578 023b 09       		.byte	0x9
 6579 023c 1901     		.2byte	0x119
 6580 023e 9F020000 		.4byte	0x29f
 6581 0242 28       		.byte	0x28
 6582 0243 09       		.uleb128 0x9
 6583 0244 54120000 		.4byte	.LASF48
 6584 0248 09       		.byte	0x9
 6585 0249 1F01     		.2byte	0x11f
 6586 024b C3020000 		.4byte	0x2c3
 6587 024f 2C       		.byte	0x2c
 6588 0250 09       		.uleb128 0x9
 6589 0251 920B0000 		.4byte	.LASF49
 6590 0255 09       		.byte	0x9
 6591 0256 2301     		.2byte	0x123
 6592 0258 57010000 		.4byte	0x157
 6593 025c 34       		.byte	0x34
 6594 025d 09       		.uleb128 0x9
 6595 025e 0B0D0000 		.4byte	.LASF50
 6596 0262 09       		.byte	0x9
 6597 0263 2901     		.2byte	0x129
 6598 0265 62010000 		.4byte	0x162
ARM GAS  C:\Users\jo\AppData\Local\Temp\ccpKXchH.s 			page 124


 6599 0269 38       		.byte	0x38
 6600 026a 09       		.uleb128 0x9
 6601 026b 3B090000 		.4byte	.LASF51
 6602 026f 09       		.byte	0x9
 6603 0270 3001     		.2byte	0x130
 6604 0272 DF070000 		.4byte	0x7df
 6605 0276 3C       		.byte	0x3c
 6606 0277 09       		.uleb128 0x9
 6607 0278 CA0C0000 		.4byte	.LASF52
 6608 027c 09       		.byte	0x9
 6609 027d 3401     		.2byte	0x134
 6610 027f 4C010000 		.4byte	0x14c
 6611 0283 40       		.byte	0x40
 6612 0284 09       		.uleb128 0x9
 6613 0285 33090000 		.4byte	.LASF53
 6614 0289 09       		.byte	0x9
 6615 028a 3A01     		.2byte	0x13a
 6616 028c 76030000 		.4byte	0x376
 6617 0290 44       		.byte	0x44
 6618 0291 09       		.uleb128 0x9
 6619 0292 C3090000 		.4byte	.LASF54
 6620 0296 09       		.byte	0x9
 6621 0297 4001     		.2byte	0x140
 6622 0299 21070000 		.4byte	0x721
 6623 029d 48       		.byte	0x48
 6624 029e 00       		.byte	0
 6625 029f 03       		.uleb128 0x3
 6626 02a0 51020000 		.4byte	.LASF55
 6627 02a4 08       		.byte	0x8
 6628 02a5 44       		.byte	0x44
 6629 02a6 AA020000 		.4byte	0x2aa
 6630 02aa 06       		.uleb128 0x6
 6631 02ab 75040000 		.4byte	.LASF57
 6632 02af 04       		.byte	0x4
 6633 02b0 09       		.byte	0x9
 6634 02b1 AC       		.byte	0xac
 6635 02b2 C3020000 		.4byte	0x2c3
 6636 02b6 07       		.uleb128 0x7
 6637 02b7 37060000 		.4byte	.LASF36
 6638 02bb 09       		.byte	0x9
 6639 02bc AD       		.byte	0xad
 6640 02bd 5E060000 		.4byte	0x65e
 6641 02c1 00       		.byte	0
 6642 02c2 00       		.byte	0
 6643 02c3 03       		.uleb128 0x3
 6644 02c4 16000000 		.4byte	.LASF58
 6645 02c8 08       		.byte	0x8
 6646 02c9 4B       		.byte	0x4b
 6647 02ca CE020000 		.4byte	0x2ce
 6648 02ce 06       		.uleb128 0x6
 6649 02cf A6090000 		.4byte	.LASF59
 6650 02d3 08       		.byte	0x8
 6651 02d4 09       		.byte	0x9
 6652 02d5 B3       		.byte	0xb3
 6653 02d6 F3020000 		.4byte	0x2f3
 6654 02da 07       		.uleb128 0x7
 6655 02db 37060000 		.4byte	.LASF36
ARM GAS  C:\Users\jo\AppData\Local\Temp\ccpKXchH.s 			page 125


 6656 02df 09       		.byte	0x9
 6657 02e0 B4       		.byte	0xb4
 6658 02e1 5E060000 		.4byte	0x65e
 6659 02e5 00       		.byte	0
 6660 02e6 07       		.uleb128 0x7
 6661 02e7 E90E0000 		.4byte	.LASF37
 6662 02eb 09       		.byte	0x9
 6663 02ec B5       		.byte	0xb5
 6664 02ed 5E060000 		.4byte	0x65e
 6665 02f1 04       		.byte	0x4
 6666 02f2 00       		.byte	0
 6667 02f3 03       		.uleb128 0x3
 6668 02f4 200F0000 		.4byte	.LASF60
 6669 02f8 08       		.byte	0x8
 6670 02f9 52       		.byte	0x52
 6671 02fa FE020000 		.4byte	0x2fe
 6672 02fe 0A       		.uleb128 0xa
 6673 02ff 35030000 		.4byte	.LASF61
 6674 0303 1C       		.byte	0x1c
 6675 0304 09       		.byte	0x9
 6676 0305 7201     		.2byte	0x172
 6677 0307 5A030000 		.4byte	0x35a
 6678 030b 09       		.uleb128 0x9
 6679 030c D7090000 		.4byte	.LASF62
 6680 0310 09       		.byte	0x9
 6681 0311 7301     		.2byte	0x173
 6682 0313 C3020000 		.4byte	0x2c3
 6683 0317 00       		.byte	0
 6684 0318 09       		.uleb128 0x9
 6685 0319 67040000 		.4byte	.LASF63
 6686 031d 09       		.byte	0x9
 6687 031e 7401     		.2byte	0x174
 6688 0320 4C010000 		.4byte	0x14c
 6689 0324 08       		.byte	0x8
 6690 0325 09       		.uleb128 0x9
 6691 0326 1C120000 		.4byte	.LASF64
 6692 032a 09       		.byte	0x9
 6693 032b 7601     		.2byte	0x176
 6694 032d 02050000 		.4byte	0x502
 6695 0331 0C       		.byte	0xc
 6696 0332 09       		.uleb128 0x9
 6697 0333 EF090000 		.4byte	.LASF65
 6698 0337 09       		.byte	0x9
 6699 0338 7901     		.2byte	0x179
 6700 033a 5E060000 		.4byte	0x65e
 6701 033e 10       		.byte	0x10
 6702 033f 09       		.uleb128 0x9
 6703 0340 3A0B0000 		.4byte	.LASF66
 6704 0344 09       		.byte	0x9
 6705 0345 7A01     		.2byte	0x17a
 6706 0347 5E060000 		.4byte	0x65e
 6707 034b 14       		.byte	0x14
 6708 034c 09       		.uleb128 0x9
 6709 034d 010D0000 		.4byte	.LASF67
 6710 0351 09       		.byte	0x9
 6711 0352 7D01     		.2byte	0x17d
 6712 0354 5E060000 		.4byte	0x65e
ARM GAS  C:\Users\jo\AppData\Local\Temp\ccpKXchH.s 			page 126


 6713 0358 18       		.byte	0x18
 6714 0359 00       		.byte	0
 6715 035a 03       		.uleb128 0x3
 6716 035b ED030000 		.4byte	.LASF68
 6717 035f 08       		.byte	0x8
 6718 0360 57       		.byte	0x57
 6719 0361 65030000 		.4byte	0x365
 6720 0365 0B       		.uleb128 0xb
 6721 0366 04       		.byte	0x4
 6722 0367 6B030000 		.4byte	0x36b
 6723 036b 0C       		.uleb128 0xc
 6724 036c 76030000 		.4byte	0x376
 6725 0370 0D       		.uleb128 0xd
 6726 0371 76030000 		.4byte	0x376
 6727 0375 00       		.byte	0
 6728 0376 0E       		.uleb128 0xe
 6729 0377 04       		.byte	0x4
 6730 0378 03       		.uleb128 0x3
 6731 0379 5D0A0000 		.4byte	.LASF69
 6732 037d 08       		.byte	0x8
 6733 037e 5C       		.byte	0x5c
 6734 037f 83030000 		.4byte	0x383
 6735 0383 0A       		.uleb128 0xa
 6736 0384 D8040000 		.4byte	.LASF70
 6737 0388 14       		.byte	0x14
 6738 0389 09       		.byte	0x9
 6739 038a 4D01     		.2byte	0x14d
 6740 038c D2030000 		.4byte	0x3d2
 6741 0390 09       		.uleb128 0x9
 6742 0391 2D110000 		.4byte	.LASF71
 6743 0395 09       		.byte	0x9
 6744 0396 4E01     		.2byte	0x14e
 6745 0398 E5070000 		.4byte	0x7e5
 6746 039c 00       		.byte	0
 6747 039d 09       		.uleb128 0x9
 6748 039e BE120000 		.4byte	.LASF72
 6749 03a2 09       		.byte	0x9
 6750 03a3 4F01     		.2byte	0x14f
 6751 03a5 E5070000 		.4byte	0x7e5
 6752 03a9 04       		.byte	0x4
 6753 03aa 09       		.uleb128 0x9
 6754 03ab 1A080000 		.4byte	.LASF73
 6755 03af 09       		.byte	0x9
 6756 03b0 5001     		.2byte	0x150
 6757 03b2 83010000 		.4byte	0x183
 6758 03b6 08       		.byte	0x8
 6759 03b7 09       		.uleb128 0x9
 6760 03b8 90120000 		.4byte	.LASF74
 6761 03bc 09       		.byte	0x9
 6762 03bd 5101     		.2byte	0x151
 6763 03bf 5A030000 		.4byte	0x35a
 6764 03c3 0C       		.byte	0xc
 6765 03c4 09       		.uleb128 0x9
 6766 03c5 92040000 		.4byte	.LASF75
 6767 03c9 09       		.byte	0x9
 6768 03ca 5301     		.2byte	0x153
 6769 03cc 76030000 		.4byte	0x376
ARM GAS  C:\Users\jo\AppData\Local\Temp\ccpKXchH.s 			page 127


 6770 03d0 10       		.byte	0x10
 6771 03d1 00       		.byte	0
 6772 03d2 03       		.uleb128 0x3
 6773 03d3 5E100000 		.4byte	.LASF76
 6774 03d7 08       		.byte	0x8
 6775 03d8 61       		.byte	0x61
 6776 03d9 DD030000 		.4byte	0x3dd
 6777 03dd 0A       		.uleb128 0xa
 6778 03de C7050000 		.4byte	.LASF77
 6779 03e2 10       		.byte	0x10
 6780 03e3 09       		.byte	0x9
 6781 03e4 5D01     		.2byte	0x15d
 6782 03e6 1F040000 		.4byte	0x41f
 6783 03ea 09       		.uleb128 0x9
 6784 03eb 2D110000 		.4byte	.LASF71
 6785 03ef 09       		.byte	0x9
 6786 03f0 5E01     		.2byte	0x15e
 6787 03f2 E5070000 		.4byte	0x7e5
 6788 03f6 00       		.byte	0
 6789 03f7 09       		.uleb128 0x9
 6790 03f8 BE120000 		.4byte	.LASF72
 6791 03fc 09       		.byte	0x9
 6792 03fd 6001     		.2byte	0x160
 6793 03ff E5070000 		.4byte	0x7e5
 6794 0403 04       		.byte	0x4
 6795 0404 09       		.uleb128 0x9
 6796 0405 1A080000 		.4byte	.LASF73
 6797 0409 09       		.byte	0x9
 6798 040a 6201     		.2byte	0x162
 6799 040c 83010000 		.4byte	0x183
 6800 0410 08       		.byte	0x8
 6801 0411 09       		.uleb128 0x9
 6802 0412 E2100000 		.4byte	.LASF78
 6803 0416 09       		.byte	0x9
 6804 0417 6A01     		.2byte	0x16a
 6805 0419 83010000 		.4byte	0x183
 6806 041d 0C       		.byte	0xc
 6807 041e 00       		.byte	0
 6808 041f 03       		.uleb128 0x3
 6809 0420 7B080000 		.4byte	.LASF79
 6810 0424 08       		.byte	0x8
 6811 0425 66       		.byte	0x66
 6812 0426 2A040000 		.4byte	0x42a
 6813 042a 0F       		.uleb128 0xf
 6814 042b 03040000 		.4byte	.LASF80
 6815 042f 1404     		.2byte	0x414
 6816 0431 09       		.byte	0x9
 6817 0432 8401     		.2byte	0x184
 6818 0434 6D040000 		.4byte	0x46d
 6819 0438 09       		.uleb128 0x9
 6820 0439 7D0B0000 		.4byte	.LASF81
 6821 043d 09       		.byte	0x9
 6822 043e 8C01     		.2byte	0x18c
 6823 0440 EB070000 		.4byte	0x7eb
 6824 0444 00       		.byte	0
 6825 0445 09       		.uleb128 0x9
 6826 0446 9A050000 		.4byte	.LASF82
ARM GAS  C:\Users\jo\AppData\Local\Temp\ccpKXchH.s 			page 128


 6827 044a 09       		.byte	0x9
 6828 044b 9101     		.2byte	0x191
 6829 044d 6D010000 		.4byte	0x16d
 6830 0451 04       		.byte	0x4
 6831 0452 09       		.uleb128 0x9
 6832 0453 8C0C0000 		.4byte	.LASF83
 6833 0457 09       		.byte	0x9
 6834 0458 9501     		.2byte	0x195
 6835 045a 6D010000 		.4byte	0x16d
 6836 045e 08       		.byte	0x8
 6837 045f 09       		.uleb128 0x9
 6838 0460 39050000 		.4byte	.LASF84
 6839 0464 09       		.byte	0x9
 6840 0465 9B01     		.2byte	0x19b
 6841 0467 B3060000 		.4byte	0x6b3
 6842 046b 0C       		.byte	0xc
 6843 046c 00       		.byte	0
 6844 046d 03       		.uleb128 0x3
 6845 046e 42110000 		.4byte	.LASF85
 6846 0472 08       		.byte	0x8
 6847 0473 6B       		.byte	0x6b
 6848 0474 78040000 		.4byte	0x478
 6849 0478 0F       		.uleb128 0xf
 6850 0479 6F0D0000 		.4byte	.LASF86
 6851 047d D805     		.2byte	0x5d8
 6852 047f 09       		.byte	0x9
 6853 0480 A401     		.2byte	0x1a4
 6854 0482 E5040000 		.4byte	0x4e5
 6855 0486 09       		.uleb128 0x9
 6856 0487 EE0D0000 		.4byte	.LASF87
 6857 048b 09       		.byte	0x9
 6858 048c A801     		.2byte	0x1a8
 6859 048e F3020000 		.4byte	0x2f3
 6860 0492 00       		.byte	0
 6861 0493 09       		.uleb128 0x9
 6862 0494 1B030000 		.4byte	.LASF88
 6863 0498 09       		.byte	0x9
 6864 0499 AC01     		.2byte	0x1ac
 6865 049b D2030000 		.4byte	0x3d2
 6866 049f 1C       		.byte	0x1c
 6867 04a0 08       		.uleb128 0x8
 6868 04a1 64626700 		.ascii	"dbg\000"
 6869 04a5 09       		.byte	0x9
 6870 04a6 B001     		.2byte	0x1b0
 6871 04a8 1F040000 		.4byte	0x41f
 6872 04ac 2C       		.byte	0x2c
 6873 04ad 10       		.uleb128 0x10
 6874 04ae E50B0000 		.4byte	.LASF89
 6875 04b2 09       		.byte	0x9
 6876 04b3 B401     		.2byte	0x1b4
 6877 04b5 8E010000 		.4byte	0x18e
 6878 04b9 4004     		.2byte	0x440
 6879 04bb 11       		.uleb128 0x11
 6880 04bc 746D00   		.ascii	"tm\000"
 6881 04bf 09       		.byte	0x9
 6882 04c0 B901     		.2byte	0x1b9
 6883 04c2 D3060000 		.4byte	0x6d3
ARM GAS  C:\Users\jo\AppData\Local\Temp\ccpKXchH.s 			page 129


 6884 04c6 A004     		.2byte	0x4a0
 6885 04c8 10       		.uleb128 0x10
 6886 04c9 85040000 		.4byte	.LASF90
 6887 04cd 09       		.byte	0x9
 6888 04ce BF01     		.2byte	0x1bf
 6889 04d0 65070000 		.4byte	0x765
 6890 04d4 A804     		.2byte	0x4a8
 6891 04d6 10       		.uleb128 0x10
 6892 04d7 610F0000 		.4byte	.LASF91
 6893 04db 09       		.byte	0x9
 6894 04dc C501     		.2byte	0x1c5
 6895 04de F0070000 		.4byte	0x7f0
 6896 04e2 E004     		.2byte	0x4e0
 6897 04e4 00       		.byte	0
 6898 04e5 04       		.uleb128 0x4
 6899 04e6 04       		.byte	0x4
 6900 04e7 07       		.byte	0x7
 6901 04e8 820A0000 		.4byte	.LASF92
 6902 04ec 03       		.uleb128 0x3
 6903 04ed 6C000000 		.4byte	.LASF93
 6904 04f1 0A       		.byte	0xa
 6905 04f2 85       		.byte	0x85
 6906 04f3 76030000 		.4byte	0x376
 6907 04f7 03       		.uleb128 0x3
 6908 04f8 22120000 		.4byte	.LASF94
 6909 04fc 0A       		.byte	0xa
 6910 04fd 8D       		.byte	0x8d
 6911 04fe 05010000 		.4byte	0x105
 6912 0502 06       		.uleb128 0x6
 6913 0503 1A0A0000 		.4byte	.LASF95
 6914 0507 04       		.byte	0x4
 6915 0508 0A       		.byte	0xa
 6916 0509 A9       		.byte	0xa9
 6917 050a 1B050000 		.4byte	0x51b
 6918 050e 12       		.uleb128 0x12
 6919 050f 72313300 		.ascii	"r13\000"
 6920 0513 0A       		.byte	0xa
 6921 0514 AA       		.byte	0xaa
 6922 0515 96050000 		.4byte	0x596
 6923 0519 00       		.byte	0
 6924 051a 00       		.byte	0
 6925 051b 06       		.uleb128 0x6
 6926 051c 2F0D0000 		.4byte	.LASF96
 6927 0520 24       		.byte	0x24
 6928 0521 0B       		.byte	0xb
 6929 0522 F4       		.byte	0xf4
 6930 0523 96050000 		.4byte	0x596
 6931 0527 08       		.uleb128 0x8
 6932 0528 723400   		.ascii	"r4\000"
 6933 052b 0B       		.byte	0xb
 6934 052c 0701     		.2byte	0x107
 6935 052e EC040000 		.4byte	0x4ec
 6936 0532 00       		.byte	0
 6937 0533 08       		.uleb128 0x8
 6938 0534 723500   		.ascii	"r5\000"
 6939 0537 0B       		.byte	0xb
 6940 0538 0801     		.2byte	0x108
ARM GAS  C:\Users\jo\AppData\Local\Temp\ccpKXchH.s 			page 130


 6941 053a EC040000 		.4byte	0x4ec
 6942 053e 04       		.byte	0x4
 6943 053f 08       		.uleb128 0x8
 6944 0540 723600   		.ascii	"r6\000"
 6945 0543 0B       		.byte	0xb
 6946 0544 0901     		.2byte	0x109
 6947 0546 EC040000 		.4byte	0x4ec
 6948 054a 08       		.byte	0x8
 6949 054b 08       		.uleb128 0x8
 6950 054c 723700   		.ascii	"r7\000"
 6951 054f 0B       		.byte	0xb
 6952 0550 0A01     		.2byte	0x10a
 6953 0552 EC040000 		.4byte	0x4ec
 6954 0556 0C       		.byte	0xc
 6955 0557 08       		.uleb128 0x8
 6956 0558 723800   		.ascii	"r8\000"
 6957 055b 0B       		.byte	0xb
 6958 055c 0B01     		.2byte	0x10b
 6959 055e EC040000 		.4byte	0x4ec
 6960 0562 10       		.byte	0x10
 6961 0563 08       		.uleb128 0x8
 6962 0564 723900   		.ascii	"r9\000"
 6963 0567 0B       		.byte	0xb
 6964 0568 0C01     		.2byte	0x10c
 6965 056a EC040000 		.4byte	0x4ec
 6966 056e 14       		.byte	0x14
 6967 056f 08       		.uleb128 0x8
 6968 0570 72313000 		.ascii	"r10\000"
 6969 0574 0B       		.byte	0xb
 6970 0575 0D01     		.2byte	0x10d
 6971 0577 EC040000 		.4byte	0x4ec
 6972 057b 18       		.byte	0x18
 6973 057c 08       		.uleb128 0x8
 6974 057d 72313100 		.ascii	"r11\000"
 6975 0581 0B       		.byte	0xb
 6976 0582 0E01     		.2byte	0x10e
 6977 0584 EC040000 		.4byte	0x4ec
 6978 0588 1C       		.byte	0x1c
 6979 0589 08       		.uleb128 0x8
 6980 058a 6C7200   		.ascii	"lr\000"
 6981 058d 0B       		.byte	0xb
 6982 058e 0F01     		.2byte	0x10f
 6983 0590 EC040000 		.4byte	0x4ec
 6984 0594 20       		.byte	0x20
 6985 0595 00       		.byte	0
 6986 0596 0B       		.uleb128 0xb
 6987 0597 04       		.byte	0x4
 6988 0598 1B050000 		.4byte	0x51b
 6989 059c 03       		.uleb128 0x3
 6990 059d 3E060000 		.4byte	.LASF97
 6991 05a1 0C       		.byte	0xc
 6992 05a2 28       		.byte	0x28
 6993 05a3 A7050000 		.4byte	0x5a7
 6994 05a7 06       		.uleb128 0x6
 6995 05a8 79110000 		.4byte	.LASF98
 6996 05ac 04       		.byte	0x4
 6997 05ad 0D       		.byte	0xd
ARM GAS  C:\Users\jo\AppData\Local\Temp\ccpKXchH.s 			page 131


 6998 05ae 00       		.byte	0
 6999 05af BE050000 		.4byte	0x5be
 7000 05b3 13       		.uleb128 0x13
 7001 05b4 580A0000 		.4byte	.LASF124
 7002 05b8 76030000 		.4byte	0x376
 7003 05bc 00       		.byte	0
 7004 05bd 00       		.byte	0
 7005 05be 0B       		.uleb128 0xb
 7006 05bf 04       		.byte	0x4
 7007 05c0 C4050000 		.4byte	0x5c4
 7008 05c4 04       		.uleb128 0x4
 7009 05c5 01       		.byte	0x1
 7010 05c6 08       		.byte	0x8
 7011 05c7 5D000000 		.4byte	.LASF99
 7012 05cb 0B       		.uleb128 0xb
 7013 05cc 04       		.byte	0x4
 7014 05cd D1050000 		.4byte	0x5d1
 7015 05d1 14       		.uleb128 0x14
 7016 05d2 C4050000 		.4byte	0x5c4
 7017 05d6 15       		.uleb128 0x15
 7018 05d7 C4050000 		.4byte	0x5c4
 7019 05db E6050000 		.4byte	0x5e6
 7020 05df 16       		.uleb128 0x16
 7021 05e0 E5040000 		.4byte	0x4e5
 7022 05e4 07       		.byte	0x7
 7023 05e5 00       		.byte	0
 7024 05e6 03       		.uleb128 0x3
 7025 05e7 B50E0000 		.4byte	.LASF100
 7026 05eb 0E       		.byte	0xe
 7027 05ec F4       		.byte	0xf4
 7028 05ed 91000000 		.4byte	0x91
 7029 05f1 06       		.uleb128 0x6
 7030 05f2 BF060000 		.4byte	.LASF101
 7031 05f6 08       		.byte	0x8
 7032 05f7 0E       		.byte	0xe
 7033 05f8 FC       		.byte	0xfc
 7034 05f9 0A060000 		.4byte	0x60a
 7035 05fd 07       		.uleb128 0x7
 7036 05fe CF040000 		.4byte	.LASF102
 7037 0602 0E       		.byte	0xe
 7038 0603 FD       		.byte	0xfd
 7039 0604 0A060000 		.4byte	0x60a
 7040 0608 00       		.byte	0
 7041 0609 00       		.byte	0
 7042 060a 15       		.uleb128 0x15
 7043 060b E6050000 		.4byte	0x5e6
 7044 060f 1A060000 		.4byte	0x61a
 7045 0613 16       		.uleb128 0x16
 7046 0614 E5040000 		.4byte	0x4e5
 7047 0618 01       		.byte	0x1
 7048 0619 00       		.byte	0
 7049 061a 03       		.uleb128 0x3
 7050 061b BF060000 		.4byte	.LASF101
 7051 061f 0E       		.byte	0xe
 7052 0620 FE       		.byte	0xfe
 7053 0621 F1050000 		.4byte	0x5f1
 7054 0625 17       		.uleb128 0x17
ARM GAS  C:\Users\jo\AppData\Local\Temp\ccpKXchH.s 			page 132


 7055 0626 10       		.byte	0x10
 7056 0627 0F       		.byte	0xf
 7057 0628 57       		.byte	0x57
 7058 0629 5E060000 		.4byte	0x65e
 7059 062d 07       		.uleb128 0x7
 7060 062e 11060000 		.4byte	.LASF103
 7061 0632 0F       		.byte	0xf
 7062 0633 5B       		.byte	0x5b
 7063 0634 83010000 		.4byte	0x183
 7064 0638 00       		.byte	0
 7065 0639 07       		.uleb128 0x7
 7066 063a 93080000 		.4byte	.LASF104
 7067 063e 0F       		.byte	0xf
 7068 063f 5F       		.byte	0x5f
 7069 0640 5E060000 		.4byte	0x65e
 7070 0644 04       		.byte	0x4
 7071 0645 07       		.uleb128 0x7
 7072 0646 28050000 		.4byte	.LASF105
 7073 064a 0F       		.byte	0xf
 7074 064b 63       		.byte	0x63
 7075 064c 76030000 		.4byte	0x376
 7076 0650 08       		.byte	0x8
 7077 0651 07       		.uleb128 0x7
 7078 0652 EC010000 		.4byte	.LASF106
 7079 0656 0F       		.byte	0xf
 7080 0657 67       		.byte	0x67
 7081 0658 CE000000 		.4byte	0xce
 7082 065c 0C       		.byte	0xc
 7083 065d 00       		.byte	0
 7084 065e 0B       		.uleb128 0xb
 7085 065f 04       		.byte	0x4
 7086 0660 8E010000 		.4byte	0x18e
 7087 0664 03       		.uleb128 0x3
 7088 0665 F00F0000 		.4byte	.LASF107
 7089 0669 0F       		.byte	0xf
 7090 066a 68       		.byte	0x68
 7091 066b 25060000 		.4byte	0x625
 7092 066f 18       		.uleb128 0x18
 7093 0670 0804     		.2byte	0x408
 7094 0672 0F       		.byte	0xf
 7095 0673 6D       		.byte	0x6d
 7096 0674 9D060000 		.4byte	0x69d
 7097 0678 07       		.uleb128 0x7
 7098 0679 65090000 		.4byte	.LASF108
 7099 067d 0F       		.byte	0xf
 7100 067e 71       		.byte	0x71
 7101 067f 37000000 		.4byte	0x37
 7102 0683 00       		.byte	0
 7103 0684 07       		.uleb128 0x7
 7104 0685 FB0A0000 		.4byte	.LASF109
 7105 0689 0F       		.byte	0xf
 7106 068a 75       		.byte	0x75
 7107 068b 9D060000 		.4byte	0x69d
 7108 068f 04       		.byte	0x4
 7109 0690 07       		.uleb128 0x7
 7110 0691 DB0A0000 		.4byte	.LASF110
 7111 0695 0F       		.byte	0xf
ARM GAS  C:\Users\jo\AppData\Local\Temp\ccpKXchH.s 			page 133


 7112 0696 79       		.byte	0x79
 7113 0697 A3060000 		.4byte	0x6a3
 7114 069b 08       		.byte	0x8
 7115 069c 00       		.byte	0
 7116 069d 0B       		.uleb128 0xb
 7117 069e 04       		.byte	0x4
 7118 069f 64060000 		.4byte	0x664
 7119 06a3 15       		.uleb128 0x15
 7120 06a4 64060000 		.4byte	0x664
 7121 06a8 B3060000 		.4byte	0x6b3
 7122 06ac 16       		.uleb128 0x16
 7123 06ad E5040000 		.4byte	0x4e5
 7124 06b1 3F       		.byte	0x3f
 7125 06b2 00       		.byte	0
 7126 06b3 03       		.uleb128 0x3
 7127 06b4 88110000 		.4byte	.LASF111
 7128 06b8 0F       		.byte	0xf
 7129 06b9 7A       		.byte	0x7a
 7130 06ba 6F060000 		.4byte	0x66f
 7131 06be 17       		.uleb128 0x17
 7132 06bf 04       		.byte	0x4
 7133 06c0 10       		.byte	0x10
 7134 06c1 38       		.byte	0x38
 7135 06c2 D3060000 		.4byte	0x6d3
 7136 06c6 07       		.uleb128 0x7
 7137 06c7 8E060000 		.4byte	.LASF112
 7138 06cb 10       		.byte	0x10
 7139 06cc 3C       		.byte	0x3c
 7140 06cd 15010000 		.4byte	0x115
 7141 06d1 00       		.byte	0
 7142 06d2 00       		.byte	0
 7143 06d3 03       		.uleb128 0x3
 7144 06d4 30000000 		.4byte	.LASF113
 7145 06d8 10       		.byte	0x10
 7146 06d9 3D       		.byte	0x3d
 7147 06da BE060000 		.4byte	0x6be
 7148 06de 17       		.uleb128 0x17
 7149 06df 18       		.byte	0x18
 7150 06e0 10       		.byte	0x10
 7151 06e1 48       		.byte	0x48
 7152 06e2 21070000 		.4byte	0x721
 7153 06e6 07       		.uleb128 0x7
 7154 06e7 17100000 		.4byte	.LASF114
 7155 06eb 10       		.byte	0x10
 7156 06ec 49       		.byte	0x49
 7157 06ed 15010000 		.4byte	0x115
 7158 06f1 00       		.byte	0
 7159 06f2 07       		.uleb128 0x7
 7160 06f3 A2050000 		.4byte	.LASF115
 7161 06f7 10       		.byte	0x10
 7162 06f8 4A       		.byte	0x4a
 7163 06f9 15010000 		.4byte	0x115
 7164 06fd 04       		.byte	0x4
 7165 06fe 07       		.uleb128 0x7
 7166 06ff 63070000 		.4byte	.LASF116
 7167 0703 10       		.byte	0x10
 7168 0704 4B       		.byte	0x4b
ARM GAS  C:\Users\jo\AppData\Local\Temp\ccpKXchH.s 			page 134


 7169 0705 15010000 		.4byte	0x115
 7170 0709 08       		.byte	0x8
 7171 070a 12       		.uleb128 0x12
 7172 070b 6E00     		.ascii	"n\000"
 7173 070d 10       		.byte	0x10
 7174 070e 4C       		.byte	0x4c
 7175 070f 78010000 		.4byte	0x178
 7176 0713 0C       		.byte	0xc
 7177 0714 07       		.uleb128 0x7
 7178 0715 6C020000 		.4byte	.LASF117
 7179 0719 10       		.byte	0x10
 7180 071a 4D       		.byte	0x4d
 7181 071b 20010000 		.4byte	0x120
 7182 071f 10       		.byte	0x10
 7183 0720 00       		.byte	0
 7184 0721 03       		.uleb128 0x3
 7185 0722 9D070000 		.4byte	.LASF118
 7186 0726 10       		.byte	0x10
 7187 0727 4E       		.byte	0x4e
 7188 0728 DE060000 		.4byte	0x6de
 7189 072c 17       		.uleb128 0x17
 7190 072d 38       		.byte	0x38
 7191 072e 11       		.byte	0x11
 7192 072f 38       		.byte	0x38
 7193 0730 65070000 		.4byte	0x765
 7194 0734 07       		.uleb128 0x7
 7195 0735 B10C0000 		.4byte	.LASF119
 7196 0739 11       		.byte	0x11
 7197 073a 39       		.byte	0x39
 7198 073b 78010000 		.4byte	0x178
 7199 073f 00       		.byte	0
 7200 0740 07       		.uleb128 0x7
 7201 0741 E00E0000 		.4byte	.LASF120
 7202 0745 11       		.byte	0x11
 7203 0746 3A       		.byte	0x3a
 7204 0747 78010000 		.4byte	0x178
 7205 074b 04       		.byte	0x4
 7206 074c 07       		.uleb128 0x7
 7207 074d 960D0000 		.4byte	.LASF121
 7208 0751 11       		.byte	0x11
 7209 0752 3B       		.byte	0x3b
 7210 0753 21070000 		.4byte	0x721
 7211 0757 08       		.byte	0x8
 7212 0758 07       		.uleb128 0x7
 7213 0759 32020000 		.4byte	.LASF122
 7214 075d 11       		.byte	0x11
 7215 075e 3D       		.byte	0x3d
 7216 075f 21070000 		.4byte	0x721
 7217 0763 20       		.byte	0x20
 7218 0764 00       		.byte	0
 7219 0765 03       		.uleb128 0x3
 7220 0766 46040000 		.4byte	.LASF123
 7221 076a 11       		.byte	0x11
 7222 076b 3F       		.byte	0x3f
 7223 076c 2C070000 		.4byte	0x72c
 7224 0770 19       		.uleb128 0x19
 7225 0771 04       		.byte	0x4
ARM GAS  C:\Users\jo\AppData\Local\Temp\ccpKXchH.s 			page 135


 7226 0772 09       		.byte	0x9
 7227 0773 F6       		.byte	0xf6
 7228 0774 A8070000 		.4byte	0x7a8
 7229 0778 1A       		.uleb128 0x1a
 7230 0779 73060000 		.4byte	.LASF125
 7231 077d 09       		.byte	0x9
 7232 077e FD       		.byte	0xfd
 7233 077f 57010000 		.4byte	0x157
 7234 0783 1B       		.uleb128 0x1b
 7235 0784 32130000 		.4byte	.LASF126
 7236 0788 09       		.byte	0x9
 7237 0789 0401     		.2byte	0x104
 7238 078b 57010000 		.4byte	0x157
 7239 078f 1B       		.uleb128 0x1b
 7240 0790 F6030000 		.4byte	.LASF127
 7241 0794 09       		.byte	0x9
 7242 0795 0B01     		.2byte	0x10b
 7243 0797 76030000 		.4byte	0x376
 7244 079b 1B       		.uleb128 0x1b
 7245 079c 85030000 		.4byte	.LASF128
 7246 07a0 09       		.byte	0x9
 7247 07a1 1201     		.2byte	0x112
 7248 07a3 62010000 		.4byte	0x162
 7249 07a7 00       		.byte	0
 7250 07a8 0B       		.uleb128 0xb
 7251 07a9 04       		.byte	0x4
 7252 07aa F7040000 		.4byte	0x4f7
 7253 07ae 06       		.uleb128 0x6
 7254 07af A4040000 		.4byte	.LASF129
 7255 07b3 10       		.byte	0x10
 7256 07b4 12       		.byte	0x12
 7257 07b5 39       		.byte	0x39
 7258 07b6 DF070000 		.4byte	0x7df
 7259 07ba 07       		.uleb128 0x7
 7260 07bb 1E0D0000 		.4byte	.LASF130
 7261 07bf 12       		.byte	0x12
 7262 07c0 3A       		.byte	0x3a
 7263 07c1 C3020000 		.4byte	0x2c3
 7264 07c5 00       		.byte	0
 7265 07c6 07       		.uleb128 0x7
 7266 07c7 C1010000 		.4byte	.LASF131
 7267 07cb 12       		.byte	0x12
 7268 07cc 3C       		.byte	0x3c
 7269 07cd 5E060000 		.4byte	0x65e
 7270 07d1 08       		.byte	0x8
 7271 07d2 07       		.uleb128 0x7
 7272 07d3 9A110000 		.4byte	.LASF132
 7273 07d7 12       		.byte	0x12
 7274 07d8 3E       		.byte	0x3e
 7275 07d9 50080000 		.4byte	0x850
 7276 07dd 0C       		.byte	0xc
 7277 07de 00       		.byte	0
 7278 07df 0B       		.uleb128 0xb
 7279 07e0 04       		.byte	0x4
 7280 07e1 AE070000 		.4byte	0x7ae
 7281 07e5 0B       		.uleb128 0xb
 7282 07e6 04       		.byte	0x4
ARM GAS  C:\Users\jo\AppData\Local\Temp\ccpKXchH.s 			page 136


 7283 07e7 78030000 		.4byte	0x378
 7284 07eb 05       		.uleb128 0x5
 7285 07ec CB050000 		.4byte	0x5cb
 7286 07f0 15       		.uleb128 0x15
 7287 07f1 F7040000 		.4byte	0x4f7
 7288 07f5 00080000 		.4byte	0x800
 7289 07f9 16       		.uleb128 0x16
 7290 07fa E5040000 		.4byte	0x4e5
 7291 07fe 1E       		.byte	0x1e
 7292 07ff 00       		.byte	0
 7293 0800 0B       		.uleb128 0xb
 7294 0801 04       		.byte	0x4
 7295 0802 06080000 		.4byte	0x806
 7296 0806 1C       		.uleb128 0x1c
 7297 0807 57010000 		.4byte	0x157
 7298 080b 15080000 		.4byte	0x815
 7299 080f 0D       		.uleb128 0xd
 7300 0810 76030000 		.4byte	0x376
 7301 0814 00       		.byte	0
 7302 0815 06       		.uleb128 0x6
 7303 0816 680E0000 		.4byte	.LASF133
 7304 081a 0C       		.byte	0xc
 7305 081b 13       		.byte	0x13
 7306 081c 34       		.byte	0x34
 7307 081d 3A080000 		.4byte	0x83a
 7308 0821 07       		.uleb128 0x7
 7309 0822 C9010000 		.4byte	.LASF134
 7310 0826 13       		.byte	0x13
 7311 0827 35       		.byte	0x35
 7312 0828 C3020000 		.4byte	0x2c3
 7313 082c 00       		.byte	0
 7314 082d 07       		.uleb128 0x7
 7315 082e FD030000 		.4byte	.LASF135
 7316 0832 13       		.byte	0x13
 7317 0833 37       		.byte	0x37
 7318 0834 6D010000 		.4byte	0x16d
 7319 0838 08       		.byte	0x8
 7320 0839 00       		.byte	0
 7321 083a 03       		.uleb128 0x3
 7322 083b 33080000 		.4byte	.LASF136
 7323 083f 13       		.byte	0x13
 7324 0840 38       		.byte	0x38
 7325 0841 15080000 		.4byte	0x815
 7326 0845 03       		.uleb128 0x3
 7327 0846 07100000 		.4byte	.LASF137
 7328 084a 12       		.byte	0x12
 7329 084b 34       		.byte	0x34
 7330 084c AE070000 		.4byte	0x7ae
 7331 0850 0B       		.uleb128 0xb
 7332 0851 04       		.byte	0x4
 7333 0852 45080000 		.4byte	0x845
 7334 0856 17       		.uleb128 0x17
 7335 0857 28       		.byte	0x28
 7336 0858 14       		.byte	0x14
 7337 0859 38       		.byte	0x38
 7338 085a A7080000 		.4byte	0x8a7
 7339 085e 07       		.uleb128 0x7
ARM GAS  C:\Users\jo\AppData\Local\Temp\ccpKXchH.s 			page 137


 7340 085f E2080000 		.4byte	.LASF138
 7341 0863 14       		.byte	0x14
 7342 0864 39       		.byte	0x39
 7343 0865 A7080000 		.4byte	0x8a7
 7344 0869 00       		.byte	0
 7345 086a 07       		.uleb128 0x7
 7346 086b F40A0000 		.4byte	.LASF139
 7347 086f 14       		.byte	0x14
 7348 0870 3B       		.byte	0x3b
 7349 0871 A7080000 		.4byte	0x8a7
 7350 0875 04       		.byte	0x4
 7351 0876 07       		.uleb128 0x7
 7352 0877 F80C0000 		.4byte	.LASF140
 7353 087b 14       		.byte	0x14
 7354 087c 3D       		.byte	0x3d
 7355 087d A7080000 		.4byte	0x8a7
 7356 0881 08       		.byte	0x8
 7357 0882 07       		.uleb128 0x7
 7358 0883 DD060000 		.4byte	.LASF141
 7359 0887 14       		.byte	0x14
 7360 0888 3E       		.byte	0x3e
 7361 0889 A7080000 		.4byte	0x8a7
 7362 088d 0C       		.byte	0xc
 7363 088e 07       		.uleb128 0x7
 7364 088f 0F090000 		.4byte	.LASF142
 7365 0893 14       		.byte	0x14
 7366 0894 3F       		.byte	0x3f
 7367 0895 3A080000 		.4byte	0x83a
 7368 0899 10       		.byte	0x10
 7369 089a 07       		.uleb128 0x7
 7370 089b 68070000 		.4byte	.LASF143
 7371 089f 14       		.byte	0x14
 7372 08a0 41       		.byte	0x41
 7373 08a1 3A080000 		.4byte	0x83a
 7374 08a5 1C       		.byte	0x1c
 7375 08a6 00       		.byte	0
 7376 08a7 0B       		.uleb128 0xb
 7377 08a8 04       		.byte	0x4
 7378 08a9 57010000 		.4byte	0x157
 7379 08ad 03       		.uleb128 0x3
 7380 08ae EB060000 		.4byte	.LASF144
 7381 08b2 14       		.byte	0x14
 7382 08b3 43       		.byte	0x43
 7383 08b4 56080000 		.4byte	0x856
 7384 08b8 0B       		.uleb128 0xb
 7385 08b9 04       		.byte	0x4
 7386 08ba CE000000 		.4byte	0xce
 7387 08be 06       		.uleb128 0x6
 7388 08bf 93020000 		.4byte	.LASF145
 7389 08c3 10       		.byte	0x10
 7390 08c4 15       		.byte	0x15
 7391 08c5 40       		.byte	0x40
 7392 08c6 FB080000 		.4byte	0x8fb
 7393 08ca 07       		.uleb128 0x7
 7394 08cb 4E120000 		.4byte	.LASF146
 7395 08cf 15       		.byte	0x15
 7396 08d0 41       		.byte	0x41
ARM GAS  C:\Users\jo\AppData\Local\Temp\ccpKXchH.s 			page 138


 7397 08d1 1F090000 		.4byte	0x91f
 7398 08d5 00       		.byte	0
 7399 08d6 07       		.uleb128 0x7
 7400 08d7 630E0000 		.4byte	.LASF147
 7401 08db 15       		.byte	0x15
 7402 08dc 41       		.byte	0x41
 7403 08dd 3E090000 		.4byte	0x93e
 7404 08e1 04       		.byte	0x4
 7405 08e2 12       		.uleb128 0x12
 7406 08e3 70757400 		.ascii	"put\000"
 7407 08e7 15       		.byte	0x15
 7408 08e8 41       		.byte	0x41
 7409 08e9 58090000 		.4byte	0x958
 7410 08ed 08       		.byte	0x8
 7411 08ee 12       		.uleb128 0x12
 7412 08ef 67657400 		.ascii	"get\000"
 7413 08f3 15       		.byte	0x15
 7414 08f4 41       		.byte	0x41
 7415 08f5 00080000 		.4byte	0x800
 7416 08f9 0C       		.byte	0xc
 7417 08fa 00       		.byte	0
 7418 08fb 1C       		.uleb128 0x1c
 7419 08fc 2C000000 		.4byte	0x2c
 7420 0900 14090000 		.4byte	0x914
 7421 0904 0D       		.uleb128 0xd
 7422 0905 76030000 		.4byte	0x376
 7423 0909 0D       		.uleb128 0xd
 7424 090a 14090000 		.4byte	0x914
 7425 090e 0D       		.uleb128 0xd
 7426 090f 2C000000 		.4byte	0x2c
 7427 0913 00       		.byte	0
 7428 0914 0B       		.uleb128 0xb
 7429 0915 04       		.byte	0x4
 7430 0916 1A090000 		.4byte	0x91a
 7431 091a 14       		.uleb128 0x14
 7432 091b CE000000 		.4byte	0xce
 7433 091f 0B       		.uleb128 0xb
 7434 0920 04       		.byte	0x4
 7435 0921 FB080000 		.4byte	0x8fb
 7436 0925 1C       		.uleb128 0x1c
 7437 0926 2C000000 		.4byte	0x2c
 7438 092a 3E090000 		.4byte	0x93e
 7439 092e 0D       		.uleb128 0xd
 7440 092f 76030000 		.4byte	0x376
 7441 0933 0D       		.uleb128 0xd
 7442 0934 B8080000 		.4byte	0x8b8
 7443 0938 0D       		.uleb128 0xd
 7444 0939 2C000000 		.4byte	0x2c
 7445 093d 00       		.byte	0
 7446 093e 0B       		.uleb128 0xb
 7447 093f 04       		.byte	0x4
 7448 0940 25090000 		.4byte	0x925
 7449 0944 1C       		.uleb128 0x1c
 7450 0945 57010000 		.4byte	0x157
 7451 0949 58090000 		.4byte	0x958
 7452 094d 0D       		.uleb128 0xd
 7453 094e 76030000 		.4byte	0x376
ARM GAS  C:\Users\jo\AppData\Local\Temp\ccpKXchH.s 			page 139


 7454 0952 0D       		.uleb128 0xd
 7455 0953 CE000000 		.4byte	0xce
 7456 0957 00       		.byte	0
 7457 0958 0B       		.uleb128 0xb
 7458 0959 04       		.byte	0x4
 7459 095a 44090000 		.4byte	0x944
 7460 095e 17       		.uleb128 0x17
 7461 095f 04       		.byte	0x4
 7462 0960 15       		.byte	0x15
 7463 0961 49       		.byte	0x49
 7464 0962 73090000 		.4byte	0x973
 7465 0966 12       		.uleb128 0x12
 7466 0967 766D7400 		.ascii	"vmt\000"
 7467 096b 15       		.byte	0x15
 7468 096c 4B       		.byte	0x4b
 7469 096d 73090000 		.4byte	0x973
 7470 0971 00       		.byte	0
 7471 0972 00       		.byte	0
 7472 0973 0B       		.uleb128 0xb
 7473 0974 04       		.byte	0x4
 7474 0975 79090000 		.4byte	0x979
 7475 0979 14       		.uleb128 0x14
 7476 097a BE080000 		.4byte	0x8be
 7477 097e 03       		.uleb128 0x3
 7478 097f D2070000 		.4byte	.LASF148
 7479 0983 15       		.byte	0x15
 7480 0984 4D       		.byte	0x4d
 7481 0985 5E090000 		.4byte	0x95e
 7482 0989 04       		.uleb128 0x4
 7483 098a 01       		.byte	0x1
 7484 098b 02       		.byte	0x2
 7485 098c D7060000 		.4byte	.LASF149
 7486 0990 06       		.uleb128 0x6
 7487 0991 A50A0000 		.4byte	.LASF150
 7488 0995 10       		.byte	0x10
 7489 0996 16       		.byte	0x16
 7490 0997 2E       		.byte	0x2e
 7491 0998 CD090000 		.4byte	0x9cd
 7492 099c 07       		.uleb128 0x7
 7493 099d 4E120000 		.4byte	.LASF146
 7494 09a1 16       		.byte	0x16
 7495 09a2 2F       		.byte	0x2f
 7496 09a3 1F090000 		.4byte	0x91f
 7497 09a7 00       		.byte	0
 7498 09a8 07       		.uleb128 0x7
 7499 09a9 630E0000 		.4byte	.LASF147
 7500 09ad 16       		.byte	0x16
 7501 09ae 2F       		.byte	0x2f
 7502 09af 3E090000 		.4byte	0x93e
 7503 09b3 04       		.byte	0x4
 7504 09b4 12       		.uleb128 0x12
 7505 09b5 70757400 		.ascii	"put\000"
 7506 09b9 16       		.byte	0x16
 7507 09ba 2F       		.byte	0x2f
 7508 09bb 58090000 		.4byte	0x958
 7509 09bf 08       		.byte	0x8
 7510 09c0 12       		.uleb128 0x12
ARM GAS  C:\Users\jo\AppData\Local\Temp\ccpKXchH.s 			page 140


 7511 09c1 67657400 		.ascii	"get\000"
 7512 09c5 16       		.byte	0x16
 7513 09c6 2F       		.byte	0x2f
 7514 09c7 00080000 		.4byte	0x800
 7515 09cb 0C       		.byte	0xc
 7516 09cc 00       		.byte	0
 7517 09cd 17       		.uleb128 0x17
 7518 09ce 04       		.byte	0x4
 7519 09cf 16       		.byte	0x16
 7520 09d0 39       		.byte	0x39
 7521 09d1 E2090000 		.4byte	0x9e2
 7522 09d5 12       		.uleb128 0x12
 7523 09d6 766D7400 		.ascii	"vmt\000"
 7524 09da 16       		.byte	0x16
 7525 09db 3B       		.byte	0x3b
 7526 09dc E2090000 		.4byte	0x9e2
 7527 09e0 00       		.byte	0
 7528 09e1 00       		.byte	0
 7529 09e2 0B       		.uleb128 0xb
 7530 09e3 04       		.byte	0x4
 7531 09e4 E8090000 		.4byte	0x9e8
 7532 09e8 14       		.uleb128 0x14
 7533 09e9 90090000 		.4byte	0x990
 7534 09ed 03       		.uleb128 0x3
 7535 09ee 560B0000 		.4byte	.LASF151
 7536 09f2 16       		.byte	0x16
 7537 09f3 3D       		.byte	0x3d
 7538 09f4 CD090000 		.4byte	0x9cd
 7539 09f8 03       		.uleb128 0x3
 7540 09f9 81090000 		.4byte	.LASF152
 7541 09fd 0C       		.byte	0xc
 7542 09fe 62       		.byte	0x62
 7543 09ff 9C050000 		.4byte	0x59c
 7544 0a03 03       		.uleb128 0x3
 7545 0a04 2F0A0000 		.4byte	.LASF153
 7546 0a08 17       		.byte	0x17
 7547 0a09 3D       		.byte	0x3d
 7548 0a0a CE000000 		.4byte	0xce
 7549 0a0e 03       		.uleb128 0x3
 7550 0a0f E7070000 		.4byte	.LASF154
 7551 0a13 17       		.byte	0x17
 7552 0a14 3E       		.byte	0x3e
 7553 0a15 C3000000 		.4byte	0xc3
 7554 0a19 03       		.uleb128 0x3
 7555 0a1a B8020000 		.4byte	.LASF155
 7556 0a1e 17       		.byte	0x17
 7557 0a1f 3F       		.byte	0x3f
 7558 0a20 E4000000 		.4byte	0xe4
 7559 0a24 03       		.uleb128 0x3
 7560 0a25 870B0000 		.4byte	.LASF156
 7561 0a29 17       		.byte	0x17
 7562 0a2a 40       		.byte	0x40
 7563 0a2b D9000000 		.4byte	0xd9
 7564 0a2f 03       		.uleb128 0x3
 7565 0a30 E80C0000 		.4byte	.LASF157
 7566 0a34 17       		.byte	0x17
 7567 0a35 41       		.byte	0x41
ARM GAS  C:\Users\jo\AppData\Local\Temp\ccpKXchH.s 			page 141


 7568 0a36 FA000000 		.4byte	0xfa
 7569 0a3a 03       		.uleb128 0x3
 7570 0a3b 5D070000 		.4byte	.LASF158
 7571 0a3f 17       		.byte	0x17
 7572 0a40 42       		.byte	0x42
 7573 0a41 EF000000 		.4byte	0xef
 7574 0a45 03       		.uleb128 0x3
 7575 0a46 EA0A0000 		.4byte	.LASF159
 7576 0a4a 17       		.byte	0x17
 7577 0a4b 43       		.byte	0x43
 7578 0a4c FA000000 		.4byte	0xfa
 7579 0a50 06       		.uleb128 0x6
 7580 0a51 4F130000 		.4byte	.LASF160
 7581 0a55 04       		.byte	0x4
 7582 0a56 18       		.byte	0x18
 7583 0a57 2C       		.byte	0x2c
 7584 0a58 690A0000 		.4byte	0xa69
 7585 0a5c 07       		.uleb128 0x7
 7586 0a5d FB100000 		.4byte	.LASF161
 7587 0a61 18       		.byte	0x18
 7588 0a62 2D       		.byte	0x2d
 7589 0a63 2F0A0000 		.4byte	0xa2f
 7590 0a67 00       		.byte	0
 7591 0a68 00       		.byte	0
 7592 0a69 03       		.uleb128 0x3
 7593 0a6a B10F0000 		.4byte	.LASF162
 7594 0a6e 18       		.byte	0x18
 7595 0a6f 40       		.byte	0x40
 7596 0a70 500A0000 		.4byte	0xa50
 7597 0a74 06       		.uleb128 0x6
 7598 0a75 FF0F0000 		.4byte	.LASF163
 7599 0a79 04       		.byte	0x4
 7600 0a7a 19       		.byte	0x19
 7601 0a7b 2C       		.byte	0x2c
 7602 0a7c 8D0A0000 		.4byte	0xa8d
 7603 0a80 07       		.uleb128 0x7
 7604 0a81 56060000 		.4byte	.LASF164
 7605 0a85 19       		.byte	0x19
 7606 0a86 2D       		.byte	0x2d
 7607 0a87 2F0A0000 		.4byte	0xa2f
 7608 0a8b 00       		.byte	0
 7609 0a8c 00       		.byte	0
 7610 0a8d 06       		.uleb128 0x6
 7611 0a8e 350E0000 		.4byte	.LASF165
 7612 0a92 10       		.byte	0x10
 7613 0a93 1A       		.byte	0x1a
 7614 0a94 33       		.byte	0x33
 7615 0a95 D60A0000 		.4byte	0xad6
 7616 0a99 07       		.uleb128 0x7
 7617 0a9a BF040000 		.4byte	.LASF166
 7618 0a9e 1A       		.byte	0x1a
 7619 0a9f 34       		.byte	0x34
 7620 0aa0 030A0000 		.4byte	0xa03
 7621 0aa4 00       		.byte	0
 7622 0aa5 07       		.uleb128 0x7
 7623 0aa6 56050000 		.4byte	.LASF167
 7624 0aaa 1A       		.byte	0x1a
ARM GAS  C:\Users\jo\AppData\Local\Temp\ccpKXchH.s 			page 142


 7625 0aab 35       		.byte	0x35
 7626 0aac 030A0000 		.4byte	0xa03
 7627 0ab0 01       		.byte	0x1
 7628 0ab1 07       		.uleb128 0x7
 7629 0ab2 F7090000 		.4byte	.LASF168
 7630 0ab6 1A       		.byte	0x1a
 7631 0ab7 36       		.byte	0x36
 7632 0ab8 190A0000 		.4byte	0xa19
 7633 0abc 02       		.byte	0x2
 7634 0abd 07       		.uleb128 0x7
 7635 0abe 1E0B0000 		.4byte	.LASF169
 7636 0ac2 1A       		.byte	0x1a
 7637 0ac3 37       		.byte	0x37
 7638 0ac4 740A0000 		.4byte	0xa74
 7639 0ac8 04       		.byte	0x4
 7640 0ac9 07       		.uleb128 0x7
 7641 0aca 19060000 		.4byte	.LASF170
 7642 0ace 1A       		.byte	0x1a
 7643 0acf 38       		.byte	0x38
 7644 0ad0 D6050000 		.4byte	0x5d6
 7645 0ad4 08       		.byte	0x8
 7646 0ad5 00       		.byte	0
 7647 0ad6 06       		.uleb128 0x6
 7648 0ad7 B8010000 		.4byte	.LASF171
 7649 0adb 10       		.byte	0x10
 7650 0adc 1A       		.byte	0x1a
 7651 0add 3B       		.byte	0x3b
 7652 0ade 070B0000 		.4byte	0xb07
 7653 0ae2 07       		.uleb128 0x7
 7654 0ae3 680D0000 		.4byte	.LASF172
 7655 0ae7 1A       		.byte	0x1a
 7656 0ae8 3C       		.byte	0x3c
 7657 0ae9 030A0000 		.4byte	0xa03
 7658 0aed 00       		.byte	0
 7659 0aee 07       		.uleb128 0x7
 7660 0aef 040F0000 		.4byte	.LASF173
 7661 0af3 1A       		.byte	0x1a
 7662 0af4 3D       		.byte	0x3d
 7663 0af5 030A0000 		.4byte	0xa03
 7664 0af9 01       		.byte	0x1
 7665 0afa 07       		.uleb128 0x7
 7666 0afb 75010000 		.4byte	.LASF174
 7667 0aff 1A       		.byte	0x1a
 7668 0b00 3E       		.byte	0x3e
 7669 0b01 070B0000 		.4byte	0xb07
 7670 0b05 02       		.byte	0x2
 7671 0b06 00       		.byte	0
 7672 0b07 15       		.uleb128 0x15
 7673 0b08 C4050000 		.4byte	0x5c4
 7674 0b0c 170B0000 		.4byte	0xb17
 7675 0b10 16       		.uleb128 0x16
 7676 0b11 E5040000 		.4byte	0x4e5
 7677 0b15 0D       		.byte	0xd
 7678 0b16 00       		.byte	0
 7679 0b17 03       		.uleb128 0x3
 7680 0b18 23130000 		.4byte	.LASF175
 7681 0b1c 1A       		.byte	0x1a
ARM GAS  C:\Users\jo\AppData\Local\Temp\ccpKXchH.s 			page 143


 7682 0b1d 44       		.byte	0x44
 7683 0b1e 2F0A0000 		.4byte	0xa2f
 7684 0b22 0A       		.uleb128 0xa
 7685 0b23 F5050000 		.4byte	.LASF176
 7686 0b27 08       		.byte	0x8
 7687 0b28 1A       		.byte	0x1a
 7688 0b29 3901     		.2byte	0x139
 7689 0b2b 4A0B0000 		.4byte	0xb4a
 7690 0b2f 09       		.uleb128 0x9
 7691 0b30 85010000 		.4byte	.LASF177
 7692 0b34 1A       		.byte	0x1a
 7693 0b35 3A01     		.2byte	0x13a
 7694 0b37 91000000 		.4byte	0x91
 7695 0b3b 00       		.byte	0
 7696 0b3c 09       		.uleb128 0x9
 7697 0b3d 06070000 		.4byte	.LASF178
 7698 0b41 1A       		.byte	0x1a
 7699 0b42 3B01     		.2byte	0x13b
 7700 0b44 91000000 		.4byte	0x91
 7701 0b48 04       		.byte	0x4
 7702 0b49 00       		.byte	0
 7703 0b4a 03       		.uleb128 0x3
 7704 0b4b 60020000 		.4byte	.LASF179
 7705 0b4f 1B       		.byte	0x1b
 7706 0b50 2F       		.byte	0x2f
 7707 0b51 0E0A0000 		.4byte	0xa0e
 7708 0b55 06       		.uleb128 0x6
 7709 0b56 96100000 		.4byte	.LASF180
 7710 0b5a 10       		.byte	0x10
 7711 0b5b 1C       		.byte	0x1c
 7712 0b5c 4F       		.byte	0x4f
 7713 0b5d B60B0000 		.4byte	0xbb6
 7714 0b61 07       		.uleb128 0x7
 7715 0b62 13020000 		.4byte	.LASF181
 7716 0b66 1C       		.byte	0x1c
 7717 0b67 51       		.byte	0x51
 7718 0b68 B60B0000 		.4byte	0xbb6
 7719 0b6c 00       		.byte	0
 7720 0b6d 07       		.uleb128 0x7
 7721 0b6e 7A060000 		.4byte	.LASF182
 7722 0b72 1C       		.byte	0x1c
 7723 0b73 54       		.byte	0x54
 7724 0b74 76030000 		.4byte	0x376
 7725 0b78 04       		.byte	0x4
 7726 0b79 07       		.uleb128 0x7
 7727 0b7a 5D060000 		.4byte	.LASF183
 7728 0b7e 1C       		.byte	0x1c
 7729 0b7f 5D       		.byte	0x5d
 7730 0b80 190A0000 		.4byte	0xa19
 7731 0b84 08       		.byte	0x8
 7732 0b85 12       		.uleb128 0x12
 7733 0b86 6C656E00 		.ascii	"len\000"
 7734 0b8a 1C       		.byte	0x1c
 7735 0b8b 60       		.byte	0x60
 7736 0b8c 190A0000 		.4byte	0xa19
 7737 0b90 0A       		.byte	0xa
 7738 0b91 07       		.uleb128 0x7
ARM GAS  C:\Users\jo\AppData\Local\Temp\ccpKXchH.s 			page 144


 7739 0b92 1A090000 		.4byte	.LASF184
 7740 0b96 1C       		.byte	0x1c
 7741 0b97 63       		.byte	0x63
 7742 0b98 030A0000 		.4byte	0xa03
 7743 0b9c 0C       		.byte	0xc
 7744 0b9d 07       		.uleb128 0x7
 7745 0b9e 9A010000 		.4byte	.LASF185
 7746 0ba2 1C       		.byte	0x1c
 7747 0ba3 66       		.byte	0x66
 7748 0ba4 030A0000 		.4byte	0xa03
 7749 0ba8 0D       		.byte	0xd
 7750 0ba9 12       		.uleb128 0x12
 7751 0baa 72656600 		.ascii	"ref\000"
 7752 0bae 1C       		.byte	0x1c
 7753 0baf 6D       		.byte	0x6d
 7754 0bb0 190A0000 		.4byte	0xa19
 7755 0bb4 0E       		.byte	0xe
 7756 0bb5 00       		.byte	0
 7757 0bb6 0B       		.uleb128 0xb
 7758 0bb7 04       		.byte	0x4
 7759 0bb8 550B0000 		.4byte	0xb55
 7760 0bbc 06       		.uleb128 0x6
 7761 0bbd 13080000 		.4byte	.LASF186
 7762 0bc1 10       		.byte	0x10
 7763 0bc2 1D       		.byte	0x1d
 7764 0bc3 30       		.byte	0x30
 7765 0bc4 F70B0000 		.4byte	0xbf7
 7766 0bc8 12       		.uleb128 0x12
 7767 0bc9 7000     		.ascii	"p\000"
 7768 0bcb 1D       		.byte	0x1d
 7769 0bcc 31       		.byte	0x31
 7770 0bcd B60B0000 		.4byte	0xbb6
 7771 0bd1 00       		.byte	0
 7772 0bd2 12       		.uleb128 0x12
 7773 0bd3 70747200 		.ascii	"ptr\000"
 7774 0bd7 1D       		.byte	0x1d
 7775 0bd8 31       		.byte	0x31
 7776 0bd9 B60B0000 		.4byte	0xbb6
 7777 0bdd 04       		.byte	0x4
 7778 0bde 07       		.uleb128 0x7
 7779 0bdf FB100000 		.4byte	.LASF161
 7780 0be3 1D       		.byte	0x1d
 7781 0be4 32       		.byte	0x32
 7782 0be5 690A0000 		.4byte	0xa69
 7783 0be9 08       		.byte	0x8
 7784 0bea 07       		.uleb128 0x7
 7785 0beb C60E0000 		.4byte	.LASF187
 7786 0bef 1D       		.byte	0x1d
 7787 0bf0 33       		.byte	0x33
 7788 0bf1 190A0000 		.4byte	0xa19
 7789 0bf5 0C       		.byte	0xc
 7790 0bf6 00       		.byte	0
 7791 0bf7 03       		.uleb128 0x3
 7792 0bf8 0D0E0000 		.4byte	.LASF188
 7793 0bfc 1E       		.byte	0x1e
 7794 0bfd 38       		.byte	0x38
 7795 0bfe 020C0000 		.4byte	0xc02
ARM GAS  C:\Users\jo\AppData\Local\Temp\ccpKXchH.s 			page 145


 7796 0c02 0B       		.uleb128 0xb
 7797 0c03 04       		.byte	0x4
 7798 0c04 3A080000 		.4byte	0x83a
 7799 0c08 03       		.uleb128 0x3
 7800 0c09 F00E0000 		.4byte	.LASF189
 7801 0c0d 1E       		.byte	0x1e
 7802 0c0e 39       		.byte	0x39
 7803 0c0f 130C0000 		.4byte	0xc13
 7804 0c13 0B       		.uleb128 0xb
 7805 0c14 04       		.byte	0x4
 7806 0c15 AD080000 		.4byte	0x8ad
 7807 0c19 1D       		.uleb128 0x1d
 7808 0c1a 7C000000 		.4byte	.LASF196
 7809 0c1e 01       		.byte	0x1
 7810 0c1f 1F       		.byte	0x1f
 7811 0c20 53       		.byte	0x53
 7812 0c21 4B0C0000 		.4byte	0xc4b
 7813 0c25 1E       		.uleb128 0x1e
 7814 0c26 46050000 		.4byte	.LASF190
 7815 0c2a 00       		.sleb128 0
 7816 0c2b 1E       		.uleb128 0x1e
 7817 0c2c 82100000 		.4byte	.LASF191
 7818 0c30 10       		.sleb128 16
 7819 0c31 1E       		.uleb128 0x1e
 7820 0c32 2B060000 		.4byte	.LASF192
 7821 0c36 20       		.sleb128 32
 7822 0c37 1E       		.uleb128 0x1e
 7823 0c38 5F120000 		.4byte	.LASF193
 7824 0c3c 21       		.sleb128 33
 7825 0c3d 1E       		.uleb128 0x1e
 7826 0c3e 3D020000 		.4byte	.LASF194
 7827 0c42 22       		.sleb128 34
 7828 0c43 1E       		.uleb128 0x1e
 7829 0c44 34100000 		.4byte	.LASF195
 7830 0c48 C000     		.sleb128 64
 7831 0c4a 00       		.byte	0
 7832 0c4b 1D       		.uleb128 0x1d
 7833 0c4c D2030000 		.4byte	.LASF197
 7834 0c50 01       		.byte	0x1
 7835 0c51 1F       		.byte	0x1f
 7836 0c52 61       		.byte	0x61
 7837 0c53 760C0000 		.4byte	0xc76
 7838 0c57 1E       		.uleb128 0x1e
 7839 0c58 230C0000 		.4byte	.LASF198
 7840 0c5c 00       		.sleb128 0
 7841 0c5d 1E       		.uleb128 0x1e
 7842 0c5e F0120000 		.4byte	.LASF199
 7843 0c62 01       		.sleb128 1
 7844 0c63 1E       		.uleb128 0x1e
 7845 0c64 AA100000 		.4byte	.LASF200
 7846 0c68 02       		.sleb128 2
 7847 0c69 1E       		.uleb128 0x1e
 7848 0c6a 630C0000 		.4byte	.LASF201
 7849 0c6e 03       		.sleb128 3
 7850 0c6f 1E       		.uleb128 0x1e
 7851 0c70 CC080000 		.4byte	.LASF202
 7852 0c74 04       		.sleb128 4
ARM GAS  C:\Users\jo\AppData\Local\Temp\ccpKXchH.s 			page 146


 7853 0c75 00       		.byte	0
 7854 0c76 1D       		.uleb128 0x1d
 7855 0c77 BB0F0000 		.4byte	.LASF203
 7856 0c7b 01       		.byte	0x1
 7857 0c7c 1F       		.byte	0x1f
 7858 0c7d 6A       		.byte	0x6a
 7859 0c7e A10C0000 		.4byte	0xca1
 7860 0c82 1E       		.uleb128 0x1e
 7861 0c83 FD050000 		.4byte	.LASF204
 7862 0c87 00       		.sleb128 0
 7863 0c88 1E       		.uleb128 0x1e
 7864 0c89 B6070000 		.4byte	.LASF205
 7865 0c8d 01       		.sleb128 1
 7866 0c8e 1E       		.uleb128 0x1e
 7867 0c8f 74070000 		.4byte	.LASF206
 7868 0c93 02       		.sleb128 2
 7869 0c94 1E       		.uleb128 0x1e
 7870 0c95 6C050000 		.4byte	.LASF207
 7871 0c99 03       		.sleb128 3
 7872 0c9a 1E       		.uleb128 0x1e
 7873 0c9b 18020000 		.4byte	.LASF208
 7874 0c9f 04       		.sleb128 4
 7875 0ca0 00       		.byte	0
 7876 0ca1 03       		.uleb128 0x3
 7877 0ca2 D70F0000 		.4byte	.LASF209
 7878 0ca6 1F       		.byte	0x1f
 7879 0ca7 83       		.byte	0x83
 7880 0ca8 AC0C0000 		.4byte	0xcac
 7881 0cac 0B       		.uleb128 0xb
 7882 0cad 04       		.byte	0x4
 7883 0cae B20C0000 		.4byte	0xcb2
 7884 0cb2 0C       		.uleb128 0xc
 7885 0cb3 C70C0000 		.4byte	0xcc7
 7886 0cb7 0D       		.uleb128 0xd
 7887 0cb8 C70C0000 		.4byte	0xcc7
 7888 0cbc 0D       		.uleb128 0xd
 7889 0cbd 760C0000 		.4byte	0xc76
 7890 0cc1 0D       		.uleb128 0xd
 7891 0cc2 190A0000 		.4byte	0xa19
 7892 0cc6 00       		.byte	0
 7893 0cc7 0B       		.uleb128 0xb
 7894 0cc8 04       		.byte	0x4
 7895 0cc9 CD0C0000 		.4byte	0xccd
 7896 0ccd 06       		.uleb128 0x6
 7897 0cce E8120000 		.4byte	.LASF210
 7898 0cd2 2C       		.byte	0x2c
 7899 0cd3 1F       		.byte	0x1f
 7900 0cd4 86       		.byte	0x86
 7901 0cd5 6A0D0000 		.4byte	0xd6a
 7902 0cd9 07       		.uleb128 0x7
 7903 0cda 1A090000 		.4byte	.LASF184
 7904 0cde 1F       		.byte	0x1f
 7905 0cdf 88       		.byte	0x88
 7906 0ce0 190C0000 		.4byte	0xc19
 7907 0ce4 00       		.byte	0
 7908 0ce5 07       		.uleb128 0x7
 7909 0ce6 0E110000 		.4byte	.LASF211
ARM GAS  C:\Users\jo\AppData\Local\Temp\ccpKXchH.s 			page 147


 7910 0cea 1F       		.byte	0x1f
 7911 0ceb 8A       		.byte	0x8a
 7912 0cec 4B0C0000 		.4byte	0xc4b
 7913 0cf0 01       		.byte	0x1
 7914 0cf1 12       		.uleb128 0x12
 7915 0cf2 70636200 		.ascii	"pcb\000"
 7916 0cf6 1F       		.byte	0x1f
 7917 0cf7 91       		.byte	0x91
 7918 0cf8 6A0D0000 		.4byte	0xd6a
 7919 0cfc 04       		.byte	0x4
 7920 0cfd 07       		.uleb128 0x7
 7921 0cfe 26070000 		.4byte	.LASF212
 7922 0d02 1F       		.byte	0x1f
 7923 0d03 93       		.byte	0x93
 7924 0d04 4A0B0000 		.4byte	0xb4a
 7925 0d08 08       		.byte	0x8
 7926 0d09 07       		.uleb128 0x7
 7927 0d0a 98120000 		.4byte	.LASF213
 7928 0d0e 1F       		.byte	0x1f
 7929 0d0f 95       		.byte	0x95
 7930 0d10 F70B0000 		.4byte	0xbf7
 7931 0d14 0C       		.byte	0xc
 7932 0d15 07       		.uleb128 0x7
 7933 0d16 D1010000 		.4byte	.LASF214
 7934 0d1a 1F       		.byte	0x1f
 7935 0d1b 98       		.byte	0x98
 7936 0d1c 080C0000 		.4byte	0xc08
 7937 0d20 10       		.byte	0x10
 7938 0d21 07       		.uleb128 0x7
 7939 0d22 50090000 		.4byte	.LASF215
 7940 0d26 1F       		.byte	0x1f
 7941 0d27 9C       		.byte	0x9c
 7942 0d28 080C0000 		.4byte	0xc08
 7943 0d2c 14       		.byte	0x14
 7944 0d2d 07       		.uleb128 0x7
 7945 0d2e 170E0000 		.4byte	.LASF216
 7946 0d32 1F       		.byte	0x1f
 7947 0d33 A0       		.byte	0xa0
 7948 0d34 25000000 		.4byte	0x25
 7949 0d38 18       		.byte	0x18
 7950 0d39 07       		.uleb128 0x7
 7951 0d3a 9A010000 		.4byte	.LASF185
 7952 0d3e 1F       		.byte	0x1f
 7953 0d3f B6       		.byte	0xb6
 7954 0d40 030A0000 		.4byte	0xa03
 7955 0d44 1C       		.byte	0x1c
 7956 0d45 07       		.uleb128 0x7
 7957 0d46 EE100000 		.4byte	.LASF217
 7958 0d4a 1F       		.byte	0x1f
 7959 0d4b BA       		.byte	0xba
 7960 0d4c 2C000000 		.4byte	0x2c
 7961 0d50 20       		.byte	0x20
 7962 0d51 07       		.uleb128 0x7
 7963 0d52 790D0000 		.4byte	.LASF218
 7964 0d56 1F       		.byte	0x1f
 7965 0d57 BE       		.byte	0xbe
 7966 0d58 78110000 		.4byte	0x1178
ARM GAS  C:\Users\jo\AppData\Local\Temp\ccpKXchH.s 			page 148


 7967 0d5c 24       		.byte	0x24
 7968 0d5d 07       		.uleb128 0x7
 7969 0d5e 24110000 		.4byte	.LASF219
 7970 0d62 1F       		.byte	0x1f
 7971 0d63 C1       		.byte	0xc1
 7972 0d64 A10C0000 		.4byte	0xca1
 7973 0d68 28       		.byte	0x28
 7974 0d69 00       		.byte	0
 7975 0d6a 19       		.uleb128 0x19
 7976 0d6b 04       		.byte	0x4
 7977 0d6c 1F       		.byte	0x1f
 7978 0d6d 8C       		.byte	0x8c
 7979 0d6e 9E0D0000 		.4byte	0xd9e
 7980 0d72 1F       		.uleb128 0x1f
 7981 0d73 697000   		.ascii	"ip\000"
 7982 0d76 1F       		.byte	0x1f
 7983 0d77 8D       		.byte	0x8d
 7984 0d78 E70D0000 		.4byte	0xde7
 7985 0d7c 1F       		.uleb128 0x1f
 7986 0d7d 74637000 		.ascii	"tcp\000"
 7987 0d81 1F       		.byte	0x1f
 7988 0d82 8E       		.byte	0x8e
 7989 0d83 9F100000 		.4byte	0x109f
 7990 0d87 1F       		.uleb128 0x1f
 7991 0d88 75647000 		.ascii	"udp\000"
 7992 0d8c 1F       		.byte	0x1f
 7993 0d8d 8F       		.byte	0x8f
 7994 0d8e 36110000 		.4byte	0x1136
 7995 0d92 1F       		.uleb128 0x1f
 7996 0d93 72617700 		.ascii	"raw\000"
 7997 0d97 1F       		.byte	0x1f
 7998 0d98 90       		.byte	0x90
 7999 0d99 41110000 		.4byte	0x1141
 8000 0d9d 00       		.byte	0
 8001 0d9e 06       		.uleb128 0x6
 8002 0d9f 7B100000 		.4byte	.LASF220
 8003 0da3 0C       		.byte	0xc
 8004 0da4 20       		.byte	0x20
 8005 0da5 59       		.byte	0x59
 8006 0da6 E70D0000 		.4byte	0xde7
 8007 0daa 07       		.uleb128 0x7
 8008 0dab A80C0000 		.4byte	.LASF221
 8009 0daf 20       		.byte	0x20
 8010 0db0 5B       		.byte	0x5b
 8011 0db1 690A0000 		.4byte	0xa69
 8012 0db5 00       		.byte	0
 8013 0db6 07       		.uleb128 0x7
 8014 0db7 7B120000 		.4byte	.LASF222
 8015 0dbb 20       		.byte	0x20
 8016 0dbc 5B       		.byte	0x5b
 8017 0dbd 690A0000 		.4byte	0xa69
 8018 0dc1 04       		.byte	0x4
 8019 0dc2 07       		.uleb128 0x7
 8020 0dc3 52000000 		.4byte	.LASF223
 8021 0dc7 20       		.byte	0x20
 8022 0dc8 5B       		.byte	0x5b
 8023 0dc9 030A0000 		.4byte	0xa03
ARM GAS  C:\Users\jo\AppData\Local\Temp\ccpKXchH.s 			page 149


 8024 0dcd 08       		.byte	0x8
 8025 0dce 12       		.uleb128 0x12
 8026 0dcf 746F7300 		.ascii	"tos\000"
 8027 0dd3 20       		.byte	0x20
 8028 0dd4 5B       		.byte	0x5b
 8029 0dd5 030A0000 		.4byte	0xa03
 8030 0dd9 09       		.byte	0x9
 8031 0dda 12       		.uleb128 0x12
 8032 0ddb 74746C00 		.ascii	"ttl\000"
 8033 0ddf 20       		.byte	0x20
 8034 0de0 5B       		.byte	0x5b
 8035 0de1 030A0000 		.4byte	0xa03
 8036 0de5 0A       		.byte	0xa
 8037 0de6 00       		.byte	0
 8038 0de7 0B       		.uleb128 0xb
 8039 0de8 04       		.byte	0x4
 8040 0de9 9E0D0000 		.4byte	0xd9e
 8041 0ded 06       		.uleb128 0x6
 8042 0dee 01120000 		.4byte	.LASF224
 8043 0df2 98       		.byte	0x98
 8044 0df3 21       		.byte	0x21
 8045 0df4 A8       		.byte	0xa8
 8046 0df5 9F100000 		.4byte	0x109f
 8047 0df9 07       		.uleb128 0x7
 8048 0dfa A80C0000 		.4byte	.LASF221
 8049 0dfe 21       		.byte	0x21
 8050 0dff AA       		.byte	0xaa
 8051 0e00 690A0000 		.4byte	0xa69
 8052 0e04 00       		.byte	0
 8053 0e05 07       		.uleb128 0x7
 8054 0e06 7B120000 		.4byte	.LASF222
 8055 0e0a 21       		.byte	0x21
 8056 0e0b AA       		.byte	0xaa
 8057 0e0c 690A0000 		.4byte	0xa69
 8058 0e10 04       		.byte	0x4
 8059 0e11 07       		.uleb128 0x7
 8060 0e12 52000000 		.4byte	.LASF223
 8061 0e16 21       		.byte	0x21
 8062 0e17 AA       		.byte	0xaa
 8063 0e18 030A0000 		.4byte	0xa03
 8064 0e1c 08       		.byte	0x8
 8065 0e1d 12       		.uleb128 0x12
 8066 0e1e 746F7300 		.ascii	"tos\000"
 8067 0e22 21       		.byte	0x21
 8068 0e23 AA       		.byte	0xaa
 8069 0e24 030A0000 		.4byte	0xa03
 8070 0e28 09       		.byte	0x9
 8071 0e29 12       		.uleb128 0x12
 8072 0e2a 74746C00 		.ascii	"ttl\000"
 8073 0e2e 21       		.byte	0x21
 8074 0e2f AA       		.byte	0xaa
 8075 0e30 030A0000 		.4byte	0xa03
 8076 0e34 0A       		.byte	0xa
 8077 0e35 07       		.uleb128 0x7
 8078 0e36 13020000 		.4byte	.LASF181
 8079 0e3a 21       		.byte	0x21
 8080 0e3b AC       		.byte	0xac
ARM GAS  C:\Users\jo\AppData\Local\Temp\ccpKXchH.s 			page 150


 8081 0e3c 9F100000 		.4byte	0x109f
 8082 0e40 0C       		.byte	0xc
 8083 0e41 07       		.uleb128 0x7
 8084 0e42 B9100000 		.4byte	.LASF225
 8085 0e46 21       		.byte	0x21
 8086 0e47 AC       		.byte	0xac
 8087 0e48 76030000 		.4byte	0x376
 8088 0e4c 10       		.byte	0x10
 8089 0e4d 07       		.uleb128 0x7
 8090 0e4e 6E040000 		.4byte	.LASF226
 8091 0e52 21       		.byte	0x21
 8092 0e53 AC       		.byte	0xac
 8093 0e54 8B110000 		.4byte	0x118b
 8094 0e58 14       		.byte	0x14
 8095 0e59 07       		.uleb128 0x7
 8096 0e5a 0E110000 		.4byte	.LASF211
 8097 0e5e 21       		.byte	0x21
 8098 0e5f AC       		.byte	0xac
 8099 0e60 5F120000 		.4byte	0x125f
 8100 0e64 18       		.byte	0x18
 8101 0e65 07       		.uleb128 0x7
 8102 0e66 F3070000 		.4byte	.LASF227
 8103 0e6a 21       		.byte	0x21
 8104 0e6b AC       		.byte	0xac
 8105 0e6c 030A0000 		.4byte	0xa03
 8106 0e70 19       		.byte	0x19
 8107 0e71 07       		.uleb128 0x7
 8108 0e72 99040000 		.4byte	.LASF228
 8109 0e76 21       		.byte	0x21
 8110 0e77 AC       		.byte	0xac
 8111 0e78 190A0000 		.4byte	0xa19
 8112 0e7c 1A       		.byte	0x1a
 8113 0e7d 07       		.uleb128 0x7
 8114 0e7e CF0A0000 		.4byte	.LASF229
 8115 0e82 21       		.byte	0x21
 8116 0e83 AF       		.byte	0xaf
 8117 0e84 190A0000 		.4byte	0xa19
 8118 0e88 1C       		.byte	0x1c
 8119 0e89 07       		.uleb128 0x7
 8120 0e8a 9A010000 		.4byte	.LASF185
 8121 0e8e 21       		.byte	0x21
 8122 0e8f B1       		.byte	0xb1
 8123 0e90 030A0000 		.4byte	0xa03
 8124 0e94 1E       		.byte	0x1e
 8125 0e95 07       		.uleb128 0x7
 8126 0e96 7D010000 		.4byte	.LASF230
 8127 0e9a 21       		.byte	0x21
 8128 0e9b BF       		.byte	0xbf
 8129 0e9c 030A0000 		.4byte	0xa03
 8130 0ea0 1F       		.byte	0x1f
 8131 0ea1 07       		.uleb128 0x7
 8132 0ea2 F8070000 		.4byte	.LASF231
 8133 0ea6 21       		.byte	0x21
 8134 0ea7 BF       		.byte	0xbf
 8135 0ea8 030A0000 		.4byte	0xa03
 8136 0eac 20       		.byte	0x20
 8137 0ead 07       		.uleb128 0x7
ARM GAS  C:\Users\jo\AppData\Local\Temp\ccpKXchH.s 			page 151


 8138 0eae A10D0000 		.4byte	.LASF232
 8139 0eb2 21       		.byte	0x21
 8140 0eb3 C0       		.byte	0xc0
 8141 0eb4 030A0000 		.4byte	0xa03
 8142 0eb8 21       		.byte	0x21
 8143 0eb9 12       		.uleb128 0x12
 8144 0eba 746D7200 		.ascii	"tmr\000"
 8145 0ebe 21       		.byte	0x21
 8146 0ebf C1       		.byte	0xc1
 8147 0ec0 2F0A0000 		.4byte	0xa2f
 8148 0ec4 24       		.byte	0x24
 8149 0ec5 07       		.uleb128 0x7
 8150 0ec6 DE050000 		.4byte	.LASF233
 8151 0eca 21       		.byte	0x21
 8152 0ecb C4       		.byte	0xc4
 8153 0ecc 2F0A0000 		.4byte	0xa2f
 8154 0ed0 28       		.byte	0x28
 8155 0ed1 07       		.uleb128 0x7
 8156 0ed2 29040000 		.4byte	.LASF234
 8157 0ed6 21       		.byte	0x21
 8158 0ed7 C5       		.byte	0xc5
 8159 0ed8 190A0000 		.4byte	0xa19
 8160 0edc 2C       		.byte	0x2c
 8161 0edd 07       		.uleb128 0x7
 8162 0ede 120B0000 		.4byte	.LASF235
 8163 0ee2 21       		.byte	0x21
 8164 0ee3 C6       		.byte	0xc6
 8165 0ee4 190A0000 		.4byte	0xa19
 8166 0ee8 2E       		.byte	0x2e
 8167 0ee9 07       		.uleb128 0x7
 8168 0eea 22030000 		.4byte	.LASF236
 8169 0eee 21       		.byte	0x21
 8170 0eef C7       		.byte	0xc7
 8171 0ef0 2F0A0000 		.4byte	0xa2f
 8172 0ef4 30       		.byte	0x30
 8173 0ef5 07       		.uleb128 0x7
 8174 0ef6 82050000 		.4byte	.LASF237
 8175 0efa 21       		.byte	0x21
 8176 0efb CA       		.byte	0xca
 8177 0efc 240A0000 		.4byte	0xa24
 8178 0f00 34       		.byte	0x34
 8179 0f01 12       		.uleb128 0x12
 8180 0f02 6D737300 		.ascii	"mss\000"
 8181 0f06 21       		.byte	0x21
 8182 0f07 CC       		.byte	0xcc
 8183 0f08 190A0000 		.4byte	0xa19
 8184 0f0c 36       		.byte	0x36
 8185 0f0d 07       		.uleb128 0x7
 8186 0f0e 610D0000 		.4byte	.LASF238
 8187 0f12 21       		.byte	0x21
 8188 0f13 CF       		.byte	0xcf
 8189 0f14 2F0A0000 		.4byte	0xa2f
 8190 0f18 38       		.byte	0x38
 8191 0f19 07       		.uleb128 0x7
 8192 0f1a B0070000 		.4byte	.LASF239
 8193 0f1e 21       		.byte	0x21
 8194 0f1f D0       		.byte	0xd0
ARM GAS  C:\Users\jo\AppData\Local\Temp\ccpKXchH.s 			page 152


 8195 0f20 2F0A0000 		.4byte	0xa2f
 8196 0f24 3C       		.byte	0x3c
 8197 0f25 12       		.uleb128 0x12
 8198 0f26 736100   		.ascii	"sa\000"
 8199 0f29 21       		.byte	0x21
 8200 0f2a D1       		.byte	0xd1
 8201 0f2b 240A0000 		.4byte	0xa24
 8202 0f2f 40       		.byte	0x40
 8203 0f30 12       		.uleb128 0x12
 8204 0f31 737600   		.ascii	"sv\000"
 8205 0f34 21       		.byte	0x21
 8206 0f35 D1       		.byte	0xd1
 8207 0f36 240A0000 		.4byte	0xa24
 8208 0f3a 42       		.byte	0x42
 8209 0f3b 12       		.uleb128 0x12
 8210 0f3c 72746F00 		.ascii	"rto\000"
 8211 0f40 21       		.byte	0x21
 8212 0f41 D3       		.byte	0xd3
 8213 0f42 240A0000 		.4byte	0xa24
 8214 0f46 44       		.byte	0x44
 8215 0f47 07       		.uleb128 0x7
 8216 0f48 2D130000 		.4byte	.LASF240
 8217 0f4c 21       		.byte	0x21
 8218 0f4d D4       		.byte	0xd4
 8219 0f4e 030A0000 		.4byte	0xa03
 8220 0f52 46       		.byte	0x46
 8221 0f53 07       		.uleb128 0x7
 8222 0f54 2A020000 		.4byte	.LASF241
 8223 0f58 21       		.byte	0x21
 8224 0f59 D7       		.byte	0xd7
 8225 0f5a 030A0000 		.4byte	0xa03
 8226 0f5e 47       		.byte	0x47
 8227 0f5f 07       		.uleb128 0x7
 8228 0f60 D80E0000 		.4byte	.LASF242
 8229 0f64 21       		.byte	0x21
 8230 0f65 D8       		.byte	0xd8
 8231 0f66 2F0A0000 		.4byte	0xa2f
 8232 0f6a 48       		.byte	0x48
 8233 0f6b 07       		.uleb128 0x7
 8234 0f6c 41040000 		.4byte	.LASF243
 8235 0f70 21       		.byte	0x21
 8236 0f71 DB       		.byte	0xdb
 8237 0f72 190A0000 		.4byte	0xa19
 8238 0f76 4C       		.byte	0x4c
 8239 0f77 07       		.uleb128 0x7
 8240 0f78 9F0E0000 		.4byte	.LASF244
 8241 0f7c 21       		.byte	0x21
 8242 0f7d DC       		.byte	0xdc
 8243 0f7e 190A0000 		.4byte	0xa19
 8244 0f82 4E       		.byte	0x4e
 8245 0f83 07       		.uleb128 0x7
 8246 0f84 1E0E0000 		.4byte	.LASF245
 8247 0f88 21       		.byte	0x21
 8248 0f89 DF       		.byte	0xdf
 8249 0f8a 2F0A0000 		.4byte	0xa2f
 8250 0f8e 50       		.byte	0x50
 8251 0f8f 07       		.uleb128 0x7
ARM GAS  C:\Users\jo\AppData\Local\Temp\ccpKXchH.s 			page 153


 8252 0f90 3F080000 		.4byte	.LASF246
 8253 0f94 21       		.byte	0x21
 8254 0f95 E0       		.byte	0xe0
 8255 0f96 2F0A0000 		.4byte	0xa2f
 8256 0f9a 54       		.byte	0x54
 8257 0f9b 07       		.uleb128 0x7
 8258 0f9c 1F090000 		.4byte	.LASF247
 8259 0fa0 21       		.byte	0x21
 8260 0fa1 E0       		.byte	0xe0
 8261 0fa2 2F0A0000 		.4byte	0xa2f
 8262 0fa6 58       		.byte	0x58
 8263 0fa7 07       		.uleb128 0x7
 8264 0fa8 95070000 		.4byte	.LASF248
 8265 0fac 21       		.byte	0x21
 8266 0fad E2       		.byte	0xe2
 8267 0fae 2F0A0000 		.4byte	0xa2f
 8268 0fb2 5C       		.byte	0x5c
 8269 0fb3 07       		.uleb128 0x7
 8270 0fb4 3C0C0000 		.4byte	.LASF249
 8271 0fb8 21       		.byte	0x21
 8272 0fb9 E3       		.byte	0xe3
 8273 0fba 190A0000 		.4byte	0xa19
 8274 0fbe 60       		.byte	0x60
 8275 0fbf 07       		.uleb128 0x7
 8276 0fc0 570E0000 		.4byte	.LASF250
 8277 0fc4 21       		.byte	0x21
 8278 0fc5 E4       		.byte	0xe4
 8279 0fc6 190A0000 		.4byte	0xa19
 8280 0fca 62       		.byte	0x62
 8281 0fcb 07       		.uleb128 0x7
 8282 0fcc 64080000 		.4byte	.LASF251
 8283 0fd0 21       		.byte	0x21
 8284 0fd1 E6       		.byte	0xe6
 8285 0fd2 190A0000 		.4byte	0xa19
 8286 0fd6 64       		.byte	0x64
 8287 0fd7 07       		.uleb128 0x7
 8288 0fd8 13130000 		.4byte	.LASF252
 8289 0fdc 21       		.byte	0x21
 8290 0fdd E8       		.byte	0xe8
 8291 0fde 190A0000 		.4byte	0xa19
 8292 0fe2 66       		.byte	0x66
 8293 0fe3 07       		.uleb128 0x7
 8294 0fe4 35110000 		.4byte	.LASF253
 8295 0fe8 21       		.byte	0x21
 8296 0fe9 EA       		.byte	0xea
 8297 0fea 190A0000 		.4byte	0xa19
 8298 0fee 68       		.byte	0x68
 8299 0fef 07       		.uleb128 0x7
 8300 0ff0 F40D0000 		.4byte	.LASF254
 8301 0ff4 21       		.byte	0x21
 8302 0ff5 EE       		.byte	0xee
 8303 0ff6 190A0000 		.4byte	0xa19
 8304 0ffa 6A       		.byte	0x6a
 8305 0ffb 07       		.uleb128 0x7
 8306 0ffc 480D0000 		.4byte	.LASF255
 8307 1000 21       		.byte	0x21
 8308 1001 F2       		.byte	0xf2
ARM GAS  C:\Users\jo\AppData\Local\Temp\ccpKXchH.s 			page 154


 8309 1002 B3120000 		.4byte	0x12b3
 8310 1006 6C       		.byte	0x6c
 8311 1007 07       		.uleb128 0x7
 8312 1008 56100000 		.4byte	.LASF256
 8313 100c 21       		.byte	0x21
 8314 100d F3       		.byte	0xf3
 8315 100e B3120000 		.4byte	0x12b3
 8316 1012 70       		.byte	0x70
 8317 1013 07       		.uleb128 0x7
 8318 1014 55040000 		.4byte	.LASF257
 8319 1018 21       		.byte	0x21
 8320 1019 F5       		.byte	0xf5
 8321 101a B3120000 		.4byte	0x12b3
 8322 101e 74       		.byte	0x74
 8323 101f 07       		.uleb128 0x7
 8324 1020 790F0000 		.4byte	.LASF258
 8325 1024 21       		.byte	0x21
 8326 1025 F8       		.byte	0xf8
 8327 1026 B60B0000 		.4byte	0xbb6
 8328 102a 78       		.byte	0x78
 8329 102b 07       		.uleb128 0x7
 8330 102c 02090000 		.4byte	.LASF259
 8331 1030 21       		.byte	0x21
 8332 1031 FC       		.byte	0xfc
 8333 1032 E4110000 		.4byte	0x11e4
 8334 1036 7C       		.byte	0x7c
 8335 1037 07       		.uleb128 0x7
 8336 1038 83110000 		.4byte	.LASF260
 8337 103c 21       		.byte	0x21
 8338 103d FE       		.byte	0xfe
 8339 103e B5110000 		.4byte	0x11b5
 8340 1042 80       		.byte	0x80
 8341 1043 09       		.uleb128 0x9
 8342 1044 CD060000 		.4byte	.LASF261
 8343 1048 21       		.byte	0x21
 8344 1049 0001     		.2byte	0x100
 8345 104b 54120000 		.4byte	0x1254
 8346 104f 84       		.byte	0x84
 8347 1050 09       		.uleb128 0x9
 8348 1051 05080000 		.4byte	.LASF262
 8349 1055 21       		.byte	0x21
 8350 1056 0201     		.2byte	0x102
 8351 1058 0E120000 		.4byte	0x120e
 8352 105c 88       		.byte	0x88
 8353 105d 09       		.uleb128 0x9
 8354 105e A9110000 		.4byte	.LASF263
 8355 1062 21       		.byte	0x21
 8356 1063 0401     		.2byte	0x104
 8357 1065 33120000 		.4byte	0x1233
 8358 1069 8C       		.byte	0x8c
 8359 106a 09       		.uleb128 0x9
 8360 106b A0100000 		.4byte	.LASF264
 8361 106f 21       		.byte	0x21
 8362 1070 0D01     		.2byte	0x10d
 8363 1072 2F0A0000 		.4byte	0xa2f
 8364 1076 90       		.byte	0x90
 8365 1077 09       		.uleb128 0x9
ARM GAS  C:\Users\jo\AppData\Local\Temp\ccpKXchH.s 			page 155


 8366 1078 6F120000 		.4byte	.LASF265
 8367 107c 21       		.byte	0x21
 8368 107d 1401     		.2byte	0x114
 8369 107f 030A0000 		.4byte	0xa03
 8370 1083 94       		.byte	0x94
 8371 1084 09       		.uleb128 0x9
 8372 1085 DF090000 		.4byte	.LASF266
 8373 1089 21       		.byte	0x21
 8374 108a 1601     		.2byte	0x116
 8375 108c 030A0000 		.4byte	0xa03
 8376 1090 95       		.byte	0x95
 8377 1091 09       		.uleb128 0x9
 8378 1092 B3030000 		.4byte	.LASF267
 8379 1096 21       		.byte	0x21
 8380 1097 1901     		.2byte	0x119
 8381 1099 030A0000 		.4byte	0xa03
 8382 109d 96       		.byte	0x96
 8383 109e 00       		.byte	0
 8384 109f 0B       		.uleb128 0xb
 8385 10a0 04       		.byte	0x4
 8386 10a1 ED0D0000 		.4byte	0xded
 8387 10a5 06       		.uleb128 0x6
 8388 10a6 E0120000 		.4byte	.LASF268
 8389 10aa 20       		.byte	0x20
 8390 10ab 22       		.byte	0x22
 8391 10ac 5B       		.byte	0x5b
 8392 10ad 36110000 		.4byte	0x1136
 8393 10b1 07       		.uleb128 0x7
 8394 10b2 A80C0000 		.4byte	.LASF221
 8395 10b6 22       		.byte	0x22
 8396 10b7 5D       		.byte	0x5d
 8397 10b8 690A0000 		.4byte	0xa69
 8398 10bc 00       		.byte	0
 8399 10bd 07       		.uleb128 0x7
 8400 10be 7B120000 		.4byte	.LASF222
 8401 10c2 22       		.byte	0x22
 8402 10c3 5D       		.byte	0x5d
 8403 10c4 690A0000 		.4byte	0xa69
 8404 10c8 04       		.byte	0x4
 8405 10c9 07       		.uleb128 0x7
 8406 10ca 52000000 		.4byte	.LASF223
 8407 10ce 22       		.byte	0x22
 8408 10cf 5D       		.byte	0x5d
 8409 10d0 030A0000 		.4byte	0xa03
 8410 10d4 08       		.byte	0x8
 8411 10d5 12       		.uleb128 0x12
 8412 10d6 746F7300 		.ascii	"tos\000"
 8413 10da 22       		.byte	0x22
 8414 10db 5D       		.byte	0x5d
 8415 10dc 030A0000 		.4byte	0xa03
 8416 10e0 09       		.byte	0x9
 8417 10e1 12       		.uleb128 0x12
 8418 10e2 74746C00 		.ascii	"ttl\000"
 8419 10e6 22       		.byte	0x22
 8420 10e7 5D       		.byte	0x5d
 8421 10e8 030A0000 		.4byte	0xa03
 8422 10ec 0A       		.byte	0xa
ARM GAS  C:\Users\jo\AppData\Local\Temp\ccpKXchH.s 			page 156


 8423 10ed 07       		.uleb128 0x7
 8424 10ee 13020000 		.4byte	.LASF181
 8425 10f2 22       		.byte	0x22
 8426 10f3 61       		.byte	0x61
 8427 10f4 36110000 		.4byte	0x1136
 8428 10f8 0C       		.byte	0xc
 8429 10f9 07       		.uleb128 0x7
 8430 10fa 9A010000 		.4byte	.LASF185
 8431 10fe 22       		.byte	0x22
 8432 10ff 63       		.byte	0x63
 8433 1100 030A0000 		.4byte	0xa03
 8434 1104 10       		.byte	0x10
 8435 1105 07       		.uleb128 0x7
 8436 1106 99040000 		.4byte	.LASF228
 8437 110a 22       		.byte	0x22
 8438 110b 65       		.byte	0x65
 8439 110c 190A0000 		.4byte	0xa19
 8440 1110 12       		.byte	0x12
 8441 1111 07       		.uleb128 0x7
 8442 1112 CF0A0000 		.4byte	.LASF229
 8443 1116 22       		.byte	0x22
 8444 1117 65       		.byte	0x65
 8445 1118 190A0000 		.4byte	0xa19
 8446 111c 14       		.byte	0x14
 8447 111d 07       		.uleb128 0x7
 8448 111e 83110000 		.4byte	.LASF260
 8449 1122 22       		.byte	0x22
 8450 1123 72       		.byte	0x72
 8451 1124 B9120000 		.4byte	0x12b9
 8452 1128 18       		.byte	0x18
 8453 1129 07       		.uleb128 0x7
 8454 112a 6D0A0000 		.4byte	.LASF269
 8455 112e 22       		.byte	0x22
 8456 112f 74       		.byte	0x74
 8457 1130 76030000 		.4byte	0x376
 8458 1134 1C       		.byte	0x1c
 8459 1135 00       		.byte	0
 8460 1136 0B       		.uleb128 0xb
 8461 1137 04       		.byte	0x4
 8462 1138 A5100000 		.4byte	0x10a5
 8463 113c 20       		.uleb128 0x20
 8464 113d DA010000 		.4byte	.LASF290
 8465 1141 0B       		.uleb128 0xb
 8466 1142 04       		.byte	0x4
 8467 1143 3C110000 		.4byte	0x113c
 8468 1147 06       		.uleb128 0x6
 8469 1148 89070000 		.4byte	.LASF270
 8470 114c 14       		.byte	0x14
 8471 114d 23       		.byte	0x23
 8472 114e 3E       		.byte	0x3e
 8473 114f 78110000 		.4byte	0x1178
 8474 1153 07       		.uleb128 0x7
 8475 1154 E6060000 		.4byte	.LASF271
 8476 1158 23       		.byte	0x23
 8477 1159 41       		.byte	0x41
 8478 115a C70C0000 		.4byte	0xcc7
 8479 115e 00       		.byte	0
ARM GAS  C:\Users\jo\AppData\Local\Temp\ccpKXchH.s 			page 157


 8480 115f 12       		.uleb128 0x12
 8481 1160 65727200 		.ascii	"err\000"
 8482 1164 23       		.byte	0x23
 8483 1165 43       		.byte	0x43
 8484 1166 4A0B0000 		.4byte	0xb4a
 8485 116a 04       		.byte	0x4
 8486 116b 12       		.uleb128 0x12
 8487 116c 6D736700 		.ascii	"msg\000"
 8488 1170 23       		.byte	0x23
 8489 1171 75       		.byte	0x75
 8490 1172 A9130000 		.4byte	0x13a9
 8491 1176 08       		.byte	0x8
 8492 1177 00       		.byte	0
 8493 1178 0B       		.uleb128 0xb
 8494 1179 04       		.byte	0x4
 8495 117a 47110000 		.4byte	0x1147
 8496 117e 0B       		.uleb128 0xb
 8497 117f 04       		.byte	0x4
 8498 1180 690A0000 		.4byte	0xa69
 8499 1184 0B       		.uleb128 0xb
 8500 1185 04       		.byte	0x4
 8501 1186 8A110000 		.4byte	0x118a
 8502 118a 21       		.uleb128 0x21
 8503 118b 03       		.uleb128 0x3
 8504 118c 8C010000 		.4byte	.LASF272
 8505 1190 21       		.byte	0x21
 8506 1191 3C       		.byte	0x3c
 8507 1192 96110000 		.4byte	0x1196
 8508 1196 0B       		.uleb128 0xb
 8509 1197 04       		.byte	0x4
 8510 1198 9C110000 		.4byte	0x119c
 8511 119c 1C       		.uleb128 0x1c
 8512 119d 4A0B0000 		.4byte	0xb4a
 8513 11a1 B5110000 		.4byte	0x11b5
 8514 11a5 0D       		.uleb128 0xd
 8515 11a6 76030000 		.4byte	0x376
 8516 11aa 0D       		.uleb128 0xd
 8517 11ab 9F100000 		.4byte	0x109f
 8518 11af 0D       		.uleb128 0xd
 8519 11b0 4A0B0000 		.4byte	0xb4a
 8520 11b4 00       		.byte	0
 8521 11b5 03       		.uleb128 0x3
 8522 11b6 420B0000 		.4byte	.LASF273
 8523 11ba 21       		.byte	0x21
 8524 11bb 48       		.byte	0x48
 8525 11bc C0110000 		.4byte	0x11c0
 8526 11c0 0B       		.uleb128 0xb
 8527 11c1 04       		.byte	0x4
 8528 11c2 C6110000 		.4byte	0x11c6
 8529 11c6 1C       		.uleb128 0x1c
 8530 11c7 4A0B0000 		.4byte	0xb4a
 8531 11cb E4110000 		.4byte	0x11e4
 8532 11cf 0D       		.uleb128 0xd
 8533 11d0 76030000 		.4byte	0x376
 8534 11d4 0D       		.uleb128 0xd
 8535 11d5 9F100000 		.4byte	0x109f
 8536 11d9 0D       		.uleb128 0xd
ARM GAS  C:\Users\jo\AppData\Local\Temp\ccpKXchH.s 			page 158


 8537 11da B60B0000 		.4byte	0xbb6
 8538 11de 0D       		.uleb128 0xd
 8539 11df 4A0B0000 		.4byte	0xb4a
 8540 11e3 00       		.byte	0
 8541 11e4 03       		.uleb128 0x3
 8542 11e5 C6030000 		.4byte	.LASF274
 8543 11e9 21       		.byte	0x21
 8544 11ea 56       		.byte	0x56
 8545 11eb EF110000 		.4byte	0x11ef
 8546 11ef 0B       		.uleb128 0xb
 8547 11f0 04       		.byte	0x4
 8548 11f1 F5110000 		.4byte	0x11f5
 8549 11f5 1C       		.uleb128 0x1c
 8550 11f6 4A0B0000 		.4byte	0xb4a
 8551 11fa 0E120000 		.4byte	0x120e
 8552 11fe 0D       		.uleb128 0xd
 8553 11ff 76030000 		.4byte	0x376
 8554 1203 0D       		.uleb128 0xd
 8555 1204 9F100000 		.4byte	0x109f
 8556 1208 0D       		.uleb128 0xd
 8557 1209 190A0000 		.4byte	0xa19
 8558 120d 00       		.byte	0
 8559 120e 03       		.uleb128 0x3
 8560 120f 300C0000 		.4byte	.LASF275
 8561 1213 21       		.byte	0x21
 8562 1214 62       		.byte	0x62
 8563 1215 19120000 		.4byte	0x1219
 8564 1219 0B       		.uleb128 0xb
 8565 121a 04       		.byte	0x4
 8566 121b 1F120000 		.4byte	0x121f
 8567 121f 1C       		.uleb128 0x1c
 8568 1220 4A0B0000 		.4byte	0xb4a
 8569 1224 33120000 		.4byte	0x1233
 8570 1228 0D       		.uleb128 0xd
 8571 1229 76030000 		.4byte	0x376
 8572 122d 0D       		.uleb128 0xd
 8573 122e 9F100000 		.4byte	0x109f
 8574 1232 00       		.byte	0
 8575 1233 03       		.uleb128 0x3
 8576 1234 45090000 		.4byte	.LASF276
 8577 1238 21       		.byte	0x21
 8578 1239 6E       		.byte	0x6e
 8579 123a 3E120000 		.4byte	0x123e
 8580 123e 0B       		.uleb128 0xb
 8581 123f 04       		.byte	0x4
 8582 1240 44120000 		.4byte	0x1244
 8583 1244 0C       		.uleb128 0xc
 8584 1245 54120000 		.4byte	0x1254
 8585 1249 0D       		.uleb128 0xd
 8586 124a 76030000 		.4byte	0x376
 8587 124e 0D       		.uleb128 0xd
 8588 124f 4A0B0000 		.4byte	0xb4a
 8589 1253 00       		.byte	0
 8590 1254 03       		.uleb128 0x3
 8591 1255 02020000 		.4byte	.LASF277
 8592 1259 21       		.byte	0x21
 8593 125a 7C       		.byte	0x7c
ARM GAS  C:\Users\jo\AppData\Local\Temp\ccpKXchH.s 			page 159


 8594 125b 96110000 		.4byte	0x1196
 8595 125f 1D       		.uleb128 0x1d
 8596 1260 440C0000 		.4byte	.LASF278
 8597 1264 01       		.byte	0x1
 8598 1265 21       		.byte	0x21
 8599 1266 7E       		.byte	0x7e
 8600 1267 AE120000 		.4byte	0x12ae
 8601 126b 1E       		.uleb128 0x1e
 8602 126c D50C0000 		.4byte	.LASF279
 8603 1270 00       		.sleb128 0
 8604 1271 1E       		.uleb128 0x1e
 8605 1272 CF100000 		.4byte	.LASF280
 8606 1276 01       		.sleb128 1
 8607 1277 1E       		.uleb128 0x1e
 8608 1278 040E0000 		.4byte	.LASF281
 8609 127c 02       		.sleb128 2
 8610 127d 1E       		.uleb128 0x1e
 8611 127e 3B130000 		.4byte	.LASF282
 8612 1282 03       		.sleb128 3
 8613 1283 1E       		.uleb128 0x1e
 8614 1284 4B0E0000 		.4byte	.LASF283
 8615 1288 04       		.sleb128 4
 8616 1289 1E       		.uleb128 0x1e
 8617 128a 40100000 		.4byte	.LASF284
 8618 128e 05       		.sleb128 5
 8619 128f 1E       		.uleb128 0x1e
 8620 1290 4B100000 		.4byte	.LASF285
 8621 1294 06       		.sleb128 6
 8622 1295 1E       		.uleb128 0x1e
 8623 1296 6A080000 		.4byte	.LASF286
 8624 129a 07       		.sleb128 7
 8625 129b 1E       		.uleb128 0x1e
 8626 129c F5060000 		.4byte	.LASF287
 8627 12a0 08       		.sleb128 8
 8628 12a1 1E       		.uleb128 0x1e
 8629 12a2 4D060000 		.4byte	.LASF288
 8630 12a6 09       		.sleb128 9
 8631 12a7 1E       		.uleb128 0x1e
 8632 12a8 E2010000 		.4byte	.LASF289
 8633 12ac 0A       		.sleb128 10
 8634 12ad 00       		.byte	0
 8635 12ae 20       		.uleb128 0x20
 8636 12af 09050000 		.4byte	.LASF291
 8637 12b3 0B       		.uleb128 0xb
 8638 12b4 04       		.byte	0x4
 8639 12b5 AE120000 		.4byte	0x12ae
 8640 12b9 03       		.uleb128 0x3
 8641 12ba DC0C0000 		.4byte	.LASF292
 8642 12be 22       		.byte	0x22
 8643 12bf 57       		.byte	0x57
 8644 12c0 C4120000 		.4byte	0x12c4
 8645 12c4 0B       		.uleb128 0xb
 8646 12c5 04       		.byte	0x4
 8647 12c6 CA120000 		.4byte	0x12ca
 8648 12ca 0C       		.uleb128 0xc
 8649 12cb E9120000 		.4byte	0x12e9
 8650 12cf 0D       		.uleb128 0xd
ARM GAS  C:\Users\jo\AppData\Local\Temp\ccpKXchH.s 			page 160


 8651 12d0 76030000 		.4byte	0x376
 8652 12d4 0D       		.uleb128 0xd
 8653 12d5 36110000 		.4byte	0x1136
 8654 12d9 0D       		.uleb128 0xd
 8655 12da B60B0000 		.4byte	0xbb6
 8656 12de 0D       		.uleb128 0xd
 8657 12df 7E110000 		.4byte	0x117e
 8658 12e3 0D       		.uleb128 0xd
 8659 12e4 190A0000 		.4byte	0xa19
 8660 12e8 00       		.byte	0
 8661 12e9 17       		.uleb128 0x17
 8662 12ea 01       		.byte	0x1
 8663 12eb 23       		.byte	0x23
 8664 12ec 49       		.byte	0x49
 8665 12ed FE120000 		.4byte	0x12fe
 8666 12f1 07       		.uleb128 0x7
 8667 12f2 75080000 		.4byte	.LASF293
 8668 12f6 23       		.byte	0x23
 8669 12f7 4A       		.byte	0x4a
 8670 12f8 030A0000 		.4byte	0xa03
 8671 12fc 00       		.byte	0
 8672 12fd 00       		.byte	0
 8673 12fe 17       		.uleb128 0x17
 8674 12ff 08       		.byte	0x8
 8675 1300 23       		.byte	0x23
 8676 1301 4D       		.byte	0x4d
 8677 1302 1F130000 		.4byte	0x131f
 8678 1306 07       		.uleb128 0x7
 8679 1307 65060000 		.4byte	.LASF294
 8680 130b 23       		.byte	0x23
 8681 130c 4E       		.byte	0x4e
 8682 130d 7E110000 		.4byte	0x117e
 8683 1311 00       		.byte	0
 8684 1312 07       		.uleb128 0x7
 8685 1313 C60E0000 		.4byte	.LASF187
 8686 1317 23       		.byte	0x23
 8687 1318 4F       		.byte	0x4f
 8688 1319 190A0000 		.4byte	0xa19
 8689 131d 04       		.byte	0x4
 8690 131e 00       		.byte	0
 8691 131f 17       		.uleb128 0x17
 8692 1320 0C       		.byte	0xc
 8693 1321 23       		.byte	0x23
 8694 1322 52       		.byte	0x52
 8695 1323 4C130000 		.4byte	0x134c
 8696 1327 07       		.uleb128 0x7
 8697 1328 65060000 		.4byte	.LASF294
 8698 132c 23       		.byte	0x23
 8699 132d 53       		.byte	0x53
 8700 132e 7E110000 		.4byte	0x117e
 8701 1332 00       		.byte	0
 8702 1333 07       		.uleb128 0x7
 8703 1334 C60E0000 		.4byte	.LASF187
 8704 1338 23       		.byte	0x23
 8705 1339 54       		.byte	0x54
 8706 133a 4C130000 		.4byte	0x134c
 8707 133e 04       		.byte	0x4
ARM GAS  C:\Users\jo\AppData\Local\Temp\ccpKXchH.s 			page 161


 8708 133f 07       		.uleb128 0x7
 8709 1340 66020000 		.4byte	.LASF295
 8710 1344 23       		.byte	0x23
 8711 1345 55       		.byte	0x55
 8712 1346 030A0000 		.4byte	0xa03
 8713 134a 08       		.byte	0x8
 8714 134b 00       		.byte	0
 8715 134c 0B       		.uleb128 0xb
 8716 134d 04       		.byte	0x4
 8717 134e 190A0000 		.4byte	0xa19
 8718 1352 17       		.uleb128 0x17
 8719 1353 0C       		.byte	0xc
 8720 1354 23       		.byte	0x23
 8721 1355 58       		.byte	0x58
 8722 1356 7F130000 		.4byte	0x137f
 8723 135a 07       		.uleb128 0x7
 8724 135b A10B0000 		.4byte	.LASF296
 8725 135f 23       		.byte	0x23
 8726 1360 59       		.byte	0x59
 8727 1361 84110000 		.4byte	0x1184
 8728 1365 00       		.byte	0
 8729 1366 12       		.uleb128 0x12
 8730 1367 6C656E00 		.ascii	"len\000"
 8731 136b 23       		.byte	0x23
 8732 136c 5A       		.byte	0x5a
 8733 136d 2C000000 		.4byte	0x2c
 8734 1371 04       		.byte	0x4
 8735 1372 07       		.uleb128 0x7
 8736 1373 700F0000 		.4byte	.LASF297
 8737 1377 23       		.byte	0x23
 8738 1378 5B       		.byte	0x5b
 8739 1379 030A0000 		.4byte	0xa03
 8740 137d 08       		.byte	0x8
 8741 137e 00       		.byte	0
 8742 137f 17       		.uleb128 0x17
 8743 1380 04       		.byte	0x4
 8744 1381 23       		.byte	0x23
 8745 1382 61       		.byte	0x61
 8746 1383 94130000 		.4byte	0x1394
 8747 1387 12       		.uleb128 0x12
 8748 1388 6C656E00 		.ascii	"len\000"
 8749 138c 23       		.byte	0x23
 8750 138d 62       		.byte	0x62
 8751 138e 2F0A0000 		.4byte	0xa2f
 8752 1392 00       		.byte	0
 8753 1393 00       		.byte	0
 8754 1394 17       		.uleb128 0x17
 8755 1395 01       		.byte	0x1
 8756 1396 23       		.byte	0x23
 8757 1397 65       		.byte	0x65
 8758 1398 A9130000 		.4byte	0x13a9
 8759 139c 07       		.uleb128 0x7
 8760 139d 9B100000 		.4byte	.LASF298
 8761 13a1 23       		.byte	0x23
 8762 13a2 66       		.byte	0x66
 8763 13a3 030A0000 		.4byte	0xa03
 8764 13a7 00       		.byte	0
ARM GAS  C:\Users\jo\AppData\Local\Temp\ccpKXchH.s 			page 162


 8765 13a8 00       		.byte	0
 8766 13a9 19       		.uleb128 0x19
 8767 13aa 0C       		.byte	0xc
 8768 13ab 23       		.byte	0x23
 8769 13ac 45       		.byte	0x45
 8770 13ad F4130000 		.4byte	0x13f4
 8771 13b1 1F       		.uleb128 0x1f
 8772 13b2 6200     		.ascii	"b\000"
 8773 13b4 23       		.byte	0x23
 8774 13b5 47       		.byte	0x47
 8775 13b6 F4130000 		.4byte	0x13f4
 8776 13ba 1F       		.uleb128 0x1f
 8777 13bb 6E00     		.ascii	"n\000"
 8778 13bd 23       		.byte	0x23
 8779 13be 4B       		.byte	0x4b
 8780 13bf E9120000 		.4byte	0x12e9
 8781 13c3 1F       		.uleb128 0x1f
 8782 13c4 626300   		.ascii	"bc\000"
 8783 13c7 23       		.byte	0x23
 8784 13c8 50       		.byte	0x50
 8785 13c9 FE120000 		.4byte	0x12fe
 8786 13cd 1F       		.uleb128 0x1f
 8787 13ce 616400   		.ascii	"ad\000"
 8788 13d1 23       		.byte	0x23
 8789 13d2 56       		.byte	0x56
 8790 13d3 1F130000 		.4byte	0x131f
 8791 13d7 1F       		.uleb128 0x1f
 8792 13d8 7700     		.ascii	"w\000"
 8793 13da 23       		.byte	0x23
 8794 13db 5F       		.byte	0x5f
 8795 13dc 52130000 		.4byte	0x1352
 8796 13e0 1F       		.uleb128 0x1f
 8797 13e1 7200     		.ascii	"r\000"
 8798 13e3 23       		.byte	0x23
 8799 13e4 63       		.byte	0x63
 8800 13e5 7F130000 		.4byte	0x137f
 8801 13e9 1F       		.uleb128 0x1f
 8802 13ea 736400   		.ascii	"sd\000"
 8803 13ed 23       		.byte	0x23
 8804 13ee 67       		.byte	0x67
 8805 13ef 94130000 		.4byte	0x1394
 8806 13f3 00       		.byte	0
 8807 13f4 0B       		.uleb128 0xb
 8808 13f5 04       		.byte	0x4
 8809 13f6 BC0B0000 		.4byte	0xbbc
 8810 13fa 03       		.uleb128 0x3
 8811 13fb 4F0D0000 		.4byte	.LASF299
 8812 13ff 24       		.byte	0x24
 8813 1400 4E       		.byte	0x4e
 8814 1401 65030000 		.4byte	0x365
 8815 1405 0B       		.uleb128 0xb
 8816 1406 04       		.byte	0x4
 8817 1407 F70B0000 		.4byte	0xbf7
 8818 140b 06       		.uleb128 0x6
 8819 140c 77090000 		.4byte	.LASF300
 8820 1410 18       		.byte	0x18
 8821 1411 01       		.byte	0x1
ARM GAS  C:\Users\jo\AppData\Local\Temp\ccpKXchH.s 			page 163


 8822 1412 40       		.byte	0x40
 8823 1413 78140000 		.4byte	0x1478
 8824 1417 07       		.uleb128 0x7
 8825 1418 E6060000 		.4byte	.LASF271
 8826 141c 01       		.byte	0x1
 8827 141d 42       		.byte	0x42
 8828 141e C70C0000 		.4byte	0xcc7
 8829 1422 00       		.byte	0
 8830 1423 07       		.uleb128 0x7
 8831 1424 BD0E0000 		.4byte	.LASF301
 8832 1428 01       		.byte	0x1
 8833 1429 44       		.byte	0x44
 8834 142a 76030000 		.4byte	0x376
 8835 142e 04       		.byte	0x4
 8836 142f 07       		.uleb128 0x7
 8837 1430 85120000 		.4byte	.LASF302
 8838 1434 01       		.byte	0x1
 8839 1435 46       		.byte	0x46
 8840 1436 190A0000 		.4byte	0xa19
 8841 143a 08       		.byte	0x8
 8842 143b 07       		.uleb128 0x7
 8843 143c FB0E0000 		.4byte	.LASF303
 8844 1440 01       		.byte	0x1
 8845 1441 49       		.byte	0x49
 8846 1442 240A0000 		.4byte	0xa24
 8847 1446 0A       		.byte	0xa
 8848 1447 07       		.uleb128 0x7
 8849 1448 1C100000 		.4byte	.LASF304
 8850 144c 01       		.byte	0x1
 8851 144d 4C       		.byte	0x4c
 8852 144e 190A0000 		.4byte	0xa19
 8853 1452 0C       		.byte	0xc
 8854 1453 07       		.uleb128 0x7
 8855 1454 010C0000 		.4byte	.LASF305
 8856 1458 01       		.byte	0x1
 8857 1459 4E       		.byte	0x4e
 8858 145a 190A0000 		.4byte	0xa19
 8859 145e 0E       		.byte	0xe
 8860 145f 12       		.uleb128 0x12
 8861 1460 65727200 		.ascii	"err\000"
 8862 1464 01       		.byte	0x1
 8863 1465 50       		.byte	0x50
 8864 1466 25000000 		.4byte	0x25
 8865 146a 10       		.byte	0x10
 8866 146b 07       		.uleb128 0x7
 8867 146c B0060000 		.4byte	.LASF306
 8868 1470 01       		.byte	0x1
 8869 1471 52       		.byte	0x52
 8870 1472 25000000 		.4byte	0x25
 8871 1476 14       		.byte	0x14
 8872 1477 00       		.byte	0
 8873 1478 06       		.uleb128 0x6
 8874 1479 BC110000 		.4byte	.LASF307
 8875 147d 1C       		.byte	0x1c
 8876 147e 01       		.byte	0x1
 8877 147f 56       		.byte	0x56
 8878 1480 D9140000 		.4byte	0x14d9
ARM GAS  C:\Users\jo\AppData\Local\Temp\ccpKXchH.s 			page 164


 8879 1484 07       		.uleb128 0x7
 8880 1485 13020000 		.4byte	.LASF181
 8881 1489 01       		.byte	0x1
 8882 148a 58       		.byte	0x58
 8883 148b D9140000 		.4byte	0x14d9
 8884 148f 00       		.byte	0
 8885 1490 07       		.uleb128 0x7
 8886 1491 B3020000 		.4byte	.LASF308
 8887 1495 01       		.byte	0x1
 8888 1496 5A       		.byte	0x5a
 8889 1497 D9140000 		.4byte	0x14d9
 8890 149b 04       		.byte	0x4
 8891 149c 07       		.uleb128 0x7
 8892 149d 2B080000 		.4byte	.LASF309
 8893 14a1 01       		.byte	0x1
 8894 14a2 5C       		.byte	0x5c
 8895 14a3 DF140000 		.4byte	0x14df
 8896 14a7 08       		.byte	0x8
 8897 14a8 07       		.uleb128 0x7
 8898 14a9 FE120000 		.4byte	.LASF310
 8899 14ad 01       		.byte	0x1
 8900 14ae 5E       		.byte	0x5e
 8901 14af DF140000 		.4byte	0x14df
 8902 14b3 0C       		.byte	0xc
 8903 14b4 07       		.uleb128 0x7
 8904 14b5 C50A0000 		.4byte	.LASF311
 8905 14b9 01       		.byte	0x1
 8906 14ba 60       		.byte	0x60
 8907 14bb DF140000 		.4byte	0x14df
 8908 14bf 10       		.byte	0x10
 8909 14c0 07       		.uleb128 0x7
 8910 14c1 0C0A0000 		.4byte	.LASF312
 8911 14c5 01       		.byte	0x1
 8912 14c6 62       		.byte	0x62
 8913 14c7 25000000 		.4byte	0x25
 8914 14cb 14       		.byte	0x14
 8915 14cc 12       		.uleb128 0x12
 8916 14cd 73656D00 		.ascii	"sem\000"
 8917 14d1 01       		.byte	0x1
 8918 14d2 64       		.byte	0x64
 8919 14d3 F70B0000 		.4byte	0xbf7
 8920 14d7 18       		.byte	0x18
 8921 14d8 00       		.byte	0
 8922 14d9 0B       		.uleb128 0xb
 8923 14da 04       		.byte	0x4
 8924 14db 78140000 		.4byte	0x1478
 8925 14df 0B       		.uleb128 0xb
 8926 14e0 04       		.byte	0x4
 8927 14e1 1A060000 		.4byte	0x61a
 8928 14e5 06       		.uleb128 0x6
 8929 14e6 0E070000 		.4byte	.LASF313
 8930 14ea 1C       		.byte	0x1c
 8931 14eb 01       		.byte	0x1
 8932 14ec 69       		.byte	0x69
 8933 14ed 44150000 		.4byte	0x1544
 8934 14f1 07       		.uleb128 0x7
 8935 14f2 C1030000 		.4byte	.LASF314
ARM GAS  C:\Users\jo\AppData\Local\Temp\ccpKXchH.s 			page 165


 8936 14f6 01       		.byte	0x1
 8937 14f7 6B       		.byte	0x6b
 8938 14f8 44150000 		.4byte	0x1544
 8939 14fc 00       		.byte	0
 8940 14fd 12       		.uleb128 0x12
 8941 14fe 7300     		.ascii	"s\000"
 8942 1500 01       		.byte	0x1
 8943 1501 6E       		.byte	0x6e
 8944 1502 25000000 		.4byte	0x25
 8945 1506 04       		.byte	0x4
 8946 1507 07       		.uleb128 0x7
 8947 1508 14110000 		.4byte	.LASF315
 8948 150c 01       		.byte	0x1
 8949 150d 71       		.byte	0x71
 8950 150e 25000000 		.4byte	0x25
 8951 1512 08       		.byte	0x8
 8952 1513 07       		.uleb128 0x7
 8953 1514 A5120000 		.4byte	.LASF316
 8954 1518 01       		.byte	0x1
 8955 1519 73       		.byte	0x73
 8956 151a 25000000 		.4byte	0x25
 8957 151e 0C       		.byte	0xc
 8958 151f 07       		.uleb128 0x7
 8959 1520 830E0000 		.4byte	.LASF317
 8960 1524 01       		.byte	0x1
 8961 1525 76       		.byte	0x76
 8962 1526 76030000 		.4byte	0x376
 8963 152a 10       		.byte	0x10
 8964 152b 07       		.uleb128 0x7
 8965 152c 9C0F0000 		.4byte	.LASF318
 8966 1530 01       		.byte	0x1
 8967 1531 78       		.byte	0x78
 8968 1532 4A150000 		.4byte	0x154a
 8969 1536 14       		.byte	0x14
 8970 1537 12       		.uleb128 0x12
 8971 1538 65727200 		.ascii	"err\000"
 8972 153c 01       		.byte	0x1
 8973 153d 7A       		.byte	0x7a
 8974 153e 4A0B0000 		.4byte	0xb4a
 8975 1542 18       		.byte	0x18
 8976 1543 00       		.byte	0
 8977 1544 0B       		.uleb128 0xb
 8978 1545 04       		.byte	0x4
 8979 1546 0B140000 		.4byte	0x140b
 8980 154a 0B       		.uleb128 0xb
 8981 154b 04       		.byte	0x4
 8982 154c 170B0000 		.4byte	0xb17
 8983 1550 22       		.uleb128 0x22
 8984 1551 44130000 		.4byte	.LASF320
 8985 1555 01       		.byte	0x1
 8986 1556 C3       		.byte	0xc3
 8987 1557 44150000 		.4byte	0x1544
 8988 155b 01       		.byte	0x1
 8989 155c 75150000 		.4byte	0x1575
 8990 1560 23       		.uleb128 0x23
 8991 1561 7300     		.ascii	"s\000"
 8992 1563 01       		.byte	0x1
ARM GAS  C:\Users\jo\AppData\Local\Temp\ccpKXchH.s 			page 166


 8993 1564 C3       		.byte	0xc3
 8994 1565 25000000 		.4byte	0x25
 8995 1569 24       		.uleb128 0x24
 8996 156a C1030000 		.4byte	.LASF314
 8997 156e 01       		.byte	0x1
 8998 156f C5       		.byte	0xc5
 8999 1570 44150000 		.4byte	0x1544
 9000 1574 00       		.byte	0
 9001 1575 25       		.uleb128 0x25
 9002 1576 760A0000 		.4byte	.LASF357
 9003 157a 03       		.byte	0x3
 9004 157b 9C01     		.2byte	0x19c
 9005 157d 03       		.byte	0x3
 9006 157e 8F150000 		.4byte	0x158f
 9007 1582 26       		.uleb128 0x26
 9008 1583 32050000 		.4byte	.LASF319
 9009 1587 03       		.byte	0x3
 9010 1588 9C01     		.2byte	0x19c
 9011 158a CB050000 		.4byte	0x5cb
 9012 158e 00       		.byte	0
 9013 158f 22       		.uleb128 0x22
 9014 1590 A30F0000 		.4byte	.LASF321
 9015 1594 01       		.byte	0x1
 9016 1595 DF       		.byte	0xdf
 9017 1596 44150000 		.4byte	0x1544
 9018 159a 01       		.byte	0x1
 9019 159b A9150000 		.4byte	0x15a9
 9020 159f 23       		.uleb128 0x23
 9021 15a0 7300     		.ascii	"s\000"
 9022 15a2 01       		.byte	0x1
 9023 15a3 DF       		.byte	0xdf
 9024 15a4 25000000 		.4byte	0x25
 9025 15a8 00       		.byte	0
 9026 15a9 22       		.uleb128 0x22
 9027 15aa 0A080000 		.4byte	.LASF322
 9028 15ae 02       		.byte	0x2
 9029 15af 45       		.byte	0x45
 9030 15b0 25000000 		.4byte	0x25
 9031 15b4 03       		.byte	0x3
 9032 15b5 E6150000 		.4byte	0x15e6
 9033 15b9 23       		.uleb128 0x23
 9034 15ba 63687000 		.ascii	"chp\000"
 9035 15be 02       		.byte	0x2
 9036 15bf 45       		.byte	0x45
 9037 15c0 E6150000 		.4byte	0x15e6
 9038 15c4 23       		.uleb128 0x23
 9039 15c5 666D7400 		.ascii	"fmt\000"
 9040 15c9 02       		.byte	0x2
 9041 15ca 45       		.byte	0x45
 9042 15cb CB050000 		.4byte	0x5cb
 9043 15cf 27       		.uleb128 0x27
 9044 15d0 28       		.uleb128 0x28
 9045 15d1 617000   		.ascii	"ap\000"
 9046 15d4 02       		.byte	0x2
 9047 15d5 46       		.byte	0x46
 9048 15d6 F8090000 		.4byte	0x9f8
 9049 15da 24       		.uleb128 0x24
ARM GAS  C:\Users\jo\AppData\Local\Temp\ccpKXchH.s 			page 167


 9050 15db C6120000 		.4byte	.LASF323
 9051 15df 02       		.byte	0x2
 9052 15e0 47       		.byte	0x47
 9053 15e1 25000000 		.4byte	0x25
 9054 15e5 00       		.byte	0
 9055 15e6 0B       		.uleb128 0xb
 9056 15e7 04       		.byte	0x4
 9057 15e8 7E090000 		.4byte	0x97e
 9058 15ec 29       		.uleb128 0x29
 9059 15ed E0030000 		.4byte	.LASF329
 9060 15f1 01       		.byte	0x1
 9061 15f2 F3       		.byte	0xf3
 9062 15f3 25000000 		.4byte	0x25
 9063 15f7 00000000 		.4byte	.LFB259
 9064 15fb 54000000 		.4byte	.LFE259-.LFB259
 9065 15ff 01       		.uleb128 0x1
 9066 1600 9C       		.byte	0x9c
 9067 1601 31160000 		.4byte	0x1631
 9068 1605 2A       		.uleb128 0x2a
 9069 1606 A1110000 		.4byte	.LASF324
 9070 160a 01       		.byte	0x1
 9071 160b F3       		.byte	0xf3
 9072 160c C70C0000 		.4byte	0xcc7
 9073 1610 00000000 		.4byte	.LLST0
 9074 1614 2A       		.uleb128 0x2a
 9075 1615 0D000000 		.4byte	.LASF325
 9076 1619 01       		.byte	0x1
 9077 161a F3       		.byte	0xf3
 9078 161b 25000000 		.4byte	0x25
 9079 161f 38000000 		.4byte	.LLST1
 9080 1623 2B       		.uleb128 0x2b
 9081 1624 6900     		.ascii	"i\000"
 9082 1626 01       		.byte	0x1
 9083 1627 F5       		.byte	0xf5
 9084 1628 25000000 		.4byte	0x25
 9085 162c 8B000000 		.4byte	.LLST2
 9086 1630 00       		.byte	0
 9087 1631 2C       		.uleb128 0x2c
 9088 1632 A9150000 		.4byte	0x15a9
 9089 1636 00000000 		.4byte	.LFB287
 9090 163a 24000000 		.4byte	.LFE287-.LFB287
 9091 163e 01       		.uleb128 0x1
 9092 163f 9C       		.byte	0x9c
 9093 1640 82160000 		.4byte	0x1682
 9094 1644 2D       		.uleb128 0x2d
 9095 1645 B9150000 		.4byte	0x15b9
 9096 1649 B7000000 		.4byte	.LLST3
 9097 164d 2E       		.uleb128 0x2e
 9098 164e C4150000 		.4byte	0x15c4
 9099 1652 02       		.uleb128 0x2
 9100 1653 91       		.byte	0x91
 9101 1654 74       		.sleb128 -12
 9102 1655 27       		.uleb128 0x27
 9103 1656 2F       		.uleb128 0x2f
 9104 1657 D0150000 		.4byte	0x15d0
 9105 165b 02       		.uleb128 0x2
 9106 165c 91       		.byte	0x91
ARM GAS  C:\Users\jo\AppData\Local\Temp\ccpKXchH.s 			page 168


 9107 165d 6C       		.sleb128 -20
 9108 165e 2F       		.uleb128 0x2f
 9109 165f DA150000 		.4byte	0x15da
 9110 1663 01       		.uleb128 0x1
 9111 1664 50       		.byte	0x50
 9112 1665 30       		.uleb128 0x30
 9113 1666 B9150000 		.4byte	0x15b9
 9114 166a 31       		.uleb128 0x31
 9115 166b 14000000 		.4byte	.LVL11
 9116 166f 68430000 		.4byte	0x4368
 9117 1673 32       		.uleb128 0x32
 9118 1674 01       		.uleb128 0x1
 9119 1675 52       		.byte	0x52
 9120 1676 02       		.uleb128 0x2
 9121 1677 91       		.byte	0x91
 9122 1678 60       		.sleb128 -32
 9123 1679 32       		.uleb128 0x32
 9124 167a 01       		.uleb128 0x1
 9125 167b 51       		.byte	0x51
 9126 167c 03       		.uleb128 0x3
 9127 167d 91       		.byte	0x91
 9128 167e 5C       		.sleb128 -36
 9129 167f 06       		.byte	0x6
 9130 1680 00       		.byte	0
 9131 1681 00       		.byte	0
 9132 1682 33       		.uleb128 0x33
 9133 1683 730C0000 		.4byte	.LASF327
 9134 1687 01       		.byte	0x1
 9135 1688 1808     		.2byte	0x818
 9136 168a 00000000 		.4byte	.LFB283
 9137 168e E0010000 		.4byte	.LFE283-.LFB283
 9138 1692 01       		.uleb128 0x1
 9139 1693 9C       		.byte	0x9c
 9140 1694 84190000 		.4byte	0x1984
 9141 1698 34       		.uleb128 0x34
 9142 1699 61726700 		.ascii	"arg\000"
 9143 169d 01       		.byte	0x1
 9144 169e 1808     		.2byte	0x818
 9145 16a0 76030000 		.4byte	0x376
 9146 16a4 D8000000 		.4byte	.LLST4
 9147 16a8 35       		.uleb128 0x35
 9148 16a9 C1030000 		.4byte	.LASF314
 9149 16ad 01       		.byte	0x1
 9150 16ae 1A08     		.2byte	0x81a
 9151 16b0 44150000 		.4byte	0x1544
 9152 16b4 7E010000 		.4byte	.LLST5
 9153 16b8 36       		.uleb128 0x36
 9154 16b9 7300     		.ascii	"s\000"
 9155 16bb 01       		.byte	0x1
 9156 16bc 1C08     		.2byte	0x81c
 9157 16be 25000000 		.4byte	0x25
 9158 16c2 A7010000 		.4byte	.LLST6
 9159 16c6 35       		.uleb128 0x35
 9160 16c7 14110000 		.4byte	.LASF315
 9161 16cb 01       		.byte	0x1
 9162 16cc 1E08     		.2byte	0x81e
 9163 16ce 25000000 		.4byte	0x25
ARM GAS  C:\Users\jo\AppData\Local\Temp\ccpKXchH.s 			page 169


 9164 16d2 46020000 		.4byte	.LLST7
 9165 16d6 35       		.uleb128 0x35
 9166 16d7 A5120000 		.4byte	.LASF316
 9167 16db 01       		.byte	0x1
 9168 16dc 1E08     		.2byte	0x81e
 9169 16de 25000000 		.4byte	0x25
 9170 16e2 41030000 		.4byte	.LLST8
 9171 16e6 35       		.uleb128 0x35
 9172 16e7 830E0000 		.4byte	.LASF317
 9173 16eb 01       		.byte	0x1
 9174 16ec 1F08     		.2byte	0x81f
 9175 16ee 84110000 		.4byte	0x1184
 9176 16f2 6A040000 		.4byte	.LLST9
 9177 16f6 35       		.uleb128 0x35
 9178 16f7 B9080000 		.4byte	.LASF326
 9179 16fb 01       		.byte	0x1
 9180 16fc 2008     		.2byte	0x820
 9181 16fe 84190000 		.4byte	0x1984
 9182 1702 0D050000 		.4byte	.LLST10
 9183 1706 37       		.uleb128 0x37
 9184 1707 75150000 		.4byte	0x1575
 9185 170b 36000000 		.4byte	.LBB76
 9186 170f 06000000 		.4byte	.LBE76-.LBB76
 9187 1713 01       		.byte	0x1
 9188 1714 E208     		.2byte	0x8e2
 9189 1716 37170000 		.4byte	0x1737
 9190 171a 2D       		.uleb128 0x2d
 9191 171b 82150000 		.4byte	0x1582
 9192 171f 92050000 		.4byte	.LLST11
 9193 1723 31       		.uleb128 0x31
 9194 1724 3C000000 		.4byte	.LVL25
 9195 1728 87430000 		.4byte	0x4387
 9196 172c 32       		.uleb128 0x32
 9197 172d 01       		.uleb128 0x1
 9198 172e 50       		.byte	0x50
 9199 172f 05       		.uleb128 0x5
 9200 1730 03       		.byte	0x3
 9201 1731 94010000 		.4byte	.LC11
 9202 1735 00       		.byte	0
 9203 1736 00       		.byte	0
 9204 1737 37       		.uleb128 0x37
 9205 1738 75150000 		.4byte	0x1575
 9206 173c 8C000000 		.4byte	.LBB78
 9207 1740 08000000 		.4byte	.LBE78-.LBB78
 9208 1744 01       		.byte	0x1
 9209 1745 5F08     		.2byte	0x85f
 9210 1747 68170000 		.4byte	0x1768
 9211 174b 2D       		.uleb128 0x2d
 9212 174c 82150000 		.4byte	0x1582
 9213 1750 AA050000 		.4byte	.LLST12
 9214 1754 31       		.uleb128 0x31
 9215 1755 92000000 		.4byte	.LVL40
 9216 1759 87430000 		.4byte	0x4387
 9217 175d 32       		.uleb128 0x32
 9218 175e 01       		.uleb128 0x1
 9219 175f 50       		.byte	0x50
 9220 1760 05       		.uleb128 0x5
ARM GAS  C:\Users\jo\AppData\Local\Temp\ccpKXchH.s 			page 170


 9221 1761 03       		.byte	0x3
 9222 1762 A8000000 		.4byte	.LC6
 9223 1766 00       		.byte	0
 9224 1767 00       		.byte	0
 9225 1768 37       		.uleb128 0x37
 9226 1769 75150000 		.4byte	0x1575
 9227 176d 1C010000 		.4byte	.LBB80
 9228 1771 08000000 		.4byte	.LBE80-.LBB80
 9229 1775 01       		.byte	0x1
 9230 1776 9408     		.2byte	0x894
 9231 1778 99170000 		.4byte	0x1799
 9232 177c 2D       		.uleb128 0x2d
 9233 177d 82150000 		.4byte	0x1582
 9234 1781 C2050000 		.4byte	.LLST13
 9235 1785 31       		.uleb128 0x31
 9236 1786 22010000 		.4byte	.LVL71
 9237 178a 87430000 		.4byte	0x4387
 9238 178e 32       		.uleb128 0x32
 9239 178f 01       		.uleb128 0x1
 9240 1790 50       		.byte	0x50
 9241 1791 05       		.uleb128 0x5
 9242 1792 03       		.byte	0x3
 9243 1793 A8000000 		.4byte	.LC6
 9244 1797 00       		.byte	0
 9245 1798 00       		.byte	0
 9246 1799 37       		.uleb128 0x37
 9247 179a 75150000 		.4byte	0x1575
 9248 179e 60010000 		.4byte	.LBB82
 9249 17a2 08000000 		.4byte	.LBE82-.LBB82
 9250 17a6 01       		.byte	0x1
 9251 17a7 BE08     		.2byte	0x8be
 9252 17a9 CA170000 		.4byte	0x17ca
 9253 17ad 2D       		.uleb128 0x2d
 9254 17ae 82150000 		.4byte	0x1582
 9255 17b2 DA050000 		.4byte	.LLST14
 9256 17b6 31       		.uleb128 0x31
 9257 17b7 66010000 		.4byte	.LVL83
 9258 17bb 87430000 		.4byte	0x4387
 9259 17bf 32       		.uleb128 0x32
 9260 17c0 01       		.uleb128 0x1
 9261 17c1 50       		.byte	0x50
 9262 17c2 05       		.uleb128 0x5
 9263 17c3 03       		.byte	0x3
 9264 17c4 A8000000 		.4byte	.LC6
 9265 17c8 00       		.byte	0
 9266 17c9 00       		.byte	0
 9267 17ca 37       		.uleb128 0x37
 9268 17cb 75150000 		.4byte	0x1575
 9269 17cf 7A010000 		.4byte	.LBB84
 9270 17d3 08000000 		.4byte	.LBE84-.LBB84
 9271 17d7 01       		.byte	0x1
 9272 17d8 2208     		.2byte	0x822
 9273 17da FB170000 		.4byte	0x17fb
 9274 17de 2D       		.uleb128 0x2d
 9275 17df 82150000 		.4byte	0x1582
 9276 17e3 F2050000 		.4byte	.LLST15
 9277 17e7 31       		.uleb128 0x31
ARM GAS  C:\Users\jo\AppData\Local\Temp\ccpKXchH.s 			page 171


 9278 17e8 80010000 		.4byte	.LVL87
 9279 17ec 87430000 		.4byte	0x4387
 9280 17f0 32       		.uleb128 0x32
 9281 17f1 01       		.uleb128 0x1
 9282 17f2 50       		.byte	0x50
 9283 17f3 05       		.uleb128 0x5
 9284 17f4 03       		.byte	0x3
 9285 17f5 30000000 		.4byte	.LC3
 9286 17f9 00       		.byte	0
 9287 17fa 00       		.byte	0
 9288 17fb 38       		.uleb128 0x38
 9289 17fc 36000000 		.4byte	.LVL24
 9290 1800 31160000 		.4byte	0x1631
 9291 1804 2C180000 		.4byte	0x182c
 9292 1808 32       		.uleb128 0x32
 9293 1809 01       		.uleb128 0x1
 9294 180a 53       		.byte	0x53
 9295 180b 03       		.uleb128 0x3
 9296 180c 0A       		.byte	0xa
 9297 180d E208     		.2byte	0x8e2
 9298 180f 32       		.uleb128 0x32
 9299 1810 01       		.uleb128 0x1
 9300 1811 52       		.byte	0x52
 9301 1812 05       		.uleb128 0x5
 9302 1813 03       		.byte	0x3
 9303 1814 94010000 		.4byte	.LC11
 9304 1818 32       		.uleb128 0x32
 9305 1819 01       		.uleb128 0x1
 9306 181a 51       		.byte	0x51
 9307 181b 05       		.uleb128 0x5
 9308 181c 03       		.byte	0x3
 9309 181d 08000000 		.4byte	.LC2
 9310 1821 32       		.uleb128 0x32
 9311 1822 02       		.uleb128 0x2
 9312 1823 7D       		.byte	0x7d
 9313 1824 00       		.sleb128 0
 9314 1825 05       		.uleb128 0x5
 9315 1826 03       		.byte	0x3
 9316 1827 3C000000 		.4byte	.LC4
 9317 182b 00       		.byte	0
 9318 182c 39       		.uleb128 0x39
 9319 182d 4A000000 		.4byte	.LVL27
 9320 1831 98430000 		.4byte	0x4398
 9321 1835 38       		.uleb128 0x38
 9322 1836 68000000 		.4byte	.LVL32
 9323 183a 31160000 		.4byte	0x1631
 9324 183e 4C180000 		.4byte	0x184c
 9325 1842 32       		.uleb128 0x32
 9326 1843 01       		.uleb128 0x1
 9327 1844 51       		.byte	0x51
 9328 1845 05       		.uleb128 0x5
 9329 1846 03       		.byte	0x3
 9330 1847 BC000000 		.4byte	.LC7
 9331 184b 00       		.byte	0
 9332 184c 38       		.uleb128 0x38
 9333 184d 8C000000 		.4byte	.LVL39
 9334 1851 31160000 		.4byte	0x1631
ARM GAS  C:\Users\jo\AppData\Local\Temp\ccpKXchH.s 			page 172


 9335 1855 7D180000 		.4byte	0x187d
 9336 1859 32       		.uleb128 0x32
 9337 185a 01       		.uleb128 0x1
 9338 185b 53       		.byte	0x53
 9339 185c 03       		.uleb128 0x3
 9340 185d 0A       		.byte	0xa
 9341 185e 5F08     		.2byte	0x85f
 9342 1860 32       		.uleb128 0x32
 9343 1861 01       		.uleb128 0x1
 9344 1862 52       		.byte	0x52
 9345 1863 05       		.uleb128 0x5
 9346 1864 03       		.byte	0x3
 9347 1865 A8000000 		.4byte	.LC6
 9348 1869 32       		.uleb128 0x32
 9349 186a 01       		.uleb128 0x1
 9350 186b 51       		.byte	0x51
 9351 186c 05       		.uleb128 0x5
 9352 186d 03       		.byte	0x3
 9353 186e 08000000 		.4byte	.LC2
 9354 1872 32       		.uleb128 0x32
 9355 1873 02       		.uleb128 0x2
 9356 1874 7D       		.byte	0x7d
 9357 1875 00       		.sleb128 0
 9358 1876 05       		.uleb128 0x5
 9359 1877 03       		.byte	0x3
 9360 1878 3C000000 		.4byte	.LC4
 9361 187c 00       		.byte	0
 9362 187d 38       		.uleb128 0x38
 9363 187e B4000000 		.4byte	.LVL46
 9364 1882 31160000 		.4byte	0x1631
 9365 1886 94180000 		.4byte	0x1894
 9366 188a 32       		.uleb128 0x32
 9367 188b 01       		.uleb128 0x1
 9368 188c 51       		.byte	0x51
 9369 188d 05       		.uleb128 0x5
 9370 188e 03       		.byte	0x3
 9371 188f 5C010000 		.4byte	.LC10
 9372 1893 00       		.byte	0
 9373 1894 38       		.uleb128 0x38
 9374 1895 F0000000 		.4byte	.LVL57
 9375 1899 31160000 		.4byte	0x1631
 9376 189d BF180000 		.4byte	0x18bf
 9377 18a1 32       		.uleb128 0x32
 9378 18a2 01       		.uleb128 0x1
 9379 18a3 53       		.byte	0x53
 9380 18a4 10       		.uleb128 0x10
 9381 18a5 03       		.byte	0x3
 9382 18a6 00000000 		.4byte	.LC0
 9383 18aa 74       		.byte	0x74
 9384 18ab 00       		.sleb128 0
 9385 18ac 76       		.byte	0x76
 9386 18ad 00       		.sleb128 0
 9387 18ae 30       		.byte	0x30
 9388 18af 2E       		.byte	0x2e
 9389 18b0 28       		.byte	0x28
 9390 18b1 0100     		.2byte	0x1
 9391 18b3 16       		.byte	0x16
ARM GAS  C:\Users\jo\AppData\Local\Temp\ccpKXchH.s 			page 173


 9392 18b4 13       		.byte	0x13
 9393 18b5 32       		.uleb128 0x32
 9394 18b6 01       		.uleb128 0x1
 9395 18b7 51       		.byte	0x51
 9396 18b8 05       		.uleb128 0x5
 9397 18b9 03       		.byte	0x3
 9398 18ba 24010000 		.4byte	.LC9
 9399 18be 00       		.byte	0
 9400 18bf 38       		.uleb128 0x38
 9401 18c0 08010000 		.4byte	.LVL63
 9402 18c4 31160000 		.4byte	0x1631
 9403 18c8 D6180000 		.4byte	0x18d6
 9404 18cc 32       		.uleb128 0x32
 9405 18cd 01       		.uleb128 0x1
 9406 18ce 51       		.byte	0x51
 9407 18cf 05       		.uleb128 0x5
 9408 18d0 03       		.byte	0x3
 9409 18d1 F0000000 		.4byte	.LC8
 9410 18d5 00       		.byte	0
 9411 18d6 38       		.uleb128 0x38
 9412 18d7 1C010000 		.4byte	.LVL70
 9413 18db 31160000 		.4byte	0x1631
 9414 18df 07190000 		.4byte	0x1907
 9415 18e3 32       		.uleb128 0x32
 9416 18e4 01       		.uleb128 0x1
 9417 18e5 53       		.byte	0x53
 9418 18e6 03       		.uleb128 0x3
 9419 18e7 0A       		.byte	0xa
 9420 18e8 9408     		.2byte	0x894
 9421 18ea 32       		.uleb128 0x32
 9422 18eb 01       		.uleb128 0x1
 9423 18ec 52       		.byte	0x52
 9424 18ed 05       		.uleb128 0x5
 9425 18ee 03       		.byte	0x3
 9426 18ef A8000000 		.4byte	.LC6
 9427 18f3 32       		.uleb128 0x32
 9428 18f4 01       		.uleb128 0x1
 9429 18f5 51       		.byte	0x51
 9430 18f6 05       		.uleb128 0x5
 9431 18f7 03       		.byte	0x3
 9432 18f8 08000000 		.4byte	.LC2
 9433 18fc 32       		.uleb128 0x32
 9434 18fd 02       		.uleb128 0x2
 9435 18fe 7D       		.byte	0x7d
 9436 18ff 00       		.sleb128 0
 9437 1900 05       		.uleb128 0x5
 9438 1901 03       		.byte	0x3
 9439 1902 3C000000 		.4byte	.LC4
 9440 1906 00       		.byte	0
 9441 1907 38       		.uleb128 0x38
 9442 1908 4C010000 		.4byte	.LVL75
 9443 190c 31160000 		.4byte	0x1631
 9444 1910 25190000 		.4byte	0x1925
 9445 1914 32       		.uleb128 0x32
 9446 1915 01       		.uleb128 0x1
 9447 1916 51       		.byte	0x51
 9448 1917 05       		.uleb128 0x5
ARM GAS  C:\Users\jo\AppData\Local\Temp\ccpKXchH.s 			page 174


 9449 1918 03       		.byte	0x3
 9450 1919 6C000000 		.4byte	.LC5
 9451 191d 32       		.uleb128 0x32
 9452 191e 02       		.uleb128 0x2
 9453 191f 7D       		.byte	0x7d
 9454 1920 00       		.sleb128 0
 9455 1921 02       		.uleb128 0x2
 9456 1922 74       		.byte	0x74
 9457 1923 00       		.sleb128 0
 9458 1924 00       		.byte	0
 9459 1925 38       		.uleb128 0x38
 9460 1926 60010000 		.4byte	.LVL82
 9461 192a 31160000 		.4byte	0x1631
 9462 192e 56190000 		.4byte	0x1956
 9463 1932 32       		.uleb128 0x32
 9464 1933 01       		.uleb128 0x1
 9465 1934 53       		.byte	0x53
 9466 1935 03       		.uleb128 0x3
 9467 1936 0A       		.byte	0xa
 9468 1937 BE08     		.2byte	0x8be
 9469 1939 32       		.uleb128 0x32
 9470 193a 01       		.uleb128 0x1
 9471 193b 52       		.byte	0x52
 9472 193c 05       		.uleb128 0x5
 9473 193d 03       		.byte	0x3
 9474 193e A8000000 		.4byte	.LC6
 9475 1942 32       		.uleb128 0x32
 9476 1943 01       		.uleb128 0x1
 9477 1944 51       		.byte	0x51
 9478 1945 05       		.uleb128 0x5
 9479 1946 03       		.byte	0x3
 9480 1947 08000000 		.4byte	.LC2
 9481 194b 32       		.uleb128 0x32
 9482 194c 02       		.uleb128 0x2
 9483 194d 7D       		.byte	0x7d
 9484 194e 00       		.sleb128 0
 9485 194f 05       		.uleb128 0x5
 9486 1950 03       		.byte	0x3
 9487 1951 3C000000 		.4byte	.LC4
 9488 1955 00       		.byte	0
 9489 1956 31       		.uleb128 0x31
 9490 1957 7A010000 		.4byte	.LVL86
 9491 195b 31160000 		.4byte	0x1631
 9492 195f 32       		.uleb128 0x32
 9493 1960 01       		.uleb128 0x1
 9494 1961 53       		.byte	0x53
 9495 1962 03       		.uleb128 0x3
 9496 1963 0A       		.byte	0xa
 9497 1964 2208     		.2byte	0x822
 9498 1966 32       		.uleb128 0x32
 9499 1967 01       		.uleb128 0x1
 9500 1968 52       		.byte	0x52
 9501 1969 05       		.uleb128 0x5
 9502 196a 03       		.byte	0x3
 9503 196b 30000000 		.4byte	.LC3
 9504 196f 32       		.uleb128 0x32
 9505 1970 01       		.uleb128 0x1
ARM GAS  C:\Users\jo\AppData\Local\Temp\ccpKXchH.s 			page 175


 9506 1971 51       		.byte	0x51
 9507 1972 05       		.uleb128 0x5
 9508 1973 03       		.byte	0x3
 9509 1974 08000000 		.4byte	.LC2
 9510 1978 32       		.uleb128 0x32
 9511 1979 02       		.uleb128 0x2
 9512 197a 7D       		.byte	0x7d
 9513 197b 00       		.sleb128 0
 9514 197c 05       		.uleb128 0x5
 9515 197d 03       		.byte	0x3
 9516 197e 3C000000 		.4byte	.LC4
 9517 1982 00       		.byte	0
 9518 1983 00       		.byte	0
 9519 1984 0B       		.uleb128 0xb
 9520 1985 04       		.byte	0x4
 9521 1986 E5140000 		.4byte	0x14e5
 9522 198a 33       		.uleb128 0x33
 9523 198b 44070000 		.4byte	.LASF328
 9524 198f 01       		.byte	0x1
 9525 1990 7706     		.2byte	0x677
 9526 1992 00000000 		.4byte	.LFB281
 9527 1996 54020000 		.4byte	.LFE281-.LFB281
 9528 199a 01       		.uleb128 0x1
 9529 199b 9C       		.byte	0x9c
 9530 199c 131D0000 		.4byte	0x1d13
 9531 19a0 34       		.uleb128 0x34
 9532 19a1 61726700 		.ascii	"arg\000"
 9533 19a5 01       		.byte	0x1
 9534 19a6 7706     		.2byte	0x677
 9535 19a8 76030000 		.4byte	0x376
 9536 19ac 0A060000 		.4byte	.LLST16
 9537 19b0 3A       		.uleb128 0x3a
 9538 19b1 C1030000 		.4byte	.LASF314
 9539 19b5 01       		.byte	0x1
 9540 19b6 7906     		.2byte	0x679
 9541 19b8 44150000 		.4byte	0x1544
 9542 19bc 01       		.uleb128 0x1
 9543 19bd 55       		.byte	0x55
 9544 19be 36       		.uleb128 0x36
 9545 19bf 7300     		.ascii	"s\000"
 9546 19c1 01       		.byte	0x1
 9547 19c2 7B06     		.2byte	0x67b
 9548 19c4 25000000 		.4byte	0x25
 9549 19c8 5A060000 		.4byte	.LLST17
 9550 19cc 35       		.uleb128 0x35
 9551 19cd 14110000 		.4byte	.LASF315
 9552 19d1 01       		.byte	0x1
 9553 19d2 7D06     		.2byte	0x67d
 9554 19d4 25000000 		.4byte	0x25
 9555 19d8 83060000 		.4byte	.LLST18
 9556 19dc 35       		.uleb128 0x35
 9557 19dd A5120000 		.4byte	.LASF316
 9558 19e1 01       		.byte	0x1
 9559 19e2 7D06     		.2byte	0x67d
 9560 19e4 25000000 		.4byte	0x25
 9561 19e8 75070000 		.4byte	.LLST19
 9562 19ec 35       		.uleb128 0x35
ARM GAS  C:\Users\jo\AppData\Local\Temp\ccpKXchH.s 			page 176


 9563 19ed 830E0000 		.4byte	.LASF317
 9564 19f1 01       		.byte	0x1
 9565 19f2 7E06     		.2byte	0x67e
 9566 19f4 76030000 		.4byte	0x376
 9567 19f8 D3080000 		.4byte	.LLST20
 9568 19fc 35       		.uleb128 0x35
 9569 19fd B9080000 		.4byte	.LASF326
 9570 1a01 01       		.byte	0x1
 9571 1a02 7F06     		.2byte	0x67f
 9572 1a04 84190000 		.4byte	0x1984
 9573 1a08 FC080000 		.4byte	.LLST21
 9574 1a0c 37       		.uleb128 0x37
 9575 1a0d 75150000 		.4byte	0x1575
 9576 1a11 36000000 		.4byte	.LBB86
 9577 1a15 08000000 		.4byte	.LBE86-.LBB86
 9578 1a19 01       		.byte	0x1
 9579 1a1a 4007     		.2byte	0x740
 9580 1a1c 3D1A0000 		.4byte	0x1a3d
 9581 1a20 2D       		.uleb128 0x2d
 9582 1a21 82150000 		.4byte	0x1582
 9583 1a25 2B090000 		.4byte	.LLST22
 9584 1a29 31       		.uleb128 0x31
 9585 1a2a 3C000000 		.4byte	.LVL104
 9586 1a2e 87430000 		.4byte	0x4387
 9587 1a32 32       		.uleb128 0x32
 9588 1a33 01       		.uleb128 0x1
 9589 1a34 50       		.byte	0x50
 9590 1a35 05       		.uleb128 0x5
 9591 1a36 03       		.byte	0x3
 9592 1a37 94010000 		.4byte	.LC11
 9593 1a3b 00       		.byte	0
 9594 1a3c 00       		.byte	0
 9595 1a3d 37       		.uleb128 0x37
 9596 1a3e 75150000 		.4byte	0x1575
 9597 1a42 9E000000 		.4byte	.LBB88
 9598 1a46 0A000000 		.4byte	.LBE88-.LBB88
 9599 1a4a 01       		.byte	0x1
 9600 1a4b D806     		.2byte	0x6d8
 9601 1a4d 6E1A0000 		.4byte	0x1a6e
 9602 1a51 2D       		.uleb128 0x2d
 9603 1a52 82150000 		.4byte	0x1582
 9604 1a56 43090000 		.4byte	.LLST23
 9605 1a5a 31       		.uleb128 0x31
 9606 1a5b A4000000 		.4byte	.LVL117
 9607 1a5f 87430000 		.4byte	0x4387
 9608 1a63 32       		.uleb128 0x32
 9609 1a64 01       		.uleb128 0x1
 9610 1a65 50       		.byte	0x50
 9611 1a66 05       		.uleb128 0x5
 9612 1a67 03       		.byte	0x3
 9613 1a68 A8000000 		.4byte	.LC6
 9614 1a6c 00       		.byte	0
 9615 1a6d 00       		.byte	0
 9616 1a6e 37       		.uleb128 0x37
 9617 1a6f 75150000 		.4byte	0x1575
 9618 1a73 78010000 		.4byte	.LBB90
 9619 1a77 0A000000 		.4byte	.LBE90-.LBB90
ARM GAS  C:\Users\jo\AppData\Local\Temp\ccpKXchH.s 			page 177


 9620 1a7b 01       		.byte	0x1
 9621 1a7c 2607     		.2byte	0x726
 9622 1a7e 9F1A0000 		.4byte	0x1a9f
 9623 1a82 2D       		.uleb128 0x2d
 9624 1a83 82150000 		.4byte	0x1582
 9625 1a87 5B090000 		.4byte	.LLST24
 9626 1a8b 31       		.uleb128 0x31
 9627 1a8c 7E010000 		.4byte	.LVL146
 9628 1a90 87430000 		.4byte	0x4387
 9629 1a94 32       		.uleb128 0x32
 9630 1a95 01       		.uleb128 0x1
 9631 1a96 50       		.byte	0x50
 9632 1a97 05       		.uleb128 0x5
 9633 1a98 03       		.byte	0x3
 9634 1a99 A8000000 		.4byte	.LC6
 9635 1a9d 00       		.byte	0
 9636 1a9e 00       		.byte	0
 9637 1a9f 37       		.uleb128 0x37
 9638 1aa0 75150000 		.4byte	0x1575
 9639 1aa4 94010000 		.4byte	.LBB92
 9640 1aa8 0A000000 		.4byte	.LBE92-.LBB92
 9641 1aac 01       		.byte	0x1
 9642 1aad 0007     		.2byte	0x700
 9643 1aaf D01A0000 		.4byte	0x1ad0
 9644 1ab3 2D       		.uleb128 0x2d
 9645 1ab4 82150000 		.4byte	0x1582
 9646 1ab8 73090000 		.4byte	.LLST25
 9647 1abc 31       		.uleb128 0x31
 9648 1abd 9A010000 		.4byte	.LVL152
 9649 1ac1 87430000 		.4byte	0x4387
 9650 1ac5 32       		.uleb128 0x32
 9651 1ac6 01       		.uleb128 0x1
 9652 1ac7 50       		.byte	0x50
 9653 1ac8 05       		.uleb128 0x5
 9654 1ac9 03       		.byte	0x3
 9655 1aca A8000000 		.4byte	.LC6
 9656 1ace 00       		.byte	0
 9657 1acf 00       		.byte	0
 9658 1ad0 37       		.uleb128 0x37
 9659 1ad1 75150000 		.4byte	0x1575
 9660 1ad5 B0010000 		.4byte	.LBB94
 9661 1ad9 08000000 		.4byte	.LBE94-.LBB94
 9662 1add 01       		.byte	0x1
 9663 1ade 8106     		.2byte	0x681
 9664 1ae0 011B0000 		.4byte	0x1b01
 9665 1ae4 2D       		.uleb128 0x2d
 9666 1ae5 82150000 		.4byte	0x1582
 9667 1ae9 8B090000 		.4byte	.LLST26
 9668 1aed 31       		.uleb128 0x31
 9669 1aee B6010000 		.4byte	.LVL156
 9670 1af2 87430000 		.4byte	0x4387
 9671 1af6 32       		.uleb128 0x32
 9672 1af7 01       		.uleb128 0x1
 9673 1af8 50       		.byte	0x50
 9674 1af9 05       		.uleb128 0x5
 9675 1afa 03       		.byte	0x3
 9676 1afb 30000000 		.4byte	.LC3
ARM GAS  C:\Users\jo\AppData\Local\Temp\ccpKXchH.s 			page 178


 9677 1aff 00       		.byte	0
 9678 1b00 00       		.byte	0
 9679 1b01 38       		.uleb128 0x38
 9680 1b02 36000000 		.4byte	.LVL103
 9681 1b06 31160000 		.4byte	0x1631
 9682 1b0a 321B0000 		.4byte	0x1b32
 9683 1b0e 32       		.uleb128 0x32
 9684 1b0f 01       		.uleb128 0x1
 9685 1b10 53       		.byte	0x53
 9686 1b11 03       		.uleb128 0x3
 9687 1b12 0A       		.byte	0xa
 9688 1b13 4007     		.2byte	0x740
 9689 1b15 32       		.uleb128 0x32
 9690 1b16 01       		.uleb128 0x1
 9691 1b17 52       		.byte	0x52
 9692 1b18 05       		.uleb128 0x5
 9693 1b19 03       		.byte	0x3
 9694 1b1a 94010000 		.4byte	.LC11
 9695 1b1e 32       		.uleb128 0x32
 9696 1b1f 01       		.uleb128 0x1
 9697 1b20 51       		.byte	0x51
 9698 1b21 05       		.uleb128 0x5
 9699 1b22 03       		.byte	0x3
 9700 1b23 08000000 		.4byte	.LC2
 9701 1b27 32       		.uleb128 0x32
 9702 1b28 02       		.uleb128 0x2
 9703 1b29 7D       		.byte	0x7d
 9704 1b2a 00       		.sleb128 0
 9705 1b2b 05       		.uleb128 0x5
 9706 1b2c 03       		.byte	0x3
 9707 1b2d 3C000000 		.4byte	.LC4
 9708 1b31 00       		.byte	0
 9709 1b32 39       		.uleb128 0x39
 9710 1b33 4A000000 		.4byte	.LVL107
 9711 1b37 98430000 		.4byte	0x4398
 9712 1b3b 38       		.uleb128 0x38
 9713 1b3c 66000000 		.4byte	.LVL111
 9714 1b40 31160000 		.4byte	0x1631
 9715 1b44 581B0000 		.4byte	0x1b58
 9716 1b48 32       		.uleb128 0x32
 9717 1b49 01       		.uleb128 0x1
 9718 1b4a 52       		.byte	0x52
 9719 1b4b 02       		.uleb128 0x2
 9720 1b4c 76       		.byte	0x76
 9721 1b4d 00       		.sleb128 0
 9722 1b4e 32       		.uleb128 0x32
 9723 1b4f 01       		.uleb128 0x1
 9724 1b50 51       		.byte	0x51
 9725 1b51 05       		.uleb128 0x5
 9726 1b52 03       		.byte	0x3
 9727 1b53 84020000 		.4byte	.LC16
 9728 1b57 00       		.byte	0
 9729 1b58 38       		.uleb128 0x38
 9730 1b59 9E000000 		.4byte	.LVL116
 9731 1b5d 31160000 		.4byte	0x1631
 9732 1b61 891B0000 		.4byte	0x1b89
 9733 1b65 32       		.uleb128 0x32
ARM GAS  C:\Users\jo\AppData\Local\Temp\ccpKXchH.s 			page 179


 9734 1b66 01       		.uleb128 0x1
 9735 1b67 53       		.byte	0x53
 9736 1b68 03       		.uleb128 0x3
 9737 1b69 0A       		.byte	0xa
 9738 1b6a D806     		.2byte	0x6d8
 9739 1b6c 32       		.uleb128 0x32
 9740 1b6d 01       		.uleb128 0x1
 9741 1b6e 52       		.byte	0x52
 9742 1b6f 05       		.uleb128 0x5
 9743 1b70 03       		.byte	0x3
 9744 1b71 A8000000 		.4byte	.LC6
 9745 1b75 32       		.uleb128 0x32
 9746 1b76 01       		.uleb128 0x1
 9747 1b77 51       		.byte	0x51
 9748 1b78 05       		.uleb128 0x5
 9749 1b79 03       		.byte	0x3
 9750 1b7a 08000000 		.4byte	.LC2
 9751 1b7e 32       		.uleb128 0x32
 9752 1b7f 02       		.uleb128 0x2
 9753 1b80 7D       		.byte	0x7d
 9754 1b81 00       		.sleb128 0
 9755 1b82 05       		.uleb128 0x5
 9756 1b83 03       		.byte	0x3
 9757 1b84 3C000000 		.4byte	.LC4
 9758 1b88 00       		.byte	0
 9759 1b89 38       		.uleb128 0x38
 9760 1b8a C4000000 		.4byte	.LVL122
 9761 1b8e 31160000 		.4byte	0x1631
 9762 1b92 A61B0000 		.4byte	0x1ba6
 9763 1b96 32       		.uleb128 0x32
 9764 1b97 01       		.uleb128 0x1
 9765 1b98 52       		.byte	0x52
 9766 1b99 02       		.uleb128 0x2
 9767 1b9a 76       		.byte	0x76
 9768 1b9b 00       		.sleb128 0
 9769 1b9c 32       		.uleb128 0x32
 9770 1b9d 01       		.uleb128 0x1
 9771 1b9e 51       		.byte	0x51
 9772 1b9f 05       		.uleb128 0x5
 9773 1ba0 03       		.byte	0x3
 9774 1ba1 18030000 		.4byte	.LC19
 9775 1ba5 00       		.byte	0
 9776 1ba6 38       		.uleb128 0x38
 9777 1ba7 DA000000 		.4byte	.LVL127
 9778 1bab 31160000 		.4byte	0x1631
 9779 1baf C31B0000 		.4byte	0x1bc3
 9780 1bb3 32       		.uleb128 0x32
 9781 1bb4 01       		.uleb128 0x1
 9782 1bb5 52       		.byte	0x52
 9783 1bb6 02       		.uleb128 0x2
 9784 1bb7 76       		.byte	0x76
 9785 1bb8 00       		.sleb128 0
 9786 1bb9 32       		.uleb128 0x32
 9787 1bba 01       		.uleb128 0x1
 9788 1bbb 51       		.byte	0x51
 9789 1bbc 05       		.uleb128 0x5
 9790 1bbd 03       		.byte	0x3
ARM GAS  C:\Users\jo\AppData\Local\Temp\ccpKXchH.s 			page 180


 9791 1bbe B4020000 		.4byte	.LC17
 9792 1bc2 00       		.byte	0
 9793 1bc3 38       		.uleb128 0x38
 9794 1bc4 00010000 		.4byte	.LVL132
 9795 1bc8 31160000 		.4byte	0x1631
 9796 1bcc F71B0000 		.4byte	0x1bf7
 9797 1bd0 32       		.uleb128 0x32
 9798 1bd1 01       		.uleb128 0x1
 9799 1bd2 53       		.byte	0x53
 9800 1bd3 13       		.uleb128 0x13
 9801 1bd4 03       		.byte	0x3
 9802 1bd5 00000000 		.4byte	.LC0
 9803 1bd9 03       		.byte	0x3
 9804 1bda 04000000 		.4byte	.LC1
 9805 1bde 77       		.byte	0x77
 9806 1bdf 00       		.sleb128 0
 9807 1be0 30       		.byte	0x30
 9808 1be1 2E       		.byte	0x2e
 9809 1be2 28       		.byte	0x28
 9810 1be3 0100     		.2byte	0x1
 9811 1be5 16       		.byte	0x16
 9812 1be6 13       		.byte	0x13
 9813 1be7 32       		.uleb128 0x32
 9814 1be8 01       		.uleb128 0x1
 9815 1be9 52       		.byte	0x52
 9816 1bea 02       		.uleb128 0x2
 9817 1beb 76       		.byte	0x76
 9818 1bec 00       		.sleb128 0
 9819 1bed 32       		.uleb128 0x32
 9820 1bee 01       		.uleb128 0x1
 9821 1bef 51       		.byte	0x51
 9822 1bf0 05       		.uleb128 0x5
 9823 1bf1 03       		.byte	0x3
 9824 1bf2 E4020000 		.4byte	.LC18
 9825 1bf6 00       		.byte	0
 9826 1bf7 38       		.uleb128 0x38
 9827 1bf8 30010000 		.4byte	.LVL136
 9828 1bfc 31160000 		.4byte	0x1631
 9829 1c00 2C1C0000 		.4byte	0x1c2c
 9830 1c04 32       		.uleb128 0x32
 9831 1c05 01       		.uleb128 0x1
 9832 1c06 52       		.byte	0x52
 9833 1c07 02       		.uleb128 0x2
 9834 1c08 76       		.byte	0x76
 9835 1c09 00       		.sleb128 0
 9836 1c0a 32       		.uleb128 0x32
 9837 1c0b 01       		.uleb128 0x1
 9838 1c0c 51       		.byte	0x51
 9839 1c0d 05       		.uleb128 0x5
 9840 1c0e 03       		.byte	0x3
 9841 1c0f A4010000 		.4byte	.LC12
 9842 1c13 32       		.uleb128 0x32
 9843 1c14 02       		.uleb128 0x2
 9844 1c15 7D       		.byte	0x7d
 9845 1c16 00       		.sleb128 0
 9846 1c17 13       		.uleb128 0x13
 9847 1c18 03       		.byte	0x3
ARM GAS  C:\Users\jo\AppData\Local\Temp\ccpKXchH.s 			page 181


 9848 1c19 00000000 		.4byte	.LC0
 9849 1c1d 03       		.byte	0x3
 9850 1c1e 04000000 		.4byte	.LC1
 9851 1c22 77       		.byte	0x77
 9852 1c23 00       		.sleb128 0
 9853 1c24 30       		.byte	0x30
 9854 1c25 2E       		.byte	0x2e
 9855 1c26 28       		.byte	0x28
 9856 1c27 0100     		.2byte	0x1
 9857 1c29 16       		.byte	0x16
 9858 1c2a 13       		.byte	0x13
 9859 1c2b 00       		.byte	0
 9860 1c2c 38       		.uleb128 0x38
 9861 1c2d 62010000 		.4byte	.LVL140
 9862 1c31 31160000 		.4byte	0x1631
 9863 1c35 491C0000 		.4byte	0x1c49
 9864 1c39 32       		.uleb128 0x32
 9865 1c3a 01       		.uleb128 0x1
 9866 1c3b 52       		.byte	0x52
 9867 1c3c 02       		.uleb128 0x2
 9868 1c3d 76       		.byte	0x76
 9869 1c3e 00       		.sleb128 0
 9870 1c3f 32       		.uleb128 0x32
 9871 1c40 01       		.uleb128 0x1
 9872 1c41 51       		.byte	0x51
 9873 1c42 05       		.uleb128 0x5
 9874 1c43 03       		.byte	0x3
 9875 1c44 54020000 		.4byte	.LC15
 9876 1c48 00       		.byte	0
 9877 1c49 38       		.uleb128 0x38
 9878 1c4a 78010000 		.4byte	.LVL145
 9879 1c4e 31160000 		.4byte	0x1631
 9880 1c52 7A1C0000 		.4byte	0x1c7a
 9881 1c56 32       		.uleb128 0x32
 9882 1c57 01       		.uleb128 0x1
 9883 1c58 53       		.byte	0x53
 9884 1c59 03       		.uleb128 0x3
 9885 1c5a 0A       		.byte	0xa
 9886 1c5b 2607     		.2byte	0x726
 9887 1c5d 32       		.uleb128 0x32
 9888 1c5e 01       		.uleb128 0x1
 9889 1c5f 52       		.byte	0x52
 9890 1c60 05       		.uleb128 0x5
 9891 1c61 03       		.byte	0x3
 9892 1c62 A8000000 		.4byte	.LC6
 9893 1c66 32       		.uleb128 0x32
 9894 1c67 01       		.uleb128 0x1
 9895 1c68 51       		.byte	0x51
 9896 1c69 05       		.uleb128 0x5
 9897 1c6a 03       		.byte	0x3
 9898 1c6b 08000000 		.4byte	.LC2
 9899 1c6f 32       		.uleb128 0x32
 9900 1c70 02       		.uleb128 0x2
 9901 1c71 7D       		.byte	0x7d
 9902 1c72 00       		.sleb128 0
 9903 1c73 05       		.uleb128 0x5
 9904 1c74 03       		.byte	0x3
ARM GAS  C:\Users\jo\AppData\Local\Temp\ccpKXchH.s 			page 182


 9905 1c75 3C000000 		.4byte	.LC4
 9906 1c79 00       		.byte	0
 9907 1c7a 38       		.uleb128 0x38
 9908 1c7b 94010000 		.4byte	.LVL151
 9909 1c7f 31160000 		.4byte	0x1631
 9910 1c83 AB1C0000 		.4byte	0x1cab
 9911 1c87 32       		.uleb128 0x32
 9912 1c88 01       		.uleb128 0x1
 9913 1c89 53       		.byte	0x53
 9914 1c8a 03       		.uleb128 0x3
 9915 1c8b 0A       		.byte	0xa
 9916 1c8c 0007     		.2byte	0x700
 9917 1c8e 32       		.uleb128 0x32
 9918 1c8f 01       		.uleb128 0x1
 9919 1c90 52       		.byte	0x52
 9920 1c91 05       		.uleb128 0x5
 9921 1c92 03       		.byte	0x3
 9922 1c93 A8000000 		.4byte	.LC6
 9923 1c97 32       		.uleb128 0x32
 9924 1c98 01       		.uleb128 0x1
 9925 1c99 51       		.byte	0x51
 9926 1c9a 05       		.uleb128 0x5
 9927 1c9b 03       		.byte	0x3
 9928 1c9c 08000000 		.4byte	.LC2
 9929 1ca0 32       		.uleb128 0x32
 9930 1ca1 02       		.uleb128 0x2
 9931 1ca2 7D       		.byte	0x7d
 9932 1ca3 00       		.sleb128 0
 9933 1ca4 05       		.uleb128 0x5
 9934 1ca5 03       		.byte	0x3
 9935 1ca6 3C000000 		.4byte	.LC4
 9936 1caa 00       		.byte	0
 9937 1cab 38       		.uleb128 0x38
 9938 1cac B0010000 		.4byte	.LVL155
 9939 1cb0 31160000 		.4byte	0x1631
 9940 1cb4 DC1C0000 		.4byte	0x1cdc
 9941 1cb8 32       		.uleb128 0x32
 9942 1cb9 01       		.uleb128 0x1
 9943 1cba 53       		.byte	0x53
 9944 1cbb 03       		.uleb128 0x3
 9945 1cbc 0A       		.byte	0xa
 9946 1cbd 8106     		.2byte	0x681
 9947 1cbf 32       		.uleb128 0x32
 9948 1cc0 01       		.uleb128 0x1
 9949 1cc1 52       		.byte	0x52
 9950 1cc2 05       		.uleb128 0x5
 9951 1cc3 03       		.byte	0x3
 9952 1cc4 30000000 		.4byte	.LC3
 9953 1cc8 32       		.uleb128 0x32
 9954 1cc9 01       		.uleb128 0x1
 9955 1cca 51       		.byte	0x51
 9956 1ccb 05       		.uleb128 0x5
 9957 1ccc 03       		.byte	0x3
 9958 1ccd 08000000 		.4byte	.LC2
 9959 1cd1 32       		.uleb128 0x32
 9960 1cd2 02       		.uleb128 0x2
 9961 1cd3 7D       		.byte	0x7d
ARM GAS  C:\Users\jo\AppData\Local\Temp\ccpKXchH.s 			page 183


 9962 1cd4 00       		.sleb128 0
 9963 1cd5 05       		.uleb128 0x5
 9964 1cd6 03       		.byte	0x3
 9965 1cd7 3C000000 		.4byte	.LC4
 9966 1cdb 00       		.byte	0
 9967 1cdc 38       		.uleb128 0x38
 9968 1cdd E6010000 		.4byte	.LVL163
 9969 1ce1 31160000 		.4byte	0x1631
 9970 1ce5 F91C0000 		.4byte	0x1cf9
 9971 1ce9 32       		.uleb128 0x32
 9972 1cea 01       		.uleb128 0x1
 9973 1ceb 52       		.byte	0x52
 9974 1cec 02       		.uleb128 0x2
 9975 1ced 76       		.byte	0x76
 9976 1cee 00       		.sleb128 0
 9977 1cef 32       		.uleb128 0x32
 9978 1cf0 01       		.uleb128 0x1
 9979 1cf1 51       		.byte	0x51
 9980 1cf2 05       		.uleb128 0x5
 9981 1cf3 03       		.byte	0x3
 9982 1cf4 DC010000 		.4byte	.LC13
 9983 1cf8 00       		.byte	0
 9984 1cf9 31       		.uleb128 0x31
 9985 1cfa F2010000 		.4byte	.LVL164
 9986 1cfe 31160000 		.4byte	0x1631
 9987 1d02 32       		.uleb128 0x32
 9988 1d03 01       		.uleb128 0x1
 9989 1d04 52       		.byte	0x52
 9990 1d05 02       		.uleb128 0x2
 9991 1d06 76       		.byte	0x76
 9992 1d07 00       		.sleb128 0
 9993 1d08 32       		.uleb128 0x32
 9994 1d09 01       		.uleb128 0x1
 9995 1d0a 51       		.byte	0x51
 9996 1d0b 05       		.uleb128 0x5
 9997 1d0c 03       		.byte	0x3
 9998 1d0d 24020000 		.4byte	.LC14
 9999 1d11 00       		.byte	0
 10000 1d12 00       		.byte	0
 10001 1d13 3B       		.uleb128 0x3b
 10002 1d14 C80D0000 		.4byte	.LASF330
 10003 1d18 01       		.byte	0x1
 10004 1d19 0204     		.2byte	0x402
 10005 1d1b 25000000 		.4byte	0x25
 10006 1d1f 00000000 		.4byte	.LFB273
 10007 1d23 98010000 		.4byte	.LFE273-.LFB273
 10008 1d27 01       		.uleb128 0x1
 10009 1d28 9C       		.byte	0x9c
 10010 1d29 361F0000 		.4byte	0x1f36
 10011 1d2d 3C       		.uleb128 0x3c
 10012 1d2e 77020000 		.4byte	.LASF331
 10013 1d32 01       		.byte	0x1
 10014 1d33 0204     		.2byte	0x402
 10015 1d35 25000000 		.4byte	0x25
 10016 1d39 A3090000 		.4byte	.LLST27
 10017 1d3d 3C       		.uleb128 0x3c
 10018 1d3e A8050000 		.4byte	.LASF332
ARM GAS  C:\Users\jo\AppData\Local\Temp\ccpKXchH.s 			page 184


 10019 1d42 01       		.byte	0x1
 10020 1d43 0204     		.2byte	0x402
 10021 1d45 DF140000 		.4byte	0x14df
 10022 1d49 F0090000 		.4byte	.LLST28
 10023 1d4d 3C       		.uleb128 0x3c
 10024 1d4e D6100000 		.4byte	.LASF333
 10025 1d52 01       		.byte	0x1
 10026 1d53 0204     		.2byte	0x402
 10027 1d55 DF140000 		.4byte	0x14df
 10028 1d59 3D0A0000 		.4byte	.LLST29
 10029 1d5d 3C       		.uleb128 0x3c
 10030 1d5e 560C0000 		.4byte	.LASF334
 10031 1d62 01       		.byte	0x1
 10032 1d63 0204     		.2byte	0x402
 10033 1d65 DF140000 		.4byte	0x14df
 10034 1d69 8A0A0000 		.4byte	.LLST30
 10035 1d6d 3C       		.uleb128 0x3c
 10036 1d6e 710B0000 		.4byte	.LASF335
 10037 1d72 01       		.byte	0x1
 10038 1d73 0304     		.2byte	0x403
 10039 1d75 DF140000 		.4byte	0x14df
 10040 1d79 D70A0000 		.4byte	.LLST31
 10041 1d7d 3C       		.uleb128 0x3c
 10042 1d7e 220A0000 		.4byte	.LASF336
 10043 1d82 01       		.byte	0x1
 10044 1d83 0304     		.2byte	0x403
 10045 1d85 DF140000 		.4byte	0x14df
 10046 1d89 F70A0000 		.4byte	.LLST32
 10047 1d8d 3C       		.uleb128 0x3c
 10048 1d8e D9110000 		.4byte	.LASF337
 10049 1d92 01       		.byte	0x1
 10050 1d93 0304     		.2byte	0x403
 10051 1d95 DF140000 		.4byte	0x14df
 10052 1d99 170B0000 		.4byte	.LLST33
 10053 1d9d 36       		.uleb128 0x36
 10054 1d9e 6900     		.ascii	"i\000"
 10055 1da0 01       		.byte	0x1
 10056 1da1 0504     		.2byte	0x405
 10057 1da3 25000000 		.4byte	0x25
 10058 1da7 370B0000 		.4byte	.LLST34
 10059 1dab 35       		.uleb128 0x35
 10060 1dac E70D0000 		.4byte	.LASF338
 10061 1db0 01       		.byte	0x1
 10062 1db1 0504     		.2byte	0x405
 10063 1db3 25000000 		.4byte	0x25
 10064 1db7 780B0000 		.4byte	.LLST35
 10065 1dbb 3A       		.uleb128 0x3a
 10066 1dbc FD060000 		.4byte	.LASF339
 10067 1dc0 01       		.byte	0x1
 10068 1dc1 0604     		.2byte	0x406
 10069 1dc3 1A060000 		.4byte	0x61a
 10070 1dc7 02       		.uleb128 0x2
 10071 1dc8 91       		.byte	0x91
 10072 1dc9 40       		.sleb128 -64
 10073 1dca 3A       		.uleb128 0x3a
 10074 1dcb 340A0000 		.4byte	.LASF340
 10075 1dcf 01       		.byte	0x1
ARM GAS  C:\Users\jo\AppData\Local\Temp\ccpKXchH.s 			page 185


 10076 1dd0 0604     		.2byte	0x406
 10077 1dd2 1A060000 		.4byte	0x61a
 10078 1dd6 02       		.uleb128 0x2
 10079 1dd7 91       		.byte	0x91
 10080 1dd8 48       		.sleb128 -56
 10081 1dd9 3A       		.uleb128 0x3a
 10082 1dda 60130000 		.4byte	.LASF341
 10083 1dde 01       		.byte	0x1
 10084 1ddf 0604     		.2byte	0x406
 10085 1de1 1A060000 		.4byte	0x61a
 10086 1de5 02       		.uleb128 0x2
 10087 1de6 91       		.byte	0x91
 10088 1de7 50       		.sleb128 -48
 10089 1de8 3D       		.uleb128 0x3d
 10090 1de9 C1030000 		.4byte	.LASF314
 10091 1ded 01       		.byte	0x1
 10092 1dee 0704     		.2byte	0x407
 10093 1df0 44150000 		.4byte	0x1544
 10094 1df4 3E       		.uleb128 0x3e
 10095 1df5 06000000 		.4byte	.LBB96
 10096 1df9 10000000 		.4byte	.LBE96-.LBB96
 10097 1dfd 221E0000 		.4byte	0x1e22
 10098 1e01 36       		.uleb128 0x36
 10099 1e02 5F5F6900 		.ascii	"__i\000"
 10100 1e06 01       		.byte	0x1
 10101 1e07 0A04     		.2byte	0x40a
 10102 1e09 2C000000 		.4byte	0x2c
 10103 1e0d B90B0000 		.4byte	.LLST36
 10104 1e11 35       		.uleb128 0x35
 10105 1e12 40120000 		.4byte	.LASF342
 10106 1e16 01       		.byte	0x1
 10107 1e17 0A04     		.2byte	0x40a
 10108 1e19 BE050000 		.4byte	0x5be
 10109 1e1d DF0B0000 		.4byte	.LLST37
 10110 1e21 00       		.byte	0
 10111 1e22 3E       		.uleb128 0x3e
 10112 1e23 16000000 		.4byte	.LBB97
 10113 1e27 0E000000 		.4byte	.LBE97-.LBB97
 10114 1e2b 501E0000 		.4byte	0x1e50
 10115 1e2f 36       		.uleb128 0x36
 10116 1e30 5F5F6900 		.ascii	"__i\000"
 10117 1e34 01       		.byte	0x1
 10118 1e35 0B04     		.2byte	0x40b
 10119 1e37 2C000000 		.4byte	0x2c
 10120 1e3b FF0B0000 		.4byte	.LLST38
 10121 1e3f 35       		.uleb128 0x35
 10122 1e40 40120000 		.4byte	.LASF342
 10123 1e44 01       		.byte	0x1
 10124 1e45 0B04     		.2byte	0x40b
 10125 1e47 BE050000 		.4byte	0x5be
 10126 1e4b 190C0000 		.4byte	.LLST39
 10127 1e4f 00       		.byte	0
 10128 1e50 3E       		.uleb128 0x3e
 10129 1e51 24000000 		.4byte	.LBB98
 10130 1e55 0C000000 		.4byte	.LBE98-.LBB98
 10131 1e59 7E1E0000 		.4byte	0x1e7e
 10132 1e5d 36       		.uleb128 0x36
ARM GAS  C:\Users\jo\AppData\Local\Temp\ccpKXchH.s 			page 186


 10133 1e5e 5F5F6900 		.ascii	"__i\000"
 10134 1e62 01       		.byte	0x1
 10135 1e63 0C04     		.2byte	0x40c
 10136 1e65 2C000000 		.4byte	0x2c
 10137 1e69 2C0C0000 		.4byte	.LLST40
 10138 1e6d 35       		.uleb128 0x35
 10139 1e6e 40120000 		.4byte	.LASF342
 10140 1e72 01       		.byte	0x1
 10141 1e73 0C04     		.2byte	0x40c
 10142 1e75 BE050000 		.4byte	0x5be
 10143 1e79 580C0000 		.4byte	.LLST41
 10144 1e7d 00       		.byte	0
 10145 1e7e 3F       		.uleb128 0x3f
 10146 1e7f 00000000 		.4byte	.Ldebug_ranges0+0
 10147 1e83 35       		.uleb128 0x35
 10148 1e84 BD0E0000 		.4byte	.LASF301
 10149 1e88 01       		.byte	0x1
 10150 1e89 1104     		.2byte	0x411
 10151 1e8b 76030000 		.4byte	0x376
 10152 1e8f 760C0000 		.4byte	.LLST42
 10153 1e93 35       		.uleb128 0x35
 10154 1e94 FB0E0000 		.4byte	.LASF303
 10155 1e98 01       		.byte	0x1
 10156 1e99 1204     		.2byte	0x412
 10157 1e9b 240A0000 		.4byte	0xa24
 10158 1e9f C30C0000 		.4byte	.LLST43
 10159 1ea3 35       		.uleb128 0x35
 10160 1ea4 1C100000 		.4byte	.LASF304
 10161 1ea8 01       		.byte	0x1
 10162 1ea9 1304     		.2byte	0x413
 10163 1eab 190A0000 		.4byte	0xa19
 10164 1eaf 100D0000 		.4byte	.LLST44
 10165 1eb3 35       		.uleb128 0x35
 10166 1eb4 010C0000 		.4byte	.LASF305
 10167 1eb8 01       		.byte	0x1
 10168 1eb9 1404     		.2byte	0x414
 10169 1ebb 190A0000 		.4byte	0xa19
 10170 1ebf 5D0D0000 		.4byte	.LLST45
 10171 1ec3 40       		.uleb128 0x40
 10172 1ec4 8F150000 		.4byte	0x158f
 10173 1ec8 48000000 		.4byte	.LBB100
 10174 1ecc 20000000 		.4byte	.Ldebug_ranges0+0x20
 10175 1ed0 01       		.byte	0x1
 10176 1ed1 1704     		.2byte	0x417
 10177 1ed3 E11E0000 		.4byte	0x1ee1
 10178 1ed7 2D       		.uleb128 0x2d
 10179 1ed8 9F150000 		.4byte	0x159f
 10180 1edc AA0D0000 		.4byte	.LLST46
 10181 1ee0 00       		.byte	0
 10182 1ee1 38       		.uleb128 0x38
 10183 1ee2 92000000 		.4byte	.LVL188
 10184 1ee6 31160000 		.4byte	0x1631
 10185 1eea FE1E0000 		.4byte	0x1efe
 10186 1eee 32       		.uleb128 0x32
 10187 1eef 01       		.uleb128 0x1
 10188 1ef0 52       		.byte	0x52
 10189 1ef1 02       		.uleb128 0x2
ARM GAS  C:\Users\jo\AppData\Local\Temp\ccpKXchH.s 			page 187


 10190 1ef2 74       		.byte	0x74
 10191 1ef3 00       		.sleb128 0
 10192 1ef4 32       		.uleb128 0x32
 10193 1ef5 01       		.uleb128 0x1
 10194 1ef6 51       		.byte	0x51
 10195 1ef7 05       		.uleb128 0x5
 10196 1ef8 03       		.byte	0x3
 10197 1ef9 50030000 		.4byte	.LC20
 10198 1efd 00       		.byte	0
 10199 1efe 38       		.uleb128 0x38
 10200 1eff 26010000 		.4byte	.LVL194
 10201 1f03 31160000 		.4byte	0x1631
 10202 1f07 1B1F0000 		.4byte	0x1f1b
 10203 1f0b 32       		.uleb128 0x32
 10204 1f0c 01       		.uleb128 0x1
 10205 1f0d 52       		.byte	0x52
 10206 1f0e 02       		.uleb128 0x2
 10207 1f0f 74       		.byte	0x74
 10208 1f10 00       		.sleb128 0
 10209 1f11 32       		.uleb128 0x32
 10210 1f12 01       		.uleb128 0x1
 10211 1f13 51       		.byte	0x51
 10212 1f14 05       		.uleb128 0x5
 10213 1f15 03       		.byte	0x3
 10214 1f16 78030000 		.4byte	.LC21
 10215 1f1a 00       		.byte	0
 10216 1f1b 31       		.uleb128 0x31
 10217 1f1c 58010000 		.4byte	.LVL199
 10218 1f20 31160000 		.4byte	0x1631
 10219 1f24 32       		.uleb128 0x32
 10220 1f25 01       		.uleb128 0x1
 10221 1f26 52       		.byte	0x52
 10222 1f27 02       		.uleb128 0x2
 10223 1f28 74       		.byte	0x74
 10224 1f29 00       		.sleb128 0
 10225 1f2a 32       		.uleb128 0x32
 10226 1f2b 01       		.uleb128 0x1
 10227 1f2c 51       		.byte	0x51
 10228 1f2d 05       		.uleb128 0x5
 10229 1f2e 03       		.byte	0x3
 10230 1f2f A0030000 		.4byte	.LC22
 10231 1f33 00       		.byte	0
 10232 1f34 00       		.byte	0
 10233 1f35 00       		.byte	0
 10234 1f36 2C       		.uleb128 0x2c
 10235 1f37 50150000 		.4byte	0x1550
 10236 1f3b 00000000 		.4byte	.LFB257
 10237 1f3f 44000000 		.4byte	.LFE257-.LFB257
 10238 1f43 01       		.uleb128 0x1
 10239 1f44 9C       		.byte	0x9c
 10240 1f45 B61F0000 		.4byte	0x1fb6
 10241 1f49 2D       		.uleb128 0x2d
 10242 1f4a 60150000 		.4byte	0x1560
 10243 1f4e E00D0000 		.4byte	.LLST47
 10244 1f52 41       		.uleb128 0x41
 10245 1f53 69150000 		.4byte	0x1569
 10246 1f57 490E0000 		.4byte	.LLST48
ARM GAS  C:\Users\jo\AppData\Local\Temp\ccpKXchH.s 			page 188


 10247 1f5b 3E       		.uleb128 0x3e
 10248 1f5c 26000000 		.4byte	.LBB108
 10249 1f60 1E000000 		.4byte	.LBE108-.LBB108
 10250 1f64 9B1F0000 		.4byte	0x1f9b
 10251 1f68 2D       		.uleb128 0x2d
 10252 1f69 60150000 		.4byte	0x1560
 10253 1f6d 830E0000 		.4byte	.LLST49
 10254 1f71 42       		.uleb128 0x42
 10255 1f72 26000000 		.4byte	.LBB109
 10256 1f76 1E000000 		.4byte	.LBE109-.LBB109
 10257 1f7a 43       		.uleb128 0x43
 10258 1f7b 69150000 		.4byte	0x1569
 10259 1f7f 31       		.uleb128 0x31
 10260 1f80 30000000 		.4byte	.LVL216
 10261 1f84 31160000 		.4byte	0x1631
 10262 1f88 32       		.uleb128 0x32
 10263 1f89 01       		.uleb128 0x1
 10264 1f8a 52       		.byte	0x52
 10265 1f8b 03       		.uleb128 0x3
 10266 1f8c F3       		.byte	0xf3
 10267 1f8d 01       		.uleb128 0x1
 10268 1f8e 50       		.byte	0x50
 10269 1f8f 32       		.uleb128 0x32
 10270 1f90 01       		.uleb128 0x1
 10271 1f91 51       		.byte	0x51
 10272 1f92 05       		.uleb128 0x5
 10273 1f93 03       		.byte	0x3
 10274 1f94 E8030000 		.4byte	.LC24
 10275 1f98 00       		.byte	0
 10276 1f99 00       		.byte	0
 10277 1f9a 00       		.byte	0
 10278 1f9b 31       		.uleb128 0x31
 10279 1f9c 22000000 		.4byte	.LVL213
 10280 1fa0 31160000 		.4byte	0x1631
 10281 1fa4 32       		.uleb128 0x32
 10282 1fa5 01       		.uleb128 0x1
 10283 1fa6 52       		.byte	0x52
 10284 1fa7 03       		.uleb128 0x3
 10285 1fa8 F3       		.byte	0xf3
 10286 1fa9 01       		.uleb128 0x1
 10287 1faa 50       		.byte	0x50
 10288 1fab 32       		.uleb128 0x32
 10289 1fac 01       		.uleb128 0x1
 10290 1fad 51       		.byte	0x51
 10291 1fae 05       		.uleb128 0x5
 10292 1faf 03       		.byte	0x3
 10293 1fb0 CC030000 		.4byte	.LC23
 10294 1fb4 00       		.byte	0
 10295 1fb5 00       		.byte	0
 10296 1fb6 33       		.uleb128 0x33
 10297 1fb7 95060000 		.4byte	.LASF343
 10298 1fbb 01       		.byte	0x1
 10299 1fbc DF04     		.2byte	0x4df
 10300 1fbe 00000000 		.4byte	.LFB275
 10301 1fc2 0C010000 		.4byte	.LFE275-.LFB275
 10302 1fc6 01       		.uleb128 0x1
 10303 1fc7 9C       		.byte	0x9c
ARM GAS  C:\Users\jo\AppData\Local\Temp\ccpKXchH.s 			page 189


 10304 1fc8 DF200000 		.4byte	0x20df
 10305 1fcc 3C       		.uleb128 0x3c
 10306 1fcd E6060000 		.4byte	.LASF271
 10307 1fd1 01       		.byte	0x1
 10308 1fd2 DF04     		.2byte	0x4df
 10309 1fd4 C70C0000 		.4byte	0xcc7
 10310 1fd8 AF0E0000 		.4byte	.LLST50
 10311 1fdc 34       		.uleb128 0x34
 10312 1fdd 65767400 		.ascii	"evt\000"
 10313 1fe1 01       		.byte	0x1
 10314 1fe2 DF04     		.2byte	0x4df
 10315 1fe4 760C0000 		.4byte	0xc76
 10316 1fe8 F40E0000 		.4byte	.LLST51
 10317 1fec 34       		.uleb128 0x34
 10318 1fed 6C656E00 		.ascii	"len\000"
 10319 1ff1 01       		.byte	0x1
 10320 1ff2 DF04     		.2byte	0x4df
 10321 1ff4 190A0000 		.4byte	0xa19
 10322 1ff8 390F0000 		.4byte	.LLST52
 10323 1ffc 36       		.uleb128 0x36
 10324 1ffd 7300     		.ascii	"s\000"
 10325 1fff 01       		.byte	0x1
 10326 2000 E104     		.2byte	0x4e1
 10327 2002 25000000 		.4byte	0x25
 10328 2006 7E0F0000 		.4byte	.LLST53
 10329 200a 35       		.uleb128 0x35
 10330 200b C1030000 		.4byte	.LASF314
 10331 200f 01       		.byte	0x1
 10332 2010 E204     		.2byte	0x4e2
 10333 2012 44150000 		.4byte	0x1544
 10334 2016 B30F0000 		.4byte	.LLST54
 10335 201a 36       		.uleb128 0x36
 10336 201b 73636200 		.ascii	"scb\000"
 10337 201f 01       		.byte	0x1
 10338 2020 E304     		.2byte	0x4e3
 10339 2022 D9140000 		.4byte	0x14d9
 10340 2026 F20F0000 		.4byte	.LLST55
 10341 202a 35       		.uleb128 0x35
 10342 202b 950C0000 		.4byte	.LASF344
 10343 202f 01       		.byte	0x1
 10344 2030 E404     		.2byte	0x4e4
 10345 2032 25000000 		.4byte	0x25
 10346 2036 05100000 		.4byte	.LLST56
 10347 203a 44       		.uleb128 0x44
 10348 203b 89000000 		.4byte	.LASF439
 10349 203f 01       		.byte	0x1
 10350 2040 2905     		.2byte	0x529
 10351 2042 45       		.uleb128 0x45
 10352 2043 38000000 		.4byte	.Ldebug_ranges0+0x38
 10353 2047 6C200000 		.4byte	0x206c
 10354 204b 35       		.uleb128 0x35
 10355 204c 1F040000 		.4byte	.LASF345
 10356 2050 01       		.byte	0x1
 10357 2051 2D05     		.2byte	0x52d
 10358 2053 25000000 		.4byte	0x25
 10359 2057 18100000 		.4byte	.LLST57
 10360 205b 31       		.uleb128 0x31
ARM GAS  C:\Users\jo\AppData\Local\Temp\ccpKXchH.s 			page 190


 10361 205c 6A000000 		.4byte	.LVL229
 10362 2060 98430000 		.4byte	0x4398
 10363 2064 32       		.uleb128 0x32
 10364 2065 01       		.uleb128 0x1
 10365 2066 50       		.byte	0x50
 10366 2067 02       		.uleb128 0x2
 10367 2068 74       		.byte	0x74
 10368 2069 18       		.sleb128 24
 10369 206a 00       		.byte	0
 10370 206b 00       		.byte	0
 10371 206c 37       		.uleb128 0x37
 10372 206d 75150000 		.4byte	0x1575
 10373 2071 EA000000 		.4byte	.LBB113
 10374 2075 22000000 		.4byte	.LBE113-.LBB113
 10375 2079 01       		.byte	0x1
 10376 207a 1905     		.2byte	0x519
 10377 207c 9D200000 		.4byte	0x209d
 10378 2080 2D       		.uleb128 0x2d
 10379 2081 82150000 		.4byte	0x1582
 10380 2085 2C100000 		.4byte	.LLST58
 10381 2089 31       		.uleb128 0x31
 10382 208a F0000000 		.4byte	.LVL237
 10383 208e 87430000 		.4byte	0x4387
 10384 2092 32       		.uleb128 0x32
 10385 2093 01       		.uleb128 0x1
 10386 2094 50       		.byte	0x50
 10387 2095 05       		.uleb128 0x5
 10388 2096 03       		.byte	0x3
 10389 2097 04040000 		.4byte	.LC25
 10390 209b 00       		.byte	0
 10391 209c 00       		.byte	0
 10392 209d 38       		.uleb128 0x38
 10393 209e 18000000 		.4byte	.LVL220
 10394 20a2 50150000 		.4byte	0x1550
 10395 20a6 B1200000 		.4byte	0x20b1
 10396 20aa 32       		.uleb128 0x32
 10397 20ab 01       		.uleb128 0x1
 10398 20ac 50       		.byte	0x50
 10399 20ad 02       		.uleb128 0x2
 10400 20ae 77       		.byte	0x77
 10401 20af 00       		.sleb128 0
 10402 20b0 00       		.byte	0
 10403 20b1 31       		.uleb128 0x31
 10404 20b2 EA000000 		.4byte	.LVL236
 10405 20b6 31160000 		.4byte	0x1631
 10406 20ba 32       		.uleb128 0x32
 10407 20bb 01       		.uleb128 0x1
 10408 20bc 53       		.byte	0x53
 10409 20bd 03       		.uleb128 0x3
 10410 20be 0A       		.byte	0xa
 10411 20bf 1905     		.2byte	0x519
 10412 20c1 32       		.uleb128 0x32
 10413 20c2 01       		.uleb128 0x1
 10414 20c3 52       		.byte	0x52
 10415 20c4 05       		.uleb128 0x5
 10416 20c5 03       		.byte	0x3
 10417 20c6 04040000 		.4byte	.LC25
ARM GAS  C:\Users\jo\AppData\Local\Temp\ccpKXchH.s 			page 191


 10418 20ca 32       		.uleb128 0x32
 10419 20cb 01       		.uleb128 0x1
 10420 20cc 51       		.byte	0x51
 10421 20cd 05       		.uleb128 0x5
 10422 20ce 03       		.byte	0x3
 10423 20cf 08000000 		.4byte	.LC2
 10424 20d3 32       		.uleb128 0x32
 10425 20d4 02       		.uleb128 0x2
 10426 20d5 7D       		.byte	0x7d
 10427 20d6 00       		.sleb128 0
 10428 20d7 05       		.uleb128 0x5
 10429 20d8 03       		.byte	0x3
 10430 20d9 3C000000 		.4byte	.LC4
 10431 20dd 00       		.byte	0
 10432 20de 00       		.byte	0
 10433 20df 3B       		.uleb128 0x3b
 10434 20e0 AD120000 		.4byte	.LASF346
 10435 20e4 01       		.byte	0x1
 10436 20e5 8005     		.2byte	0x580
 10437 20e7 25000000 		.4byte	0x25
 10438 20eb 00000000 		.4byte	.LFB277
 10439 20ef B0000000 		.4byte	.LFE277-.LFB277
 10440 20f3 01       		.uleb128 0x1
 10441 20f4 9C       		.byte	0x9c
 10442 20f5 04220000 		.4byte	0x2204
 10443 20f9 34       		.uleb128 0x34
 10444 20fa 7300     		.ascii	"s\000"
 10445 20fc 01       		.byte	0x1
 10446 20fd 8005     		.2byte	0x580
 10447 20ff 25000000 		.4byte	0x25
 10448 2103 44100000 		.4byte	.LLST59
 10449 2107 3C       		.uleb128 0x3c
 10450 2108 26000000 		.4byte	.LASF347
 10451 210c 01       		.byte	0x1
 10452 210d 8005     		.2byte	0x580
 10453 210f 04220000 		.4byte	0x2204
 10454 2113 62100000 		.4byte	.LLST60
 10455 2117 3C       		.uleb128 0x3c
 10456 2118 50080000 		.4byte	.LASF348
 10457 211c 01       		.byte	0x1
 10458 211d 8005     		.2byte	0x580
 10459 211f 4A150000 		.4byte	0x154a
 10460 2123 80100000 		.4byte	.LLST61
 10461 2127 3C       		.uleb128 0x3c
 10462 2128 66020000 		.4byte	.LASF295
 10463 212c 01       		.byte	0x1
 10464 212d 8005     		.2byte	0x580
 10465 212f 030A0000 		.4byte	0xa03
 10466 2133 9E100000 		.4byte	.LLST62
 10467 2137 35       		.uleb128 0x35
 10468 2138 C1030000 		.4byte	.LASF314
 10469 213c 01       		.byte	0x1
 10470 213d 8205     		.2byte	0x582
 10471 213f 44150000 		.4byte	0x1544
 10472 2143 BF100000 		.4byte	.LLST63
 10473 2147 46       		.uleb128 0x46
 10474 2148 73696E00 		.ascii	"sin\000"
ARM GAS  C:\Users\jo\AppData\Local\Temp\ccpKXchH.s 			page 192


 10475 214c 01       		.byte	0x1
 10476 214d 8305     		.2byte	0x583
 10477 214f 8D0A0000 		.4byte	0xa8d
 10478 2153 02       		.uleb128 0x2
 10479 2154 91       		.byte	0x91
 10480 2155 50       		.sleb128 -48
 10481 2156 3A       		.uleb128 0x3a
 10482 2157 D3110000 		.4byte	.LASF349
 10483 215b 01       		.byte	0x1
 10484 215c 8405     		.2byte	0x584
 10485 215e 690A0000 		.4byte	0xa69
 10486 2162 02       		.uleb128 0x2
 10487 2163 91       		.byte	0x91
 10488 2164 4C       		.sleb128 -52
 10489 2165 38       		.uleb128 0x38
 10490 2166 12000000 		.4byte	.LVL240
 10491 216a 50150000 		.4byte	0x1550
 10492 216e 79210000 		.4byte	0x2179
 10493 2172 32       		.uleb128 0x32
 10494 2173 01       		.uleb128 0x1
 10495 2174 50       		.byte	0x50
 10496 2175 02       		.uleb128 0x2
 10497 2176 78       		.byte	0x78
 10498 2177 00       		.sleb128 0
 10499 2178 00       		.byte	0
 10500 2179 38       		.uleb128 0x38
 10501 217a 3C000000 		.4byte	.LVL242
 10502 217e A9430000 		.4byte	0x43a9
 10503 2182 99210000 		.4byte	0x2199
 10504 2186 32       		.uleb128 0x32
 10505 2187 01       		.uleb128 0x1
 10506 2188 53       		.byte	0x53
 10507 2189 02       		.uleb128 0x2
 10508 218a 79       		.byte	0x79
 10509 218b 00       		.sleb128 0
 10510 218c 32       		.uleb128 0x32
 10511 218d 01       		.uleb128 0x1
 10512 218e 52       		.byte	0x52
 10513 218f 02       		.uleb128 0x2
 10514 2190 91       		.byte	0x91
 10515 2191 52       		.sleb128 -46
 10516 2192 32       		.uleb128 0x32
 10517 2193 01       		.uleb128 0x1
 10518 2194 51       		.byte	0x51
 10519 2195 02       		.uleb128 0x2
 10520 2196 91       		.byte	0x91
 10521 2197 4C       		.sleb128 -52
 10522 2198 00       		.byte	0
 10523 2199 38       		.uleb128 0x38
 10524 219a 46000000 		.4byte	.LVL243
 10525 219e 31160000 		.4byte	0x1631
 10526 21a2 B6210000 		.4byte	0x21b6
 10527 21a6 32       		.uleb128 0x32
 10528 21a7 01       		.uleb128 0x1
 10529 21a8 52       		.byte	0x52
 10530 21a9 02       		.uleb128 0x2
 10531 21aa 78       		.byte	0x78
ARM GAS  C:\Users\jo\AppData\Local\Temp\ccpKXchH.s 			page 193


 10532 21ab 00       		.sleb128 0
 10533 21ac 32       		.uleb128 0x32
 10534 21ad 01       		.uleb128 0x1
 10535 21ae 51       		.byte	0x51
 10536 21af 05       		.uleb128 0x5
 10537 21b0 03       		.byte	0x3
 10538 21b1 14040000 		.4byte	.LC26
 10539 21b5 00       		.byte	0
 10540 21b6 38       		.uleb128 0x38
 10541 21b7 62000000 		.4byte	.LVL244
 10542 21bb 31160000 		.4byte	0x1631
 10543 21bf CD210000 		.4byte	0x21cd
 10544 21c3 32       		.uleb128 0x32
 10545 21c4 01       		.uleb128 0x1
 10546 21c5 51       		.byte	0x51
 10547 21c6 05       		.uleb128 0x5
 10548 21c7 03       		.byte	0x3
 10549 21c8 30040000 		.4byte	.LC27
 10550 21cc 00       		.byte	0
 10551 21cd 38       		.uleb128 0x38
 10552 21ce 6E000000 		.4byte	.LVL245
 10553 21d2 31160000 		.4byte	0x1631
 10554 21d6 E4210000 		.4byte	0x21e4
 10555 21da 32       		.uleb128 0x32
 10556 21db 01       		.uleb128 0x1
 10557 21dc 51       		.byte	0x51
 10558 21dd 05       		.uleb128 0x5
 10559 21de 03       		.byte	0x3
 10560 21df 3C040000 		.4byte	.LC28
 10561 21e3 00       		.byte	0
 10562 21e4 47       		.uleb128 0x47
 10563 21e5 76000000 		.4byte	.LVL246
 10564 21e9 CD430000 		.4byte	0x43cd
 10565 21ed 31       		.uleb128 0x31
 10566 21ee 90000000 		.4byte	.LVL247
 10567 21f2 E2430000 		.4byte	0x43e2
 10568 21f6 32       		.uleb128 0x32
 10569 21f7 01       		.uleb128 0x1
 10570 21f8 51       		.byte	0x51
 10571 21f9 02       		.uleb128 0x2
 10572 21fa 91       		.byte	0x91
 10573 21fb 50       		.sleb128 -48
 10574 21fc 32       		.uleb128 0x32
 10575 21fd 01       		.uleb128 0x1
 10576 21fe 50       		.byte	0x50
 10577 21ff 02       		.uleb128 0x2
 10578 2200 77       		.byte	0x77
 10579 2201 00       		.sleb128 0
 10580 2202 00       		.byte	0
 10581 2203 00       		.byte	0
 10582 2204 0B       		.uleb128 0xb
 10583 2205 04       		.byte	0x4
 10584 2206 D60A0000 		.4byte	0xad6
 10585 220a 48       		.uleb128 0x48
 10586 220b 850D0000 		.4byte	.LASF440
 10587 220f 01       		.byte	0x1
 10588 2210 B8       		.byte	0xb8
ARM GAS  C:\Users\jo\AppData\Local\Temp\ccpKXchH.s 			page 194


 10589 2211 00000000 		.4byte	.LFB256
 10590 2215 02000000 		.4byte	.LFE256-.LFB256
 10591 2219 01       		.uleb128 0x1
 10592 221a 9C       		.byte	0x9c
 10593 221b 49       		.uleb128 0x49
 10594 221c 07130000 		.4byte	.LASF353
 10595 2220 01       		.byte	0x1
 10596 2221 3801     		.2byte	0x138
 10597 2223 25000000 		.4byte	0x25
 10598 2227 00000000 		.4byte	.LFB261
 10599 222b 4C020000 		.4byte	.LFE261-.LFB261
 10600 222f 01       		.uleb128 0x1
 10601 2230 9C       		.byte	0x9c
 10602 2231 C5250000 		.4byte	0x25c5
 10603 2235 34       		.uleb128 0x34
 10604 2236 7300     		.ascii	"s\000"
 10605 2238 01       		.byte	0x1
 10606 2239 3801     		.2byte	0x138
 10607 223b 25000000 		.4byte	0x25
 10608 223f F3100000 		.4byte	.LLST64
 10609 2243 3C       		.uleb128 0x3c
 10610 2244 FB100000 		.4byte	.LASF161
 10611 2248 01       		.byte	0x1
 10612 2249 3801     		.2byte	0x138
 10613 224b 04220000 		.4byte	0x2204
 10614 224f 35110000 		.4byte	.LLST65
 10615 2253 3C       		.uleb128 0x3c
 10616 2254 CB110000 		.4byte	.LASF350
 10617 2258 01       		.byte	0x1
 10618 2259 3801     		.2byte	0x138
 10619 225b 4A150000 		.4byte	0x154a
 10620 225f 6C110000 		.4byte	.LLST66
 10621 2263 35       		.uleb128 0x35
 10622 2264 C1030000 		.4byte	.LASF314
 10623 2268 01       		.byte	0x1
 10624 2269 3A01     		.2byte	0x13a
 10625 226b 44150000 		.4byte	0x1544
 10626 226f D5110000 		.4byte	.LLST67
 10627 2273 35       		.uleb128 0x35
 10628 2274 600B0000 		.4byte	.LASF351
 10629 2278 01       		.byte	0x1
 10630 2279 3A01     		.2byte	0x13a
 10631 227b 44150000 		.4byte	0x1544
 10632 227f 09120000 		.4byte	.LLST68
 10633 2283 3A       		.uleb128 0x3a
 10634 2284 A1110000 		.4byte	.LASF324
 10635 2288 01       		.byte	0x1
 10636 2289 3B01     		.2byte	0x13b
 10637 228b C70C0000 		.4byte	0xcc7
 10638 228f 02       		.uleb128 0x2
 10639 2290 91       		.byte	0x91
 10640 2291 50       		.sleb128 -48
 10641 2292 3A       		.uleb128 0x3a
 10642 2293 D3110000 		.4byte	.LASF349
 10643 2297 01       		.byte	0x1
 10644 2298 3C01     		.2byte	0x13c
 10645 229a 690A0000 		.4byte	0xa69
ARM GAS  C:\Users\jo\AppData\Local\Temp\ccpKXchH.s 			page 195


 10646 229e 02       		.uleb128 0x2
 10647 229f 91       		.byte	0x91
 10648 22a0 54       		.sleb128 -44
 10649 22a1 3A       		.uleb128 0x3a
 10650 22a2 C60E0000 		.4byte	.LASF187
 10651 22a6 01       		.byte	0x1
 10652 22a7 3D01     		.2byte	0x13d
 10653 22a9 190A0000 		.4byte	0xa19
 10654 22ad 02       		.uleb128 0x2
 10655 22ae 91       		.byte	0x91
 10656 22af 4E       		.sleb128 -50
 10657 22b0 35       		.uleb128 0x35
 10658 22b1 23080000 		.4byte	.LASF352
 10659 22b5 01       		.byte	0x1
 10660 22b6 3E01     		.2byte	0x13e
 10661 22b8 25000000 		.4byte	0x25
 10662 22bc 26120000 		.4byte	.LLST69
 10663 22c0 46       		.uleb128 0x46
 10664 22c1 73696E00 		.ascii	"sin\000"
 10665 22c5 01       		.byte	0x1
 10666 22c6 3F01     		.2byte	0x13f
 10667 22c8 8D0A0000 		.4byte	0xa8d
 10668 22cc 02       		.uleb128 0x2
 10669 22cd 91       		.byte	0x91
 10670 22ce 58       		.sleb128 -40
 10671 22cf 36       		.uleb128 0x36
 10672 22d0 65727200 		.ascii	"err\000"
 10673 22d4 01       		.byte	0x1
 10674 22d5 4001     		.2byte	0x140
 10675 22d7 4A0B0000 		.4byte	0xb4a
 10676 22db 5A120000 		.4byte	.LLST70
 10677 22df 37       		.uleb128 0x37
 10678 22e0 75150000 		.4byte	0x1575
 10679 22e4 D2000000 		.4byte	.LBB115
 10680 22e8 06000000 		.4byte	.LBE115-.LBB115
 10681 22ec 01       		.byte	0x1
 10682 22ed 7E01     		.2byte	0x17e
 10683 22ef 10230000 		.4byte	0x2310
 10684 22f3 2D       		.uleb128 0x2d
 10685 22f4 82150000 		.4byte	0x1582
 10686 22f8 99120000 		.4byte	.LLST71
 10687 22fc 31       		.uleb128 0x31
 10688 22fd D8000000 		.4byte	.LVL267
 10689 2301 87430000 		.4byte	0x4387
 10690 2305 32       		.uleb128 0x32
 10691 2306 01       		.uleb128 0x1
 10692 2307 50       		.byte	0x50
 10693 2308 05       		.uleb128 0x5
 10694 2309 03       		.byte	0x3
 10695 230a 10050000 		.4byte	.LC35
 10696 230e 00       		.byte	0
 10697 230f 00       		.byte	0
 10698 2310 37       		.uleb128 0x37
 10699 2311 75150000 		.4byte	0x1575
 10700 2315 F8000000 		.4byte	.LBB117
 10701 2319 0A000000 		.4byte	.LBE117-.LBB117
 10702 231d 01       		.byte	0x1
ARM GAS  C:\Users\jo\AppData\Local\Temp\ccpKXchH.s 			page 196


 10703 231e 7F01     		.2byte	0x17f
 10704 2320 41230000 		.4byte	0x2341
 10705 2324 2D       		.uleb128 0x2d
 10706 2325 82150000 		.4byte	0x1582
 10707 2329 B1120000 		.4byte	.LLST72
 10708 232d 31       		.uleb128 0x31
 10709 232e FE000000 		.4byte	.LVL269
 10710 2332 87430000 		.4byte	0x4387
 10711 2336 32       		.uleb128 0x32
 10712 2337 01       		.uleb128 0x1
 10713 2338 50       		.byte	0x50
 10714 2339 05       		.uleb128 0x5
 10715 233a 03       		.byte	0x3
 10716 233b 28050000 		.4byte	.LC36
 10717 233f 00       		.byte	0
 10718 2340 00       		.byte	0
 10719 2341 37       		.uleb128 0x37
 10720 2342 75150000 		.4byte	0x1575
 10721 2346 8E010000 		.4byte	.LBB119
 10722 234a 0A000000 		.4byte	.LBE119-.LBB119
 10723 234e 01       		.byte	0x1
 10724 234f 5A01     		.2byte	0x15a
 10725 2351 72230000 		.4byte	0x2372
 10726 2355 2D       		.uleb128 0x2d
 10727 2356 82150000 		.4byte	0x1582
 10728 235a C9120000 		.4byte	.LLST73
 10729 235e 31       		.uleb128 0x31
 10730 235f 94010000 		.4byte	.LVL283
 10731 2363 87430000 		.4byte	0x4387
 10732 2367 32       		.uleb128 0x32
 10733 2368 01       		.uleb128 0x1
 10734 2369 50       		.byte	0x50
 10735 236a 05       		.uleb128 0x5
 10736 236b 03       		.byte	0x3
 10737 236c B4040000 		.4byte	.LC32
 10738 2370 00       		.byte	0
 10739 2371 00       		.byte	0
 10740 2372 37       		.uleb128 0x37
 10741 2373 75150000 		.4byte	0x1575
 10742 2377 AA010000 		.4byte	.LBB121
 10743 237b 08000000 		.4byte	.LBE121-.LBB121
 10744 237f 01       		.byte	0x1
 10745 2380 6B01     		.2byte	0x16b
 10746 2382 A3230000 		.4byte	0x23a3
 10747 2386 2D       		.uleb128 0x2d
 10748 2387 82150000 		.4byte	0x1582
 10749 238b E1120000 		.4byte	.LLST74
 10750 238f 31       		.uleb128 0x31
 10751 2390 B0010000 		.4byte	.LVL287
 10752 2394 87430000 		.4byte	0x4387
 10753 2398 32       		.uleb128 0x32
 10754 2399 01       		.uleb128 0x1
 10755 239a 50       		.byte	0x50
 10756 239b 05       		.uleb128 0x5
 10757 239c 03       		.byte	0x3
 10758 239d F4040000 		.4byte	.LC34
 10759 23a1 00       		.byte	0
ARM GAS  C:\Users\jo\AppData\Local\Temp\ccpKXchH.s 			page 197


 10760 23a2 00       		.byte	0
 10761 23a3 38       		.uleb128 0x38
 10762 23a4 16000000 		.4byte	.LVL254
 10763 23a8 31160000 		.4byte	0x1631
 10764 23ac C0230000 		.4byte	0x23c0
 10765 23b0 32       		.uleb128 0x32
 10766 23b1 01       		.uleb128 0x1
 10767 23b2 52       		.byte	0x52
 10768 23b3 02       		.uleb128 0x2
 10769 23b4 77       		.byte	0x77
 10770 23b5 00       		.sleb128 0
 10771 23b6 32       		.uleb128 0x32
 10772 23b7 01       		.uleb128 0x1
 10773 23b8 51       		.byte	0x51
 10774 23b9 05       		.uleb128 0x5
 10775 23ba 03       		.byte	0x3
 10776 23bb 48040000 		.4byte	.LC29
 10777 23bf 00       		.byte	0
 10778 23c0 38       		.uleb128 0x38
 10779 23c1 1C000000 		.4byte	.LVL255
 10780 23c5 50150000 		.4byte	0x1550
 10781 23c9 D4230000 		.4byte	0x23d4
 10782 23cd 32       		.uleb128 0x32
 10783 23ce 01       		.uleb128 0x1
 10784 23cf 50       		.byte	0x50
 10785 23d0 02       		.uleb128 0x2
 10786 23d1 77       		.byte	0x77
 10787 23d2 00       		.sleb128 0
 10788 23d3 00       		.byte	0
 10789 23d4 38       		.uleb128 0x38
 10790 23d5 3C000000 		.4byte	.LVL257
 10791 23d9 FF430000 		.4byte	0x43ff
 10792 23dd E8230000 		.4byte	0x23e8
 10793 23e1 32       		.uleb128 0x32
 10794 23e2 01       		.uleb128 0x1
 10795 23e3 51       		.byte	0x51
 10796 23e4 02       		.uleb128 0x2
 10797 23e5 91       		.byte	0x91
 10798 23e6 50       		.sleb128 -48
 10799 23e7 00       		.byte	0
 10800 23e8 38       		.uleb128 0x38
 10801 23e9 60000000 		.4byte	.LVL259
 10802 23ed A9430000 		.4byte	0x43a9
 10803 23f1 07240000 		.4byte	0x2407
 10804 23f5 32       		.uleb128 0x32
 10805 23f6 01       		.uleb128 0x1
 10806 23f7 53       		.byte	0x53
 10807 23f8 01       		.uleb128 0x1
 10808 23f9 30       		.byte	0x30
 10809 23fa 32       		.uleb128 0x32
 10810 23fb 01       		.uleb128 0x1
 10811 23fc 52       		.byte	0x52
 10812 23fd 02       		.uleb128 0x2
 10813 23fe 91       		.byte	0x91
 10814 23ff 4E       		.sleb128 -50
 10815 2400 32       		.uleb128 0x32
 10816 2401 01       		.uleb128 0x1
ARM GAS  C:\Users\jo\AppData\Local\Temp\ccpKXchH.s 			page 198


 10817 2402 51       		.byte	0x51
 10818 2403 02       		.uleb128 0x2
 10819 2404 91       		.byte	0x91
 10820 2405 54       		.sleb128 -44
 10821 2406 00       		.byte	0
 10822 2407 47       		.uleb128 0x47
 10823 2408 90000000 		.4byte	.LVL261
 10824 240c CD430000 		.4byte	0x43cd
 10825 2410 38       		.uleb128 0x38
 10826 2411 AC000000 		.4byte	.LVL262
 10827 2415 E2430000 		.4byte	0x43e2
 10828 2419 2A240000 		.4byte	0x242a
 10829 241d 32       		.uleb128 0x32
 10830 241e 01       		.uleb128 0x1
 10831 241f 51       		.byte	0x51
 10832 2420 02       		.uleb128 0x2
 10833 2421 91       		.byte	0x91
 10834 2422 58       		.sleb128 -40
 10835 2423 32       		.uleb128 0x32
 10836 2424 01       		.uleb128 0x1
 10837 2425 50       		.byte	0x50
 10838 2426 02       		.uleb128 0x2
 10839 2427 76       		.byte	0x76
 10840 2428 00       		.sleb128 0
 10841 2429 00       		.byte	0
 10842 242a 38       		.uleb128 0x38
 10843 242b B4000000 		.4byte	.LVL263
 10844 242f EC150000 		.4byte	0x15ec
 10845 2433 3D240000 		.4byte	0x243d
 10846 2437 32       		.uleb128 0x32
 10847 2438 01       		.uleb128 0x1
 10848 2439 51       		.byte	0x51
 10849 243a 01       		.uleb128 0x1
 10850 243b 31       		.byte	0x31
 10851 243c 00       		.byte	0
 10852 243d 38       		.uleb128 0x38
 10853 243e D2000000 		.4byte	.LVL266
 10854 2442 31160000 		.4byte	0x1631
 10855 2446 6E240000 		.4byte	0x246e
 10856 244a 32       		.uleb128 0x32
 10857 244b 01       		.uleb128 0x1
 10858 244c 53       		.byte	0x53
 10859 244d 03       		.uleb128 0x3
 10860 244e 0A       		.byte	0xa
 10861 244f 7E01     		.2byte	0x17e
 10862 2451 32       		.uleb128 0x32
 10863 2452 01       		.uleb128 0x1
 10864 2453 52       		.byte	0x52
 10865 2454 05       		.uleb128 0x5
 10866 2455 03       		.byte	0x3
 10867 2456 10050000 		.4byte	.LC35
 10868 245a 32       		.uleb128 0x32
 10869 245b 01       		.uleb128 0x1
 10870 245c 51       		.byte	0x51
 10871 245d 05       		.uleb128 0x5
 10872 245e 03       		.byte	0x3
 10873 245f 08000000 		.4byte	.LC2
ARM GAS  C:\Users\jo\AppData\Local\Temp\ccpKXchH.s 			page 199


 10874 2463 32       		.uleb128 0x32
 10875 2464 02       		.uleb128 0x2
 10876 2465 7D       		.byte	0x7d
 10877 2466 00       		.sleb128 0
 10878 2467 05       		.uleb128 0x5
 10879 2468 03       		.byte	0x3
 10880 2469 3C000000 		.4byte	.LC4
 10881 246d 00       		.byte	0
 10882 246e 38       		.uleb128 0x38
 10883 246f F8000000 		.4byte	.LVL268
 10884 2473 31160000 		.4byte	0x1631
 10885 2477 9F240000 		.4byte	0x249f
 10886 247b 32       		.uleb128 0x32
 10887 247c 01       		.uleb128 0x1
 10888 247d 53       		.byte	0x53
 10889 247e 03       		.uleb128 0x3
 10890 247f 0A       		.byte	0xa
 10891 2480 7F01     		.2byte	0x17f
 10892 2482 32       		.uleb128 0x32
 10893 2483 01       		.uleb128 0x1
 10894 2484 52       		.byte	0x52
 10895 2485 05       		.uleb128 0x5
 10896 2486 03       		.byte	0x3
 10897 2487 28050000 		.4byte	.LC36
 10898 248b 32       		.uleb128 0x32
 10899 248c 01       		.uleb128 0x1
 10900 248d 51       		.byte	0x51
 10901 248e 05       		.uleb128 0x5
 10902 248f 03       		.byte	0x3
 10903 2490 08000000 		.4byte	.LC2
 10904 2494 32       		.uleb128 0x32
 10905 2495 02       		.uleb128 0x2
 10906 2496 7D       		.byte	0x7d
 10907 2497 00       		.sleb128 0
 10908 2498 05       		.uleb128 0x5
 10909 2499 03       		.byte	0x3
 10910 249a 3C000000 		.4byte	.LC4
 10911 249e 00       		.byte	0
 10912 249f 38       		.uleb128 0x38
 10913 24a0 28010000 		.4byte	.LVL273
 10914 24a4 31160000 		.4byte	0x1631
 10915 24a8 C3240000 		.4byte	0x24c3
 10916 24ac 32       		.uleb128 0x32
 10917 24ad 01       		.uleb128 0x1
 10918 24ae 53       		.byte	0x53
 10919 24af 02       		.uleb128 0x2
 10920 24b0 74       		.byte	0x74
 10921 24b1 00       		.sleb128 0
 10922 24b2 32       		.uleb128 0x32
 10923 24b3 01       		.uleb128 0x1
 10924 24b4 52       		.byte	0x52
 10925 24b5 03       		.uleb128 0x3
 10926 24b6 F3       		.byte	0xf3
 10927 24b7 01       		.uleb128 0x1
 10928 24b8 50       		.byte	0x50
 10929 24b9 32       		.uleb128 0x32
 10930 24ba 01       		.uleb128 0x1
ARM GAS  C:\Users\jo\AppData\Local\Temp\ccpKXchH.s 			page 200


 10931 24bb 51       		.byte	0x51
 10932 24bc 05       		.uleb128 0x5
 10933 24bd 03       		.byte	0x3
 10934 24be 4C050000 		.4byte	.LC37
 10935 24c2 00       		.byte	0
 10936 24c3 38       		.uleb128 0x38
 10937 24c4 44010000 		.4byte	.LVL274
 10938 24c8 31160000 		.4byte	0x1631
 10939 24cc DA240000 		.4byte	0x24da
 10940 24d0 32       		.uleb128 0x32
 10941 24d1 01       		.uleb128 0x1
 10942 24d2 51       		.byte	0x51
 10943 24d3 05       		.uleb128 0x5
 10944 24d4 03       		.byte	0x3
 10945 24d5 30040000 		.4byte	.LC27
 10946 24d9 00       		.byte	0
 10947 24da 38       		.uleb128 0x38
 10948 24db 50010000 		.4byte	.LVL275
 10949 24df 31160000 		.4byte	0x1631
 10950 24e3 F1240000 		.4byte	0x24f1
 10951 24e7 32       		.uleb128 0x32
 10952 24e8 01       		.uleb128 0x1
 10953 24e9 51       		.byte	0x51
 10954 24ea 05       		.uleb128 0x5
 10955 24eb 03       		.byte	0x3
 10956 24ec 78050000 		.4byte	.LC38
 10957 24f0 00       		.byte	0
 10958 24f1 38       		.uleb128 0x38
 10959 24f2 68010000 		.4byte	.LVL279
 10960 24f6 31160000 		.4byte	0x1631
 10961 24fa 14250000 		.4byte	0x2514
 10962 24fe 32       		.uleb128 0x32
 10963 24ff 01       		.uleb128 0x1
 10964 2500 53       		.byte	0x53
 10965 2501 02       		.uleb128 0x2
 10966 2502 78       		.byte	0x78
 10967 2503 00       		.sleb128 0
 10968 2504 32       		.uleb128 0x32
 10969 2505 01       		.uleb128 0x1
 10970 2506 52       		.byte	0x52
 10971 2507 02       		.uleb128 0x2
 10972 2508 77       		.byte	0x77
 10973 2509 00       		.sleb128 0
 10974 250a 32       		.uleb128 0x32
 10975 250b 01       		.uleb128 0x1
 10976 250c 51       		.byte	0x51
 10977 250d 05       		.uleb128 0x5
 10978 250e 03       		.byte	0x3
 10979 250f 84040000 		.4byte	.LC31
 10980 2513 00       		.byte	0
 10981 2514 38       		.uleb128 0x38
 10982 2515 8E010000 		.4byte	.LVL282
 10983 2519 31160000 		.4byte	0x1631
 10984 251d 45250000 		.4byte	0x2545
 10985 2521 32       		.uleb128 0x32
 10986 2522 01       		.uleb128 0x1
 10987 2523 53       		.byte	0x53
ARM GAS  C:\Users\jo\AppData\Local\Temp\ccpKXchH.s 			page 201


 10988 2524 03       		.uleb128 0x3
 10989 2525 0A       		.byte	0xa
 10990 2526 5A01     		.2byte	0x15a
 10991 2528 32       		.uleb128 0x32
 10992 2529 01       		.uleb128 0x1
 10993 252a 52       		.byte	0x52
 10994 252b 05       		.uleb128 0x5
 10995 252c 03       		.byte	0x3
 10996 252d B4040000 		.4byte	.LC32
 10997 2531 32       		.uleb128 0x32
 10998 2532 01       		.uleb128 0x1
 10999 2533 51       		.byte	0x51
 11000 2534 05       		.uleb128 0x5
 11001 2535 03       		.byte	0x3
 11002 2536 08000000 		.4byte	.LC2
 11003 253a 32       		.uleb128 0x32
 11004 253b 02       		.uleb128 0x2
 11005 253c 7D       		.byte	0x7d
 11006 253d 00       		.sleb128 0
 11007 253e 05       		.uleb128 0x5
 11008 253f 03       		.byte	0x3
 11009 2540 3C000000 		.4byte	.LC4
 11010 2544 00       		.byte	0
 11011 2545 38       		.uleb128 0x38
 11012 2546 AA010000 		.4byte	.LVL286
 11013 254a 31160000 		.4byte	0x1631
 11014 254e 76250000 		.4byte	0x2576
 11015 2552 32       		.uleb128 0x32
 11016 2553 01       		.uleb128 0x1
 11017 2554 53       		.byte	0x53
 11018 2555 03       		.uleb128 0x3
 11019 2556 0A       		.byte	0xa
 11020 2557 6B01     		.2byte	0x16b
 11021 2559 32       		.uleb128 0x32
 11022 255a 01       		.uleb128 0x1
 11023 255b 52       		.byte	0x52
 11024 255c 05       		.uleb128 0x5
 11025 255d 03       		.byte	0x3
 11026 255e F4040000 		.4byte	.LC34
 11027 2562 32       		.uleb128 0x32
 11028 2563 01       		.uleb128 0x1
 11029 2564 51       		.byte	0x51
 11030 2565 05       		.uleb128 0x5
 11031 2566 03       		.byte	0x3
 11032 2567 08000000 		.4byte	.LC2
 11033 256b 32       		.uleb128 0x32
 11034 256c 02       		.uleb128 0x2
 11035 256d 7D       		.byte	0x7d
 11036 256e 00       		.sleb128 0
 11037 256f 05       		.uleb128 0x5
 11038 2570 03       		.byte	0x3
 11039 2571 3C000000 		.4byte	.LC4
 11040 2575 00       		.byte	0
 11041 2576 38       		.uleb128 0x38
 11042 2577 BE010000 		.4byte	.LVL290
 11043 257b 31160000 		.4byte	0x1631
 11044 257f 99250000 		.4byte	0x2599
ARM GAS  C:\Users\jo\AppData\Local\Temp\ccpKXchH.s 			page 202


 11045 2583 32       		.uleb128 0x32
 11046 2584 01       		.uleb128 0x1
 11047 2585 53       		.byte	0x53
 11048 2586 02       		.uleb128 0x2
 11049 2587 78       		.byte	0x78
 11050 2588 00       		.sleb128 0
 11051 2589 32       		.uleb128 0x32
 11052 258a 01       		.uleb128 0x1
 11053 258b 52       		.byte	0x52
 11054 258c 02       		.uleb128 0x2
 11055 258d 77       		.byte	0x77
 11056 258e 00       		.sleb128 0
 11057 258f 32       		.uleb128 0x32
 11058 2590 01       		.uleb128 0x1
 11059 2591 51       		.byte	0x51
 11060 2592 05       		.uleb128 0x5
 11061 2593 03       		.byte	0x3
 11062 2594 C4040000 		.4byte	.LC33
 11063 2598 00       		.byte	0
 11064 2599 47       		.uleb128 0x47
 11065 259a C4010000 		.4byte	.LVL291
 11066 259e 1F440000 		.4byte	0x441f
 11067 25a2 47       		.uleb128 0x47
 11068 25a3 EA010000 		.4byte	.LVL296
 11069 25a7 1F440000 		.4byte	0x441f
 11070 25ab 31       		.uleb128 0x31
 11071 25ac FC010000 		.4byte	.LVL298
 11072 25b0 31160000 		.4byte	0x1631
 11073 25b4 32       		.uleb128 0x32
 11074 25b5 01       		.uleb128 0x1
 11075 25b6 52       		.byte	0x52
 11076 25b7 02       		.uleb128 0x2
 11077 25b8 77       		.byte	0x77
 11078 25b9 00       		.sleb128 0
 11079 25ba 32       		.uleb128 0x32
 11080 25bb 01       		.uleb128 0x1
 11081 25bc 51       		.byte	0x51
 11082 25bd 05       		.uleb128 0x5
 11083 25be 03       		.byte	0x3
 11084 25bf 5C040000 		.4byte	.LC30
 11085 25c3 00       		.byte	0
 11086 25c4 00       		.byte	0
 11087 25c5 49       		.uleb128 0x49
 11088 25c6 3A070000 		.4byte	.LASF354
 11089 25ca 01       		.byte	0x1
 11090 25cb 9501     		.2byte	0x195
 11091 25cd 25000000 		.4byte	0x25
 11092 25d1 00000000 		.4byte	.LFB262
 11093 25d5 F8000000 		.4byte	.LFE262-.LFB262
 11094 25d9 01       		.uleb128 0x1
 11095 25da 9C       		.byte	0x9c
 11096 25db 8C270000 		.4byte	0x278c
 11097 25df 34       		.uleb128 0x34
 11098 25e0 7300     		.ascii	"s\000"
 11099 25e2 01       		.byte	0x1
 11100 25e3 9501     		.2byte	0x195
 11101 25e5 25000000 		.4byte	0x25
ARM GAS  C:\Users\jo\AppData\Local\Temp\ccpKXchH.s 			page 203


 11102 25e9 F9120000 		.4byte	.LLST75
 11103 25ed 3C       		.uleb128 0x3c
 11104 25ee 26000000 		.4byte	.LASF347
 11105 25f2 01       		.byte	0x1
 11106 25f3 9501     		.2byte	0x195
 11107 25f5 8C270000 		.4byte	0x278c
 11108 25f9 2D130000 		.4byte	.LLST76
 11109 25fd 3C       		.uleb128 0x3c
 11110 25fe 50080000 		.4byte	.LASF348
 11111 2602 01       		.byte	0x1
 11112 2603 9501     		.2byte	0x195
 11113 2605 170B0000 		.4byte	0xb17
 11114 2609 7D130000 		.4byte	.LLST77
 11115 260d 35       		.uleb128 0x35
 11116 260e C1030000 		.4byte	.LASF314
 11117 2612 01       		.byte	0x1
 11118 2613 9701     		.2byte	0x197
 11119 2615 44150000 		.4byte	0x1544
 11120 2619 9B130000 		.4byte	.LLST78
 11121 261d 3A       		.uleb128 0x3a
 11122 261e 88050000 		.4byte	.LASF355
 11123 2622 01       		.byte	0x1
 11124 2623 9801     		.2byte	0x198
 11125 2625 690A0000 		.4byte	0xa69
 11126 2629 02       		.uleb128 0x2
 11127 262a 91       		.byte	0x91
 11128 262b 64       		.sleb128 -28
 11129 262c 35       		.uleb128 0x35
 11130 262d 99040000 		.4byte	.LASF228
 11131 2631 01       		.byte	0x1
 11132 2632 9901     		.2byte	0x199
 11133 2634 190A0000 		.4byte	0xa19
 11134 2638 E5130000 		.4byte	.LLST79
 11135 263c 36       		.uleb128 0x36
 11136 263d 65727200 		.ascii	"err\000"
 11137 2641 01       		.byte	0x1
 11138 2642 9A01     		.2byte	0x19a
 11139 2644 4A0B0000 		.4byte	0xb4a
 11140 2648 03140000 		.4byte	.LLST80
 11141 264c 35       		.uleb128 0x35
 11142 264d 500A0000 		.4byte	.LASF356
 11143 2651 01       		.byte	0x1
 11144 2652 9B01     		.2byte	0x19b
 11145 2654 97270000 		.4byte	0x2797
 11146 2658 16140000 		.4byte	.LLST81
 11147 265c 37       		.uleb128 0x37
 11148 265d 75150000 		.4byte	0x1575
 11149 2661 98000000 		.4byte	.LBB123
 11150 2665 06000000 		.4byte	.LBE123-.LBB123
 11151 2669 01       		.byte	0x1
 11152 266a A301     		.2byte	0x1a3
 11153 266c 8D260000 		.4byte	0x268d
 11154 2670 2D       		.uleb128 0x2d
 11155 2671 82150000 		.4byte	0x1582
 11156 2675 45140000 		.4byte	.LLST82
 11157 2679 31       		.uleb128 0x31
 11158 267a 9E000000 		.4byte	.LVL317
ARM GAS  C:\Users\jo\AppData\Local\Temp\ccpKXchH.s 			page 204


 11159 267e 87430000 		.4byte	0x4387
 11160 2682 32       		.uleb128 0x32
 11161 2683 01       		.uleb128 0x1
 11162 2684 50       		.byte	0x50
 11163 2685 05       		.uleb128 0x5
 11164 2686 03       		.byte	0x3
 11165 2687 84050000 		.4byte	.LC39
 11166 268b 00       		.byte	0
 11167 268c 00       		.byte	0
 11168 268d 38       		.uleb128 0x38
 11169 268e 0E000000 		.4byte	.LVL300
 11170 2692 50150000 		.4byte	0x1550
 11171 2696 A1260000 		.4byte	0x26a1
 11172 269a 32       		.uleb128 0x32
 11173 269b 01       		.uleb128 0x1
 11174 269c 50       		.byte	0x50
 11175 269d 02       		.uleb128 0x2
 11176 269e 76       		.byte	0x76
 11177 269f 00       		.sleb128 0
 11178 26a0 00       		.byte	0
 11179 26a1 38       		.uleb128 0x38
 11180 26a2 32000000 		.4byte	.LVL304
 11181 26a6 31160000 		.4byte	0x1631
 11182 26aa BE260000 		.4byte	0x26be
 11183 26ae 32       		.uleb128 0x32
 11184 26af 01       		.uleb128 0x1
 11185 26b0 52       		.byte	0x52
 11186 26b1 02       		.uleb128 0x2
 11187 26b2 76       		.byte	0x76
 11188 26b3 00       		.sleb128 0
 11189 26b4 32       		.uleb128 0x32
 11190 26b5 01       		.uleb128 0x1
 11191 26b6 51       		.byte	0x51
 11192 26b7 05       		.uleb128 0x5
 11193 26b8 03       		.byte	0x3
 11194 26b9 A0050000 		.4byte	.LC40
 11195 26bd 00       		.byte	0
 11196 26be 38       		.uleb128 0x38
 11197 26bf 4E000000 		.4byte	.LVL305
 11198 26c3 31160000 		.4byte	0x1631
 11199 26c7 D5260000 		.4byte	0x26d5
 11200 26cb 32       		.uleb128 0x32
 11201 26cc 01       		.uleb128 0x1
 11202 26cd 51       		.byte	0x51
 11203 26ce 05       		.uleb128 0x5
 11204 26cf 03       		.byte	0x3
 11205 26d0 30040000 		.4byte	.LC27
 11206 26d4 00       		.byte	0
 11207 26d5 38       		.uleb128 0x38
 11208 26d6 54000000 		.4byte	.LVL306
 11209 26da 34440000 		.4byte	0x4434
 11210 26de E9260000 		.4byte	0x26e9
 11211 26e2 32       		.uleb128 0x32
 11212 26e3 01       		.uleb128 0x1
 11213 26e4 50       		.byte	0x50
 11214 26e5 02       		.uleb128 0x2
 11215 26e6 74       		.byte	0x74
ARM GAS  C:\Users\jo\AppData\Local\Temp\ccpKXchH.s 			page 205


 11216 26e7 00       		.sleb128 0
 11217 26e8 00       		.byte	0
 11218 26e9 38       		.uleb128 0x38
 11219 26ea 5E000000 		.4byte	.LVL307
 11220 26ee 31160000 		.4byte	0x1631
 11221 26f2 00270000 		.4byte	0x2700
 11222 26f6 32       		.uleb128 0x32
 11223 26f7 01       		.uleb128 0x1
 11224 26f8 51       		.byte	0x51
 11225 26f9 05       		.uleb128 0x5
 11226 26fa 03       		.byte	0x3
 11227 26fb 3C040000 		.4byte	.LC28
 11228 26ff 00       		.byte	0
 11229 2700 47       		.uleb128 0x47
 11230 2701 66000000 		.4byte	.LVL309
 11231 2705 34440000 		.4byte	0x4434
 11232 2709 38       		.uleb128 0x38
 11233 270a 70000000 		.4byte	.LVL310
 11234 270e 49440000 		.4byte	0x4449
 11235 2712 23270000 		.4byte	0x2723
 11236 2716 32       		.uleb128 0x32
 11237 2717 01       		.uleb128 0x1
 11238 2718 51       		.byte	0x51
 11239 2719 02       		.uleb128 0x2
 11240 271a 91       		.byte	0x91
 11241 271b 64       		.sleb128 -28
 11242 271c 32       		.uleb128 0x32
 11243 271d 01       		.uleb128 0x1
 11244 271e 50       		.byte	0x50
 11245 271f 02       		.uleb128 0x2
 11246 2720 74       		.byte	0x74
 11247 2721 00       		.sleb128 0
 11248 2722 00       		.byte	0
 11249 2723 38       		.uleb128 0x38
 11250 2724 7E000000 		.4byte	.LVL312
 11251 2728 31160000 		.4byte	0x1631
 11252 272c 40270000 		.4byte	0x2740
 11253 2730 32       		.uleb128 0x32
 11254 2731 01       		.uleb128 0x1
 11255 2732 52       		.byte	0x52
 11256 2733 02       		.uleb128 0x2
 11257 2734 76       		.byte	0x76
 11258 2735 00       		.sleb128 0
 11259 2736 32       		.uleb128 0x32
 11260 2737 01       		.uleb128 0x1
 11261 2738 51       		.byte	0x51
 11262 2739 05       		.uleb128 0x5
 11263 273a 03       		.byte	0x3
 11264 273b D4050000 		.4byte	.LC42
 11265 273f 00       		.byte	0
 11266 2740 38       		.uleb128 0x38
 11267 2741 98000000 		.4byte	.LVL316
 11268 2745 31160000 		.4byte	0x1631
 11269 2749 71270000 		.4byte	0x2771
 11270 274d 32       		.uleb128 0x32
 11271 274e 01       		.uleb128 0x1
 11272 274f 53       		.byte	0x53
ARM GAS  C:\Users\jo\AppData\Local\Temp\ccpKXchH.s 			page 206


 11273 2750 03       		.uleb128 0x3
 11274 2751 0A       		.byte	0xa
 11275 2752 A501     		.2byte	0x1a5
 11276 2754 32       		.uleb128 0x32
 11277 2755 01       		.uleb128 0x1
 11278 2756 52       		.byte	0x52
 11279 2757 05       		.uleb128 0x5
 11280 2758 03       		.byte	0x3
 11281 2759 84050000 		.4byte	.LC39
 11282 275d 32       		.uleb128 0x32
 11283 275e 01       		.uleb128 0x1
 11284 275f 51       		.byte	0x51
 11285 2760 05       		.uleb128 0x5
 11286 2761 03       		.byte	0x3
 11287 2762 08000000 		.4byte	.LC2
 11288 2766 32       		.uleb128 0x32
 11289 2767 02       		.uleb128 0x2
 11290 2768 7D       		.byte	0x7d
 11291 2769 00       		.sleb128 0
 11292 276a 05       		.uleb128 0x5
 11293 276b 03       		.byte	0x3
 11294 276c 3C000000 		.4byte	.LC4
 11295 2770 00       		.byte	0
 11296 2771 31       		.uleb128 0x31
 11297 2772 B4000000 		.4byte	.LVL319
 11298 2776 31160000 		.4byte	0x1631
 11299 277a 32       		.uleb128 0x32
 11300 277b 01       		.uleb128 0x1
 11301 277c 53       		.byte	0x53
 11302 277d 03       		.uleb128 0x3
 11303 277e 74       		.byte	0x74
 11304 277f 00       		.sleb128 0
 11305 2780 1F       		.byte	0x1f
 11306 2781 32       		.uleb128 0x32
 11307 2782 01       		.uleb128 0x1
 11308 2783 51       		.byte	0x51
 11309 2784 05       		.uleb128 0x5
 11310 2785 03       		.byte	0x3
 11311 2786 B4050000 		.4byte	.LC41
 11312 278a 00       		.byte	0
 11313 278b 00       		.byte	0
 11314 278c 0B       		.uleb128 0xb
 11315 278d 04       		.byte	0x4
 11316 278e 92270000 		.4byte	0x2792
 11317 2792 14       		.uleb128 0x14
 11318 2793 D60A0000 		.4byte	0xad6
 11319 2797 0B       		.uleb128 0xb
 11320 2798 04       		.byte	0x4
 11321 2799 9D270000 		.4byte	0x279d
 11322 279d 14       		.uleb128 0x14
 11323 279e 8D0A0000 		.4byte	0xa8d
 11324 27a2 25       		.uleb128 0x25
 11325 27a3 8F000000 		.4byte	.LASF358
 11326 27a7 01       		.byte	0x1
 11327 27a8 1801     		.2byte	0x118
 11328 27aa 01       		.byte	0x1
 11329 27ab D4270000 		.4byte	0x27d4
ARM GAS  C:\Users\jo\AppData\Local\Temp\ccpKXchH.s 			page 207


 11330 27af 26       		.uleb128 0x26
 11331 27b0 C1030000 		.4byte	.LASF314
 11332 27b4 01       		.byte	0x1
 11333 27b5 1801     		.2byte	0x118
 11334 27b7 44150000 		.4byte	0x1544
 11335 27bb 26       		.uleb128 0x26
 11336 27bc EC070000 		.4byte	.LASF359
 11337 27c0 01       		.byte	0x1
 11338 27c1 1801     		.2byte	0x118
 11339 27c3 25000000 		.4byte	0x25
 11340 27c7 3D       		.uleb128 0x3d
 11341 27c8 BD0E0000 		.4byte	.LASF301
 11342 27cc 01       		.byte	0x1
 11343 27cd 1A01     		.2byte	0x11a
 11344 27cf 76030000 		.4byte	0x376
 11345 27d3 00       		.byte	0
 11346 27d4 49       		.uleb128 0x49
 11347 27d5 660B0000 		.4byte	.LASF360
 11348 27d9 01       		.byte	0x1
 11349 27da BD01     		.2byte	0x1bd
 11350 27dc 25000000 		.4byte	0x25
 11351 27e0 00000000 		.4byte	.LFB263
 11352 27e4 A0000000 		.4byte	.LFE263-.LFB263
 11353 27e8 01       		.uleb128 0x1
 11354 27e9 9C       		.byte	0x9c
 11355 27ea 0A290000 		.4byte	0x290a
 11356 27ee 34       		.uleb128 0x34
 11357 27ef 7300     		.ascii	"s\000"
 11358 27f1 01       		.byte	0x1
 11359 27f2 BD01     		.2byte	0x1bd
 11360 27f4 25000000 		.4byte	0x25
 11361 27f8 5D140000 		.4byte	.LLST83
 11362 27fc 35       		.uleb128 0x35
 11363 27fd C1030000 		.4byte	.LASF314
 11364 2801 01       		.byte	0x1
 11365 2802 BF01     		.2byte	0x1bf
 11366 2804 44150000 		.4byte	0x1544
 11367 2808 94140000 		.4byte	.LLST84
 11368 280c 35       		.uleb128 0x35
 11369 280d EC070000 		.4byte	.LASF359
 11370 2811 01       		.byte	0x1
 11371 2812 C001     		.2byte	0x1c0
 11372 2814 25000000 		.4byte	0x25
 11373 2818 DE140000 		.4byte	.LLST85
 11374 281c 40       		.uleb128 0x40
 11375 281d A2270000 		.4byte	0x27a2
 11376 2821 28000000 		.4byte	.LBB129
 11377 2825 58000000 		.4byte	.Ldebug_ranges0+0x58
 11378 2829 01       		.byte	0x1
 11379 282a D101     		.2byte	0x1d1
 11380 282c 64280000 		.4byte	0x2864
 11381 2830 2D       		.uleb128 0x2d
 11382 2831 BB270000 		.4byte	0x27bb
 11383 2835 28150000 		.4byte	.LLST86
 11384 2839 2D       		.uleb128 0x2d
 11385 283a AF270000 		.4byte	0x27af
 11386 283e 66150000 		.4byte	.LLST87
ARM GAS  C:\Users\jo\AppData\Local\Temp\ccpKXchH.s 			page 208


 11387 2842 3F       		.uleb128 0x3f
 11388 2843 58000000 		.4byte	.Ldebug_ranges0+0x58
 11389 2847 41       		.uleb128 0x41
 11390 2848 C7270000 		.4byte	0x27c7
 11391 284c 8F150000 		.4byte	.LLST88
 11392 2850 47       		.uleb128 0x47
 11393 2851 3E000000 		.4byte	.LVL332
 11394 2855 68440000 		.4byte	0x4468
 11395 2859 47       		.uleb128 0x47
 11396 285a 48000000 		.4byte	.LVL335
 11397 285e 79440000 		.4byte	0x4479
 11398 2862 00       		.byte	0
 11399 2863 00       		.byte	0
 11400 2864 37       		.uleb128 0x37
 11401 2865 75150000 		.4byte	0x1575
 11402 2869 64000000 		.4byte	.LBB134
 11403 286d 08000000 		.4byte	.LBE134-.LBB134
 11404 2871 01       		.byte	0x1
 11405 2872 CC01     		.2byte	0x1cc
 11406 2874 95280000 		.4byte	0x2895
 11407 2878 2D       		.uleb128 0x2d
 11408 2879 82150000 		.4byte	0x1582
 11409 287d B8150000 		.4byte	.LLST89
 11410 2881 31       		.uleb128 0x31
 11411 2882 6A000000 		.4byte	.LVL339
 11412 2886 87430000 		.4byte	0x4387
 11413 288a 32       		.uleb128 0x32
 11414 288b 01       		.uleb128 0x1
 11415 288c 50       		.byte	0x50
 11416 288d 05       		.uleb128 0x5
 11417 288e 03       		.byte	0x3
 11418 288f 00060000 		.4byte	.LC44
 11419 2893 00       		.byte	0
 11420 2894 00       		.byte	0
 11421 2895 38       		.uleb128 0x38
 11422 2896 10000000 		.4byte	.LVL324
 11423 289a 31160000 		.4byte	0x1631
 11424 289e B2280000 		.4byte	0x28b2
 11425 28a2 32       		.uleb128 0x32
 11426 28a3 01       		.uleb128 0x1
 11427 28a4 52       		.byte	0x52
 11428 28a5 02       		.uleb128 0x2
 11429 28a6 74       		.byte	0x74
 11430 28a7 00       		.sleb128 0
 11431 28a8 32       		.uleb128 0x32
 11432 28a9 01       		.uleb128 0x1
 11433 28aa 51       		.byte	0x51
 11434 28ab 05       		.uleb128 0x5
 11435 28ac 03       		.byte	0x3
 11436 28ad F0050000 		.4byte	.LC43
 11437 28b1 00       		.byte	0
 11438 28b2 38       		.uleb128 0x38
 11439 28b3 16000000 		.4byte	.LVL325
 11440 28b7 50150000 		.4byte	0x1550
 11441 28bb C6280000 		.4byte	0x28c6
 11442 28bf 32       		.uleb128 0x32
 11443 28c0 01       		.uleb128 0x1
ARM GAS  C:\Users\jo\AppData\Local\Temp\ccpKXchH.s 			page 209


 11444 28c1 50       		.byte	0x50
 11445 28c2 02       		.uleb128 0x2
 11446 28c3 74       		.byte	0x74
 11447 28c4 00       		.sleb128 0
 11448 28c5 00       		.byte	0
 11449 28c6 47       		.uleb128 0x47
 11450 28c7 28000000 		.4byte	.LVL329
 11451 28cb 1F440000 		.4byte	0x441f
 11452 28cf 38       		.uleb128 0x38
 11453 28d0 64000000 		.4byte	.LVL338
 11454 28d4 31160000 		.4byte	0x1631
 11455 28d8 00290000 		.4byte	0x2900
 11456 28dc 32       		.uleb128 0x32
 11457 28dd 01       		.uleb128 0x1
 11458 28de 53       		.byte	0x53
 11459 28df 03       		.uleb128 0x3
 11460 28e0 0A       		.byte	0xa
 11461 28e1 CC01     		.2byte	0x1cc
 11462 28e3 32       		.uleb128 0x32
 11463 28e4 01       		.uleb128 0x1
 11464 28e5 52       		.byte	0x52
 11465 28e6 05       		.uleb128 0x5
 11466 28e7 03       		.byte	0x3
 11467 28e8 00060000 		.4byte	.LC44
 11468 28ec 32       		.uleb128 0x32
 11469 28ed 01       		.uleb128 0x1
 11470 28ee 51       		.byte	0x51
 11471 28ef 05       		.uleb128 0x5
 11472 28f0 03       		.byte	0x3
 11473 28f1 08000000 		.4byte	.LC2
 11474 28f5 32       		.uleb128 0x32
 11475 28f6 02       		.uleb128 0x2
 11476 28f7 7D       		.byte	0x7d
 11477 28f8 00       		.sleb128 0
 11478 28f9 05       		.uleb128 0x5
 11479 28fa 03       		.byte	0x3
 11480 28fb 3C000000 		.4byte	.LC4
 11481 28ff 00       		.byte	0
 11482 2900 47       		.uleb128 0x47
 11483 2901 72000000 		.4byte	.LVL341
 11484 2905 1F440000 		.4byte	0x441f
 11485 2909 00       		.byte	0
 11486 290a 49       		.uleb128 0x49
 11487 290b AA040000 		.4byte	.LASF361
 11488 290f 01       		.byte	0x1
 11489 2910 D701     		.2byte	0x1d7
 11490 2912 25000000 		.4byte	0x25
 11491 2916 00000000 		.4byte	.LFB264
 11492 291a F8000000 		.4byte	.LFE264-.LFB264
 11493 291e 01       		.uleb128 0x1
 11494 291f 9C       		.byte	0x9c
 11495 2920 DB2A0000 		.4byte	0x2adb
 11496 2924 34       		.uleb128 0x34
 11497 2925 7300     		.ascii	"s\000"
 11498 2927 01       		.byte	0x1
 11499 2928 D701     		.2byte	0x1d7
 11500 292a 25000000 		.4byte	0x25
ARM GAS  C:\Users\jo\AppData\Local\Temp\ccpKXchH.s 			page 210


 11501 292e D0150000 		.4byte	.LLST90
 11502 2932 3C       		.uleb128 0x3c
 11503 2933 26000000 		.4byte	.LASF347
 11504 2937 01       		.byte	0x1
 11505 2938 D701     		.2byte	0x1d7
 11506 293a 8C270000 		.4byte	0x278c
 11507 293e 04160000 		.4byte	.LLST91
 11508 2942 3C       		.uleb128 0x3c
 11509 2943 50080000 		.4byte	.LASF348
 11510 2947 01       		.byte	0x1
 11511 2948 D701     		.2byte	0x1d7
 11512 294a 170B0000 		.4byte	0xb17
 11513 294e 54160000 		.4byte	.LLST92
 11514 2952 35       		.uleb128 0x35
 11515 2953 C1030000 		.4byte	.LASF314
 11516 2957 01       		.byte	0x1
 11517 2958 D901     		.2byte	0x1d9
 11518 295a 44150000 		.4byte	0x1544
 11519 295e 72160000 		.4byte	.LLST93
 11520 2962 36       		.uleb128 0x36
 11521 2963 65727200 		.ascii	"err\000"
 11522 2967 01       		.byte	0x1
 11523 2968 DA01     		.2byte	0x1da
 11524 296a 4A0B0000 		.4byte	0xb4a
 11525 296e BC160000 		.4byte	.LLST94
 11526 2972 35       		.uleb128 0x35
 11527 2973 500A0000 		.4byte	.LASF356
 11528 2977 01       		.byte	0x1
 11529 2978 DB01     		.2byte	0x1db
 11530 297a 97270000 		.4byte	0x2797
 11531 297e CF160000 		.4byte	.LLST95
 11532 2982 3E       		.uleb128 0x3e
 11533 2983 22000000 		.4byte	.LBB137
 11534 2987 4E000000 		.4byte	.LBE137-.LBB137
 11535 298b 2D2A0000 		.4byte	0x2a2d
 11536 298f 3A       		.uleb128 0x3a
 11537 2990 F50B0000 		.4byte	.LASF362
 11538 2994 01       		.byte	0x1
 11539 2995 EC01     		.2byte	0x1ec
 11540 2997 690A0000 		.4byte	0xa69
 11541 299b 02       		.uleb128 0x2
 11542 299c 91       		.byte	0x91
 11543 299d 64       		.sleb128 -28
 11544 299e 35       		.uleb128 0x35
 11545 299f CF0A0000 		.4byte	.LASF229
 11546 29a3 01       		.byte	0x1
 11547 29a4 ED01     		.2byte	0x1ed
 11548 29a6 190A0000 		.4byte	0xa19
 11549 29aa FE160000 		.4byte	.LLST96
 11550 29ae 38       		.uleb128 0x38
 11551 29af 32000000 		.4byte	.LVL350
 11552 29b3 31160000 		.4byte	0x1631
 11553 29b7 CB290000 		.4byte	0x29cb
 11554 29bb 32       		.uleb128 0x32
 11555 29bc 01       		.uleb128 0x1
 11556 29bd 52       		.byte	0x52
 11557 29be 02       		.uleb128 0x2
ARM GAS  C:\Users\jo\AppData\Local\Temp\ccpKXchH.s 			page 211


 11558 29bf 76       		.byte	0x76
 11559 29c0 00       		.sleb128 0
 11560 29c1 32       		.uleb128 0x32
 11561 29c2 01       		.uleb128 0x1
 11562 29c3 51       		.byte	0x51
 11563 29c4 05       		.uleb128 0x5
 11564 29c5 03       		.byte	0x3
 11565 29c6 38060000 		.4byte	.LC46
 11566 29ca 00       		.byte	0
 11567 29cb 38       		.uleb128 0x38
 11568 29cc 4E000000 		.4byte	.LVL351
 11569 29d0 31160000 		.4byte	0x1631
 11570 29d4 E2290000 		.4byte	0x29e2
 11571 29d8 32       		.uleb128 0x32
 11572 29d9 01       		.uleb128 0x1
 11573 29da 51       		.byte	0x51
 11574 29db 05       		.uleb128 0x5
 11575 29dc 03       		.byte	0x3
 11576 29dd 30040000 		.4byte	.LC27
 11577 29e1 00       		.byte	0
 11578 29e2 38       		.uleb128 0x38
 11579 29e3 54000000 		.4byte	.LVL352
 11580 29e7 34440000 		.4byte	0x4434
 11581 29eb F6290000 		.4byte	0x29f6
 11582 29ef 32       		.uleb128 0x32
 11583 29f0 01       		.uleb128 0x1
 11584 29f1 50       		.byte	0x50
 11585 29f2 02       		.uleb128 0x2
 11586 29f3 74       		.byte	0x74
 11587 29f4 00       		.sleb128 0
 11588 29f5 00       		.byte	0
 11589 29f6 38       		.uleb128 0x38
 11590 29f7 5E000000 		.4byte	.LVL353
 11591 29fb 31160000 		.4byte	0x1631
 11592 29ff 0D2A0000 		.4byte	0x2a0d
 11593 2a03 32       		.uleb128 0x32
 11594 2a04 01       		.uleb128 0x1
 11595 2a05 51       		.byte	0x51
 11596 2a06 05       		.uleb128 0x5
 11597 2a07 03       		.byte	0x3
 11598 2a08 3C040000 		.4byte	.LC28
 11599 2a0c 00       		.byte	0
 11600 2a0d 47       		.uleb128 0x47
 11601 2a0e 66000000 		.4byte	.LVL355
 11602 2a12 34440000 		.4byte	0x4434
 11603 2a16 31       		.uleb128 0x31
 11604 2a17 70000000 		.4byte	.LVL356
 11605 2a1b 8E440000 		.4byte	0x448e
 11606 2a1f 32       		.uleb128 0x32
 11607 2a20 01       		.uleb128 0x1
 11608 2a21 51       		.byte	0x51
 11609 2a22 02       		.uleb128 0x2
 11610 2a23 91       		.byte	0x91
 11611 2a24 64       		.sleb128 -28
 11612 2a25 32       		.uleb128 0x32
 11613 2a26 01       		.uleb128 0x1
 11614 2a27 50       		.byte	0x50
ARM GAS  C:\Users\jo\AppData\Local\Temp\ccpKXchH.s 			page 212


 11615 2a28 02       		.uleb128 0x2
 11616 2a29 74       		.byte	0x74
 11617 2a2a 00       		.sleb128 0
 11618 2a2b 00       		.byte	0
 11619 2a2c 00       		.byte	0
 11620 2a2d 37       		.uleb128 0x37
 11621 2a2e 75150000 		.4byte	0x1575
 11622 2a32 98000000 		.4byte	.LBB138
 11623 2a36 06000000 		.4byte	.LBE138-.LBB138
 11624 2a3a 01       		.byte	0x1
 11625 2a3b E301     		.2byte	0x1e3
 11626 2a3d 5E2A0000 		.4byte	0x2a5e
 11627 2a41 2D       		.uleb128 0x2d
 11628 2a42 82150000 		.4byte	0x1582
 11629 2a46 1C170000 		.4byte	.LLST97
 11630 2a4a 31       		.uleb128 0x31
 11631 2a4b 9E000000 		.4byte	.LVL363
 11632 2a4f 87430000 		.4byte	0x4387
 11633 2a53 32       		.uleb128 0x32
 11634 2a54 01       		.uleb128 0x1
 11635 2a55 50       		.byte	0x50
 11636 2a56 05       		.uleb128 0x5
 11637 2a57 03       		.byte	0x3
 11638 2a58 18060000 		.4byte	.LC45
 11639 2a5c 00       		.byte	0
 11640 2a5d 00       		.byte	0
 11641 2a5e 38       		.uleb128 0x38
 11642 2a5f 0E000000 		.4byte	.LVL346
 11643 2a63 50150000 		.4byte	0x1550
 11644 2a67 722A0000 		.4byte	0x2a72
 11645 2a6b 32       		.uleb128 0x32
 11646 2a6c 01       		.uleb128 0x1
 11647 2a6d 50       		.byte	0x50
 11648 2a6e 02       		.uleb128 0x2
 11649 2a6f 76       		.byte	0x76
 11650 2a70 00       		.sleb128 0
 11651 2a71 00       		.byte	0
 11652 2a72 38       		.uleb128 0x38
 11653 2a73 7E000000 		.4byte	.LVL358
 11654 2a77 31160000 		.4byte	0x1631
 11655 2a7b 8F2A0000 		.4byte	0x2a8f
 11656 2a7f 32       		.uleb128 0x32
 11657 2a80 01       		.uleb128 0x1
 11658 2a81 52       		.byte	0x52
 11659 2a82 02       		.uleb128 0x2
 11660 2a83 76       		.byte	0x76
 11661 2a84 00       		.sleb128 0
 11662 2a85 32       		.uleb128 0x32
 11663 2a86 01       		.uleb128 0x1
 11664 2a87 51       		.byte	0x51
 11665 2a88 05       		.uleb128 0x5
 11666 2a89 03       		.byte	0x3
 11667 2a8a 74060000 		.4byte	.LC48
 11668 2a8e 00       		.byte	0
 11669 2a8f 38       		.uleb128 0x38
 11670 2a90 98000000 		.4byte	.LVL362
 11671 2a94 31160000 		.4byte	0x1631
ARM GAS  C:\Users\jo\AppData\Local\Temp\ccpKXchH.s 			page 213


 11672 2a98 C02A0000 		.4byte	0x2ac0
 11673 2a9c 32       		.uleb128 0x32
 11674 2a9d 01       		.uleb128 0x1
 11675 2a9e 53       		.byte	0x53
 11676 2a9f 03       		.uleb128 0x3
 11677 2aa0 0A       		.byte	0xa
 11678 2aa1 E501     		.2byte	0x1e5
 11679 2aa3 32       		.uleb128 0x32
 11680 2aa4 01       		.uleb128 0x1
 11681 2aa5 52       		.byte	0x52
 11682 2aa6 05       		.uleb128 0x5
 11683 2aa7 03       		.byte	0x3
 11684 2aa8 18060000 		.4byte	.LC45
 11685 2aac 32       		.uleb128 0x32
 11686 2aad 01       		.uleb128 0x1
 11687 2aae 51       		.byte	0x51
 11688 2aaf 05       		.uleb128 0x5
 11689 2ab0 03       		.byte	0x3
 11690 2ab1 08000000 		.4byte	.LC2
 11691 2ab5 32       		.uleb128 0x32
 11692 2ab6 02       		.uleb128 0x2
 11693 2ab7 7D       		.byte	0x7d
 11694 2ab8 00       		.sleb128 0
 11695 2ab9 05       		.uleb128 0x5
 11696 2aba 03       		.byte	0x3
 11697 2abb 3C000000 		.4byte	.LC4
 11698 2abf 00       		.byte	0
 11699 2ac0 31       		.uleb128 0x31
 11700 2ac1 B4000000 		.4byte	.LVL365
 11701 2ac5 31160000 		.4byte	0x1631
 11702 2ac9 32       		.uleb128 0x32
 11703 2aca 01       		.uleb128 0x1
 11704 2acb 53       		.byte	0x53
 11705 2acc 03       		.uleb128 0x3
 11706 2acd 74       		.byte	0x74
 11707 2ace 00       		.sleb128 0
 11708 2acf 1F       		.byte	0x1f
 11709 2ad0 32       		.uleb128 0x32
 11710 2ad1 01       		.uleb128 0x1
 11711 2ad2 51       		.byte	0x51
 11712 2ad3 05       		.uleb128 0x5
 11713 2ad4 03       		.byte	0x3
 11714 2ad5 50060000 		.4byte	.LC47
 11715 2ad9 00       		.byte	0
 11716 2ada 00       		.byte	0
 11717 2adb 49       		.uleb128 0x49
 11718 2adc 2D120000 		.4byte	.LASF363
 11719 2ae0 01       		.byte	0x1
 11720 2ae1 0D02     		.2byte	0x20d
 11721 2ae3 25000000 		.4byte	0x25
 11722 2ae7 00000000 		.4byte	.LFB265
 11723 2aeb 7C000000 		.4byte	.LFE265-.LFB265
 11724 2aef 01       		.uleb128 0x1
 11725 2af0 9C       		.byte	0x9c
 11726 2af1 932B0000 		.4byte	0x2b93
 11727 2af5 34       		.uleb128 0x34
 11728 2af6 7300     		.ascii	"s\000"
ARM GAS  C:\Users\jo\AppData\Local\Temp\ccpKXchH.s 			page 214


 11729 2af8 01       		.byte	0x1
 11730 2af9 0D02     		.2byte	0x20d
 11731 2afb 25000000 		.4byte	0x25
 11732 2aff 34170000 		.4byte	.LLST98
 11733 2b03 3C       		.uleb128 0x3c
 11734 2b04 260E0000 		.4byte	.LASF364
 11735 2b08 01       		.byte	0x1
 11736 2b09 0D02     		.2byte	0x20d
 11737 2b0b 25000000 		.4byte	0x25
 11738 2b0f 6B170000 		.4byte	.LLST99
 11739 2b13 35       		.uleb128 0x35
 11740 2b14 C1030000 		.4byte	.LASF314
 11741 2b18 01       		.byte	0x1
 11742 2b19 0F02     		.2byte	0x20f
 11743 2b1b 44150000 		.4byte	0x1544
 11744 2b1f 9F170000 		.4byte	.LLST100
 11745 2b23 36       		.uleb128 0x36
 11746 2b24 65727200 		.ascii	"err\000"
 11747 2b28 01       		.byte	0x1
 11748 2b29 1002     		.2byte	0x210
 11749 2b2b 4A0B0000 		.4byte	0xb4a
 11750 2b2f D3170000 		.4byte	.LLST101
 11751 2b33 38       		.uleb128 0x38
 11752 2b34 12000000 		.4byte	.LVL371
 11753 2b38 31160000 		.4byte	0x1631
 11754 2b3c 562B0000 		.4byte	0x2b56
 11755 2b40 32       		.uleb128 0x32
 11756 2b41 01       		.uleb128 0x1
 11757 2b42 53       		.byte	0x53
 11758 2b43 02       		.uleb128 0x2
 11759 2b44 74       		.byte	0x74
 11760 2b45 00       		.sleb128 0
 11761 2b46 32       		.uleb128 0x32
 11762 2b47 01       		.uleb128 0x1
 11763 2b48 52       		.byte	0x52
 11764 2b49 02       		.uleb128 0x2
 11765 2b4a 76       		.byte	0x76
 11766 2b4b 00       		.sleb128 0
 11767 2b4c 32       		.uleb128 0x32
 11768 2b4d 01       		.uleb128 0x1
 11769 2b4e 51       		.byte	0x51
 11770 2b4f 05       		.uleb128 0x5
 11771 2b50 03       		.byte	0x3
 11772 2b51 90060000 		.4byte	.LC49
 11773 2b55 00       		.byte	0
 11774 2b56 38       		.uleb128 0x38
 11775 2b57 18000000 		.4byte	.LVL372
 11776 2b5b 50150000 		.4byte	0x1550
 11777 2b5f 6A2B0000 		.4byte	0x2b6a
 11778 2b63 32       		.uleb128 0x32
 11779 2b64 01       		.uleb128 0x1
 11780 2b65 50       		.byte	0x50
 11781 2b66 02       		.uleb128 0x2
 11782 2b67 76       		.byte	0x76
 11783 2b68 00       		.sleb128 0
 11784 2b69 00       		.byte	0
 11785 2b6a 47       		.uleb128 0x47
ARM GAS  C:\Users\jo\AppData\Local\Temp\ccpKXchH.s 			page 215


 11786 2b6b 2E000000 		.4byte	.LVL375
 11787 2b6f AD440000 		.4byte	0x44ad
 11788 2b73 31       		.uleb128 0x31
 11789 2b74 42000000 		.4byte	.LVL378
 11790 2b78 31160000 		.4byte	0x1631
 11791 2b7c 32       		.uleb128 0x32
 11792 2b7d 01       		.uleb128 0x1
 11793 2b7e 53       		.byte	0x53
 11794 2b7f 02       		.uleb128 0x2
 11795 2b80 74       		.byte	0x74
 11796 2b81 00       		.sleb128 0
 11797 2b82 32       		.uleb128 0x32
 11798 2b83 01       		.uleb128 0x1
 11799 2b84 52       		.byte	0x52
 11800 2b85 02       		.uleb128 0x2
 11801 2b86 76       		.byte	0x76
 11802 2b87 00       		.sleb128 0
 11803 2b88 32       		.uleb128 0x32
 11804 2b89 01       		.uleb128 0x1
 11805 2b8a 51       		.byte	0x51
 11806 2b8b 05       		.uleb128 0x5
 11807 2b8c 03       		.byte	0x3
 11808 2b8d B0060000 		.4byte	.LC50
 11809 2b91 00       		.byte	0
 11810 2b92 00       		.byte	0
 11811 2b93 49       		.uleb128 0x49
 11812 2b94 AA010000 		.4byte	.LASF365
 11813 2b98 01       		.byte	0x1
 11814 2b99 2D02     		.2byte	0x22d
 11815 2b9b 25000000 		.4byte	0x25
 11816 2b9f 00000000 		.4byte	.LFB266
 11817 2ba3 AC030000 		.4byte	.LFE266-.LFB266
 11818 2ba7 01       		.uleb128 0x1
 11819 2ba8 9C       		.byte	0x9c
 11820 2ba9 15300000 		.4byte	0x3015
 11821 2bad 34       		.uleb128 0x34
 11822 2bae 7300     		.ascii	"s\000"
 11823 2bb0 01       		.byte	0x1
 11824 2bb1 2D02     		.2byte	0x22d
 11825 2bb3 25000000 		.4byte	0x25
 11826 2bb7 E6170000 		.4byte	.LLST102
 11827 2bbb 34       		.uleb128 0x34
 11828 2bbc 6D656D00 		.ascii	"mem\000"
 11829 2bc0 01       		.byte	0x1
 11830 2bc1 2D02     		.2byte	0x22d
 11831 2bc3 76030000 		.4byte	0x376
 11832 2bc7 1C180000 		.4byte	.LLST103
 11833 2bcb 34       		.uleb128 0x34
 11834 2bcc 6C656E00 		.ascii	"len\000"
 11835 2bd0 01       		.byte	0x1
 11836 2bd1 2D02     		.2byte	0x22d
 11837 2bd3 2C000000 		.4byte	0x2c
 11838 2bd7 47180000 		.4byte	.LLST104
 11839 2bdb 3C       		.uleb128 0x3c
 11840 2bdc 9A010000 		.4byte	.LASF185
 11841 2be0 01       		.byte	0x1
 11842 2be1 2D02     		.2byte	0x22d
ARM GAS  C:\Users\jo\AppData\Local\Temp\ccpKXchH.s 			page 216


 11843 2be3 25000000 		.4byte	0x25
 11844 2be7 80180000 		.4byte	.LLST105
 11845 2beb 3C       		.uleb128 0x3c
 11846 2bec 2B000000 		.4byte	.LASF366
 11847 2bf0 01       		.byte	0x1
 11848 2bf1 2E02     		.2byte	0x22e
 11849 2bf3 04220000 		.4byte	0x2204
 11850 2bf7 9E180000 		.4byte	.LLST106
 11851 2bfb 3C       		.uleb128 0x3c
 11852 2bfc 160D0000 		.4byte	.LASF367
 11853 2c00 01       		.byte	0x1
 11854 2c01 2E02     		.2byte	0x22e
 11855 2c03 4A150000 		.4byte	0x154a
 11856 2c07 BE180000 		.4byte	.LLST107
 11857 2c0b 35       		.uleb128 0x35
 11858 2c0c C1030000 		.4byte	.LASF314
 11859 2c10 01       		.byte	0x1
 11860 2c11 3002     		.2byte	0x230
 11861 2c13 44150000 		.4byte	0x1544
 11862 2c17 DE180000 		.4byte	.LLST108
 11863 2c1b 46       		.uleb128 0x46
 11864 2c1c 62756600 		.ascii	"buf\000"
 11865 2c20 01       		.byte	0x1
 11866 2c21 3102     		.2byte	0x231
 11867 2c23 76030000 		.4byte	0x376
 11868 2c27 02       		.uleb128 0x2
 11869 2c28 91       		.byte	0x91
 11870 2c29 40       		.sleb128 -64
 11871 2c2a 36       		.uleb128 0x36
 11872 2c2b 7000     		.ascii	"p\000"
 11873 2c2d 01       		.byte	0x1
 11874 2c2e 3202     		.2byte	0x232
 11875 2c30 B60B0000 		.4byte	0xbb6
 11876 2c34 12190000 		.4byte	.LLST109
 11877 2c38 35       		.uleb128 0x35
 11878 2c39 93050000 		.4byte	.LASF368
 11879 2c3d 01       		.byte	0x1
 11880 2c3e 3302     		.2byte	0x233
 11881 2c40 190A0000 		.4byte	0xa19
 11882 2c44 46190000 		.4byte	.LLST110
 11883 2c48 35       		.uleb128 0x35
 11884 2c49 C7040000 		.4byte	.LASF369
 11885 2c4d 01       		.byte	0x1
 11886 2c4e 3302     		.2byte	0x233
 11887 2c50 190A0000 		.4byte	0xa19
 11888 2c54 90190000 		.4byte	.LLST111
 11889 2c58 36       		.uleb128 0x36
 11890 2c59 6F666600 		.ascii	"off\000"
 11891 2c5d 01       		.byte	0x1
 11892 2c5e 3402     		.2byte	0x234
 11893 2c60 25000000 		.4byte	0x25
 11894 2c64 CF190000 		.4byte	.LLST112
 11895 2c68 35       		.uleb128 0x35
 11896 2c69 FB100000 		.4byte	.LASF161
 11897 2c6d 01       		.byte	0x1
 11898 2c6e 3502     		.2byte	0x235
 11899 2c70 7E110000 		.4byte	0x117e
ARM GAS  C:\Users\jo\AppData\Local\Temp\ccpKXchH.s 			page 217


 11900 2c74 101A0000 		.4byte	.LLST113
 11901 2c78 3A       		.uleb128 0x3a
 11902 2c79 C60E0000 		.4byte	.LASF187
 11903 2c7d 01       		.byte	0x1
 11904 2c7e 3602     		.2byte	0x236
 11905 2c80 190A0000 		.4byte	0xa19
 11906 2c84 03       		.uleb128 0x3
 11907 2c85 91       		.byte	0x91
 11908 2c86 BE7F     		.sleb128 -66
 11909 2c88 35       		.uleb128 0x35
 11910 2c89 8D0B0000 		.4byte	.LASF370
 11911 2c8d 01       		.byte	0x1
 11912 2c8e 3702     		.2byte	0x237
 11913 2c90 030A0000 		.4byte	0xa03
 11914 2c94 B31A0000 		.4byte	.LLST114
 11915 2c98 36       		.uleb128 0x36
 11916 2c99 65727200 		.ascii	"err\000"
 11917 2c9d 01       		.byte	0x1
 11918 2c9e 3802     		.2byte	0x238
 11919 2ca0 4A0B0000 		.4byte	0xb4a
 11920 2ca4 331B0000 		.4byte	.LLST115
 11921 2ca8 45       		.uleb128 0x45
 11922 2ca9 78000000 		.4byte	.Ldebug_ranges0+0x78
 11923 2cad C72D0000 		.4byte	0x2dc7
 11924 2cb1 3A       		.uleb128 0x3a
 11925 2cb2 C6100000 		.4byte	.LASF371
 11926 2cb6 01       		.byte	0x1
 11927 2cb7 9B02     		.2byte	0x29b
 11928 2cb9 690A0000 		.4byte	0xa69
 11929 2cbd 02       		.uleb128 0x2
 11930 2cbe 91       		.byte	0x91
 11931 2cbf 44       		.sleb128 -60
 11932 2cc0 45       		.uleb128 0x45
 11933 2cc1 A8000000 		.4byte	.Ldebug_ranges0+0xa8
 11934 2cc5 382D0000 		.4byte	0x2d38
 11935 2cc9 46       		.uleb128 0x46
 11936 2cca 73696E00 		.ascii	"sin\000"
 11937 2cce 01       		.byte	0x1
 11938 2ccf 9D02     		.2byte	0x29d
 11939 2cd1 8D0A0000 		.4byte	0xa8d
 11940 2cd5 02       		.uleb128 0x2
 11941 2cd6 91       		.byte	0x91
 11942 2cd7 48       		.sleb128 -56
 11943 2cd8 47       		.uleb128 0x47
 11944 2cd9 FE000000 		.4byte	.LVL408
 11945 2cdd CD430000 		.4byte	0x43cd
 11946 2ce1 38       		.uleb128 0x38
 11947 2ce2 20010000 		.4byte	.LVL409
 11948 2ce6 E2430000 		.4byte	0x43e2
 11949 2cea FC2C0000 		.4byte	0x2cfc
 11950 2cee 32       		.uleb128 0x32
 11951 2cef 01       		.uleb128 0x1
 11952 2cf0 51       		.byte	0x51
 11953 2cf1 02       		.uleb128 0x2
 11954 2cf2 91       		.byte	0x91
 11955 2cf3 48       		.sleb128 -56
 11956 2cf4 32       		.uleb128 0x32
ARM GAS  C:\Users\jo\AppData\Local\Temp\ccpKXchH.s 			page 218


 11957 2cf5 01       		.uleb128 0x1
 11958 2cf6 50       		.byte	0x50
 11959 2cf7 03       		.uleb128 0x3
 11960 2cf8 91       		.byte	0x91
 11961 2cf9 00       		.sleb128 0
 11962 2cfa 06       		.byte	0x6
 11963 2cfb 00       		.byte	0
 11964 2cfc 38       		.uleb128 0x38
 11965 2cfd 2A010000 		.4byte	.LVL410
 11966 2d01 31160000 		.4byte	0x1631
 11967 2d05 1B2D0000 		.4byte	0x2d1b
 11968 2d09 32       		.uleb128 0x32
 11969 2d0a 01       		.uleb128 0x1
 11970 2d0b 52       		.byte	0x52
 11971 2d0c 04       		.uleb128 0x4
 11972 2d0d 91       		.byte	0x91
 11973 2d0e B47F     		.sleb128 -76
 11974 2d10 06       		.byte	0x6
 11975 2d11 32       		.uleb128 0x32
 11976 2d12 01       		.uleb128 0x1
 11977 2d13 51       		.byte	0x51
 11978 2d14 05       		.uleb128 0x5
 11979 2d15 03       		.byte	0x3
 11980 2d16 20080000 		.4byte	.LC59
 11981 2d1a 00       		.byte	0
 11982 2d1b 31       		.uleb128 0x31
 11983 2d1c A8020000 		.4byte	.LVL444
 11984 2d20 A9430000 		.4byte	0x43a9
 11985 2d24 32       		.uleb128 0x32
 11986 2d25 01       		.uleb128 0x1
 11987 2d26 53       		.byte	0x53
 11988 2d27 01       		.uleb128 0x1
 11989 2d28 30       		.byte	0x30
 11990 2d29 32       		.uleb128 0x32
 11991 2d2a 01       		.uleb128 0x1
 11992 2d2b 52       		.byte	0x52
 11993 2d2c 03       		.uleb128 0x3
 11994 2d2d 91       		.byte	0x91
 11995 2d2e BE7F     		.sleb128 -66
 11996 2d30 32       		.uleb128 0x32
 11997 2d31 01       		.uleb128 0x1
 11998 2d32 51       		.byte	0x51
 11999 2d33 02       		.uleb128 0x2
 12000 2d34 7B       		.byte	0x7b
 12001 2d35 00       		.sleb128 0
 12002 2d36 00       		.byte	0
 12003 2d37 00       		.byte	0
 12004 2d38 38       		.uleb128 0x38
 12005 2d39 46010000 		.4byte	.LVL412
 12006 2d3d 31160000 		.4byte	0x1631
 12007 2d41 4F2D0000 		.4byte	0x2d4f
 12008 2d45 32       		.uleb128 0x32
 12009 2d46 01       		.uleb128 0x1
 12010 2d47 51       		.byte	0x51
 12011 2d48 05       		.uleb128 0x5
 12012 2d49 03       		.byte	0x3
 12013 2d4a 30040000 		.4byte	.LC27
ARM GAS  C:\Users\jo\AppData\Local\Temp\ccpKXchH.s 			page 219


 12014 2d4e 00       		.byte	0
 12015 2d4f 38       		.uleb128 0x38
 12016 2d50 54010000 		.4byte	.LVL413
 12017 2d54 31160000 		.4byte	0x1631
 12018 2d58 6C2D0000 		.4byte	0x2d6c
 12019 2d5c 32       		.uleb128 0x32
 12020 2d5d 01       		.uleb128 0x1
 12021 2d5e 53       		.byte	0x53
 12022 2d5f 02       		.uleb128 0x2
 12023 2d60 78       		.byte	0x78
 12024 2d61 00       		.sleb128 0
 12025 2d62 32       		.uleb128 0x32
 12026 2d63 01       		.uleb128 0x1
 12027 2d64 51       		.byte	0x51
 12028 2d65 05       		.uleb128 0x5
 12029 2d66 03       		.byte	0x3
 12030 2d67 3C080000 		.4byte	.LC60
 12031 2d6b 00       		.byte	0
 12032 2d6c 38       		.uleb128 0x38
 12033 2d6d F4010000 		.4byte	.LVL428
 12034 2d71 31160000 		.4byte	0x1631
 12035 2d75 8B2D0000 		.4byte	0x2d8b
 12036 2d79 32       		.uleb128 0x32
 12037 2d7a 01       		.uleb128 0x1
 12038 2d7b 52       		.byte	0x52
 12039 2d7c 04       		.uleb128 0x4
 12040 2d7d 91       		.byte	0x91
 12041 2d7e B47F     		.sleb128 -76
 12042 2d80 06       		.byte	0x6
 12043 2d81 32       		.uleb128 0x32
 12044 2d82 01       		.uleb128 0x1
 12045 2d83 51       		.byte	0x51
 12046 2d84 05       		.uleb128 0x5
 12047 2d85 03       		.byte	0x3
 12048 2d86 20080000 		.4byte	.LC59
 12049 2d8a 00       		.byte	0
 12050 2d8b 38       		.uleb128 0x38
 12051 2d8c CC020000 		.4byte	.LVL451
 12052 2d90 A9430000 		.4byte	0x43a9
 12053 2d94 AB2D0000 		.4byte	0x2dab
 12054 2d98 32       		.uleb128 0x32
 12055 2d99 01       		.uleb128 0x1
 12056 2d9a 53       		.byte	0x53
 12057 2d9b 01       		.uleb128 0x1
 12058 2d9c 30       		.byte	0x30
 12059 2d9d 32       		.uleb128 0x32
 12060 2d9e 01       		.uleb128 0x1
 12061 2d9f 52       		.byte	0x52
 12062 2da0 03       		.uleb128 0x3
 12063 2da1 91       		.byte	0x91
 12064 2da2 BE7F     		.sleb128 -66
 12065 2da4 32       		.uleb128 0x32
 12066 2da5 01       		.uleb128 0x1
 12067 2da6 51       		.byte	0x51
 12068 2da7 02       		.uleb128 0x2
 12069 2da8 91       		.byte	0x91
 12070 2da9 44       		.sleb128 -60
ARM GAS  C:\Users\jo\AppData\Local\Temp\ccpKXchH.s 			page 220


 12071 2daa 00       		.byte	0
 12072 2dab 31       		.uleb128 0x31
 12073 2dac DE020000 		.4byte	.LVL453
 12074 2db0 31160000 		.4byte	0x1631
 12075 2db4 32       		.uleb128 0x32
 12076 2db5 01       		.uleb128 0x1
 12077 2db6 52       		.byte	0x52
 12078 2db7 04       		.uleb128 0x4
 12079 2db8 91       		.byte	0x91
 12080 2db9 B47F     		.sleb128 -76
 12081 2dbb 06       		.byte	0x6
 12082 2dbc 32       		.uleb128 0x32
 12083 2dbd 01       		.uleb128 0x1
 12084 2dbe 51       		.byte	0x51
 12085 2dbf 05       		.uleb128 0x5
 12086 2dc0 03       		.byte	0x3
 12087 2dc1 20080000 		.4byte	.LC59
 12088 2dc5 00       		.byte	0
 12089 2dc6 00       		.byte	0
 12090 2dc7 37       		.uleb128 0x37
 12091 2dc8 75150000 		.4byte	0x1575
 12092 2dcc 26020000 		.4byte	.LBB145
 12093 2dd0 0C000000 		.4byte	.LBE145-.LBB145
 12094 2dd4 01       		.byte	0x1
 12095 2dd5 8D02     		.2byte	0x28d
 12096 2dd7 F82D0000 		.4byte	0x2df8
 12097 2ddb 2D       		.uleb128 0x2d
 12098 2ddc 82150000 		.4byte	0x1582
 12099 2de0 5C1B0000 		.4byte	.LLST116
 12100 2de4 31       		.uleb128 0x31
 12101 2de5 2C020000 		.4byte	.LVL433
 12102 2de9 87430000 		.4byte	0x4387
 12103 2ded 32       		.uleb128 0x32
 12104 2dee 01       		.uleb128 0x1
 12105 2def 50       		.byte	0x50
 12106 2df0 05       		.uleb128 0x5
 12107 2df1 03       		.byte	0x3
 12108 2df2 F8070000 		.4byte	.LC58
 12109 2df6 00       		.byte	0
 12110 2df7 00       		.byte	0
 12111 2df8 37       		.uleb128 0x37
 12112 2df9 75150000 		.4byte	0x1575
 12113 2dfd 2A030000 		.4byte	.LBB149
 12114 2e01 0A000000 		.4byte	.LBE149-.LBB149
 12115 2e05 01       		.byte	0x1
 12116 2e06 7102     		.2byte	0x271
 12117 2e08 292E0000 		.4byte	0x2e29
 12118 2e0c 2D       		.uleb128 0x2d
 12119 2e0d 82150000 		.4byte	0x1582
 12120 2e11 741B0000 		.4byte	.LLST117
 12121 2e15 31       		.uleb128 0x31
 12122 2e16 30030000 		.4byte	.LVL456
 12123 2e1a 87430000 		.4byte	0x4387
 12124 2e1e 32       		.uleb128 0x32
 12125 2e1f 01       		.uleb128 0x1
 12126 2e20 50       		.byte	0x50
 12127 2e21 05       		.uleb128 0x5
ARM GAS  C:\Users\jo\AppData\Local\Temp\ccpKXchH.s 			page 221


 12128 2e22 03       		.byte	0x3
 12129 2e23 B0070000 		.4byte	.LC56
 12130 2e27 00       		.byte	0
 12131 2e28 00       		.byte	0
 12132 2e29 38       		.uleb128 0x38
 12133 2e2a 24000000 		.4byte	.LVL389
 12134 2e2e 31160000 		.4byte	0x1631
 12135 2e32 5C2E0000 		.4byte	0x2e5c
 12136 2e36 32       		.uleb128 0x32
 12137 2e37 01       		.uleb128 0x1
 12138 2e38 53       		.byte	0x53
 12139 2e39 04       		.uleb128 0x4
 12140 2e3a 91       		.byte	0x91
 12141 2e3b AC7F     		.sleb128 -84
 12142 2e3d 06       		.byte	0x6
 12143 2e3e 32       		.uleb128 0x32
 12144 2e3f 01       		.uleb128 0x1
 12145 2e40 52       		.byte	0x52
 12146 2e41 02       		.uleb128 0x2
 12147 2e42 74       		.byte	0x74
 12148 2e43 00       		.sleb128 0
 12149 2e44 32       		.uleb128 0x32
 12150 2e45 01       		.uleb128 0x1
 12151 2e46 51       		.byte	0x51
 12152 2e47 05       		.uleb128 0x5
 12153 2e48 03       		.byte	0x3
 12154 2e49 D0060000 		.4byte	.LC51
 12155 2e4d 32       		.uleb128 0x32
 12156 2e4e 02       		.uleb128 0x2
 12157 2e4f 7D       		.byte	0x7d
 12158 2e50 04       		.sleb128 4
 12159 2e51 02       		.uleb128 0x2
 12160 2e52 79       		.byte	0x79
 12161 2e53 00       		.sleb128 0
 12162 2e54 32       		.uleb128 0x32
 12163 2e55 02       		.uleb128 0x2
 12164 2e56 7D       		.byte	0x7d
 12165 2e57 00       		.sleb128 0
 12166 2e58 02       		.uleb128 0x2
 12167 2e59 77       		.byte	0x77
 12168 2e5a 00       		.sleb128 0
 12169 2e5b 00       		.byte	0
 12170 2e5c 38       		.uleb128 0x38
 12171 2e5d 2A000000 		.4byte	.LVL390
 12172 2e61 50150000 		.4byte	0x1550
 12173 2e65 702E0000 		.4byte	0x2e70
 12174 2e69 32       		.uleb128 0x32
 12175 2e6a 01       		.uleb128 0x1
 12176 2e6b 50       		.byte	0x50
 12177 2e6c 02       		.uleb128 0x2
 12178 2e6d 74       		.byte	0x74
 12179 2e6e 00       		.sleb128 0
 12180 2e6f 00       		.byte	0
 12181 2e70 38       		.uleb128 0x38
 12182 2e71 3E000000 		.4byte	.LVL393
 12183 2e75 31160000 		.4byte	0x1631
 12184 2e79 872E0000 		.4byte	0x2e87
ARM GAS  C:\Users\jo\AppData\Local\Temp\ccpKXchH.s 			page 222


 12185 2e7d 32       		.uleb128 0x32
 12186 2e7e 01       		.uleb128 0x1
 12187 2e7f 51       		.byte	0x51
 12188 2e80 05       		.uleb128 0x5
 12189 2e81 03       		.byte	0x3
 12190 2e82 F8060000 		.4byte	.LC52
 12191 2e86 00       		.byte	0
 12192 2e87 38       		.uleb128 0x38
 12193 2e88 6E000000 		.4byte	.LVL396
 12194 2e8c 31160000 		.4byte	0x1631
 12195 2e90 B12E0000 		.4byte	0x2eb1
 12196 2e94 32       		.uleb128 0x32
 12197 2e95 01       		.uleb128 0x1
 12198 2e96 53       		.byte	0x53
 12199 2e97 02       		.uleb128 0x2
 12200 2e98 77       		.byte	0x77
 12201 2e99 00       		.sleb128 0
 12202 2e9a 32       		.uleb128 0x32
 12203 2e9b 01       		.uleb128 0x1
 12204 2e9c 52       		.byte	0x52
 12205 2e9d 02       		.uleb128 0x2
 12206 2e9e 75       		.byte	0x75
 12207 2e9f 00       		.sleb128 0
 12208 2ea0 32       		.uleb128 0x32
 12209 2ea1 01       		.uleb128 0x1
 12210 2ea2 51       		.byte	0x51
 12211 2ea3 05       		.uleb128 0x5
 12212 2ea4 03       		.byte	0x3
 12213 2ea5 BC070000 		.4byte	.LC57
 12214 2ea9 32       		.uleb128 0x32
 12215 2eaa 02       		.uleb128 0x2
 12216 2eab 7D       		.byte	0x7d
 12217 2eac 00       		.sleb128 0
 12218 2ead 02       		.uleb128 0x2
 12219 2eae 78       		.byte	0x78
 12220 2eaf 00       		.sleb128 0
 12221 2eb0 00       		.byte	0
 12222 2eb1 38       		.uleb128 0x38
 12223 2eb2 8A000000 		.4byte	.LVL401
 12224 2eb6 C7440000 		.4byte	0x44c7
 12225 2eba D62E0000 		.4byte	0x2ed6
 12226 2ebe 32       		.uleb128 0x32
 12227 2ebf 01       		.uleb128 0x1
 12228 2ec0 52       		.byte	0x52
 12229 2ec1 02       		.uleb128 0x2
 12230 2ec2 76       		.byte	0x76
 12231 2ec3 00       		.sleb128 0
 12232 2ec4 32       		.uleb128 0x32
 12233 2ec5 01       		.uleb128 0x1
 12234 2ec6 51       		.byte	0x51
 12235 2ec7 07       		.uleb128 0x7
 12236 2ec8 91       		.byte	0x91
 12237 2ec9 AC7F     		.sleb128 -84
 12238 2ecb 06       		.byte	0x6
 12239 2ecc 78       		.byte	0x78
 12240 2ecd 00       		.sleb128 0
 12241 2ece 22       		.byte	0x22
ARM GAS  C:\Users\jo\AppData\Local\Temp\ccpKXchH.s 			page 223


 12242 2ecf 32       		.uleb128 0x32
 12243 2ed0 01       		.uleb128 0x1
 12244 2ed1 50       		.byte	0x50
 12245 2ed2 02       		.uleb128 0x2
 12246 2ed3 7A       		.byte	0x7a
 12247 2ed4 00       		.sleb128 0
 12248 2ed5 00       		.byte	0
 12249 2ed6 38       		.uleb128 0x38
 12250 2ed7 68010000 		.4byte	.LVL415
 12251 2edb EB440000 		.4byte	0x44eb
 12252 2edf EA2E0000 		.4byte	0x2eea
 12253 2ee3 32       		.uleb128 0x32
 12254 2ee4 01       		.uleb128 0x1
 12255 2ee5 51       		.byte	0x51
 12256 2ee6 02       		.uleb128 0x2
 12257 2ee7 78       		.byte	0x78
 12258 2ee8 00       		.sleb128 0
 12259 2ee9 00       		.byte	0
 12260 2eea 38       		.uleb128 0x38
 12261 2eeb 98010000 		.4byte	.LVL421
 12262 2eef 31160000 		.4byte	0x1631
 12263 2ef3 012F0000 		.4byte	0x2f01
 12264 2ef7 32       		.uleb128 0x32
 12265 2ef8 01       		.uleb128 0x1
 12266 2ef9 51       		.byte	0x51
 12267 2efa 05       		.uleb128 0x5
 12268 2efb 03       		.byte	0x3
 12269 2efc 50080000 		.4byte	.LC61
 12270 2f00 00       		.byte	0
 12271 2f01 38       		.uleb128 0x38
 12272 2f02 B2010000 		.4byte	.LVL423
 12273 2f06 31160000 		.4byte	0x1631
 12274 2f0a 182F0000 		.4byte	0x2f18
 12275 2f0e 32       		.uleb128 0x32
 12276 2f0f 01       		.uleb128 0x1
 12277 2f10 51       		.byte	0x51
 12278 2f11 05       		.uleb128 0x5
 12279 2f12 03       		.byte	0x3
 12280 2f13 78080000 		.4byte	.LC62
 12281 2f17 00       		.byte	0
 12282 2f18 47       		.uleb128 0x47
 12283 2f19 C0010000 		.4byte	.LVL424
 12284 2f1d 68440000 		.4byte	0x4468
 12285 2f21 38       		.uleb128 0x38
 12286 2f22 26020000 		.4byte	.LVL432
 12287 2f26 31160000 		.4byte	0x1631
 12288 2f2a 522F0000 		.4byte	0x2f52
 12289 2f2e 32       		.uleb128 0x32
 12290 2f2f 01       		.uleb128 0x1
 12291 2f30 53       		.byte	0x53
 12292 2f31 03       		.uleb128 0x3
 12293 2f32 0A       		.byte	0xa
 12294 2f33 8D02     		.2byte	0x28d
 12295 2f35 32       		.uleb128 0x32
 12296 2f36 01       		.uleb128 0x1
 12297 2f37 52       		.byte	0x52
 12298 2f38 05       		.uleb128 0x5
ARM GAS  C:\Users\jo\AppData\Local\Temp\ccpKXchH.s 			page 224


 12299 2f39 03       		.byte	0x3
 12300 2f3a F8070000 		.4byte	.LC58
 12301 2f3e 32       		.uleb128 0x32
 12302 2f3f 01       		.uleb128 0x1
 12303 2f40 51       		.byte	0x51
 12304 2f41 05       		.uleb128 0x5
 12305 2f42 03       		.byte	0x3
 12306 2f43 08000000 		.4byte	.LC2
 12307 2f47 32       		.uleb128 0x32
 12308 2f48 02       		.uleb128 0x2
 12309 2f49 7D       		.byte	0x7d
 12310 2f4a 00       		.sleb128 0
 12311 2f4b 05       		.uleb128 0x5
 12312 2f4c 03       		.byte	0x3
 12313 2f4d 3C000000 		.4byte	.LC4
 12314 2f51 00       		.byte	0
 12315 2f52 38       		.uleb128 0x38
 12316 2f53 58020000 		.4byte	.LVL435
 12317 2f57 01450000 		.4byte	0x4501
 12318 2f5b 662F0000 		.4byte	0x2f66
 12319 2f5f 32       		.uleb128 0x32
 12320 2f60 01       		.uleb128 0x1
 12321 2f61 51       		.byte	0x51
 12322 2f62 02       		.uleb128 0x2
 12323 2f63 91       		.byte	0x91
 12324 2f64 40       		.sleb128 -64
 12325 2f65 00       		.byte	0
 12326 2f66 38       		.uleb128 0x38
 12327 2f67 68020000 		.4byte	.LVL437
 12328 2f6b 31160000 		.4byte	0x1631
 12329 2f6f 832F0000 		.4byte	0x2f83
 12330 2f73 32       		.uleb128 0x32
 12331 2f74 01       		.uleb128 0x1
 12332 2f75 52       		.byte	0x52
 12333 2f76 02       		.uleb128 0x2
 12334 2f77 76       		.byte	0x76
 12335 2f78 00       		.sleb128 0
 12336 2f79 32       		.uleb128 0x32
 12337 2f7a 01       		.uleb128 0x1
 12338 2f7b 51       		.byte	0x51
 12339 2f7c 05       		.uleb128 0x5
 12340 2f7d 03       		.byte	0x3
 12341 2f7e 50070000 		.4byte	.LC54
 12342 2f82 00       		.byte	0
 12343 2f83 47       		.uleb128 0x47
 12344 2f84 7C020000 		.4byte	.LVL439
 12345 2f88 79440000 		.4byte	0x4479
 12346 2f8c 47       		.uleb128 0x47
 12347 2f8d B2020000 		.4byte	.LVL446
 12348 2f91 21450000 		.4byte	0x4521
 12349 2f95 38       		.uleb128 0x38
 12350 2f96 2A030000 		.4byte	.LVL455
 12351 2f9a 31160000 		.4byte	0x1631
 12352 2f9e C62F0000 		.4byte	0x2fc6
 12353 2fa2 32       		.uleb128 0x32
 12354 2fa3 01       		.uleb128 0x1
 12355 2fa4 53       		.byte	0x53
ARM GAS  C:\Users\jo\AppData\Local\Temp\ccpKXchH.s 			page 225


 12356 2fa5 03       		.uleb128 0x3
 12357 2fa6 0A       		.byte	0xa
 12358 2fa7 7102     		.2byte	0x271
 12359 2fa9 32       		.uleb128 0x32
 12360 2faa 01       		.uleb128 0x1
 12361 2fab 52       		.byte	0x52
 12362 2fac 05       		.uleb128 0x5
 12363 2fad 03       		.byte	0x3
 12364 2fae B0070000 		.4byte	.LC56
 12365 2fb2 32       		.uleb128 0x32
 12366 2fb3 01       		.uleb128 0x1
 12367 2fb4 51       		.byte	0x51
 12368 2fb5 05       		.uleb128 0x5
 12369 2fb6 03       		.byte	0x3
 12370 2fb7 08000000 		.4byte	.LC2
 12371 2fbb 32       		.uleb128 0x32
 12372 2fbc 02       		.uleb128 0x2
 12373 2fbd 7D       		.byte	0x7d
 12374 2fbe 00       		.sleb128 0
 12375 2fbf 05       		.uleb128 0x5
 12376 2fc0 03       		.byte	0x3
 12377 2fc1 3C000000 		.4byte	.LC4
 12378 2fc5 00       		.byte	0
 12379 2fc6 38       		.uleb128 0x38
 12380 2fc7 42030000 		.4byte	.LVL458
 12381 2fcb 41450000 		.4byte	0x4541
 12382 2fcf DA2F0000 		.4byte	0x2fda
 12383 2fd3 32       		.uleb128 0x32
 12384 2fd4 01       		.uleb128 0x1
 12385 2fd5 50       		.byte	0x50
 12386 2fd6 02       		.uleb128 0x2
 12387 2fd7 76       		.byte	0x76
 12388 2fd8 00       		.sleb128 0
 12389 2fd9 00       		.byte	0
 12390 2fda 38       		.uleb128 0x38
 12391 2fdb 4E030000 		.4byte	.LVL459
 12392 2fdf 31160000 		.4byte	0x1631
 12393 2fe3 F92F0000 		.4byte	0x2ff9
 12394 2fe7 32       		.uleb128 0x32
 12395 2fe8 01       		.uleb128 0x1
 12396 2fe9 52       		.byte	0x52
 12397 2fea 04       		.uleb128 0x4
 12398 2feb 91       		.byte	0x91
 12399 2fec B47F     		.sleb128 -76
 12400 2fee 06       		.byte	0x6
 12401 2fef 32       		.uleb128 0x32
 12402 2ff0 01       		.uleb128 0x1
 12403 2ff1 51       		.byte	0x51
 12404 2ff2 05       		.uleb128 0x5
 12405 2ff3 03       		.byte	0x3
 12406 2ff4 80070000 		.4byte	.LC55
 12407 2ff8 00       		.byte	0
 12408 2ff9 31       		.uleb128 0x31
 12409 2ffa 80030000 		.4byte	.LVL462
 12410 2ffe 31160000 		.4byte	0x1631
 12411 3002 32       		.uleb128 0x32
 12412 3003 01       		.uleb128 0x1
ARM GAS  C:\Users\jo\AppData\Local\Temp\ccpKXchH.s 			page 226


 12413 3004 52       		.byte	0x52
 12414 3005 04       		.uleb128 0x4
 12415 3006 91       		.byte	0x91
 12416 3007 B47F     		.sleb128 -76
 12417 3009 06       		.byte	0x6
 12418 300a 32       		.uleb128 0x32
 12419 300b 01       		.uleb128 0x1
 12420 300c 51       		.byte	0x51
 12421 300d 05       		.uleb128 0x5
 12422 300e 03       		.byte	0x3
 12423 300f 24070000 		.4byte	.LC53
 12424 3013 00       		.byte	0
 12425 3014 00       		.byte	0
 12426 3015 49       		.uleb128 0x49
 12427 3016 4F0F0000 		.4byte	.LASF372
 12428 301a 01       		.byte	0x1
 12429 301b E602     		.2byte	0x2e6
 12430 301d 25000000 		.4byte	0x25
 12431 3021 00000000 		.4byte	.LFB267
 12432 3025 14000000 		.4byte	.LFE267-.LFB267
 12433 3029 01       		.uleb128 0x1
 12434 302a 9C       		.byte	0x9c
 12435 302b 8E300000 		.4byte	0x308e
 12436 302f 34       		.uleb128 0x34
 12437 3030 7300     		.ascii	"s\000"
 12438 3032 01       		.byte	0x1
 12439 3033 E602     		.2byte	0x2e6
 12440 3035 25000000 		.4byte	0x25
 12441 3039 8C1B0000 		.4byte	.LLST118
 12442 303d 34       		.uleb128 0x34
 12443 303e 6D656D00 		.ascii	"mem\000"
 12444 3042 01       		.byte	0x1
 12445 3043 E602     		.2byte	0x2e6
 12446 3045 76030000 		.4byte	0x376
 12447 3049 AD1B0000 		.4byte	.LLST119
 12448 304d 34       		.uleb128 0x34
 12449 304e 6C656E00 		.ascii	"len\000"
 12450 3052 01       		.byte	0x1
 12451 3053 E602     		.2byte	0x2e6
 12452 3055 2C000000 		.4byte	0x2c
 12453 3059 CE1B0000 		.4byte	.LLST120
 12454 305d 31       		.uleb128 0x31
 12455 305e 0E000000 		.4byte	.LVL466
 12456 3062 932B0000 		.4byte	0x2b93
 12457 3066 32       		.uleb128 0x32
 12458 3067 01       		.uleb128 0x1
 12459 3068 53       		.byte	0x53
 12460 3069 01       		.uleb128 0x1
 12461 306a 30       		.byte	0x30
 12462 306b 32       		.uleb128 0x32
 12463 306c 01       		.uleb128 0x1
 12464 306d 52       		.byte	0x52
 12465 306e 03       		.uleb128 0x3
 12466 306f F3       		.byte	0xf3
 12467 3070 01       		.uleb128 0x1
 12468 3071 52       		.byte	0x52
 12469 3072 32       		.uleb128 0x32
ARM GAS  C:\Users\jo\AppData\Local\Temp\ccpKXchH.s 			page 227


 12470 3073 01       		.uleb128 0x1
 12471 3074 51       		.byte	0x51
 12472 3075 03       		.uleb128 0x3
 12473 3076 F3       		.byte	0xf3
 12474 3077 01       		.uleb128 0x1
 12475 3078 51       		.byte	0x51
 12476 3079 32       		.uleb128 0x32
 12477 307a 01       		.uleb128 0x1
 12478 307b 50       		.byte	0x50
 12479 307c 03       		.uleb128 0x3
 12480 307d F3       		.byte	0xf3
 12481 307e 01       		.uleb128 0x1
 12482 307f 50       		.byte	0x50
 12483 3080 32       		.uleb128 0x32
 12484 3081 02       		.uleb128 0x2
 12485 3082 7D       		.byte	0x7d
 12486 3083 04       		.sleb128 4
 12487 3084 01       		.uleb128 0x1
 12488 3085 30       		.byte	0x30
 12489 3086 32       		.uleb128 0x32
 12490 3087 02       		.uleb128 0x2
 12491 3088 7D       		.byte	0x7d
 12492 3089 00       		.sleb128 0
 12493 308a 01       		.uleb128 0x1
 12494 308b 30       		.byte	0x30
 12495 308c 00       		.byte	0
 12496 308d 00       		.byte	0
 12497 308e 49       		.uleb128 0x49
 12498 308f D6120000 		.4byte	.LASF373
 12499 3093 01       		.byte	0x1
 12500 3094 EC02     		.2byte	0x2ec
 12501 3096 25000000 		.4byte	0x25
 12502 309a 00000000 		.4byte	.LFB268
 12503 309e 12000000 		.4byte	.LFE268-.LFB268
 12504 30a2 01       		.uleb128 0x1
 12505 30a3 9C       		.byte	0x9c
 12506 30a4 1B310000 		.4byte	0x311b
 12507 30a8 34       		.uleb128 0x34
 12508 30a9 7300     		.ascii	"s\000"
 12509 30ab 01       		.byte	0x1
 12510 30ac EC02     		.2byte	0x2ec
 12511 30ae 25000000 		.4byte	0x25
 12512 30b2 EF1B0000 		.4byte	.LLST121
 12513 30b6 34       		.uleb128 0x34
 12514 30b7 6D656D00 		.ascii	"mem\000"
 12515 30bb 01       		.byte	0x1
 12516 30bc EC02     		.2byte	0x2ec
 12517 30be 76030000 		.4byte	0x376
 12518 30c2 101C0000 		.4byte	.LLST122
 12519 30c6 34       		.uleb128 0x34
 12520 30c7 6C656E00 		.ascii	"len\000"
 12521 30cb 01       		.byte	0x1
 12522 30cc EC02     		.2byte	0x2ec
 12523 30ce 2C000000 		.4byte	0x2c
 12524 30d2 311C0000 		.4byte	.LLST123
 12525 30d6 3C       		.uleb128 0x3c
 12526 30d7 9A010000 		.4byte	.LASF185
ARM GAS  C:\Users\jo\AppData\Local\Temp\ccpKXchH.s 			page 228


 12527 30db 01       		.byte	0x1
 12528 30dc EC02     		.2byte	0x2ec
 12529 30de 25000000 		.4byte	0x25
 12530 30e2 521C0000 		.4byte	.LLST124
 12531 30e6 31       		.uleb128 0x31
 12532 30e7 0E000000 		.4byte	.LVL468
 12533 30eb 932B0000 		.4byte	0x2b93
 12534 30ef 32       		.uleb128 0x32
 12535 30f0 01       		.uleb128 0x1
 12536 30f1 53       		.byte	0x53
 12537 30f2 03       		.uleb128 0x3
 12538 30f3 F3       		.byte	0xf3
 12539 30f4 01       		.uleb128 0x1
 12540 30f5 53       		.byte	0x53
 12541 30f6 32       		.uleb128 0x32
 12542 30f7 01       		.uleb128 0x1
 12543 30f8 52       		.byte	0x52
 12544 30f9 03       		.uleb128 0x3
 12545 30fa F3       		.byte	0xf3
 12546 30fb 01       		.uleb128 0x1
 12547 30fc 52       		.byte	0x52
 12548 30fd 32       		.uleb128 0x32
 12549 30fe 01       		.uleb128 0x1
 12550 30ff 51       		.byte	0x51
 12551 3100 03       		.uleb128 0x3
 12552 3101 F3       		.byte	0xf3
 12553 3102 01       		.uleb128 0x1
 12554 3103 51       		.byte	0x51
 12555 3104 32       		.uleb128 0x32
 12556 3105 01       		.uleb128 0x1
 12557 3106 50       		.byte	0x50
 12558 3107 03       		.uleb128 0x3
 12559 3108 F3       		.byte	0xf3
 12560 3109 01       		.uleb128 0x1
 12561 310a 50       		.byte	0x50
 12562 310b 32       		.uleb128 0x32
 12563 310c 02       		.uleb128 0x2
 12564 310d 7D       		.byte	0x7d
 12565 310e 04       		.sleb128 4
 12566 310f 02       		.uleb128 0x2
 12567 3110 74       		.byte	0x74
 12568 3111 00       		.sleb128 0
 12569 3112 32       		.uleb128 0x32
 12570 3113 02       		.uleb128 0x2
 12571 3114 7D       		.byte	0x7d
 12572 3115 00       		.sleb128 0
 12573 3116 02       		.uleb128 0x2
 12574 3117 74       		.byte	0x74
 12575 3118 00       		.sleb128 0
 12576 3119 00       		.byte	0
 12577 311a 00       		.byte	0
 12578 311b 49       		.uleb128 0x49
 12579 311c A4060000 		.4byte	.LASF374
 12580 3120 01       		.byte	0x1
 12581 3121 1603     		.2byte	0x316
 12582 3123 25000000 		.4byte	0x25
 12583 3127 00000000 		.4byte	.LFB270
ARM GAS  C:\Users\jo\AppData\Local\Temp\ccpKXchH.s 			page 229


 12584 312b 64010000 		.4byte	.LFE270-.LFB270
 12585 312f 01       		.uleb128 0x1
 12586 3130 9C       		.byte	0x9c
 12587 3131 B6330000 		.4byte	0x33b6
 12588 3135 34       		.uleb128 0x34
 12589 3136 7300     		.ascii	"s\000"
 12590 3138 01       		.byte	0x1
 12591 3139 1603     		.2byte	0x316
 12592 313b 25000000 		.4byte	0x25
 12593 313f 731C0000 		.4byte	.LLST125
 12594 3143 3C       		.uleb128 0x3c
 12595 3144 B9080000 		.4byte	.LASF326
 12596 3148 01       		.byte	0x1
 12597 3149 1603     		.2byte	0x316
 12598 314b 84110000 		.4byte	0x1184
 12599 314f 911C0000 		.4byte	.LLST126
 12600 3153 3C       		.uleb128 0x3c
 12601 3154 E50A0000 		.4byte	.LASF375
 12602 3158 01       		.byte	0x1
 12603 3159 1603     		.2byte	0x316
 12604 315b 2C000000 		.4byte	0x2c
 12605 315f AF1C0000 		.4byte	.LLST127
 12606 3163 3C       		.uleb128 0x3c
 12607 3164 9A010000 		.4byte	.LASF185
 12608 3168 01       		.byte	0x1
 12609 3169 1603     		.2byte	0x316
 12610 316b 25000000 		.4byte	0x25
 12611 316f 0D1D0000 		.4byte	.LLST128
 12612 3173 34       		.uleb128 0x34
 12613 3174 746F00   		.ascii	"to\000"
 12614 3177 01       		.byte	0x1
 12615 3178 1703     		.2byte	0x317
 12616 317a 8C270000 		.4byte	0x278c
 12617 317e 2B1D0000 		.4byte	.LLST129
 12618 3182 3C       		.uleb128 0x3c
 12619 3183 41000000 		.4byte	.LASF376
 12620 3187 01       		.byte	0x1
 12621 3188 1703     		.2byte	0x317
 12622 318a 170B0000 		.4byte	0xb17
 12623 318e 4B1D0000 		.4byte	.LLST130
 12624 3192 35       		.uleb128 0x35
 12625 3193 C1030000 		.4byte	.LASF314
 12626 3197 01       		.byte	0x1
 12627 3198 1903     		.2byte	0x319
 12628 319a 44150000 		.4byte	0x1544
 12629 319e 6B1D0000 		.4byte	.LLST131
 12630 31a2 36       		.uleb128 0x36
 12631 31a3 65727200 		.ascii	"err\000"
 12632 31a7 01       		.byte	0x1
 12633 31a8 1A03     		.2byte	0x31a
 12634 31aa 4A0B0000 		.4byte	0xb4a
 12635 31ae B51D0000 		.4byte	.LLST132
 12636 31b2 35       		.uleb128 0x35
 12637 31b3 99080000 		.4byte	.LASF377
 12638 31b7 01       		.byte	0x1
 12639 31b8 1B03     		.2byte	0x31b
 12640 31ba 190A0000 		.4byte	0xa19
ARM GAS  C:\Users\jo\AppData\Local\Temp\ccpKXchH.s 			page 230


 12641 31be E91D0000 		.4byte	.LLST133
 12642 31c2 35       		.uleb128 0x35
 12643 31c3 7F030000 		.4byte	.LASF378
 12644 31c7 01       		.byte	0x1
 12645 31c8 1C03     		.2byte	0x31c
 12646 31ca 97270000 		.4byte	0x2797
 12647 31ce 071E0000 		.4byte	.LLST134
 12648 31d2 35       		.uleb128 0x35
 12649 31d3 CF0A0000 		.4byte	.LASF229
 12650 31d7 01       		.byte	0x1
 12651 31d8 1D03     		.2byte	0x31d
 12652 31da 190A0000 		.4byte	0xa19
 12653 31de 261E0000 		.4byte	.LLST135
 12654 31e2 46       		.uleb128 0x46
 12655 31e3 62756600 		.ascii	"buf\000"
 12656 31e7 01       		.byte	0x1
 12657 31e8 1F03     		.2byte	0x31f
 12658 31ea BC0B0000 		.4byte	0xbbc
 12659 31ee 02       		.uleb128 0x2
 12660 31ef 91       		.byte	0x91
 12661 31f0 50       		.sleb128 -48
 12662 31f1 37       		.uleb128 0x37
 12663 31f2 75150000 		.4byte	0x1575
 12664 31f6 D2000000 		.4byte	.LBB151
 12665 31fa 06000000 		.4byte	.LBE151-.LBB151
 12666 31fe 01       		.byte	0x1
 12667 31ff 3203     		.2byte	0x332
 12668 3201 22320000 		.4byte	0x3222
 12669 3205 2D       		.uleb128 0x2d
 12670 3206 82150000 		.4byte	0x1582
 12671 320a 451E0000 		.4byte	.LLST136
 12672 320e 31       		.uleb128 0x31
 12673 320f D8000000 		.4byte	.LVL486
 12674 3213 87430000 		.4byte	0x4387
 12675 3217 32       		.uleb128 0x32
 12676 3218 01       		.uleb128 0x1
 12677 3219 50       		.byte	0x50
 12678 321a 05       		.uleb128 0x5
 12679 321b 03       		.byte	0x3
 12680 321c 9C080000 		.4byte	.LC63
 12681 3220 00       		.byte	0
 12682 3221 00       		.byte	0
 12683 3222 37       		.uleb128 0x37
 12684 3223 75150000 		.4byte	0x1575
 12685 3227 24010000 		.4byte	.LBB153
 12686 322b 06000000 		.4byte	.LBE153-.LBB153
 12687 322f 01       		.byte	0x1
 12688 3230 3403     		.2byte	0x334
 12689 3232 53320000 		.4byte	0x3253
 12690 3236 2D       		.uleb128 0x2d
 12691 3237 82150000 		.4byte	0x1582
 12692 323b 5D1E0000 		.4byte	.LLST137
 12693 323f 31       		.uleb128 0x31
 12694 3240 2A010000 		.4byte	.LVL498
 12695 3244 87430000 		.4byte	0x4387
 12696 3248 32       		.uleb128 0x32
 12697 3249 01       		.uleb128 0x1
ARM GAS  C:\Users\jo\AppData\Local\Temp\ccpKXchH.s 			page 231


 12698 324a 50       		.byte	0x50
 12699 324b 05       		.uleb128 0x5
 12700 324c 03       		.byte	0x3
 12701 324d C0080000 		.4byte	.LC64
 12702 3251 00       		.byte	0
 12703 3252 00       		.byte	0
 12704 3253 38       		.uleb128 0x38
 12705 3254 18000000 		.4byte	.LVL470
 12706 3258 50150000 		.4byte	0x1550
 12707 325c 67320000 		.4byte	0x3267
 12708 3260 32       		.uleb128 0x32
 12709 3261 01       		.uleb128 0x1
 12710 3262 50       		.byte	0x50
 12711 3263 02       		.uleb128 0x2
 12712 3264 78       		.byte	0x78
 12713 3265 00       		.sleb128 0
 12714 3266 00       		.byte	0
 12715 3267 47       		.uleb128 0x47
 12716 3268 54000000 		.4byte	.LVL474
 12717 326c 34440000 		.4byte	0x4434
 12718 3270 38       		.uleb128 0x38
 12719 3271 6A000000 		.4byte	.LVL476
 12720 3275 31160000 		.4byte	0x1631
 12721 3279 A1320000 		.4byte	0x32a1
 12722 327d 32       		.uleb128 0x32
 12723 327e 01       		.uleb128 0x1
 12724 327f 53       		.byte	0x53
 12725 3280 02       		.uleb128 0x2
 12726 3281 77       		.byte	0x77
 12727 3282 00       		.sleb128 0
 12728 3283 32       		.uleb128 0x32
 12729 3284 01       		.uleb128 0x1
 12730 3285 52       		.byte	0x52
 12731 3286 02       		.uleb128 0x2
 12732 3287 78       		.byte	0x78
 12733 3288 00       		.sleb128 0
 12734 3289 32       		.uleb128 0x32
 12735 328a 01       		.uleb128 0x1
 12736 328b 51       		.byte	0x51
 12737 328c 05       		.uleb128 0x5
 12738 328d 03       		.byte	0x3
 12739 328e E0080000 		.4byte	.LC65
 12740 3292 32       		.uleb128 0x32
 12741 3293 02       		.uleb128 0x2
 12742 3294 7D       		.byte	0x7d
 12743 3295 04       		.sleb128 4
 12744 3296 02       		.uleb128 0x2
 12745 3297 79       		.byte	0x79
 12746 3298 00       		.sleb128 0
 12747 3299 32       		.uleb128 0x32
 12748 329a 02       		.uleb128 0x2
 12749 329b 7D       		.byte	0x7d
 12750 329c 00       		.sleb128 0
 12751 329d 02       		.uleb128 0x2
 12752 329e 74       		.byte	0x74
 12753 329f 00       		.sleb128 0
 12754 32a0 00       		.byte	0
ARM GAS  C:\Users\jo\AppData\Local\Temp\ccpKXchH.s 			page 232


 12755 32a1 38       		.uleb128 0x38
 12756 32a2 86000000 		.4byte	.LVL477
 12757 32a6 31160000 		.4byte	0x1631
 12758 32aa B8320000 		.4byte	0x32b8
 12759 32ae 32       		.uleb128 0x32
 12760 32af 01       		.uleb128 0x1
 12761 32b0 51       		.byte	0x51
 12762 32b1 05       		.uleb128 0x5
 12763 32b2 03       		.byte	0x3
 12764 32b3 30040000 		.4byte	.LC27
 12765 32b7 00       		.byte	0
 12766 32b8 38       		.uleb128 0x38
 12767 32b9 90000000 		.4byte	.LVL478
 12768 32bd 31160000 		.4byte	0x1631
 12769 32c1 D5320000 		.4byte	0x32d5
 12770 32c5 32       		.uleb128 0x32
 12771 32c6 01       		.uleb128 0x1
 12772 32c7 52       		.byte	0x52
 12773 32c8 02       		.uleb128 0x2
 12774 32c9 75       		.byte	0x75
 12775 32ca 00       		.sleb128 0
 12776 32cb 32       		.uleb128 0x32
 12777 32cc 01       		.uleb128 0x1
 12778 32cd 51       		.byte	0x51
 12779 32ce 05       		.uleb128 0x5
 12780 32cf 03       		.byte	0x3
 12781 32d0 78050000 		.4byte	.LC38
 12782 32d4 00       		.byte	0
 12783 32d5 38       		.uleb128 0x38
 12784 32d6 9A000000 		.4byte	.LVL479
 12785 32da 56450000 		.4byte	0x4556
 12786 32de F5320000 		.4byte	0x32f5
 12787 32e2 32       		.uleb128 0x32
 12788 32e3 01       		.uleb128 0x1
 12789 32e4 52       		.byte	0x52
 12790 32e5 02       		.uleb128 0x2
 12791 32e6 74       		.byte	0x74
 12792 32e7 00       		.sleb128 0
 12793 32e8 32       		.uleb128 0x32
 12794 32e9 01       		.uleb128 0x1
 12795 32ea 51       		.byte	0x51
 12796 32eb 02       		.uleb128 0x2
 12797 32ec 77       		.byte	0x77
 12798 32ed 00       		.sleb128 0
 12799 32ee 32       		.uleb128 0x32
 12800 32ef 01       		.uleb128 0x1
 12801 32f0 50       		.byte	0x50
 12802 32f1 02       		.uleb128 0x2
 12803 32f2 91       		.byte	0x91
 12804 32f3 50       		.sleb128 -48
 12805 32f4 00       		.byte	0
 12806 32f5 38       		.uleb128 0x38
 12807 32f6 A4000000 		.4byte	.LVL481
 12808 32fa 75450000 		.4byte	0x4575
 12809 32fe 09330000 		.4byte	0x3309
 12810 3302 32       		.uleb128 0x32
 12811 3303 01       		.uleb128 0x1
ARM GAS  C:\Users\jo\AppData\Local\Temp\ccpKXchH.s 			page 233


 12812 3304 50       		.byte	0x50
 12813 3305 02       		.uleb128 0x2
 12814 3306 91       		.byte	0x91
 12815 3307 50       		.sleb128 -48
 12816 3308 00       		.byte	0
 12817 3309 38       		.uleb128 0x38
 12818 330a D2000000 		.4byte	.LVL485
 12819 330e 31160000 		.4byte	0x1631
 12820 3312 3A330000 		.4byte	0x333a
 12821 3316 32       		.uleb128 0x32
 12822 3317 01       		.uleb128 0x1
 12823 3318 53       		.byte	0x53
 12824 3319 03       		.uleb128 0x3
 12825 331a 0A       		.byte	0xa
 12826 331b 3203     		.2byte	0x332
 12827 331d 32       		.uleb128 0x32
 12828 331e 01       		.uleb128 0x1
 12829 331f 52       		.byte	0x52
 12830 3320 05       		.uleb128 0x5
 12831 3321 03       		.byte	0x3
 12832 3322 9C080000 		.4byte	.LC63
 12833 3326 32       		.uleb128 0x32
 12834 3327 01       		.uleb128 0x1
 12835 3328 51       		.byte	0x51
 12836 3329 05       		.uleb128 0x5
 12837 332a 03       		.byte	0x3
 12838 332b 08000000 		.4byte	.LC2
 12839 332f 32       		.uleb128 0x32
 12840 3330 02       		.uleb128 0x2
 12841 3331 7D       		.byte	0x7d
 12842 3332 00       		.sleb128 0
 12843 3333 05       		.uleb128 0x5
 12844 3334 03       		.byte	0x3
 12845 3335 3C000000 		.4byte	.LC4
 12846 3339 00       		.byte	0
 12847 333a 38       		.uleb128 0x38
 12848 333b 00010000 		.4byte	.LVL493
 12849 333f 86450000 		.4byte	0x4586
 12850 3343 4E330000 		.4byte	0x334e
 12851 3347 32       		.uleb128 0x32
 12852 3348 01       		.uleb128 0x1
 12853 3349 51       		.byte	0x51
 12854 334a 02       		.uleb128 0x2
 12855 334b 91       		.byte	0x91
 12856 334c 50       		.sleb128 -48
 12857 334d 00       		.byte	0
 12858 334e 38       		.uleb128 0x38
 12859 334f 08010000 		.4byte	.LVL495
 12860 3353 75450000 		.4byte	0x4575
 12861 3357 62330000 		.4byte	0x3362
 12862 335b 32       		.uleb128 0x32
 12863 335c 01       		.uleb128 0x1
 12864 335d 50       		.byte	0x50
 12865 335e 02       		.uleb128 0x2
 12866 335f 91       		.byte	0x91
 12867 3360 50       		.sleb128 -48
 12868 3361 00       		.byte	0
ARM GAS  C:\Users\jo\AppData\Local\Temp\ccpKXchH.s 			page 234


 12869 3362 38       		.uleb128 0x38
 12870 3363 24010000 		.4byte	.LVL497
 12871 3367 31160000 		.4byte	0x1631
 12872 336b 93330000 		.4byte	0x3393
 12873 336f 32       		.uleb128 0x32
 12874 3370 01       		.uleb128 0x1
 12875 3371 53       		.byte	0x53
 12876 3372 03       		.uleb128 0x3
 12877 3373 0A       		.byte	0xa
 12878 3374 3703     		.2byte	0x337
 12879 3376 32       		.uleb128 0x32
 12880 3377 01       		.uleb128 0x1
 12881 3378 52       		.byte	0x52
 12882 3379 05       		.uleb128 0x5
 12883 337a 03       		.byte	0x3
 12884 337b C0080000 		.4byte	.LC64
 12885 337f 32       		.uleb128 0x32
 12886 3380 01       		.uleb128 0x1
 12887 3381 51       		.byte	0x51
 12888 3382 05       		.uleb128 0x5
 12889 3383 03       		.byte	0x3
 12890 3384 08000000 		.4byte	.LC2
 12891 3388 32       		.uleb128 0x32
 12892 3389 02       		.uleb128 0x2
 12893 338a 7D       		.byte	0x7d
 12894 338b 00       		.sleb128 0
 12895 338c 05       		.uleb128 0x5
 12896 338d 03       		.byte	0x3
 12897 338e 3C000000 		.4byte	.LC4
 12898 3392 00       		.byte	0
 12899 3393 31       		.uleb128 0x31
 12900 3394 3C010000 		.4byte	.LVL501
 12901 3398 B6330000 		.4byte	0x33b6
 12902 339c 32       		.uleb128 0x32
 12903 339d 01       		.uleb128 0x1
 12904 339e 53       		.byte	0x53
 12905 339f 02       		.uleb128 0x2
 12906 33a0 79       		.byte	0x79
 12907 33a1 00       		.sleb128 0
 12908 33a2 32       		.uleb128 0x32
 12909 33a3 01       		.uleb128 0x1
 12910 33a4 52       		.byte	0x52
 12911 33a5 02       		.uleb128 0x2
 12912 33a6 74       		.byte	0x74
 12913 33a7 00       		.sleb128 0
 12914 33a8 32       		.uleb128 0x32
 12915 33a9 01       		.uleb128 0x1
 12916 33aa 51       		.byte	0x51
 12917 33ab 02       		.uleb128 0x2
 12918 33ac 77       		.byte	0x77
 12919 33ad 00       		.sleb128 0
 12920 33ae 32       		.uleb128 0x32
 12921 33af 01       		.uleb128 0x1
 12922 33b0 50       		.byte	0x50
 12923 33b1 02       		.uleb128 0x2
 12924 33b2 78       		.byte	0x78
 12925 33b3 00       		.sleb128 0
ARM GAS  C:\Users\jo\AppData\Local\Temp\ccpKXchH.s 			page 235


 12926 33b4 00       		.byte	0
 12927 33b5 00       		.byte	0
 12928 33b6 49       		.uleb128 0x49
 12929 33b7 E9040000 		.4byte	.LASF379
 12930 33bb 01       		.byte	0x1
 12931 33bc F202     		.2byte	0x2f2
 12932 33be 25000000 		.4byte	0x25
 12933 33c2 00000000 		.4byte	.LFB269
 12934 33c6 BC000000 		.4byte	.LFE269-.LFB269
 12935 33ca 01       		.uleb128 0x1
 12936 33cb 9C       		.byte	0x9c
 12937 33cc 07350000 		.4byte	0x3507
 12938 33d0 34       		.uleb128 0x34
 12939 33d1 7300     		.ascii	"s\000"
 12940 33d3 01       		.byte	0x1
 12941 33d4 F202     		.2byte	0x2f2
 12942 33d6 25000000 		.4byte	0x25
 12943 33da 751E0000 		.4byte	.LLST138
 12944 33de 3C       		.uleb128 0x3c
 12945 33df B9080000 		.4byte	.LASF326
 12946 33e3 01       		.byte	0x1
 12947 33e4 F202     		.2byte	0x2f2
 12948 33e6 84110000 		.4byte	0x1184
 12949 33ea AC1E0000 		.4byte	.LLST139
 12950 33ee 3C       		.uleb128 0x3c
 12951 33ef E50A0000 		.4byte	.LASF375
 12952 33f3 01       		.byte	0x1
 12953 33f4 F202     		.2byte	0x2f2
 12954 33f6 2C000000 		.4byte	0x2c
 12955 33fa E31E0000 		.4byte	.LLST140
 12956 33fe 3C       		.uleb128 0x3c
 12957 33ff 9A010000 		.4byte	.LASF185
 12958 3403 01       		.byte	0x1
 12959 3404 F202     		.2byte	0x2f2
 12960 3406 25000000 		.4byte	0x25
 12961 340a 0F1F0000 		.4byte	.LLST141
 12962 340e 35       		.uleb128 0x35
 12963 340f C1030000 		.4byte	.LASF314
 12964 3413 01       		.byte	0x1
 12965 3414 F402     		.2byte	0x2f4
 12966 3416 44150000 		.4byte	0x1544
 12967 341a 541F0000 		.4byte	.LLST142
 12968 341e 36       		.uleb128 0x36
 12969 341f 65727200 		.ascii	"err\000"
 12970 3423 01       		.byte	0x1
 12971 3424 F502     		.2byte	0x2f5
 12972 3426 4A0B0000 		.4byte	0xb4a
 12973 342a 721F0000 		.4byte	.LLST143
 12974 342e 35       		.uleb128 0x35
 12975 342f 58080000 		.4byte	.LASF380
 12976 3433 01       		.byte	0x1
 12977 3434 F602     		.2byte	0x2f6
 12978 3436 030A0000 		.4byte	0xa03
 12979 343a 851F0000 		.4byte	.LLST144
 12980 343e 3A       		.uleb128 0x3a
 12981 343f 46120000 		.4byte	.LASF381
 12982 3443 01       		.byte	0x1
ARM GAS  C:\Users\jo\AppData\Local\Temp\ccpKXchH.s 			page 236


 12983 3444 F702     		.2byte	0x2f7
 12984 3446 2C000000 		.4byte	0x2c
 12985 344a 02       		.uleb128 0x2
 12986 344b 91       		.byte	0x91
 12987 344c 64       		.sleb128 -28
 12988 344d 38       		.uleb128 0x38
 12989 344e 1E000000 		.4byte	.LVL508
 12990 3452 31160000 		.4byte	0x1631
 12991 3456 7E340000 		.4byte	0x347e
 12992 345a 32       		.uleb128 0x32
 12993 345b 01       		.uleb128 0x1
 12994 345c 53       		.byte	0x53
 12995 345d 02       		.uleb128 0x2
 12996 345e 78       		.byte	0x78
 12997 345f 00       		.sleb128 0
 12998 3460 32       		.uleb128 0x32
 12999 3461 01       		.uleb128 0x1
 13000 3462 52       		.byte	0x52
 13001 3463 02       		.uleb128 0x2
 13002 3464 74       		.byte	0x74
 13003 3465 00       		.sleb128 0
 13004 3466 32       		.uleb128 0x32
 13005 3467 01       		.uleb128 0x1
 13006 3468 51       		.byte	0x51
 13007 3469 05       		.uleb128 0x5
 13008 346a 03       		.byte	0x3
 13009 346b 18090000 		.4byte	.LC66
 13010 346f 32       		.uleb128 0x32
 13011 3470 02       		.uleb128 0x2
 13012 3471 7D       		.byte	0x7d
 13013 3472 04       		.sleb128 4
 13014 3473 02       		.uleb128 0x2
 13015 3474 76       		.byte	0x76
 13016 3475 00       		.sleb128 0
 13017 3476 32       		.uleb128 0x32
 13018 3477 02       		.uleb128 0x2
 13019 3478 7D       		.byte	0x7d
 13020 3479 00       		.sleb128 0
 13021 347a 02       		.uleb128 0x2
 13022 347b 77       		.byte	0x77
 13023 347c 00       		.sleb128 0
 13024 347d 00       		.byte	0
 13025 347e 38       		.uleb128 0x38
 13026 347f 24000000 		.4byte	.LVL509
 13027 3483 50150000 		.4byte	0x1550
 13028 3487 92340000 		.4byte	0x3492
 13029 348b 32       		.uleb128 0x32
 13030 348c 01       		.uleb128 0x1
 13031 348d 50       		.byte	0x50
 13032 348e 02       		.uleb128 0x2
 13033 348f 74       		.byte	0x74
 13034 3490 00       		.sleb128 0
 13035 3491 00       		.byte	0
 13036 3492 38       		.uleb128 0x38
 13037 3493 5E000000 		.4byte	.LVL515
 13038 3497 A0450000 		.4byte	0x45a0
 13039 349b B3340000 		.4byte	0x34b3
ARM GAS  C:\Users\jo\AppData\Local\Temp\ccpKXchH.s 			page 237


 13040 349f 32       		.uleb128 0x32
 13041 34a0 01       		.uleb128 0x1
 13042 34a1 52       		.byte	0x52
 13043 34a2 02       		.uleb128 0x2
 13044 34a3 77       		.byte	0x77
 13045 34a4 00       		.sleb128 0
 13046 34a5 32       		.uleb128 0x32
 13047 34a6 01       		.uleb128 0x1
 13048 34a7 51       		.byte	0x51
 13049 34a8 02       		.uleb128 0x2
 13050 34a9 78       		.byte	0x78
 13051 34aa 00       		.sleb128 0
 13052 34ab 32       		.uleb128 0x32
 13053 34ac 02       		.uleb128 0x2
 13054 34ad 7D       		.byte	0x7d
 13055 34ae 00       		.sleb128 0
 13056 34af 02       		.uleb128 0x2
 13057 34b0 91       		.byte	0x91
 13058 34b1 64       		.sleb128 -28
 13059 34b2 00       		.byte	0
 13060 34b3 38       		.uleb128 0x38
 13061 34b4 70000000 		.4byte	.LVL518
 13062 34b8 31160000 		.4byte	0x1631
 13063 34bc D6340000 		.4byte	0x34d6
 13064 34c0 32       		.uleb128 0x32
 13065 34c1 01       		.uleb128 0x1
 13066 34c2 53       		.byte	0x53
 13067 34c3 02       		.uleb128 0x2
 13068 34c4 76       		.byte	0x76
 13069 34c5 00       		.sleb128 0
 13070 34c6 32       		.uleb128 0x32
 13071 34c7 01       		.uleb128 0x1
 13072 34c8 52       		.byte	0x52
 13073 34c9 02       		.uleb128 0x2
 13074 34ca 74       		.byte	0x74
 13075 34cb 00       		.sleb128 0
 13076 34cc 32       		.uleb128 0x32
 13077 34cd 01       		.uleb128 0x1
 13078 34ce 51       		.byte	0x51
 13079 34cf 05       		.uleb128 0x5
 13080 34d0 03       		.byte	0x3
 13081 34d1 48090000 		.4byte	.LC67
 13082 34d5 00       		.byte	0
 13083 34d6 31       		.uleb128 0x31
 13084 34d7 A6000000 		.4byte	.LVL522
 13085 34db 1B310000 		.4byte	0x311b
 13086 34df 32       		.uleb128 0x32
 13087 34e0 01       		.uleb128 0x1
 13088 34e1 53       		.byte	0x53
 13089 34e2 02       		.uleb128 0x2
 13090 34e3 76       		.byte	0x76
 13091 34e4 00       		.sleb128 0
 13092 34e5 32       		.uleb128 0x32
 13093 34e6 01       		.uleb128 0x1
 13094 34e7 52       		.byte	0x52
 13095 34e8 02       		.uleb128 0x2
 13096 34e9 77       		.byte	0x77
ARM GAS  C:\Users\jo\AppData\Local\Temp\ccpKXchH.s 			page 238


 13097 34ea 00       		.sleb128 0
 13098 34eb 32       		.uleb128 0x32
 13099 34ec 01       		.uleb128 0x1
 13100 34ed 51       		.byte	0x51
 13101 34ee 02       		.uleb128 0x2
 13102 34ef 78       		.byte	0x78
 13103 34f0 00       		.sleb128 0
 13104 34f1 32       		.uleb128 0x32
 13105 34f2 01       		.uleb128 0x1
 13106 34f3 50       		.byte	0x50
 13107 34f4 02       		.uleb128 0x2
 13108 34f5 74       		.byte	0x74
 13109 34f6 00       		.sleb128 0
 13110 34f7 32       		.uleb128 0x32
 13111 34f8 02       		.uleb128 0x2
 13112 34f9 7D       		.byte	0x7d
 13113 34fa 04       		.sleb128 4
 13114 34fb 02       		.uleb128 0x2
 13115 34fc 75       		.byte	0x75
 13116 34fd 00       		.sleb128 0
 13117 34fe 32       		.uleb128 0x32
 13118 34ff 02       		.uleb128 0x2
 13119 3500 7D       		.byte	0x7d
 13120 3501 00       		.sleb128 0
 13121 3502 02       		.uleb128 0x2
 13122 3503 75       		.byte	0x75
 13123 3504 00       		.sleb128 0
 13124 3505 00       		.byte	0
 13125 3506 00       		.byte	0
 13126 3507 49       		.uleb128 0x49
 13127 3508 BB050000 		.4byte	.LASF382
 13128 350c 01       		.byte	0x1
 13129 350d B403     		.2byte	0x3b4
 13130 350f 25000000 		.4byte	0x25
 13131 3513 00000000 		.4byte	.LFB271
 13132 3517 04010000 		.4byte	.LFE271-.LFB271
 13133 351b 01       		.uleb128 0x1
 13134 351c 9C       		.byte	0x9c
 13135 351d 03370000 		.4byte	0x3703
 13136 3521 3C       		.uleb128 0x3c
 13137 3522 2E0E0000 		.4byte	.LASF383
 13138 3526 01       		.byte	0x1
 13139 3527 B403     		.2byte	0x3b4
 13140 3529 25000000 		.4byte	0x25
 13141 352d D21F0000 		.4byte	.LLST145
 13142 3531 3C       		.uleb128 0x3c
 13143 3532 1A090000 		.4byte	.LASF184
 13144 3536 01       		.byte	0x1
 13145 3537 B403     		.2byte	0x3b4
 13146 3539 25000000 		.4byte	0x25
 13147 353d 3D200000 		.4byte	.LLST146
 13148 3541 3C       		.uleb128 0x3c
 13149 3542 43030000 		.4byte	.LASF384
 13150 3546 01       		.byte	0x1
 13151 3547 B403     		.2byte	0x3b4
 13152 3549 25000000 		.4byte	0x25
 13153 354d B4200000 		.4byte	.LLST147
ARM GAS  C:\Users\jo\AppData\Local\Temp\ccpKXchH.s 			page 239


 13154 3551 35       		.uleb128 0x35
 13155 3552 E6060000 		.4byte	.LASF271
 13156 3556 01       		.byte	0x1
 13157 3557 B603     		.2byte	0x3b6
 13158 3559 C70C0000 		.4byte	0xcc7
 13159 355d 3E210000 		.4byte	.LLST148
 13160 3561 36       		.uleb128 0x36
 13161 3562 6900     		.ascii	"i\000"
 13162 3564 01       		.byte	0x1
 13163 3565 B703     		.2byte	0x3b7
 13164 3567 25000000 		.4byte	0x25
 13165 356b 88210000 		.4byte	.LLST149
 13166 356f 38       		.uleb128 0x38
 13167 3570 22000000 		.4byte	.LVL528
 13168 3574 31160000 		.4byte	0x1631
 13169 3578 9A350000 		.4byte	0x359a
 13170 357c 32       		.uleb128 0x32
 13171 357d 01       		.uleb128 0x1
 13172 357e 53       		.byte	0x53
 13173 357f 03       		.uleb128 0x3
 13174 3580 F3       		.byte	0xf3
 13175 3581 01       		.uleb128 0x1
 13176 3582 51       		.byte	0x51
 13177 3583 32       		.uleb128 0x32
 13178 3584 01       		.uleb128 0x1
 13179 3585 52       		.byte	0x52
 13180 3586 02       		.uleb128 0x2
 13181 3587 76       		.byte	0x76
 13182 3588 00       		.sleb128 0
 13183 3589 32       		.uleb128 0x32
 13184 358a 01       		.uleb128 0x1
 13185 358b 51       		.byte	0x51
 13186 358c 05       		.uleb128 0x5
 13187 358d 03       		.byte	0x3
 13188 358e 140A0000 		.4byte	.LC74
 13189 3592 32       		.uleb128 0x32
 13190 3593 02       		.uleb128 0x2
 13191 3594 7D       		.byte	0x7d
 13192 3595 00       		.sleb128 0
 13193 3596 02       		.uleb128 0x2
 13194 3597 74       		.byte	0x74
 13195 3598 00       		.sleb128 0
 13196 3599 00       		.byte	0
 13197 359a 38       		.uleb128 0x38
 13198 359b 36000000 		.4byte	.LVL534
 13199 359f CF450000 		.4byte	0x45cf
 13200 35a3 BB350000 		.4byte	0x35bb
 13201 35a7 32       		.uleb128 0x32
 13202 35a8 01       		.uleb128 0x1
 13203 35a9 52       		.byte	0x52
 13204 35aa 05       		.uleb128 0x5
 13205 35ab 03       		.byte	0x3
 13206 35ac 00000000 		.4byte	event_callback
 13207 35b0 32       		.uleb128 0x32
 13208 35b1 01       		.uleb128 0x1
 13209 35b2 51       		.byte	0x51
 13210 35b3 01       		.uleb128 0x1
ARM GAS  C:\Users\jo\AppData\Local\Temp\ccpKXchH.s 			page 240


 13211 35b4 30       		.byte	0x30
 13212 35b5 32       		.uleb128 0x32
 13213 35b6 01       		.uleb128 0x1
 13214 35b7 50       		.byte	0x50
 13215 35b8 01       		.uleb128 0x1
 13216 35b9 40       		.byte	0x40
 13217 35ba 00       		.byte	0
 13218 35bb 38       		.uleb128 0x38
 13219 35bc 4A000000 		.4byte	.LVL537
 13220 35c0 31160000 		.4byte	0x1631
 13221 35c4 EC350000 		.4byte	0x35ec
 13222 35c8 32       		.uleb128 0x32
 13223 35c9 01       		.uleb128 0x1
 13224 35ca 53       		.byte	0x53
 13225 35cb 02       		.uleb128 0x2
 13226 35cc 74       		.byte	0x74
 13227 35cd 00       		.sleb128 0
 13228 35ce 32       		.uleb128 0x32
 13229 35cf 01       		.uleb128 0x1
 13230 35d0 52       		.byte	0x52
 13231 35d1 10       		.uleb128 0x10
 13232 35d2 77       		.byte	0x77
 13233 35d3 00       		.sleb128 0
 13234 35d4 03       		.byte	0x3
 13235 35d5 74090000 		.4byte	.LC69
 13236 35d9 76       		.byte	0x76
 13237 35da 00       		.sleb128 0
 13238 35db 32       		.byte	0x32
 13239 35dc 29       		.byte	0x29
 13240 35dd 28       		.byte	0x28
 13241 35de 0100     		.2byte	0x1
 13242 35e0 16       		.byte	0x16
 13243 35e1 13       		.byte	0x13
 13244 35e2 32       		.uleb128 0x32
 13245 35e3 01       		.uleb128 0x1
 13246 35e4 51       		.byte	0x51
 13247 35e5 05       		.uleb128 0x5
 13248 35e6 03       		.byte	0x3
 13249 35e7 C4090000 		.4byte	.LC72
 13250 35eb 00       		.byte	0
 13251 35ec 38       		.uleb128 0x38
 13252 35ed 5C000000 		.4byte	.LVL538
 13253 35f1 EC150000 		.4byte	0x15ec
 13254 35f5 05360000 		.4byte	0x3605
 13255 35f9 32       		.uleb128 0x32
 13256 35fa 01       		.uleb128 0x1
 13257 35fb 51       		.byte	0x51
 13258 35fc 01       		.uleb128 0x1
 13259 35fd 30       		.byte	0x30
 13260 35fe 32       		.uleb128 0x32
 13261 35ff 01       		.uleb128 0x1
 13262 3600 50       		.byte	0x50
 13263 3601 02       		.uleb128 0x2
 13264 3602 75       		.byte	0x75
 13265 3603 00       		.sleb128 0
 13266 3604 00       		.byte	0
 13267 3605 38       		.uleb128 0x38
ARM GAS  C:\Users\jo\AppData\Local\Temp\ccpKXchH.s 			page 241


 13268 3606 6E000000 		.4byte	.LVL541
 13269 360a 31160000 		.4byte	0x1631
 13270 360e 22360000 		.4byte	0x3622
 13271 3612 32       		.uleb128 0x32
 13272 3613 01       		.uleb128 0x1
 13273 3614 52       		.byte	0x52
 13274 3615 02       		.uleb128 0x2
 13275 3616 74       		.byte	0x74
 13276 3617 00       		.sleb128 0
 13277 3618 32       		.uleb128 0x32
 13278 3619 01       		.uleb128 0x1
 13279 361a 51       		.byte	0x51
 13280 361b 05       		.uleb128 0x5
 13281 361c 03       		.byte	0x3
 13282 361d 3C0A0000 		.4byte	.LC75
 13283 3621 00       		.byte	0
 13284 3622 38       		.uleb128 0x38
 13285 3623 80000000 		.4byte	.LVL546
 13286 3627 CF450000 		.4byte	0x45cf
 13287 362b 3F360000 		.4byte	0x363f
 13288 362f 32       		.uleb128 0x32
 13289 3630 01       		.uleb128 0x1
 13290 3631 52       		.byte	0x52
 13291 3632 05       		.uleb128 0x5
 13292 3633 03       		.byte	0x3
 13293 3634 00000000 		.4byte	event_callback
 13294 3638 32       		.uleb128 0x32
 13295 3639 01       		.uleb128 0x1
 13296 363a 50       		.byte	0x50
 13297 363b 02       		.uleb128 0x2
 13298 363c 08       		.byte	0x8
 13299 363d 40       		.byte	0x40
 13300 363e 00       		.byte	0
 13301 363f 38       		.uleb128 0x38
 13302 3640 94000000 		.4byte	.LVL549
 13303 3644 31160000 		.4byte	0x1631
 13304 3648 70360000 		.4byte	0x3670
 13305 364c 32       		.uleb128 0x32
 13306 364d 01       		.uleb128 0x1
 13307 364e 53       		.byte	0x53
 13308 364f 02       		.uleb128 0x2
 13309 3650 74       		.byte	0x74
 13310 3651 00       		.sleb128 0
 13311 3652 32       		.uleb128 0x32
 13312 3653 01       		.uleb128 0x1
 13313 3654 52       		.byte	0x52
 13314 3655 10       		.uleb128 0x10
 13315 3656 77       		.byte	0x77
 13316 3657 00       		.sleb128 0
 13317 3658 03       		.byte	0x3
 13318 3659 74090000 		.4byte	.LC69
 13319 365d 76       		.byte	0x76
 13320 365e 00       		.sleb128 0
 13321 365f 32       		.byte	0x32
 13322 3660 29       		.byte	0x29
 13323 3661 28       		.byte	0x28
 13324 3662 0100     		.2byte	0x1
ARM GAS  C:\Users\jo\AppData\Local\Temp\ccpKXchH.s 			page 242


 13325 3664 16       		.byte	0x16
 13326 3665 13       		.byte	0x13
 13327 3666 32       		.uleb128 0x32
 13328 3667 01       		.uleb128 0x1
 13329 3668 51       		.byte	0x51
 13330 3669 05       		.uleb128 0x5
 13331 366a 03       		.byte	0x3
 13332 366b 7C090000 		.4byte	.LC70
 13333 366f 00       		.byte	0
 13334 3670 38       		.uleb128 0x38
 13335 3671 A0000000 		.4byte	.LVL551
 13336 3675 31160000 		.4byte	0x1631
 13337 3679 87360000 		.4byte	0x3687
 13338 367d 32       		.uleb128 0x32
 13339 367e 01       		.uleb128 0x1
 13340 367f 51       		.byte	0x51
 13341 3680 05       		.uleb128 0x5
 13342 3681 03       		.byte	0x3
 13343 3682 E8090000 		.4byte	.LC73
 13344 3686 00       		.byte	0
 13345 3687 38       		.uleb128 0x38
 13346 3688 B8000000 		.4byte	.LVL556
 13347 368c CF450000 		.4byte	0x45cf
 13348 3690 C1360000 		.4byte	0x36c1
 13349 3694 32       		.uleb128 0x32
 13350 3695 01       		.uleb128 0x1
 13351 3696 52       		.byte	0x52
 13352 3697 05       		.uleb128 0x5
 13353 3698 03       		.byte	0x3
 13354 3699 00000000 		.4byte	event_callback
 13355 369d 32       		.uleb128 0x32
 13356 369e 01       		.uleb128 0x1
 13357 369f 51       		.byte	0x51
 13358 36a0 01       		.uleb128 0x1
 13359 36a1 30       		.byte	0x30
 13360 36a2 32       		.uleb128 0x32
 13361 36a3 01       		.uleb128 0x1
 13362 36a4 50       		.byte	0x50
 13363 36a5 1A       		.uleb128 0x1a
 13364 36a6 08       		.byte	0x8
 13365 36a7 20       		.byte	0x20
 13366 36a8 08       		.byte	0x8
 13367 36a9 21       		.byte	0x21
 13368 36aa 76       		.byte	0x76
 13369 36ab 00       		.sleb128 0
 13370 36ac 74       		.byte	0x74
 13371 36ad 00       		.sleb128 0
 13372 36ae 08       		.byte	0x8
 13373 36af 88       		.byte	0x88
 13374 36b0 29       		.byte	0x29
 13375 36b1 28       		.byte	0x28
 13376 36b2 0100     		.2byte	0x1
 13377 36b4 16       		.byte	0x16
 13378 36b5 13       		.byte	0x13
 13379 36b6 74       		.byte	0x74
 13380 36b7 00       		.sleb128 0
 13381 36b8 08       		.byte	0x8
ARM GAS  C:\Users\jo\AppData\Local\Temp\ccpKXchH.s 			page 243


 13382 36b9 88       		.byte	0x88
 13383 36ba 2E       		.byte	0x2e
 13384 36bb 28       		.byte	0x28
 13385 36bc 0100     		.2byte	0x1
 13386 36be 16       		.byte	0x16
 13387 36bf 13       		.byte	0x13
 13388 36c0 00       		.byte	0
 13389 36c1 38       		.uleb128 0x38
 13390 36c2 CC000000 		.4byte	.LVL559
 13391 36c6 31160000 		.4byte	0x1631
 13392 36ca F2360000 		.4byte	0x36f2
 13393 36ce 32       		.uleb128 0x32
 13394 36cf 01       		.uleb128 0x1
 13395 36d0 53       		.byte	0x53
 13396 36d1 02       		.uleb128 0x2
 13397 36d2 74       		.byte	0x74
 13398 36d3 00       		.sleb128 0
 13399 36d4 32       		.uleb128 0x32
 13400 36d5 01       		.uleb128 0x1
 13401 36d6 52       		.byte	0x52
 13402 36d7 10       		.uleb128 0x10
 13403 36d8 77       		.byte	0x77
 13404 36d9 00       		.sleb128 0
 13405 36da 03       		.byte	0x3
 13406 36db 74090000 		.4byte	.LC69
 13407 36df 76       		.byte	0x76
 13408 36e0 00       		.sleb128 0
 13409 36e1 32       		.byte	0x32
 13410 36e2 29       		.byte	0x29
 13411 36e3 28       		.byte	0x28
 13412 36e4 0100     		.2byte	0x1
 13413 36e6 16       		.byte	0x16
 13414 36e7 13       		.byte	0x13
 13415 36e8 32       		.uleb128 0x32
 13416 36e9 01       		.uleb128 0x1
 13417 36ea 51       		.byte	0x51
 13418 36eb 05       		.uleb128 0x5
 13419 36ec 03       		.byte	0x3
 13420 36ed A0090000 		.4byte	.LC71
 13421 36f1 00       		.byte	0
 13422 36f2 31       		.uleb128 0x31
 13423 36f3 D8000000 		.4byte	.LVL562
 13424 36f7 1F440000 		.4byte	0x441f
 13425 36fb 32       		.uleb128 0x32
 13426 36fc 01       		.uleb128 0x1
 13427 36fd 50       		.byte	0x50
 13428 36fe 02       		.uleb128 0x2
 13429 36ff 75       		.byte	0x75
 13430 3700 00       		.sleb128 0
 13431 3701 00       		.byte	0
 13432 3702 00       		.byte	0
 13433 3703 49       		.uleb128 0x49
 13434 3704 940E0000 		.4byte	.LASF385
 13435 3708 01       		.byte	0x1
 13436 3709 EC03     		.2byte	0x3ec
 13437 370b 25000000 		.4byte	0x25
 13438 370f 00000000 		.4byte	.LFB272
ARM GAS  C:\Users\jo\AppData\Local\Temp\ccpKXchH.s 			page 244


 13439 3713 06000000 		.4byte	.LFE272-.LFB272
 13440 3717 01       		.uleb128 0x1
 13441 3718 9C       		.byte	0x9c
 13442 3719 70370000 		.4byte	0x3770
 13443 371d 34       		.uleb128 0x34
 13444 371e 7300     		.ascii	"s\000"
 13445 3720 01       		.byte	0x1
 13446 3721 EC03     		.2byte	0x3ec
 13447 3723 25000000 		.4byte	0x25
 13448 3727 BC210000 		.4byte	.LLST150
 13449 372b 3C       		.uleb128 0x3c
 13450 372c B9080000 		.4byte	.LASF326
 13451 3730 01       		.byte	0x1
 13452 3731 EC03     		.2byte	0x3ec
 13453 3733 84110000 		.4byte	0x1184
 13454 3737 DD210000 		.4byte	.LLST151
 13455 373b 3C       		.uleb128 0x3c
 13456 373c E50A0000 		.4byte	.LASF375
 13457 3740 01       		.byte	0x1
 13458 3741 EC03     		.2byte	0x3ec
 13459 3743 2C000000 		.4byte	0x2c
 13460 3747 FE210000 		.4byte	.LLST152
 13461 374b 4A       		.uleb128 0x4a
 13462 374c 06000000 		.4byte	.LVL564
 13463 3750 B6330000 		.4byte	0x33b6
 13464 3754 32       		.uleb128 0x32
 13465 3755 01       		.uleb128 0x1
 13466 3756 53       		.byte	0x53
 13467 3757 01       		.uleb128 0x1
 13468 3758 30       		.byte	0x30
 13469 3759 32       		.uleb128 0x32
 13470 375a 01       		.uleb128 0x1
 13471 375b 52       		.byte	0x52
 13472 375c 03       		.uleb128 0x3
 13473 375d F3       		.byte	0xf3
 13474 375e 01       		.uleb128 0x1
 13475 375f 52       		.byte	0x52
 13476 3760 32       		.uleb128 0x32
 13477 3761 01       		.uleb128 0x1
 13478 3762 51       		.byte	0x51
 13479 3763 03       		.uleb128 0x3
 13480 3764 F3       		.byte	0xf3
 13481 3765 01       		.uleb128 0x1
 13482 3766 51       		.byte	0x51
 13483 3767 32       		.uleb128 0x32
 13484 3768 01       		.uleb128 0x1
 13485 3769 50       		.byte	0x50
 13486 376a 03       		.uleb128 0x3
 13487 376b F3       		.byte	0xf3
 13488 376c 01       		.uleb128 0x1
 13489 376d 50       		.byte	0x50
 13490 376e 00       		.byte	0
 13491 376f 00       		.byte	0
 13492 3770 49       		.uleb128 0x49
 13493 3771 27090000 		.4byte	.LASF386
 13494 3775 01       		.byte	0x1
 13495 3776 4004     		.2byte	0x440
ARM GAS  C:\Users\jo\AppData\Local\Temp\ccpKXchH.s 			page 245


 13496 3778 25000000 		.4byte	0x25
 13497 377c 00000000 		.4byte	.LFB274
 13498 3780 18040000 		.4byte	.LFE274-.LFB274
 13499 3784 01       		.uleb128 0x1
 13500 3785 9C       		.byte	0x9c
 13501 3786 FA3C0000 		.4byte	0x3cfa
 13502 378a 3C       		.uleb128 0x3c
 13503 378b 77020000 		.4byte	.LASF331
 13504 378f 01       		.byte	0x1
 13505 3790 4004     		.2byte	0x440
 13506 3792 25000000 		.4byte	0x25
 13507 3796 1F220000 		.4byte	.LLST153
 13508 379a 3C       		.uleb128 0x3c
 13509 379b 2B080000 		.4byte	.LASF309
 13510 379f 01       		.byte	0x1
 13511 37a0 4004     		.2byte	0x440
 13512 37a2 DF140000 		.4byte	0x14df
 13513 37a6 6C220000 		.4byte	.LLST154
 13514 37aa 3C       		.uleb128 0x3c
 13515 37ab FE120000 		.4byte	.LASF310
 13516 37af 01       		.byte	0x1
 13517 37b0 4004     		.2byte	0x440
 13518 37b2 DF140000 		.4byte	0x14df
 13519 37b6 B9220000 		.4byte	.LLST155
 13520 37ba 3C       		.uleb128 0x3c
 13521 37bb C50A0000 		.4byte	.LASF311
 13522 37bf 01       		.byte	0x1
 13523 37c0 4004     		.2byte	0x440
 13524 37c2 DF140000 		.4byte	0x14df
 13525 37c6 06230000 		.4byte	.LLST156
 13526 37ca 3C       		.uleb128 0x3c
 13527 37cb 8E100000 		.4byte	.LASF387
 13528 37cf 01       		.byte	0x1
 13529 37d0 4104     		.2byte	0x441
 13530 37d2 FA3C0000 		.4byte	0x3cfa
 13531 37d6 53230000 		.4byte	.LLST157
 13532 37da 35       		.uleb128 0x35
 13533 37db 0F100000 		.4byte	.LASF388
 13534 37df 01       		.byte	0x1
 13535 37e0 4304     		.2byte	0x443
 13536 37e2 2F0A0000 		.4byte	0xa2f
 13537 37e6 8B230000 		.4byte	.LLST158
 13538 37ea 35       		.uleb128 0x35
 13539 37eb E70D0000 		.4byte	.LASF338
 13540 37ef 01       		.byte	0x1
 13541 37f0 4404     		.2byte	0x444
 13542 37f2 25000000 		.4byte	0x25
 13543 37f6 2E240000 		.4byte	.LLST159
 13544 37fa 3A       		.uleb128 0x3a
 13545 37fb FD060000 		.4byte	.LASF339
 13546 37ff 01       		.byte	0x1
 13547 3800 4504     		.2byte	0x445
 13548 3802 1A060000 		.4byte	0x61a
 13549 3806 03       		.uleb128 0x3
 13550 3807 91       		.byte	0x91
 13551 3808 A47F     		.sleb128 -92
 13552 380a 3A       		.uleb128 0x3a
ARM GAS  C:\Users\jo\AppData\Local\Temp\ccpKXchH.s 			page 246


 13553 380b 340A0000 		.4byte	.LASF340
 13554 380f 01       		.byte	0x1
 13555 3810 4504     		.2byte	0x445
 13556 3812 1A060000 		.4byte	0x61a
 13557 3816 03       		.uleb128 0x3
 13558 3817 91       		.byte	0x91
 13559 3818 AC7F     		.sleb128 -84
 13560 381a 3A       		.uleb128 0x3a
 13561 381b 60130000 		.4byte	.LASF341
 13562 381f 01       		.byte	0x1
 13563 3820 4504     		.2byte	0x445
 13564 3822 1A060000 		.4byte	0x61a
 13565 3826 03       		.uleb128 0x3
 13566 3827 91       		.byte	0x91
 13567 3828 B47F     		.sleb128 -76
 13568 382a 35       		.uleb128 0x35
 13569 382b 89090000 		.4byte	.LASF389
 13570 382f 01       		.byte	0x1
 13571 3830 4604     		.2byte	0x446
 13572 3832 2F0A0000 		.4byte	0xa2f
 13573 3836 07250000 		.4byte	.LLST160
 13574 383a 3A       		.uleb128 0x3a
 13575 383b 8A0E0000 		.4byte	.LASF390
 13576 383f 01       		.byte	0x1
 13577 3840 4704     		.2byte	0x447
 13578 3842 78140000 		.4byte	0x1478
 13579 3846 03       		.uleb128 0x3
 13580 3847 91       		.byte	0x91
 13581 3848 BC7F     		.sleb128 -68
 13582 384a 36       		.uleb128 0x36
 13583 384b 65727200 		.ascii	"err\000"
 13584 384f 01       		.byte	0x1
 13585 3850 4804     		.2byte	0x448
 13586 3852 4A0B0000 		.4byte	0xb4a
 13587 3856 32250000 		.4byte	.LLST161
 13588 385a 36       		.uleb128 0x36
 13589 385b 6900     		.ascii	"i\000"
 13590 385d 01       		.byte	0x1
 13591 385e 4904     		.2byte	0x449
 13592 3860 25000000 		.4byte	0x25
 13593 3864 5B250000 		.4byte	.LLST162
 13594 3868 4B       		.uleb128 0x4b
 13595 3869 270B0000 		.4byte	.LASF441
 13596 386d 01       		.byte	0x1
 13597 386e CA04     		.2byte	0x4ca
 13598 3870 D0010000 		.4byte	.L485
 13599 3874 45       		.uleb128 0x45
 13600 3875 C0000000 		.4byte	.Ldebug_ranges0+0xc0
 13601 3879 06390000 		.4byte	0x3906
 13602 387d 3D       		.uleb128 0x3d
 13603 387e C1030000 		.4byte	.LASF314
 13604 3882 01       		.byte	0x1
 13605 3883 8404     		.2byte	0x484
 13606 3885 44150000 		.4byte	0x1544
 13607 3889 40       		.uleb128 0x40
 13608 388a 8F150000 		.4byte	0x158f
 13609 388e C6000000 		.4byte	.LBB156
ARM GAS  C:\Users\jo\AppData\Local\Temp\ccpKXchH.s 			page 247


 13610 3892 D8000000 		.4byte	.Ldebug_ranges0+0xd8
 13611 3896 01       		.byte	0x1
 13612 3897 8404     		.2byte	0x484
 13613 3899 A7380000 		.4byte	0x38a7
 13614 389d 2D       		.uleb128 0x2d
 13615 389e 9F150000 		.4byte	0x159f
 13616 38a2 CB250000 		.4byte	.LLST163
 13617 38a6 00       		.byte	0
 13618 38a7 37       		.uleb128 0x37
 13619 38a8 75150000 		.4byte	0x1575
 13620 38ac E4030000 		.4byte	.LBB160
 13621 38b0 08000000 		.4byte	.LBE160-.LBB160
 13622 38b4 01       		.byte	0x1
 13623 38b5 8804     		.2byte	0x488
 13624 38b7 D8380000 		.4byte	0x38d8
 13625 38bb 2D       		.uleb128 0x2d
 13626 38bc 82150000 		.4byte	0x1582
 13627 38c0 E9250000 		.4byte	.LLST164
 13628 38c4 31       		.uleb128 0x31
 13629 38c5 EA030000 		.4byte	.LVL638
 13630 38c9 87430000 		.4byte	0x4387
 13631 38cd 32       		.uleb128 0x32
 13632 38ce 01       		.uleb128 0x1
 13633 38cf 50       		.byte	0x50
 13634 38d0 05       		.uleb128 0x5
 13635 38d1 03       		.byte	0x3
 13636 38d2 9C0A0000 		.4byte	.LC78
 13637 38d6 00       		.byte	0
 13638 38d7 00       		.byte	0
 13639 38d8 31       		.uleb128 0x31
 13640 38d9 E4030000 		.4byte	.LVL637
 13641 38dd 31160000 		.4byte	0x1631
 13642 38e1 32       		.uleb128 0x32
 13643 38e2 01       		.uleb128 0x1
 13644 38e3 53       		.byte	0x53
 13645 38e4 03       		.uleb128 0x3
 13646 38e5 0A       		.byte	0xa
 13647 38e6 8804     		.2byte	0x488
 13648 38e8 32       		.uleb128 0x32
 13649 38e9 01       		.uleb128 0x1
 13650 38ea 52       		.byte	0x52
 13651 38eb 05       		.uleb128 0x5
 13652 38ec 03       		.byte	0x3
 13653 38ed 9C0A0000 		.4byte	.LC78
 13654 38f1 32       		.uleb128 0x32
 13655 38f2 01       		.uleb128 0x1
 13656 38f3 51       		.byte	0x51
 13657 38f4 05       		.uleb128 0x5
 13658 38f5 03       		.byte	0x3
 13659 38f6 08000000 		.4byte	.LC2
 13660 38fa 32       		.uleb128 0x32
 13661 38fb 02       		.uleb128 0x2
 13662 38fc 7D       		.byte	0x7d
 13663 38fd 00       		.sleb128 0
 13664 38fe 05       		.uleb128 0x5
 13665 38ff 03       		.byte	0x3
 13666 3900 3C000000 		.4byte	.LC4
ARM GAS  C:\Users\jo\AppData\Local\Temp\ccpKXchH.s 			page 248


 13667 3904 00       		.byte	0
 13668 3905 00       		.byte	0
 13669 3906 45       		.uleb128 0x45
 13670 3907 F0000000 		.4byte	.Ldebug_ranges0+0xf0
 13671 390b D2390000 		.4byte	0x39d2
 13672 390f 3D       		.uleb128 0x3d
 13673 3910 C1030000 		.4byte	.LASF314
 13674 3914 01       		.byte	0x1
 13675 3915 A404     		.2byte	0x4a4
 13676 3917 44150000 		.4byte	0x1544
 13677 391b 37       		.uleb128 0x37
 13678 391c 75150000 		.4byte	0x1575
 13679 3920 DE000000 		.4byte	.LBB163
 13680 3924 06000000 		.4byte	.LBE163-.LBB163
 13681 3928 01       		.byte	0x1
 13682 3929 A504     		.2byte	0x4a5
 13683 392b 4C390000 		.4byte	0x394c
 13684 392f 2D       		.uleb128 0x2d
 13685 3930 82150000 		.4byte	0x1582
 13686 3934 01260000 		.4byte	.LLST165
 13687 3938 31       		.uleb128 0x31
 13688 3939 E4000000 		.4byte	.LVL579
 13689 393d 87430000 		.4byte	0x4387
 13690 3941 32       		.uleb128 0x32
 13691 3942 01       		.uleb128 0x1
 13692 3943 50       		.byte	0x50
 13693 3944 05       		.uleb128 0x5
 13694 3945 03       		.byte	0x3
 13695 3946 3C0B0000 		.4byte	.LC84
 13696 394a 00       		.byte	0
 13697 394b 00       		.byte	0
 13698 394c 40       		.uleb128 0x40
 13699 394d 8F150000 		.4byte	0x158f
 13700 3951 30020000 		.4byte	.LBB165
 13701 3955 10010000 		.4byte	.Ldebug_ranges0+0x110
 13702 3959 01       		.byte	0x1
 13703 395a A404     		.2byte	0x4a4
 13704 395c 6A390000 		.4byte	0x396a
 13705 3960 2D       		.uleb128 0x2d
 13706 3961 9F150000 		.4byte	0x159f
 13707 3965 19260000 		.4byte	.LLST166
 13708 3969 00       		.byte	0
 13709 396a 37       		.uleb128 0x37
 13710 396b 75150000 		.4byte	0x1575
 13711 396f B0030000 		.4byte	.LBB169
 13712 3973 08000000 		.4byte	.LBE169-.LBB169
 13713 3977 01       		.byte	0x1
 13714 3978 A804     		.2byte	0x4a8
 13715 397a 9B390000 		.4byte	0x399b
 13716 397e 2D       		.uleb128 0x2d
 13717 397f 82150000 		.4byte	0x1582
 13718 3983 37260000 		.4byte	.LLST167
 13719 3987 31       		.uleb128 0x31
 13720 3988 B6030000 		.4byte	.LVL635
 13721 398c 87430000 		.4byte	0x4387
 13722 3990 32       		.uleb128 0x32
 13723 3991 01       		.uleb128 0x1
ARM GAS  C:\Users\jo\AppData\Local\Temp\ccpKXchH.s 			page 249


 13724 3992 50       		.byte	0x50
 13725 3993 05       		.uleb128 0x5
 13726 3994 03       		.byte	0x3
 13727 3995 B80A0000 		.4byte	.LC79
 13728 3999 00       		.byte	0
 13729 399a 00       		.byte	0
 13730 399b 47       		.uleb128 0x47
 13731 399c DE000000 		.4byte	.LVL578
 13732 39a0 31160000 		.4byte	0x1631
 13733 39a4 31       		.uleb128 0x31
 13734 39a5 B0030000 		.4byte	.LVL634
 13735 39a9 31160000 		.4byte	0x1631
 13736 39ad 32       		.uleb128 0x32
 13737 39ae 01       		.uleb128 0x1
 13738 39af 53       		.byte	0x53
 13739 39b0 03       		.uleb128 0x3
 13740 39b1 0A       		.byte	0xa
 13741 39b2 A804     		.2byte	0x4a8
 13742 39b4 32       		.uleb128 0x32
 13743 39b5 01       		.uleb128 0x1
 13744 39b6 52       		.byte	0x52
 13745 39b7 05       		.uleb128 0x5
 13746 39b8 03       		.byte	0x3
 13747 39b9 B80A0000 		.4byte	.LC79
 13748 39bd 32       		.uleb128 0x32
 13749 39be 01       		.uleb128 0x1
 13750 39bf 51       		.byte	0x51
 13751 39c0 05       		.uleb128 0x5
 13752 39c1 03       		.byte	0x3
 13753 39c2 08000000 		.4byte	.LC2
 13754 39c6 32       		.uleb128 0x32
 13755 39c7 02       		.uleb128 0x2
 13756 39c8 7D       		.byte	0x7d
 13757 39c9 00       		.sleb128 0
 13758 39ca 05       		.uleb128 0x5
 13759 39cb 03       		.byte	0x3
 13760 39cc 3C000000 		.4byte	.LC4
 13761 39d0 00       		.byte	0
 13762 39d1 00       		.byte	0
 13763 39d2 37       		.uleb128 0x37
 13764 39d3 75150000 		.4byte	0x1575
 13765 39d7 1C030000 		.4byte	.LBB172
 13766 39db 08000000 		.4byte	.LBE172-.LBB172
 13767 39df 01       		.byte	0x1
 13768 39e0 B204     		.2byte	0x4b2
 13769 39e2 033A0000 		.4byte	0x3a03
 13770 39e6 2D       		.uleb128 0x2d
 13771 39e7 82150000 		.4byte	0x1582
 13772 39eb 4F260000 		.4byte	.LLST168
 13773 39ef 31       		.uleb128 0x31
 13774 39f0 22030000 		.4byte	.LVL619
 13775 39f4 87430000 		.4byte	0x4387
 13776 39f8 32       		.uleb128 0x32
 13777 39f9 01       		.uleb128 0x1
 13778 39fa 50       		.byte	0x50
 13779 39fb 05       		.uleb128 0x5
 13780 39fc 03       		.byte	0x3
ARM GAS  C:\Users\jo\AppData\Local\Temp\ccpKXchH.s 			page 250


 13781 39fd D40A0000 		.4byte	.LC80
 13782 3a01 00       		.byte	0
 13783 3a02 00       		.byte	0
 13784 3a03 37       		.uleb128 0x37
 13785 3a04 75150000 		.4byte	0x1575
 13786 3a08 72030000 		.4byte	.LBB174
 13787 3a0c 0C000000 		.4byte	.LBE174-.LBB174
 13788 3a10 01       		.byte	0x1
 13789 3a11 B504     		.2byte	0x4b5
 13790 3a13 343A0000 		.4byte	0x3a34
 13791 3a17 2D       		.uleb128 0x2d
 13792 3a18 82150000 		.4byte	0x1582
 13793 3a1c 67260000 		.4byte	.LLST169
 13794 3a20 31       		.uleb128 0x31
 13795 3a21 78030000 		.4byte	.LVL631
 13796 3a25 87430000 		.4byte	0x4387
 13797 3a29 32       		.uleb128 0x32
 13798 3a2a 01       		.uleb128 0x1
 13799 3a2b 50       		.byte	0x50
 13800 3a2c 05       		.uleb128 0x5
 13801 3a2d 03       		.byte	0x3
 13802 3a2e EC0A0000 		.4byte	.LC81
 13803 3a32 00       		.byte	0
 13804 3a33 00       		.byte	0
 13805 3a34 38       		.uleb128 0x38
 13806 3a35 3E000000 		.4byte	.LVL569
 13807 3a39 31160000 		.4byte	0x1631
 13808 3a3d 653A0000 		.4byte	0x3a65
 13809 3a41 32       		.uleb128 0x32
 13810 3a42 01       		.uleb128 0x1
 13811 3a43 53       		.byte	0x53
 13812 3a44 02       		.uleb128 0x2
 13813 3a45 75       		.byte	0x75
 13814 3a46 00       		.sleb128 0
 13815 3a47 32       		.uleb128 0x32
 13816 3a48 01       		.uleb128 0x1
 13817 3a49 52       		.byte	0x52
 13818 3a4a 02       		.uleb128 0x2
 13819 3a4b 77       		.byte	0x77
 13820 3a4c 00       		.sleb128 0
 13821 3a4d 32       		.uleb128 0x32
 13822 3a4e 01       		.uleb128 0x1
 13823 3a4f 51       		.byte	0x51
 13824 3a50 05       		.uleb128 0x5
 13825 3a51 03       		.byte	0x3
 13826 3a52 400A0000 		.4byte	.LC76
 13827 3a56 32       		.uleb128 0x32
 13828 3a57 02       		.uleb128 0x2
 13829 3a58 7D       		.byte	0x7d
 13830 3a59 04       		.sleb128 4
 13831 3a5a 02       		.uleb128 0x2
 13832 3a5b 78       		.byte	0x78
 13833 3a5c 00       		.sleb128 0
 13834 3a5d 32       		.uleb128 0x32
 13835 3a5e 02       		.uleb128 0x2
 13836 3a5f 7D       		.byte	0x7d
 13837 3a60 00       		.sleb128 0
ARM GAS  C:\Users\jo\AppData\Local\Temp\ccpKXchH.s 			page 251


 13838 3a61 02       		.uleb128 0x2
 13839 3a62 76       		.byte	0x76
 13840 3a63 00       		.sleb128 0
 13841 3a64 00       		.byte	0
 13842 3a65 38       		.uleb128 0x38
 13843 3a66 5A000000 		.4byte	.LVL570
 13844 3a6a 131D0000 		.4byte	0x1d13
 13845 3a6e A23A0000 		.4byte	0x3aa2
 13846 3a72 32       		.uleb128 0x32
 13847 3a73 01       		.uleb128 0x1
 13848 3a74 53       		.byte	0x53
 13849 3a75 02       		.uleb128 0x2
 13850 3a76 78       		.byte	0x78
 13851 3a77 00       		.sleb128 0
 13852 3a78 32       		.uleb128 0x32
 13853 3a79 01       		.uleb128 0x1
 13854 3a7a 52       		.byte	0x52
 13855 3a7b 02       		.uleb128 0x2
 13856 3a7c 76       		.byte	0x76
 13857 3a7d 00       		.sleb128 0
 13858 3a7e 32       		.uleb128 0x32
 13859 3a7f 01       		.uleb128 0x1
 13860 3a80 51       		.byte	0x51
 13861 3a81 02       		.uleb128 0x2
 13862 3a82 75       		.byte	0x75
 13863 3a83 00       		.sleb128 0
 13864 3a84 32       		.uleb128 0x32
 13865 3a85 01       		.uleb128 0x1
 13866 3a86 50       		.byte	0x50
 13867 3a87 02       		.uleb128 0x2
 13868 3a88 77       		.byte	0x77
 13869 3a89 00       		.sleb128 0
 13870 3a8a 32       		.uleb128 0x32
 13871 3a8b 02       		.uleb128 0x2
 13872 3a8c 7D       		.byte	0x7d
 13873 3a8d 08       		.sleb128 8
 13874 3a8e 02       		.uleb128 0x2
 13875 3a8f 7A       		.byte	0x7a
 13876 3a90 00       		.sleb128 0
 13877 3a91 32       		.uleb128 0x32
 13878 3a92 02       		.uleb128 0x2
 13879 3a93 7D       		.byte	0x7d
 13880 3a94 04       		.sleb128 4
 13881 3a95 02       		.uleb128 0x2
 13882 3a96 74       		.byte	0x74
 13883 3a97 00       		.sleb128 0
 13884 3a98 32       		.uleb128 0x32
 13885 3a99 02       		.uleb128 0x2
 13886 3a9a 7D       		.byte	0x7d
 13887 3a9b 00       		.sleb128 0
 13888 3a9c 04       		.uleb128 0x4
 13889 3a9d 91       		.byte	0x91
 13890 3a9e 947F     		.sleb128 -108
 13891 3aa0 06       		.byte	0x6
 13892 3aa1 00       		.byte	0
 13893 3aa2 38       		.uleb128 0x38
 13894 3aa3 84000000 		.4byte	.LVL572
ARM GAS  C:\Users\jo\AppData\Local\Temp\ccpKXchH.s 			page 252


 13895 3aa7 EE450000 		.4byte	0x45ee
 13896 3aab BB3A0000 		.4byte	0x3abb
 13897 3aaf 32       		.uleb128 0x32
 13898 3ab0 01       		.uleb128 0x1
 13899 3ab1 51       		.byte	0x51
 13900 3ab2 01       		.uleb128 0x1
 13901 3ab3 30       		.byte	0x30
 13902 3ab4 32       		.uleb128 0x32
 13903 3ab5 01       		.uleb128 0x1
 13904 3ab6 50       		.byte	0x50
 13905 3ab7 02       		.uleb128 0x2
 13906 3ab8 91       		.byte	0x91
 13907 3ab9 54       		.sleb128 -44
 13908 3aba 00       		.byte	0
 13909 3abb 38       		.uleb128 0x38
 13910 3abc 34010000 		.4byte	.LVL582
 13911 3ac0 131D0000 		.4byte	0x1d13
 13912 3ac4 FA3A0000 		.4byte	0x3afa
 13913 3ac8 32       		.uleb128 0x32
 13914 3ac9 01       		.uleb128 0x1
 13915 3aca 53       		.byte	0x53
 13916 3acb 02       		.uleb128 0x2
 13917 3acc 78       		.byte	0x78
 13918 3acd 00       		.sleb128 0
 13919 3ace 32       		.uleb128 0x32
 13920 3acf 01       		.uleb128 0x1
 13921 3ad0 52       		.byte	0x52
 13922 3ad1 02       		.uleb128 0x2
 13923 3ad2 76       		.byte	0x76
 13924 3ad3 00       		.sleb128 0
 13925 3ad4 32       		.uleb128 0x32
 13926 3ad5 01       		.uleb128 0x1
 13927 3ad6 51       		.byte	0x51
 13928 3ad7 02       		.uleb128 0x2
 13929 3ad8 75       		.byte	0x75
 13930 3ad9 00       		.sleb128 0
 13931 3ada 32       		.uleb128 0x32
 13932 3adb 01       		.uleb128 0x1
 13933 3adc 50       		.byte	0x50
 13934 3add 02       		.uleb128 0x2
 13935 3ade 77       		.byte	0x77
 13936 3adf 00       		.sleb128 0
 13937 3ae0 32       		.uleb128 0x32
 13938 3ae1 02       		.uleb128 0x2
 13939 3ae2 7D       		.byte	0x7d
 13940 3ae3 08       		.sleb128 8
 13941 3ae4 02       		.uleb128 0x2
 13942 3ae5 7A       		.byte	0x7a
 13943 3ae6 00       		.sleb128 0
 13944 3ae7 32       		.uleb128 0x32
 13945 3ae8 02       		.uleb128 0x2
 13946 3ae9 7D       		.byte	0x7d
 13947 3aea 04       		.sleb128 4
 13948 3aeb 04       		.uleb128 0x4
 13949 3aec 91       		.byte	0x91
 13950 3aed 987F     		.sleb128 -104
 13951 3aef 06       		.byte	0x6
ARM GAS  C:\Users\jo\AppData\Local\Temp\ccpKXchH.s 			page 253


 13952 3af0 32       		.uleb128 0x32
 13953 3af1 02       		.uleb128 0x2
 13954 3af2 7D       		.byte	0x7d
 13955 3af3 00       		.sleb128 0
 13956 3af4 04       		.uleb128 0x4
 13957 3af5 91       		.byte	0x91
 13958 3af6 947F     		.sleb128 -108
 13959 3af8 06       		.byte	0x6
 13960 3af9 00       		.byte	0
 13961 3afa 38       		.uleb128 0x38
 13962 3afb 6E010000 		.4byte	.LVL588
 13963 3aff 08460000 		.4byte	0x4608
 13964 3b03 0E3B0000 		.4byte	0x3b0e
 13965 3b07 32       		.uleb128 0x32
 13966 3b08 01       		.uleb128 0x1
 13967 3b09 50       		.byte	0x50
 13968 3b0a 02       		.uleb128 0x2
 13969 3b0b 91       		.byte	0x91
 13970 3b0c 54       		.sleb128 -44
 13971 3b0d 00       		.byte	0
 13972 3b0e 38       		.uleb128 0x38
 13973 3b0f A6010000 		.4byte	.LVL592
 13974 3b13 22460000 		.4byte	0x4622
 13975 3b17 223B0000 		.4byte	0x3b22
 13976 3b1b 32       		.uleb128 0x32
 13977 3b1c 01       		.uleb128 0x1
 13978 3b1d 50       		.byte	0x50
 13979 3b1e 02       		.uleb128 0x2
 13980 3b1f 91       		.byte	0x91
 13981 3b20 54       		.sleb128 -44
 13982 3b21 00       		.byte	0
 13983 3b22 38       		.uleb128 0x38
 13984 3b23 C4010000 		.4byte	.LVL593
 13985 3b27 131D0000 		.4byte	0x1d13
 13986 3b2b 613B0000 		.4byte	0x3b61
 13987 3b2f 32       		.uleb128 0x32
 13988 3b30 01       		.uleb128 0x1
 13989 3b31 53       		.byte	0x53
 13990 3b32 02       		.uleb128 0x2
 13991 3b33 78       		.byte	0x78
 13992 3b34 00       		.sleb128 0
 13993 3b35 32       		.uleb128 0x32
 13994 3b36 01       		.uleb128 0x1
 13995 3b37 52       		.byte	0x52
 13996 3b38 02       		.uleb128 0x2
 13997 3b39 76       		.byte	0x76
 13998 3b3a 00       		.sleb128 0
 13999 3b3b 32       		.uleb128 0x32
 14000 3b3c 01       		.uleb128 0x1
 14001 3b3d 51       		.byte	0x51
 14002 3b3e 02       		.uleb128 0x2
 14003 3b3f 75       		.byte	0x75
 14004 3b40 00       		.sleb128 0
 14005 3b41 32       		.uleb128 0x32
 14006 3b42 01       		.uleb128 0x1
 14007 3b43 50       		.byte	0x50
 14008 3b44 02       		.uleb128 0x2
ARM GAS  C:\Users\jo\AppData\Local\Temp\ccpKXchH.s 			page 254


 14009 3b45 77       		.byte	0x77
 14010 3b46 00       		.sleb128 0
 14011 3b47 32       		.uleb128 0x32
 14012 3b48 02       		.uleb128 0x2
 14013 3b49 7D       		.byte	0x7d
 14014 3b4a 08       		.sleb128 8
 14015 3b4b 02       		.uleb128 0x2
 14016 3b4c 7A       		.byte	0x7a
 14017 3b4d 00       		.sleb128 0
 14018 3b4e 32       		.uleb128 0x32
 14019 3b4f 02       		.uleb128 0x2
 14020 3b50 7D       		.byte	0x7d
 14021 3b51 04       		.sleb128 4
 14022 3b52 04       		.uleb128 0x4
 14023 3b53 91       		.byte	0x91
 14024 3b54 987F     		.sleb128 -104
 14025 3b56 06       		.byte	0x6
 14026 3b57 32       		.uleb128 0x32
 14027 3b58 02       		.uleb128 0x2
 14028 3b59 7D       		.byte	0x7d
 14029 3b5a 00       		.sleb128 0
 14030 3b5b 04       		.uleb128 0x4
 14031 3b5c 91       		.byte	0x91
 14032 3b5d 947F     		.sleb128 -108
 14033 3b5f 06       		.byte	0x6
 14034 3b60 00       		.byte	0
 14035 3b61 38       		.uleb128 0x38
 14036 3b62 D0010000 		.4byte	.LVL596
 14037 3b66 31160000 		.4byte	0x1631
 14038 3b6a 7E3B0000 		.4byte	0x3b7e
 14039 3b6e 32       		.uleb128 0x32
 14040 3b6f 01       		.uleb128 0x1
 14041 3b70 52       		.byte	0x52
 14042 3b71 02       		.uleb128 0x2
 14043 3b72 79       		.byte	0x79
 14044 3b73 00       		.sleb128 0
 14045 3b74 32       		.uleb128 0x32
 14046 3b75 01       		.uleb128 0x1
 14047 3b76 51       		.byte	0x51
 14048 3b77 05       		.uleb128 0x5
 14049 3b78 03       		.byte	0x3
 14050 3b79 240B0000 		.4byte	.LC83
 14051 3b7d 00       		.byte	0
 14052 3b7e 38       		.uleb128 0x38
 14053 3b7f 12020000 		.4byte	.LVL599
 14054 3b83 31160000 		.4byte	0x1631
 14055 3b87 953B0000 		.4byte	0x3b95
 14056 3b8b 32       		.uleb128 0x32
 14057 3b8c 01       		.uleb128 0x1
 14058 3b8d 51       		.byte	0x51
 14059 3b8e 05       		.uleb128 0x5
 14060 3b8f 03       		.byte	0x3
 14061 3b90 740A0000 		.4byte	.LC77
 14062 3b94 00       		.byte	0
 14063 3b95 38       		.uleb128 0x38
 14064 3b96 82020000 		.4byte	.LVL607
 14065 3b9a 31160000 		.4byte	0x1631
ARM GAS  C:\Users\jo\AppData\Local\Temp\ccpKXchH.s 			page 255


 14066 3b9e AC3B0000 		.4byte	0x3bac
 14067 3ba2 32       		.uleb128 0x32
 14068 3ba3 01       		.uleb128 0x1
 14069 3ba4 51       		.byte	0x51
 14070 3ba5 05       		.uleb128 0x5
 14071 3ba6 03       		.byte	0x3
 14072 3ba7 040B0000 		.4byte	.LC82
 14073 3bab 00       		.byte	0
 14074 3bac 38       		.uleb128 0x38
 14075 3bad A8020000 		.4byte	.LVL613
 14076 3bb1 31160000 		.4byte	0x1631
 14077 3bb5 EB3B0000 		.4byte	0x3beb
 14078 3bb9 32       		.uleb128 0x32
 14079 3bba 01       		.uleb128 0x1
 14080 3bbb 53       		.byte	0x53
 14081 3bbc 02       		.uleb128 0x2
 14082 3bbd 75       		.byte	0x75
 14083 3bbe 00       		.sleb128 0
 14084 3bbf 32       		.uleb128 0x32
 14085 3bc0 01       		.uleb128 0x1
 14086 3bc1 52       		.byte	0x52
 14087 3bc2 02       		.uleb128 0x2
 14088 3bc3 77       		.byte	0x77
 14089 3bc4 00       		.sleb128 0
 14090 3bc5 32       		.uleb128 0x32
 14091 3bc6 01       		.uleb128 0x1
 14092 3bc7 51       		.byte	0x51
 14093 3bc8 05       		.uleb128 0x5
 14094 3bc9 03       		.byte	0x3
 14095 3bca 400A0000 		.4byte	.LC76
 14096 3bce 32       		.uleb128 0x32
 14097 3bcf 02       		.uleb128 0x2
 14098 3bd0 7D       		.byte	0x7d
 14099 3bd1 0C       		.sleb128 12
 14100 3bd2 02       		.uleb128 0x2
 14101 3bd3 09       		.byte	0x9
 14102 3bd4 FF       		.byte	0xff
 14103 3bd5 32       		.uleb128 0x32
 14104 3bd6 02       		.uleb128 0x2
 14105 3bd7 7D       		.byte	0x7d
 14106 3bd8 08       		.sleb128 8
 14107 3bd9 02       		.uleb128 0x2
 14108 3bda 09       		.byte	0x9
 14109 3bdb FF       		.byte	0xff
 14110 3bdc 32       		.uleb128 0x32
 14111 3bdd 02       		.uleb128 0x2
 14112 3bde 7D       		.byte	0x7d
 14113 3bdf 04       		.sleb128 4
 14114 3be0 02       		.uleb128 0x2
 14115 3be1 78       		.byte	0x78
 14116 3be2 00       		.sleb128 0
 14117 3be3 32       		.uleb128 0x32
 14118 3be4 02       		.uleb128 0x2
 14119 3be5 7D       		.byte	0x7d
 14120 3be6 00       		.sleb128 0
 14121 3be7 02       		.uleb128 0x2
 14122 3be8 76       		.byte	0x76
ARM GAS  C:\Users\jo\AppData\Local\Temp\ccpKXchH.s 			page 256


 14123 3be9 00       		.sleb128 0
 14124 3bea 00       		.byte	0
 14125 3beb 38       		.uleb128 0x38
 14126 3bec C4020000 		.4byte	.LVL614
 14127 3bf0 131D0000 		.4byte	0x1d13
 14128 3bf4 283C0000 		.4byte	0x3c28
 14129 3bf8 32       		.uleb128 0x32
 14130 3bf9 01       		.uleb128 0x1
 14131 3bfa 53       		.byte	0x53
 14132 3bfb 02       		.uleb128 0x2
 14133 3bfc 78       		.byte	0x78
 14134 3bfd 00       		.sleb128 0
 14135 3bfe 32       		.uleb128 0x32
 14136 3bff 01       		.uleb128 0x1
 14137 3c00 52       		.byte	0x52
 14138 3c01 02       		.uleb128 0x2
 14139 3c02 76       		.byte	0x76
 14140 3c03 00       		.sleb128 0
 14141 3c04 32       		.uleb128 0x32
 14142 3c05 01       		.uleb128 0x1
 14143 3c06 51       		.byte	0x51
 14144 3c07 02       		.uleb128 0x2
 14145 3c08 75       		.byte	0x75
 14146 3c09 00       		.sleb128 0
 14147 3c0a 32       		.uleb128 0x32
 14148 3c0b 01       		.uleb128 0x1
 14149 3c0c 50       		.byte	0x50
 14150 3c0d 02       		.uleb128 0x2
 14151 3c0e 77       		.byte	0x77
 14152 3c0f 00       		.sleb128 0
 14153 3c10 32       		.uleb128 0x32
 14154 3c11 02       		.uleb128 0x2
 14155 3c12 7D       		.byte	0x7d
 14156 3c13 08       		.sleb128 8
 14157 3c14 02       		.uleb128 0x2
 14158 3c15 7A       		.byte	0x7a
 14159 3c16 00       		.sleb128 0
 14160 3c17 32       		.uleb128 0x32
 14161 3c18 02       		.uleb128 0x2
 14162 3c19 7D       		.byte	0x7d
 14163 3c1a 04       		.sleb128 4
 14164 3c1b 02       		.uleb128 0x2
 14165 3c1c 74       		.byte	0x74
 14166 3c1d 00       		.sleb128 0
 14167 3c1e 32       		.uleb128 0x32
 14168 3c1f 02       		.uleb128 0x2
 14169 3c20 7D       		.byte	0x7d
 14170 3c21 00       		.sleb128 0
 14171 3c22 04       		.uleb128 0x4
 14172 3c23 91       		.byte	0x91
 14173 3c24 947F     		.sleb128 -108
 14174 3c26 06       		.byte	0x6
 14175 3c27 00       		.byte	0
 14176 3c28 38       		.uleb128 0x38
 14177 3c29 1C030000 		.4byte	.LVL618
 14178 3c2d 31160000 		.4byte	0x1631
 14179 3c31 593C0000 		.4byte	0x3c59
ARM GAS  C:\Users\jo\AppData\Local\Temp\ccpKXchH.s 			page 257


 14180 3c35 32       		.uleb128 0x32
 14181 3c36 01       		.uleb128 0x1
 14182 3c37 53       		.byte	0x53
 14183 3c38 03       		.uleb128 0x3
 14184 3c39 0A       		.byte	0xa
 14185 3c3a B204     		.2byte	0x4b2
 14186 3c3c 32       		.uleb128 0x32
 14187 3c3d 01       		.uleb128 0x1
 14188 3c3e 52       		.byte	0x52
 14189 3c3f 05       		.uleb128 0x5
 14190 3c40 03       		.byte	0x3
 14191 3c41 D40A0000 		.4byte	.LC80
 14192 3c45 32       		.uleb128 0x32
 14193 3c46 01       		.uleb128 0x1
 14194 3c47 51       		.byte	0x51
 14195 3c48 05       		.uleb128 0x5
 14196 3c49 03       		.byte	0x3
 14197 3c4a 08000000 		.4byte	.LC2
 14198 3c4e 32       		.uleb128 0x32
 14199 3c4f 02       		.uleb128 0x2
 14200 3c50 7D       		.byte	0x7d
 14201 3c51 00       		.sleb128 0
 14202 3c52 05       		.uleb128 0x5
 14203 3c53 03       		.byte	0x3
 14204 3c54 3C000000 		.4byte	.LC4
 14205 3c58 00       		.byte	0
 14206 3c59 38       		.uleb128 0x38
 14207 3c5a 42030000 		.4byte	.LVL623
 14208 3c5e 131D0000 		.4byte	0x1d13
 14209 3c62 983C0000 		.4byte	0x3c98
 14210 3c66 32       		.uleb128 0x32
 14211 3c67 01       		.uleb128 0x1
 14212 3c68 53       		.byte	0x53
 14213 3c69 02       		.uleb128 0x2
 14214 3c6a 78       		.byte	0x78
 14215 3c6b 00       		.sleb128 0
 14216 3c6c 32       		.uleb128 0x32
 14217 3c6d 01       		.uleb128 0x1
 14218 3c6e 52       		.byte	0x52
 14219 3c6f 02       		.uleb128 0x2
 14220 3c70 76       		.byte	0x76
 14221 3c71 00       		.sleb128 0
 14222 3c72 32       		.uleb128 0x32
 14223 3c73 01       		.uleb128 0x1
 14224 3c74 51       		.byte	0x51
 14225 3c75 02       		.uleb128 0x2
 14226 3c76 75       		.byte	0x75
 14227 3c77 00       		.sleb128 0
 14228 3c78 32       		.uleb128 0x32
 14229 3c79 01       		.uleb128 0x1
 14230 3c7a 50       		.byte	0x50
 14231 3c7b 02       		.uleb128 0x2
 14232 3c7c 77       		.byte	0x77
 14233 3c7d 00       		.sleb128 0
 14234 3c7e 32       		.uleb128 0x32
 14235 3c7f 02       		.uleb128 0x2
 14236 3c80 7D       		.byte	0x7d
ARM GAS  C:\Users\jo\AppData\Local\Temp\ccpKXchH.s 			page 258


 14237 3c81 08       		.sleb128 8
 14238 3c82 02       		.uleb128 0x2
 14239 3c83 7A       		.byte	0x7a
 14240 3c84 00       		.sleb128 0
 14241 3c85 32       		.uleb128 0x32
 14242 3c86 02       		.uleb128 0x2
 14243 3c87 7D       		.byte	0x7d
 14244 3c88 04       		.sleb128 4
 14245 3c89 04       		.uleb128 0x4
 14246 3c8a 91       		.byte	0x91
 14247 3c8b 987F     		.sleb128 -104
 14248 3c8d 06       		.byte	0x6
 14249 3c8e 32       		.uleb128 0x32
 14250 3c8f 02       		.uleb128 0x2
 14251 3c90 7D       		.byte	0x7d
 14252 3c91 00       		.sleb128 0
 14253 3c92 04       		.uleb128 0x4
 14254 3c93 91       		.byte	0x91
 14255 3c94 947F     		.sleb128 -108
 14256 3c96 06       		.byte	0x6
 14257 3c97 00       		.byte	0
 14258 3c98 38       		.uleb128 0x38
 14259 3c99 56030000 		.4byte	.LVL626
 14260 3c9d 08460000 		.4byte	0x4608
 14261 3ca1 B23C0000 		.4byte	0x3cb2
 14262 3ca5 32       		.uleb128 0x32
 14263 3ca6 01       		.uleb128 0x1
 14264 3ca7 51       		.byte	0x51
 14265 3ca8 02       		.uleb128 0x2
 14266 3ca9 79       		.byte	0x79
 14267 3caa 00       		.sleb128 0
 14268 3cab 32       		.uleb128 0x32
 14269 3cac 01       		.uleb128 0x1
 14270 3cad 50       		.byte	0x50
 14271 3cae 02       		.uleb128 0x2
 14272 3caf 91       		.byte	0x91
 14273 3cb0 54       		.sleb128 -44
 14274 3cb1 00       		.byte	0
 14275 3cb2 38       		.uleb128 0x38
 14276 3cb3 72030000 		.4byte	.LVL630
 14277 3cb7 31160000 		.4byte	0x1631
 14278 3cbb E33C0000 		.4byte	0x3ce3
 14279 3cbf 32       		.uleb128 0x32
 14280 3cc0 01       		.uleb128 0x1
 14281 3cc1 53       		.byte	0x53
 14282 3cc2 03       		.uleb128 0x3
 14283 3cc3 0A       		.byte	0xa
 14284 3cc4 B504     		.2byte	0x4b5
 14285 3cc6 32       		.uleb128 0x32
 14286 3cc7 01       		.uleb128 0x1
 14287 3cc8 52       		.byte	0x52
 14288 3cc9 05       		.uleb128 0x5
 14289 3cca 03       		.byte	0x3
 14290 3ccb EC0A0000 		.4byte	.LC81
 14291 3ccf 32       		.uleb128 0x32
 14292 3cd0 01       		.uleb128 0x1
 14293 3cd1 51       		.byte	0x51
ARM GAS  C:\Users\jo\AppData\Local\Temp\ccpKXchH.s 			page 259


 14294 3cd2 05       		.uleb128 0x5
 14295 3cd3 03       		.byte	0x3
 14296 3cd4 08000000 		.4byte	.LC2
 14297 3cd8 32       		.uleb128 0x32
 14298 3cd9 02       		.uleb128 0x2
 14299 3cda 7D       		.byte	0x7d
 14300 3cdb 00       		.sleb128 0
 14301 3cdc 05       		.uleb128 0x5
 14302 3cdd 03       		.byte	0x3
 14303 3cde 3C000000 		.4byte	.LC4
 14304 3ce2 00       		.byte	0
 14305 3ce3 31       		.uleb128 0x31
 14306 3ce4 F4030000 		.4byte	.LVL641
 14307 3ce8 08460000 		.4byte	0x4608
 14308 3cec 32       		.uleb128 0x32
 14309 3ced 01       		.uleb128 0x1
 14310 3cee 51       		.byte	0x51
 14311 3cef 02       		.uleb128 0x2
 14312 3cf0 79       		.byte	0x79
 14313 3cf1 00       		.sleb128 0
 14314 3cf2 32       		.uleb128 0x32
 14315 3cf3 01       		.uleb128 0x1
 14316 3cf4 50       		.byte	0x50
 14317 3cf5 02       		.uleb128 0x2
 14318 3cf6 91       		.byte	0x91
 14319 3cf7 54       		.sleb128 -44
 14320 3cf8 00       		.byte	0
 14321 3cf9 00       		.byte	0
 14322 3cfa 0B       		.uleb128 0xb
 14323 3cfb 04       		.byte	0x4
 14324 3cfc 220B0000 		.4byte	0xb22
 14325 3d00 49       		.uleb128 0x49
 14326 3d01 00110000 		.4byte	.LASF391
 14327 3d05 01       		.byte	0x1
 14328 3d06 5705     		.2byte	0x557
 14329 3d08 25000000 		.4byte	0x25
 14330 3d0c 00000000 		.4byte	.LFB276
 14331 3d10 84000000 		.4byte	.LFE276-.LFB276
 14332 3d14 01       		.uleb128 0x1
 14333 3d15 9C       		.byte	0x9c
 14334 3d16 B93D0000 		.4byte	0x3db9
 14335 3d1a 34       		.uleb128 0x34
 14336 3d1b 7300     		.ascii	"s\000"
 14337 3d1d 01       		.byte	0x1
 14338 3d1e 5705     		.2byte	0x557
 14339 3d20 25000000 		.4byte	0x25
 14340 3d24 7F260000 		.4byte	.LLST170
 14341 3d28 34       		.uleb128 0x34
 14342 3d29 686F7700 		.ascii	"how\000"
 14343 3d2d 01       		.byte	0x1
 14344 3d2e 5705     		.2byte	0x557
 14345 3d30 25000000 		.4byte	0x25
 14346 3d34 B6260000 		.4byte	.LLST171
 14347 3d38 35       		.uleb128 0x35
 14348 3d39 C1030000 		.4byte	.LASF314
 14349 3d3d 01       		.byte	0x1
 14350 3d3e 5905     		.2byte	0x559
ARM GAS  C:\Users\jo\AppData\Local\Temp\ccpKXchH.s 			page 260


 14351 3d40 44150000 		.4byte	0x1544
 14352 3d44 ED260000 		.4byte	.LLST172
 14353 3d48 36       		.uleb128 0x36
 14354 3d49 65727200 		.ascii	"err\000"
 14355 3d4d 01       		.byte	0x1
 14356 3d4e 5A05     		.2byte	0x55a
 14357 3d50 4A0B0000 		.4byte	0xb4a
 14358 3d54 21270000 		.4byte	.LLST173
 14359 3d58 35       		.uleb128 0x35
 14360 3d59 1B130000 		.4byte	.LASF392
 14361 3d5d 01       		.byte	0x1
 14362 3d5e 5B05     		.2byte	0x55b
 14363 3d60 030A0000 		.4byte	0xa03
 14364 3d64 34270000 		.4byte	.LLST174
 14365 3d68 35       		.uleb128 0x35
 14366 3d69 AB020000 		.4byte	.LASF393
 14367 3d6d 01       		.byte	0x1
 14368 3d6e 5B05     		.2byte	0x55b
 14369 3d70 030A0000 		.4byte	0xa03
 14370 3d74 5F270000 		.4byte	.LLST175
 14371 3d78 38       		.uleb128 0x38
 14372 3d79 12000000 		.4byte	.LVL646
 14373 3d7d 31160000 		.4byte	0x1631
 14374 3d81 9B3D0000 		.4byte	0x3d9b
 14375 3d85 32       		.uleb128 0x32
 14376 3d86 01       		.uleb128 0x1
 14377 3d87 53       		.byte	0x53
 14378 3d88 02       		.uleb128 0x2
 14379 3d89 75       		.byte	0x75
 14380 3d8a 00       		.sleb128 0
 14381 3d8b 32       		.uleb128 0x32
 14382 3d8c 01       		.uleb128 0x1
 14383 3d8d 52       		.byte	0x52
 14384 3d8e 02       		.uleb128 0x2
 14385 3d8f 74       		.byte	0x74
 14386 3d90 00       		.sleb128 0
 14387 3d91 32       		.uleb128 0x32
 14388 3d92 01       		.uleb128 0x1
 14389 3d93 51       		.byte	0x51
 14390 3d94 05       		.uleb128 0x5
 14391 3d95 03       		.byte	0x3
 14392 3d96 4C0B0000 		.4byte	.LC85
 14393 3d9a 00       		.byte	0
 14394 3d9b 38       		.uleb128 0x38
 14395 3d9c 18000000 		.4byte	.LVL647
 14396 3da0 50150000 		.4byte	0x1550
 14397 3da4 AF3D0000 		.4byte	0x3daf
 14398 3da8 32       		.uleb128 0x32
 14399 3da9 01       		.uleb128 0x1
 14400 3daa 50       		.byte	0x50
 14401 3dab 02       		.uleb128 0x2
 14402 3dac 74       		.byte	0x74
 14403 3dad 00       		.sleb128 0
 14404 3dae 00       		.byte	0
 14405 3daf 47       		.uleb128 0x47
 14406 3db0 4A000000 		.4byte	.LVL654
 14407 3db4 33460000 		.4byte	0x4633
ARM GAS  C:\Users\jo\AppData\Local\Temp\ccpKXchH.s 			page 261


 14408 3db8 00       		.byte	0
 14409 3db9 49       		.uleb128 0x49
 14410 3dba 720E0000 		.4byte	.LASF394
 14411 3dbe 01       		.byte	0x1
 14412 3dbf A305     		.2byte	0x5a3
 14413 3dc1 25000000 		.4byte	0x25
 14414 3dc5 00000000 		.4byte	.LFB278
 14415 3dc9 06000000 		.4byte	.LFE278-.LFB278
 14416 3dcd 01       		.uleb128 0x1
 14417 3dce 9C       		.byte	0x9c
 14418 3dcf 263E0000 		.4byte	0x3e26
 14419 3dd3 34       		.uleb128 0x34
 14420 3dd4 7300     		.ascii	"s\000"
 14421 3dd6 01       		.byte	0x1
 14422 3dd7 A305     		.2byte	0x5a3
 14423 3dd9 25000000 		.4byte	0x25
 14424 3ddd 8A270000 		.4byte	.LLST176
 14425 3de1 3C       		.uleb128 0x3c
 14426 3de2 26000000 		.4byte	.LASF347
 14427 3de6 01       		.byte	0x1
 14428 3de7 A305     		.2byte	0x5a3
 14429 3de9 04220000 		.4byte	0x2204
 14430 3ded AB270000 		.4byte	.LLST177
 14431 3df1 3C       		.uleb128 0x3c
 14432 3df2 50080000 		.4byte	.LASF348
 14433 3df6 01       		.byte	0x1
 14434 3df7 A305     		.2byte	0x5a3
 14435 3df9 4A150000 		.4byte	0x154a
 14436 3dfd CC270000 		.4byte	.LLST178
 14437 3e01 4A       		.uleb128 0x4a
 14438 3e02 06000000 		.4byte	.LVL661
 14439 3e06 DF200000 		.4byte	0x20df
 14440 3e0a 32       		.uleb128 0x32
 14441 3e0b 01       		.uleb128 0x1
 14442 3e0c 53       		.byte	0x53
 14443 3e0d 01       		.uleb128 0x1
 14444 3e0e 30       		.byte	0x30
 14445 3e0f 32       		.uleb128 0x32
 14446 3e10 01       		.uleb128 0x1
 14447 3e11 52       		.byte	0x52
 14448 3e12 03       		.uleb128 0x3
 14449 3e13 F3       		.byte	0xf3
 14450 3e14 01       		.uleb128 0x1
 14451 3e15 52       		.byte	0x52
 14452 3e16 32       		.uleb128 0x32
 14453 3e17 01       		.uleb128 0x1
 14454 3e18 51       		.byte	0x51
 14455 3e19 03       		.uleb128 0x3
 14456 3e1a F3       		.byte	0xf3
 14457 3e1b 01       		.uleb128 0x1
 14458 3e1c 51       		.byte	0x51
 14459 3e1d 32       		.uleb128 0x32
 14460 3e1e 01       		.uleb128 0x1
 14461 3e1f 50       		.byte	0x50
 14462 3e20 03       		.uleb128 0x3
 14463 3e21 F3       		.byte	0xf3
 14464 3e22 01       		.uleb128 0x1
ARM GAS  C:\Users\jo\AppData\Local\Temp\ccpKXchH.s 			page 262


 14465 3e23 50       		.byte	0x50
 14466 3e24 00       		.byte	0
 14467 3e25 00       		.byte	0
 14468 3e26 49       		.uleb128 0x49
 14469 3e27 95090000 		.4byte	.LASF395
 14470 3e2b 01       		.byte	0x1
 14471 3e2c A905     		.2byte	0x5a9
 14472 3e2e 25000000 		.4byte	0x25
 14473 3e32 00000000 		.4byte	.LFB279
 14474 3e36 06000000 		.4byte	.LFE279-.LFB279
 14475 3e3a 01       		.uleb128 0x1
 14476 3e3b 9C       		.byte	0x9c
 14477 3e3c 933E0000 		.4byte	0x3e93
 14478 3e40 34       		.uleb128 0x34
 14479 3e41 7300     		.ascii	"s\000"
 14480 3e43 01       		.byte	0x1
 14481 3e44 A905     		.2byte	0x5a9
 14482 3e46 25000000 		.4byte	0x25
 14483 3e4a ED270000 		.4byte	.LLST179
 14484 3e4e 3C       		.uleb128 0x3c
 14485 3e4f 26000000 		.4byte	.LASF347
 14486 3e53 01       		.byte	0x1
 14487 3e54 A905     		.2byte	0x5a9
 14488 3e56 04220000 		.4byte	0x2204
 14489 3e5a 0E280000 		.4byte	.LLST180
 14490 3e5e 3C       		.uleb128 0x3c
 14491 3e5f 50080000 		.4byte	.LASF348
 14492 3e63 01       		.byte	0x1
 14493 3e64 A905     		.2byte	0x5a9
 14494 3e66 4A150000 		.4byte	0x154a
 14495 3e6a 2F280000 		.4byte	.LLST181
 14496 3e6e 4A       		.uleb128 0x4a
 14497 3e6f 06000000 		.4byte	.LVL663
 14498 3e73 DF200000 		.4byte	0x20df
 14499 3e77 32       		.uleb128 0x32
 14500 3e78 01       		.uleb128 0x1
 14501 3e79 53       		.byte	0x53
 14502 3e7a 01       		.uleb128 0x1
 14503 3e7b 31       		.byte	0x31
 14504 3e7c 32       		.uleb128 0x32
 14505 3e7d 01       		.uleb128 0x1
 14506 3e7e 52       		.byte	0x52
 14507 3e7f 03       		.uleb128 0x3
 14508 3e80 F3       		.byte	0xf3
 14509 3e81 01       		.uleb128 0x1
 14510 3e82 52       		.byte	0x52
 14511 3e83 32       		.uleb128 0x32
 14512 3e84 01       		.uleb128 0x1
 14513 3e85 51       		.byte	0x51
 14514 3e86 03       		.uleb128 0x3
 14515 3e87 F3       		.byte	0xf3
 14516 3e88 01       		.uleb128 0x1
 14517 3e89 51       		.byte	0x51
 14518 3e8a 32       		.uleb128 0x32
 14519 3e8b 01       		.uleb128 0x1
 14520 3e8c 50       		.byte	0x50
 14521 3e8d 03       		.uleb128 0x3
ARM GAS  C:\Users\jo\AppData\Local\Temp\ccpKXchH.s 			page 263


 14522 3e8e F3       		.byte	0xf3
 14523 3e8f 01       		.uleb128 0x1
 14524 3e90 50       		.byte	0x50
 14525 3e91 00       		.byte	0
 14526 3e92 00       		.byte	0
 14527 3e93 49       		.uleb128 0x49
 14528 3e94 3F0F0000 		.4byte	.LASF396
 14529 3e98 01       		.byte	0x1
 14530 3e99 AF05     		.2byte	0x5af
 14531 3e9b 25000000 		.4byte	0x25
 14532 3e9f 00000000 		.4byte	.LFB280
 14533 3ea3 64010000 		.4byte	.LFE280-.LFB280
 14534 3ea7 01       		.uleb128 0x1
 14535 3ea8 9C       		.byte	0x9c
 14536 3ea9 04400000 		.4byte	0x4004
 14537 3ead 34       		.uleb128 0x34
 14538 3eae 7300     		.ascii	"s\000"
 14539 3eb0 01       		.byte	0x1
 14540 3eb1 AF05     		.2byte	0x5af
 14541 3eb3 25000000 		.4byte	0x25
 14542 3eb7 50280000 		.4byte	.LLST182
 14543 3ebb 3C       		.uleb128 0x3c
 14544 3ebc 14110000 		.4byte	.LASF315
 14545 3ec0 01       		.byte	0x1
 14546 3ec1 AF05     		.2byte	0x5af
 14547 3ec3 25000000 		.4byte	0x25
 14548 3ec7 6E280000 		.4byte	.LLST183
 14549 3ecb 3C       		.uleb128 0x3c
 14550 3ecc A5120000 		.4byte	.LASF316
 14551 3ed0 01       		.byte	0x1
 14552 3ed1 AF05     		.2byte	0x5af
 14553 3ed3 25000000 		.4byte	0x25
 14554 3ed7 8C280000 		.4byte	.LLST184
 14555 3edb 3C       		.uleb128 0x3c
 14556 3edc 830E0000 		.4byte	.LASF317
 14557 3ee0 01       		.byte	0x1
 14558 3ee1 AF05     		.2byte	0x5af
 14559 3ee3 76030000 		.4byte	0x376
 14560 3ee7 AA280000 		.4byte	.LLST185
 14561 3eeb 3C       		.uleb128 0x3c
 14562 3eec 9C0F0000 		.4byte	.LASF318
 14563 3ef0 01       		.byte	0x1
 14564 3ef1 AF05     		.2byte	0x5af
 14565 3ef3 4A150000 		.4byte	0x154a
 14566 3ef7 C8280000 		.4byte	.LLST186
 14567 3efb 36       		.uleb128 0x36
 14568 3efc 65727200 		.ascii	"err\000"
 14569 3f00 01       		.byte	0x1
 14570 3f01 B105     		.2byte	0x5b1
 14571 3f03 4A0B0000 		.4byte	0xb4a
 14572 3f07 E8280000 		.4byte	.LLST187
 14573 3f0b 35       		.uleb128 0x35
 14574 3f0c C1030000 		.4byte	.LASF314
 14575 3f10 01       		.byte	0x1
 14576 3f11 B205     		.2byte	0x5b2
 14577 3f13 44150000 		.4byte	0x1544
 14578 3f17 192A0000 		.4byte	.LLST188
ARM GAS  C:\Users\jo\AppData\Local\Temp\ccpKXchH.s 			page 264


 14579 3f1b 3A       		.uleb128 0x3a
 14580 3f1c B9080000 		.4byte	.LASF326
 14581 3f20 01       		.byte	0x1
 14582 3f21 B305     		.2byte	0x5b3
 14583 3f23 E5140000 		.4byte	0x14e5
 14584 3f27 02       		.uleb128 0x2
 14585 3f28 91       		.byte	0x91
 14586 3f29 44       		.sleb128 -60
 14587 3f2a 38       		.uleb128 0x38
 14588 3f2b 14000000 		.4byte	.LVL665
 14589 3f2f 50150000 		.4byte	0x1550
 14590 3f33 3E3F0000 		.4byte	0x3f3e
 14591 3f37 32       		.uleb128 0x32
 14592 3f38 01       		.uleb128 0x1
 14593 3f39 50       		.byte	0x50
 14594 3f3a 02       		.uleb128 0x2
 14595 3f3b 7A       		.byte	0x7a
 14596 3f3c 00       		.sleb128 0
 14597 3f3d 00       		.byte	0
 14598 3f3e 38       		.uleb128 0x38
 14599 3f3f 46000000 		.4byte	.LVL667
 14600 3f43 31160000 		.4byte	0x1631
 14601 3f47 683F0000 		.4byte	0x3f68
 14602 3f4b 32       		.uleb128 0x32
 14603 3f4c 01       		.uleb128 0x1
 14604 3f4d 53       		.byte	0x53
 14605 3f4e 02       		.uleb128 0x2
 14606 3f4f 75       		.byte	0x75
 14607 3f50 00       		.sleb128 0
 14608 3f51 32       		.uleb128 0x32
 14609 3f52 01       		.uleb128 0x1
 14610 3f53 52       		.byte	0x52
 14611 3f54 02       		.uleb128 0x2
 14612 3f55 7A       		.byte	0x7a
 14613 3f56 00       		.sleb128 0
 14614 3f57 32       		.uleb128 0x32
 14615 3f58 01       		.uleb128 0x1
 14616 3f59 51       		.byte	0x51
 14617 3f5a 05       		.uleb128 0x5
 14618 3f5b 03       		.byte	0x3
 14619 3f5c 1C0C0000 		.4byte	.LC89
 14620 3f60 32       		.uleb128 0x32
 14621 3f61 02       		.uleb128 0x2
 14622 3f62 7D       		.byte	0x7d
 14623 3f63 00       		.sleb128 0
 14624 3f64 02       		.uleb128 0x2
 14625 3f65 77       		.byte	0x77
 14626 3f66 00       		.sleb128 0
 14627 3f67 00       		.byte	0
 14628 3f68 38       		.uleb128 0x38
 14629 3f69 BA000000 		.4byte	.LVL675
 14630 3f6d 52460000 		.4byte	0x4652
 14631 3f71 8A3F0000 		.4byte	0x3f8a
 14632 3f75 32       		.uleb128 0x32
 14633 3f76 01       		.uleb128 0x1
 14634 3f77 52       		.byte	0x52
 14635 3f78 01       		.uleb128 0x1
ARM GAS  C:\Users\jo\AppData\Local\Temp\ccpKXchH.s 			page 265


 14636 3f79 31       		.byte	0x31
 14637 3f7a 32       		.uleb128 0x32
 14638 3f7b 01       		.uleb128 0x1
 14639 3f7c 51       		.byte	0x51
 14640 3f7d 02       		.uleb128 0x2
 14641 3f7e 91       		.byte	0x91
 14642 3f7f 44       		.sleb128 -60
 14643 3f80 32       		.uleb128 0x32
 14644 3f81 01       		.uleb128 0x1
 14645 3f82 50       		.byte	0x50
 14646 3f83 05       		.uleb128 0x5
 14647 3f84 03       		.byte	0x3
 14648 3f85 00000000 		.4byte	lwip_getsockopt_internal
 14649 3f89 00       		.byte	0
 14650 3f8a 38       		.uleb128 0x38
 14651 3f8b C4000000 		.4byte	.LVL676
 14652 3f8f 08460000 		.4byte	0x4608
 14653 3f93 9E3F0000 		.4byte	0x3f9e
 14654 3f97 32       		.uleb128 0x32
 14655 3f98 01       		.uleb128 0x1
 14656 3f99 51       		.byte	0x51
 14657 3f9a 02       		.uleb128 0x2
 14658 3f9b 79       		.byte	0x79
 14659 3f9c 00       		.sleb128 0
 14660 3f9d 00       		.byte	0
 14661 3f9e 38       		.uleb128 0x38
 14662 3f9f 00010000 		.4byte	.LVL683
 14663 3fa3 31160000 		.4byte	0x1631
 14664 3fa7 C13F0000 		.4byte	0x3fc1
 14665 3fab 32       		.uleb128 0x32
 14666 3fac 01       		.uleb128 0x1
 14667 3fad 53       		.byte	0x53
 14668 3fae 02       		.uleb128 0x2
 14669 3faf 77       		.byte	0x77
 14670 3fb0 00       		.sleb128 0
 14671 3fb1 32       		.uleb128 0x32
 14672 3fb2 01       		.uleb128 0x1
 14673 3fb3 52       		.byte	0x52
 14674 3fb4 02       		.uleb128 0x2
 14675 3fb5 7A       		.byte	0x7a
 14676 3fb6 00       		.sleb128 0
 14677 3fb7 32       		.uleb128 0x32
 14678 3fb8 01       		.uleb128 0x1
 14679 3fb9 51       		.byte	0x51
 14680 3fba 05       		.uleb128 0x5
 14681 3fbb 03       		.byte	0x3
 14682 3fbc 680B0000 		.4byte	.LC86
 14683 3fc0 00       		.byte	0
 14684 3fc1 38       		.uleb128 0x38
 14685 3fc2 10010000 		.4byte	.LVL686
 14686 3fc6 31160000 		.4byte	0x1631
 14687 3fca E43F0000 		.4byte	0x3fe4
 14688 3fce 32       		.uleb128 0x32
 14689 3fcf 01       		.uleb128 0x1
 14690 3fd0 53       		.byte	0x53
 14691 3fd1 02       		.uleb128 0x2
 14692 3fd2 77       		.byte	0x77
ARM GAS  C:\Users\jo\AppData\Local\Temp\ccpKXchH.s 			page 266


 14693 3fd3 00       		.sleb128 0
 14694 3fd4 32       		.uleb128 0x32
 14695 3fd5 01       		.uleb128 0x1
 14696 3fd6 52       		.byte	0x52
 14697 3fd7 02       		.uleb128 0x2
 14698 3fd8 7A       		.byte	0x7a
 14699 3fd9 00       		.sleb128 0
 14700 3fda 32       		.uleb128 0x32
 14701 3fdb 01       		.uleb128 0x1
 14702 3fdc 51       		.byte	0x51
 14703 3fdd 05       		.uleb128 0x5
 14704 3fde 03       		.byte	0x3
 14705 3fdf A40B0000 		.4byte	.LC87
 14706 3fe3 00       		.byte	0
 14707 3fe4 31       		.uleb128 0x31
 14708 3fe5 26010000 		.4byte	.LVL689
 14709 3fe9 31160000 		.4byte	0x1631
 14710 3fed 32       		.uleb128 0x32
 14711 3fee 01       		.uleb128 0x1
 14712 3fef 53       		.byte	0x53
 14713 3ff0 02       		.uleb128 0x2
 14714 3ff1 77       		.byte	0x77
 14715 3ff2 00       		.sleb128 0
 14716 3ff3 32       		.uleb128 0x32
 14717 3ff4 01       		.uleb128 0x1
 14718 3ff5 52       		.byte	0x52
 14719 3ff6 02       		.uleb128 0x2
 14720 3ff7 7A       		.byte	0x7a
 14721 3ff8 00       		.sleb128 0
 14722 3ff9 32       		.uleb128 0x32
 14723 3ffa 01       		.uleb128 0x1
 14724 3ffb 51       		.byte	0x51
 14725 3ffc 05       		.uleb128 0x5
 14726 3ffd 03       		.byte	0x3
 14727 3ffe E00B0000 		.4byte	.LC88
 14728 4002 00       		.byte	0
 14729 4003 00       		.byte	0
 14730 4004 49       		.uleb128 0x49
 14731 4005 130C0000 		.4byte	.LASF397
 14732 4009 01       		.byte	0x1
 14733 400a 4707     		.2byte	0x747
 14734 400c 25000000 		.4byte	0x25
 14735 4010 00000000 		.4byte	.LFB282
 14736 4014 40010000 		.4byte	.LFE282-.LFB282
 14737 4018 01       		.uleb128 0x1
 14738 4019 9C       		.byte	0x9c
 14739 401a 75410000 		.4byte	0x4175
 14740 401e 34       		.uleb128 0x34
 14741 401f 7300     		.ascii	"s\000"
 14742 4021 01       		.byte	0x1
 14743 4022 4707     		.2byte	0x747
 14744 4024 25000000 		.4byte	0x25
 14745 4028 D12A0000 		.4byte	.LLST189
 14746 402c 3C       		.uleb128 0x3c
 14747 402d 14110000 		.4byte	.LASF315
 14748 4031 01       		.byte	0x1
 14749 4032 4707     		.2byte	0x747
ARM GAS  C:\Users\jo\AppData\Local\Temp\ccpKXchH.s 			page 267


 14750 4034 25000000 		.4byte	0x25
 14751 4038 EF2A0000 		.4byte	.LLST190
 14752 403c 3C       		.uleb128 0x3c
 14753 403d A5120000 		.4byte	.LASF316
 14754 4041 01       		.byte	0x1
 14755 4042 4707     		.2byte	0x747
 14756 4044 25000000 		.4byte	0x25
 14757 4048 0D2B0000 		.4byte	.LLST191
 14758 404c 3C       		.uleb128 0x3c
 14759 404d 830E0000 		.4byte	.LASF317
 14760 4051 01       		.byte	0x1
 14761 4052 4707     		.2byte	0x747
 14762 4054 84110000 		.4byte	0x1184
 14763 4058 2B2B0000 		.4byte	.LLST192
 14764 405c 3C       		.uleb128 0x3c
 14765 405d 9C0F0000 		.4byte	.LASF318
 14766 4061 01       		.byte	0x1
 14767 4062 4707     		.2byte	0x747
 14768 4064 170B0000 		.4byte	0xb17
 14769 4068 492B0000 		.4byte	.LLST193
 14770 406c 35       		.uleb128 0x35
 14771 406d C1030000 		.4byte	.LASF314
 14772 4071 01       		.byte	0x1
 14773 4072 4907     		.2byte	0x749
 14774 4074 44150000 		.4byte	0x1544
 14775 4078 812B0000 		.4byte	.LLST194
 14776 407c 36       		.uleb128 0x36
 14777 407d 65727200 		.ascii	"err\000"
 14778 4081 01       		.byte	0x1
 14779 4082 4A07     		.2byte	0x74a
 14780 4084 4A0B0000 		.4byte	0xb4a
 14781 4088 392C0000 		.4byte	.LLST195
 14782 408c 3A       		.uleb128 0x3a
 14783 408d B9080000 		.4byte	.LASF326
 14784 4091 01       		.byte	0x1
 14785 4092 4B07     		.2byte	0x74b
 14786 4094 E5140000 		.4byte	0x14e5
 14787 4098 02       		.uleb128 0x2
 14788 4099 91       		.byte	0x91
 14789 409a 44       		.sleb128 -60
 14790 409b 38       		.uleb128 0x38
 14791 409c 12000000 		.4byte	.LVL697
 14792 40a0 50150000 		.4byte	0x1550
 14793 40a4 AF400000 		.4byte	0x40af
 14794 40a8 32       		.uleb128 0x32
 14795 40a9 01       		.uleb128 0x1
 14796 40aa 50       		.byte	0x50
 14797 40ab 02       		.uleb128 0x2
 14798 40ac 79       		.byte	0x79
 14799 40ad 00       		.sleb128 0
 14800 40ae 00       		.byte	0
 14801 40af 38       		.uleb128 0x38
 14802 40b0 38000000 		.4byte	.LVL699
 14803 40b4 31160000 		.4byte	0x1631
 14804 40b8 D9400000 		.4byte	0x40d9
 14805 40bc 32       		.uleb128 0x32
 14806 40bd 01       		.uleb128 0x1
ARM GAS  C:\Users\jo\AppData\Local\Temp\ccpKXchH.s 			page 268


 14807 40be 53       		.byte	0x53
 14808 40bf 02       		.uleb128 0x2
 14809 40c0 75       		.byte	0x75
 14810 40c1 00       		.sleb128 0
 14811 40c2 32       		.uleb128 0x32
 14812 40c3 01       		.uleb128 0x1
 14813 40c4 52       		.byte	0x52
 14814 40c5 02       		.uleb128 0x2
 14815 40c6 79       		.byte	0x79
 14816 40c7 00       		.sleb128 0
 14817 40c8 32       		.uleb128 0x32
 14818 40c9 01       		.uleb128 0x1
 14819 40ca 51       		.byte	0x51
 14820 40cb 05       		.uleb128 0x5
 14821 40cc 03       		.byte	0x3
 14822 40cd 0C0D0000 		.4byte	.LC93
 14823 40d1 32       		.uleb128 0x32
 14824 40d2 02       		.uleb128 0x2
 14825 40d3 7D       		.byte	0x7d
 14826 40d4 00       		.sleb128 0
 14827 40d5 02       		.uleb128 0x2
 14828 40d6 76       		.byte	0x76
 14829 40d7 00       		.sleb128 0
 14830 40d8 00       		.byte	0
 14831 40d9 38       		.uleb128 0x38
 14832 40da 62000000 		.4byte	.LVL703
 14833 40de 31160000 		.4byte	0x1631
 14834 40e2 FC400000 		.4byte	0x40fc
 14835 40e6 32       		.uleb128 0x32
 14836 40e7 01       		.uleb128 0x1
 14837 40e8 53       		.byte	0x53
 14838 40e9 02       		.uleb128 0x2
 14839 40ea 76       		.byte	0x76
 14840 40eb 00       		.sleb128 0
 14841 40ec 32       		.uleb128 0x32
 14842 40ed 01       		.uleb128 0x1
 14843 40ee 52       		.byte	0x52
 14844 40ef 02       		.uleb128 0x2
 14845 40f0 79       		.byte	0x79
 14846 40f1 00       		.sleb128 0
 14847 40f2 32       		.uleb128 0x32
 14848 40f3 01       		.uleb128 0x1
 14849 40f4 51       		.byte	0x51
 14850 40f5 05       		.uleb128 0x5
 14851 40f6 03       		.byte	0x3
 14852 40f7 580C0000 		.4byte	.LC90
 14853 40fb 00       		.byte	0
 14854 40fc 38       		.uleb128 0x38
 14855 40fd 98000000 		.4byte	.LVL708
 14856 4101 52460000 		.4byte	0x4652
 14857 4105 1E410000 		.4byte	0x411e
 14858 4109 32       		.uleb128 0x32
 14859 410a 01       		.uleb128 0x1
 14860 410b 52       		.byte	0x52
 14861 410c 01       		.uleb128 0x1
 14862 410d 31       		.byte	0x31
 14863 410e 32       		.uleb128 0x32
ARM GAS  C:\Users\jo\AppData\Local\Temp\ccpKXchH.s 			page 269


 14864 410f 01       		.uleb128 0x1
 14865 4110 51       		.byte	0x51
 14866 4111 02       		.uleb128 0x2
 14867 4112 91       		.byte	0x91
 14868 4113 44       		.sleb128 -60
 14869 4114 32       		.uleb128 0x32
 14870 4115 01       		.uleb128 0x1
 14871 4116 50       		.byte	0x50
 14872 4117 05       		.uleb128 0x5
 14873 4118 03       		.byte	0x3
 14874 4119 00000000 		.4byte	lwip_setsockopt_internal
 14875 411d 00       		.byte	0
 14876 411e 38       		.uleb128 0x38
 14877 411f A2000000 		.4byte	.LVL709
 14878 4123 08460000 		.4byte	0x4608
 14879 4127 32410000 		.4byte	0x4132
 14880 412b 32       		.uleb128 0x32
 14881 412c 01       		.uleb128 0x1
 14882 412d 51       		.byte	0x51
 14883 412e 02       		.uleb128 0x2
 14884 412f 78       		.byte	0x78
 14885 4130 00       		.sleb128 0
 14886 4131 00       		.byte	0
 14887 4132 38       		.uleb128 0x38
 14888 4133 EC000000 		.4byte	.LVL719
 14889 4137 31160000 		.4byte	0x1631
 14890 413b 55410000 		.4byte	0x4155
 14891 413f 32       		.uleb128 0x32
 14892 4140 01       		.uleb128 0x1
 14893 4141 53       		.byte	0x53
 14894 4142 02       		.uleb128 0x2
 14895 4143 76       		.byte	0x76
 14896 4144 00       		.sleb128 0
 14897 4145 32       		.uleb128 0x32
 14898 4146 01       		.uleb128 0x1
 14899 4147 52       		.byte	0x52
 14900 4148 02       		.uleb128 0x2
 14901 4149 79       		.byte	0x79
 14902 414a 00       		.sleb128 0
 14903 414b 32       		.uleb128 0x32
 14904 414c 01       		.uleb128 0x1
 14905 414d 51       		.byte	0x51
 14906 414e 05       		.uleb128 0x5
 14907 414f 03       		.byte	0x3
 14908 4150 940C0000 		.4byte	.LC91
 14909 4154 00       		.byte	0
 14910 4155 31       		.uleb128 0x31
 14911 4156 02010000 		.4byte	.LVL722
 14912 415a 31160000 		.4byte	0x1631
 14913 415e 32       		.uleb128 0x32
 14914 415f 01       		.uleb128 0x1
 14915 4160 53       		.byte	0x53
 14916 4161 02       		.uleb128 0x2
 14917 4162 76       		.byte	0x76
 14918 4163 00       		.sleb128 0
 14919 4164 32       		.uleb128 0x32
 14920 4165 01       		.uleb128 0x1
ARM GAS  C:\Users\jo\AppData\Local\Temp\ccpKXchH.s 			page 270


 14921 4166 52       		.byte	0x52
 14922 4167 02       		.uleb128 0x2
 14923 4168 79       		.byte	0x79
 14924 4169 00       		.sleb128 0
 14925 416a 32       		.uleb128 0x32
 14926 416b 01       		.uleb128 0x1
 14927 416c 51       		.byte	0x51
 14928 416d 05       		.uleb128 0x5
 14929 416e 03       		.byte	0x3
 14930 416f D00C0000 		.4byte	.LC92
 14931 4173 00       		.byte	0
 14932 4174 00       		.byte	0
 14933 4175 49       		.uleb128 0x49
 14934 4176 8B0A0000 		.4byte	.LASF398
 14935 417a 01       		.byte	0x1
 14936 417b E908     		.2byte	0x8e9
 14937 417d 25000000 		.4byte	0x25
 14938 4181 00000000 		.4byte	.LFB284
 14939 4185 78000000 		.4byte	.LFE284-.LFB284
 14940 4189 01       		.uleb128 0x1
 14941 418a 9C       		.byte	0x9c
 14942 418b 35420000 		.4byte	0x4235
 14943 418f 34       		.uleb128 0x34
 14944 4190 7300     		.ascii	"s\000"
 14945 4192 01       		.byte	0x1
 14946 4193 E908     		.2byte	0x8e9
 14947 4195 25000000 		.4byte	0x25
 14948 4199 6A2D0000 		.4byte	.LLST196
 14949 419d 34       		.uleb128 0x34
 14950 419e 636D6400 		.ascii	"cmd\000"
 14951 41a2 01       		.byte	0x1
 14952 41a3 E908     		.2byte	0x8e9
 14953 41a5 91000000 		.4byte	0x91
 14954 41a9 882D0000 		.4byte	.LLST197
 14955 41ad 3C       		.uleb128 0x3c
 14956 41ae F00B0000 		.4byte	.LASF399
 14957 41b2 01       		.byte	0x1
 14958 41b3 E908     		.2byte	0x8e9
 14959 41b5 76030000 		.4byte	0x376
 14960 41b9 A62D0000 		.4byte	.LLST198
 14961 41bd 35       		.uleb128 0x35
 14962 41be C1030000 		.4byte	.LASF314
 14963 41c2 01       		.byte	0x1
 14964 41c3 EB08     		.2byte	0x8eb
 14965 41c5 44150000 		.4byte	0x1544
 14966 41c9 C42D0000 		.4byte	.LLST199
 14967 41cd 36       		.uleb128 0x36
 14968 41ce 76616C00 		.ascii	"val\000"
 14969 41d2 01       		.byte	0x1
 14970 41d3 EC08     		.2byte	0x8ec
 14971 41d5 030A0000 		.4byte	0xa03
 14972 41d9 0E2E0000 		.4byte	.LLST200
 14973 41dd 38       		.uleb128 0x38
 14974 41de 0E000000 		.4byte	.LVL730
 14975 41e2 50150000 		.4byte	0x1550
 14976 41e6 F1410000 		.4byte	0x41f1
 14977 41ea 32       		.uleb128 0x32
ARM GAS  C:\Users\jo\AppData\Local\Temp\ccpKXchH.s 			page 271


 14978 41eb 01       		.uleb128 0x1
 14979 41ec 50       		.byte	0x50
 14980 41ed 02       		.uleb128 0x2
 14981 41ee 77       		.byte	0x77
 14982 41ef 00       		.sleb128 0
 14983 41f0 00       		.byte	0
 14984 41f1 38       		.uleb128 0x38
 14985 41f2 34000000 		.4byte	.LVL734
 14986 41f6 31160000 		.4byte	0x1631
 14987 41fa 0E420000 		.4byte	0x420e
 14988 41fe 32       		.uleb128 0x32
 14989 41ff 01       		.uleb128 0x1
 14990 4200 52       		.byte	0x52
 14991 4201 02       		.uleb128 0x2
 14992 4202 77       		.byte	0x77
 14993 4203 00       		.sleb128 0
 14994 4204 32       		.uleb128 0x32
 14995 4205 01       		.uleb128 0x1
 14996 4206 51       		.byte	0x51
 14997 4207 05       		.uleb128 0x5
 14998 4208 03       		.byte	0x3
 14999 4209 480D0000 		.4byte	.LC94
 15000 420d 00       		.byte	0
 15001 420e 31       		.uleb128 0x31
 15002 420f 58000000 		.4byte	.LVL738
 15003 4213 31160000 		.4byte	0x1631
 15004 4217 32       		.uleb128 0x32
 15005 4218 01       		.uleb128 0x1
 15006 4219 53       		.byte	0x53
 15007 421a 02       		.uleb128 0x2
 15008 421b 76       		.byte	0x76
 15009 421c 00       		.sleb128 0
 15010 421d 32       		.uleb128 0x32
 15011 421e 01       		.uleb128 0x1
 15012 421f 52       		.byte	0x52
 15013 4220 02       		.uleb128 0x2
 15014 4221 77       		.byte	0x77
 15015 4222 00       		.sleb128 0
 15016 4223 32       		.uleb128 0x32
 15017 4224 01       		.uleb128 0x1
 15018 4225 51       		.byte	0x51
 15019 4226 05       		.uleb128 0x5
 15020 4227 03       		.byte	0x3
 15021 4228 680D0000 		.4byte	.LC95
 15022 422c 32       		.uleb128 0x32
 15023 422d 02       		.uleb128 0x2
 15024 422e 7D       		.byte	0x7d
 15025 422f 00       		.sleb128 0
 15026 4230 02       		.uleb128 0x2
 15027 4231 75       		.byte	0x75
 15028 4232 00       		.sleb128 0
 15029 4233 00       		.byte	0
 15030 4234 00       		.byte	0
 15031 4235 49       		.uleb128 0x49
 15032 4236 47000000 		.4byte	.LASF400
 15033 423a 01       		.byte	0x1
 15034 423b 2B09     		.2byte	0x92b
ARM GAS  C:\Users\jo\AppData\Local\Temp\ccpKXchH.s 			page 272


 15035 423d 25000000 		.4byte	0x25
 15036 4241 00000000 		.4byte	.LFB285
 15037 4245 68000000 		.4byte	.LFE285-.LFB285
 15038 4249 01       		.uleb128 0x1
 15039 424a 9C       		.byte	0x9c
 15040 424b D8420000 		.4byte	0x42d8
 15041 424f 34       		.uleb128 0x34
 15042 4250 7300     		.ascii	"s\000"
 15043 4252 01       		.byte	0x1
 15044 4253 2B09     		.2byte	0x92b
 15045 4255 25000000 		.4byte	0x25
 15046 4259 2E2E0000 		.4byte	.LLST201
 15047 425d 34       		.uleb128 0x34
 15048 425e 636D6400 		.ascii	"cmd\000"
 15049 4262 01       		.byte	0x1
 15050 4263 2B09     		.2byte	0x92b
 15051 4265 25000000 		.4byte	0x25
 15052 4269 4C2E0000 		.4byte	.LLST202
 15053 426d 34       		.uleb128 0x34
 15054 426e 76616C00 		.ascii	"val\000"
 15055 4272 01       		.byte	0x1
 15056 4273 2B09     		.2byte	0x92b
 15057 4275 25000000 		.4byte	0x25
 15058 4279 6A2E0000 		.4byte	.LLST203
 15059 427d 35       		.uleb128 0x35
 15060 427e C1030000 		.4byte	.LASF314
 15061 4282 01       		.byte	0x1
 15062 4283 2D09     		.2byte	0x92d
 15063 4285 44150000 		.4byte	0x1544
 15064 4289 882E0000 		.4byte	.LLST204
 15065 428d 36       		.uleb128 0x36
 15066 428e 72657400 		.ascii	"ret\000"
 15067 4292 01       		.byte	0x1
 15068 4293 2E09     		.2byte	0x92e
 15069 4295 25000000 		.4byte	0x25
 15070 4299 B12E0000 		.4byte	.LLST205
 15071 429d 38       		.uleb128 0x38
 15072 429e 0E000000 		.4byte	.LVL742
 15073 42a2 50150000 		.4byte	0x1550
 15074 42a6 B1420000 		.4byte	0x42b1
 15075 42aa 32       		.uleb128 0x32
 15076 42ab 01       		.uleb128 0x1
 15077 42ac 50       		.byte	0x50
 15078 42ad 02       		.uleb128 0x2
 15079 42ae 76       		.byte	0x76
 15080 42af 00       		.sleb128 0
 15081 42b0 00       		.byte	0
 15082 42b1 31       		.uleb128 0x31
 15083 42b2 2A000000 		.4byte	.LVL744
 15084 42b6 31160000 		.4byte	0x1631
 15085 42ba 32       		.uleb128 0x32
 15086 42bb 01       		.uleb128 0x1
 15087 42bc 53       		.byte	0x53
 15088 42bd 02       		.uleb128 0x2
 15089 42be 74       		.byte	0x74
 15090 42bf 00       		.sleb128 0
 15091 42c0 32       		.uleb128 0x32
ARM GAS  C:\Users\jo\AppData\Local\Temp\ccpKXchH.s 			page 273


 15092 42c1 01       		.uleb128 0x1
 15093 42c2 52       		.byte	0x52
 15094 42c3 02       		.uleb128 0x2
 15095 42c4 76       		.byte	0x76
 15096 42c5 00       		.sleb128 0
 15097 42c6 32       		.uleb128 0x32
 15098 42c7 01       		.uleb128 0x1
 15099 42c8 51       		.byte	0x51
 15100 42c9 05       		.uleb128 0x5
 15101 42ca 03       		.byte	0x3
 15102 42cb 8C0D0000 		.4byte	.LC96
 15103 42cf 32       		.uleb128 0x32
 15104 42d0 02       		.uleb128 0x2
 15105 42d1 7D       		.byte	0x7d
 15106 42d2 00       		.sleb128 0
 15107 42d3 02       		.uleb128 0x2
 15108 42d4 75       		.byte	0x75
 15109 42d5 00       		.sleb128 0
 15110 42d6 00       		.byte	0
 15111 42d7 00       		.byte	0
 15112 42d8 15       		.uleb128 0x15
 15113 42d9 0B140000 		.4byte	0x140b
 15114 42dd E8420000 		.4byte	0x42e8
 15115 42e1 16       		.uleb128 0x16
 15116 42e2 E5040000 		.4byte	0x4e5
 15117 42e6 01       		.byte	0x1
 15118 42e7 00       		.byte	0
 15119 42e8 4C       		.uleb128 0x4c
 15120 42e9 E80F0000 		.4byte	.LASF401
 15121 42ed 01       		.byte	0x1
 15122 42ee 7E       		.byte	0x7e
 15123 42ef D8420000 		.4byte	0x42d8
 15124 42f3 05       		.uleb128 0x5
 15125 42f4 03       		.byte	0x3
 15126 42f5 00000000 		.4byte	sockets
 15127 42f9 4C       		.uleb128 0x4c
 15128 42fa 6A110000 		.4byte	.LASF402
 15129 42fe 01       		.byte	0x1
 15130 42ff 80       		.byte	0x80
 15131 4300 D9140000 		.4byte	0x14d9
 15132 4304 05       		.uleb128 0x5
 15133 4305 03       		.byte	0x3
 15134 4306 00000000 		.4byte	select_cb_list
 15135 430a 4C       		.uleb128 0x4c
 15136 430b AE110000 		.4byte	.LASF403
 15137 430f 01       		.byte	0x1
 15138 4310 83       		.byte	0x83
 15139 4311 1B430000 		.4byte	0x431b
 15140 4315 05       		.uleb128 0x5
 15141 4316 03       		.byte	0x3
 15142 4317 00000000 		.4byte	select_cb_ctr
 15143 431b 05       		.uleb128 0x5
 15144 431c 25000000 		.4byte	0x25
 15145 4320 15       		.uleb128 0x15
 15146 4321 25000000 		.4byte	0x25
 15147 4325 30430000 		.4byte	0x4330
 15148 4329 16       		.uleb128 0x16
ARM GAS  C:\Users\jo\AppData\Local\Temp\ccpKXchH.s 			page 274


 15149 432a E5040000 		.4byte	0x4e5
 15150 432e 0F       		.byte	0xf
 15151 432f 00       		.byte	0
 15152 4330 4C       		.uleb128 0x4c
 15153 4331 B20A0000 		.4byte	.LASF404
 15154 4335 01       		.byte	0x1
 15155 4336 87       		.byte	0x87
 15156 4337 41430000 		.4byte	0x4341
 15157 433b 05       		.uleb128 0x5
 15158 433c 03       		.byte	0x3
 15159 433d 00000000 		.4byte	err_to_errno_table
 15160 4341 14       		.uleb128 0x14
 15161 4342 20430000 		.4byte	0x4320
 15162 4346 4D       		.uleb128 0x4d
 15163 4347 3B0D0000 		.4byte	.LASF405
 15164 434b 25       		.byte	0x25
 15165 434c A706     		.2byte	0x6a7
 15166 434e 10010000 		.4byte	0x110
 15167 4352 4E       		.uleb128 0x4e
 15168 4353 636800   		.ascii	"ch\000"
 15169 4356 09       		.byte	0x9
 15170 4357 EB01     		.2byte	0x1eb
 15171 4359 6D040000 		.4byte	0x46d
 15172 435d 4F       		.uleb128 0x4f
 15173 435e 57130000 		.4byte	.LASF406
 15174 4362 17       		.byte	0x17
 15175 4363 3B       		.byte	0x3b
 15176 4364 ED090000 		.4byte	0x9ed
 15177 4368 50       		.uleb128 0x50
 15178 4369 62000000 		.4byte	.LASF409
 15179 436d 02       		.byte	0x2
 15180 436e 28       		.byte	0x28
 15181 436f 25000000 		.4byte	0x25
 15182 4373 87430000 		.4byte	0x4387
 15183 4377 0D       		.uleb128 0xd
 15184 4378 E6150000 		.4byte	0x15e6
 15185 437c 0D       		.uleb128 0xd
 15186 437d CB050000 		.4byte	0x5cb
 15187 4381 0D       		.uleb128 0xd
 15188 4382 F8090000 		.4byte	0x9f8
 15189 4386 00       		.byte	0
 15190 4387 51       		.uleb128 0x51
 15191 4388 1A110000 		.4byte	.LASF407
 15192 438c 26       		.byte	0x26
 15193 438d E6       		.byte	0xe6
 15194 438e 98430000 		.4byte	0x4398
 15195 4392 0D       		.uleb128 0xd
 15196 4393 CB050000 		.4byte	0x5cb
 15197 4397 00       		.byte	0
 15198 4398 51       		.uleb128 0x51
 15199 4399 E6050000 		.4byte	.LASF408
 15200 439d 27       		.byte	0x27
 15201 439e 8E       		.byte	0x8e
 15202 439f A9430000 		.4byte	0x43a9
 15203 43a3 0D       		.uleb128 0xd
 15204 43a4 05140000 		.4byte	0x1405
 15205 43a8 00       		.byte	0
ARM GAS  C:\Users\jo\AppData\Local\Temp\ccpKXchH.s 			page 275


 15206 43a9 50       		.uleb128 0x50
 15207 43aa 020B0000 		.4byte	.LASF410
 15208 43ae 1F       		.byte	0x1f
 15209 43af DD       		.byte	0xdd
 15210 43b0 4A0B0000 		.4byte	0xb4a
 15211 43b4 CD430000 		.4byte	0x43cd
 15212 43b8 0D       		.uleb128 0xd
 15213 43b9 C70C0000 		.4byte	0xcc7
 15214 43bd 0D       		.uleb128 0xd
 15215 43be 7E110000 		.4byte	0x117e
 15216 43c2 0D       		.uleb128 0xd
 15217 43c3 4C130000 		.4byte	0x134c
 15218 43c7 0D       		.uleb128 0xd
 15219 43c8 030A0000 		.4byte	0xa03
 15220 43cc 00       		.byte	0
 15221 43cd 50       		.uleb128 0x50
 15222 43ce A8030000 		.4byte	.LASF411
 15223 43d2 28       		.byte	0x28
 15224 43d3 63       		.byte	0x63
 15225 43d4 190A0000 		.4byte	0xa19
 15226 43d8 E2430000 		.4byte	0x43e2
 15227 43dc 0D       		.uleb128 0xd
 15228 43dd 190A0000 		.4byte	0xa19
 15229 43e1 00       		.byte	0
 15230 43e2 52       		.uleb128 0x52
 15231 43e3 39120000 		.4byte	.LASF412
 15232 43e7 76030000 		.4byte	0x376
 15233 43eb FF430000 		.4byte	0x43ff
 15234 43ef 0D       		.uleb128 0xd
 15235 43f0 76030000 		.4byte	0x376
 15236 43f4 0D       		.uleb128 0xd
 15237 43f5 84110000 		.4byte	0x1184
 15238 43f9 0D       		.uleb128 0xd
 15239 43fa E5040000 		.4byte	0x4e5
 15240 43fe 00       		.byte	0
 15241 43ff 50       		.uleb128 0x50
 15242 4400 960A0000 		.4byte	.LASF413
 15243 4404 1F       		.byte	0x1f
 15244 4405 E7       		.byte	0xe7
 15245 4406 4A0B0000 		.4byte	0xb4a
 15246 440a 19440000 		.4byte	0x4419
 15247 440e 0D       		.uleb128 0xd
 15248 440f C70C0000 		.4byte	0xcc7
 15249 4413 0D       		.uleb128 0xd
 15250 4414 19440000 		.4byte	0x4419
 15251 4418 00       		.byte	0
 15252 4419 0B       		.uleb128 0xb
 15253 441a 04       		.byte	0x4
 15254 441b C70C0000 		.4byte	0xcc7
 15255 441f 50       		.uleb128 0x50
 15256 4420 4C030000 		.4byte	.LASF414
 15257 4424 1F       		.byte	0x1f
 15258 4425 D9       		.byte	0xd9
 15259 4426 4A0B0000 		.4byte	0xb4a
 15260 442a 34440000 		.4byte	0x4434
 15261 442e 0D       		.uleb128 0xd
 15262 442f C70C0000 		.4byte	0xcc7
ARM GAS  C:\Users\jo\AppData\Local\Temp\ccpKXchH.s 			page 276


 15263 4433 00       		.byte	0
 15264 4434 50       		.uleb128 0x50
 15265 4435 B70C0000 		.4byte	.LASF415
 15266 4439 28       		.byte	0x28
 15267 443a 64       		.byte	0x64
 15268 443b 190A0000 		.4byte	0xa19
 15269 443f 49440000 		.4byte	0x4449
 15270 4443 0D       		.uleb128 0xd
 15271 4444 190A0000 		.4byte	0xa19
 15272 4448 00       		.byte	0
 15273 4449 50       		.uleb128 0x50
 15274 444a A80E0000 		.4byte	.LASF416
 15275 444e 1F       		.byte	0x1f
 15276 444f E2       		.byte	0xe2
 15277 4450 4A0B0000 		.4byte	0xb4a
 15278 4454 68440000 		.4byte	0x4468
 15279 4458 0D       		.uleb128 0xd
 15280 4459 C70C0000 		.4byte	0xcc7
 15281 445d 0D       		.uleb128 0xd
 15282 445e 7E110000 		.4byte	0x117e
 15283 4462 0D       		.uleb128 0xd
 15284 4463 190A0000 		.4byte	0xa19
 15285 4467 00       		.byte	0
 15286 4468 51       		.uleb128 0x51
 15287 4469 FB040000 		.4byte	.LASF417
 15288 446d 1D       		.byte	0x1d
 15289 446e 41       		.byte	0x41
 15290 446f 79440000 		.4byte	0x4479
 15291 4473 0D       		.uleb128 0xd
 15292 4474 F4130000 		.4byte	0x13f4
 15293 4478 00       		.byte	0
 15294 4479 50       		.uleb128 0x50
 15295 447a 6D090000 		.4byte	.LASF418
 15296 447e 1C       		.byte	0x1c
 15297 447f 9B       		.byte	0x9b
 15298 4480 030A0000 		.4byte	0xa03
 15299 4484 8E440000 		.4byte	0x448e
 15300 4488 0D       		.uleb128 0xd
 15301 4489 B60B0000 		.4byte	0xbb6
 15302 448d 00       		.byte	0
 15303 448e 50       		.uleb128 0x50
 15304 448f C70F0000 		.4byte	.LASF419
 15305 4493 1F       		.byte	0x1f
 15306 4494 E3       		.byte	0xe3
 15307 4495 4A0B0000 		.4byte	0xb4a
 15308 4499 AD440000 		.4byte	0x44ad
 15309 449d 0D       		.uleb128 0xd
 15310 449e C70C0000 		.4byte	0xcc7
 15311 44a2 0D       		.uleb128 0xd
 15312 44a3 7E110000 		.4byte	0x117e
 15313 44a7 0D       		.uleb128 0xd
 15314 44a8 190A0000 		.4byte	0xa19
 15315 44ac 00       		.byte	0
 15316 44ad 50       		.uleb128 0x50
 15317 44ae 4E110000 		.4byte	.LASF420
 15318 44b2 1F       		.byte	0x1f
 15319 44b3 E5       		.byte	0xe5
ARM GAS  C:\Users\jo\AppData\Local\Temp\ccpKXchH.s 			page 277


 15320 44b4 4A0B0000 		.4byte	0xb4a
 15321 44b8 C7440000 		.4byte	0x44c7
 15322 44bc 0D       		.uleb128 0xd
 15323 44bd C70C0000 		.4byte	0xcc7
 15324 44c1 0D       		.uleb128 0xd
 15325 44c2 030A0000 		.4byte	0xa03
 15326 44c6 00       		.byte	0
 15327 44c7 50       		.uleb128 0x50
 15328 44c8 2D0F0000 		.4byte	.LASF421
 15329 44cc 1C       		.byte	0x1c
 15330 44cd A1       		.byte	0xa1
 15331 44ce 190A0000 		.4byte	0xa19
 15332 44d2 EB440000 		.4byte	0x44eb
 15333 44d6 0D       		.uleb128 0xd
 15334 44d7 B60B0000 		.4byte	0xbb6
 15335 44db 0D       		.uleb128 0xd
 15336 44dc 76030000 		.4byte	0x376
 15337 44e0 0D       		.uleb128 0xd
 15338 44e1 190A0000 		.4byte	0xa19
 15339 44e5 0D       		.uleb128 0xd
 15340 44e6 190A0000 		.4byte	0xa19
 15341 44ea 00       		.byte	0
 15342 44eb 51       		.uleb128 0x51
 15343 44ec BE020000 		.4byte	.LASF422
 15344 44f0 1F       		.byte	0x1f
 15345 44f1 EA       		.byte	0xea
 15346 44f2 01450000 		.4byte	0x4501
 15347 44f6 0D       		.uleb128 0xd
 15348 44f7 C70C0000 		.4byte	0xcc7
 15349 44fb 0D       		.uleb128 0xd
 15350 44fc 2F0A0000 		.4byte	0xa2f
 15351 4500 00       		.byte	0
 15352 4501 50       		.uleb128 0x50
 15353 4502 AC0D0000 		.4byte	.LASF423
 15354 4506 1F       		.byte	0x1f
 15355 4507 E8       		.byte	0xe8
 15356 4508 4A0B0000 		.4byte	0xb4a
 15357 450c 1B450000 		.4byte	0x451b
 15358 4510 0D       		.uleb128 0xd
 15359 4511 C70C0000 		.4byte	0xcc7
 15360 4515 0D       		.uleb128 0xd
 15361 4516 1B450000 		.4byte	0x451b
 15362 451a 00       		.byte	0
 15363 451b 0B       		.uleb128 0xb
 15364 451c 04       		.byte	0x4
 15365 451d F4130000 		.4byte	0x13f4
 15366 4521 50       		.uleb128 0x50
 15367 4522 860F0000 		.4byte	.LASF424
 15368 4526 1F       		.byte	0x1f
 15369 4527 E9       		.byte	0xe9
 15370 4528 4A0B0000 		.4byte	0xb4a
 15371 452c 3B450000 		.4byte	0x453b
 15372 4530 0D       		.uleb128 0xd
 15373 4531 C70C0000 		.4byte	0xcc7
 15374 4535 0D       		.uleb128 0xd
 15375 4536 3B450000 		.4byte	0x453b
 15376 453a 00       		.byte	0
ARM GAS  C:\Users\jo\AppData\Local\Temp\ccpKXchH.s 			page 278


 15377 453b 0B       		.uleb128 0xb
 15378 453c 04       		.byte	0x4
 15379 453d B60B0000 		.4byte	0xbb6
 15380 4541 50       		.uleb128 0x50
 15381 4542 CB090000 		.4byte	.LASF425
 15382 4546 1B       		.byte	0x1b
 15383 4547 4C       		.byte	0x4c
 15384 4548 CB050000 		.4byte	0x5cb
 15385 454c 56450000 		.4byte	0x4556
 15386 4550 0D       		.uleb128 0xd
 15387 4551 4A0B0000 		.4byte	0xb4a
 15388 4555 00       		.byte	0
 15389 4556 50       		.uleb128 0x50
 15390 4557 8C030000 		.4byte	.LASF426
 15391 455b 1D       		.byte	0x1d
 15392 455c 44       		.byte	0x44
 15393 455d 4A0B0000 		.4byte	0xb4a
 15394 4561 75450000 		.4byte	0x4575
 15395 4565 0D       		.uleb128 0xd
 15396 4566 F4130000 		.4byte	0x13f4
 15397 456a 0D       		.uleb128 0xd
 15398 456b 84110000 		.4byte	0x1184
 15399 456f 0D       		.uleb128 0xd
 15400 4570 190A0000 		.4byte	0xa19
 15401 4574 00       		.byte	0
 15402 4575 51       		.uleb128 0x51
 15403 4576 82060000 		.4byte	.LASF427
 15404 457a 1D       		.byte	0x1d
 15405 457b 43       		.byte	0x43
 15406 457c 86450000 		.4byte	0x4586
 15407 4580 0D       		.uleb128 0xd
 15408 4581 F4130000 		.4byte	0x13f4
 15409 4585 00       		.byte	0
 15410 4586 50       		.uleb128 0x50
 15411 4587 00000000 		.4byte	.LASF428
 15412 458b 1F       		.byte	0x1f
 15413 458c ED       		.byte	0xed
 15414 458d 4A0B0000 		.4byte	0xb4a
 15415 4591 A0450000 		.4byte	0x45a0
 15416 4595 0D       		.uleb128 0xd
 15417 4596 C70C0000 		.4byte	0xcc7
 15418 459a 0D       		.uleb128 0xd
 15419 459b F4130000 		.4byte	0x13f4
 15420 459f 00       		.byte	0
 15421 45a0 50       		.uleb128 0x50
 15422 45a1 A4080000 		.4byte	.LASF429
 15423 45a5 1F       		.byte	0x1f
 15424 45a6 EE       		.byte	0xee
 15425 45a7 4A0B0000 		.4byte	0xb4a
 15426 45ab C9450000 		.4byte	0x45c9
 15427 45af 0D       		.uleb128 0xd
 15428 45b0 C70C0000 		.4byte	0xcc7
 15429 45b4 0D       		.uleb128 0xd
 15430 45b5 84110000 		.4byte	0x1184
 15431 45b9 0D       		.uleb128 0xd
 15432 45ba 2C000000 		.4byte	0x2c
 15433 45be 0D       		.uleb128 0xd
ARM GAS  C:\Users\jo\AppData\Local\Temp\ccpKXchH.s 			page 279


 15434 45bf 030A0000 		.4byte	0xa03
 15435 45c3 0D       		.uleb128 0xd
 15436 45c4 C9450000 		.4byte	0x45c9
 15437 45c8 00       		.byte	0
 15438 45c9 0B       		.uleb128 0xb
 15439 45ca 04       		.byte	0x4
 15440 45cb 2C000000 		.4byte	0x2c
 15441 45cf 50       		.uleb128 0x50
 15442 45d0 5B030000 		.4byte	.LASF430
 15443 45d4 1F       		.byte	0x1f
 15444 45d5 D7       		.byte	0xd7
 15445 45d6 C70C0000 		.4byte	0xcc7
 15446 45da EE450000 		.4byte	0x45ee
 15447 45de 0D       		.uleb128 0xd
 15448 45df 190C0000 		.4byte	0xc19
 15449 45e3 0D       		.uleb128 0xd
 15450 45e4 030A0000 		.4byte	0xa03
 15451 45e8 0D       		.uleb128 0xd
 15452 45e9 A10C0000 		.4byte	0xca1
 15453 45ed 00       		.byte	0
 15454 45ee 50       		.uleb128 0x50
 15455 45ef B7090000 		.4byte	.LASF431
 15456 45f3 27       		.byte	0x27
 15457 45f4 8B       		.byte	0x8b
 15458 45f5 4A0B0000 		.4byte	0xb4a
 15459 45f9 08460000 		.4byte	0x4608
 15460 45fd 0D       		.uleb128 0xd
 15461 45fe 05140000 		.4byte	0x1405
 15462 4602 0D       		.uleb128 0xd
 15463 4603 030A0000 		.4byte	0xa03
 15464 4607 00       		.byte	0
 15465 4608 50       		.uleb128 0x50
 15466 4609 D50D0000 		.4byte	.LASF432
 15467 460d 27       		.byte	0x27
 15468 460e 94       		.byte	0x94
 15469 460f 2F0A0000 		.4byte	0xa2f
 15470 4613 22460000 		.4byte	0x4622
 15471 4617 0D       		.uleb128 0xd
 15472 4618 05140000 		.4byte	0x1405
 15473 461c 0D       		.uleb128 0xd
 15474 461d 2F0A0000 		.4byte	0xa2f
 15475 4621 00       		.byte	0
 15476 4622 51       		.uleb128 0x51
 15477 4623 CB0E0000 		.4byte	.LASF433
 15478 4627 27       		.byte	0x27
 15479 4628 97       		.byte	0x97
 15480 4629 33460000 		.4byte	0x4633
 15481 462d 0D       		.uleb128 0xd
 15482 462e 05140000 		.4byte	0x1405
 15483 4632 00       		.byte	0
 15484 4633 50       		.uleb128 0x50
 15485 4634 97030000 		.4byte	.LASF434
 15486 4638 1F       		.byte	0x1f
 15487 4639 F3       		.byte	0xf3
 15488 463a 4A0B0000 		.4byte	0xb4a
 15489 463e 52460000 		.4byte	0x4652
 15490 4642 0D       		.uleb128 0xd
ARM GAS  C:\Users\jo\AppData\Local\Temp\ccpKXchH.s 			page 280


 15491 4643 C70C0000 		.4byte	0xcc7
 15492 4647 0D       		.uleb128 0xd
 15493 4648 030A0000 		.4byte	0xa03
 15494 464c 0D       		.uleb128 0xd
 15495 464d 030A0000 		.4byte	0xa03
 15496 4651 00       		.byte	0
 15497 4652 53       		.uleb128 0x53
 15498 4653 E7110000 		.4byte	.LASF435
 15499 4657 24       		.byte	0x24
 15500 4658 65       		.byte	0x65
 15501 4659 4A0B0000 		.4byte	0xb4a
 15502 465d 0D       		.uleb128 0xd
 15503 465e FA130000 		.4byte	0x13fa
 15504 4662 0D       		.uleb128 0xd
 15505 4663 76030000 		.4byte	0x376
 15506 4667 0D       		.uleb128 0xd
 15507 4668 030A0000 		.4byte	0xa03
 15508 466c 00       		.byte	0
 15509 466d 00       		.byte	0
 15510              		.section	.debug_abbrev,"",%progbits
 15511              	.Ldebug_abbrev0:
 15512 0000 01       		.uleb128 0x1
 15513 0001 11       		.uleb128 0x11
 15514 0002 01       		.byte	0x1
 15515 0003 25       		.uleb128 0x25
 15516 0004 0E       		.uleb128 0xe
 15517 0005 13       		.uleb128 0x13
 15518 0006 0B       		.uleb128 0xb
 15519 0007 03       		.uleb128 0x3
 15520 0008 0E       		.uleb128 0xe
 15521 0009 1B       		.uleb128 0x1b
 15522 000a 0E       		.uleb128 0xe
 15523 000b 55       		.uleb128 0x55
 15524 000c 17       		.uleb128 0x17
 15525 000d 11       		.uleb128 0x11
 15526 000e 01       		.uleb128 0x1
 15527 000f 10       		.uleb128 0x10
 15528 0010 17       		.uleb128 0x17
 15529 0011 00       		.byte	0
 15530 0012 00       		.byte	0
 15531 0013 02       		.uleb128 0x2
 15532 0014 24       		.uleb128 0x24
 15533 0015 00       		.byte	0
 15534 0016 0B       		.uleb128 0xb
 15535 0017 0B       		.uleb128 0xb
 15536 0018 3E       		.uleb128 0x3e
 15537 0019 0B       		.uleb128 0xb
 15538 001a 03       		.uleb128 0x3
 15539 001b 08       		.uleb128 0x8
 15540 001c 00       		.byte	0
 15541 001d 00       		.byte	0
 15542 001e 03       		.uleb128 0x3
 15543 001f 16       		.uleb128 0x16
 15544 0020 00       		.byte	0
 15545 0021 03       		.uleb128 0x3
 15546 0022 0E       		.uleb128 0xe
 15547 0023 3A       		.uleb128 0x3a
ARM GAS  C:\Users\jo\AppData\Local\Temp\ccpKXchH.s 			page 281


 15548 0024 0B       		.uleb128 0xb
 15549 0025 3B       		.uleb128 0x3b
 15550 0026 0B       		.uleb128 0xb
 15551 0027 49       		.uleb128 0x49
 15552 0028 13       		.uleb128 0x13
 15553 0029 00       		.byte	0
 15554 002a 00       		.byte	0
 15555 002b 04       		.uleb128 0x4
 15556 002c 24       		.uleb128 0x24
 15557 002d 00       		.byte	0
 15558 002e 0B       		.uleb128 0xb
 15559 002f 0B       		.uleb128 0xb
 15560 0030 3E       		.uleb128 0x3e
 15561 0031 0B       		.uleb128 0xb
 15562 0032 03       		.uleb128 0x3
 15563 0033 0E       		.uleb128 0xe
 15564 0034 00       		.byte	0
 15565 0035 00       		.byte	0
 15566 0036 05       		.uleb128 0x5
 15567 0037 35       		.uleb128 0x35
 15568 0038 00       		.byte	0
 15569 0039 49       		.uleb128 0x49
 15570 003a 13       		.uleb128 0x13
 15571 003b 00       		.byte	0
 15572 003c 00       		.byte	0
 15573 003d 06       		.uleb128 0x6
 15574 003e 13       		.uleb128 0x13
 15575 003f 01       		.byte	0x1
 15576 0040 03       		.uleb128 0x3
 15577 0041 0E       		.uleb128 0xe
 15578 0042 0B       		.uleb128 0xb
 15579 0043 0B       		.uleb128 0xb
 15580 0044 3A       		.uleb128 0x3a
 15581 0045 0B       		.uleb128 0xb
 15582 0046 3B       		.uleb128 0x3b
 15583 0047 0B       		.uleb128 0xb
 15584 0048 01       		.uleb128 0x1
 15585 0049 13       		.uleb128 0x13
 15586 004a 00       		.byte	0
 15587 004b 00       		.byte	0
 15588 004c 07       		.uleb128 0x7
 15589 004d 0D       		.uleb128 0xd
 15590 004e 00       		.byte	0
 15591 004f 03       		.uleb128 0x3
 15592 0050 0E       		.uleb128 0xe
 15593 0051 3A       		.uleb128 0x3a
 15594 0052 0B       		.uleb128 0xb
 15595 0053 3B       		.uleb128 0x3b
 15596 0054 0B       		.uleb128 0xb
 15597 0055 49       		.uleb128 0x49
 15598 0056 13       		.uleb128 0x13
 15599 0057 38       		.uleb128 0x38
 15600 0058 0B       		.uleb128 0xb
 15601 0059 00       		.byte	0
 15602 005a 00       		.byte	0
 15603 005b 08       		.uleb128 0x8
 15604 005c 0D       		.uleb128 0xd
ARM GAS  C:\Users\jo\AppData\Local\Temp\ccpKXchH.s 			page 282


 15605 005d 00       		.byte	0
 15606 005e 03       		.uleb128 0x3
 15607 005f 08       		.uleb128 0x8
 15608 0060 3A       		.uleb128 0x3a
 15609 0061 0B       		.uleb128 0xb
 15610 0062 3B       		.uleb128 0x3b
 15611 0063 05       		.uleb128 0x5
 15612 0064 49       		.uleb128 0x49
 15613 0065 13       		.uleb128 0x13
 15614 0066 38       		.uleb128 0x38
 15615 0067 0B       		.uleb128 0xb
 15616 0068 00       		.byte	0
 15617 0069 00       		.byte	0
 15618 006a 09       		.uleb128 0x9
 15619 006b 0D       		.uleb128 0xd
 15620 006c 00       		.byte	0
 15621 006d 03       		.uleb128 0x3
 15622 006e 0E       		.uleb128 0xe
 15623 006f 3A       		.uleb128 0x3a
 15624 0070 0B       		.uleb128 0xb
 15625 0071 3B       		.uleb128 0x3b
 15626 0072 05       		.uleb128 0x5
 15627 0073 49       		.uleb128 0x49
 15628 0074 13       		.uleb128 0x13
 15629 0075 38       		.uleb128 0x38
 15630 0076 0B       		.uleb128 0xb
 15631 0077 00       		.byte	0
 15632 0078 00       		.byte	0
 15633 0079 0A       		.uleb128 0xa
 15634 007a 13       		.uleb128 0x13
 15635 007b 01       		.byte	0x1
 15636 007c 03       		.uleb128 0x3
 15637 007d 0E       		.uleb128 0xe
 15638 007e 0B       		.uleb128 0xb
 15639 007f 0B       		.uleb128 0xb
 15640 0080 3A       		.uleb128 0x3a
 15641 0081 0B       		.uleb128 0xb
 15642 0082 3B       		.uleb128 0x3b
 15643 0083 05       		.uleb128 0x5
 15644 0084 01       		.uleb128 0x1
 15645 0085 13       		.uleb128 0x13
 15646 0086 00       		.byte	0
 15647 0087 00       		.byte	0
 15648 0088 0B       		.uleb128 0xb
 15649 0089 0F       		.uleb128 0xf
 15650 008a 00       		.byte	0
 15651 008b 0B       		.uleb128 0xb
 15652 008c 0B       		.uleb128 0xb
 15653 008d 49       		.uleb128 0x49
 15654 008e 13       		.uleb128 0x13
 15655 008f 00       		.byte	0
 15656 0090 00       		.byte	0
 15657 0091 0C       		.uleb128 0xc
 15658 0092 15       		.uleb128 0x15
 15659 0093 01       		.byte	0x1
 15660 0094 27       		.uleb128 0x27
 15661 0095 19       		.uleb128 0x19
ARM GAS  C:\Users\jo\AppData\Local\Temp\ccpKXchH.s 			page 283


 15662 0096 01       		.uleb128 0x1
 15663 0097 13       		.uleb128 0x13
 15664 0098 00       		.byte	0
 15665 0099 00       		.byte	0
 15666 009a 0D       		.uleb128 0xd
 15667 009b 05       		.uleb128 0x5
 15668 009c 00       		.byte	0
 15669 009d 49       		.uleb128 0x49
 15670 009e 13       		.uleb128 0x13
 15671 009f 00       		.byte	0
 15672 00a0 00       		.byte	0
 15673 00a1 0E       		.uleb128 0xe
 15674 00a2 0F       		.uleb128 0xf
 15675 00a3 00       		.byte	0
 15676 00a4 0B       		.uleb128 0xb
 15677 00a5 0B       		.uleb128 0xb
 15678 00a6 00       		.byte	0
 15679 00a7 00       		.byte	0
 15680 00a8 0F       		.uleb128 0xf
 15681 00a9 13       		.uleb128 0x13
 15682 00aa 01       		.byte	0x1
 15683 00ab 03       		.uleb128 0x3
 15684 00ac 0E       		.uleb128 0xe
 15685 00ad 0B       		.uleb128 0xb
 15686 00ae 05       		.uleb128 0x5
 15687 00af 3A       		.uleb128 0x3a
 15688 00b0 0B       		.uleb128 0xb
 15689 00b1 3B       		.uleb128 0x3b
 15690 00b2 05       		.uleb128 0x5
 15691 00b3 01       		.uleb128 0x1
 15692 00b4 13       		.uleb128 0x13
 15693 00b5 00       		.byte	0
 15694 00b6 00       		.byte	0
 15695 00b7 10       		.uleb128 0x10
 15696 00b8 0D       		.uleb128 0xd
 15697 00b9 00       		.byte	0
 15698 00ba 03       		.uleb128 0x3
 15699 00bb 0E       		.uleb128 0xe
 15700 00bc 3A       		.uleb128 0x3a
 15701 00bd 0B       		.uleb128 0xb
 15702 00be 3B       		.uleb128 0x3b
 15703 00bf 05       		.uleb128 0x5
 15704 00c0 49       		.uleb128 0x49
 15705 00c1 13       		.uleb128 0x13
 15706 00c2 38       		.uleb128 0x38
 15707 00c3 05       		.uleb128 0x5
 15708 00c4 00       		.byte	0
 15709 00c5 00       		.byte	0
 15710 00c6 11       		.uleb128 0x11
 15711 00c7 0D       		.uleb128 0xd
 15712 00c8 00       		.byte	0
 15713 00c9 03       		.uleb128 0x3
 15714 00ca 08       		.uleb128 0x8
 15715 00cb 3A       		.uleb128 0x3a
 15716 00cc 0B       		.uleb128 0xb
 15717 00cd 3B       		.uleb128 0x3b
 15718 00ce 05       		.uleb128 0x5
ARM GAS  C:\Users\jo\AppData\Local\Temp\ccpKXchH.s 			page 284


 15719 00cf 49       		.uleb128 0x49
 15720 00d0 13       		.uleb128 0x13
 15721 00d1 38       		.uleb128 0x38
 15722 00d2 05       		.uleb128 0x5
 15723 00d3 00       		.byte	0
 15724 00d4 00       		.byte	0
 15725 00d5 12       		.uleb128 0x12
 15726 00d6 0D       		.uleb128 0xd
 15727 00d7 00       		.byte	0
 15728 00d8 03       		.uleb128 0x3
 15729 00d9 08       		.uleb128 0x8
 15730 00da 3A       		.uleb128 0x3a
 15731 00db 0B       		.uleb128 0xb
 15732 00dc 3B       		.uleb128 0x3b
 15733 00dd 0B       		.uleb128 0xb
 15734 00de 49       		.uleb128 0x49
 15735 00df 13       		.uleb128 0x13
 15736 00e0 38       		.uleb128 0x38
 15737 00e1 0B       		.uleb128 0xb
 15738 00e2 00       		.byte	0
 15739 00e3 00       		.byte	0
 15740 00e4 13       		.uleb128 0x13
 15741 00e5 0D       		.uleb128 0xd
 15742 00e6 00       		.byte	0
 15743 00e7 03       		.uleb128 0x3
 15744 00e8 0E       		.uleb128 0xe
 15745 00e9 49       		.uleb128 0x49
 15746 00ea 13       		.uleb128 0x13
 15747 00eb 38       		.uleb128 0x38
 15748 00ec 0B       		.uleb128 0xb
 15749 00ed 34       		.uleb128 0x34
 15750 00ee 19       		.uleb128 0x19
 15751 00ef 00       		.byte	0
 15752 00f0 00       		.byte	0
 15753 00f1 14       		.uleb128 0x14
 15754 00f2 26       		.uleb128 0x26
 15755 00f3 00       		.byte	0
 15756 00f4 49       		.uleb128 0x49
 15757 00f5 13       		.uleb128 0x13
 15758 00f6 00       		.byte	0
 15759 00f7 00       		.byte	0
 15760 00f8 15       		.uleb128 0x15
 15761 00f9 01       		.uleb128 0x1
 15762 00fa 01       		.byte	0x1
 15763 00fb 49       		.uleb128 0x49
 15764 00fc 13       		.uleb128 0x13
 15765 00fd 01       		.uleb128 0x1
 15766 00fe 13       		.uleb128 0x13
 15767 00ff 00       		.byte	0
 15768 0100 00       		.byte	0
 15769 0101 16       		.uleb128 0x16
 15770 0102 21       		.uleb128 0x21
 15771 0103 00       		.byte	0
 15772 0104 49       		.uleb128 0x49
 15773 0105 13       		.uleb128 0x13
 15774 0106 2F       		.uleb128 0x2f
 15775 0107 0B       		.uleb128 0xb
ARM GAS  C:\Users\jo\AppData\Local\Temp\ccpKXchH.s 			page 285


 15776 0108 00       		.byte	0
 15777 0109 00       		.byte	0
 15778 010a 17       		.uleb128 0x17
 15779 010b 13       		.uleb128 0x13
 15780 010c 01       		.byte	0x1
 15781 010d 0B       		.uleb128 0xb
 15782 010e 0B       		.uleb128 0xb
 15783 010f 3A       		.uleb128 0x3a
 15784 0110 0B       		.uleb128 0xb
 15785 0111 3B       		.uleb128 0x3b
 15786 0112 0B       		.uleb128 0xb
 15787 0113 01       		.uleb128 0x1
 15788 0114 13       		.uleb128 0x13
 15789 0115 00       		.byte	0
 15790 0116 00       		.byte	0
 15791 0117 18       		.uleb128 0x18
 15792 0118 13       		.uleb128 0x13
 15793 0119 01       		.byte	0x1
 15794 011a 0B       		.uleb128 0xb
 15795 011b 05       		.uleb128 0x5
 15796 011c 3A       		.uleb128 0x3a
 15797 011d 0B       		.uleb128 0xb
 15798 011e 3B       		.uleb128 0x3b
 15799 011f 0B       		.uleb128 0xb
 15800 0120 01       		.uleb128 0x1
 15801 0121 13       		.uleb128 0x13
 15802 0122 00       		.byte	0
 15803 0123 00       		.byte	0
 15804 0124 19       		.uleb128 0x19
 15805 0125 17       		.uleb128 0x17
 15806 0126 01       		.byte	0x1
 15807 0127 0B       		.uleb128 0xb
 15808 0128 0B       		.uleb128 0xb
 15809 0129 3A       		.uleb128 0x3a
 15810 012a 0B       		.uleb128 0xb
 15811 012b 3B       		.uleb128 0x3b
 15812 012c 0B       		.uleb128 0xb
 15813 012d 01       		.uleb128 0x1
 15814 012e 13       		.uleb128 0x13
 15815 012f 00       		.byte	0
 15816 0130 00       		.byte	0
 15817 0131 1A       		.uleb128 0x1a
 15818 0132 0D       		.uleb128 0xd
 15819 0133 00       		.byte	0
 15820 0134 03       		.uleb128 0x3
 15821 0135 0E       		.uleb128 0xe
 15822 0136 3A       		.uleb128 0x3a
 15823 0137 0B       		.uleb128 0xb
 15824 0138 3B       		.uleb128 0x3b
 15825 0139 0B       		.uleb128 0xb
 15826 013a 49       		.uleb128 0x49
 15827 013b 13       		.uleb128 0x13
 15828 013c 00       		.byte	0
 15829 013d 00       		.byte	0
 15830 013e 1B       		.uleb128 0x1b
 15831 013f 0D       		.uleb128 0xd
 15832 0140 00       		.byte	0
ARM GAS  C:\Users\jo\AppData\Local\Temp\ccpKXchH.s 			page 286


 15833 0141 03       		.uleb128 0x3
 15834 0142 0E       		.uleb128 0xe
 15835 0143 3A       		.uleb128 0x3a
 15836 0144 0B       		.uleb128 0xb
 15837 0145 3B       		.uleb128 0x3b
 15838 0146 05       		.uleb128 0x5
 15839 0147 49       		.uleb128 0x49
 15840 0148 13       		.uleb128 0x13
 15841 0149 00       		.byte	0
 15842 014a 00       		.byte	0
 15843 014b 1C       		.uleb128 0x1c
 15844 014c 15       		.uleb128 0x15
 15845 014d 01       		.byte	0x1
 15846 014e 27       		.uleb128 0x27
 15847 014f 19       		.uleb128 0x19
 15848 0150 49       		.uleb128 0x49
 15849 0151 13       		.uleb128 0x13
 15850 0152 01       		.uleb128 0x1
 15851 0153 13       		.uleb128 0x13
 15852 0154 00       		.byte	0
 15853 0155 00       		.byte	0
 15854 0156 1D       		.uleb128 0x1d
 15855 0157 04       		.uleb128 0x4
 15856 0158 01       		.byte	0x1
 15857 0159 03       		.uleb128 0x3
 15858 015a 0E       		.uleb128 0xe
 15859 015b 0B       		.uleb128 0xb
 15860 015c 0B       		.uleb128 0xb
 15861 015d 3A       		.uleb128 0x3a
 15862 015e 0B       		.uleb128 0xb
 15863 015f 3B       		.uleb128 0x3b
 15864 0160 0B       		.uleb128 0xb
 15865 0161 01       		.uleb128 0x1
 15866 0162 13       		.uleb128 0x13
 15867 0163 00       		.byte	0
 15868 0164 00       		.byte	0
 15869 0165 1E       		.uleb128 0x1e
 15870 0166 28       		.uleb128 0x28
 15871 0167 00       		.byte	0
 15872 0168 03       		.uleb128 0x3
 15873 0169 0E       		.uleb128 0xe
 15874 016a 1C       		.uleb128 0x1c
 15875 016b 0D       		.uleb128 0xd
 15876 016c 00       		.byte	0
 15877 016d 00       		.byte	0
 15878 016e 1F       		.uleb128 0x1f
 15879 016f 0D       		.uleb128 0xd
 15880 0170 00       		.byte	0
 15881 0171 03       		.uleb128 0x3
 15882 0172 08       		.uleb128 0x8
 15883 0173 3A       		.uleb128 0x3a
 15884 0174 0B       		.uleb128 0xb
 15885 0175 3B       		.uleb128 0x3b
 15886 0176 0B       		.uleb128 0xb
 15887 0177 49       		.uleb128 0x49
 15888 0178 13       		.uleb128 0x13
 15889 0179 00       		.byte	0
ARM GAS  C:\Users\jo\AppData\Local\Temp\ccpKXchH.s 			page 287


 15890 017a 00       		.byte	0
 15891 017b 20       		.uleb128 0x20
 15892 017c 13       		.uleb128 0x13
 15893 017d 00       		.byte	0
 15894 017e 03       		.uleb128 0x3
 15895 017f 0E       		.uleb128 0xe
 15896 0180 3C       		.uleb128 0x3c
 15897 0181 19       		.uleb128 0x19
 15898 0182 00       		.byte	0
 15899 0183 00       		.byte	0
 15900 0184 21       		.uleb128 0x21
 15901 0185 26       		.uleb128 0x26
 15902 0186 00       		.byte	0
 15903 0187 00       		.byte	0
 15904 0188 00       		.byte	0
 15905 0189 22       		.uleb128 0x22
 15906 018a 2E       		.uleb128 0x2e
 15907 018b 01       		.byte	0x1
 15908 018c 03       		.uleb128 0x3
 15909 018d 0E       		.uleb128 0xe
 15910 018e 3A       		.uleb128 0x3a
 15911 018f 0B       		.uleb128 0xb
 15912 0190 3B       		.uleb128 0x3b
 15913 0191 0B       		.uleb128 0xb
 15914 0192 27       		.uleb128 0x27
 15915 0193 19       		.uleb128 0x19
 15916 0194 49       		.uleb128 0x49
 15917 0195 13       		.uleb128 0x13
 15918 0196 20       		.uleb128 0x20
 15919 0197 0B       		.uleb128 0xb
 15920 0198 01       		.uleb128 0x1
 15921 0199 13       		.uleb128 0x13
 15922 019a 00       		.byte	0
 15923 019b 00       		.byte	0
 15924 019c 23       		.uleb128 0x23
 15925 019d 05       		.uleb128 0x5
 15926 019e 00       		.byte	0
 15927 019f 03       		.uleb128 0x3
 15928 01a0 08       		.uleb128 0x8
 15929 01a1 3A       		.uleb128 0x3a
 15930 01a2 0B       		.uleb128 0xb
 15931 01a3 3B       		.uleb128 0x3b
 15932 01a4 0B       		.uleb128 0xb
 15933 01a5 49       		.uleb128 0x49
 15934 01a6 13       		.uleb128 0x13
 15935 01a7 00       		.byte	0
 15936 01a8 00       		.byte	0
 15937 01a9 24       		.uleb128 0x24
 15938 01aa 34       		.uleb128 0x34
 15939 01ab 00       		.byte	0
 15940 01ac 03       		.uleb128 0x3
 15941 01ad 0E       		.uleb128 0xe
 15942 01ae 3A       		.uleb128 0x3a
 15943 01af 0B       		.uleb128 0xb
 15944 01b0 3B       		.uleb128 0x3b
 15945 01b1 0B       		.uleb128 0xb
 15946 01b2 49       		.uleb128 0x49
ARM GAS  C:\Users\jo\AppData\Local\Temp\ccpKXchH.s 			page 288


 15947 01b3 13       		.uleb128 0x13
 15948 01b4 00       		.byte	0
 15949 01b5 00       		.byte	0
 15950 01b6 25       		.uleb128 0x25
 15951 01b7 2E       		.uleb128 0x2e
 15952 01b8 01       		.byte	0x1
 15953 01b9 03       		.uleb128 0x3
 15954 01ba 0E       		.uleb128 0xe
 15955 01bb 3A       		.uleb128 0x3a
 15956 01bc 0B       		.uleb128 0xb
 15957 01bd 3B       		.uleb128 0x3b
 15958 01be 05       		.uleb128 0x5
 15959 01bf 27       		.uleb128 0x27
 15960 01c0 19       		.uleb128 0x19
 15961 01c1 20       		.uleb128 0x20
 15962 01c2 0B       		.uleb128 0xb
 15963 01c3 01       		.uleb128 0x1
 15964 01c4 13       		.uleb128 0x13
 15965 01c5 00       		.byte	0
 15966 01c6 00       		.byte	0
 15967 01c7 26       		.uleb128 0x26
 15968 01c8 05       		.uleb128 0x5
 15969 01c9 00       		.byte	0
 15970 01ca 03       		.uleb128 0x3
 15971 01cb 0E       		.uleb128 0xe
 15972 01cc 3A       		.uleb128 0x3a
 15973 01cd 0B       		.uleb128 0xb
 15974 01ce 3B       		.uleb128 0x3b
 15975 01cf 05       		.uleb128 0x5
 15976 01d0 49       		.uleb128 0x49
 15977 01d1 13       		.uleb128 0x13
 15978 01d2 00       		.byte	0
 15979 01d3 00       		.byte	0
 15980 01d4 27       		.uleb128 0x27
 15981 01d5 18       		.uleb128 0x18
 15982 01d6 00       		.byte	0
 15983 01d7 00       		.byte	0
 15984 01d8 00       		.byte	0
 15985 01d9 28       		.uleb128 0x28
 15986 01da 34       		.uleb128 0x34
 15987 01db 00       		.byte	0
 15988 01dc 03       		.uleb128 0x3
 15989 01dd 08       		.uleb128 0x8
 15990 01de 3A       		.uleb128 0x3a
 15991 01df 0B       		.uleb128 0xb
 15992 01e0 3B       		.uleb128 0x3b
 15993 01e1 0B       		.uleb128 0xb
 15994 01e2 49       		.uleb128 0x49
 15995 01e3 13       		.uleb128 0x13
 15996 01e4 00       		.byte	0
 15997 01e5 00       		.byte	0
 15998 01e6 29       		.uleb128 0x29
 15999 01e7 2E       		.uleb128 0x2e
 16000 01e8 01       		.byte	0x1
 16001 01e9 03       		.uleb128 0x3
 16002 01ea 0E       		.uleb128 0xe
 16003 01eb 3A       		.uleb128 0x3a
ARM GAS  C:\Users\jo\AppData\Local\Temp\ccpKXchH.s 			page 289


 16004 01ec 0B       		.uleb128 0xb
 16005 01ed 3B       		.uleb128 0x3b
 16006 01ee 0B       		.uleb128 0xb
 16007 01ef 27       		.uleb128 0x27
 16008 01f0 19       		.uleb128 0x19
 16009 01f1 49       		.uleb128 0x49
 16010 01f2 13       		.uleb128 0x13
 16011 01f3 11       		.uleb128 0x11
 16012 01f4 01       		.uleb128 0x1
 16013 01f5 12       		.uleb128 0x12
 16014 01f6 06       		.uleb128 0x6
 16015 01f7 40       		.uleb128 0x40
 16016 01f8 18       		.uleb128 0x18
 16017 01f9 9742     		.uleb128 0x2117
 16018 01fb 19       		.uleb128 0x19
 16019 01fc 01       		.uleb128 0x1
 16020 01fd 13       		.uleb128 0x13
 16021 01fe 00       		.byte	0
 16022 01ff 00       		.byte	0
 16023 0200 2A       		.uleb128 0x2a
 16024 0201 05       		.uleb128 0x5
 16025 0202 00       		.byte	0
 16026 0203 03       		.uleb128 0x3
 16027 0204 0E       		.uleb128 0xe
 16028 0205 3A       		.uleb128 0x3a
 16029 0206 0B       		.uleb128 0xb
 16030 0207 3B       		.uleb128 0x3b
 16031 0208 0B       		.uleb128 0xb
 16032 0209 49       		.uleb128 0x49
 16033 020a 13       		.uleb128 0x13
 16034 020b 02       		.uleb128 0x2
 16035 020c 17       		.uleb128 0x17
 16036 020d 00       		.byte	0
 16037 020e 00       		.byte	0
 16038 020f 2B       		.uleb128 0x2b
 16039 0210 34       		.uleb128 0x34
 16040 0211 00       		.byte	0
 16041 0212 03       		.uleb128 0x3
 16042 0213 08       		.uleb128 0x8
 16043 0214 3A       		.uleb128 0x3a
 16044 0215 0B       		.uleb128 0xb
 16045 0216 3B       		.uleb128 0x3b
 16046 0217 0B       		.uleb128 0xb
 16047 0218 49       		.uleb128 0x49
 16048 0219 13       		.uleb128 0x13
 16049 021a 02       		.uleb128 0x2
 16050 021b 17       		.uleb128 0x17
 16051 021c 00       		.byte	0
 16052 021d 00       		.byte	0
 16053 021e 2C       		.uleb128 0x2c
 16054 021f 2E       		.uleb128 0x2e
 16055 0220 01       		.byte	0x1
 16056 0221 31       		.uleb128 0x31
 16057 0222 13       		.uleb128 0x13
 16058 0223 11       		.uleb128 0x11
 16059 0224 01       		.uleb128 0x1
 16060 0225 12       		.uleb128 0x12
ARM GAS  C:\Users\jo\AppData\Local\Temp\ccpKXchH.s 			page 290


 16061 0226 06       		.uleb128 0x6
 16062 0227 40       		.uleb128 0x40
 16063 0228 18       		.uleb128 0x18
 16064 0229 9742     		.uleb128 0x2117
 16065 022b 19       		.uleb128 0x19
 16066 022c 01       		.uleb128 0x1
 16067 022d 13       		.uleb128 0x13
 16068 022e 00       		.byte	0
 16069 022f 00       		.byte	0
 16070 0230 2D       		.uleb128 0x2d
 16071 0231 05       		.uleb128 0x5
 16072 0232 00       		.byte	0
 16073 0233 31       		.uleb128 0x31
 16074 0234 13       		.uleb128 0x13
 16075 0235 02       		.uleb128 0x2
 16076 0236 17       		.uleb128 0x17
 16077 0237 00       		.byte	0
 16078 0238 00       		.byte	0
 16079 0239 2E       		.uleb128 0x2e
 16080 023a 05       		.uleb128 0x5
 16081 023b 00       		.byte	0
 16082 023c 31       		.uleb128 0x31
 16083 023d 13       		.uleb128 0x13
 16084 023e 02       		.uleb128 0x2
 16085 023f 18       		.uleb128 0x18
 16086 0240 00       		.byte	0
 16087 0241 00       		.byte	0
 16088 0242 2F       		.uleb128 0x2f
 16089 0243 34       		.uleb128 0x34
 16090 0244 00       		.byte	0
 16091 0245 31       		.uleb128 0x31
 16092 0246 13       		.uleb128 0x13
 16093 0247 02       		.uleb128 0x2
 16094 0248 18       		.uleb128 0x18
 16095 0249 00       		.byte	0
 16096 024a 00       		.byte	0
 16097 024b 30       		.uleb128 0x30
 16098 024c 05       		.uleb128 0x5
 16099 024d 00       		.byte	0
 16100 024e 31       		.uleb128 0x31
 16101 024f 13       		.uleb128 0x13
 16102 0250 00       		.byte	0
 16103 0251 00       		.byte	0
 16104 0252 31       		.uleb128 0x31
 16105 0253 898201   		.uleb128 0x4109
 16106 0256 01       		.byte	0x1
 16107 0257 11       		.uleb128 0x11
 16108 0258 01       		.uleb128 0x1
 16109 0259 31       		.uleb128 0x31
 16110 025a 13       		.uleb128 0x13
 16111 025b 00       		.byte	0
 16112 025c 00       		.byte	0
 16113 025d 32       		.uleb128 0x32
 16114 025e 8A8201   		.uleb128 0x410a
 16115 0261 00       		.byte	0
 16116 0262 02       		.uleb128 0x2
 16117 0263 18       		.uleb128 0x18
ARM GAS  C:\Users\jo\AppData\Local\Temp\ccpKXchH.s 			page 291


 16118 0264 9142     		.uleb128 0x2111
 16119 0266 18       		.uleb128 0x18
 16120 0267 00       		.byte	0
 16121 0268 00       		.byte	0
 16122 0269 33       		.uleb128 0x33
 16123 026a 2E       		.uleb128 0x2e
 16124 026b 01       		.byte	0x1
 16125 026c 03       		.uleb128 0x3
 16126 026d 0E       		.uleb128 0xe
 16127 026e 3A       		.uleb128 0x3a
 16128 026f 0B       		.uleb128 0xb
 16129 0270 3B       		.uleb128 0x3b
 16130 0271 05       		.uleb128 0x5
 16131 0272 27       		.uleb128 0x27
 16132 0273 19       		.uleb128 0x19
 16133 0274 11       		.uleb128 0x11
 16134 0275 01       		.uleb128 0x1
 16135 0276 12       		.uleb128 0x12
 16136 0277 06       		.uleb128 0x6
 16137 0278 40       		.uleb128 0x40
 16138 0279 18       		.uleb128 0x18
 16139 027a 9742     		.uleb128 0x2117
 16140 027c 19       		.uleb128 0x19
 16141 027d 01       		.uleb128 0x1
 16142 027e 13       		.uleb128 0x13
 16143 027f 00       		.byte	0
 16144 0280 00       		.byte	0
 16145 0281 34       		.uleb128 0x34
 16146 0282 05       		.uleb128 0x5
 16147 0283 00       		.byte	0
 16148 0284 03       		.uleb128 0x3
 16149 0285 08       		.uleb128 0x8
 16150 0286 3A       		.uleb128 0x3a
 16151 0287 0B       		.uleb128 0xb
 16152 0288 3B       		.uleb128 0x3b
 16153 0289 05       		.uleb128 0x5
 16154 028a 49       		.uleb128 0x49
 16155 028b 13       		.uleb128 0x13
 16156 028c 02       		.uleb128 0x2
 16157 028d 17       		.uleb128 0x17
 16158 028e 00       		.byte	0
 16159 028f 00       		.byte	0
 16160 0290 35       		.uleb128 0x35
 16161 0291 34       		.uleb128 0x34
 16162 0292 00       		.byte	0
 16163 0293 03       		.uleb128 0x3
 16164 0294 0E       		.uleb128 0xe
 16165 0295 3A       		.uleb128 0x3a
 16166 0296 0B       		.uleb128 0xb
 16167 0297 3B       		.uleb128 0x3b
 16168 0298 05       		.uleb128 0x5
 16169 0299 49       		.uleb128 0x49
 16170 029a 13       		.uleb128 0x13
 16171 029b 02       		.uleb128 0x2
 16172 029c 17       		.uleb128 0x17
 16173 029d 00       		.byte	0
 16174 029e 00       		.byte	0
ARM GAS  C:\Users\jo\AppData\Local\Temp\ccpKXchH.s 			page 292


 16175 029f 36       		.uleb128 0x36
 16176 02a0 34       		.uleb128 0x34
 16177 02a1 00       		.byte	0
 16178 02a2 03       		.uleb128 0x3
 16179 02a3 08       		.uleb128 0x8
 16180 02a4 3A       		.uleb128 0x3a
 16181 02a5 0B       		.uleb128 0xb
 16182 02a6 3B       		.uleb128 0x3b
 16183 02a7 05       		.uleb128 0x5
 16184 02a8 49       		.uleb128 0x49
 16185 02a9 13       		.uleb128 0x13
 16186 02aa 02       		.uleb128 0x2
 16187 02ab 17       		.uleb128 0x17
 16188 02ac 00       		.byte	0
 16189 02ad 00       		.byte	0
 16190 02ae 37       		.uleb128 0x37
 16191 02af 1D       		.uleb128 0x1d
 16192 02b0 01       		.byte	0x1
 16193 02b1 31       		.uleb128 0x31
 16194 02b2 13       		.uleb128 0x13
 16195 02b3 11       		.uleb128 0x11
 16196 02b4 01       		.uleb128 0x1
 16197 02b5 12       		.uleb128 0x12
 16198 02b6 06       		.uleb128 0x6
 16199 02b7 58       		.uleb128 0x58
 16200 02b8 0B       		.uleb128 0xb
 16201 02b9 59       		.uleb128 0x59
 16202 02ba 05       		.uleb128 0x5
 16203 02bb 01       		.uleb128 0x1
 16204 02bc 13       		.uleb128 0x13
 16205 02bd 00       		.byte	0
 16206 02be 00       		.byte	0
 16207 02bf 38       		.uleb128 0x38
 16208 02c0 898201   		.uleb128 0x4109
 16209 02c3 01       		.byte	0x1
 16210 02c4 11       		.uleb128 0x11
 16211 02c5 01       		.uleb128 0x1
 16212 02c6 31       		.uleb128 0x31
 16213 02c7 13       		.uleb128 0x13
 16214 02c8 01       		.uleb128 0x1
 16215 02c9 13       		.uleb128 0x13
 16216 02ca 00       		.byte	0
 16217 02cb 00       		.byte	0
 16218 02cc 39       		.uleb128 0x39
 16219 02cd 898201   		.uleb128 0x4109
 16220 02d0 00       		.byte	0
 16221 02d1 11       		.uleb128 0x11
 16222 02d2 01       		.uleb128 0x1
 16223 02d3 9542     		.uleb128 0x2115
 16224 02d5 19       		.uleb128 0x19
 16225 02d6 31       		.uleb128 0x31
 16226 02d7 13       		.uleb128 0x13
 16227 02d8 00       		.byte	0
 16228 02d9 00       		.byte	0
 16229 02da 3A       		.uleb128 0x3a
 16230 02db 34       		.uleb128 0x34
 16231 02dc 00       		.byte	0
ARM GAS  C:\Users\jo\AppData\Local\Temp\ccpKXchH.s 			page 293


 16232 02dd 03       		.uleb128 0x3
 16233 02de 0E       		.uleb128 0xe
 16234 02df 3A       		.uleb128 0x3a
 16235 02e0 0B       		.uleb128 0xb
 16236 02e1 3B       		.uleb128 0x3b
 16237 02e2 05       		.uleb128 0x5
 16238 02e3 49       		.uleb128 0x49
 16239 02e4 13       		.uleb128 0x13
 16240 02e5 02       		.uleb128 0x2
 16241 02e6 18       		.uleb128 0x18
 16242 02e7 00       		.byte	0
 16243 02e8 00       		.byte	0
 16244 02e9 3B       		.uleb128 0x3b
 16245 02ea 2E       		.uleb128 0x2e
 16246 02eb 01       		.byte	0x1
 16247 02ec 03       		.uleb128 0x3
 16248 02ed 0E       		.uleb128 0xe
 16249 02ee 3A       		.uleb128 0x3a
 16250 02ef 0B       		.uleb128 0xb
 16251 02f0 3B       		.uleb128 0x3b
 16252 02f1 05       		.uleb128 0x5
 16253 02f2 27       		.uleb128 0x27
 16254 02f3 19       		.uleb128 0x19
 16255 02f4 49       		.uleb128 0x49
 16256 02f5 13       		.uleb128 0x13
 16257 02f6 11       		.uleb128 0x11
 16258 02f7 01       		.uleb128 0x1
 16259 02f8 12       		.uleb128 0x12
 16260 02f9 06       		.uleb128 0x6
 16261 02fa 40       		.uleb128 0x40
 16262 02fb 18       		.uleb128 0x18
 16263 02fc 9742     		.uleb128 0x2117
 16264 02fe 19       		.uleb128 0x19
 16265 02ff 01       		.uleb128 0x1
 16266 0300 13       		.uleb128 0x13
 16267 0301 00       		.byte	0
 16268 0302 00       		.byte	0
 16269 0303 3C       		.uleb128 0x3c
 16270 0304 05       		.uleb128 0x5
 16271 0305 00       		.byte	0
 16272 0306 03       		.uleb128 0x3
 16273 0307 0E       		.uleb128 0xe
 16274 0308 3A       		.uleb128 0x3a
 16275 0309 0B       		.uleb128 0xb
 16276 030a 3B       		.uleb128 0x3b
 16277 030b 05       		.uleb128 0x5
 16278 030c 49       		.uleb128 0x49
 16279 030d 13       		.uleb128 0x13
 16280 030e 02       		.uleb128 0x2
 16281 030f 17       		.uleb128 0x17
 16282 0310 00       		.byte	0
 16283 0311 00       		.byte	0
 16284 0312 3D       		.uleb128 0x3d
 16285 0313 34       		.uleb128 0x34
 16286 0314 00       		.byte	0
 16287 0315 03       		.uleb128 0x3
 16288 0316 0E       		.uleb128 0xe
ARM GAS  C:\Users\jo\AppData\Local\Temp\ccpKXchH.s 			page 294


 16289 0317 3A       		.uleb128 0x3a
 16290 0318 0B       		.uleb128 0xb
 16291 0319 3B       		.uleb128 0x3b
 16292 031a 05       		.uleb128 0x5
 16293 031b 49       		.uleb128 0x49
 16294 031c 13       		.uleb128 0x13
 16295 031d 00       		.byte	0
 16296 031e 00       		.byte	0
 16297 031f 3E       		.uleb128 0x3e
 16298 0320 0B       		.uleb128 0xb
 16299 0321 01       		.byte	0x1
 16300 0322 11       		.uleb128 0x11
 16301 0323 01       		.uleb128 0x1
 16302 0324 12       		.uleb128 0x12
 16303 0325 06       		.uleb128 0x6
 16304 0326 01       		.uleb128 0x1
 16305 0327 13       		.uleb128 0x13
 16306 0328 00       		.byte	0
 16307 0329 00       		.byte	0
 16308 032a 3F       		.uleb128 0x3f
 16309 032b 0B       		.uleb128 0xb
 16310 032c 01       		.byte	0x1
 16311 032d 55       		.uleb128 0x55
 16312 032e 17       		.uleb128 0x17
 16313 032f 00       		.byte	0
 16314 0330 00       		.byte	0
 16315 0331 40       		.uleb128 0x40
 16316 0332 1D       		.uleb128 0x1d
 16317 0333 01       		.byte	0x1
 16318 0334 31       		.uleb128 0x31
 16319 0335 13       		.uleb128 0x13
 16320 0336 52       		.uleb128 0x52
 16321 0337 01       		.uleb128 0x1
 16322 0338 55       		.uleb128 0x55
 16323 0339 17       		.uleb128 0x17
 16324 033a 58       		.uleb128 0x58
 16325 033b 0B       		.uleb128 0xb
 16326 033c 59       		.uleb128 0x59
 16327 033d 05       		.uleb128 0x5
 16328 033e 01       		.uleb128 0x1
 16329 033f 13       		.uleb128 0x13
 16330 0340 00       		.byte	0
 16331 0341 00       		.byte	0
 16332 0342 41       		.uleb128 0x41
 16333 0343 34       		.uleb128 0x34
 16334 0344 00       		.byte	0
 16335 0345 31       		.uleb128 0x31
 16336 0346 13       		.uleb128 0x13
 16337 0347 02       		.uleb128 0x2
 16338 0348 17       		.uleb128 0x17
 16339 0349 00       		.byte	0
 16340 034a 00       		.byte	0
 16341 034b 42       		.uleb128 0x42
 16342 034c 0B       		.uleb128 0xb
 16343 034d 01       		.byte	0x1
 16344 034e 11       		.uleb128 0x11
 16345 034f 01       		.uleb128 0x1
ARM GAS  C:\Users\jo\AppData\Local\Temp\ccpKXchH.s 			page 295


 16346 0350 12       		.uleb128 0x12
 16347 0351 06       		.uleb128 0x6
 16348 0352 00       		.byte	0
 16349 0353 00       		.byte	0
 16350 0354 43       		.uleb128 0x43
 16351 0355 34       		.uleb128 0x34
 16352 0356 00       		.byte	0
 16353 0357 31       		.uleb128 0x31
 16354 0358 13       		.uleb128 0x13
 16355 0359 00       		.byte	0
 16356 035a 00       		.byte	0
 16357 035b 44       		.uleb128 0x44
 16358 035c 0A       		.uleb128 0xa
 16359 035d 00       		.byte	0
 16360 035e 03       		.uleb128 0x3
 16361 035f 0E       		.uleb128 0xe
 16362 0360 3A       		.uleb128 0x3a
 16363 0361 0B       		.uleb128 0xb
 16364 0362 3B       		.uleb128 0x3b
 16365 0363 05       		.uleb128 0x5
 16366 0364 00       		.byte	0
 16367 0365 00       		.byte	0
 16368 0366 45       		.uleb128 0x45
 16369 0367 0B       		.uleb128 0xb
 16370 0368 01       		.byte	0x1
 16371 0369 55       		.uleb128 0x55
 16372 036a 17       		.uleb128 0x17
 16373 036b 01       		.uleb128 0x1
 16374 036c 13       		.uleb128 0x13
 16375 036d 00       		.byte	0
 16376 036e 00       		.byte	0
 16377 036f 46       		.uleb128 0x46
 16378 0370 34       		.uleb128 0x34
 16379 0371 00       		.byte	0
 16380 0372 03       		.uleb128 0x3
 16381 0373 08       		.uleb128 0x8
 16382 0374 3A       		.uleb128 0x3a
 16383 0375 0B       		.uleb128 0xb
 16384 0376 3B       		.uleb128 0x3b
 16385 0377 05       		.uleb128 0x5
 16386 0378 49       		.uleb128 0x49
 16387 0379 13       		.uleb128 0x13
 16388 037a 02       		.uleb128 0x2
 16389 037b 18       		.uleb128 0x18
 16390 037c 00       		.byte	0
 16391 037d 00       		.byte	0
 16392 037e 47       		.uleb128 0x47
 16393 037f 898201   		.uleb128 0x4109
 16394 0382 00       		.byte	0
 16395 0383 11       		.uleb128 0x11
 16396 0384 01       		.uleb128 0x1
 16397 0385 31       		.uleb128 0x31
 16398 0386 13       		.uleb128 0x13
 16399 0387 00       		.byte	0
 16400 0388 00       		.byte	0
 16401 0389 48       		.uleb128 0x48
 16402 038a 2E       		.uleb128 0x2e
ARM GAS  C:\Users\jo\AppData\Local\Temp\ccpKXchH.s 			page 296


 16403 038b 00       		.byte	0
 16404 038c 3F       		.uleb128 0x3f
 16405 038d 19       		.uleb128 0x19
 16406 038e 03       		.uleb128 0x3
 16407 038f 0E       		.uleb128 0xe
 16408 0390 3A       		.uleb128 0x3a
 16409 0391 0B       		.uleb128 0xb
 16410 0392 3B       		.uleb128 0x3b
 16411 0393 0B       		.uleb128 0xb
 16412 0394 27       		.uleb128 0x27
 16413 0395 19       		.uleb128 0x19
 16414 0396 11       		.uleb128 0x11
 16415 0397 01       		.uleb128 0x1
 16416 0398 12       		.uleb128 0x12
 16417 0399 06       		.uleb128 0x6
 16418 039a 40       		.uleb128 0x40
 16419 039b 18       		.uleb128 0x18
 16420 039c 9742     		.uleb128 0x2117
 16421 039e 19       		.uleb128 0x19
 16422 039f 00       		.byte	0
 16423 03a0 00       		.byte	0
 16424 03a1 49       		.uleb128 0x49
 16425 03a2 2E       		.uleb128 0x2e
 16426 03a3 01       		.byte	0x1
 16427 03a4 3F       		.uleb128 0x3f
 16428 03a5 19       		.uleb128 0x19
 16429 03a6 03       		.uleb128 0x3
 16430 03a7 0E       		.uleb128 0xe
 16431 03a8 3A       		.uleb128 0x3a
 16432 03a9 0B       		.uleb128 0xb
 16433 03aa 3B       		.uleb128 0x3b
 16434 03ab 05       		.uleb128 0x5
 16435 03ac 27       		.uleb128 0x27
 16436 03ad 19       		.uleb128 0x19
 16437 03ae 49       		.uleb128 0x49
 16438 03af 13       		.uleb128 0x13
 16439 03b0 11       		.uleb128 0x11
 16440 03b1 01       		.uleb128 0x1
 16441 03b2 12       		.uleb128 0x12
 16442 03b3 06       		.uleb128 0x6
 16443 03b4 40       		.uleb128 0x40
 16444 03b5 18       		.uleb128 0x18
 16445 03b6 9742     		.uleb128 0x2117
 16446 03b8 19       		.uleb128 0x19
 16447 03b9 01       		.uleb128 0x1
 16448 03ba 13       		.uleb128 0x13
 16449 03bb 00       		.byte	0
 16450 03bc 00       		.byte	0
 16451 03bd 4A       		.uleb128 0x4a
 16452 03be 898201   		.uleb128 0x4109
 16453 03c1 01       		.byte	0x1
 16454 03c2 11       		.uleb128 0x11
 16455 03c3 01       		.uleb128 0x1
 16456 03c4 9542     		.uleb128 0x2115
 16457 03c6 19       		.uleb128 0x19
 16458 03c7 31       		.uleb128 0x31
 16459 03c8 13       		.uleb128 0x13
ARM GAS  C:\Users\jo\AppData\Local\Temp\ccpKXchH.s 			page 297


 16460 03c9 00       		.byte	0
 16461 03ca 00       		.byte	0
 16462 03cb 4B       		.uleb128 0x4b
 16463 03cc 0A       		.uleb128 0xa
 16464 03cd 00       		.byte	0
 16465 03ce 03       		.uleb128 0x3
 16466 03cf 0E       		.uleb128 0xe
 16467 03d0 3A       		.uleb128 0x3a
 16468 03d1 0B       		.uleb128 0xb
 16469 03d2 3B       		.uleb128 0x3b
 16470 03d3 05       		.uleb128 0x5
 16471 03d4 11       		.uleb128 0x11
 16472 03d5 01       		.uleb128 0x1
 16473 03d6 00       		.byte	0
 16474 03d7 00       		.byte	0
 16475 03d8 4C       		.uleb128 0x4c
 16476 03d9 34       		.uleb128 0x34
 16477 03da 00       		.byte	0
 16478 03db 03       		.uleb128 0x3
 16479 03dc 0E       		.uleb128 0xe
 16480 03dd 3A       		.uleb128 0x3a
 16481 03de 0B       		.uleb128 0xb
 16482 03df 3B       		.uleb128 0x3b
 16483 03e0 0B       		.uleb128 0xb
 16484 03e1 49       		.uleb128 0x49
 16485 03e2 13       		.uleb128 0x13
 16486 03e3 02       		.uleb128 0x2
 16487 03e4 18       		.uleb128 0x18
 16488 03e5 00       		.byte	0
 16489 03e6 00       		.byte	0
 16490 03e7 4D       		.uleb128 0x4d
 16491 03e8 34       		.uleb128 0x34
 16492 03e9 00       		.byte	0
 16493 03ea 03       		.uleb128 0x3
 16494 03eb 0E       		.uleb128 0xe
 16495 03ec 3A       		.uleb128 0x3a
 16496 03ed 0B       		.uleb128 0xb
 16497 03ee 3B       		.uleb128 0x3b
 16498 03ef 05       		.uleb128 0x5
 16499 03f0 49       		.uleb128 0x49
 16500 03f1 13       		.uleb128 0x13
 16501 03f2 3F       		.uleb128 0x3f
 16502 03f3 19       		.uleb128 0x19
 16503 03f4 3C       		.uleb128 0x3c
 16504 03f5 19       		.uleb128 0x19
 16505 03f6 00       		.byte	0
 16506 03f7 00       		.byte	0
 16507 03f8 4E       		.uleb128 0x4e
 16508 03f9 34       		.uleb128 0x34
 16509 03fa 00       		.byte	0
 16510 03fb 03       		.uleb128 0x3
 16511 03fc 08       		.uleb128 0x8
 16512 03fd 3A       		.uleb128 0x3a
 16513 03fe 0B       		.uleb128 0xb
 16514 03ff 3B       		.uleb128 0x3b
 16515 0400 05       		.uleb128 0x5
 16516 0401 49       		.uleb128 0x49
ARM GAS  C:\Users\jo\AppData\Local\Temp\ccpKXchH.s 			page 298


 16517 0402 13       		.uleb128 0x13
 16518 0403 3F       		.uleb128 0x3f
 16519 0404 19       		.uleb128 0x19
 16520 0405 3C       		.uleb128 0x3c
 16521 0406 19       		.uleb128 0x19
 16522 0407 00       		.byte	0
 16523 0408 00       		.byte	0
 16524 0409 4F       		.uleb128 0x4f
 16525 040a 34       		.uleb128 0x34
 16526 040b 00       		.byte	0
 16527 040c 03       		.uleb128 0x3
 16528 040d 0E       		.uleb128 0xe
 16529 040e 3A       		.uleb128 0x3a
 16530 040f 0B       		.uleb128 0xb
 16531 0410 3B       		.uleb128 0x3b
 16532 0411 0B       		.uleb128 0xb
 16533 0412 49       		.uleb128 0x49
 16534 0413 13       		.uleb128 0x13
 16535 0414 3F       		.uleb128 0x3f
 16536 0415 19       		.uleb128 0x19
 16537 0416 3C       		.uleb128 0x3c
 16538 0417 19       		.uleb128 0x19
 16539 0418 00       		.byte	0
 16540 0419 00       		.byte	0
 16541 041a 50       		.uleb128 0x50
 16542 041b 2E       		.uleb128 0x2e
 16543 041c 01       		.byte	0x1
 16544 041d 3F       		.uleb128 0x3f
 16545 041e 19       		.uleb128 0x19
 16546 041f 03       		.uleb128 0x3
 16547 0420 0E       		.uleb128 0xe
 16548 0421 3A       		.uleb128 0x3a
 16549 0422 0B       		.uleb128 0xb
 16550 0423 3B       		.uleb128 0x3b
 16551 0424 0B       		.uleb128 0xb
 16552 0425 27       		.uleb128 0x27
 16553 0426 19       		.uleb128 0x19
 16554 0427 49       		.uleb128 0x49
 16555 0428 13       		.uleb128 0x13
 16556 0429 3C       		.uleb128 0x3c
 16557 042a 19       		.uleb128 0x19
 16558 042b 01       		.uleb128 0x1
 16559 042c 13       		.uleb128 0x13
 16560 042d 00       		.byte	0
 16561 042e 00       		.byte	0
 16562 042f 51       		.uleb128 0x51
 16563 0430 2E       		.uleb128 0x2e
 16564 0431 01       		.byte	0x1
 16565 0432 3F       		.uleb128 0x3f
 16566 0433 19       		.uleb128 0x19
 16567 0434 03       		.uleb128 0x3
 16568 0435 0E       		.uleb128 0xe
 16569 0436 3A       		.uleb128 0x3a
 16570 0437 0B       		.uleb128 0xb
 16571 0438 3B       		.uleb128 0x3b
 16572 0439 0B       		.uleb128 0xb
 16573 043a 27       		.uleb128 0x27
ARM GAS  C:\Users\jo\AppData\Local\Temp\ccpKXchH.s 			page 299


 16574 043b 19       		.uleb128 0x19
 16575 043c 3C       		.uleb128 0x3c
 16576 043d 19       		.uleb128 0x19
 16577 043e 01       		.uleb128 0x1
 16578 043f 13       		.uleb128 0x13
 16579 0440 00       		.byte	0
 16580 0441 00       		.byte	0
 16581 0442 52       		.uleb128 0x52
 16582 0443 2E       		.uleb128 0x2e
 16583 0444 01       		.byte	0x1
 16584 0445 3F       		.uleb128 0x3f
 16585 0446 19       		.uleb128 0x19
 16586 0447 03       		.uleb128 0x3
 16587 0448 0E       		.uleb128 0xe
 16588 0449 27       		.uleb128 0x27
 16589 044a 19       		.uleb128 0x19
 16590 044b 49       		.uleb128 0x49
 16591 044c 13       		.uleb128 0x13
 16592 044d 34       		.uleb128 0x34
 16593 044e 19       		.uleb128 0x19
 16594 044f 3C       		.uleb128 0x3c
 16595 0450 19       		.uleb128 0x19
 16596 0451 01       		.uleb128 0x1
 16597 0452 13       		.uleb128 0x13
 16598 0453 00       		.byte	0
 16599 0454 00       		.byte	0
 16600 0455 53       		.uleb128 0x53
 16601 0456 2E       		.uleb128 0x2e
 16602 0457 01       		.byte	0x1
 16603 0458 3F       		.uleb128 0x3f
 16604 0459 19       		.uleb128 0x19
 16605 045a 03       		.uleb128 0x3
 16606 045b 0E       		.uleb128 0xe
 16607 045c 3A       		.uleb128 0x3a
 16608 045d 0B       		.uleb128 0xb
 16609 045e 3B       		.uleb128 0x3b
 16610 045f 0B       		.uleb128 0xb
 16611 0460 27       		.uleb128 0x27
 16612 0461 19       		.uleb128 0x19
 16613 0462 49       		.uleb128 0x49
 16614 0463 13       		.uleb128 0x13
 16615 0464 3C       		.uleb128 0x3c
 16616 0465 19       		.uleb128 0x19
 16617 0466 00       		.byte	0
 16618 0467 00       		.byte	0
 16619 0468 00       		.byte	0
 16620              		.section	.debug_loc,"",%progbits
 16621              	.Ldebug_loc0:
 16622              	.LLST0:
 16623 0000 00000000 		.4byte	.LVL0
 16624 0004 10000000 		.4byte	.LVL2
 16625 0008 0100     		.2byte	0x1
 16626 000a 50       		.byte	0x50
 16627 000b 10000000 		.4byte	.LVL2
 16628 000f 14000000 		.4byte	.LVL3
 16629 0013 0400     		.2byte	0x4
 16630 0015 F3       		.byte	0xf3
ARM GAS  C:\Users\jo\AppData\Local\Temp\ccpKXchH.s 			page 300


 16631 0016 01       		.uleb128 0x1
 16632 0017 50       		.byte	0x50
 16633 0018 9F       		.byte	0x9f
 16634 0019 14000000 		.4byte	.LVL3
 16635 001d 28000000 		.4byte	.LVL5
 16636 0021 0100     		.2byte	0x1
 16637 0023 50       		.byte	0x50
 16638 0024 28000000 		.4byte	.LVL5
 16639 0028 54000000 		.4byte	.LFE259
 16640 002c 0200     		.2byte	0x2
 16641 002e 76       		.byte	0x76
 16642 002f 00       		.sleb128 0
 16643 0030 00000000 		.4byte	0
 16644 0034 00000000 		.4byte	0
 16645              	.LLST1:
 16646 0038 00000000 		.4byte	.LVL0
 16647 003c 10000000 		.4byte	.LVL2
 16648 0040 0100     		.2byte	0x1
 16649 0042 51       		.byte	0x51
 16650 0043 10000000 		.4byte	.LVL2
 16651 0047 14000000 		.4byte	.LVL3
 16652 004b 0400     		.2byte	0x4
 16653 004d F3       		.byte	0xf3
 16654 004e 01       		.uleb128 0x1
 16655 004f 51       		.byte	0x51
 16656 0050 9F       		.byte	0x9f
 16657 0051 14000000 		.4byte	.LVL3
 16658 0055 32000000 		.4byte	.LVL6
 16659 0059 0100     		.2byte	0x1
 16660 005b 51       		.byte	0x51
 16661 005c 32000000 		.4byte	.LVL6
 16662 0060 46000000 		.4byte	.LVL7
 16663 0064 0400     		.2byte	0x4
 16664 0066 F3       		.byte	0xf3
 16665 0067 01       		.uleb128 0x1
 16666 0068 51       		.byte	0x51
 16667 0069 9F       		.byte	0x9f
 16668 006a 46000000 		.4byte	.LVL7
 16669 006e 48000000 		.4byte	.LVL8
 16670 0072 0100     		.2byte	0x1
 16671 0074 51       		.byte	0x51
 16672 0075 48000000 		.4byte	.LVL8
 16673 0079 54000000 		.4byte	.LFE259
 16674 007d 0400     		.2byte	0x4
 16675 007f F3       		.byte	0xf3
 16676 0080 01       		.uleb128 0x1
 16677 0081 51       		.byte	0x51
 16678 0082 9F       		.byte	0x9f
 16679 0083 00000000 		.4byte	0
 16680 0087 00000000 		.4byte	0
 16681              	.LLST2:
 16682 008b 00000000 		.4byte	.LVL0
 16683 008f 08000000 		.4byte	.LVL1
 16684 0093 0200     		.2byte	0x2
 16685 0095 30       		.byte	0x30
 16686 0096 9F       		.byte	0x9f
 16687 0097 08000000 		.4byte	.LVL1
ARM GAS  C:\Users\jo\AppData\Local\Temp\ccpKXchH.s 			page 301


 16688 009b 10000000 		.4byte	.LVL2
 16689 009f 0200     		.2byte	0x2
 16690 00a1 31       		.byte	0x31
 16691 00a2 9F       		.byte	0x9f
 16692 00a3 14000000 		.4byte	.LVL3
 16693 00a7 16000000 		.4byte	.LVL4
 16694 00ab 0200     		.2byte	0x2
 16695 00ad 31       		.byte	0x31
 16696 00ae 9F       		.byte	0x9f
 16697 00af 00000000 		.4byte	0
 16698 00b3 00000000 		.4byte	0
 16699              	.LLST3:
 16700 00b7 00000000 		.4byte	.LVL9
 16701 00bb 0A000000 		.4byte	.LVL10
 16702 00bf 0100     		.2byte	0x1
 16703 00c1 50       		.byte	0x50
 16704 00c2 0A000000 		.4byte	.LVL10
 16705 00c6 24000000 		.4byte	.LFE287
 16706 00ca 0400     		.2byte	0x4
 16707 00cc F3       		.byte	0xf3
 16708 00cd 01       		.uleb128 0x1
 16709 00ce 50       		.byte	0x50
 16710 00cf 9F       		.byte	0x9f
 16711 00d0 00000000 		.4byte	0
 16712 00d4 00000000 		.4byte	0
 16713              	.LLST4:
 16714 00d8 00000000 		.4byte	.LVL12
 16715 00dc 0C000000 		.4byte	.LVL13
 16716 00e0 0100     		.2byte	0x1
 16717 00e2 50       		.byte	0x50
 16718 00e3 0C000000 		.4byte	.LVL13
 16719 00e7 1E000000 		.4byte	.LVL18
 16720 00eb 0100     		.2byte	0x1
 16721 00ed 54       		.byte	0x54
 16722 00ee 1E000000 		.4byte	.LVL18
 16723 00f2 94000000 		.4byte	.LVL41
 16724 00f6 0400     		.2byte	0x4
 16725 00f8 F3       		.byte	0xf3
 16726 00f9 01       		.uleb128 0x1
 16727 00fa 50       		.byte	0x50
 16728 00fb 9F       		.byte	0x9f
 16729 00fc 94000000 		.4byte	.LVL41
 16730 0100 A0000000 		.4byte	.LVL43
 16731 0104 0100     		.2byte	0x1
 16732 0106 54       		.byte	0x54
 16733 0107 A0000000 		.4byte	.LVL43
 16734 010b CA000000 		.4byte	.LVL51
 16735 010f 0400     		.2byte	0x4
 16736 0111 F3       		.byte	0xf3
 16737 0112 01       		.uleb128 0x1
 16738 0113 50       		.byte	0x50
 16739 0114 9F       		.byte	0x9f
 16740 0115 CA000000 		.4byte	.LVL51
 16741 0119 E0000000 		.4byte	.LVL55
 16742 011d 0100     		.2byte	0x1
 16743 011f 54       		.byte	0x54
 16744 0120 E0000000 		.4byte	.LVL55
ARM GAS  C:\Users\jo\AppData\Local\Temp\ccpKXchH.s 			page 302


 16745 0124 4E010000 		.4byte	.LVL76
 16746 0128 0400     		.2byte	0x4
 16747 012a F3       		.byte	0xf3
 16748 012b 01       		.uleb128 0x1
 16749 012c 50       		.byte	0x50
 16750 012d 9F       		.byte	0x9f
 16751 012e 4E010000 		.4byte	.LVL76
 16752 0132 68010000 		.4byte	.LVL84
 16753 0136 0100     		.2byte	0x1
 16754 0138 54       		.byte	0x54
 16755 0139 68010000 		.4byte	.LVL84
 16756 013d 72010000 		.4byte	.LVL85
 16757 0141 0100     		.2byte	0x1
 16758 0143 50       		.byte	0x50
 16759 0144 72010000 		.4byte	.LVL85
 16760 0148 82010000 		.4byte	.LVL88
 16761 014c 0100     		.2byte	0x1
 16762 014e 54       		.byte	0x54
 16763 014f 82010000 		.4byte	.LVL88
 16764 0153 8E010000 		.4byte	.LVL90
 16765 0157 0400     		.2byte	0x4
 16766 0159 F3       		.byte	0xf3
 16767 015a 01       		.uleb128 0x1
 16768 015b 50       		.byte	0x50
 16769 015c 9F       		.byte	0x9f
 16770 015d 8E010000 		.4byte	.LVL90
 16771 0161 9C010000 		.4byte	.LVL93
 16772 0165 0100     		.2byte	0x1
 16773 0167 54       		.byte	0x54
 16774 0168 9C010000 		.4byte	.LVL93
 16775 016c E0010000 		.4byte	.LFE283
 16776 0170 0400     		.2byte	0x4
 16777 0172 F3       		.byte	0xf3
 16778 0173 01       		.uleb128 0x1
 16779 0174 50       		.byte	0x50
 16780 0175 9F       		.byte	0x9f
 16781 0176 00000000 		.4byte	0
 16782 017a 00000000 		.4byte	0
 16783              	.LLST5:
 16784 017e 10000000 		.4byte	.LVL14
 16785 0182 46000000 		.4byte	.LVL26
 16786 0186 0100     		.2byte	0x1
 16787 0188 55       		.byte	0x55
 16788 0189 4A000000 		.4byte	.LVL27
 16789 018d 68010000 		.4byte	.LVL84
 16790 0191 0100     		.2byte	0x1
 16791 0193 55       		.byte	0x55
 16792 0194 82010000 		.4byte	.LVL88
 16793 0198 E0010000 		.4byte	.LFE283
 16794 019c 0100     		.2byte	0x1
 16795 019e 55       		.byte	0x55
 16796 019f 00000000 		.4byte	0
 16797 01a3 00000000 		.4byte	0
 16798              	.LLST6:
 16799 01a7 12000000 		.4byte	.LVL15
 16800 01ab 2E000000 		.4byte	.LVL23
 16801 01af 0100     		.2byte	0x1
ARM GAS  C:\Users\jo\AppData\Local\Temp\ccpKXchH.s 			page 303


 16802 01b1 52       		.byte	0x52
 16803 01b2 4A000000 		.4byte	.LVL27
 16804 01b6 67000000 		.4byte	.LVL32-1
 16805 01ba 0100     		.2byte	0x1
 16806 01bc 52       		.byte	0x52
 16807 01bd 6A000000 		.4byte	.LVL33
 16808 01c1 82000000 		.4byte	.LVL37
 16809 01c5 0100     		.2byte	0x1
 16810 01c7 52       		.byte	0x52
 16811 01c8 94000000 		.4byte	.LVL41
 16812 01cc B3000000 		.4byte	.LVL46-1
 16813 01d0 0100     		.2byte	0x1
 16814 01d2 52       		.byte	0x52
 16815 01d3 B6000000 		.4byte	.LVL47
 16816 01d7 C0000000 		.4byte	.LVL49
 16817 01db 0100     		.2byte	0x1
 16818 01dd 52       		.byte	0x52
 16819 01de C0000000 		.4byte	.LVL49
 16820 01e2 C8000000 		.4byte	.LVL50
 16821 01e6 0500     		.2byte	0x5
 16822 01e8 F3       		.byte	0xf3
 16823 01e9 01       		.uleb128 0x1
 16824 01ea 50       		.byte	0x50
 16825 01eb 23       		.byte	0x23
 16826 01ec 04       		.uleb128 0x4
 16827 01ed CA000000 		.4byte	.LVL51
 16828 01f1 EF000000 		.4byte	.LVL57-1
 16829 01f5 0100     		.2byte	0x1
 16830 01f7 52       		.byte	0x52
 16831 01f8 F2000000 		.4byte	.LVL58
 16832 01fc 07010000 		.4byte	.LVL63-1
 16833 0200 0100     		.2byte	0x1
 16834 0202 52       		.byte	0x52
 16835 0203 0A010000 		.4byte	.LVL64
 16836 0207 12010000 		.4byte	.LVL68
 16837 020b 0100     		.2byte	0x1
 16838 020d 52       		.byte	0x52
 16839 020e 24010000 		.4byte	.LVL72
 16840 0212 4B010000 		.4byte	.LVL75-1
 16841 0216 0100     		.2byte	0x1
 16842 0218 52       		.byte	0x52
 16843 0219 4E010000 		.4byte	.LVL76
 16844 021d 56010000 		.4byte	.LVL80
 16845 0221 0100     		.2byte	0x1
 16846 0223 52       		.byte	0x52
 16847 0224 82010000 		.4byte	.LVL88
 16848 0228 A0010000 		.4byte	.LVL94
 16849 022c 0100     		.2byte	0x1
 16850 022e 52       		.byte	0x52
 16851 022f A0010000 		.4byte	.LVL94
 16852 0233 A8010000 		.4byte	.LVL95
 16853 0237 0500     		.2byte	0x5
 16854 0239 F3       		.byte	0xf3
 16855 023a 01       		.uleb128 0x1
 16856 023b 50       		.byte	0x50
 16857 023c 23       		.byte	0x23
 16858 023d 04       		.uleb128 0x4
ARM GAS  C:\Users\jo\AppData\Local\Temp\ccpKXchH.s 			page 304


 16859 023e 00000000 		.4byte	0
 16860 0242 00000000 		.4byte	0
 16861              	.LLST7:
 16862 0246 12000000 		.4byte	.LVL15
 16863 024a 2C000000 		.4byte	.LVL22
 16864 024e 0100     		.2byte	0x1
 16865 0250 51       		.byte	0x51
 16866 0251 4A000000 		.4byte	.LVL27
 16867 0255 56000000 		.4byte	.LVL29
 16868 0259 0100     		.2byte	0x1
 16869 025b 51       		.byte	0x51
 16870 025c 56000000 		.4byte	.LVL29
 16871 0260 5C000000 		.4byte	.LVL31
 16872 0264 0500     		.2byte	0x5
 16873 0266 F3       		.byte	0xf3
 16874 0267 01       		.uleb128 0x1
 16875 0268 50       		.byte	0x50
 16876 0269 23       		.byte	0x23
 16877 026a 08       		.uleb128 0x8
 16878 026b 6A000000 		.4byte	.LVL33
 16879 026f 72000000 		.4byte	.LVL34
 16880 0273 0100     		.2byte	0x1
 16881 0275 51       		.byte	0x51
 16882 0276 72000000 		.4byte	.LVL34
 16883 027a 7E000000 		.4byte	.LVL36
 16884 027e 0500     		.2byte	0x5
 16885 0280 F3       		.byte	0xf3
 16886 0281 01       		.uleb128 0x1
 16887 0282 50       		.byte	0x50
 16888 0283 23       		.byte	0x23
 16889 0284 08       		.uleb128 0x8
 16890 0285 94000000 		.4byte	.LVL41
 16891 0289 A2000000 		.4byte	.LVL44
 16892 028d 0100     		.2byte	0x1
 16893 028f 51       		.byte	0x51
 16894 0290 A2000000 		.4byte	.LVL44
 16895 0294 B3000000 		.4byte	.LVL46-1
 16896 0298 0500     		.2byte	0x5
 16897 029a F3       		.byte	0xf3
 16898 029b 01       		.uleb128 0x1
 16899 029c 50       		.byte	0x50
 16900 029d 23       		.byte	0x23
 16901 029e 08       		.uleb128 0x8
 16902 029f B6000000 		.4byte	.LVL47
 16903 02a3 C8000000 		.4byte	.LVL50
 16904 02a7 0500     		.2byte	0x5
 16905 02a9 F3       		.byte	0xf3
 16906 02aa 01       		.uleb128 0x1
 16907 02ab 50       		.byte	0x50
 16908 02ac 23       		.byte	0x23
 16909 02ad 08       		.uleb128 0x8
 16910 02ae CA000000 		.4byte	.LVL51
 16911 02b2 D4000000 		.4byte	.LVL53
 16912 02b6 0100     		.2byte	0x1
 16913 02b8 51       		.byte	0x51
 16914 02b9 D4000000 		.4byte	.LVL53
 16915 02bd DC000000 		.4byte	.LVL54
ARM GAS  C:\Users\jo\AppData\Local\Temp\ccpKXchH.s 			page 305


 16916 02c1 0200     		.2byte	0x2
 16917 02c3 74       		.byte	0x74
 16918 02c4 08       		.sleb128 8
 16919 02c5 F2000000 		.4byte	.LVL58
 16920 02c9 F6000000 		.4byte	.LVL60
 16921 02cd 0100     		.2byte	0x1
 16922 02cf 51       		.byte	0x51
 16923 02d0 F6000000 		.4byte	.LVL60
 16924 02d4 FC000000 		.4byte	.LVL62
 16925 02d8 0500     		.2byte	0x5
 16926 02da F3       		.byte	0xf3
 16927 02db 01       		.uleb128 0x1
 16928 02dc 50       		.byte	0x50
 16929 02dd 23       		.byte	0x23
 16930 02de 08       		.uleb128 0x8
 16931 02df 0A010000 		.4byte	.LVL64
 16932 02e3 10010000 		.4byte	.LVL67
 16933 02e7 0100     		.2byte	0x1
 16934 02e9 51       		.byte	0x51
 16935 02ea 24010000 		.4byte	.LVL72
 16936 02ee 36010000 		.4byte	.LVL73
 16937 02f2 0500     		.2byte	0x5
 16938 02f4 F3       		.byte	0xf3
 16939 02f5 01       		.uleb128 0x1
 16940 02f6 50       		.byte	0x50
 16941 02f7 23       		.byte	0x23
 16942 02f8 08       		.uleb128 0x8
 16943 02f9 4E010000 		.4byte	.LVL76
 16944 02fd 54010000 		.4byte	.LVL79
 16945 0301 0100     		.2byte	0x1
 16946 0303 51       		.byte	0x51
 16947 0304 82010000 		.4byte	.LVL88
 16948 0308 8C010000 		.4byte	.LVL89
 16949 030c 0500     		.2byte	0x5
 16950 030e F3       		.byte	0xf3
 16951 030f 01       		.uleb128 0x1
 16952 0310 50       		.byte	0x50
 16953 0311 23       		.byte	0x23
 16954 0312 08       		.uleb128 0x8
 16955 0313 8E010000 		.4byte	.LVL90
 16956 0317 92010000 		.4byte	.LVL91
 16957 031b 0100     		.2byte	0x1
 16958 031d 51       		.byte	0x51
 16959 031e 92010000 		.4byte	.LVL91
 16960 0322 9A010000 		.4byte	.LVL92
 16961 0326 0200     		.2byte	0x2
 16962 0328 74       		.byte	0x74
 16963 0329 08       		.sleb128 8
 16964 032a 9C010000 		.4byte	.LVL93
 16965 032e A8010000 		.4byte	.LVL95
 16966 0332 0500     		.2byte	0x5
 16967 0334 F3       		.byte	0xf3
 16968 0335 01       		.uleb128 0x1
 16969 0336 50       		.byte	0x50
 16970 0337 23       		.byte	0x23
 16971 0338 08       		.uleb128 0x8
 16972 0339 00000000 		.4byte	0
ARM GAS  C:\Users\jo\AppData\Local\Temp\ccpKXchH.s 			page 306


 16973 033d 00000000 		.4byte	0
 16974              	.LLST8:
 16975 0341 14000000 		.4byte	.LVL16
 16976 0345 26000000 		.4byte	.LVL19
 16977 0349 0100     		.2byte	0x1
 16978 034b 53       		.byte	0x53
 16979 034c 26000000 		.4byte	.LVL19
 16980 0350 28000000 		.4byte	.LVL20
 16981 0354 0500     		.2byte	0x5
 16982 0356 F3       		.byte	0xf3
 16983 0357 01       		.uleb128 0x1
 16984 0358 50       		.byte	0x50
 16985 0359 23       		.byte	0x23
 16986 035a 0C       		.uleb128 0xc
 16987 035b 4A000000 		.4byte	.LVL27
 16988 035f 54000000 		.4byte	.LVL28
 16989 0363 0100     		.2byte	0x1
 16990 0365 53       		.byte	0x53
 16991 0366 54000000 		.4byte	.LVL28
 16992 036a 5C000000 		.4byte	.LVL31
 16993 036e 0500     		.2byte	0x5
 16994 0370 F3       		.byte	0xf3
 16995 0371 01       		.uleb128 0x1
 16996 0372 50       		.byte	0x50
 16997 0373 23       		.byte	0x23
 16998 0374 0C       		.uleb128 0xc
 16999 0375 6A000000 		.4byte	.LVL33
 17000 0379 7C000000 		.4byte	.LVL35
 17001 037d 0100     		.2byte	0x1
 17002 037f 53       		.byte	0x53
 17003 0380 7C000000 		.4byte	.LVL35
 17004 0384 7E000000 		.4byte	.LVL36
 17005 0388 0500     		.2byte	0x5
 17006 038a F3       		.byte	0xf3
 17007 038b 01       		.uleb128 0x1
 17008 038c 50       		.byte	0x50
 17009 038d 23       		.byte	0x23
 17010 038e 0C       		.uleb128 0xc
 17011 038f 94000000 		.4byte	.LVL41
 17012 0393 9E000000 		.4byte	.LVL42
 17013 0397 0100     		.2byte	0x1
 17014 0399 53       		.byte	0x53
 17015 039a 9E000000 		.4byte	.LVL42
 17016 039e A0000000 		.4byte	.LVL43
 17017 03a2 0200     		.2byte	0x2
 17018 03a4 74       		.byte	0x74
 17019 03a5 0C       		.sleb128 12
 17020 03a6 A0000000 		.4byte	.LVL43
 17021 03aa B3000000 		.4byte	.LVL46-1
 17022 03ae 0500     		.2byte	0x5
 17023 03b0 F3       		.byte	0xf3
 17024 03b1 01       		.uleb128 0x1
 17025 03b2 50       		.byte	0x50
 17026 03b3 23       		.byte	0x23
 17027 03b4 0C       		.uleb128 0xc
 17028 03b5 B6000000 		.4byte	.LVL47
 17029 03b9 B8000000 		.4byte	.LVL48
ARM GAS  C:\Users\jo\AppData\Local\Temp\ccpKXchH.s 			page 307


 17030 03bd 0100     		.2byte	0x1
 17031 03bf 53       		.byte	0x53
 17032 03c0 B8000000 		.4byte	.LVL48
 17033 03c4 C8000000 		.4byte	.LVL50
 17034 03c8 0500     		.2byte	0x5
 17035 03ca F3       		.byte	0xf3
 17036 03cb 01       		.uleb128 0x1
 17037 03cc 50       		.byte	0x50
 17038 03cd 23       		.byte	0x23
 17039 03ce 0C       		.uleb128 0xc
 17040 03cf CA000000 		.4byte	.LVL51
 17041 03d3 CC000000 		.4byte	.LVL52
 17042 03d7 0100     		.2byte	0x1
 17043 03d9 53       		.byte	0x53
 17044 03da CC000000 		.4byte	.LVL52
 17045 03de DC000000 		.4byte	.LVL54
 17046 03e2 0200     		.2byte	0x2
 17047 03e4 74       		.byte	0x74
 17048 03e5 0C       		.sleb128 12
 17049 03e6 F2000000 		.4byte	.LVL58
 17050 03ea F4000000 		.4byte	.LVL59
 17051 03ee 0100     		.2byte	0x1
 17052 03f0 53       		.byte	0x53
 17053 03f1 F4000000 		.4byte	.LVL59
 17054 03f5 FC000000 		.4byte	.LVL62
 17055 03f9 0500     		.2byte	0x5
 17056 03fb F3       		.byte	0xf3
 17057 03fc 01       		.uleb128 0x1
 17058 03fd 50       		.byte	0x50
 17059 03fe 23       		.byte	0x23
 17060 03ff 0C       		.uleb128 0xc
 17061 0400 0A010000 		.4byte	.LVL64
 17062 0404 0C010000 		.4byte	.LVL65
 17063 0408 0100     		.2byte	0x1
 17064 040a 53       		.byte	0x53
 17065 040b 0C010000 		.4byte	.LVL65
 17066 040f 0E010000 		.4byte	.LVL66
 17067 0413 0500     		.2byte	0x5
 17068 0415 F3       		.byte	0xf3
 17069 0416 01       		.uleb128 0x1
 17070 0417 50       		.byte	0x50
 17071 0418 23       		.byte	0x23
 17072 0419 0C       		.uleb128 0xc
 17073 041a 24010000 		.4byte	.LVL72
 17074 041e 4B010000 		.4byte	.LVL75-1
 17075 0422 0100     		.2byte	0x1
 17076 0424 53       		.byte	0x53
 17077 0425 4E010000 		.4byte	.LVL76
 17078 0429 50010000 		.4byte	.LVL77
 17079 042d 0100     		.2byte	0x1
 17080 042f 53       		.byte	0x53
 17081 0430 50010000 		.4byte	.LVL77
 17082 0434 52010000 		.4byte	.LVL78
 17083 0438 0200     		.2byte	0x2
 17084 043a 74       		.byte	0x74
 17085 043b 0C       		.sleb128 12
 17086 043c 82010000 		.4byte	.LVL88
ARM GAS  C:\Users\jo\AppData\Local\Temp\ccpKXchH.s 			page 308


 17087 0440 8E010000 		.4byte	.LVL90
 17088 0444 0100     		.2byte	0x1
 17089 0446 53       		.byte	0x53
 17090 0447 8E010000 		.4byte	.LVL90
 17091 044b 9A010000 		.4byte	.LVL92
 17092 044f 0200     		.2byte	0x2
 17093 0451 74       		.byte	0x74
 17094 0452 0C       		.sleb128 12
 17095 0453 9C010000 		.4byte	.LVL93
 17096 0457 A8010000 		.4byte	.LVL95
 17097 045b 0500     		.2byte	0x5
 17098 045d F3       		.byte	0xf3
 17099 045e 01       		.uleb128 0x1
 17100 045f 50       		.byte	0x50
 17101 0460 23       		.byte	0x23
 17102 0461 0C       		.uleb128 0xc
 17103 0462 00000000 		.4byte	0
 17104 0466 00000000 		.4byte	0
 17105              	.LLST9:
 17106 046a 16000000 		.4byte	.LVL17
 17107 046e 2A000000 		.4byte	.LVL21
 17108 0472 0100     		.2byte	0x1
 17109 0474 50       		.byte	0x50
 17110 0475 4A000000 		.4byte	.LVL27
 17111 0479 5A000000 		.4byte	.LVL30
 17112 047d 0100     		.2byte	0x1
 17113 047f 50       		.byte	0x50
 17114 0480 5A000000 		.4byte	.LVL30
 17115 0484 5C000000 		.4byte	.LVL31
 17116 0488 0500     		.2byte	0x5
 17117 048a F3       		.byte	0xf3
 17118 048b 01       		.uleb128 0x1
 17119 048c 50       		.byte	0x50
 17120 048d 23       		.byte	0x23
 17121 048e 10       		.uleb128 0x10
 17122 048f 6A000000 		.4byte	.LVL33
 17123 0493 84000000 		.4byte	.LVL38
 17124 0497 0100     		.2byte	0x1
 17125 0499 50       		.byte	0x50
 17126 049a 94000000 		.4byte	.LVL41
 17127 049e A4000000 		.4byte	.LVL45
 17128 04a2 0100     		.2byte	0x1
 17129 04a4 50       		.byte	0x50
 17130 04a5 A4000000 		.4byte	.LVL45
 17131 04a9 B3000000 		.4byte	.LVL46-1
 17132 04ad 0500     		.2byte	0x5
 17133 04af F3       		.byte	0xf3
 17134 04b0 01       		.uleb128 0x1
 17135 04b1 50       		.byte	0x50
 17136 04b2 23       		.byte	0x23
 17137 04b3 10       		.uleb128 0x10
 17138 04b4 B6000000 		.4byte	.LVL47
 17139 04b8 E6000000 		.4byte	.LVL56
 17140 04bc 0100     		.2byte	0x1
 17141 04be 50       		.byte	0x50
 17142 04bf F2000000 		.4byte	.LVL58
 17143 04c3 FA000000 		.4byte	.LVL61
ARM GAS  C:\Users\jo\AppData\Local\Temp\ccpKXchH.s 			page 309


 17144 04c7 0100     		.2byte	0x1
 17145 04c9 50       		.byte	0x50
 17146 04ca FA000000 		.4byte	.LVL61
 17147 04ce FC000000 		.4byte	.LVL62
 17148 04d2 0500     		.2byte	0x5
 17149 04d4 F3       		.byte	0xf3
 17150 04d5 01       		.uleb128 0x1
 17151 04d6 50       		.byte	0x50
 17152 04d7 23       		.byte	0x23
 17153 04d8 10       		.uleb128 0x10
 17154 04d9 0A010000 		.4byte	.LVL64
 17155 04dd 14010000 		.4byte	.LVL69
 17156 04e1 0100     		.2byte	0x1
 17157 04e3 50       		.byte	0x50
 17158 04e4 24010000 		.4byte	.LVL72
 17159 04e8 40010000 		.4byte	.LVL74
 17160 04ec 0100     		.2byte	0x1
 17161 04ee 50       		.byte	0x50
 17162 04ef 4E010000 		.4byte	.LVL76
 17163 04f3 58010000 		.4byte	.LVL81
 17164 04f7 0100     		.2byte	0x1
 17165 04f9 50       		.byte	0x50
 17166 04fa 82010000 		.4byte	.LVL88
 17167 04fe E0010000 		.4byte	.LFE283
 17168 0502 0100     		.2byte	0x1
 17169 0504 50       		.byte	0x50
 17170 0505 00000000 		.4byte	0
 17171 0509 00000000 		.4byte	0
 17172              	.LLST10:
 17173 050d 0C000000 		.4byte	.LVL13
 17174 0511 1E000000 		.4byte	.LVL18
 17175 0515 0100     		.2byte	0x1
 17176 0517 54       		.byte	0x54
 17177 0518 1E000000 		.4byte	.LVL18
 17178 051c 94000000 		.4byte	.LVL41
 17179 0520 0400     		.2byte	0x4
 17180 0522 F3       		.byte	0xf3
 17181 0523 01       		.uleb128 0x1
 17182 0524 50       		.byte	0x50
 17183 0525 9F       		.byte	0x9f
 17184 0526 94000000 		.4byte	.LVL41
 17185 052a A0000000 		.4byte	.LVL43
 17186 052e 0100     		.2byte	0x1
 17187 0530 54       		.byte	0x54
 17188 0531 A0000000 		.4byte	.LVL43
 17189 0535 CA000000 		.4byte	.LVL51
 17190 0539 0400     		.2byte	0x4
 17191 053b F3       		.byte	0xf3
 17192 053c 01       		.uleb128 0x1
 17193 053d 50       		.byte	0x50
 17194 053e 9F       		.byte	0x9f
 17195 053f CA000000 		.4byte	.LVL51
 17196 0543 E0000000 		.4byte	.LVL55
 17197 0547 0100     		.2byte	0x1
 17198 0549 54       		.byte	0x54
 17199 054a E0000000 		.4byte	.LVL55
 17200 054e 4E010000 		.4byte	.LVL76
ARM GAS  C:\Users\jo\AppData\Local\Temp\ccpKXchH.s 			page 310


 17201 0552 0400     		.2byte	0x4
 17202 0554 F3       		.byte	0xf3
 17203 0555 01       		.uleb128 0x1
 17204 0556 50       		.byte	0x50
 17205 0557 9F       		.byte	0x9f
 17206 0558 4E010000 		.4byte	.LVL76
 17207 055c 68010000 		.4byte	.LVL84
 17208 0560 0100     		.2byte	0x1
 17209 0562 54       		.byte	0x54
 17210 0563 82010000 		.4byte	.LVL88
 17211 0567 8E010000 		.4byte	.LVL90
 17212 056b 0400     		.2byte	0x4
 17213 056d F3       		.byte	0xf3
 17214 056e 01       		.uleb128 0x1
 17215 056f 50       		.byte	0x50
 17216 0570 9F       		.byte	0x9f
 17217 0571 8E010000 		.4byte	.LVL90
 17218 0575 9C010000 		.4byte	.LVL93
 17219 0579 0100     		.2byte	0x1
 17220 057b 54       		.byte	0x54
 17221 057c 9C010000 		.4byte	.LVL93
 17222 0580 E0010000 		.4byte	.LFE283
 17223 0584 0400     		.2byte	0x4
 17224 0586 F3       		.byte	0xf3
 17225 0587 01       		.uleb128 0x1
 17226 0588 50       		.byte	0x50
 17227 0589 9F       		.byte	0x9f
 17228 058a 00000000 		.4byte	0
 17229 058e 00000000 		.4byte	0
 17230              	.LLST11:
 17231 0592 36000000 		.4byte	.LVL24
 17232 0596 3C000000 		.4byte	.LVL25
 17233 059a 0600     		.2byte	0x6
 17234 059c 03       		.byte	0x3
 17235 059d 94010000 		.4byte	.LC11
 17236 05a1 9F       		.byte	0x9f
 17237 05a2 00000000 		.4byte	0
 17238 05a6 00000000 		.4byte	0
 17239              	.LLST12:
 17240 05aa 8C000000 		.4byte	.LVL39
 17241 05ae 94000000 		.4byte	.LVL41
 17242 05b2 0600     		.2byte	0x6
 17243 05b4 03       		.byte	0x3
 17244 05b5 A8000000 		.4byte	.LC6
 17245 05b9 9F       		.byte	0x9f
 17246 05ba 00000000 		.4byte	0
 17247 05be 00000000 		.4byte	0
 17248              	.LLST13:
 17249 05c2 1C010000 		.4byte	.LVL70
 17250 05c6 24010000 		.4byte	.LVL72
 17251 05ca 0600     		.2byte	0x6
 17252 05cc 03       		.byte	0x3
 17253 05cd A8000000 		.4byte	.LC6
 17254 05d1 9F       		.byte	0x9f
 17255 05d2 00000000 		.4byte	0
 17256 05d6 00000000 		.4byte	0
 17257              	.LLST14:
ARM GAS  C:\Users\jo\AppData\Local\Temp\ccpKXchH.s 			page 311


 17258 05da 60010000 		.4byte	.LVL82
 17259 05de 68010000 		.4byte	.LVL84
 17260 05e2 0600     		.2byte	0x6
 17261 05e4 03       		.byte	0x3
 17262 05e5 A8000000 		.4byte	.LC6
 17263 05e9 9F       		.byte	0x9f
 17264 05ea 00000000 		.4byte	0
 17265 05ee 00000000 		.4byte	0
 17266              	.LLST15:
 17267 05f2 7A010000 		.4byte	.LVL86
 17268 05f6 82010000 		.4byte	.LVL88
 17269 05fa 0600     		.2byte	0x6
 17270 05fc 03       		.byte	0x3
 17271 05fd 30000000 		.4byte	.LC3
 17272 0601 9F       		.byte	0x9f
 17273 0602 00000000 		.4byte	0
 17274 0606 00000000 		.4byte	0
 17275              	.LLST16:
 17276 060a 00000000 		.4byte	.LVL96
 17277 060e 0C000000 		.4byte	.LVL97
 17278 0612 0100     		.2byte	0x1
 17279 0614 50       		.byte	0x50
 17280 0615 0C000000 		.4byte	.LVL97
 17281 0619 18000000 		.4byte	.LVL99
 17282 061d 0100     		.2byte	0x1
 17283 061f 54       		.byte	0x54
 17284 0620 18000000 		.4byte	.LVL99
 17285 0624 9E010000 		.4byte	.LVL153
 17286 0628 0400     		.2byte	0x4
 17287 062a F3       		.byte	0xf3
 17288 062b 01       		.uleb128 0x1
 17289 062c 50       		.byte	0x50
 17290 062d 9F       		.byte	0x9f
 17291 062e 9E010000 		.4byte	.LVL153
 17292 0632 A8010000 		.4byte	.LVL154
 17293 0636 0100     		.2byte	0x1
 17294 0638 50       		.byte	0x50
 17295 0639 A8010000 		.4byte	.LVL154
 17296 063d B8010000 		.4byte	.LVL157
 17297 0641 0100     		.2byte	0x1
 17298 0643 54       		.byte	0x54
 17299 0644 B8010000 		.4byte	.LVL157
 17300 0648 54020000 		.4byte	.LFE281
 17301 064c 0400     		.2byte	0x4
 17302 064e F3       		.byte	0xf3
 17303 064f 01       		.uleb128 0x1
 17304 0650 50       		.byte	0x50
 17305 0651 9F       		.byte	0x9f
 17306 0652 00000000 		.4byte	0
 17307 0656 00000000 		.4byte	0
 17308              	.LLST17:
 17309 065a 16000000 		.4byte	.LVL98
 17310 065e 46000000 		.4byte	.LVL106
 17311 0662 0100     		.2byte	0x1
 17312 0664 56       		.byte	0x56
 17313 0665 4A000000 		.4byte	.LVL107
 17314 0669 9E010000 		.4byte	.LVL153
ARM GAS  C:\Users\jo\AppData\Local\Temp\ccpKXchH.s 			page 312


 17315 066d 0100     		.2byte	0x1
 17316 066f 56       		.byte	0x56
 17317 0670 B8010000 		.4byte	.LVL157
 17318 0674 54020000 		.4byte	.LFE281
 17319 0678 0100     		.2byte	0x1
 17320 067a 56       		.byte	0x56
 17321 067b 00000000 		.4byte	0
 17322 067f 00000000 		.4byte	0
 17323              	.LLST18:
 17324 0683 16000000 		.4byte	.LVL98
 17325 0687 2C000000 		.4byte	.LVL102
 17326 068b 0100     		.2byte	0x1
 17327 068d 52       		.byte	0x52
 17328 068e 4A000000 		.4byte	.LVL107
 17329 0692 62000000 		.4byte	.LVL110
 17330 0696 0100     		.2byte	0x1
 17331 0698 52       		.byte	0x52
 17332 0699 6A000000 		.4byte	.LVL112
 17333 069d 74000000 		.4byte	.LVL113
 17334 06a1 0100     		.2byte	0x1
 17335 06a3 52       		.byte	0x52
 17336 06a4 74000000 		.4byte	.LVL113
 17337 06a8 90000000 		.4byte	.LVL115
 17338 06ac 0500     		.2byte	0x5
 17339 06ae F3       		.byte	0xf3
 17340 06af 01       		.uleb128 0x1
 17341 06b0 50       		.byte	0x50
 17342 06b1 23       		.byte	0x23
 17343 06b2 08       		.uleb128 0x8
 17344 06b3 A8000000 		.4byte	.LVL118
 17345 06b7 C0000000 		.4byte	.LVL121
 17346 06bb 0100     		.2byte	0x1
 17347 06bd 52       		.byte	0x52
 17348 06be C8000000 		.4byte	.LVL123
 17349 06c2 D6000000 		.4byte	.LVL126
 17350 06c6 0100     		.2byte	0x1
 17351 06c8 52       		.byte	0x52
 17352 06c9 DE000000 		.4byte	.LVL128
 17353 06cd E6000000 		.4byte	.LVL130
 17354 06d1 0100     		.2byte	0x1
 17355 06d3 52       		.byte	0x52
 17356 06d4 E6000000 		.4byte	.LVL130
 17357 06d8 F6000000 		.4byte	.LVL131
 17358 06dc 0500     		.2byte	0x5
 17359 06de F3       		.byte	0xf3
 17360 06df 01       		.uleb128 0x1
 17361 06e0 50       		.byte	0x50
 17362 06e1 23       		.byte	0x23
 17363 06e2 08       		.uleb128 0x8
 17364 06e3 04010000 		.4byte	.LVL133
 17365 06e7 10010000 		.4byte	.LVL134
 17366 06eb 0100     		.2byte	0x1
 17367 06ed 52       		.byte	0x52
 17368 06ee 10010000 		.4byte	.LVL134
 17369 06f2 26010000 		.4byte	.LVL135
 17370 06f6 0500     		.2byte	0x5
 17371 06f8 F3       		.byte	0xf3
ARM GAS  C:\Users\jo\AppData\Local\Temp\ccpKXchH.s 			page 313


 17372 06f9 01       		.uleb128 0x1
 17373 06fa 50       		.byte	0x50
 17374 06fb 23       		.byte	0x23
 17375 06fc 08       		.uleb128 0x8
 17376 06fd 34010000 		.4byte	.LVL137
 17377 0701 54010000 		.4byte	.LVL139
 17378 0705 0500     		.2byte	0x5
 17379 0707 F3       		.byte	0xf3
 17380 0708 01       		.uleb128 0x1
 17381 0709 50       		.byte	0x50
 17382 070a 23       		.byte	0x23
 17383 070b 08       		.uleb128 0x8
 17384 070c 66010000 		.4byte	.LVL141
 17385 0710 6E010000 		.4byte	.LVL144
 17386 0714 0100     		.2byte	0x1
 17387 0716 52       		.byte	0x52
 17388 0717 82010000 		.4byte	.LVL147
 17389 071b 8A010000 		.4byte	.LVL150
 17390 071f 0100     		.2byte	0x1
 17391 0721 52       		.byte	0x52
 17392 0722 B8010000 		.4byte	.LVL157
 17393 0726 C4010000 		.4byte	.LVL159
 17394 072a 0500     		.2byte	0x5
 17395 072c F3       		.byte	0xf3
 17396 072d 01       		.uleb128 0x1
 17397 072e 50       		.byte	0x50
 17398 072f 23       		.byte	0x23
 17399 0730 08       		.uleb128 0x8
 17400 0731 C6010000 		.4byte	.LVL160
 17401 0735 DC010000 		.4byte	.LVL162
 17402 0739 0500     		.2byte	0x5
 17403 073b F3       		.byte	0xf3
 17404 073c 01       		.uleb128 0x1
 17405 073d 50       		.byte	0x50
 17406 073e 23       		.byte	0x23
 17407 073f 08       		.uleb128 0x8
 17408 0740 F6010000 		.4byte	.LVL165
 17409 0744 00020000 		.4byte	.LVL166
 17410 0748 0500     		.2byte	0x5
 17411 074a F3       		.byte	0xf3
 17412 074b 01       		.uleb128 0x1
 17413 074c 50       		.byte	0x50
 17414 074d 23       		.byte	0x23
 17415 074e 08       		.uleb128 0x8
 17416 074f 02020000 		.4byte	.LVL167
 17417 0753 06020000 		.4byte	.LVL168
 17418 0757 0500     		.2byte	0x5
 17419 0759 F3       		.byte	0xf3
 17420 075a 01       		.uleb128 0x1
 17421 075b 50       		.byte	0x50
 17422 075c 23       		.byte	0x23
 17423 075d 08       		.uleb128 0x8
 17424 075e 08020000 		.4byte	.LVL169
 17425 0762 0C020000 		.4byte	.LVL170
 17426 0766 0500     		.2byte	0x5
 17427 0768 F3       		.byte	0xf3
 17428 0769 01       		.uleb128 0x1
ARM GAS  C:\Users\jo\AppData\Local\Temp\ccpKXchH.s 			page 314


 17429 076a 50       		.byte	0x50
 17430 076b 23       		.byte	0x23
 17431 076c 08       		.uleb128 0x8
 17432 076d 00000000 		.4byte	0
 17433 0771 00000000 		.4byte	0
 17434              	.LLST19:
 17435 0775 16000000 		.4byte	.LVL98
 17436 0779 26000000 		.4byte	.LVL100
 17437 077d 0100     		.2byte	0x1
 17438 077f 53       		.byte	0x53
 17439 0780 26000000 		.4byte	.LVL100
 17440 0784 28000000 		.4byte	.LVL101
 17441 0788 0500     		.2byte	0x5
 17442 078a F3       		.byte	0xf3
 17443 078b 01       		.uleb128 0x1
 17444 078c 50       		.byte	0x50
 17445 078d 23       		.byte	0x23
 17446 078e 0C       		.uleb128 0xc
 17447 078f 4A000000 		.4byte	.LVL107
 17448 0793 56000000 		.4byte	.LVL108
 17449 0797 0100     		.2byte	0x1
 17450 0799 53       		.byte	0x53
 17451 079a 56000000 		.4byte	.LVL108
 17452 079e 60000000 		.4byte	.LVL109
 17453 07a2 0500     		.2byte	0x5
 17454 07a4 F3       		.byte	0xf3
 17455 07a5 01       		.uleb128 0x1
 17456 07a6 50       		.byte	0x50
 17457 07a7 23       		.byte	0x23
 17458 07a8 0C       		.uleb128 0xc
 17459 07a9 6A000000 		.4byte	.LVL112
 17460 07ad 8E000000 		.4byte	.LVL114
 17461 07b1 0100     		.2byte	0x1
 17462 07b3 53       		.byte	0x53
 17463 07b4 8E000000 		.4byte	.LVL114
 17464 07b8 90000000 		.4byte	.LVL115
 17465 07bc 0500     		.2byte	0x5
 17466 07be F3       		.byte	0xf3
 17467 07bf 01       		.uleb128 0x1
 17468 07c0 50       		.byte	0x50
 17469 07c1 23       		.byte	0x23
 17470 07c2 0C       		.uleb128 0xc
 17471 07c3 A8000000 		.4byte	.LVL118
 17472 07c7 B2000000 		.4byte	.LVL119
 17473 07cb 0100     		.2byte	0x1
 17474 07cd 53       		.byte	0x53
 17475 07ce B2000000 		.4byte	.LVL119
 17476 07d2 BE000000 		.4byte	.LVL120
 17477 07d6 0500     		.2byte	0x5
 17478 07d8 F3       		.byte	0xf3
 17479 07d9 01       		.uleb128 0x1
 17480 07da 50       		.byte	0x50
 17481 07db 23       		.byte	0x23
 17482 07dc 0C       		.uleb128 0xc
 17483 07dd C8000000 		.4byte	.LVL123
 17484 07e1 CA000000 		.4byte	.LVL124
 17485 07e5 0100     		.2byte	0x1
ARM GAS  C:\Users\jo\AppData\Local\Temp\ccpKXchH.s 			page 315


 17486 07e7 53       		.byte	0x53
 17487 07e8 CA000000 		.4byte	.LVL124
 17488 07ec D4000000 		.4byte	.LVL125
 17489 07f0 0500     		.2byte	0x5
 17490 07f2 F3       		.byte	0xf3
 17491 07f3 01       		.uleb128 0x1
 17492 07f4 50       		.byte	0x50
 17493 07f5 23       		.byte	0x23
 17494 07f6 0C       		.uleb128 0xc
 17495 07f7 DE000000 		.4byte	.LVL128
 17496 07fb E0000000 		.4byte	.LVL129
 17497 07ff 0100     		.2byte	0x1
 17498 0801 53       		.byte	0x53
 17499 0802 E0000000 		.4byte	.LVL129
 17500 0806 F6000000 		.4byte	.LVL131
 17501 080a 0500     		.2byte	0x5
 17502 080c F3       		.byte	0xf3
 17503 080d 01       		.uleb128 0x1
 17504 080e 50       		.byte	0x50
 17505 080f 23       		.byte	0x23
 17506 0810 0C       		.uleb128 0xc
 17507 0811 04010000 		.4byte	.LVL133
 17508 0815 2F010000 		.4byte	.LVL136-1
 17509 0819 0100     		.2byte	0x1
 17510 081b 53       		.byte	0x53
 17511 081c 34010000 		.4byte	.LVL137
 17512 0820 36010000 		.4byte	.LVL138
 17513 0824 0100     		.2byte	0x1
 17514 0826 53       		.byte	0x53
 17515 0827 36010000 		.4byte	.LVL138
 17516 082b 54010000 		.4byte	.LVL139
 17517 082f 0500     		.2byte	0x5
 17518 0831 F3       		.byte	0xf3
 17519 0832 01       		.uleb128 0x1
 17520 0833 50       		.byte	0x50
 17521 0834 23       		.byte	0x23
 17522 0835 0C       		.uleb128 0xc
 17523 0836 66010000 		.4byte	.LVL141
 17524 083a 68010000 		.4byte	.LVL142
 17525 083e 0100     		.2byte	0x1
 17526 0840 53       		.byte	0x53
 17527 0841 68010000 		.4byte	.LVL142
 17528 0845 6A010000 		.4byte	.LVL143
 17529 0849 0500     		.2byte	0x5
 17530 084b F3       		.byte	0xf3
 17531 084c 01       		.uleb128 0x1
 17532 084d 50       		.byte	0x50
 17533 084e 23       		.byte	0x23
 17534 084f 0C       		.uleb128 0xc
 17535 0850 82010000 		.4byte	.LVL147
 17536 0854 84010000 		.4byte	.LVL148
 17537 0858 0100     		.2byte	0x1
 17538 085a 53       		.byte	0x53
 17539 085b 84010000 		.4byte	.LVL148
 17540 085f 86010000 		.4byte	.LVL149
 17541 0863 0500     		.2byte	0x5
 17542 0865 F3       		.byte	0xf3
ARM GAS  C:\Users\jo\AppData\Local\Temp\ccpKXchH.s 			page 316


 17543 0866 01       		.uleb128 0x1
 17544 0867 50       		.byte	0x50
 17545 0868 23       		.byte	0x23
 17546 0869 0C       		.uleb128 0xc
 17547 086a B8010000 		.4byte	.LVL157
 17548 086e BC010000 		.4byte	.LVL158
 17549 0872 0100     		.2byte	0x1
 17550 0874 53       		.byte	0x53
 17551 0875 BC010000 		.4byte	.LVL158
 17552 0879 C4010000 		.4byte	.LVL159
 17553 087d 0500     		.2byte	0x5
 17554 087f F3       		.byte	0xf3
 17555 0880 01       		.uleb128 0x1
 17556 0881 50       		.byte	0x50
 17557 0882 23       		.byte	0x23
 17558 0883 0C       		.uleb128 0xc
 17559 0884 C6010000 		.4byte	.LVL160
 17560 0888 C8010000 		.4byte	.LVL161
 17561 088c 0100     		.2byte	0x1
 17562 088e 53       		.byte	0x53
 17563 088f C8010000 		.4byte	.LVL161
 17564 0893 DC010000 		.4byte	.LVL162
 17565 0897 0500     		.2byte	0x5
 17566 0899 F3       		.byte	0xf3
 17567 089a 01       		.uleb128 0x1
 17568 089b 50       		.byte	0x50
 17569 089c 23       		.byte	0x23
 17570 089d 0C       		.uleb128 0xc
 17571 089e F6010000 		.4byte	.LVL165
 17572 08a2 00020000 		.4byte	.LVL166
 17573 08a6 0500     		.2byte	0x5
 17574 08a8 F3       		.byte	0xf3
 17575 08a9 01       		.uleb128 0x1
 17576 08aa 50       		.byte	0x50
 17577 08ab 23       		.byte	0x23
 17578 08ac 0C       		.uleb128 0xc
 17579 08ad 02020000 		.4byte	.LVL167
 17580 08b1 06020000 		.4byte	.LVL168
 17581 08b5 0500     		.2byte	0x5
 17582 08b7 F3       		.byte	0xf3
 17583 08b8 01       		.uleb128 0x1
 17584 08b9 50       		.byte	0x50
 17585 08ba 23       		.byte	0x23
 17586 08bb 0C       		.uleb128 0xc
 17587 08bc 08020000 		.4byte	.LVL169
 17588 08c0 0C020000 		.4byte	.LVL170
 17589 08c4 0500     		.2byte	0x5
 17590 08c6 F3       		.byte	0xf3
 17591 08c7 01       		.uleb128 0x1
 17592 08c8 50       		.byte	0x50
 17593 08c9 23       		.byte	0x23
 17594 08ca 0C       		.uleb128 0xc
 17595 08cb 00000000 		.4byte	0
 17596 08cf 00000000 		.4byte	0
 17597              	.LLST20:
 17598 08d3 18000000 		.4byte	.LVL99
 17599 08d7 46000000 		.4byte	.LVL106
ARM GAS  C:\Users\jo\AppData\Local\Temp\ccpKXchH.s 			page 317


 17600 08db 0100     		.2byte	0x1
 17601 08dd 54       		.byte	0x54
 17602 08de 4A000000 		.4byte	.LVL107
 17603 08e2 9E010000 		.4byte	.LVL153
 17604 08e6 0100     		.2byte	0x1
 17605 08e8 54       		.byte	0x54
 17606 08e9 B8010000 		.4byte	.LVL157
 17607 08ed 54020000 		.4byte	.LFE281
 17608 08f1 0100     		.2byte	0x1
 17609 08f3 54       		.byte	0x54
 17610 08f4 00000000 		.4byte	0
 17611 08f8 00000000 		.4byte	0
 17612              	.LLST21:
 17613 08fc 0C000000 		.4byte	.LVL97
 17614 0900 18000000 		.4byte	.LVL99
 17615 0904 0100     		.2byte	0x1
 17616 0906 54       		.byte	0x54
 17617 0907 18000000 		.4byte	.LVL99
 17618 090b 9E010000 		.4byte	.LVL153
 17619 090f 0400     		.2byte	0x4
 17620 0911 F3       		.byte	0xf3
 17621 0912 01       		.uleb128 0x1
 17622 0913 50       		.byte	0x50
 17623 0914 9F       		.byte	0x9f
 17624 0915 B8010000 		.4byte	.LVL157
 17625 0919 54020000 		.4byte	.LFE281
 17626 091d 0400     		.2byte	0x4
 17627 091f F3       		.byte	0xf3
 17628 0920 01       		.uleb128 0x1
 17629 0921 50       		.byte	0x50
 17630 0922 9F       		.byte	0x9f
 17631 0923 00000000 		.4byte	0
 17632 0927 00000000 		.4byte	0
 17633              	.LLST22:
 17634 092b 36000000 		.4byte	.LVL103
 17635 092f 3E000000 		.4byte	.LVL105
 17636 0933 0600     		.2byte	0x6
 17637 0935 03       		.byte	0x3
 17638 0936 94010000 		.4byte	.LC11
 17639 093a 9F       		.byte	0x9f
 17640 093b 00000000 		.4byte	0
 17641 093f 00000000 		.4byte	0
 17642              	.LLST23:
 17643 0943 9E000000 		.4byte	.LVL116
 17644 0947 A8000000 		.4byte	.LVL118
 17645 094b 0600     		.2byte	0x6
 17646 094d 03       		.byte	0x3
 17647 094e A8000000 		.4byte	.LC6
 17648 0952 9F       		.byte	0x9f
 17649 0953 00000000 		.4byte	0
 17650 0957 00000000 		.4byte	0
 17651              	.LLST24:
 17652 095b 78010000 		.4byte	.LVL145
 17653 095f 82010000 		.4byte	.LVL147
 17654 0963 0600     		.2byte	0x6
 17655 0965 03       		.byte	0x3
 17656 0966 A8000000 		.4byte	.LC6
ARM GAS  C:\Users\jo\AppData\Local\Temp\ccpKXchH.s 			page 318


 17657 096a 9F       		.byte	0x9f
 17658 096b 00000000 		.4byte	0
 17659 096f 00000000 		.4byte	0
 17660              	.LLST25:
 17661 0973 94010000 		.4byte	.LVL151
 17662 0977 9E010000 		.4byte	.LVL153
 17663 097b 0600     		.2byte	0x6
 17664 097d 03       		.byte	0x3
 17665 097e A8000000 		.4byte	.LC6
 17666 0982 9F       		.byte	0x9f
 17667 0983 00000000 		.4byte	0
 17668 0987 00000000 		.4byte	0
 17669              	.LLST26:
 17670 098b B0010000 		.4byte	.LVL155
 17671 098f B8010000 		.4byte	.LVL157
 17672 0993 0600     		.2byte	0x6
 17673 0995 03       		.byte	0x3
 17674 0996 30000000 		.4byte	.LC3
 17675 099a 9F       		.byte	0x9f
 17676 099b 00000000 		.4byte	0
 17677 099f 00000000 		.4byte	0
 17678              	.LLST27:
 17679 09a3 00000000 		.4byte	.LVL171
 17680 09a7 48000000 		.4byte	.LVL184
 17681 09ab 0100     		.2byte	0x1
 17682 09ad 50       		.byte	0x50
 17683 09ae 48000000 		.4byte	.LVL184
 17684 09b2 D8000000 		.4byte	.LVL192
 17685 09b6 0100     		.2byte	0x1
 17686 09b8 56       		.byte	0x56
 17687 09b9 D8000000 		.4byte	.LVL192
 17688 09bd 04010000 		.4byte	.LVL193
 17689 09c1 0400     		.2byte	0x4
 17690 09c3 F3       		.byte	0xf3
 17691 09c4 01       		.uleb128 0x1
 17692 09c5 50       		.byte	0x50
 17693 09c6 9F       		.byte	0x9f
 17694 09c7 04010000 		.4byte	.LVL193
 17695 09cb 5C010000 		.4byte	.LVL201
 17696 09cf 0100     		.2byte	0x1
 17697 09d1 56       		.byte	0x56
 17698 09d2 5C010000 		.4byte	.LVL201
 17699 09d6 62010000 		.4byte	.LVL202
 17700 09da 0100     		.2byte	0x1
 17701 09dc 50       		.byte	0x50
 17702 09dd 62010000 		.4byte	.LVL202
 17703 09e1 98010000 		.4byte	.LFE273
 17704 09e5 0100     		.2byte	0x1
 17705 09e7 56       		.byte	0x56
 17706 09e8 00000000 		.4byte	0
 17707 09ec 00000000 		.4byte	0
 17708              	.LLST28:
 17709 09f0 00000000 		.4byte	.LVL171
 17710 09f4 48000000 		.4byte	.LVL184
 17711 09f8 0100     		.2byte	0x1
 17712 09fa 51       		.byte	0x51
 17713 09fb 48000000 		.4byte	.LVL184
ARM GAS  C:\Users\jo\AppData\Local\Temp\ccpKXchH.s 			page 319


 17714 09ff D8000000 		.4byte	.LVL192
 17715 0a03 0100     		.2byte	0x1
 17716 0a05 57       		.byte	0x57
 17717 0a06 D8000000 		.4byte	.LVL192
 17718 0a0a 04010000 		.4byte	.LVL193
 17719 0a0e 0400     		.2byte	0x4
 17720 0a10 F3       		.byte	0xf3
 17721 0a11 01       		.uleb128 0x1
 17722 0a12 51       		.byte	0x51
 17723 0a13 9F       		.byte	0x9f
 17724 0a14 04010000 		.4byte	.LVL193
 17725 0a18 5C010000 		.4byte	.LVL201
 17726 0a1c 0100     		.2byte	0x1
 17727 0a1e 57       		.byte	0x57
 17728 0a1f 5C010000 		.4byte	.LVL201
 17729 0a23 62010000 		.4byte	.LVL202
 17730 0a27 0100     		.2byte	0x1
 17731 0a29 51       		.byte	0x51
 17732 0a2a 62010000 		.4byte	.LVL202
 17733 0a2e 98010000 		.4byte	.LFE273
 17734 0a32 0100     		.2byte	0x1
 17735 0a34 57       		.byte	0x57
 17736 0a35 00000000 		.4byte	0
 17737 0a39 00000000 		.4byte	0
 17738              	.LLST29:
 17739 0a3d 00000000 		.4byte	.LVL171
 17740 0a41 48000000 		.4byte	.LVL184
 17741 0a45 0100     		.2byte	0x1
 17742 0a47 52       		.byte	0x52
 17743 0a48 48000000 		.4byte	.LVL184
 17744 0a4c D8000000 		.4byte	.LVL192
 17745 0a50 0100     		.2byte	0x1
 17746 0a52 58       		.byte	0x58
 17747 0a53 D8000000 		.4byte	.LVL192
 17748 0a57 04010000 		.4byte	.LVL193
 17749 0a5b 0400     		.2byte	0x4
 17750 0a5d F3       		.byte	0xf3
 17751 0a5e 01       		.uleb128 0x1
 17752 0a5f 52       		.byte	0x52
 17753 0a60 9F       		.byte	0x9f
 17754 0a61 04010000 		.4byte	.LVL193
 17755 0a65 5C010000 		.4byte	.LVL201
 17756 0a69 0100     		.2byte	0x1
 17757 0a6b 58       		.byte	0x58
 17758 0a6c 5C010000 		.4byte	.LVL201
 17759 0a70 62010000 		.4byte	.LVL202
 17760 0a74 0100     		.2byte	0x1
 17761 0a76 52       		.byte	0x52
 17762 0a77 62010000 		.4byte	.LVL202
 17763 0a7b 98010000 		.4byte	.LFE273
 17764 0a7f 0100     		.2byte	0x1
 17765 0a81 58       		.byte	0x58
 17766 0a82 00000000 		.4byte	0
 17767 0a86 00000000 		.4byte	0
 17768              	.LLST30:
 17769 0a8a 00000000 		.4byte	.LVL171
 17770 0a8e 48000000 		.4byte	.LVL184
ARM GAS  C:\Users\jo\AppData\Local\Temp\ccpKXchH.s 			page 320


 17771 0a92 0100     		.2byte	0x1
 17772 0a94 53       		.byte	0x53
 17773 0a95 48000000 		.4byte	.LVL184
 17774 0a99 D8000000 		.4byte	.LVL192
 17775 0a9d 0100     		.2byte	0x1
 17776 0a9f 59       		.byte	0x59
 17777 0aa0 D8000000 		.4byte	.LVL192
 17778 0aa4 04010000 		.4byte	.LVL193
 17779 0aa8 0400     		.2byte	0x4
 17780 0aaa F3       		.byte	0xf3
 17781 0aab 01       		.uleb128 0x1
 17782 0aac 53       		.byte	0x53
 17783 0aad 9F       		.byte	0x9f
 17784 0aae 04010000 		.4byte	.LVL193
 17785 0ab2 5C010000 		.4byte	.LVL201
 17786 0ab6 0100     		.2byte	0x1
 17787 0ab8 59       		.byte	0x59
 17788 0ab9 5C010000 		.4byte	.LVL201
 17789 0abd 62010000 		.4byte	.LVL202
 17790 0ac1 0100     		.2byte	0x1
 17791 0ac3 53       		.byte	0x53
 17792 0ac4 62010000 		.4byte	.LVL202
 17793 0ac8 98010000 		.4byte	.LFE273
 17794 0acc 0100     		.2byte	0x1
 17795 0ace 59       		.byte	0x59
 17796 0acf 00000000 		.4byte	0
 17797 0ad3 00000000 		.4byte	0
 17798              	.LLST31:
 17799 0ad7 00000000 		.4byte	.LVL171
 17800 0adb 04010000 		.4byte	.LVL193
 17801 0adf 0200     		.2byte	0x2
 17802 0ae1 91       		.byte	0x91
 17803 0ae2 00       		.sleb128 0
 17804 0ae3 04010000 		.4byte	.LVL193
 17805 0ae7 98010000 		.4byte	.LFE273
 17806 0aeb 0200     		.2byte	0x2
 17807 0aed 91       		.byte	0x91
 17808 0aee 00       		.sleb128 0
 17809 0aef 00000000 		.4byte	0
 17810 0af3 00000000 		.4byte	0
 17811              	.LLST32:
 17812 0af7 00000000 		.4byte	.LVL171
 17813 0afb 04010000 		.4byte	.LVL193
 17814 0aff 0200     		.2byte	0x2
 17815 0b01 91       		.byte	0x91
 17816 0b02 04       		.sleb128 4
 17817 0b03 04010000 		.4byte	.LVL193
 17818 0b07 98010000 		.4byte	.LFE273
 17819 0b0b 0200     		.2byte	0x2
 17820 0b0d 91       		.byte	0x91
 17821 0b0e 04       		.sleb128 4
 17822 0b0f 00000000 		.4byte	0
 17823 0b13 00000000 		.4byte	0
 17824              	.LLST33:
 17825 0b17 00000000 		.4byte	.LVL171
 17826 0b1b 04010000 		.4byte	.LVL193
 17827 0b1f 0200     		.2byte	0x2
ARM GAS  C:\Users\jo\AppData\Local\Temp\ccpKXchH.s 			page 321


 17828 0b21 91       		.byte	0x91
 17829 0b22 08       		.sleb128 8
 17830 0b23 04010000 		.4byte	.LVL193
 17831 0b27 98010000 		.4byte	.LFE273
 17832 0b2b 0200     		.2byte	0x2
 17833 0b2d 91       		.byte	0x91
 17834 0b2e 08       		.sleb128 8
 17835 0b2f 00000000 		.4byte	0
 17836 0b33 00000000 		.4byte	0
 17837              	.LLST34:
 17838 0b37 30000000 		.4byte	.LVL182
 17839 0b3b 48000000 		.4byte	.LVL184
 17840 0b3f 0200     		.2byte	0x2
 17841 0b41 30       		.byte	0x30
 17842 0b42 9F       		.byte	0x9f
 17843 0b43 48000000 		.4byte	.LVL184
 17844 0b47 D8000000 		.4byte	.LVL192
 17845 0b4b 0100     		.2byte	0x1
 17846 0b4d 54       		.byte	0x54
 17847 0b4e 04010000 		.4byte	.LVL193
 17848 0b52 5C010000 		.4byte	.LVL201
 17849 0b56 0100     		.2byte	0x1
 17850 0b58 54       		.byte	0x54
 17851 0b59 5C010000 		.4byte	.LVL201
 17852 0b5d 62010000 		.4byte	.LVL202
 17853 0b61 0200     		.2byte	0x2
 17854 0b63 30       		.byte	0x30
 17855 0b64 9F       		.byte	0x9f
 17856 0b65 62010000 		.4byte	.LVL202
 17857 0b69 98010000 		.4byte	.LFE273
 17858 0b6d 0100     		.2byte	0x1
 17859 0b6f 54       		.byte	0x54
 17860 0b70 00000000 		.4byte	0
 17861 0b74 00000000 		.4byte	0
 17862              	.LLST35:
 17863 0b78 00000000 		.4byte	.LVL171
 17864 0b7c 48000000 		.4byte	.LVL184
 17865 0b80 0200     		.2byte	0x2
 17866 0b82 30       		.byte	0x30
 17867 0b83 9F       		.byte	0x9f
 17868 0b84 48000000 		.4byte	.LVL184
 17869 0b88 D8000000 		.4byte	.LVL192
 17870 0b8c 0100     		.2byte	0x1
 17871 0b8e 5B       		.byte	0x5b
 17872 0b8f 04010000 		.4byte	.LVL193
 17873 0b93 5C010000 		.4byte	.LVL201
 17874 0b97 0100     		.2byte	0x1
 17875 0b99 5B       		.byte	0x5b
 17876 0b9a 5C010000 		.4byte	.LVL201
 17877 0b9e 62010000 		.4byte	.LVL202
 17878 0ba2 0200     		.2byte	0x2
 17879 0ba4 30       		.byte	0x30
 17880 0ba5 9F       		.byte	0x9f
 17881 0ba6 62010000 		.4byte	.LVL202
 17882 0baa 98010000 		.4byte	.LFE273
 17883 0bae 0100     		.2byte	0x1
 17884 0bb0 5B       		.byte	0x5b
ARM GAS  C:\Users\jo\AppData\Local\Temp\ccpKXchH.s 			page 322


 17885 0bb1 00000000 		.4byte	0
 17886 0bb5 00000000 		.4byte	0
 17887              	.LLST36:
 17888 0bb9 06000000 		.4byte	.LVL172
 17889 0bbd 0A000000 		.4byte	.LVL174
 17890 0bc1 0200     		.2byte	0x2
 17891 0bc3 30       		.byte	0x30
 17892 0bc4 9F       		.byte	0x9f
 17893 0bc5 0A000000 		.4byte	.LVL174
 17894 0bc9 16000000 		.4byte	.LVL176
 17895 0bcd 0800     		.2byte	0x8
 17896 0bcf 74       		.byte	0x74
 17897 0bd0 00       		.sleb128 0
 17898 0bd1 91       		.byte	0x91
 17899 0bd2 00       		.sleb128 0
 17900 0bd3 1C       		.byte	0x1c
 17901 0bd4 23       		.byte	0x23
 17902 0bd5 40       		.uleb128 0x40
 17903 0bd6 9F       		.byte	0x9f
 17904 0bd7 00000000 		.4byte	0
 17905 0bdb 00000000 		.4byte	0
 17906              	.LLST37:
 17907 0bdf 06000000 		.4byte	.LVL172
 17908 0be3 08000000 		.4byte	.LVL173
 17909 0be7 0300     		.2byte	0x3
 17910 0be9 91       		.byte	0x91
 17911 0bea 40       		.sleb128 -64
 17912 0beb 9F       		.byte	0x9f
 17913 0bec 08000000 		.4byte	.LVL173
 17914 0bf0 16000000 		.4byte	.LVL176
 17915 0bf4 0100     		.2byte	0x1
 17916 0bf6 54       		.byte	0x54
 17917 0bf7 00000000 		.4byte	0
 17918 0bfb 00000000 		.4byte	0
 17919              	.LLST38:
 17920 0bff 18000000 		.4byte	.LVL177
 17921 0c03 24000000 		.4byte	.LVL179
 17922 0c07 0800     		.2byte	0x8
 17923 0c09 74       		.byte	0x74
 17924 0c0a 00       		.sleb128 0
 17925 0c0b 91       		.byte	0x91
 17926 0c0c 00       		.sleb128 0
 17927 0c0d 1C       		.byte	0x1c
 17928 0c0e 23       		.byte	0x23
 17929 0c0f 38       		.uleb128 0x38
 17930 0c10 9F       		.byte	0x9f
 17931 0c11 00000000 		.4byte	0
 17932 0c15 00000000 		.4byte	0
 17933              	.LLST39:
 17934 0c19 18000000 		.4byte	.LVL177
 17935 0c1d 24000000 		.4byte	.LVL179
 17936 0c21 0100     		.2byte	0x1
 17937 0c23 54       		.byte	0x54
 17938 0c24 00000000 		.4byte	0
 17939 0c28 00000000 		.4byte	0
 17940              	.LLST40:
 17941 0c2c 26000000 		.4byte	.LVL180
ARM GAS  C:\Users\jo\AppData\Local\Temp\ccpKXchH.s 			page 323


 17942 0c30 46000000 		.4byte	.LVL183
 17943 0c34 0800     		.2byte	0x8
 17944 0c36 74       		.byte	0x74
 17945 0c37 00       		.sleb128 0
 17946 0c38 91       		.byte	0x91
 17947 0c39 00       		.sleb128 0
 17948 0c3a 1C       		.byte	0x1c
 17949 0c3b 23       		.byte	0x23
 17950 0c3c 30       		.uleb128 0x30
 17951 0c3d 9F       		.byte	0x9f
 17952 0c3e 5C010000 		.4byte	.LVL201
 17953 0c42 62010000 		.4byte	.LVL202
 17954 0c46 0800     		.2byte	0x8
 17955 0c48 74       		.byte	0x74
 17956 0c49 00       		.sleb128 0
 17957 0c4a 91       		.byte	0x91
 17958 0c4b 00       		.sleb128 0
 17959 0c4c 1C       		.byte	0x1c
 17960 0c4d 23       		.byte	0x23
 17961 0c4e 30       		.uleb128 0x30
 17962 0c4f 9F       		.byte	0x9f
 17963 0c50 00000000 		.4byte	0
 17964 0c54 00000000 		.4byte	0
 17965              	.LLST41:
 17966 0c58 26000000 		.4byte	.LVL180
 17967 0c5c 46000000 		.4byte	.LVL183
 17968 0c60 0100     		.2byte	0x1
 17969 0c62 54       		.byte	0x54
 17970 0c63 5C010000 		.4byte	.LVL201
 17971 0c67 62010000 		.4byte	.LVL202
 17972 0c6b 0100     		.2byte	0x1
 17973 0c6d 54       		.byte	0x54
 17974 0c6e 00000000 		.4byte	0
 17975 0c72 00000000 		.4byte	0
 17976              	.LLST42:
 17977 0c76 48000000 		.4byte	.LVL184
 17978 0c7a 56000000 		.4byte	.LVL185
 17979 0c7e 0200     		.2byte	0x2
 17980 0c80 30       		.byte	0x30
 17981 0c81 9F       		.byte	0x9f
 17982 0c82 56000000 		.4byte	.LVL185
 17983 0c86 7C000000 		.4byte	.LVL187
 17984 0c8a 0100     		.2byte	0x1
 17985 0c8c 50       		.byte	0x50
 17986 0c8d 2C010000 		.4byte	.LVL196
 17987 0c91 38010000 		.4byte	.LVL197
 17988 0c95 0100     		.2byte	0x1
 17989 0c97 50       		.byte	0x50
 17990 0c98 62010000 		.4byte	.LVL202
 17991 0c9c 6C010000 		.4byte	.LVL203
 17992 0ca0 0200     		.2byte	0x2
 17993 0ca2 30       		.byte	0x30
 17994 0ca3 9F       		.byte	0x9f
 17995 0ca4 6C010000 		.4byte	.LVL203
 17996 0ca8 7A010000 		.4byte	.LVL207
 17997 0cac 0100     		.2byte	0x1
 17998 0cae 50       		.byte	0x50
ARM GAS  C:\Users\jo\AppData\Local\Temp\ccpKXchH.s 			page 324


 17999 0caf 7A010000 		.4byte	.LVL207
 18000 0cb3 98010000 		.4byte	.LFE273
 18001 0cb7 0200     		.2byte	0x2
 18002 0cb9 30       		.byte	0x30
 18003 0cba 9F       		.byte	0x9f
 18004 0cbb 00000000 		.4byte	0
 18005 0cbf 00000000 		.4byte	0
 18006              	.LLST43:
 18007 0cc3 48000000 		.4byte	.LVL184
 18008 0cc7 56000000 		.4byte	.LVL185
 18009 0ccb 0200     		.2byte	0x2
 18010 0ccd 30       		.byte	0x30
 18011 0cce 9F       		.byte	0x9f
 18012 0ccf 56000000 		.4byte	.LVL185
 18013 0cd3 6C000000 		.4byte	.LVL186
 18014 0cd7 0100     		.2byte	0x1
 18015 0cd9 5E       		.byte	0x5e
 18016 0cda 2C010000 		.4byte	.LVL196
 18017 0cde 38010000 		.4byte	.LVL197
 18018 0ce2 0100     		.2byte	0x1
 18019 0ce4 5E       		.byte	0x5e
 18020 0ce5 62010000 		.4byte	.LVL202
 18021 0ce9 70010000 		.4byte	.LVL204
 18022 0ced 0200     		.2byte	0x2
 18023 0cef 30       		.byte	0x30
 18024 0cf0 9F       		.byte	0x9f
 18025 0cf1 70010000 		.4byte	.LVL204
 18026 0cf5 7A010000 		.4byte	.LVL207
 18027 0cf9 0100     		.2byte	0x1
 18028 0cfb 5E       		.byte	0x5e
 18029 0cfc 7A010000 		.4byte	.LVL207
 18030 0d00 98010000 		.4byte	.LFE273
 18031 0d04 0200     		.2byte	0x2
 18032 0d06 30       		.byte	0x30
 18033 0d07 9F       		.byte	0x9f
 18034 0d08 00000000 		.4byte	0
 18035 0d0c 00000000 		.4byte	0
 18036              	.LLST44:
 18037 0d10 48000000 		.4byte	.LVL184
 18038 0d14 56000000 		.4byte	.LVL185
 18039 0d18 0200     		.2byte	0x2
 18040 0d1a 30       		.byte	0x30
 18041 0d1b 9F       		.byte	0x9f
 18042 0d1c 56000000 		.4byte	.LVL185
 18043 0d20 91000000 		.4byte	.LVL188-1
 18044 0d24 0100     		.2byte	0x1
 18045 0d26 5C       		.byte	0x5c
 18046 0d27 2C010000 		.4byte	.LVL196
 18047 0d2b 38010000 		.4byte	.LVL197
 18048 0d2f 0100     		.2byte	0x1
 18049 0d31 5C       		.byte	0x5c
 18050 0d32 62010000 		.4byte	.LVL202
 18051 0d36 74010000 		.4byte	.LVL205
 18052 0d3a 0200     		.2byte	0x2
 18053 0d3c 30       		.byte	0x30
 18054 0d3d 9F       		.byte	0x9f
 18055 0d3e 74010000 		.4byte	.LVL205
ARM GAS  C:\Users\jo\AppData\Local\Temp\ccpKXchH.s 			page 325


 18056 0d42 7A010000 		.4byte	.LVL207
 18057 0d46 0100     		.2byte	0x1
 18058 0d48 5C       		.byte	0x5c
 18059 0d49 7A010000 		.4byte	.LVL207
 18060 0d4d 98010000 		.4byte	.LFE273
 18061 0d51 0200     		.2byte	0x2
 18062 0d53 30       		.byte	0x30
 18063 0d54 9F       		.byte	0x9f
 18064 0d55 00000000 		.4byte	0
 18065 0d59 00000000 		.4byte	0
 18066              	.LLST45:
 18067 0d5d 48000000 		.4byte	.LVL184
 18068 0d61 56000000 		.4byte	.LVL185
 18069 0d65 0200     		.2byte	0x2
 18070 0d67 30       		.byte	0x30
 18071 0d68 9F       		.byte	0x9f
 18072 0d69 56000000 		.4byte	.LVL185
 18073 0d6d CE000000 		.4byte	.LVL190
 18074 0d71 0100     		.2byte	0x1
 18075 0d73 55       		.byte	0x55
 18076 0d74 04010000 		.4byte	.LVL193
 18077 0d78 40010000 		.4byte	.LVL198
 18078 0d7c 0100     		.2byte	0x1
 18079 0d7e 55       		.byte	0x55
 18080 0d7f 62010000 		.4byte	.LVL202
 18081 0d83 78010000 		.4byte	.LVL206
 18082 0d87 0200     		.2byte	0x2
 18083 0d89 30       		.byte	0x30
 18084 0d8a 9F       		.byte	0x9f
 18085 0d8b 78010000 		.4byte	.LVL206
 18086 0d8f 7A010000 		.4byte	.LVL207
 18087 0d93 0100     		.2byte	0x1
 18088 0d95 55       		.byte	0x55
 18089 0d96 7A010000 		.4byte	.LVL207
 18090 0d9a 98010000 		.4byte	.LFE273
 18091 0d9e 0200     		.2byte	0x2
 18092 0da0 30       		.byte	0x30
 18093 0da1 9F       		.byte	0x9f
 18094 0da2 00000000 		.4byte	0
 18095 0da6 00000000 		.4byte	0
 18096              	.LLST46:
 18097 0daa 48000000 		.4byte	.LVL184
 18098 0dae D0000000 		.4byte	.LVL191
 18099 0db2 0100     		.2byte	0x1
 18100 0db4 54       		.byte	0x54
 18101 0db5 D0000000 		.4byte	.LVL191
 18102 0db9 D8000000 		.4byte	.LVL192
 18103 0dbd 0300     		.2byte	0x3
 18104 0dbf 74       		.byte	0x74
 18105 0dc0 7F       		.sleb128 -1
 18106 0dc1 9F       		.byte	0x9f
 18107 0dc2 04010000 		.4byte	.LVL193
 18108 0dc6 5C010000 		.4byte	.LVL201
 18109 0dca 0100     		.2byte	0x1
 18110 0dcc 54       		.byte	0x54
 18111 0dcd 62010000 		.4byte	.LVL202
 18112 0dd1 98010000 		.4byte	.LFE273
ARM GAS  C:\Users\jo\AppData\Local\Temp\ccpKXchH.s 			page 326


 18113 0dd5 0100     		.2byte	0x1
 18114 0dd7 54       		.byte	0x54
 18115 0dd8 00000000 		.4byte	0
 18116 0ddc 00000000 		.4byte	0
 18117              	.LLST47:
 18118 0de0 00000000 		.4byte	.LVL208
 18119 0de4 16000000 		.4byte	.LVL210
 18120 0de8 0100     		.2byte	0x1
 18121 0dea 50       		.byte	0x50
 18122 0deb 16000000 		.4byte	.LVL210
 18123 0def 18000000 		.4byte	.LVL211
 18124 0df3 0400     		.2byte	0x4
 18125 0df5 F3       		.byte	0xf3
 18126 0df6 01       		.uleb128 0x1
 18127 0df7 50       		.byte	0x50
 18128 0df8 9F       		.byte	0x9f
 18129 0df9 18000000 		.4byte	.LVL211
 18130 0dfd 1E000000 		.4byte	.LVL212
 18131 0e01 0100     		.2byte	0x1
 18132 0e03 50       		.byte	0x50
 18133 0e04 1E000000 		.4byte	.LVL212
 18134 0e08 21000000 		.4byte	.LVL213-1
 18135 0e0c 0100     		.2byte	0x1
 18136 0e0e 52       		.byte	0x52
 18137 0e0f 21000000 		.4byte	.LVL213-1
 18138 0e13 26000000 		.4byte	.LVL214
 18139 0e17 0400     		.2byte	0x4
 18140 0e19 F3       		.byte	0xf3
 18141 0e1a 01       		.uleb128 0x1
 18142 0e1b 50       		.byte	0x50
 18143 0e1c 9F       		.byte	0x9f
 18144 0e1d 26000000 		.4byte	.LVL214
 18145 0e21 2C000000 		.4byte	.LVL215
 18146 0e25 0100     		.2byte	0x1
 18147 0e27 50       		.byte	0x50
 18148 0e28 2C000000 		.4byte	.LVL215
 18149 0e2c 2F000000 		.4byte	.LVL216-1
 18150 0e30 0100     		.2byte	0x1
 18151 0e32 52       		.byte	0x52
 18152 0e33 2F000000 		.4byte	.LVL216-1
 18153 0e37 44000000 		.4byte	.LFE257
 18154 0e3b 0400     		.2byte	0x4
 18155 0e3d F3       		.byte	0xf3
 18156 0e3e 01       		.uleb128 0x1
 18157 0e3f 50       		.byte	0x50
 18158 0e40 9F       		.byte	0x9f
 18159 0e41 00000000 		.4byte	0
 18160 0e45 00000000 		.4byte	0
 18161              	.LLST48:
 18162 0e49 12000000 		.4byte	.LVL209
 18163 0e4d 18000000 		.4byte	.LVL211
 18164 0e51 0100     		.2byte	0x1
 18165 0e53 53       		.byte	0x53
 18166 0e54 26000000 		.4byte	.LVL214
 18167 0e58 2F000000 		.4byte	.LVL216-1
 18168 0e5c 0100     		.2byte	0x1
 18169 0e5e 53       		.byte	0x53
ARM GAS  C:\Users\jo\AppData\Local\Temp\ccpKXchH.s 			page 327


 18170 0e5f 2F000000 		.4byte	.LVL216-1
 18171 0e63 44000000 		.4byte	.LFE257
 18172 0e67 1200     		.2byte	0x12
 18173 0e69 F3       		.byte	0xf3
 18174 0e6a 01       		.uleb128 0x1
 18175 0e6b 50       		.byte	0x50
 18176 0e6c 31       		.byte	0x31
 18177 0e6d 24       		.byte	0x24
 18178 0e6e F3       		.byte	0xf3
 18179 0e6f 01       		.uleb128 0x1
 18180 0e70 50       		.byte	0x50
 18181 0e71 22       		.byte	0x22
 18182 0e72 33       		.byte	0x33
 18183 0e73 24       		.byte	0x24
 18184 0e74 03       		.byte	0x3
 18185 0e75 00000000 		.4byte	.LANCHOR0
 18186 0e79 22       		.byte	0x22
 18187 0e7a 9F       		.byte	0x9f
 18188 0e7b 00000000 		.4byte	0
 18189 0e7f 00000000 		.4byte	0
 18190              	.LLST49:
 18191 0e83 26000000 		.4byte	.LVL214
 18192 0e87 2C000000 		.4byte	.LVL215
 18193 0e8b 0100     		.2byte	0x1
 18194 0e8d 50       		.byte	0x50
 18195 0e8e 2C000000 		.4byte	.LVL215
 18196 0e92 2F000000 		.4byte	.LVL216-1
 18197 0e96 0100     		.2byte	0x1
 18198 0e98 52       		.byte	0x52
 18199 0e99 2F000000 		.4byte	.LVL216-1
 18200 0e9d 44000000 		.4byte	.LFE257
 18201 0ea1 0400     		.2byte	0x4
 18202 0ea3 F3       		.byte	0xf3
 18203 0ea4 01       		.uleb128 0x1
 18204 0ea5 50       		.byte	0x50
 18205 0ea6 9F       		.byte	0x9f
 18206 0ea7 00000000 		.4byte	0
 18207 0eab 00000000 		.4byte	0
 18208              	.LLST50:
 18209 0eaf 00000000 		.4byte	.LVL217
 18210 0eb3 12000000 		.4byte	.LVL219
 18211 0eb7 0100     		.2byte	0x1
 18212 0eb9 50       		.byte	0x50
 18213 0eba 12000000 		.4byte	.LVL219
 18214 0ebe 29000000 		.4byte	.LVL221
 18215 0ec2 0400     		.2byte	0x4
 18216 0ec4 F3       		.byte	0xf3
 18217 0ec5 01       		.uleb128 0x1
 18218 0ec6 50       		.byte	0x50
 18219 0ec7 9F       		.byte	0x9f
 18220 0ec8 29000000 		.4byte	.LVL221
 18221 0ecc 30000000 		.4byte	.LVL223
 18222 0ed0 0100     		.2byte	0x1
 18223 0ed2 50       		.byte	0x50
 18224 0ed3 30000000 		.4byte	.LVL223
 18225 0ed7 F2000000 		.4byte	.LVL238
 18226 0edb 0400     		.2byte	0x4
ARM GAS  C:\Users\jo\AppData\Local\Temp\ccpKXchH.s 			page 328


 18227 0edd F3       		.byte	0xf3
 18228 0ede 01       		.uleb128 0x1
 18229 0edf 50       		.byte	0x50
 18230 0ee0 9F       		.byte	0x9f
 18231 0ee1 F2000000 		.4byte	.LVL238
 18232 0ee5 0C010000 		.4byte	.LFE275
 18233 0ee9 0100     		.2byte	0x1
 18234 0eeb 50       		.byte	0x50
 18235 0eec 00000000 		.4byte	0
 18236 0ef0 00000000 		.4byte	0
 18237              	.LLST51:
 18238 0ef4 00000000 		.4byte	.LVL217
 18239 0ef8 17000000 		.4byte	.LVL220-1
 18240 0efc 0100     		.2byte	0x1
 18241 0efe 51       		.byte	0x51
 18242 0eff 17000000 		.4byte	.LVL220-1
 18243 0f03 29000000 		.4byte	.LVL221
 18244 0f07 0400     		.2byte	0x4
 18245 0f09 F3       		.byte	0xf3
 18246 0f0a 01       		.uleb128 0x1
 18247 0f0b 51       		.byte	0x51
 18248 0f0c 9F       		.byte	0x9f
 18249 0f0d 29000000 		.4byte	.LVL221
 18250 0f11 30000000 		.4byte	.LVL223
 18251 0f15 0100     		.2byte	0x1
 18252 0f17 51       		.byte	0x51
 18253 0f18 30000000 		.4byte	.LVL223
 18254 0f1c F2000000 		.4byte	.LVL238
 18255 0f20 0400     		.2byte	0x4
 18256 0f22 F3       		.byte	0xf3
 18257 0f23 01       		.uleb128 0x1
 18258 0f24 51       		.byte	0x51
 18259 0f25 9F       		.byte	0x9f
 18260 0f26 F2000000 		.4byte	.LVL238
 18261 0f2a 0C010000 		.4byte	.LFE275
 18262 0f2e 0100     		.2byte	0x1
 18263 0f30 51       		.byte	0x51
 18264 0f31 00000000 		.4byte	0
 18265 0f35 00000000 		.4byte	0
 18266              	.LLST52:
 18267 0f39 00000000 		.4byte	.LVL217
 18268 0f3d 17000000 		.4byte	.LVL220-1
 18269 0f41 0100     		.2byte	0x1
 18270 0f43 52       		.byte	0x52
 18271 0f44 17000000 		.4byte	.LVL220-1
 18272 0f48 29000000 		.4byte	.LVL221
 18273 0f4c 0400     		.2byte	0x4
 18274 0f4e F3       		.byte	0xf3
 18275 0f4f 01       		.uleb128 0x1
 18276 0f50 52       		.byte	0x52
 18277 0f51 9F       		.byte	0x9f
 18278 0f52 29000000 		.4byte	.LVL221
 18279 0f56 30000000 		.4byte	.LVL223
 18280 0f5a 0100     		.2byte	0x1
 18281 0f5c 52       		.byte	0x52
 18282 0f5d 30000000 		.4byte	.LVL223
 18283 0f61 F2000000 		.4byte	.LVL238
ARM GAS  C:\Users\jo\AppData\Local\Temp\ccpKXchH.s 			page 329


 18284 0f65 0400     		.2byte	0x4
 18285 0f67 F3       		.byte	0xf3
 18286 0f68 01       		.uleb128 0x1
 18287 0f69 52       		.byte	0x52
 18288 0f6a 9F       		.byte	0x9f
 18289 0f6b F2000000 		.4byte	.LVL238
 18290 0f6f 0C010000 		.4byte	.LFE275
 18291 0f73 0100     		.2byte	0x1
 18292 0f75 52       		.byte	0x52
 18293 0f76 00000000 		.4byte	0
 18294 0f7a 00000000 		.4byte	0
 18295              	.LLST53:
 18296 0f7e 0A000000 		.4byte	.LVL218
 18297 0f82 2E000000 		.4byte	.LVL222
 18298 0f86 0100     		.2byte	0x1
 18299 0f88 57       		.byte	0x57
 18300 0f89 2E000000 		.4byte	.LVL222
 18301 0f8d 30000000 		.4byte	.LVL223
 18302 0f91 0200     		.2byte	0x2
 18303 0f93 70       		.byte	0x70
 18304 0f94 18       		.sleb128 24
 18305 0f95 36000000 		.4byte	.LVL224
 18306 0f99 58000000 		.4byte	.LVL226
 18307 0f9d 0100     		.2byte	0x1
 18308 0f9f 57       		.byte	0x57
 18309 0fa0 BE000000 		.4byte	.LVL234
 18310 0fa4 F2000000 		.4byte	.LVL238
 18311 0fa8 0100     		.2byte	0x1
 18312 0faa 57       		.byte	0x57
 18313 0fab 00000000 		.4byte	0
 18314 0faf 00000000 		.4byte	0
 18315              	.LLST54:
 18316 0fb3 18000000 		.4byte	.LVL220
 18317 0fb7 29000000 		.4byte	.LVL221
 18318 0fbb 0100     		.2byte	0x1
 18319 0fbd 50       		.byte	0x50
 18320 0fbe 36000000 		.4byte	.LVL224
 18321 0fc2 3C000000 		.4byte	.LVL225
 18322 0fc6 0100     		.2byte	0x1
 18323 0fc8 50       		.byte	0x50
 18324 0fc9 3C000000 		.4byte	.LVL225
 18325 0fcd BE000000 		.4byte	.LVL234
 18326 0fd1 0100     		.2byte	0x1
 18327 0fd3 56       		.byte	0x56
 18328 0fd4 BE000000 		.4byte	.LVL234
 18329 0fd8 E2000000 		.4byte	.LVL235
 18330 0fdc 0100     		.2byte	0x1
 18331 0fde 50       		.byte	0x50
 18332 0fdf E2000000 		.4byte	.LVL235
 18333 0fe3 F2000000 		.4byte	.LVL238
 18334 0fe7 0100     		.2byte	0x1
 18335 0fe9 56       		.byte	0x56
 18336 0fea 00000000 		.4byte	0
 18337 0fee 00000000 		.4byte	0
 18338              	.LLST55:
 18339 0ff2 5C000000 		.4byte	.LVL227
 18340 0ff6 BE000000 		.4byte	.LVL234
ARM GAS  C:\Users\jo\AppData\Local\Temp\ccpKXchH.s 			page 330


 18341 0ffa 0100     		.2byte	0x1
 18342 0ffc 54       		.byte	0x54
 18343 0ffd 00000000 		.4byte	0
 18344 1001 00000000 		.4byte	0
 18345              	.LLST56:
 18346 1005 6C000000 		.4byte	.LVL230
 18347 1009 78000000 		.4byte	.LVL232
 18348 100d 0100     		.2byte	0x1
 18349 100f 52       		.byte	0x52
 18350 1010 00000000 		.4byte	0
 18351 1014 00000000 		.4byte	0
 18352              	.LLST57:
 18353 1018 7E000000 		.4byte	.LVL233
 18354 101c BE000000 		.4byte	.LVL234
 18355 1020 0200     		.2byte	0x2
 18356 1022 30       		.byte	0x30
 18357 1023 9F       		.byte	0x9f
 18358 1024 00000000 		.4byte	0
 18359 1028 00000000 		.4byte	0
 18360              	.LLST58:
 18361 102c EA000000 		.4byte	.LVL236
 18362 1030 F2000000 		.4byte	.LVL238
 18363 1034 0600     		.2byte	0x6
 18364 1036 03       		.byte	0x3
 18365 1037 04040000 		.4byte	.LC25
 18366 103b 9F       		.byte	0x9f
 18367 103c 00000000 		.4byte	0
 18368 1040 00000000 		.4byte	0
 18369              	.LLST59:
 18370 1044 00000000 		.4byte	.LVL239
 18371 1048 11000000 		.4byte	.LVL240-1
 18372 104c 0100     		.2byte	0x1
 18373 104e 50       		.byte	0x50
 18374 104f 11000000 		.4byte	.LVL240-1
 18375 1053 B0000000 		.4byte	.LFE277
 18376 1057 0100     		.2byte	0x1
 18377 1059 58       		.byte	0x58
 18378 105a 00000000 		.4byte	0
 18379 105e 00000000 		.4byte	0
 18380              	.LLST60:
 18381 1062 00000000 		.4byte	.LVL239
 18382 1066 11000000 		.4byte	.LVL240-1
 18383 106a 0100     		.2byte	0x1
 18384 106c 51       		.byte	0x51
 18385 106d 11000000 		.4byte	.LVL240-1
 18386 1071 B0000000 		.4byte	.LFE277
 18387 1075 0100     		.2byte	0x1
 18388 1077 57       		.byte	0x57
 18389 1078 00000000 		.4byte	0
 18390 107c 00000000 		.4byte	0
 18391              	.LLST61:
 18392 1080 00000000 		.4byte	.LVL239
 18393 1084 11000000 		.4byte	.LVL240-1
 18394 1088 0100     		.2byte	0x1
 18395 108a 52       		.byte	0x52
 18396 108b 11000000 		.4byte	.LVL240-1
 18397 108f B0000000 		.4byte	.LFE277
ARM GAS  C:\Users\jo\AppData\Local\Temp\ccpKXchH.s 			page 331


 18398 1093 0100     		.2byte	0x1
 18399 1095 56       		.byte	0x56
 18400 1096 00000000 		.4byte	0
 18401 109a 00000000 		.4byte	0
 18402              	.LLST62:
 18403 109e 00000000 		.4byte	.LVL239
 18404 10a2 11000000 		.4byte	.LVL240-1
 18405 10a6 0100     		.2byte	0x1
 18406 10a8 53       		.byte	0x53
 18407 10a9 11000000 		.4byte	.LVL240-1
 18408 10ad B0000000 		.4byte	.LFE277
 18409 10b1 0400     		.2byte	0x4
 18410 10b3 F3       		.byte	0xf3
 18411 10b4 01       		.uleb128 0x1
 18412 10b5 53       		.byte	0x53
 18413 10b6 9F       		.byte	0x9f
 18414 10b7 00000000 		.4byte	0
 18415 10bb 00000000 		.4byte	0
 18416              	.LLST63:
 18417 10bf 12000000 		.4byte	.LVL240
 18418 10c3 38000000 		.4byte	.LVL241
 18419 10c7 0100     		.2byte	0x1
 18420 10c9 50       		.byte	0x50
 18421 10ca 38000000 		.4byte	.LVL241
 18422 10ce 9A000000 		.4byte	.LVL248
 18423 10d2 0100     		.2byte	0x1
 18424 10d4 54       		.byte	0x54
 18425 10d5 9A000000 		.4byte	.LVL248
 18426 10d9 9E000000 		.4byte	.LVL249
 18427 10dd 0100     		.2byte	0x1
 18428 10df 50       		.byte	0x50
 18429 10e0 9E000000 		.4byte	.LVL249
 18430 10e4 B0000000 		.4byte	.LFE277
 18431 10e8 0100     		.2byte	0x1
 18432 10ea 54       		.byte	0x54
 18433 10eb 00000000 		.4byte	0
 18434 10ef 00000000 		.4byte	0
 18435              	.LLST64:
 18436 10f3 00000000 		.4byte	.LVL250
 18437 10f7 10000000 		.4byte	.LVL252
 18438 10fb 0100     		.2byte	0x1
 18439 10fd 50       		.byte	0x50
 18440 10fe 10000000 		.4byte	.LVL252
 18441 1102 18010000 		.4byte	.LVL272
 18442 1106 0100     		.2byte	0x1
 18443 1108 57       		.byte	0x57
 18444 1109 18010000 		.4byte	.LVL272
 18445 110d 27010000 		.4byte	.LVL273-1
 18446 1111 0100     		.2byte	0x1
 18447 1113 52       		.byte	0x52
 18448 1114 27010000 		.4byte	.LVL273-1
 18449 1118 5C010000 		.4byte	.LVL277
 18450 111c 0400     		.2byte	0x4
 18451 111e F3       		.byte	0xf3
 18452 111f 01       		.uleb128 0x1
 18453 1120 50       		.byte	0x50
 18454 1121 9F       		.byte	0x9f
ARM GAS  C:\Users\jo\AppData\Local\Temp\ccpKXchH.s 			page 332


 18455 1122 5C010000 		.4byte	.LVL277
 18456 1126 4C020000 		.4byte	.LFE261
 18457 112a 0100     		.2byte	0x1
 18458 112c 57       		.byte	0x57
 18459 112d 00000000 		.4byte	0
 18460 1131 00000000 		.4byte	0
 18461              	.LLST65:
 18462 1135 00000000 		.4byte	.LVL250
 18463 1139 0E000000 		.4byte	.LVL251
 18464 113d 0100     		.2byte	0x1
 18465 113f 51       		.byte	0x51
 18466 1140 0E000000 		.4byte	.LVL251
 18467 1144 08010000 		.4byte	.LVL271
 18468 1148 0100     		.2byte	0x1
 18469 114a 56       		.byte	0x56
 18470 114b 08010000 		.4byte	.LVL271
 18471 114f 5C010000 		.4byte	.LVL277
 18472 1153 0400     		.2byte	0x4
 18473 1155 F3       		.byte	0xf3
 18474 1156 01       		.uleb128 0x1
 18475 1157 51       		.byte	0x51
 18476 1158 9F       		.byte	0x9f
 18477 1159 5C010000 		.4byte	.LVL277
 18478 115d 4C020000 		.4byte	.LFE261
 18479 1161 0100     		.2byte	0x1
 18480 1163 56       		.byte	0x56
 18481 1164 00000000 		.4byte	0
 18482 1168 00000000 		.4byte	0
 18483              	.LLST66:
 18484 116c 00000000 		.4byte	.LVL250
 18485 1170 12000000 		.4byte	.LVL253
 18486 1174 0100     		.2byte	0x1
 18487 1176 52       		.byte	0x52
 18488 1177 12000000 		.4byte	.LVL253
 18489 117b B8000000 		.4byte	.LVL264
 18490 117f 0100     		.2byte	0x1
 18491 1181 54       		.byte	0x54
 18492 1182 B8000000 		.4byte	.LVL264
 18493 1186 5C010000 		.4byte	.LVL277
 18494 118a 0400     		.2byte	0x4
 18495 118c F3       		.byte	0xf3
 18496 118d 01       		.uleb128 0x1
 18497 118e 52       		.byte	0x52
 18498 118f 9F       		.byte	0x9f
 18499 1190 5C010000 		.4byte	.LVL277
 18500 1194 72010000 		.4byte	.LVL280
 18501 1198 0100     		.2byte	0x1
 18502 119a 54       		.byte	0x54
 18503 119b 72010000 		.4byte	.LVL280
 18504 119f 7C010000 		.4byte	.LVL281
 18505 11a3 0400     		.2byte	0x4
 18506 11a5 F3       		.byte	0xf3
 18507 11a6 01       		.uleb128 0x1
 18508 11a7 52       		.byte	0x52
 18509 11a8 9F       		.byte	0x9f
 18510 11a9 7C010000 		.4byte	.LVL281
 18511 11ad E4010000 		.4byte	.LVL294
ARM GAS  C:\Users\jo\AppData\Local\Temp\ccpKXchH.s 			page 333


 18512 11b1 0100     		.2byte	0x1
 18513 11b3 54       		.byte	0x54
 18514 11b4 E4010000 		.4byte	.LVL294
 18515 11b8 F2010000 		.4byte	.LVL297
 18516 11bc 0400     		.2byte	0x4
 18517 11be F3       		.byte	0xf3
 18518 11bf 01       		.uleb128 0x1
 18519 11c0 52       		.byte	0x52
 18520 11c1 9F       		.byte	0x9f
 18521 11c2 F2010000 		.4byte	.LVL297
 18522 11c6 4C020000 		.4byte	.LFE261
 18523 11ca 0100     		.2byte	0x1
 18524 11cc 54       		.byte	0x54
 18525 11cd 00000000 		.4byte	0
 18526 11d1 00000000 		.4byte	0
 18527              	.LLST67:
 18528 11d5 1C000000 		.4byte	.LVL255
 18529 11d9 26000000 		.4byte	.LVL256
 18530 11dd 0100     		.2byte	0x1
 18531 11df 50       		.byte	0x50
 18532 11e0 26000000 		.4byte	.LVL256
 18533 11e4 DE010000 		.4byte	.LVL292
 18534 11e8 0100     		.2byte	0x1
 18535 11ea 55       		.byte	0x55
 18536 11eb DE010000 		.4byte	.LVL292
 18537 11ef E2010000 		.4byte	.LVL293
 18538 11f3 0100     		.2byte	0x1
 18539 11f5 50       		.byte	0x50
 18540 11f6 E2010000 		.4byte	.LVL293
 18541 11fa 4C020000 		.4byte	.LFE261
 18542 11fe 0100     		.2byte	0x1
 18543 1200 55       		.byte	0x55
 18544 1201 00000000 		.4byte	0
 18545 1205 00000000 		.4byte	0
 18546              	.LLST68:
 18547 1209 02010000 		.4byte	.LVL270
 18548 120d 56010000 		.4byte	.LVL276
 18549 1211 0B00     		.2byte	0xb
 18550 1213 74       		.byte	0x74
 18551 1214 00       		.sleb128 0
 18552 1215 48       		.byte	0x48
 18553 1216 1E       		.byte	0x1e
 18554 1217 03       		.byte	0x3
 18555 1218 00000000 		.4byte	sockets
 18556 121c 22       		.byte	0x22
 18557 121d 9F       		.byte	0x9f
 18558 121e 00000000 		.4byte	0
 18559 1222 00000000 		.4byte	0
 18560              	.LLST69:
 18561 1226 B8000000 		.4byte	.LVL264
 18562 122a C6000000 		.4byte	.LVL265
 18563 122e 0100     		.2byte	0x1
 18564 1230 50       		.byte	0x50
 18565 1231 C6000000 		.4byte	.LVL265
 18566 1235 56010000 		.4byte	.LVL276
 18567 1239 0100     		.2byte	0x1
 18568 123b 54       		.byte	0x54
ARM GAS  C:\Users\jo\AppData\Local\Temp\ccpKXchH.s 			page 334


 18569 123c E4010000 		.4byte	.LVL294
 18570 1240 E6010000 		.4byte	.LVL295
 18571 1244 0100     		.2byte	0x1
 18572 1246 50       		.byte	0x50
 18573 1247 E6010000 		.4byte	.LVL295
 18574 124b F2010000 		.4byte	.LVL297
 18575 124f 0100     		.2byte	0x1
 18576 1251 54       		.byte	0x54
 18577 1252 00000000 		.4byte	0
 18578 1256 00000000 		.4byte	0
 18579              	.LLST70:
 18580 125a 3C000000 		.4byte	.LVL257
 18581 125e 46000000 		.4byte	.LVL258
 18582 1262 0100     		.2byte	0x1
 18583 1264 50       		.byte	0x50
 18584 1265 60000000 		.4byte	.LVL259
 18585 1269 70000000 		.4byte	.LVL260
 18586 126d 0100     		.2byte	0x1
 18587 126f 50       		.byte	0x50
 18588 1270 5C010000 		.4byte	.LVL277
 18589 1274 62010000 		.4byte	.LVL278
 18590 1278 0100     		.2byte	0x1
 18591 127a 50       		.byte	0x50
 18592 127b 98010000 		.4byte	.LVL284
 18593 127f A2010000 		.4byte	.LVL285
 18594 1283 0100     		.2byte	0x1
 18595 1285 50       		.byte	0x50
 18596 1286 B2010000 		.4byte	.LVL288
 18597 128a B6010000 		.4byte	.LVL289
 18598 128e 0100     		.2byte	0x1
 18599 1290 50       		.byte	0x50
 18600 1291 00000000 		.4byte	0
 18601 1295 00000000 		.4byte	0
 18602              	.LLST71:
 18603 1299 D2000000 		.4byte	.LVL266
 18604 129d D8000000 		.4byte	.LVL267
 18605 12a1 0600     		.2byte	0x6
 18606 12a3 03       		.byte	0x3
 18607 12a4 10050000 		.4byte	.LC35
 18608 12a8 9F       		.byte	0x9f
 18609 12a9 00000000 		.4byte	0
 18610 12ad 00000000 		.4byte	0
 18611              	.LLST72:
 18612 12b1 F8000000 		.4byte	.LVL268
 18613 12b5 02010000 		.4byte	.LVL270
 18614 12b9 0600     		.2byte	0x6
 18615 12bb 03       		.byte	0x3
 18616 12bc 28050000 		.4byte	.LC36
 18617 12c0 9F       		.byte	0x9f
 18618 12c1 00000000 		.4byte	0
 18619 12c5 00000000 		.4byte	0
 18620              	.LLST73:
 18621 12c9 8E010000 		.4byte	.LVL282
 18622 12cd 98010000 		.4byte	.LVL284
 18623 12d1 0600     		.2byte	0x6
 18624 12d3 03       		.byte	0x3
 18625 12d4 B4040000 		.4byte	.LC32
ARM GAS  C:\Users\jo\AppData\Local\Temp\ccpKXchH.s 			page 335


 18626 12d8 9F       		.byte	0x9f
 18627 12d9 00000000 		.4byte	0
 18628 12dd 00000000 		.4byte	0
 18629              	.LLST74:
 18630 12e1 AA010000 		.4byte	.LVL286
 18631 12e5 B2010000 		.4byte	.LVL288
 18632 12e9 0600     		.2byte	0x6
 18633 12eb 03       		.byte	0x3
 18634 12ec F4040000 		.4byte	.LC34
 18635 12f0 9F       		.byte	0x9f
 18636 12f1 00000000 		.4byte	0
 18637 12f5 00000000 		.4byte	0
 18638              	.LLST75:
 18639 12f9 00000000 		.4byte	.LVL299
 18640 12fd 0D000000 		.4byte	.LVL300-1
 18641 1301 0100     		.2byte	0x1
 18642 1303 50       		.byte	0x50
 18643 1304 0D000000 		.4byte	.LVL300-1
 18644 1308 AA000000 		.4byte	.LVL318
 18645 130c 0100     		.2byte	0x1
 18646 130e 56       		.byte	0x56
 18647 130f AA000000 		.4byte	.LVL318
 18648 1313 B3000000 		.4byte	.LVL319-1
 18649 1317 0100     		.2byte	0x1
 18650 1319 52       		.byte	0x52
 18651 131a B3000000 		.4byte	.LVL319-1
 18652 131e F8000000 		.4byte	.LFE262
 18653 1322 0100     		.2byte	0x1
 18654 1324 56       		.byte	0x56
 18655 1325 00000000 		.4byte	0
 18656 1329 00000000 		.4byte	0
 18657              	.LLST76:
 18658 132d 00000000 		.4byte	.LVL299
 18659 1331 0D000000 		.4byte	.LVL300-1
 18660 1335 0100     		.2byte	0x1
 18661 1337 51       		.byte	0x51
 18662 1338 0D000000 		.4byte	.LVL300-1
 18663 133c 2A000000 		.4byte	.LVL303
 18664 1340 0100     		.2byte	0x1
 18665 1342 54       		.byte	0x54
 18666 1343 2A000000 		.4byte	.LVL303
 18667 1347 86000000 		.4byte	.LVL314
 18668 134b 0400     		.2byte	0x4
 18669 134d F3       		.byte	0xf3
 18670 134e 01       		.uleb128 0x1
 18671 134f 51       		.byte	0x51
 18672 1350 9F       		.byte	0x9f
 18673 1351 86000000 		.4byte	.LVL314
 18674 1355 AA000000 		.4byte	.LVL318
 18675 1359 0100     		.2byte	0x1
 18676 135b 54       		.byte	0x54
 18677 135c AA000000 		.4byte	.LVL318
 18678 1360 C8000000 		.4byte	.LVL320
 18679 1364 0400     		.2byte	0x4
 18680 1366 F3       		.byte	0xf3
 18681 1367 01       		.uleb128 0x1
 18682 1368 51       		.byte	0x51
ARM GAS  C:\Users\jo\AppData\Local\Temp\ccpKXchH.s 			page 336


 18683 1369 9F       		.byte	0x9f
 18684 136a C8000000 		.4byte	.LVL320
 18685 136e F8000000 		.4byte	.LFE262
 18686 1372 0100     		.2byte	0x1
 18687 1374 54       		.byte	0x54
 18688 1375 00000000 		.4byte	0
 18689 1379 00000000 		.4byte	0
 18690              	.LLST77:
 18691 137d 00000000 		.4byte	.LVL299
 18692 1381 0D000000 		.4byte	.LVL300-1
 18693 1385 0100     		.2byte	0x1
 18694 1387 52       		.byte	0x52
 18695 1388 0D000000 		.4byte	.LVL300-1
 18696 138c F8000000 		.4byte	.LFE262
 18697 1390 0100     		.2byte	0x1
 18698 1392 57       		.byte	0x57
 18699 1393 00000000 		.4byte	0
 18700 1397 00000000 		.4byte	0
 18701              	.LLST78:
 18702 139b 0E000000 		.4byte	.LVL300
 18703 139f 28000000 		.4byte	.LVL302
 18704 13a3 0100     		.2byte	0x1
 18705 13a5 50       		.byte	0x50
 18706 13a6 28000000 		.4byte	.LVL302
 18707 13aa 86000000 		.4byte	.LVL314
 18708 13ae 0100     		.2byte	0x1
 18709 13b0 55       		.byte	0x55
 18710 13b1 86000000 		.4byte	.LVL314
 18711 13b5 90000000 		.4byte	.LVL315
 18712 13b9 0100     		.2byte	0x1
 18713 13bb 50       		.byte	0x50
 18714 13bc 90000000 		.4byte	.LVL315
 18715 13c0 C8000000 		.4byte	.LVL320
 18716 13c4 0100     		.2byte	0x1
 18717 13c6 55       		.byte	0x55
 18718 13c7 C8000000 		.4byte	.LVL320
 18719 13cb CC000000 		.4byte	.LVL321
 18720 13cf 0100     		.2byte	0x1
 18721 13d1 50       		.byte	0x50
 18722 13d2 CC000000 		.4byte	.LVL321
 18723 13d6 F8000000 		.4byte	.LFE262
 18724 13da 0100     		.2byte	0x1
 18725 13dc 55       		.byte	0x55
 18726 13dd 00000000 		.4byte	0
 18727 13e1 00000000 		.4byte	0
 18728              	.LLST79:
 18729 13e5 2A000000 		.4byte	.LVL303
 18730 13e9 62000000 		.4byte	.LVL308
 18731 13ed 0100     		.2byte	0x1
 18732 13ef 54       		.byte	0x54
 18733 13f0 62000000 		.4byte	.LVL308
 18734 13f4 65000000 		.4byte	.LVL309-1
 18735 13f8 0100     		.2byte	0x1
 18736 13fa 50       		.byte	0x50
 18737 13fb 00000000 		.4byte	0
 18738 13ff 00000000 		.4byte	0
 18739              	.LLST80:
ARM GAS  C:\Users\jo\AppData\Local\Temp\ccpKXchH.s 			page 337


 18740 1403 70000000 		.4byte	.LVL310
 18741 1407 76000000 		.4byte	.LVL311
 18742 140b 0100     		.2byte	0x1
 18743 140d 50       		.byte	0x50
 18744 140e 00000000 		.4byte	0
 18745 1412 00000000 		.4byte	0
 18746              	.LLST81:
 18747 1416 22000000 		.4byte	.LVL301
 18748 141a 2A000000 		.4byte	.LVL303
 18749 141e 0100     		.2byte	0x1
 18750 1420 54       		.byte	0x54
 18751 1421 2A000000 		.4byte	.LVL303
 18752 1425 82000000 		.4byte	.LVL313
 18753 1429 0400     		.2byte	0x4
 18754 142b F3       		.byte	0xf3
 18755 142c 01       		.uleb128 0x1
 18756 142d 51       		.byte	0x51
 18757 142e 9F       		.byte	0x9f
 18758 142f AA000000 		.4byte	.LVL318
 18759 1433 C8000000 		.4byte	.LVL320
 18760 1437 0400     		.2byte	0x4
 18761 1439 F3       		.byte	0xf3
 18762 143a 01       		.uleb128 0x1
 18763 143b 51       		.byte	0x51
 18764 143c 9F       		.byte	0x9f
 18765 143d 00000000 		.4byte	0
 18766 1441 00000000 		.4byte	0
 18767              	.LLST82:
 18768 1445 98000000 		.4byte	.LVL316
 18769 1449 AA000000 		.4byte	.LVL318
 18770 144d 0600     		.2byte	0x6
 18771 144f 03       		.byte	0x3
 18772 1450 84050000 		.4byte	.LC39
 18773 1454 9F       		.byte	0x9f
 18774 1455 00000000 		.4byte	0
 18775 1459 00000000 		.4byte	0
 18776              	.LLST83:
 18777 145d 00000000 		.4byte	.LVL322
 18778 1461 0C000000 		.4byte	.LVL323
 18779 1465 0100     		.2byte	0x1
 18780 1467 50       		.byte	0x50
 18781 1468 0C000000 		.4byte	.LVL323
 18782 146c 0F000000 		.4byte	.LVL324-1
 18783 1470 0100     		.2byte	0x1
 18784 1472 52       		.byte	0x52
 18785 1473 0F000000 		.4byte	.LVL324-1
 18786 1477 18000000 		.4byte	.LVL326
 18787 147b 0100     		.2byte	0x1
 18788 147d 54       		.byte	0x54
 18789 147e 18000000 		.4byte	.LVL326
 18790 1482 A0000000 		.4byte	.LFE263
 18791 1486 0400     		.2byte	0x4
 18792 1488 F3       		.byte	0xf3
 18793 1489 01       		.uleb128 0x1
 18794 148a 50       		.byte	0x50
 18795 148b 9F       		.byte	0x9f
 18796 148c 00000000 		.4byte	0
ARM GAS  C:\Users\jo\AppData\Local\Temp\ccpKXchH.s 			page 338


 18797 1490 00000000 		.4byte	0
 18798              	.LLST84:
 18799 1494 16000000 		.4byte	.LVL325
 18800 1498 22000000 		.4byte	.LVL327
 18801 149c 0100     		.2byte	0x1
 18802 149e 50       		.byte	0x50
 18803 149f 22000000 		.4byte	.LVL327
 18804 14a3 4E000000 		.4byte	.LVL336
 18805 14a7 0100     		.2byte	0x1
 18806 14a9 54       		.byte	0x54
 18807 14aa 4E000000 		.4byte	.LVL336
 18808 14ae 5C000000 		.4byte	.LVL337
 18809 14b2 0100     		.2byte	0x1
 18810 14b4 50       		.byte	0x50
 18811 14b5 5C000000 		.4byte	.LVL337
 18812 14b9 84000000 		.4byte	.LVL343
 18813 14bd 0100     		.2byte	0x1
 18814 14bf 54       		.byte	0x54
 18815 14c0 84000000 		.4byte	.LVL343
 18816 14c4 88000000 		.4byte	.LVL344
 18817 14c8 0100     		.2byte	0x1
 18818 14ca 50       		.byte	0x50
 18819 14cb 88000000 		.4byte	.LVL344
 18820 14cf A0000000 		.4byte	.LFE263
 18821 14d3 0100     		.2byte	0x1
 18822 14d5 54       		.byte	0x54
 18823 14d6 00000000 		.4byte	0
 18824 14da 00000000 		.4byte	0
 18825              	.LLST85:
 18826 14de 00000000 		.4byte	.LVL322
 18827 14e2 24000000 		.4byte	.LVL328
 18828 14e6 0200     		.2byte	0x2
 18829 14e8 30       		.byte	0x30
 18830 14e9 9F       		.byte	0x9f
 18831 14ea 24000000 		.4byte	.LVL328
 18832 14ee 3A000000 		.4byte	.LVL331
 18833 14f2 0B00     		.2byte	0xb
 18834 14f4 76       		.byte	0x76
 18835 14f5 00       		.sleb128 0
 18836 14f6 08       		.byte	0x8
 18837 14f7 FF       		.byte	0xff
 18838 14f8 1A       		.byte	0x1a
 18839 14f9 40       		.byte	0x40
 18840 14fa 29       		.byte	0x29
 18841 14fb 08       		.byte	0x8
 18842 14fc FF       		.byte	0xff
 18843 14fd 1A       		.byte	0x1a
 18844 14fe 9F       		.byte	0x9f
 18845 14ff 44000000 		.4byte	.LVL334
 18846 1503 4E000000 		.4byte	.LVL336
 18847 1507 0B00     		.2byte	0xb
 18848 1509 76       		.byte	0x76
 18849 150a 00       		.sleb128 0
 18850 150b 08       		.byte	0x8
 18851 150c FF       		.byte	0xff
 18852 150d 1A       		.byte	0x1a
 18853 150e 40       		.byte	0x40
ARM GAS  C:\Users\jo\AppData\Local\Temp\ccpKXchH.s 			page 339


 18854 150f 29       		.byte	0x29
 18855 1510 08       		.byte	0x8
 18856 1511 FF       		.byte	0xff
 18857 1512 1A       		.byte	0x1a
 18858 1513 9F       		.byte	0x9f
 18859 1514 4E000000 		.4byte	.LVL336
 18860 1518 A0000000 		.4byte	.LFE263
 18861 151c 0200     		.2byte	0x2
 18862 151e 30       		.byte	0x30
 18863 151f 9F       		.byte	0x9f
 18864 1520 00000000 		.4byte	0
 18865 1524 00000000 		.4byte	0
 18866              	.LLST86:
 18867 1528 28000000 		.4byte	.LVL329
 18868 152c 3A000000 		.4byte	.LVL331
 18869 1530 0B00     		.2byte	0xb
 18870 1532 76       		.byte	0x76
 18871 1533 00       		.sleb128 0
 18872 1534 08       		.byte	0x8
 18873 1535 FF       		.byte	0xff
 18874 1536 1A       		.byte	0x1a
 18875 1537 40       		.byte	0x40
 18876 1538 29       		.byte	0x29
 18877 1539 08       		.byte	0x8
 18878 153a FF       		.byte	0xff
 18879 153b 1A       		.byte	0x1a
 18880 153c 9F       		.byte	0x9f
 18881 153d 44000000 		.4byte	.LVL334
 18882 1541 4E000000 		.4byte	.LVL336
 18883 1545 0B00     		.2byte	0xb
 18884 1547 76       		.byte	0x76
 18885 1548 00       		.sleb128 0
 18886 1549 08       		.byte	0x8
 18887 154a FF       		.byte	0xff
 18888 154b 1A       		.byte	0x1a
 18889 154c 40       		.byte	0x40
 18890 154d 29       		.byte	0x29
 18891 154e 08       		.byte	0x8
 18892 154f FF       		.byte	0xff
 18893 1550 1A       		.byte	0x1a
 18894 1551 9F       		.byte	0x9f
 18895 1552 72000000 		.4byte	.LVL341
 18896 1556 84000000 		.4byte	.LVL343
 18897 155a 0200     		.2byte	0x2
 18898 155c 30       		.byte	0x30
 18899 155d 9F       		.byte	0x9f
 18900 155e 00000000 		.4byte	0
 18901 1562 00000000 		.4byte	0
 18902              	.LLST87:
 18903 1566 28000000 		.4byte	.LVL329
 18904 156a 40000000 		.4byte	.LVL333
 18905 156e 0100     		.2byte	0x1
 18906 1570 54       		.byte	0x54
 18907 1571 44000000 		.4byte	.LVL334
 18908 1575 4E000000 		.4byte	.LVL336
 18909 1579 0100     		.2byte	0x1
 18910 157b 54       		.byte	0x54
ARM GAS  C:\Users\jo\AppData\Local\Temp\ccpKXchH.s 			page 340


 18911 157c 72000000 		.4byte	.LVL341
 18912 1580 84000000 		.4byte	.LVL343
 18913 1584 0100     		.2byte	0x1
 18914 1586 54       		.byte	0x54
 18915 1587 00000000 		.4byte	0
 18916 158b 00000000 		.4byte	0
 18917              	.LLST88:
 18918 158f 2A000000 		.4byte	.LVL330
 18919 1593 3D000000 		.4byte	.LVL332-1
 18920 1597 0100     		.2byte	0x1
 18921 1599 50       		.byte	0x50
 18922 159a 44000000 		.4byte	.LVL334
 18923 159e 47000000 		.4byte	.LVL335-1
 18924 15a2 0100     		.2byte	0x1
 18925 15a4 50       		.byte	0x50
 18926 15a5 74000000 		.4byte	.LVL342
 18927 15a9 84000000 		.4byte	.LVL343
 18928 15ad 0100     		.2byte	0x1
 18929 15af 50       		.byte	0x50
 18930 15b0 00000000 		.4byte	0
 18931 15b4 00000000 		.4byte	0
 18932              	.LLST89:
 18933 15b8 64000000 		.4byte	.LVL338
 18934 15bc 6C000000 		.4byte	.LVL340
 18935 15c0 0600     		.2byte	0x6
 18936 15c2 03       		.byte	0x3
 18937 15c3 00060000 		.4byte	.LC44
 18938 15c7 9F       		.byte	0x9f
 18939 15c8 00000000 		.4byte	0
 18940 15cc 00000000 		.4byte	0
 18941              	.LLST90:
 18942 15d0 00000000 		.4byte	.LVL345
 18943 15d4 0D000000 		.4byte	.LVL346-1
 18944 15d8 0100     		.2byte	0x1
 18945 15da 50       		.byte	0x50
 18946 15db 0D000000 		.4byte	.LVL346-1
 18947 15df AA000000 		.4byte	.LVL364
 18948 15e3 0100     		.2byte	0x1
 18949 15e5 56       		.byte	0x56
 18950 15e6 AA000000 		.4byte	.LVL364
 18951 15ea B3000000 		.4byte	.LVL365-1
 18952 15ee 0100     		.2byte	0x1
 18953 15f0 52       		.byte	0x52
 18954 15f1 B3000000 		.4byte	.LVL365-1
 18955 15f5 F8000000 		.4byte	.LFE264
 18956 15f9 0100     		.2byte	0x1
 18957 15fb 56       		.byte	0x56
 18958 15fc 00000000 		.4byte	0
 18959 1600 00000000 		.4byte	0
 18960              	.LLST91:
 18961 1604 00000000 		.4byte	.LVL345
 18962 1608 0D000000 		.4byte	.LVL346-1
 18963 160c 0100     		.2byte	0x1
 18964 160e 51       		.byte	0x51
 18965 160f 0D000000 		.4byte	.LVL346-1
 18966 1613 2A000000 		.4byte	.LVL349
 18967 1617 0100     		.2byte	0x1
ARM GAS  C:\Users\jo\AppData\Local\Temp\ccpKXchH.s 			page 341


 18968 1619 54       		.byte	0x54
 18969 161a 2A000000 		.4byte	.LVL349
 18970 161e 86000000 		.4byte	.LVL360
 18971 1622 0400     		.2byte	0x4
 18972 1624 F3       		.byte	0xf3
 18973 1625 01       		.uleb128 0x1
 18974 1626 51       		.byte	0x51
 18975 1627 9F       		.byte	0x9f
 18976 1628 86000000 		.4byte	.LVL360
 18977 162c AA000000 		.4byte	.LVL364
 18978 1630 0100     		.2byte	0x1
 18979 1632 54       		.byte	0x54
 18980 1633 AA000000 		.4byte	.LVL364
 18981 1637 C8000000 		.4byte	.LVL366
 18982 163b 0400     		.2byte	0x4
 18983 163d F3       		.byte	0xf3
 18984 163e 01       		.uleb128 0x1
 18985 163f 51       		.byte	0x51
 18986 1640 9F       		.byte	0x9f
 18987 1641 C8000000 		.4byte	.LVL366
 18988 1645 F8000000 		.4byte	.LFE264
 18989 1649 0100     		.2byte	0x1
 18990 164b 54       		.byte	0x54
 18991 164c 00000000 		.4byte	0
 18992 1650 00000000 		.4byte	0
 18993              	.LLST92:
 18994 1654 00000000 		.4byte	.LVL345
 18995 1658 0D000000 		.4byte	.LVL346-1
 18996 165c 0100     		.2byte	0x1
 18997 165e 52       		.byte	0x52
 18998 165f 0D000000 		.4byte	.LVL346-1
 18999 1663 F8000000 		.4byte	.LFE264
 19000 1667 0100     		.2byte	0x1
 19001 1669 57       		.byte	0x57
 19002 166a 00000000 		.4byte	0
 19003 166e 00000000 		.4byte	0
 19004              	.LLST93:
 19005 1672 0E000000 		.4byte	.LVL346
 19006 1676 28000000 		.4byte	.LVL348
 19007 167a 0100     		.2byte	0x1
 19008 167c 50       		.byte	0x50
 19009 167d 28000000 		.4byte	.LVL348
 19010 1681 86000000 		.4byte	.LVL360
 19011 1685 0100     		.2byte	0x1
 19012 1687 55       		.byte	0x55
 19013 1688 86000000 		.4byte	.LVL360
 19014 168c 90000000 		.4byte	.LVL361
 19015 1690 0100     		.2byte	0x1
 19016 1692 50       		.byte	0x50
 19017 1693 90000000 		.4byte	.LVL361
 19018 1697 C8000000 		.4byte	.LVL366
 19019 169b 0100     		.2byte	0x1
 19020 169d 55       		.byte	0x55
 19021 169e C8000000 		.4byte	.LVL366
 19022 16a2 CC000000 		.4byte	.LVL367
 19023 16a6 0100     		.2byte	0x1
 19024 16a8 50       		.byte	0x50
ARM GAS  C:\Users\jo\AppData\Local\Temp\ccpKXchH.s 			page 342


 19025 16a9 CC000000 		.4byte	.LVL367
 19026 16ad F8000000 		.4byte	.LFE264
 19027 16b1 0100     		.2byte	0x1
 19028 16b3 55       		.byte	0x55
 19029 16b4 00000000 		.4byte	0
 19030 16b8 00000000 		.4byte	0
 19031              	.LLST94:
 19032 16bc 70000000 		.4byte	.LVL356
 19033 16c0 76000000 		.4byte	.LVL357
 19034 16c4 0100     		.2byte	0x1
 19035 16c6 50       		.byte	0x50
 19036 16c7 00000000 		.4byte	0
 19037 16cb 00000000 		.4byte	0
 19038              	.LLST95:
 19039 16cf 22000000 		.4byte	.LVL347
 19040 16d3 2A000000 		.4byte	.LVL349
 19041 16d7 0100     		.2byte	0x1
 19042 16d9 54       		.byte	0x54
 19043 16da 2A000000 		.4byte	.LVL349
 19044 16de 82000000 		.4byte	.LVL359
 19045 16e2 0400     		.2byte	0x4
 19046 16e4 F3       		.byte	0xf3
 19047 16e5 01       		.uleb128 0x1
 19048 16e6 51       		.byte	0x51
 19049 16e7 9F       		.byte	0x9f
 19050 16e8 AA000000 		.4byte	.LVL364
 19051 16ec C8000000 		.4byte	.LVL366
 19052 16f0 0400     		.2byte	0x4
 19053 16f2 F3       		.byte	0xf3
 19054 16f3 01       		.uleb128 0x1
 19055 16f4 51       		.byte	0x51
 19056 16f5 9F       		.byte	0x9f
 19057 16f6 00000000 		.4byte	0
 19058 16fa 00000000 		.4byte	0
 19059              	.LLST96:
 19060 16fe 2A000000 		.4byte	.LVL349
 19061 1702 62000000 		.4byte	.LVL354
 19062 1706 0100     		.2byte	0x1
 19063 1708 54       		.byte	0x54
 19064 1709 62000000 		.4byte	.LVL354
 19065 170d 65000000 		.4byte	.LVL355-1
 19066 1711 0100     		.2byte	0x1
 19067 1713 50       		.byte	0x50
 19068 1714 00000000 		.4byte	0
 19069 1718 00000000 		.4byte	0
 19070              	.LLST97:
 19071 171c 98000000 		.4byte	.LVL362
 19072 1720 AA000000 		.4byte	.LVL364
 19073 1724 0600     		.2byte	0x6
 19074 1726 03       		.byte	0x3
 19075 1727 18060000 		.4byte	.LC45
 19076 172b 9F       		.byte	0x9f
 19077 172c 00000000 		.4byte	0
 19078 1730 00000000 		.4byte	0
 19079              	.LLST98:
 19080 1734 00000000 		.4byte	.LVL368
 19081 1738 0C000000 		.4byte	.LVL369
ARM GAS  C:\Users\jo\AppData\Local\Temp\ccpKXchH.s 			page 343


 19082 173c 0100     		.2byte	0x1
 19083 173e 50       		.byte	0x50
 19084 173f 0C000000 		.4byte	.LVL369
 19085 1743 11000000 		.4byte	.LVL371-1
 19086 1747 0100     		.2byte	0x1
 19087 1749 52       		.byte	0x52
 19088 174a 11000000 		.4byte	.LVL371-1
 19089 174e 6C000000 		.4byte	.LVL382
 19090 1752 0100     		.2byte	0x1
 19091 1754 56       		.byte	0x56
 19092 1755 6C000000 		.4byte	.LVL382
 19093 1759 7C000000 		.4byte	.LFE265
 19094 175d 0400     		.2byte	0x4
 19095 175f F3       		.byte	0xf3
 19096 1760 01       		.uleb128 0x1
 19097 1761 50       		.byte	0x50
 19098 1762 9F       		.byte	0x9f
 19099 1763 00000000 		.4byte	0
 19100 1767 00000000 		.4byte	0
 19101              	.LLST99:
 19102 176b 00000000 		.4byte	.LVL368
 19103 176f 0E000000 		.4byte	.LVL370
 19104 1773 0100     		.2byte	0x1
 19105 1775 51       		.byte	0x51
 19106 1776 0E000000 		.4byte	.LVL370
 19107 177a 11000000 		.4byte	.LVL371-1
 19108 177e 0100     		.2byte	0x1
 19109 1780 53       		.byte	0x53
 19110 1781 11000000 		.4byte	.LVL371-1
 19111 1785 1C000000 		.4byte	.LVL373
 19112 1789 0100     		.2byte	0x1
 19113 178b 54       		.byte	0x54
 19114 178c 50000000 		.4byte	.LVL379
 19115 1790 56000000 		.4byte	.LVL381
 19116 1794 0100     		.2byte	0x1
 19117 1796 54       		.byte	0x54
 19118 1797 00000000 		.4byte	0
 19119 179b 00000000 		.4byte	0
 19120              	.LLST100:
 19121 179f 18000000 		.4byte	.LVL372
 19122 17a3 2A000000 		.4byte	.LVL374
 19123 17a7 0100     		.2byte	0x1
 19124 17a9 50       		.byte	0x50
 19125 17aa 2A000000 		.4byte	.LVL374
 19126 17ae 50000000 		.4byte	.LVL379
 19127 17b2 0100     		.2byte	0x1
 19128 17b4 55       		.byte	0x55
 19129 17b5 50000000 		.4byte	.LVL379
 19130 17b9 54000000 		.4byte	.LVL380
 19131 17bd 0100     		.2byte	0x1
 19132 17bf 50       		.byte	0x50
 19133 17c0 54000000 		.4byte	.LVL380
 19134 17c4 6C000000 		.4byte	.LVL382
 19135 17c8 0100     		.2byte	0x1
 19136 17ca 55       		.byte	0x55
 19137 17cb 00000000 		.4byte	0
 19138 17cf 00000000 		.4byte	0
ARM GAS  C:\Users\jo\AppData\Local\Temp\ccpKXchH.s 			page 344


 19139              	.LLST101:
 19140 17d3 2E000000 		.4byte	.LVL375
 19141 17d7 3C000000 		.4byte	.LVL377
 19142 17db 0100     		.2byte	0x1
 19143 17dd 50       		.byte	0x50
 19144 17de 00000000 		.4byte	0
 19145 17e2 00000000 		.4byte	0
 19146              	.LLST102:
 19147 17e6 00000000 		.4byte	.LVL383
 19148 17ea 1C000000 		.4byte	.LVL387
 19149 17ee 0100     		.2byte	0x1
 19150 17f0 50       		.byte	0x50
 19151 17f1 1C000000 		.4byte	.LVL387
 19152 17f5 23000000 		.4byte	.LVL389-1
 19153 17f9 0100     		.2byte	0x1
 19154 17fb 52       		.byte	0x52
 19155 17fc 23000000 		.4byte	.LVL389-1
 19156 1800 2C000000 		.4byte	.LVL391
 19157 1804 0100     		.2byte	0x1
 19158 1806 54       		.byte	0x54
 19159 1807 2C000000 		.4byte	.LVL391
 19160 180b AC030000 		.4byte	.LFE266
 19161 180f 0300     		.2byte	0x3
 19162 1811 91       		.byte	0x91
 19163 1812 B47F     		.sleb128 -76
 19164 1814 00000000 		.4byte	0
 19165 1818 00000000 		.4byte	0
 19166              	.LLST103:
 19167 181c 00000000 		.4byte	.LVL383
 19168 1820 1A000000 		.4byte	.LVL386
 19169 1824 0100     		.2byte	0x1
 19170 1826 51       		.byte	0x51
 19171 1827 1A000000 		.4byte	.LVL386
 19172 182b 23000000 		.4byte	.LVL389-1
 19173 182f 0100     		.2byte	0x1
 19174 1831 53       		.byte	0x53
 19175 1832 23000000 		.4byte	.LVL389-1
 19176 1836 AC030000 		.4byte	.LFE266
 19177 183a 0300     		.2byte	0x3
 19178 183c 91       		.byte	0x91
 19179 183d AC7F     		.sleb128 -84
 19180 183f 00000000 		.4byte	0
 19181 1843 00000000 		.4byte	0
 19182              	.LLST104:
 19183 1847 00000000 		.4byte	.LVL383
 19184 184b 0E000000 		.4byte	.LVL384
 19185 184f 0100     		.2byte	0x1
 19186 1851 52       		.byte	0x52
 19187 1852 0E000000 		.4byte	.LVL384
 19188 1856 9C000000 		.4byte	.LVL403
 19189 185a 0100     		.2byte	0x1
 19190 185c 57       		.byte	0x57
 19191 185d 9C000000 		.4byte	.LVL403
 19192 1861 9E000000 		.4byte	.LVL404
 19193 1865 0600     		.2byte	0x6
 19194 1867 77       		.byte	0x77
 19195 1868 00       		.sleb128 0
ARM GAS  C:\Users\jo\AppData\Local\Temp\ccpKXchH.s 			page 345


 19196 1869 76       		.byte	0x76
 19197 186a 00       		.sleb128 0
 19198 186b 1C       		.byte	0x1c
 19199 186c 9F       		.byte	0x9f
 19200 186d 9E000000 		.4byte	.LVL404
 19201 1871 AC030000 		.4byte	.LFE266
 19202 1875 0100     		.2byte	0x1
 19203 1877 57       		.byte	0x57
 19204 1878 00000000 		.4byte	0
 19205 187c 00000000 		.4byte	0
 19206              	.LLST105:
 19207 1880 00000000 		.4byte	.LVL383
 19208 1884 10000000 		.4byte	.LVL385
 19209 1888 0100     		.2byte	0x1
 19210 188a 53       		.byte	0x53
 19211 188b 10000000 		.4byte	.LVL385
 19212 188f AC030000 		.4byte	.LFE266
 19213 1893 0100     		.2byte	0x1
 19214 1895 59       		.byte	0x59
 19215 1896 00000000 		.4byte	0
 19216 189a 00000000 		.4byte	0
 19217              	.LLST106:
 19218 189e 00000000 		.4byte	.LVL383
 19219 18a2 74010000 		.4byte	.LVL417
 19220 18a6 0200     		.2byte	0x2
 19221 18a8 91       		.byte	0x91
 19222 18a9 00       		.sleb128 0
 19223 18aa 74010000 		.4byte	.LVL417
 19224 18ae AC030000 		.4byte	.LFE266
 19225 18b2 0200     		.2byte	0x2
 19226 18b4 91       		.byte	0x91
 19227 18b5 00       		.sleb128 0
 19228 18b6 00000000 		.4byte	0
 19229 18ba 00000000 		.4byte	0
 19230              	.LLST107:
 19231 18be 00000000 		.4byte	.LVL383
 19232 18c2 74010000 		.4byte	.LVL417
 19233 18c6 0200     		.2byte	0x2
 19234 18c8 91       		.byte	0x91
 19235 18c9 04       		.sleb128 4
 19236 18ca 74010000 		.4byte	.LVL417
 19237 18ce AC030000 		.4byte	.LFE266
 19238 18d2 0200     		.2byte	0x2
 19239 18d4 91       		.byte	0x91
 19240 18d5 04       		.sleb128 4
 19241 18d6 00000000 		.4byte	0
 19242 18da 00000000 		.4byte	0
 19243              	.LLST108:
 19244 18de 2A000000 		.4byte	.LVL390
 19245 18e2 34000000 		.4byte	.LVL392
 19246 18e6 0100     		.2byte	0x1
 19247 18e8 50       		.byte	0x50
 19248 18e9 34000000 		.4byte	.LVL392
 19249 18ed 8A030000 		.4byte	.LVL463
 19250 18f1 0100     		.2byte	0x1
 19251 18f3 54       		.byte	0x54
 19252 18f4 8A030000 		.4byte	.LVL463
ARM GAS  C:\Users\jo\AppData\Local\Temp\ccpKXchH.s 			page 346


 19253 18f8 8E030000 		.4byte	.LVL464
 19254 18fc 0100     		.2byte	0x1
 19255 18fe 50       		.byte	0x50
 19256 18ff 8E030000 		.4byte	.LVL464
 19257 1903 AC030000 		.4byte	.LFE266
 19258 1907 0100     		.2byte	0x1
 19259 1909 54       		.byte	0x54
 19260 190a 00000000 		.4byte	0
 19261 190e 00000000 		.4byte	0
 19262              	.LLST109:
 19263 1912 5A000000 		.4byte	.LVL394
 19264 1916 BA000000 		.4byte	.LVL405
 19265 191a 0100     		.2byte	0x1
 19266 191c 5A       		.byte	0x5a
 19267 191d CA010000 		.4byte	.LVL425
 19268 1921 D0010000 		.4byte	.LVL426
 19269 1925 0100     		.2byte	0x1
 19270 1927 5A       		.byte	0x5a
 19271 1928 14020000 		.4byte	.LVL431
 19272 192c 32020000 		.4byte	.LVL434
 19273 1930 0100     		.2byte	0x1
 19274 1932 5A       		.byte	0x5a
 19275 1933 86020000 		.4byte	.LVL440
 19276 1937 8C020000 		.4byte	.LVL441
 19277 193b 0100     		.2byte	0x1
 19278 193d 5A       		.byte	0x5a
 19279 193e 00000000 		.4byte	0
 19280 1942 00000000 		.4byte	0
 19281              	.LLST110:
 19282 1946 5E000000 		.4byte	.LVL395
 19283 194a 74000000 		.4byte	.LVL397
 19284 194e 0100     		.2byte	0x1
 19285 1950 55       		.byte	0x55
 19286 1951 76000000 		.4byte	.LVL398
 19287 1955 5A010000 		.4byte	.LVL414
 19288 1959 0100     		.2byte	0x1
 19289 195b 55       		.byte	0x55
 19290 195c 74010000 		.4byte	.LVL417
 19291 1960 82010000 		.4byte	.LVL419
 19292 1964 0100     		.2byte	0x1
 19293 1966 55       		.byte	0x55
 19294 1967 CA010000 		.4byte	.LVL425
 19295 196b 32020000 		.4byte	.LVL434
 19296 196f 0100     		.2byte	0x1
 19297 1971 55       		.byte	0x55
 19298 1972 86020000 		.4byte	.LVL440
 19299 1976 AE020000 		.4byte	.LVL445
 19300 197a 0100     		.2byte	0x1
 19301 197c 55       		.byte	0x55
 19302 197d B6020000 		.4byte	.LVL448
 19303 1981 18030000 		.4byte	.LVL454
 19304 1985 0100     		.2byte	0x1
 19305 1987 55       		.byte	0x55
 19306 1988 00000000 		.4byte	0
 19307 198c 00000000 		.4byte	0
 19308              	.LLST111:
 19309 1990 7C000000 		.4byte	.LVL399
ARM GAS  C:\Users\jo\AppData\Local\Temp\ccpKXchH.s 			page 347


 19310 1994 5A010000 		.4byte	.LVL414
 19311 1998 0100     		.2byte	0x1
 19312 199a 56       		.byte	0x56
 19313 199b 74010000 		.4byte	.LVL417
 19314 199f 8E010000 		.4byte	.LVL420
 19315 19a3 0100     		.2byte	0x1
 19316 19a5 56       		.byte	0x56
 19317 19a6 A2010000 		.4byte	.LVL422
 19318 19aa 32020000 		.4byte	.LVL434
 19319 19ae 0100     		.2byte	0x1
 19320 19b0 56       		.byte	0x56
 19321 19b1 78020000 		.4byte	.LVL438
 19322 19b5 AE020000 		.4byte	.LVL445
 19323 19b9 0100     		.2byte	0x1
 19324 19bb 56       		.byte	0x56
 19325 19bc B6020000 		.4byte	.LVL448
 19326 19c0 18030000 		.4byte	.LVL454
 19327 19c4 0100     		.2byte	0x1
 19328 19c6 56       		.byte	0x56
 19329 19c7 00000000 		.4byte	0
 19330 19cb 00000000 		.4byte	0
 19331              	.LLST112:
 19332 19cf 20000000 		.4byte	.LVL388
 19333 19d3 34000000 		.4byte	.LVL392
 19334 19d7 0200     		.2byte	0x2
 19335 19d9 30       		.byte	0x30
 19336 19da 9F       		.byte	0x9f
 19337 19db 34000000 		.4byte	.LVL392
 19338 19df 6E010000 		.4byte	.LVL416
 19339 19e3 0100     		.2byte	0x1
 19340 19e5 58       		.byte	0x58
 19341 19e6 74010000 		.4byte	.LVL417
 19342 19ea 62030000 		.4byte	.LVL460
 19343 19ee 0100     		.2byte	0x1
 19344 19f0 58       		.byte	0x58
 19345 19f1 6E030000 		.4byte	.LVL461
 19346 19f5 8A030000 		.4byte	.LVL463
 19347 19f9 0100     		.2byte	0x1
 19348 19fb 58       		.byte	0x58
 19349 19fc 8A030000 		.4byte	.LVL463
 19350 1a00 AC030000 		.4byte	.LFE266
 19351 1a04 0200     		.2byte	0x2
 19352 1a06 30       		.byte	0x30
 19353 1a07 9F       		.byte	0x9f
 19354 1a08 00000000 		.4byte	0
 19355 1a0c 00000000 		.4byte	0
 19356              	.LLST113:
 19357 1a10 E2000000 		.4byte	.LVL407
 19358 1a14 3E010000 		.4byte	.LVL411
 19359 1a18 0100     		.2byte	0x1
 19360 1a1a 5B       		.byte	0x5b
 19361 1a1b F0010000 		.4byte	.LVL427
 19362 1a1f F3010000 		.4byte	.LVL428-1
 19363 1a23 0100     		.2byte	0x1
 19364 1a25 5C       		.byte	0x5c
 19365 1a26 F3010000 		.4byte	.LVL428-1
 19366 1a2a FE010000 		.4byte	.LVL429
ARM GAS  C:\Users\jo\AppData\Local\Temp\ccpKXchH.s 			page 348


 19367 1a2e 0300     		.2byte	0x3
 19368 1a30 91       		.byte	0x91
 19369 1a31 B07F     		.sleb128 -80
 19370 1a33 FE010000 		.4byte	.LVL429
 19371 1a37 0E020000 		.4byte	.LVL430
 19372 1a3b 0100     		.2byte	0x1
 19373 1a3d 5C       		.byte	0x5c
 19374 1a3e 9A020000 		.4byte	.LVL442
 19375 1a42 9C020000 		.4byte	.LVL443
 19376 1a46 0300     		.2byte	0x3
 19377 1a48 91       		.byte	0x91
 19378 1a49 44       		.sleb128 -60
 19379 1a4a 9F       		.byte	0x9f
 19380 1a4b 9C020000 		.4byte	.LVL443
 19381 1a4f A7020000 		.4byte	.LVL444-1
 19382 1a53 0100     		.2byte	0x1
 19383 1a55 51       		.byte	0x51
 19384 1a56 A7020000 		.4byte	.LVL444-1
 19385 1a5a AE020000 		.4byte	.LVL445
 19386 1a5e 0100     		.2byte	0x1
 19387 1a60 5B       		.byte	0x5b
 19388 1a61 B6020000 		.4byte	.LVL448
 19389 1a65 C0020000 		.4byte	.LVL449
 19390 1a69 0300     		.2byte	0x3
 19391 1a6b 91       		.byte	0x91
 19392 1a6c B07F     		.sleb128 -80
 19393 1a6e C0020000 		.4byte	.LVL449
 19394 1a72 C2020000 		.4byte	.LVL450
 19395 1a76 0300     		.2byte	0x3
 19396 1a78 91       		.byte	0x91
 19397 1a79 44       		.sleb128 -60
 19398 1a7a 9F       		.byte	0x9f
 19399 1a7b C2020000 		.4byte	.LVL450
 19400 1a7f CB020000 		.4byte	.LVL451-1
 19401 1a83 0100     		.2byte	0x1
 19402 1a85 51       		.byte	0x51
 19403 1a86 CB020000 		.4byte	.LVL451-1
 19404 1a8a D0020000 		.4byte	.LVL452
 19405 1a8e 0300     		.2byte	0x3
 19406 1a90 91       		.byte	0x91
 19407 1a91 44       		.sleb128 -60
 19408 1a92 9F       		.byte	0x9f
 19409 1a93 D0020000 		.4byte	.LVL452
 19410 1a97 DD020000 		.4byte	.LVL453-1
 19411 1a9b 0100     		.2byte	0x1
 19412 1a9d 5C       		.byte	0x5c
 19413 1a9e DD020000 		.4byte	.LVL453-1
 19414 1aa2 18030000 		.4byte	.LVL454
 19415 1aa6 0300     		.2byte	0x3
 19416 1aa8 91       		.byte	0x91
 19417 1aa9 B07F     		.sleb128 -80
 19418 1aab 00000000 		.4byte	0
 19419 1aaf 00000000 		.4byte	0
 19420              	.LLST114:
 19421 1ab3 20000000 		.4byte	.LVL388
 19422 1ab7 BC000000 		.4byte	.LVL406
 19423 1abb 0200     		.2byte	0x2
ARM GAS  C:\Users\jo\AppData\Local\Temp\ccpKXchH.s 			page 349


 19424 1abd 30       		.byte	0x30
 19425 1abe 9F       		.byte	0x9f
 19426 1abf BC000000 		.4byte	.LVL406
 19427 1ac3 5A010000 		.4byte	.LVL414
 19428 1ac7 0200     		.2byte	0x2
 19429 1ac9 31       		.byte	0x31
 19430 1aca 9F       		.byte	0x9f
 19431 1acb 74010000 		.4byte	.LVL417
 19432 1acf 7C010000 		.4byte	.LVL418
 19433 1ad3 0200     		.2byte	0x2
 19434 1ad5 31       		.byte	0x31
 19435 1ad6 9F       		.byte	0x9f
 19436 1ad7 CA010000 		.4byte	.LVL425
 19437 1adb D0010000 		.4byte	.LVL426
 19438 1adf 0200     		.2byte	0x2
 19439 1ae1 30       		.byte	0x30
 19440 1ae2 9F       		.byte	0x9f
 19441 1ae3 D0010000 		.4byte	.LVL426
 19442 1ae7 14020000 		.4byte	.LVL431
 19443 1aeb 0200     		.2byte	0x2
 19444 1aed 31       		.byte	0x31
 19445 1aee 9F       		.byte	0x9f
 19446 1aef 14020000 		.4byte	.LVL431
 19447 1af3 78020000 		.4byte	.LVL438
 19448 1af7 0200     		.2byte	0x2
 19449 1af9 30       		.byte	0x30
 19450 1afa 9F       		.byte	0x9f
 19451 1afb 86020000 		.4byte	.LVL440
 19452 1aff AE020000 		.4byte	.LVL445
 19453 1b03 0200     		.2byte	0x2
 19454 1b05 31       		.byte	0x31
 19455 1b06 9F       		.byte	0x9f
 19456 1b07 AE020000 		.4byte	.LVL445
 19457 1b0b B6020000 		.4byte	.LVL448
 19458 1b0f 0200     		.2byte	0x2
 19459 1b11 30       		.byte	0x30
 19460 1b12 9F       		.byte	0x9f
 19461 1b13 B6020000 		.4byte	.LVL448
 19462 1b17 18030000 		.4byte	.LVL454
 19463 1b1b 0200     		.2byte	0x2
 19464 1b1d 31       		.byte	0x31
 19465 1b1e 9F       		.byte	0x9f
 19466 1b1f 18030000 		.4byte	.LVL454
 19467 1b23 AC030000 		.4byte	.LFE266
 19468 1b27 0200     		.2byte	0x2
 19469 1b29 30       		.byte	0x30
 19470 1b2a 9F       		.byte	0x9f
 19471 1b2b 00000000 		.4byte	0
 19472 1b2f 00000000 		.4byte	0
 19473              	.LLST115:
 19474 1b33 5A020000 		.4byte	.LVL436
 19475 1b37 78020000 		.4byte	.LVL438
 19476 1b3b 0100     		.2byte	0x1
 19477 1b3d 55       		.byte	0x55
 19478 1b3e B4020000 		.4byte	.LVL447
 19479 1b42 B6020000 		.4byte	.LVL448
 19480 1b46 0100     		.2byte	0x1
ARM GAS  C:\Users\jo\AppData\Local\Temp\ccpKXchH.s 			page 350


 19481 1b48 55       		.byte	0x55
 19482 1b49 18030000 		.4byte	.LVL454
 19483 1b4d 6E030000 		.4byte	.LVL461
 19484 1b51 0100     		.2byte	0x1
 19485 1b53 55       		.byte	0x55
 19486 1b54 00000000 		.4byte	0
 19487 1b58 00000000 		.4byte	0
 19488              	.LLST116:
 19489 1b5c 26020000 		.4byte	.LVL432
 19490 1b60 32020000 		.4byte	.LVL434
 19491 1b64 0600     		.2byte	0x6
 19492 1b66 03       		.byte	0x3
 19493 1b67 F8070000 		.4byte	.LC58
 19494 1b6b 9F       		.byte	0x9f
 19495 1b6c 00000000 		.4byte	0
 19496 1b70 00000000 		.4byte	0
 19497              	.LLST117:
 19498 1b74 2A030000 		.4byte	.LVL455
 19499 1b78 34030000 		.4byte	.LVL457
 19500 1b7c 0600     		.2byte	0x6
 19501 1b7e 03       		.byte	0x3
 19502 1b7f B0070000 		.4byte	.LC56
 19503 1b83 9F       		.byte	0x9f
 19504 1b84 00000000 		.4byte	0
 19505 1b88 00000000 		.4byte	0
 19506              	.LLST118:
 19507 1b8c 00000000 		.4byte	.LVL465
 19508 1b90 0D000000 		.4byte	.LVL466-1
 19509 1b94 0100     		.2byte	0x1
 19510 1b96 50       		.byte	0x50
 19511 1b97 0D000000 		.4byte	.LVL466-1
 19512 1b9b 14000000 		.4byte	.LFE267
 19513 1b9f 0400     		.2byte	0x4
 19514 1ba1 F3       		.byte	0xf3
 19515 1ba2 01       		.uleb128 0x1
 19516 1ba3 50       		.byte	0x50
 19517 1ba4 9F       		.byte	0x9f
 19518 1ba5 00000000 		.4byte	0
 19519 1ba9 00000000 		.4byte	0
 19520              	.LLST119:
 19521 1bad 00000000 		.4byte	.LVL465
 19522 1bb1 0D000000 		.4byte	.LVL466-1
 19523 1bb5 0100     		.2byte	0x1
 19524 1bb7 51       		.byte	0x51
 19525 1bb8 0D000000 		.4byte	.LVL466-1
 19526 1bbc 14000000 		.4byte	.LFE267
 19527 1bc0 0400     		.2byte	0x4
 19528 1bc2 F3       		.byte	0xf3
 19529 1bc3 01       		.uleb128 0x1
 19530 1bc4 51       		.byte	0x51
 19531 1bc5 9F       		.byte	0x9f
 19532 1bc6 00000000 		.4byte	0
 19533 1bca 00000000 		.4byte	0
 19534              	.LLST120:
 19535 1bce 00000000 		.4byte	.LVL465
 19536 1bd2 0D000000 		.4byte	.LVL466-1
 19537 1bd6 0100     		.2byte	0x1
ARM GAS  C:\Users\jo\AppData\Local\Temp\ccpKXchH.s 			page 351


 19538 1bd8 52       		.byte	0x52
 19539 1bd9 0D000000 		.4byte	.LVL466-1
 19540 1bdd 14000000 		.4byte	.LFE267
 19541 1be1 0400     		.2byte	0x4
 19542 1be3 F3       		.byte	0xf3
 19543 1be4 01       		.uleb128 0x1
 19544 1be5 52       		.byte	0x52
 19545 1be6 9F       		.byte	0x9f
 19546 1be7 00000000 		.4byte	0
 19547 1beb 00000000 		.4byte	0
 19548              	.LLST121:
 19549 1bef 00000000 		.4byte	.LVL467
 19550 1bf3 0D000000 		.4byte	.LVL468-1
 19551 1bf7 0100     		.2byte	0x1
 19552 1bf9 50       		.byte	0x50
 19553 1bfa 0D000000 		.4byte	.LVL468-1
 19554 1bfe 12000000 		.4byte	.LFE268
 19555 1c02 0400     		.2byte	0x4
 19556 1c04 F3       		.byte	0xf3
 19557 1c05 01       		.uleb128 0x1
 19558 1c06 50       		.byte	0x50
 19559 1c07 9F       		.byte	0x9f
 19560 1c08 00000000 		.4byte	0
 19561 1c0c 00000000 		.4byte	0
 19562              	.LLST122:
 19563 1c10 00000000 		.4byte	.LVL467
 19564 1c14 0D000000 		.4byte	.LVL468-1
 19565 1c18 0100     		.2byte	0x1
 19566 1c1a 51       		.byte	0x51
 19567 1c1b 0D000000 		.4byte	.LVL468-1
 19568 1c1f 12000000 		.4byte	.LFE268
 19569 1c23 0400     		.2byte	0x4
 19570 1c25 F3       		.byte	0xf3
 19571 1c26 01       		.uleb128 0x1
 19572 1c27 51       		.byte	0x51
 19573 1c28 9F       		.byte	0x9f
 19574 1c29 00000000 		.4byte	0
 19575 1c2d 00000000 		.4byte	0
 19576              	.LLST123:
 19577 1c31 00000000 		.4byte	.LVL467
 19578 1c35 0D000000 		.4byte	.LVL468-1
 19579 1c39 0100     		.2byte	0x1
 19580 1c3b 52       		.byte	0x52
 19581 1c3c 0D000000 		.4byte	.LVL468-1
 19582 1c40 12000000 		.4byte	.LFE268
 19583 1c44 0400     		.2byte	0x4
 19584 1c46 F3       		.byte	0xf3
 19585 1c47 01       		.uleb128 0x1
 19586 1c48 52       		.byte	0x52
 19587 1c49 9F       		.byte	0x9f
 19588 1c4a 00000000 		.4byte	0
 19589 1c4e 00000000 		.4byte	0
 19590              	.LLST124:
 19591 1c52 00000000 		.4byte	.LVL467
 19592 1c56 0D000000 		.4byte	.LVL468-1
 19593 1c5a 0100     		.2byte	0x1
 19594 1c5c 53       		.byte	0x53
ARM GAS  C:\Users\jo\AppData\Local\Temp\ccpKXchH.s 			page 352


 19595 1c5d 0D000000 		.4byte	.LVL468-1
 19596 1c61 12000000 		.4byte	.LFE268
 19597 1c65 0400     		.2byte	0x4
 19598 1c67 F3       		.byte	0xf3
 19599 1c68 01       		.uleb128 0x1
 19600 1c69 53       		.byte	0x53
 19601 1c6a 9F       		.byte	0x9f
 19602 1c6b 00000000 		.4byte	0
 19603 1c6f 00000000 		.4byte	0
 19604              	.LLST125:
 19605 1c73 00000000 		.4byte	.LVL469
 19606 1c77 17000000 		.4byte	.LVL470-1
 19607 1c7b 0100     		.2byte	0x1
 19608 1c7d 50       		.byte	0x50
 19609 1c7e 17000000 		.4byte	.LVL470-1
 19610 1c82 64010000 		.4byte	.LFE270
 19611 1c86 0100     		.2byte	0x1
 19612 1c88 58       		.byte	0x58
 19613 1c89 00000000 		.4byte	0
 19614 1c8d 00000000 		.4byte	0
 19615              	.LLST126:
 19616 1c91 00000000 		.4byte	.LVL469
 19617 1c95 17000000 		.4byte	.LVL470-1
 19618 1c99 0100     		.2byte	0x1
 19619 1c9b 51       		.byte	0x51
 19620 1c9c 17000000 		.4byte	.LVL470-1
 19621 1ca0 64010000 		.4byte	.LFE270
 19622 1ca4 0100     		.2byte	0x1
 19623 1ca6 57       		.byte	0x57
 19624 1ca7 00000000 		.4byte	0
 19625 1cab 00000000 		.4byte	0
 19626              	.LLST127:
 19627 1caf 00000000 		.4byte	.LVL469
 19628 1cb3 17000000 		.4byte	.LVL470-1
 19629 1cb7 0100     		.2byte	0x1
 19630 1cb9 52       		.byte	0x52
 19631 1cba 17000000 		.4byte	.LVL470-1
 19632 1cbe 30000000 		.4byte	.LVL471
 19633 1cc2 0100     		.2byte	0x1
 19634 1cc4 54       		.byte	0x54
 19635 1cc5 30000000 		.4byte	.LVL471
 19636 1cc9 C0000000 		.4byte	.LVL483
 19637 1ccd 0400     		.2byte	0x4
 19638 1ccf F3       		.byte	0xf3
 19639 1cd0 01       		.uleb128 0x1
 19640 1cd1 52       		.byte	0x52
 19641 1cd2 9F       		.byte	0x9f
 19642 1cd3 C0000000 		.4byte	.LVL483
 19643 1cd7 DA000000 		.4byte	.LVL487
 19644 1cdb 0100     		.2byte	0x1
 19645 1cdd 54       		.byte	0x54
 19646 1cde DA000000 		.4byte	.LVL487
 19647 1ce2 30010000 		.4byte	.LVL499
 19648 1ce6 0400     		.2byte	0x4
 19649 1ce8 F3       		.byte	0xf3
 19650 1ce9 01       		.uleb128 0x1
 19651 1cea 52       		.byte	0x52
ARM GAS  C:\Users\jo\AppData\Local\Temp\ccpKXchH.s 			page 353


 19652 1ceb 9F       		.byte	0x9f
 19653 1cec 30010000 		.4byte	.LVL499
 19654 1cf0 3E010000 		.4byte	.LVL502
 19655 1cf4 0100     		.2byte	0x1
 19656 1cf6 54       		.byte	0x54
 19657 1cf7 3E010000 		.4byte	.LVL502
 19658 1cfb 64010000 		.4byte	.LFE270
 19659 1cff 0400     		.2byte	0x4
 19660 1d01 F3       		.byte	0xf3
 19661 1d02 01       		.uleb128 0x1
 19662 1d03 52       		.byte	0x52
 19663 1d04 9F       		.byte	0x9f
 19664 1d05 00000000 		.4byte	0
 19665 1d09 00000000 		.4byte	0
 19666              	.LLST128:
 19667 1d0d 00000000 		.4byte	.LVL469
 19668 1d11 17000000 		.4byte	.LVL470-1
 19669 1d15 0100     		.2byte	0x1
 19670 1d17 53       		.byte	0x53
 19671 1d18 17000000 		.4byte	.LVL470-1
 19672 1d1c 64010000 		.4byte	.LFE270
 19673 1d20 0100     		.2byte	0x1
 19674 1d22 59       		.byte	0x59
 19675 1d23 00000000 		.4byte	0
 19676 1d27 00000000 		.4byte	0
 19677              	.LLST129:
 19678 1d2b 00000000 		.4byte	.LVL469
 19679 1d2f C0000000 		.4byte	.LVL483
 19680 1d33 0200     		.2byte	0x2
 19681 1d35 91       		.byte	0x91
 19682 1d36 00       		.sleb128 0
 19683 1d37 C0000000 		.4byte	.LVL483
 19684 1d3b 64010000 		.4byte	.LFE270
 19685 1d3f 0200     		.2byte	0x2
 19686 1d41 91       		.byte	0x91
 19687 1d42 00       		.sleb128 0
 19688 1d43 00000000 		.4byte	0
 19689 1d47 00000000 		.4byte	0
 19690              	.LLST130:
 19691 1d4b 00000000 		.4byte	.LVL469
 19692 1d4f C0000000 		.4byte	.LVL483
 19693 1d53 0200     		.2byte	0x2
 19694 1d55 91       		.byte	0x91
 19695 1d56 04       		.sleb128 4
 19696 1d57 C0000000 		.4byte	.LVL483
 19697 1d5b 64010000 		.4byte	.LFE270
 19698 1d5f 0200     		.2byte	0x2
 19699 1d61 91       		.byte	0x91
 19700 1d62 04       		.sleb128 4
 19701 1d63 00000000 		.4byte	0
 19702 1d67 00000000 		.4byte	0
 19703              	.LLST131:
 19704 1d6b 18000000 		.4byte	.LVL470
 19705 1d6f 34000000 		.4byte	.LVL472
 19706 1d73 0100     		.2byte	0x1
 19707 1d75 50       		.byte	0x50
 19708 1d76 34000000 		.4byte	.LVL472
ARM GAS  C:\Users\jo\AppData\Local\Temp\ccpKXchH.s 			page 354


 19709 1d7a C0000000 		.4byte	.LVL483
 19710 1d7e 0100     		.2byte	0x1
 19711 1d80 56       		.byte	0x56
 19712 1d81 C0000000 		.4byte	.LVL483
 19713 1d85 CA000000 		.4byte	.LVL484
 19714 1d89 0100     		.2byte	0x1
 19715 1d8b 50       		.byte	0x50
 19716 1d8c CA000000 		.4byte	.LVL484
 19717 1d90 30010000 		.4byte	.LVL499
 19718 1d94 0100     		.2byte	0x1
 19719 1d96 56       		.byte	0x56
 19720 1d97 30010000 		.4byte	.LVL499
 19721 1d9b 34010000 		.4byte	.LVL500
 19722 1d9f 0100     		.2byte	0x1
 19723 1da1 50       		.byte	0x50
 19724 1da2 34010000 		.4byte	.LVL500
 19725 1da6 64010000 		.4byte	.LFE270
 19726 1daa 0100     		.2byte	0x1
 19727 1dac 56       		.byte	0x56
 19728 1dad 00000000 		.4byte	0
 19729 1db1 00000000 		.4byte	0
 19730              	.LLST132:
 19731 1db5 9A000000 		.4byte	.LVL479
 19732 1db9 9E000000 		.4byte	.LVL480
 19733 1dbd 0100     		.2byte	0x1
 19734 1dbf 50       		.byte	0x50
 19735 1dc0 9E000000 		.4byte	.LVL480
 19736 1dc4 B4000000 		.4byte	.LVL482
 19737 1dc8 0100     		.2byte	0x1
 19738 1dca 55       		.byte	0x55
 19739 1dcb F8000000 		.4byte	.LVL491
 19740 1dcf FC000000 		.4byte	.LVL492
 19741 1dd3 0100     		.2byte	0x1
 19742 1dd5 50       		.byte	0x50
 19743 1dd6 02010000 		.4byte	.LVL494
 19744 1dda 12010000 		.4byte	.LVL496
 19745 1dde 0100     		.2byte	0x1
 19746 1de0 55       		.byte	0x55
 19747 1de1 00000000 		.4byte	0
 19748 1de5 00000000 		.4byte	0
 19749              	.LLST133:
 19750 1de9 30000000 		.4byte	.LVL471
 19751 1ded B4000000 		.4byte	.LVL482
 19752 1df1 0100     		.2byte	0x1
 19753 1df3 54       		.byte	0x54
 19754 1df4 DA000000 		.4byte	.LVL487
 19755 1df8 30010000 		.4byte	.LVL499
 19756 1dfc 0100     		.2byte	0x1
 19757 1dfe 54       		.byte	0x54
 19758 1dff 00000000 		.4byte	0
 19759 1e03 00000000 		.4byte	0
 19760              	.LLST134:
 19761 1e07 46000000 		.4byte	.LVL473
 19762 1e0b 5A000000 		.4byte	.LVL475
 19763 1e0f 0100     		.2byte	0x1
 19764 1e11 55       		.byte	0x55
 19765 1e12 E4000000 		.4byte	.LVL489
ARM GAS  C:\Users\jo\AppData\Local\Temp\ccpKXchH.s 			page 355


 19766 1e16 F8000000 		.4byte	.LVL491
 19767 1e1a 0200     		.2byte	0x2
 19768 1e1c 30       		.byte	0x30
 19769 1e1d 9F       		.byte	0x9f
 19770 1e1e 00000000 		.4byte	0
 19771 1e22 00000000 		.4byte	0
 19772              	.LLST135:
 19773 1e26 54000000 		.4byte	.LVL474
 19774 1e2a 5A000000 		.4byte	.LVL475
 19775 1e2e 0100     		.2byte	0x1
 19776 1e30 50       		.byte	0x50
 19777 1e31 EC000000 		.4byte	.LVL490
 19778 1e35 F8000000 		.4byte	.LVL491
 19779 1e39 0200     		.2byte	0x2
 19780 1e3b 30       		.byte	0x30
 19781 1e3c 9F       		.byte	0x9f
 19782 1e3d 00000000 		.4byte	0
 19783 1e41 00000000 		.4byte	0
 19784              	.LLST136:
 19785 1e45 D2000000 		.4byte	.LVL485
 19786 1e49 DE000000 		.4byte	.LVL488
 19787 1e4d 0600     		.2byte	0x6
 19788 1e4f 03       		.byte	0x3
 19789 1e50 9C080000 		.4byte	.LC63
 19790 1e54 9F       		.byte	0x9f
 19791 1e55 00000000 		.4byte	0
 19792 1e59 00000000 		.4byte	0
 19793              	.LLST137:
 19794 1e5d 24010000 		.4byte	.LVL497
 19795 1e61 2A010000 		.4byte	.LVL498
 19796 1e65 0600     		.2byte	0x6
 19797 1e67 03       		.byte	0x3
 19798 1e68 C0080000 		.4byte	.LC64
 19799 1e6c 9F       		.byte	0x9f
 19800 1e6d 00000000 		.4byte	0
 19801 1e71 00000000 		.4byte	0
 19802              	.LLST138:
 19803 1e75 00000000 		.4byte	.LVL503
 19804 1e79 18000000 		.4byte	.LVL506
 19805 1e7d 0100     		.2byte	0x1
 19806 1e7f 50       		.byte	0x50
 19807 1e80 18000000 		.4byte	.LVL506
 19808 1e84 1D000000 		.4byte	.LVL508-1
 19809 1e88 0100     		.2byte	0x1
 19810 1e8a 52       		.byte	0x52
 19811 1e8b 1D000000 		.4byte	.LVL508-1
 19812 1e8f AC000000 		.4byte	.LVL523
 19813 1e93 0100     		.2byte	0x1
 19814 1e95 54       		.byte	0x54
 19815 1e96 AC000000 		.4byte	.LVL523
 19816 1e9a BC000000 		.4byte	.LFE269
 19817 1e9e 0400     		.2byte	0x4
 19818 1ea0 F3       		.byte	0xf3
 19819 1ea1 01       		.uleb128 0x1
 19820 1ea2 50       		.byte	0x50
 19821 1ea3 9F       		.byte	0x9f
 19822 1ea4 00000000 		.4byte	0
ARM GAS  C:\Users\jo\AppData\Local\Temp\ccpKXchH.s 			page 356


 19823 1ea8 00000000 		.4byte	0
 19824              	.LLST139:
 19825 1eac 00000000 		.4byte	.LVL503
 19826 1eb0 1A000000 		.4byte	.LVL507
 19827 1eb4 0100     		.2byte	0x1
 19828 1eb6 51       		.byte	0x51
 19829 1eb7 1A000000 		.4byte	.LVL507
 19830 1ebb 1D000000 		.4byte	.LVL508-1
 19831 1ebf 0100     		.2byte	0x1
 19832 1ec1 53       		.byte	0x53
 19833 1ec2 1D000000 		.4byte	.LVL508-1
 19834 1ec6 AC000000 		.4byte	.LVL523
 19835 1eca 0100     		.2byte	0x1
 19836 1ecc 58       		.byte	0x58
 19837 1ecd AC000000 		.4byte	.LVL523
 19838 1ed1 BC000000 		.4byte	.LFE269
 19839 1ed5 0400     		.2byte	0x4
 19840 1ed7 F3       		.byte	0xf3
 19841 1ed8 01       		.uleb128 0x1
 19842 1ed9 51       		.byte	0x51
 19843 1eda 9F       		.byte	0x9f
 19844 1edb 00000000 		.4byte	0
 19845 1edf 00000000 		.4byte	0
 19846              	.LLST140:
 19847 1ee3 00000000 		.4byte	.LVL503
 19848 1ee7 14000000 		.4byte	.LVL504
 19849 1eeb 0100     		.2byte	0x1
 19850 1eed 52       		.byte	0x52
 19851 1eee 14000000 		.4byte	.LVL504
 19852 1ef2 AC000000 		.4byte	.LVL523
 19853 1ef6 0100     		.2byte	0x1
 19854 1ef8 57       		.byte	0x57
 19855 1ef9 AC000000 		.4byte	.LVL523
 19856 1efd BC000000 		.4byte	.LFE269
 19857 1f01 0400     		.2byte	0x4
 19858 1f03 F3       		.byte	0xf3
 19859 1f04 01       		.uleb128 0x1
 19860 1f05 52       		.byte	0x52
 19861 1f06 9F       		.byte	0x9f
 19862 1f07 00000000 		.4byte	0
 19863 1f0b 00000000 		.4byte	0
 19864              	.LLST141:
 19865 1f0f 00000000 		.4byte	.LVL503
 19866 1f13 16000000 		.4byte	.LVL505
 19867 1f17 0100     		.2byte	0x1
 19868 1f19 53       		.byte	0x53
 19869 1f1a 16000000 		.4byte	.LVL505
 19870 1f1e 4E000000 		.4byte	.LVL511
 19871 1f22 0100     		.2byte	0x1
 19872 1f24 56       		.byte	0x56
 19873 1f25 4E000000 		.4byte	.LVL511
 19874 1f29 94000000 		.4byte	.LVL520
 19875 1f2d 0400     		.2byte	0x4
 19876 1f2f F3       		.byte	0xf3
 19877 1f30 01       		.uleb128 0x1
 19878 1f31 53       		.byte	0x53
 19879 1f32 9F       		.byte	0x9f
ARM GAS  C:\Users\jo\AppData\Local\Temp\ccpKXchH.s 			page 357


 19880 1f33 94000000 		.4byte	.LVL520
 19881 1f37 AC000000 		.4byte	.LVL523
 19882 1f3b 0100     		.2byte	0x1
 19883 1f3d 56       		.byte	0x56
 19884 1f3e AC000000 		.4byte	.LVL523
 19885 1f42 BC000000 		.4byte	.LFE269
 19886 1f46 0400     		.2byte	0x4
 19887 1f48 F3       		.byte	0xf3
 19888 1f49 01       		.uleb128 0x1
 19889 1f4a 53       		.byte	0x53
 19890 1f4b 9F       		.byte	0x9f
 19891 1f4c 00000000 		.4byte	0
 19892 1f50 00000000 		.4byte	0
 19893              	.LLST142:
 19894 1f54 24000000 		.4byte	.LVL509
 19895 1f58 2A000000 		.4byte	.LVL510
 19896 1f5c 0100     		.2byte	0x1
 19897 1f5e 50       		.byte	0x50
 19898 1f5f 2A000000 		.4byte	.LVL510
 19899 1f63 96000000 		.4byte	.LVL521
 19900 1f67 0100     		.2byte	0x1
 19901 1f69 55       		.byte	0x55
 19902 1f6a 00000000 		.4byte	0
 19903 1f6e 00000000 		.4byte	0
 19904              	.LLST143:
 19905 1f72 68000000 		.4byte	.LVL516
 19906 1f76 6C000000 		.4byte	.LVL517
 19907 1f7a 0100     		.2byte	0x1
 19908 1f7c 50       		.byte	0x50
 19909 1f7d 00000000 		.4byte	0
 19910 1f81 00000000 		.4byte	0
 19911              	.LLST144:
 19912 1f85 50000000 		.4byte	.LVL512
 19913 1f89 52000000 		.4byte	.LVL513
 19914 1f8d 0600     		.2byte	0x6
 19915 1f8f 76       		.byte	0x76
 19916 1f90 00       		.sleb128 0
 19917 1f91 73       		.byte	0x73
 19918 1f92 00       		.sleb128 0
 19919 1f93 21       		.byte	0x21
 19920 1f94 9F       		.byte	0x9f
 19921 1f95 52000000 		.4byte	.LVL513
 19922 1f99 5A000000 		.4byte	.LVL514
 19923 1f9d 2B00     		.2byte	0x2b
 19924 1f9f 31       		.byte	0x31
 19925 1fa0 33       		.byte	0x33
 19926 1fa1 70       		.byte	0x70
 19927 1fa2 00       		.sleb128 0
 19928 1fa3 94       		.byte	0x94
 19929 1fa4 01       		.byte	0x1
 19930 1fa5 08       		.byte	0x8
 19931 1fa6 FF       		.byte	0xff
 19932 1fa7 1A       		.byte	0x1a
 19933 1fa8 F3       		.byte	0xf3
 19934 1fa9 01       		.uleb128 0x1
 19935 1faa 53       		.byte	0x53
 19936 1fab 09       		.byte	0x9
ARM GAS  C:\Users\jo\AppData\Local\Temp\ccpKXchH.s 			page 358


 19937 1fac FF       		.byte	0xff
 19938 1fad 24       		.byte	0x24
 19939 1fae 33       		.byte	0x33
 19940 1faf 25       		.byte	0x25
 19941 1fb0 30       		.byte	0x30
 19942 1fb1 2E       		.byte	0x2e
 19943 1fb2 28       		.byte	0x28
 19944 1fb3 0100     		.2byte	0x1
 19945 1fb5 16       		.byte	0x16
 19946 1fb6 13       		.byte	0x13
 19947 1fb7 F3       		.byte	0xf3
 19948 1fb8 01       		.uleb128 0x1
 19949 1fb9 53       		.byte	0x53
 19950 1fba 09       		.byte	0x9
 19951 1fbb FF       		.byte	0xff
 19952 1fbc 24       		.byte	0x24
 19953 1fbd 33       		.byte	0x33
 19954 1fbe 25       		.byte	0x25
 19955 1fbf 30       		.byte	0x30
 19956 1fc0 29       		.byte	0x29
 19957 1fc1 28       		.byte	0x28
 19958 1fc2 0100     		.2byte	0x1
 19959 1fc4 16       		.byte	0x16
 19960 1fc5 13       		.byte	0x13
 19961 1fc6 76       		.byte	0x76
 19962 1fc7 00       		.sleb128 0
 19963 1fc8 21       		.byte	0x21
 19964 1fc9 9F       		.byte	0x9f
 19965 1fca 00000000 		.4byte	0
 19966 1fce 00000000 		.4byte	0
 19967              	.LLST145:
 19968 1fd2 00000000 		.4byte	.LVL524
 19969 1fd6 1E000000 		.4byte	.LVL527
 19970 1fda 0100     		.2byte	0x1
 19971 1fdc 50       		.byte	0x50
 19972 1fdd 1E000000 		.4byte	.LVL527
 19973 1fe1 21000000 		.4byte	.LVL528-1
 19974 1fe5 0100     		.2byte	0x1
 19975 1fe7 52       		.byte	0x52
 19976 1fe8 21000000 		.4byte	.LVL528-1
 19977 1fec 2A000000 		.4byte	.LVL530
 19978 1ff0 0100     		.2byte	0x1
 19979 1ff2 56       		.byte	0x56
 19980 1ff3 2A000000 		.4byte	.LVL530
 19981 1ff7 32000000 		.4byte	.LVL533
 19982 1ffb 0100     		.2byte	0x1
 19983 1ffd 50       		.byte	0x50
 19984 1ffe 32000000 		.4byte	.LVL533
 19985 2002 74000000 		.4byte	.LVL542
 19986 2006 0100     		.2byte	0x1
 19987 2008 56       		.byte	0x56
 19988 2009 74000000 		.4byte	.LVL542
 19989 200d 78000000 		.4byte	.LVL544
 19990 2011 0100     		.2byte	0x1
 19991 2013 50       		.byte	0x50
 19992 2014 78000000 		.4byte	.LVL544
 19993 2018 A6000000 		.4byte	.LVL552
ARM GAS  C:\Users\jo\AppData\Local\Temp\ccpKXchH.s 			page 359


 19994 201c 0100     		.2byte	0x1
 19995 201e 56       		.byte	0x56
 19996 201f A6000000 		.4byte	.LVL552
 19997 2023 AC000000 		.4byte	.LVL553
 19998 2027 0100     		.2byte	0x1
 19999 2029 50       		.byte	0x50
 20000 202a AC000000 		.4byte	.LVL553
 20001 202e 04010000 		.4byte	.LFE271
 20002 2032 0100     		.2byte	0x1
 20003 2034 56       		.byte	0x56
 20004 2035 00000000 		.4byte	0
 20005 2039 00000000 		.4byte	0
 20006              	.LLST146:
 20007 203d 00000000 		.4byte	.LVL524
 20008 2041 1C000000 		.4byte	.LVL526
 20009 2045 0100     		.2byte	0x1
 20010 2047 51       		.byte	0x51
 20011 2048 1C000000 		.4byte	.LVL526
 20012 204c 21000000 		.4byte	.LVL528-1
 20013 2050 0100     		.2byte	0x1
 20014 2052 53       		.byte	0x53
 20015 2053 21000000 		.4byte	.LVL528-1
 20016 2057 2A000000 		.4byte	.LVL530
 20017 205b 0400     		.2byte	0x4
 20018 205d F3       		.byte	0xf3
 20019 205e 01       		.uleb128 0x1
 20020 205f 51       		.byte	0x51
 20021 2060 9F       		.byte	0x9f
 20022 2061 2A000000 		.4byte	.LVL530
 20023 2065 2C000000 		.4byte	.LVL531
 20024 2069 0100     		.2byte	0x1
 20025 206b 51       		.byte	0x51
 20026 206c 2C000000 		.4byte	.LVL531
 20027 2070 74000000 		.4byte	.LVL542
 20028 2074 0400     		.2byte	0x4
 20029 2076 F3       		.byte	0xf3
 20030 2077 01       		.uleb128 0x1
 20031 2078 51       		.byte	0x51
 20032 2079 9F       		.byte	0x9f
 20033 207a 74000000 		.4byte	.LVL542
 20034 207e 76000000 		.4byte	.LVL543
 20035 2082 0100     		.2byte	0x1
 20036 2084 51       		.byte	0x51
 20037 2085 76000000 		.4byte	.LVL543
 20038 2089 A6000000 		.4byte	.LVL552
 20039 208d 0400     		.2byte	0x4
 20040 208f F3       		.byte	0xf3
 20041 2090 01       		.uleb128 0x1
 20042 2091 51       		.byte	0x51
 20043 2092 9F       		.byte	0x9f
 20044 2093 A6000000 		.4byte	.LVL552
 20045 2097 B0000000 		.4byte	.LVL554
 20046 209b 0100     		.2byte	0x1
 20047 209d 51       		.byte	0x51
 20048 209e B0000000 		.4byte	.LVL554
 20049 20a2 04010000 		.4byte	.LFE271
 20050 20a6 0400     		.2byte	0x4
ARM GAS  C:\Users\jo\AppData\Local\Temp\ccpKXchH.s 			page 360


 20051 20a8 F3       		.byte	0xf3
 20052 20a9 01       		.uleb128 0x1
 20053 20aa 51       		.byte	0x51
 20054 20ab 9F       		.byte	0x9f
 20055 20ac 00000000 		.4byte	0
 20056 20b0 00000000 		.4byte	0
 20057              	.LLST147:
 20058 20b4 00000000 		.4byte	.LVL524
 20059 20b8 1A000000 		.4byte	.LVL525
 20060 20bc 0100     		.2byte	0x1
 20061 20be 52       		.byte	0x52
 20062 20bf 1A000000 		.4byte	.LVL525
 20063 20c3 26000000 		.4byte	.LVL529
 20064 20c7 0100     		.2byte	0x1
 20065 20c9 54       		.byte	0x54
 20066 20ca 26000000 		.4byte	.LVL529
 20067 20ce 2A000000 		.4byte	.LVL530
 20068 20d2 0400     		.2byte	0x4
 20069 20d4 F3       		.byte	0xf3
 20070 20d5 01       		.uleb128 0x1
 20071 20d6 52       		.byte	0x52
 20072 20d7 9F       		.byte	0x9f
 20073 20d8 2A000000 		.4byte	.LVL530
 20074 20dc 2E000000 		.4byte	.LVL532
 20075 20e0 0100     		.2byte	0x1
 20076 20e2 52       		.byte	0x52
 20077 20e3 2E000000 		.4byte	.LVL532
 20078 20e7 60000000 		.4byte	.LVL539
 20079 20eb 0100     		.2byte	0x1
 20080 20ed 54       		.byte	0x54
 20081 20ee 60000000 		.4byte	.LVL539
 20082 20f2 74000000 		.4byte	.LVL542
 20083 20f6 0400     		.2byte	0x4
 20084 20f8 F3       		.byte	0xf3
 20085 20f9 01       		.uleb128 0x1
 20086 20fa 52       		.byte	0x52
 20087 20fb 9F       		.byte	0x9f
 20088 20fc 74000000 		.4byte	.LVL542
 20089 2100 7A000000 		.4byte	.LVL545
 20090 2104 0100     		.2byte	0x1
 20091 2106 52       		.byte	0x52
 20092 2107 7A000000 		.4byte	.LVL545
 20093 210b A6000000 		.4byte	.LVL552
 20094 210f 0100     		.2byte	0x1
 20095 2111 54       		.byte	0x54
 20096 2112 A6000000 		.4byte	.LVL552
 20097 2116 B2000000 		.4byte	.LVL555
 20098 211a 0100     		.2byte	0x1
 20099 211c 52       		.byte	0x52
 20100 211d B2000000 		.4byte	.LVL555
 20101 2121 D2000000 		.4byte	.LVL560
 20102 2125 0100     		.2byte	0x1
 20103 2127 54       		.byte	0x54
 20104 2128 D2000000 		.4byte	.LVL560
 20105 212c 04010000 		.4byte	.LFE271
 20106 2130 0400     		.2byte	0x4
 20107 2132 F3       		.byte	0xf3
ARM GAS  C:\Users\jo\AppData\Local\Temp\ccpKXchH.s 			page 361


 20108 2133 01       		.uleb128 0x1
 20109 2134 52       		.byte	0x52
 20110 2135 9F       		.byte	0x9f
 20111 2136 00000000 		.4byte	0
 20112 213a 00000000 		.4byte	0
 20113              	.LLST148:
 20114 213e 3C000000 		.4byte	.LVL535
 20115 2142 40000000 		.4byte	.LVL536
 20116 2146 0100     		.2byte	0x1
 20117 2148 50       		.byte	0x50
 20118 2149 40000000 		.4byte	.LVL536
 20119 214d 74000000 		.4byte	.LVL542
 20120 2151 0100     		.2byte	0x1
 20121 2153 55       		.byte	0x55
 20122 2154 86000000 		.4byte	.LVL547
 20123 2158 8A000000 		.4byte	.LVL548
 20124 215c 0100     		.2byte	0x1
 20125 215e 50       		.byte	0x50
 20126 215f 8A000000 		.4byte	.LVL548
 20127 2163 98000000 		.4byte	.LVL550
 20128 2167 0100     		.2byte	0x1
 20129 2169 55       		.byte	0x55
 20130 216a BE000000 		.4byte	.LVL557
 20131 216e C2000000 		.4byte	.LVL558
 20132 2172 0100     		.2byte	0x1
 20133 2174 50       		.byte	0x50
 20134 2175 C2000000 		.4byte	.LVL558
 20135 2179 04010000 		.4byte	.LFE271
 20136 217d 0100     		.2byte	0x1
 20137 217f 55       		.byte	0x55
 20138 2180 00000000 		.4byte	0
 20139 2184 00000000 		.4byte	0
 20140              	.LLST149:
 20141 2188 60000000 		.4byte	.LVL539
 20142 218c 68000000 		.4byte	.LVL540
 20143 2190 0100     		.2byte	0x1
 20144 2192 50       		.byte	0x50
 20145 2193 68000000 		.4byte	.LVL540
 20146 2197 74000000 		.4byte	.LVL542
 20147 219b 0100     		.2byte	0x1
 20148 219d 54       		.byte	0x54
 20149 219e D2000000 		.4byte	.LVL560
 20150 21a2 D4000000 		.4byte	.LVL561
 20151 21a6 0100     		.2byte	0x1
 20152 21a8 50       		.byte	0x50
 20153 21a9 D4000000 		.4byte	.LVL561
 20154 21ad 04010000 		.4byte	.LFE271
 20155 21b1 0100     		.2byte	0x1
 20156 21b3 54       		.byte	0x54
 20157 21b4 00000000 		.4byte	0
 20158 21b8 00000000 		.4byte	0
 20159              	.LLST150:
 20160 21bc 00000000 		.4byte	.LVL563
 20161 21c0 05000000 		.4byte	.LVL564-1
 20162 21c4 0100     		.2byte	0x1
 20163 21c6 50       		.byte	0x50
 20164 21c7 05000000 		.4byte	.LVL564-1
ARM GAS  C:\Users\jo\AppData\Local\Temp\ccpKXchH.s 			page 362


 20165 21cb 06000000 		.4byte	.LFE272
 20166 21cf 0400     		.2byte	0x4
 20167 21d1 F3       		.byte	0xf3
 20168 21d2 01       		.uleb128 0x1
 20169 21d3 50       		.byte	0x50
 20170 21d4 9F       		.byte	0x9f
 20171 21d5 00000000 		.4byte	0
 20172 21d9 00000000 		.4byte	0
 20173              	.LLST151:
 20174 21dd 00000000 		.4byte	.LVL563
 20175 21e1 05000000 		.4byte	.LVL564-1
 20176 21e5 0100     		.2byte	0x1
 20177 21e7 51       		.byte	0x51
 20178 21e8 05000000 		.4byte	.LVL564-1
 20179 21ec 06000000 		.4byte	.LFE272
 20180 21f0 0400     		.2byte	0x4
 20181 21f2 F3       		.byte	0xf3
 20182 21f3 01       		.uleb128 0x1
 20183 21f4 51       		.byte	0x51
 20184 21f5 9F       		.byte	0x9f
 20185 21f6 00000000 		.4byte	0
 20186 21fa 00000000 		.4byte	0
 20187              	.LLST152:
 20188 21fe 00000000 		.4byte	.LVL563
 20189 2202 05000000 		.4byte	.LVL564-1
 20190 2206 0100     		.2byte	0x1
 20191 2208 52       		.byte	0x52
 20192 2209 05000000 		.4byte	.LVL564-1
 20193 220d 06000000 		.4byte	.LFE272
 20194 2211 0400     		.2byte	0x4
 20195 2213 F3       		.byte	0xf3
 20196 2214 01       		.uleb128 0x1
 20197 2215 52       		.byte	0x52
 20198 2216 9F       		.byte	0x9f
 20199 2217 00000000 		.4byte	0
 20200 221b 00000000 		.4byte	0
 20201              	.LLST153:
 20202 221f 00000000 		.4byte	.LVL565
 20203 2223 2A000000 		.4byte	.LVL568
 20204 2227 0100     		.2byte	0x1
 20205 2229 50       		.byte	0x50
 20206 222a 2A000000 		.4byte	.LVL568
 20207 222e 84020000 		.4byte	.LVL608
 20208 2232 0100     		.2byte	0x1
 20209 2234 57       		.byte	0x57
 20210 2235 84020000 		.4byte	.LVL608
 20211 2239 94020000 		.4byte	.LVL611
 20212 223d 0100     		.2byte	0x1
 20213 223f 50       		.byte	0x50
 20214 2240 94020000 		.4byte	.LVL611
 20215 2244 D8020000 		.4byte	.LVL616
 20216 2248 0100     		.2byte	0x1
 20217 224a 57       		.byte	0x57
 20218 224b D8020000 		.4byte	.LVL616
 20219 224f 08030000 		.4byte	.LVL617
 20220 2253 0400     		.2byte	0x4
 20221 2255 F3       		.byte	0xf3
ARM GAS  C:\Users\jo\AppData\Local\Temp\ccpKXchH.s 			page 363


 20222 2256 01       		.uleb128 0x1
 20223 2257 50       		.byte	0x50
 20224 2258 9F       		.byte	0x9f
 20225 2259 08030000 		.4byte	.LVL617
 20226 225d 18040000 		.4byte	.LFE274
 20227 2261 0100     		.2byte	0x1
 20228 2263 57       		.byte	0x57
 20229 2264 00000000 		.4byte	0
 20230 2268 00000000 		.4byte	0
 20231              	.LLST154:
 20232 226c 00000000 		.4byte	.LVL565
 20233 2270 28000000 		.4byte	.LVL567
 20234 2274 0100     		.2byte	0x1
 20235 2276 51       		.byte	0x51
 20236 2277 28000000 		.4byte	.LVL567
 20237 227b 84020000 		.4byte	.LVL608
 20238 227f 0100     		.2byte	0x1
 20239 2281 55       		.byte	0x55
 20240 2282 84020000 		.4byte	.LVL608
 20241 2286 92020000 		.4byte	.LVL610
 20242 228a 0100     		.2byte	0x1
 20243 228c 51       		.byte	0x51
 20244 228d 92020000 		.4byte	.LVL610
 20245 2291 D8020000 		.4byte	.LVL616
 20246 2295 0100     		.2byte	0x1
 20247 2297 55       		.byte	0x55
 20248 2298 D8020000 		.4byte	.LVL616
 20249 229c 08030000 		.4byte	.LVL617
 20250 22a0 0400     		.2byte	0x4
 20251 22a2 F3       		.byte	0xf3
 20252 22a3 01       		.uleb128 0x1
 20253 22a4 51       		.byte	0x51
 20254 22a5 9F       		.byte	0x9f
 20255 22a6 08030000 		.4byte	.LVL617
 20256 22aa 18040000 		.4byte	.LFE274
 20257 22ae 0100     		.2byte	0x1
 20258 22b0 55       		.byte	0x55
 20259 22b1 00000000 		.4byte	0
 20260 22b5 00000000 		.4byte	0
 20261              	.LLST155:
 20262 22b9 00000000 		.4byte	.LVL565
 20263 22bd 1E000000 		.4byte	.LVL566
 20264 22c1 0100     		.2byte	0x1
 20265 22c3 52       		.byte	0x52
 20266 22c4 1E000000 		.4byte	.LVL566
 20267 22c8 84020000 		.4byte	.LVL608
 20268 22cc 0100     		.2byte	0x1
 20269 22ce 56       		.byte	0x56
 20270 22cf 84020000 		.4byte	.LVL608
 20271 22d3 9A020000 		.4byte	.LVL612
 20272 22d7 0100     		.2byte	0x1
 20273 22d9 52       		.byte	0x52
 20274 22da 9A020000 		.4byte	.LVL612
 20275 22de D8020000 		.4byte	.LVL616
 20276 22e2 0100     		.2byte	0x1
 20277 22e4 56       		.byte	0x56
 20278 22e5 D8020000 		.4byte	.LVL616
ARM GAS  C:\Users\jo\AppData\Local\Temp\ccpKXchH.s 			page 364


 20279 22e9 08030000 		.4byte	.LVL617
 20280 22ed 0400     		.2byte	0x4
 20281 22ef F3       		.byte	0xf3
 20282 22f0 01       		.uleb128 0x1
 20283 22f1 52       		.byte	0x52
 20284 22f2 9F       		.byte	0x9f
 20285 22f3 08030000 		.4byte	.LVL617
 20286 22f7 18040000 		.4byte	.LFE274
 20287 22fb 0100     		.2byte	0x1
 20288 22fd 56       		.byte	0x56
 20289 22fe 00000000 		.4byte	0
 20290 2302 00000000 		.4byte	0
 20291              	.LLST156:
 20292 2306 00000000 		.4byte	.LVL565
 20293 230a 1E000000 		.4byte	.LVL566
 20294 230e 0100     		.2byte	0x1
 20295 2310 53       		.byte	0x53
 20296 2311 1E000000 		.4byte	.LVL566
 20297 2315 84020000 		.4byte	.LVL608
 20298 2319 0100     		.2byte	0x1
 20299 231b 58       		.byte	0x58
 20300 231c 84020000 		.4byte	.LVL608
 20301 2320 88020000 		.4byte	.LVL609
 20302 2324 0100     		.2byte	0x1
 20303 2326 53       		.byte	0x53
 20304 2327 88020000 		.4byte	.LVL609
 20305 232b D8020000 		.4byte	.LVL616
 20306 232f 0100     		.2byte	0x1
 20307 2331 58       		.byte	0x58
 20308 2332 D8020000 		.4byte	.LVL616
 20309 2336 08030000 		.4byte	.LVL617
 20310 233a 0400     		.2byte	0x4
 20311 233c F3       		.byte	0xf3
 20312 233d 01       		.uleb128 0x1
 20313 233e 53       		.byte	0x53
 20314 233f 9F       		.byte	0x9f
 20315 2340 08030000 		.4byte	.LVL617
 20316 2344 18040000 		.4byte	.LFE274
 20317 2348 0100     		.2byte	0x1
 20318 234a 58       		.byte	0x58
 20319 234b 00000000 		.4byte	0
 20320 234f 00000000 		.4byte	0
 20321              	.LLST157:
 20322 2353 00000000 		.4byte	.LVL565
 20323 2357 00020000 		.4byte	.LVL597
 20324 235b 0200     		.2byte	0x2
 20325 235d 91       		.byte	0x91
 20326 235e 00       		.sleb128 0
 20327 235f 00020000 		.4byte	.LVL597
 20328 2363 D8020000 		.4byte	.LVL616
 20329 2367 0200     		.2byte	0x2
 20330 2369 91       		.byte	0x91
 20331 236a 00       		.sleb128 0
 20332 236b D8020000 		.4byte	.LVL616
 20333 236f 08030000 		.4byte	.LVL617
 20334 2373 0200     		.2byte	0x2
 20335 2375 7D       		.byte	0x7d
ARM GAS  C:\Users\jo\AppData\Local\Temp\ccpKXchH.s 			page 365


 20336 2376 00       		.sleb128 0
 20337 2377 08030000 		.4byte	.LVL617
 20338 237b 18040000 		.4byte	.LFE274
 20339 237f 0200     		.2byte	0x2
 20340 2381 91       		.byte	0x91
 20341 2382 00       		.sleb128 0
 20342 2383 00000000 		.4byte	0
 20343 2387 00000000 		.4byte	0
 20344              	.LLST158:
 20345 238b 00000000 		.4byte	.LVL565
 20346 238f DA000000 		.4byte	.LVL577
 20347 2393 0200     		.2byte	0x2
 20348 2395 30       		.byte	0x30
 20349 2396 9F       		.byte	0x9f
 20350 2397 EA000000 		.4byte	.LVL580
 20351 239b 72010000 		.4byte	.LVL589
 20352 239f 0200     		.2byte	0x2
 20353 23a1 30       		.byte	0x30
 20354 23a2 9F       		.byte	0x9f
 20355 23a3 72010000 		.4byte	.LVL589
 20356 23a7 78010000 		.4byte	.LVL591
 20357 23ab 0100     		.2byte	0x1
 20358 23ad 50       		.byte	0x50
 20359 23ae 00020000 		.4byte	.LVL597
 20360 23b2 18020000 		.4byte	.LVL601
 20361 23b6 0200     		.2byte	0x2
 20362 23b8 30       		.byte	0x30
 20363 23b9 9F       		.byte	0x9f
 20364 23ba 18020000 		.4byte	.LVL601
 20365 23be 7A020000 		.4byte	.LVL606
 20366 23c2 0300     		.2byte	0x3
 20367 23c4 91       		.byte	0x91
 20368 23c5 9C7F     		.sleb128 -100
 20369 23c7 84020000 		.4byte	.LVL608
 20370 23cb CE020000 		.4byte	.LVL615
 20371 23cf 0200     		.2byte	0x2
 20372 23d1 30       		.byte	0x30
 20373 23d2 9F       		.byte	0x9f
 20374 23d3 2A030000 		.4byte	.LVL621
 20375 23d7 58030000 		.4byte	.LVL627
 20376 23db 0200     		.2byte	0x2
 20377 23dd 30       		.byte	0x30
 20378 23de 9F       		.byte	0x9f
 20379 23df 58030000 		.4byte	.LVL627
 20380 23e3 5A030000 		.4byte	.LVL628
 20381 23e7 0100     		.2byte	0x1
 20382 23e9 50       		.byte	0x50
 20383 23ea 5A030000 		.4byte	.LVL628
 20384 23ee 60030000 		.4byte	.LVL629
 20385 23f2 0200     		.2byte	0x2
 20386 23f4 30       		.byte	0x30
 20387 23f5 9F       		.byte	0x9f
 20388 23f6 7E030000 		.4byte	.LVL632
 20389 23fa 84030000 		.4byte	.LVL633
 20390 23fe 0200     		.2byte	0x2
 20391 2400 30       		.byte	0x30
 20392 2401 9F       		.byte	0x9f
ARM GAS  C:\Users\jo\AppData\Local\Temp\ccpKXchH.s 			page 366


 20393 2402 84030000 		.4byte	.LVL633
 20394 2406 B8030000 		.4byte	.LVL636
 20395 240a 0300     		.2byte	0x3
 20396 240c 91       		.byte	0x91
 20397 240d 9C7F     		.sleb128 -100
 20398 240f B8030000 		.4byte	.LVL636
 20399 2413 F6030000 		.4byte	.LVL642
 20400 2417 0200     		.2byte	0x2
 20401 2419 30       		.byte	0x30
 20402 241a 9F       		.byte	0x9f
 20403 241b F6030000 		.4byte	.LVL642
 20404 241f 18040000 		.4byte	.LFE274
 20405 2423 0100     		.2byte	0x1
 20406 2425 50       		.byte	0x50
 20407 2426 00000000 		.4byte	0
 20408 242a 00000000 		.4byte	0
 20409              	.LLST159:
 20410 242e 5A000000 		.4byte	.LVL570
 20411 2432 72000000 		.4byte	.LVL571
 20412 2436 0100     		.2byte	0x1
 20413 2438 50       		.byte	0x50
 20414 2439 72000000 		.4byte	.LVL571
 20415 243d B2000000 		.4byte	.LVL574
 20416 2441 0100     		.2byte	0x1
 20417 2443 59       		.byte	0x59
 20418 2444 34010000 		.4byte	.LVL582
 20419 2448 54010000 		.4byte	.LVL584
 20420 244c 0100     		.2byte	0x1
 20421 244e 50       		.byte	0x50
 20422 244f 54010000 		.4byte	.LVL584
 20423 2453 76010000 		.4byte	.LVL590
 20424 2457 0100     		.2byte	0x1
 20425 2459 59       		.byte	0x59
 20426 245a C6010000 		.4byte	.LVL594
 20427 245e C8010000 		.4byte	.LVL595
 20428 2462 0100     		.2byte	0x1
 20429 2464 50       		.byte	0x50
 20430 2465 C8010000 		.4byte	.LVL595
 20431 2469 00020000 		.4byte	.LVL597
 20432 246d 0100     		.2byte	0x1
 20433 246f 59       		.byte	0x59
 20434 2470 00020000 		.4byte	.LVL597
 20435 2474 0E020000 		.4byte	.LVL598
 20436 2478 0100     		.2byte	0x1
 20437 247a 50       		.byte	0x50
 20438 247b 0E020000 		.4byte	.LVL598
 20439 247f 14020000 		.4byte	.LVL600
 20440 2483 0100     		.2byte	0x1
 20441 2485 59       		.byte	0x59
 20442 2486 14020000 		.4byte	.LVL600
 20443 248a 18020000 		.4byte	.LVL601
 20444 248e 0100     		.2byte	0x1
 20445 2490 50       		.byte	0x50
 20446 2491 C4020000 		.4byte	.LVL614
 20447 2495 CE020000 		.4byte	.LVL615
 20448 2499 0100     		.2byte	0x1
 20449 249b 50       		.byte	0x50
ARM GAS  C:\Users\jo\AppData\Local\Temp\ccpKXchH.s 			page 367


 20450 249c CE020000 		.4byte	.LVL615
 20451 24a0 D8020000 		.4byte	.LVL616
 20452 24a4 0100     		.2byte	0x1
 20453 24a6 59       		.byte	0x59
 20454 24a7 D8020000 		.4byte	.LVL616
 20455 24ab 08030000 		.4byte	.LVL617
 20456 24af 0100     		.2byte	0x1
 20457 24b1 50       		.byte	0x50
 20458 24b2 2A030000 		.4byte	.LVL621
 20459 24b6 42030000 		.4byte	.LVL623
 20460 24ba 0100     		.2byte	0x1
 20461 24bc 59       		.byte	0x59
 20462 24bd 42030000 		.4byte	.LVL623
 20463 24c1 50030000 		.4byte	.LVL625
 20464 24c5 0100     		.2byte	0x1
 20465 24c7 50       		.byte	0x50
 20466 24c8 50030000 		.4byte	.LVL625
 20467 24cc 5A030000 		.4byte	.LVL628
 20468 24d0 0100     		.2byte	0x1
 20469 24d2 59       		.byte	0x59
 20470 24d3 5A030000 		.4byte	.LVL628
 20471 24d7 60030000 		.4byte	.LVL629
 20472 24db 0100     		.2byte	0x1
 20473 24dd 50       		.byte	0x50
 20474 24de 7E030000 		.4byte	.LVL632
 20475 24e2 84030000 		.4byte	.LVL633
 20476 24e6 0100     		.2byte	0x1
 20477 24e8 59       		.byte	0x59
 20478 24e9 EC030000 		.4byte	.LVL639
 20479 24ed EE030000 		.4byte	.LVL640
 20480 24f1 0100     		.2byte	0x1
 20481 24f3 50       		.byte	0x50
 20482 24f4 EE030000 		.4byte	.LVL640
 20483 24f8 18040000 		.4byte	.LFE274
 20484 24fc 0100     		.2byte	0x1
 20485 24fe 59       		.byte	0x59
 20486 24ff 00000000 		.4byte	0
 20487 2503 00000000 		.4byte	0
 20488              	.LLST160:
 20489 2507 62010000 		.4byte	.LVL585
 20490 250b 64010000 		.4byte	.LVL586
 20491 250f 0100     		.2byte	0x1
 20492 2511 51       		.byte	0x51
 20493 2512 4E030000 		.4byte	.LVL624
 20494 2516 5A030000 		.4byte	.LVL628
 20495 251a 0200     		.2byte	0x2
 20496 251c 30       		.byte	0x30
 20497 251d 9F       		.byte	0x9f
 20498 251e EC030000 		.4byte	.LVL639
 20499 2522 18040000 		.4byte	.LFE274
 20500 2526 0200     		.2byte	0x2
 20501 2528 30       		.byte	0x30
 20502 2529 9F       		.byte	0x9f
 20503 252a 00000000 		.4byte	0
 20504 252e 00000000 		.4byte	0
 20505              	.LLST161:
 20506 2532 84000000 		.4byte	.LVL572
ARM GAS  C:\Users\jo\AppData\Local\Temp\ccpKXchH.s 			page 368


 20507 2536 B4000000 		.4byte	.LVL575
 20508 253a 0100     		.2byte	0x1
 20509 253c 50       		.byte	0x50
 20510 253d 2A030000 		.4byte	.LVL621
 20511 2541 38030000 		.4byte	.LVL622
 20512 2545 0100     		.2byte	0x1
 20513 2547 50       		.byte	0x50
 20514 2548 7E030000 		.4byte	.LVL632
 20515 254c 84030000 		.4byte	.LVL633
 20516 2550 0100     		.2byte	0x1
 20517 2552 50       		.byte	0x50
 20518 2553 00000000 		.4byte	0
 20519 2557 00000000 		.4byte	0
 20520              	.LLST162:
 20521 255b AA000000 		.4byte	.LVL573
 20522 255f B4000000 		.4byte	.LVL575
 20523 2563 0200     		.2byte	0x2
 20524 2565 30       		.byte	0x30
 20525 2566 9F       		.byte	0x9f
 20526 2567 B4000000 		.4byte	.LVL575
 20527 256b 42010000 		.4byte	.LVL583
 20528 256f 0100     		.2byte	0x1
 20529 2571 54       		.byte	0x54
 20530 2572 72010000 		.4byte	.LVL589
 20531 2576 78010000 		.4byte	.LVL591
 20532 257a 0200     		.2byte	0x2
 20533 257c 30       		.byte	0x30
 20534 257d 9F       		.byte	0x9f
 20535 257e 14020000 		.4byte	.LVL600
 20536 2582 18020000 		.4byte	.LVL601
 20537 2586 0100     		.2byte	0x1
 20538 2588 54       		.byte	0x54
 20539 2589 18020000 		.4byte	.LVL601
 20540 258d 1E020000 		.4byte	.LVL602
 20541 2591 0200     		.2byte	0x2
 20542 2593 30       		.byte	0x30
 20543 2594 9F       		.byte	0x9f
 20544 2595 1E020000 		.4byte	.LVL602
 20545 2599 7A020000 		.4byte	.LVL606
 20546 259d 0100     		.2byte	0x1
 20547 259f 54       		.byte	0x54
 20548 25a0 2A030000 		.4byte	.LVL621
 20549 25a4 60030000 		.4byte	.LVL629
 20550 25a8 0200     		.2byte	0x2
 20551 25aa 30       		.byte	0x30
 20552 25ab 9F       		.byte	0x9f
 20553 25ac 84030000 		.4byte	.LVL633
 20554 25b0 F6030000 		.4byte	.LVL642
 20555 25b4 0100     		.2byte	0x1
 20556 25b6 54       		.byte	0x54
 20557 25b7 F6030000 		.4byte	.LVL642
 20558 25bb 18040000 		.4byte	.LFE274
 20559 25bf 0200     		.2byte	0x2
 20560 25c1 30       		.byte	0x30
 20561 25c2 9F       		.byte	0x9f
 20562 25c3 00000000 		.4byte	0
 20563 25c7 00000000 		.4byte	0
ARM GAS  C:\Users\jo\AppData\Local\Temp\ccpKXchH.s 			page 369


 20564              	.LLST163:
 20565 25cb C6000000 		.4byte	.LVL576
 20566 25cf DA000000 		.4byte	.LVL577
 20567 25d3 0100     		.2byte	0x1
 20568 25d5 54       		.byte	0x54
 20569 25d6 B8030000 		.4byte	.LVL636
 20570 25da EC030000 		.4byte	.LVL639
 20571 25de 0100     		.2byte	0x1
 20572 25e0 54       		.byte	0x54
 20573 25e1 00000000 		.4byte	0
 20574 25e5 00000000 		.4byte	0
 20575              	.LLST164:
 20576 25e9 E4030000 		.4byte	.LVL637
 20577 25ed EC030000 		.4byte	.LVL639
 20578 25f1 0600     		.2byte	0x6
 20579 25f3 03       		.byte	0x3
 20580 25f4 9C0A0000 		.4byte	.LC78
 20581 25f8 9F       		.byte	0x9f
 20582 25f9 00000000 		.4byte	0
 20583 25fd 00000000 		.4byte	0
 20584              	.LLST165:
 20585 2601 DE000000 		.4byte	.LVL578
 20586 2605 EA000000 		.4byte	.LVL580
 20587 2609 0600     		.2byte	0x6
 20588 260b 03       		.byte	0x3
 20589 260c 3C0B0000 		.4byte	.LC84
 20590 2610 9F       		.byte	0x9f
 20591 2611 00000000 		.4byte	0
 20592 2615 00000000 		.4byte	0
 20593              	.LLST166:
 20594 2619 30020000 		.4byte	.LVL603
 20595 261d 46020000 		.4byte	.LVL604
 20596 2621 0100     		.2byte	0x1
 20597 2623 54       		.byte	0x54
 20598 2624 84030000 		.4byte	.LVL633
 20599 2628 B8030000 		.4byte	.LVL636
 20600 262c 0100     		.2byte	0x1
 20601 262e 54       		.byte	0x54
 20602 262f 00000000 		.4byte	0
 20603 2633 00000000 		.4byte	0
 20604              	.LLST167:
 20605 2637 B0030000 		.4byte	.LVL634
 20606 263b B8030000 		.4byte	.LVL636
 20607 263f 0600     		.2byte	0x6
 20608 2641 03       		.byte	0x3
 20609 2642 B80A0000 		.4byte	.LC79
 20610 2646 9F       		.byte	0x9f
 20611 2647 00000000 		.4byte	0
 20612 264b 00000000 		.4byte	0
 20613              	.LLST168:
 20614 264f 1C030000 		.4byte	.LVL618
 20615 2653 24030000 		.4byte	.LVL620
 20616 2657 0600     		.2byte	0x6
 20617 2659 03       		.byte	0x3
 20618 265a D40A0000 		.4byte	.LC80
 20619 265e 9F       		.byte	0x9f
 20620 265f 00000000 		.4byte	0
ARM GAS  C:\Users\jo\AppData\Local\Temp\ccpKXchH.s 			page 370


 20621 2663 00000000 		.4byte	0
 20622              	.LLST169:
 20623 2667 72030000 		.4byte	.LVL630
 20624 266b 7E030000 		.4byte	.LVL632
 20625 266f 0600     		.2byte	0x6
 20626 2671 03       		.byte	0x3
 20627 2672 EC0A0000 		.4byte	.LC81
 20628 2676 9F       		.byte	0x9f
 20629 2677 00000000 		.4byte	0
 20630 267b 00000000 		.4byte	0
 20631              	.LLST170:
 20632 267f 00000000 		.4byte	.LVL643
 20633 2683 0C000000 		.4byte	.LVL644
 20634 2687 0100     		.2byte	0x1
 20635 2689 50       		.byte	0x50
 20636 268a 0C000000 		.4byte	.LVL644
 20637 268e 11000000 		.4byte	.LVL646-1
 20638 2692 0100     		.2byte	0x1
 20639 2694 52       		.byte	0x52
 20640 2695 11000000 		.4byte	.LVL646-1
 20641 2699 1A000000 		.4byte	.LVL648
 20642 269d 0100     		.2byte	0x1
 20643 269f 54       		.byte	0x54
 20644 26a0 1A000000 		.4byte	.LVL648
 20645 26a4 84000000 		.4byte	.LFE276
 20646 26a8 0400     		.2byte	0x4
 20647 26aa F3       		.byte	0xf3
 20648 26ab 01       		.uleb128 0x1
 20649 26ac 50       		.byte	0x50
 20650 26ad 9F       		.byte	0x9f
 20651 26ae 00000000 		.4byte	0
 20652 26b2 00000000 		.4byte	0
 20653              	.LLST171:
 20654 26b6 00000000 		.4byte	.LVL643
 20655 26ba 0E000000 		.4byte	.LVL645
 20656 26be 0100     		.2byte	0x1
 20657 26c0 51       		.byte	0x51
 20658 26c1 0E000000 		.4byte	.LVL645
 20659 26c5 11000000 		.4byte	.LVL646-1
 20660 26c9 0100     		.2byte	0x1
 20661 26cb 53       		.byte	0x53
 20662 26cc 11000000 		.4byte	.LVL646-1
 20663 26d0 76000000 		.4byte	.LVL659
 20664 26d4 0100     		.2byte	0x1
 20665 26d6 55       		.byte	0x55
 20666 26d7 76000000 		.4byte	.LVL659
 20667 26db 84000000 		.4byte	.LFE276
 20668 26df 0400     		.2byte	0x4
 20669 26e1 F3       		.byte	0xf3
 20670 26e2 01       		.uleb128 0x1
 20671 26e3 51       		.byte	0x51
 20672 26e4 9F       		.byte	0x9f
 20673 26e5 00000000 		.4byte	0
 20674 26e9 00000000 		.4byte	0
 20675              	.LLST172:
 20676 26ed 18000000 		.4byte	.LVL647
 20677 26f1 1E000000 		.4byte	.LVL649
ARM GAS  C:\Users\jo\AppData\Local\Temp\ccpKXchH.s 			page 371


 20678 26f5 0100     		.2byte	0x1
 20679 26f7 50       		.byte	0x50
 20680 26f8 1E000000 		.4byte	.LVL649
 20681 26fc 70000000 		.4byte	.LVL657
 20682 2700 0100     		.2byte	0x1
 20683 2702 54       		.byte	0x54
 20684 2703 70000000 		.4byte	.LVL657
 20685 2707 74000000 		.4byte	.LVL658
 20686 270b 0100     		.2byte	0x1
 20687 270d 50       		.byte	0x50
 20688 270e 74000000 		.4byte	.LVL658
 20689 2712 76000000 		.4byte	.LVL659
 20690 2716 0100     		.2byte	0x1
 20691 2718 54       		.byte	0x54
 20692 2719 00000000 		.4byte	0
 20693 271d 00000000 		.4byte	0
 20694              	.LLST173:
 20695 2721 4A000000 		.4byte	.LVL654
 20696 2725 5C000000 		.4byte	.LVL655
 20697 2729 0100     		.2byte	0x1
 20698 272b 50       		.byte	0x50
 20699 272c 00000000 		.4byte	0
 20700 2730 00000000 		.4byte	0
 20701              	.LLST174:
 20702 2734 00000000 		.4byte	.LVL643
 20703 2738 46000000 		.4byte	.LVL653
 20704 273c 0200     		.2byte	0x2
 20705 273e 30       		.byte	0x30
 20706 273f 9F       		.byte	0x9f
 20707 2740 46000000 		.4byte	.LVL653
 20708 2744 49000000 		.4byte	.LVL654-1
 20709 2748 0100     		.2byte	0x1
 20710 274a 51       		.byte	0x51
 20711 274b 64000000 		.4byte	.LVL656
 20712 274f 84000000 		.4byte	.LFE276
 20713 2753 0200     		.2byte	0x2
 20714 2755 30       		.byte	0x30
 20715 2756 9F       		.byte	0x9f
 20716 2757 00000000 		.4byte	0
 20717 275b 00000000 		.4byte	0
 20718              	.LLST175:
 20719 275f 00000000 		.4byte	.LVL643
 20720 2763 46000000 		.4byte	.LVL653
 20721 2767 0200     		.2byte	0x2
 20722 2769 30       		.byte	0x30
 20723 276a 9F       		.byte	0x9f
 20724 276b 46000000 		.4byte	.LVL653
 20725 276f 49000000 		.4byte	.LVL654-1
 20726 2773 0100     		.2byte	0x1
 20727 2775 52       		.byte	0x52
 20728 2776 64000000 		.4byte	.LVL656
 20729 277a 84000000 		.4byte	.LFE276
 20730 277e 0200     		.2byte	0x2
 20731 2780 30       		.byte	0x30
 20732 2781 9F       		.byte	0x9f
 20733 2782 00000000 		.4byte	0
 20734 2786 00000000 		.4byte	0
ARM GAS  C:\Users\jo\AppData\Local\Temp\ccpKXchH.s 			page 372


 20735              	.LLST176:
 20736 278a 00000000 		.4byte	.LVL660
 20737 278e 05000000 		.4byte	.LVL661-1
 20738 2792 0100     		.2byte	0x1
 20739 2794 50       		.byte	0x50
 20740 2795 05000000 		.4byte	.LVL661-1
 20741 2799 06000000 		.4byte	.LFE278
 20742 279d 0400     		.2byte	0x4
 20743 279f F3       		.byte	0xf3
 20744 27a0 01       		.uleb128 0x1
 20745 27a1 50       		.byte	0x50
 20746 27a2 9F       		.byte	0x9f
 20747 27a3 00000000 		.4byte	0
 20748 27a7 00000000 		.4byte	0
 20749              	.LLST177:
 20750 27ab 00000000 		.4byte	.LVL660
 20751 27af 05000000 		.4byte	.LVL661-1
 20752 27b3 0100     		.2byte	0x1
 20753 27b5 51       		.byte	0x51
 20754 27b6 05000000 		.4byte	.LVL661-1
 20755 27ba 06000000 		.4byte	.LFE278
 20756 27be 0400     		.2byte	0x4
 20757 27c0 F3       		.byte	0xf3
 20758 27c1 01       		.uleb128 0x1
 20759 27c2 51       		.byte	0x51
 20760 27c3 9F       		.byte	0x9f
 20761 27c4 00000000 		.4byte	0
 20762 27c8 00000000 		.4byte	0
 20763              	.LLST178:
 20764 27cc 00000000 		.4byte	.LVL660
 20765 27d0 05000000 		.4byte	.LVL661-1
 20766 27d4 0100     		.2byte	0x1
 20767 27d6 52       		.byte	0x52
 20768 27d7 05000000 		.4byte	.LVL661-1
 20769 27db 06000000 		.4byte	.LFE278
 20770 27df 0400     		.2byte	0x4
 20771 27e1 F3       		.byte	0xf3
 20772 27e2 01       		.uleb128 0x1
 20773 27e3 52       		.byte	0x52
 20774 27e4 9F       		.byte	0x9f
 20775 27e5 00000000 		.4byte	0
 20776 27e9 00000000 		.4byte	0
 20777              	.LLST179:
 20778 27ed 00000000 		.4byte	.LVL662
 20779 27f1 05000000 		.4byte	.LVL663-1
 20780 27f5 0100     		.2byte	0x1
 20781 27f7 50       		.byte	0x50
 20782 27f8 05000000 		.4byte	.LVL663-1
 20783 27fc 06000000 		.4byte	.LFE279
 20784 2800 0400     		.2byte	0x4
 20785 2802 F3       		.byte	0xf3
 20786 2803 01       		.uleb128 0x1
 20787 2804 50       		.byte	0x50
 20788 2805 9F       		.byte	0x9f
 20789 2806 00000000 		.4byte	0
 20790 280a 00000000 		.4byte	0
 20791              	.LLST180:
ARM GAS  C:\Users\jo\AppData\Local\Temp\ccpKXchH.s 			page 373


 20792 280e 00000000 		.4byte	.LVL662
 20793 2812 05000000 		.4byte	.LVL663-1
 20794 2816 0100     		.2byte	0x1
 20795 2818 51       		.byte	0x51
 20796 2819 05000000 		.4byte	.LVL663-1
 20797 281d 06000000 		.4byte	.LFE279
 20798 2821 0400     		.2byte	0x4
 20799 2823 F3       		.byte	0xf3
 20800 2824 01       		.uleb128 0x1
 20801 2825 51       		.byte	0x51
 20802 2826 9F       		.byte	0x9f
 20803 2827 00000000 		.4byte	0
 20804 282b 00000000 		.4byte	0
 20805              	.LLST181:
 20806 282f 00000000 		.4byte	.LVL662
 20807 2833 05000000 		.4byte	.LVL663-1
 20808 2837 0100     		.2byte	0x1
 20809 2839 52       		.byte	0x52
 20810 283a 05000000 		.4byte	.LVL663-1
 20811 283e 06000000 		.4byte	.LFE279
 20812 2842 0400     		.2byte	0x4
 20813 2844 F3       		.byte	0xf3
 20814 2845 01       		.uleb128 0x1
 20815 2846 52       		.byte	0x52
 20816 2847 9F       		.byte	0x9f
 20817 2848 00000000 		.4byte	0
 20818 284c 00000000 		.4byte	0
 20819              	.LLST182:
 20820 2850 00000000 		.4byte	.LVL664
 20821 2854 13000000 		.4byte	.LVL665-1
 20822 2858 0100     		.2byte	0x1
 20823 285a 50       		.byte	0x50
 20824 285b 13000000 		.4byte	.LVL665-1
 20825 285f 64010000 		.4byte	.LFE280
 20826 2863 0100     		.2byte	0x1
 20827 2865 5A       		.byte	0x5a
 20828 2866 00000000 		.4byte	0
 20829 286a 00000000 		.4byte	0
 20830              	.LLST183:
 20831 286e 00000000 		.4byte	.LVL664
 20832 2872 13000000 		.4byte	.LVL665-1
 20833 2876 0100     		.2byte	0x1
 20834 2878 51       		.byte	0x51
 20835 2879 13000000 		.4byte	.LVL665-1
 20836 287d 64010000 		.4byte	.LFE280
 20837 2881 0100     		.2byte	0x1
 20838 2883 55       		.byte	0x55
 20839 2884 00000000 		.4byte	0
 20840 2888 00000000 		.4byte	0
 20841              	.LLST184:
 20842 288c 00000000 		.4byte	.LVL664
 20843 2890 13000000 		.4byte	.LVL665-1
 20844 2894 0100     		.2byte	0x1
 20845 2896 52       		.byte	0x52
 20846 2897 13000000 		.4byte	.LVL665-1
 20847 289b 64010000 		.4byte	.LFE280
 20848 289f 0100     		.2byte	0x1
ARM GAS  C:\Users\jo\AppData\Local\Temp\ccpKXchH.s 			page 374


 20849 28a1 57       		.byte	0x57
 20850 28a2 00000000 		.4byte	0
 20851 28a6 00000000 		.4byte	0
 20852              	.LLST185:
 20853 28aa 00000000 		.4byte	.LVL664
 20854 28ae 13000000 		.4byte	.LVL665-1
 20855 28b2 0100     		.2byte	0x1
 20856 28b4 53       		.byte	0x53
 20857 28b5 13000000 		.4byte	.LVL665-1
 20858 28b9 64010000 		.4byte	.LFE280
 20859 28bd 0100     		.2byte	0x1
 20860 28bf 58       		.byte	0x58
 20861 28c0 00000000 		.4byte	0
 20862 28c4 00000000 		.4byte	0
 20863              	.LLST186:
 20864 28c8 00000000 		.4byte	.LVL664
 20865 28cc 54000000 		.4byte	.LVL669
 20866 28d0 0200     		.2byte	0x2
 20867 28d2 91       		.byte	0x91
 20868 28d3 00       		.sleb128 0
 20869 28d4 54000000 		.4byte	.LVL669
 20870 28d8 64010000 		.4byte	.LFE280
 20871 28dc 0200     		.2byte	0x2
 20872 28de 91       		.byte	0x91
 20873 28df 00       		.sleb128 0
 20874 28e0 00000000 		.4byte	0
 20875 28e4 00000000 		.4byte	0
 20876              	.LLST187:
 20877 28e8 00000000 		.4byte	.LVL664
 20878 28ec 46000000 		.4byte	.LVL667
 20879 28f0 0200     		.2byte	0x2
 20880 28f2 30       		.byte	0x30
 20881 28f3 9F       		.byte	0x9f
 20882 28f4 46000000 		.4byte	.LVL667
 20883 28f8 48000000 		.4byte	.LVL668
 20884 28fc 0300     		.2byte	0x3
 20885 28fe 08       		.byte	0x8
 20886 28ff 5C       		.byte	0x5c
 20887 2900 9F       		.byte	0x9f
 20888 2901 54000000 		.4byte	.LVL669
 20889 2905 80000000 		.4byte	.LVL670
 20890 2909 0200     		.2byte	0x2
 20891 290b 30       		.byte	0x30
 20892 290c 9F       		.byte	0x9f
 20893 290d 80000000 		.4byte	.LVL670
 20894 2911 86000000 		.4byte	.LVL671
 20895 2915 0100     		.2byte	0x1
 20896 2917 53       		.byte	0x53
 20897 2918 86000000 		.4byte	.LVL671
 20898 291c 88000000 		.4byte	.LVL672
 20899 2920 2A00     		.2byte	0x2a
 20900 2922 46       		.byte	0x46
 20901 2923 30       		.byte	0x30
 20902 2924 76       		.byte	0x76
 20903 2925 00       		.sleb128 0
 20904 2926 06       		.byte	0x6
 20905 2927 76       		.byte	0x76
ARM GAS  C:\Users\jo\AppData\Local\Temp\ccpKXchH.s 			page 375


 20906 2928 00       		.sleb128 0
 20907 2929 06       		.byte	0x6
 20908 292a 40       		.byte	0x40
 20909 292b 4B       		.byte	0x4b
 20910 292c 24       		.byte	0x24
 20911 292d 22       		.byte	0x22
 20912 292e 0C       		.byte	0xc
 20913 292f 03000080 		.4byte	0x80000003
 20914 2933 2B       		.byte	0x2b
 20915 2934 28       		.byte	0x28
 20916 2935 0100     		.2byte	0x1
 20917 2937 16       		.byte	0x16
 20918 2938 13       		.byte	0x13
 20919 2939 76       		.byte	0x76
 20920 293a 00       		.sleb128 0
 20921 293b 06       		.byte	0x6
 20922 293c 40       		.byte	0x40
 20923 293d 4B       		.byte	0x4b
 20924 293e 24       		.byte	0x24
 20925 293f 22       		.byte	0x22
 20926 2940 0C       		.byte	0xc
 20927 2941 03000080 		.4byte	0x80000003
 20928 2945 2C       		.byte	0x2c
 20929 2946 28       		.byte	0x28
 20930 2947 0100     		.2byte	0x1
 20931 2949 16       		.byte	0x16
 20932 294a 13       		.byte	0x13
 20933 294b 9F       		.byte	0x9f
 20934 294c 88000000 		.4byte	.LVL672
 20935 2950 96000000 		.4byte	.LVL673
 20936 2954 0200     		.2byte	0x2
 20937 2956 30       		.byte	0x30
 20938 2957 9F       		.byte	0x9f
 20939 2958 C4000000 		.4byte	.LVL676
 20940 295c CA000000 		.4byte	.LVL677
 20941 2960 0200     		.2byte	0x2
 20942 2962 91       		.byte	0x91
 20943 2963 5C       		.sleb128 -36
 20944 2964 CA000000 		.4byte	.LVL677
 20945 2968 CE000000 		.4byte	.LVL678
 20946 296c 0100     		.2byte	0x1
 20947 296e 50       		.byte	0x50
 20948 296f CE000000 		.4byte	.LVL678
 20949 2973 DA000000 		.4byte	.LVL679
 20950 2977 0200     		.2byte	0x2
 20951 2979 74       		.byte	0x74
 20952 297a 10       		.sleb128 16
 20953 297b DA000000 		.4byte	.LVL679
 20954 297f 00010000 		.4byte	.LVL683
 20955 2983 0200     		.2byte	0x2
 20956 2985 30       		.byte	0x30
 20957 2986 9F       		.byte	0x9f
 20958 2987 00010000 		.4byte	.LVL683
 20959 298b 04010000 		.4byte	.LVL684
 20960 298f 0300     		.2byte	0x3
 20961 2991 08       		.byte	0x8
 20962 2992 5C       		.byte	0x5c
ARM GAS  C:\Users\jo\AppData\Local\Temp\ccpKXchH.s 			page 376


 20963 2993 9F       		.byte	0x9f
 20964 2994 04010000 		.4byte	.LVL684
 20965 2998 10010000 		.4byte	.LVL686
 20966 299c 0200     		.2byte	0x2
 20967 299e 30       		.byte	0x30
 20968 299f 9F       		.byte	0x9f
 20969 29a0 10010000 		.4byte	.LVL686
 20970 29a4 14010000 		.4byte	.LVL687
 20971 29a8 0300     		.2byte	0x3
 20972 29aa 08       		.byte	0x8
 20973 29ab 5C       		.byte	0x5c
 20974 29ac 9F       		.byte	0x9f
 20975 29ad 14010000 		.4byte	.LVL687
 20976 29b1 26010000 		.4byte	.LVL689
 20977 29b5 0200     		.2byte	0x2
 20978 29b7 30       		.byte	0x30
 20979 29b8 9F       		.byte	0x9f
 20980 29b9 26010000 		.4byte	.LVL689
 20981 29bd 2A010000 		.4byte	.LVL690
 20982 29c1 0300     		.2byte	0x3
 20983 29c3 08       		.byte	0x8
 20984 29c4 5C       		.byte	0x5c
 20985 29c5 9F       		.byte	0x9f
 20986 29c6 2A010000 		.4byte	.LVL690
 20987 29ca 38010000 		.4byte	.LVL691
 20988 29ce 0100     		.2byte	0x1
 20989 29d0 53       		.byte	0x53
 20990 29d1 38010000 		.4byte	.LVL691
 20991 29d5 3A010000 		.4byte	.LVL692
 20992 29d9 2A00     		.2byte	0x2a
 20993 29db 46       		.byte	0x46
 20994 29dc 30       		.byte	0x30
 20995 29dd 76       		.byte	0x76
 20996 29de 00       		.sleb128 0
 20997 29df 06       		.byte	0x6
 20998 29e0 76       		.byte	0x76
 20999 29e1 00       		.sleb128 0
 21000 29e2 06       		.byte	0x6
 21001 29e3 40       		.byte	0x40
 21002 29e4 4B       		.byte	0x4b
 21003 29e5 24       		.byte	0x24
 21004 29e6 22       		.byte	0x22
 21005 29e7 0C       		.byte	0xc
 21006 29e8 03000080 		.4byte	0x80000003
 21007 29ec 2B       		.byte	0x2b
 21008 29ed 28       		.byte	0x28
 21009 29ee 0100     		.2byte	0x1
 21010 29f0 16       		.byte	0x16
 21011 29f1 13       		.byte	0x13
 21012 29f2 76       		.byte	0x76
 21013 29f3 00       		.sleb128 0
 21014 29f4 06       		.byte	0x6
 21015 29f5 40       		.byte	0x40
 21016 29f6 4B       		.byte	0x4b
 21017 29f7 24       		.byte	0x24
 21018 29f8 22       		.byte	0x22
 21019 29f9 0C       		.byte	0xc
ARM GAS  C:\Users\jo\AppData\Local\Temp\ccpKXchH.s 			page 377


 21020 29fa 03000080 		.4byte	0x80000003
 21021 29fe 2C       		.byte	0x2c
 21022 29ff 28       		.byte	0x28
 21023 2a00 0100     		.2byte	0x1
 21024 2a02 16       		.byte	0x16
 21025 2a03 13       		.byte	0x13
 21026 2a04 9F       		.byte	0x9f
 21027 2a05 3A010000 		.4byte	.LVL692
 21028 2a09 64010000 		.4byte	.LFE280
 21029 2a0d 0200     		.2byte	0x2
 21030 2a0f 30       		.byte	0x30
 21031 2a10 9F       		.byte	0x9f
 21032 2a11 00000000 		.4byte	0
 21033 2a15 00000000 		.4byte	0
 21034              	.LLST188:
 21035 2a19 14000000 		.4byte	.LVL665
 21036 2a1d 40000000 		.4byte	.LVL666
 21037 2a21 0100     		.2byte	0x1
 21038 2a23 50       		.byte	0x50
 21039 2a24 40000000 		.4byte	.LVL666
 21040 2a28 54000000 		.4byte	.LVL669
 21041 2a2c 0100     		.2byte	0x1
 21042 2a2e 54       		.byte	0x54
 21043 2a2f 54000000 		.4byte	.LVL669
 21044 2a33 A2000000 		.4byte	.LVL674
 21045 2a37 0100     		.2byte	0x1
 21046 2a39 50       		.byte	0x50
 21047 2a3a A2000000 		.4byte	.LVL674
 21048 2a3e DA000000 		.4byte	.LVL679
 21049 2a42 0100     		.2byte	0x1
 21050 2a44 54       		.byte	0x54
 21051 2a45 DA000000 		.4byte	.LVL679
 21052 2a49 EA000000 		.4byte	.LVL680
 21053 2a4d 0100     		.2byte	0x1
 21054 2a4f 50       		.byte	0x50
 21055 2a50 EA000000 		.4byte	.LVL680
 21056 2a54 EC000000 		.4byte	.LVL681
 21057 2a58 0100     		.2byte	0x1
 21058 2a5a 54       		.byte	0x54
 21059 2a5b EC000000 		.4byte	.LVL681
 21060 2a5f FA000000 		.4byte	.LVL682
 21061 2a63 0100     		.2byte	0x1
 21062 2a65 50       		.byte	0x50
 21063 2a66 FA000000 		.4byte	.LVL682
 21064 2a6a 04010000 		.4byte	.LVL684
 21065 2a6e 0100     		.2byte	0x1
 21066 2a70 54       		.byte	0x54
 21067 2a71 04010000 		.4byte	.LVL684
 21068 2a75 0A010000 		.4byte	.LVL685
 21069 2a79 0100     		.2byte	0x1
 21070 2a7b 50       		.byte	0x50
 21071 2a7c 0A010000 		.4byte	.LVL685
 21072 2a80 14010000 		.4byte	.LVL687
 21073 2a84 0100     		.2byte	0x1
 21074 2a86 54       		.byte	0x54
 21075 2a87 14010000 		.4byte	.LVL687
 21076 2a8b 20010000 		.4byte	.LVL688
ARM GAS  C:\Users\jo\AppData\Local\Temp\ccpKXchH.s 			page 378


 21077 2a8f 0100     		.2byte	0x1
 21078 2a91 50       		.byte	0x50
 21079 2a92 20010000 		.4byte	.LVL688
 21080 2a96 2A010000 		.4byte	.LVL690
 21081 2a9a 0100     		.2byte	0x1
 21082 2a9c 54       		.byte	0x54
 21083 2a9d 2A010000 		.4byte	.LVL690
 21084 2aa1 42010000 		.4byte	.LVL693
 21085 2aa5 0100     		.2byte	0x1
 21086 2aa7 50       		.byte	0x50
 21087 2aa8 42010000 		.4byte	.LVL693
 21088 2aac 44010000 		.4byte	.LVL694
 21089 2ab0 0100     		.2byte	0x1
 21090 2ab2 54       		.byte	0x54
 21091 2ab3 44010000 		.4byte	.LVL694
 21092 2ab7 48010000 		.4byte	.LVL695
 21093 2abb 0100     		.2byte	0x1
 21094 2abd 50       		.byte	0x50
 21095 2abe 48010000 		.4byte	.LVL695
 21096 2ac2 64010000 		.4byte	.LFE280
 21097 2ac6 0100     		.2byte	0x1
 21098 2ac8 54       		.byte	0x54
 21099 2ac9 00000000 		.4byte	0
 21100 2acd 00000000 		.4byte	0
 21101              	.LLST189:
 21102 2ad1 00000000 		.4byte	.LVL696
 21103 2ad5 11000000 		.4byte	.LVL697-1
 21104 2ad9 0100     		.2byte	0x1
 21105 2adb 50       		.byte	0x50
 21106 2adc 11000000 		.4byte	.LVL697-1
 21107 2ae0 40010000 		.4byte	.LFE282
 21108 2ae4 0100     		.2byte	0x1
 21109 2ae6 59       		.byte	0x59
 21110 2ae7 00000000 		.4byte	0
 21111 2aeb 00000000 		.4byte	0
 21112              	.LLST190:
 21113 2aef 00000000 		.4byte	.LVL696
 21114 2af3 11000000 		.4byte	.LVL697-1
 21115 2af7 0100     		.2byte	0x1
 21116 2af9 51       		.byte	0x51
 21117 2afa 11000000 		.4byte	.LVL697-1
 21118 2afe 40010000 		.4byte	.LFE282
 21119 2b02 0100     		.2byte	0x1
 21120 2b04 55       		.byte	0x55
 21121 2b05 00000000 		.4byte	0
 21122 2b09 00000000 		.4byte	0
 21123              	.LLST191:
 21124 2b0d 00000000 		.4byte	.LVL696
 21125 2b11 11000000 		.4byte	.LVL697-1
 21126 2b15 0100     		.2byte	0x1
 21127 2b17 52       		.byte	0x52
 21128 2b18 11000000 		.4byte	.LVL697-1
 21129 2b1c 40010000 		.4byte	.LFE282
 21130 2b20 0100     		.2byte	0x1
 21131 2b22 56       		.byte	0x56
 21132 2b23 00000000 		.4byte	0
 21133 2b27 00000000 		.4byte	0
ARM GAS  C:\Users\jo\AppData\Local\Temp\ccpKXchH.s 			page 379


 21134              	.LLST192:
 21135 2b2b 00000000 		.4byte	.LVL696
 21136 2b2f 11000000 		.4byte	.LVL697-1
 21137 2b33 0100     		.2byte	0x1
 21138 2b35 53       		.byte	0x53
 21139 2b36 11000000 		.4byte	.LVL697-1
 21140 2b3a 40010000 		.4byte	.LFE282
 21141 2b3e 0100     		.2byte	0x1
 21142 2b40 57       		.byte	0x57
 21143 2b41 00000000 		.4byte	0
 21144 2b45 00000000 		.4byte	0
 21145              	.LLST193:
 21146 2b49 00000000 		.4byte	.LVL696
 21147 2b4d 46000000 		.4byte	.LVL701
 21148 2b51 0200     		.2byte	0x2
 21149 2b53 91       		.byte	0x91
 21150 2b54 00       		.sleb128 0
 21151 2b55 46000000 		.4byte	.LVL701
 21152 2b59 7C000000 		.4byte	.LVL706
 21153 2b5d 0200     		.2byte	0x2
 21154 2b5f 91       		.byte	0x91
 21155 2b60 00       		.sleb128 0
 21156 2b61 7C000000 		.4byte	.LVL706
 21157 2b65 97000000 		.4byte	.LVL708-1
 21158 2b69 0200     		.2byte	0x2
 21159 2b6b 73       		.byte	0x73
 21160 2b6c 00       		.sleb128 0
 21161 2b6d 97000000 		.4byte	.LVL708-1
 21162 2b71 40010000 		.4byte	.LFE282
 21163 2b75 0200     		.2byte	0x2
 21164 2b77 91       		.byte	0x91
 21165 2b78 00       		.sleb128 0
 21166 2b79 00000000 		.4byte	0
 21167 2b7d 00000000 		.4byte	0
 21168              	.LLST194:
 21169 2b81 12000000 		.4byte	.LVL697
 21170 2b85 32000000 		.4byte	.LVL698
 21171 2b89 0100     		.2byte	0x1
 21172 2b8b 50       		.byte	0x50
 21173 2b8c 32000000 		.4byte	.LVL698
 21174 2b90 46000000 		.4byte	.LVL701
 21175 2b94 0100     		.2byte	0x1
 21176 2b96 54       		.byte	0x54
 21177 2b97 46000000 		.4byte	.LVL701
 21178 2b9b 5C000000 		.4byte	.LVL702
 21179 2b9f 0100     		.2byte	0x1
 21180 2ba1 50       		.byte	0x50
 21181 2ba2 5C000000 		.4byte	.LVL702
 21182 2ba6 66000000 		.4byte	.LVL704
 21183 2baa 0100     		.2byte	0x1
 21184 2bac 54       		.byte	0x54
 21185 2bad 66000000 		.4byte	.LVL704
 21186 2bb1 82000000 		.4byte	.LVL707
 21187 2bb5 0100     		.2byte	0x1
 21188 2bb7 50       		.byte	0x50
 21189 2bb8 82000000 		.4byte	.LVL707
 21190 2bbc B8000000 		.4byte	.LVL712
ARM GAS  C:\Users\jo\AppData\Local\Temp\ccpKXchH.s 			page 380


 21191 2bc0 0100     		.2byte	0x1
 21192 2bc2 54       		.byte	0x54
 21193 2bc3 B8000000 		.4byte	.LVL712
 21194 2bc7 C8000000 		.4byte	.LVL713
 21195 2bcb 0100     		.2byte	0x1
 21196 2bcd 50       		.byte	0x50
 21197 2bce C8000000 		.4byte	.LVL713
 21198 2bd2 CA000000 		.4byte	.LVL714
 21199 2bd6 0100     		.2byte	0x1
 21200 2bd8 54       		.byte	0x54
 21201 2bd9 CA000000 		.4byte	.LVL714
 21202 2bdd E6000000 		.4byte	.LVL718
 21203 2be1 0100     		.2byte	0x1
 21204 2be3 50       		.byte	0x50
 21205 2be4 E6000000 		.4byte	.LVL718
 21206 2be8 F0000000 		.4byte	.LVL720
 21207 2bec 0100     		.2byte	0x1
 21208 2bee 54       		.byte	0x54
 21209 2bef F0000000 		.4byte	.LVL720
 21210 2bf3 FC000000 		.4byte	.LVL721
 21211 2bf7 0100     		.2byte	0x1
 21212 2bf9 50       		.byte	0x50
 21213 2bfa FC000000 		.4byte	.LVL721
 21214 2bfe 06010000 		.4byte	.LVL723
 21215 2c02 0100     		.2byte	0x1
 21216 2c04 54       		.byte	0x54
 21217 2c05 06010000 		.4byte	.LVL723
 21218 2c09 1A010000 		.4byte	.LVL726
 21219 2c0d 0100     		.2byte	0x1
 21220 2c0f 50       		.byte	0x50
 21221 2c10 1A010000 		.4byte	.LVL726
 21222 2c14 1C010000 		.4byte	.LVL727
 21223 2c18 0100     		.2byte	0x1
 21224 2c1a 54       		.byte	0x54
 21225 2c1b 1C010000 		.4byte	.LVL727
 21226 2c1f 24010000 		.4byte	.LVL728
 21227 2c23 0100     		.2byte	0x1
 21228 2c25 50       		.byte	0x50
 21229 2c26 24010000 		.4byte	.LVL728
 21230 2c2a 40010000 		.4byte	.LFE282
 21231 2c2e 0100     		.2byte	0x1
 21232 2c30 54       		.byte	0x54
 21233 2c31 00000000 		.4byte	0
 21234 2c35 00000000 		.4byte	0
 21235              	.LLST195:
 21236 2c39 12000000 		.4byte	.LVL697
 21237 2c3d 38000000 		.4byte	.LVL699
 21238 2c41 0200     		.2byte	0x2
 21239 2c43 30       		.byte	0x30
 21240 2c44 9F       		.byte	0x9f
 21241 2c45 38000000 		.4byte	.LVL699
 21242 2c49 3A000000 		.4byte	.LVL700
 21243 2c4d 0300     		.2byte	0x3
 21244 2c4f 08       		.byte	0x8
 21245 2c50 5C       		.byte	0x5c
 21246 2c51 9F       		.byte	0x9f
 21247 2c52 46000000 		.4byte	.LVL701
ARM GAS  C:\Users\jo\AppData\Local\Temp\ccpKXchH.s 			page 381


 21248 2c56 62000000 		.4byte	.LVL703
 21249 2c5a 0200     		.2byte	0x2
 21250 2c5c 30       		.byte	0x30
 21251 2c5d 9F       		.byte	0x9f
 21252 2c5e 62000000 		.4byte	.LVL703
 21253 2c62 66000000 		.4byte	.LVL704
 21254 2c66 0300     		.2byte	0x3
 21255 2c68 08       		.byte	0x8
 21256 2c69 5C       		.byte	0x5c
 21257 2c6a 9F       		.byte	0x9f
 21258 2c6b 66000000 		.4byte	.LVL704
 21259 2c6f 74000000 		.4byte	.LVL705
 21260 2c73 0200     		.2byte	0x2
 21261 2c75 30       		.byte	0x30
 21262 2c76 9F       		.byte	0x9f
 21263 2c77 A2000000 		.4byte	.LVL709
 21264 2c7b A8000000 		.4byte	.LVL710
 21265 2c7f 0200     		.2byte	0x2
 21266 2c81 91       		.byte	0x91
 21267 2c82 5C       		.sleb128 -36
 21268 2c83 A8000000 		.4byte	.LVL710
 21269 2c87 AC000000 		.4byte	.LVL711
 21270 2c8b 0100     		.2byte	0x1
 21271 2c8d 50       		.byte	0x50
 21272 2c8e AC000000 		.4byte	.LVL711
 21273 2c92 B8000000 		.4byte	.LVL712
 21274 2c96 0200     		.2byte	0x2
 21275 2c98 74       		.byte	0x74
 21276 2c99 10       		.sleb128 16
 21277 2c9a B8000000 		.4byte	.LVL712
 21278 2c9e D8000000 		.4byte	.LVL715
 21279 2ca2 0200     		.2byte	0x2
 21280 2ca4 30       		.byte	0x30
 21281 2ca5 9F       		.byte	0x9f
 21282 2ca6 D8000000 		.4byte	.LVL715
 21283 2caa DE000000 		.4byte	.LVL716
 21284 2cae 0100     		.2byte	0x1
 21285 2cb0 53       		.byte	0x53
 21286 2cb1 DE000000 		.4byte	.LVL716
 21287 2cb5 E0000000 		.4byte	.LVL717
 21288 2cb9 2A00     		.2byte	0x2a
 21289 2cbb 46       		.byte	0x46
 21290 2cbc 30       		.byte	0x30
 21291 2cbd 91       		.byte	0x91
 21292 2cbe 00       		.sleb128 0
 21293 2cbf 06       		.byte	0x6
 21294 2cc0 91       		.byte	0x91
 21295 2cc1 00       		.sleb128 0
 21296 2cc2 06       		.byte	0x6
 21297 2cc3 40       		.byte	0x40
 21298 2cc4 4B       		.byte	0x4b
 21299 2cc5 24       		.byte	0x24
 21300 2cc6 22       		.byte	0x22
 21301 2cc7 0C       		.byte	0xc
 21302 2cc8 03000080 		.4byte	0x80000003
 21303 2ccc 2B       		.byte	0x2b
 21304 2ccd 28       		.byte	0x28
ARM GAS  C:\Users\jo\AppData\Local\Temp\ccpKXchH.s 			page 382


 21305 2cce 0100     		.2byte	0x1
 21306 2cd0 16       		.byte	0x16
 21307 2cd1 13       		.byte	0x13
 21308 2cd2 91       		.byte	0x91
 21309 2cd3 00       		.sleb128 0
 21310 2cd4 06       		.byte	0x6
 21311 2cd5 40       		.byte	0x40
 21312 2cd6 4B       		.byte	0x4b
 21313 2cd7 24       		.byte	0x24
 21314 2cd8 22       		.byte	0x22
 21315 2cd9 0C       		.byte	0xc
 21316 2cda 03000080 		.4byte	0x80000003
 21317 2cde 2C       		.byte	0x2c
 21318 2cdf 28       		.byte	0x28
 21319 2ce0 0100     		.2byte	0x1
 21320 2ce2 16       		.byte	0x16
 21321 2ce3 13       		.byte	0x13
 21322 2ce4 9F       		.byte	0x9f
 21323 2ce5 E0000000 		.4byte	.LVL717
 21324 2ce9 EC000000 		.4byte	.LVL719
 21325 2ced 0200     		.2byte	0x2
 21326 2cef 30       		.byte	0x30
 21327 2cf0 9F       		.byte	0x9f
 21328 2cf1 EC000000 		.4byte	.LVL719
 21329 2cf5 F0000000 		.4byte	.LVL720
 21330 2cf9 0300     		.2byte	0x3
 21331 2cfb 08       		.byte	0x8
 21332 2cfc 5C       		.byte	0x5c
 21333 2cfd 9F       		.byte	0x9f
 21334 2cfe F0000000 		.4byte	.LVL720
 21335 2d02 02010000 		.4byte	.LVL722
 21336 2d06 0200     		.2byte	0x2
 21337 2d08 30       		.byte	0x30
 21338 2d09 9F       		.byte	0x9f
 21339 2d0a 02010000 		.4byte	.LVL722
 21340 2d0e 06010000 		.4byte	.LVL723
 21341 2d12 0300     		.2byte	0x3
 21342 2d14 08       		.byte	0x8
 21343 2d15 5C       		.byte	0x5c
 21344 2d16 9F       		.byte	0x9f
 21345 2d17 06010000 		.4byte	.LVL723
 21346 2d1b 14010000 		.4byte	.LVL724
 21347 2d1f 0100     		.2byte	0x1
 21348 2d21 53       		.byte	0x53
 21349 2d22 14010000 		.4byte	.LVL724
 21350 2d26 16010000 		.4byte	.LVL725
 21351 2d2a 2A00     		.2byte	0x2a
 21352 2d2c 46       		.byte	0x46
 21353 2d2d 30       		.byte	0x30
 21354 2d2e 91       		.byte	0x91
 21355 2d2f 00       		.sleb128 0
 21356 2d30 06       		.byte	0x6
 21357 2d31 91       		.byte	0x91
 21358 2d32 00       		.sleb128 0
 21359 2d33 06       		.byte	0x6
 21360 2d34 40       		.byte	0x40
 21361 2d35 4B       		.byte	0x4b
ARM GAS  C:\Users\jo\AppData\Local\Temp\ccpKXchH.s 			page 383


 21362 2d36 24       		.byte	0x24
 21363 2d37 22       		.byte	0x22
 21364 2d38 0C       		.byte	0xc
 21365 2d39 03000080 		.4byte	0x80000003
 21366 2d3d 2B       		.byte	0x2b
 21367 2d3e 28       		.byte	0x28
 21368 2d3f 0100     		.2byte	0x1
 21369 2d41 16       		.byte	0x16
 21370 2d42 13       		.byte	0x13
 21371 2d43 91       		.byte	0x91
 21372 2d44 00       		.sleb128 0
 21373 2d45 06       		.byte	0x6
 21374 2d46 40       		.byte	0x40
 21375 2d47 4B       		.byte	0x4b
 21376 2d48 24       		.byte	0x24
 21377 2d49 22       		.byte	0x22
 21378 2d4a 0C       		.byte	0xc
 21379 2d4b 03000080 		.4byte	0x80000003
 21380 2d4f 2C       		.byte	0x2c
 21381 2d50 28       		.byte	0x28
 21382 2d51 0100     		.2byte	0x1
 21383 2d53 16       		.byte	0x16
 21384 2d54 13       		.byte	0x13
 21385 2d55 9F       		.byte	0x9f
 21386 2d56 16010000 		.4byte	.LVL725
 21387 2d5a 40010000 		.4byte	.LFE282
 21388 2d5e 0200     		.2byte	0x2
 21389 2d60 30       		.byte	0x30
 21390 2d61 9F       		.byte	0x9f
 21391 2d62 00000000 		.4byte	0
 21392 2d66 00000000 		.4byte	0
 21393              	.LLST196:
 21394 2d6a 00000000 		.4byte	.LVL729
 21395 2d6e 0D000000 		.4byte	.LVL730-1
 21396 2d72 0100     		.2byte	0x1
 21397 2d74 50       		.byte	0x50
 21398 2d75 0D000000 		.4byte	.LVL730-1
 21399 2d79 78000000 		.4byte	.LFE284
 21400 2d7d 0100     		.2byte	0x1
 21401 2d7f 57       		.byte	0x57
 21402 2d80 00000000 		.4byte	0
 21403 2d84 00000000 		.4byte	0
 21404              	.LLST197:
 21405 2d88 00000000 		.4byte	.LVL729
 21406 2d8c 0D000000 		.4byte	.LVL730-1
 21407 2d90 0100     		.2byte	0x1
 21408 2d92 51       		.byte	0x51
 21409 2d93 0D000000 		.4byte	.LVL730-1
 21410 2d97 78000000 		.4byte	.LFE284
 21411 2d9b 0100     		.2byte	0x1
 21412 2d9d 56       		.byte	0x56
 21413 2d9e 00000000 		.4byte	0
 21414 2da2 00000000 		.4byte	0
 21415              	.LLST198:
 21416 2da6 00000000 		.4byte	.LVL729
 21417 2daa 0D000000 		.4byte	.LVL730-1
 21418 2dae 0100     		.2byte	0x1
ARM GAS  C:\Users\jo\AppData\Local\Temp\ccpKXchH.s 			page 384


 21419 2db0 52       		.byte	0x52
 21420 2db1 0D000000 		.4byte	.LVL730-1
 21421 2db5 78000000 		.4byte	.LFE284
 21422 2db9 0100     		.2byte	0x1
 21423 2dbb 55       		.byte	0x55
 21424 2dbc 00000000 		.4byte	0
 21425 2dc0 00000000 		.4byte	0
 21426              	.LLST199:
 21427 2dc4 0E000000 		.4byte	.LVL730
 21428 2dc8 2E000000 		.4byte	.LVL733
 21429 2dcc 0100     		.2byte	0x1
 21430 2dce 50       		.byte	0x50
 21431 2dcf 2E000000 		.4byte	.LVL733
 21432 2dd3 3C000000 		.4byte	.LVL735
 21433 2dd7 0100     		.2byte	0x1
 21434 2dd9 54       		.byte	0x54
 21435 2dda 3C000000 		.4byte	.LVL735
 21436 2dde 52000000 		.4byte	.LVL737
 21437 2de2 0100     		.2byte	0x1
 21438 2de4 50       		.byte	0x50
 21439 2de5 52000000 		.4byte	.LVL737
 21440 2de9 62000000 		.4byte	.LVL739
 21441 2ded 0100     		.2byte	0x1
 21442 2def 54       		.byte	0x54
 21443 2df0 62000000 		.4byte	.LVL739
 21444 2df4 66000000 		.4byte	.LVL740
 21445 2df8 0100     		.2byte	0x1
 21446 2dfa 50       		.byte	0x50
 21447 2dfb 66000000 		.4byte	.LVL740
 21448 2dff 78000000 		.4byte	.LFE284
 21449 2e03 0100     		.2byte	0x1
 21450 2e05 54       		.byte	0x54
 21451 2e06 00000000 		.4byte	0
 21452 2e0a 00000000 		.4byte	0
 21453              	.LLST200:
 21454 2e0e 18000000 		.4byte	.LVL731
 21455 2e12 2A000000 		.4byte	.LVL732
 21456 2e16 0200     		.2byte	0x2
 21457 2e18 30       		.byte	0x30
 21458 2e19 9F       		.byte	0x9f
 21459 2e1a 3C000000 		.4byte	.LVL735
 21460 2e1e 4A000000 		.4byte	.LVL736
 21461 2e22 0200     		.2byte	0x2
 21462 2e24 31       		.byte	0x31
 21463 2e25 9F       		.byte	0x9f
 21464 2e26 00000000 		.4byte	0
 21465 2e2a 00000000 		.4byte	0
 21466              	.LLST201:
 21467 2e2e 00000000 		.4byte	.LVL741
 21468 2e32 0D000000 		.4byte	.LVL742-1
 21469 2e36 0100     		.2byte	0x1
 21470 2e38 50       		.byte	0x50
 21471 2e39 0D000000 		.4byte	.LVL742-1
 21472 2e3d 68000000 		.4byte	.LFE285
 21473 2e41 0100     		.2byte	0x1
 21474 2e43 56       		.byte	0x56
 21475 2e44 00000000 		.4byte	0
ARM GAS  C:\Users\jo\AppData\Local\Temp\ccpKXchH.s 			page 385


 21476 2e48 00000000 		.4byte	0
 21477              	.LLST202:
 21478 2e4c 00000000 		.4byte	.LVL741
 21479 2e50 0D000000 		.4byte	.LVL742-1
 21480 2e54 0100     		.2byte	0x1
 21481 2e56 51       		.byte	0x51
 21482 2e57 0D000000 		.4byte	.LVL742-1
 21483 2e5b 68000000 		.4byte	.LFE285
 21484 2e5f 0100     		.2byte	0x1
 21485 2e61 54       		.byte	0x54
 21486 2e62 00000000 		.4byte	0
 21487 2e66 00000000 		.4byte	0
 21488              	.LLST203:
 21489 2e6a 00000000 		.4byte	.LVL741
 21490 2e6e 0D000000 		.4byte	.LVL742-1
 21491 2e72 0100     		.2byte	0x1
 21492 2e74 52       		.byte	0x52
 21493 2e75 0D000000 		.4byte	.LVL742-1
 21494 2e79 68000000 		.4byte	.LFE285
 21495 2e7d 0100     		.2byte	0x1
 21496 2e7f 55       		.byte	0x55
 21497 2e80 00000000 		.4byte	0
 21498 2e84 00000000 		.4byte	0
 21499              	.LLST204:
 21500 2e88 0E000000 		.4byte	.LVL742
 21501 2e8c 24000000 		.4byte	.LVL743
 21502 2e90 0100     		.2byte	0x1
 21503 2e92 50       		.byte	0x50
 21504 2e93 32000000 		.4byte	.LVL745
 21505 2e97 36000000 		.4byte	.LVL746
 21506 2e9b 0100     		.2byte	0x1
 21507 2e9d 50       		.byte	0x50
 21508 2e9e 44000000 		.4byte	.LVL747
 21509 2ea2 46000000 		.4byte	.LVL748
 21510 2ea6 0100     		.2byte	0x1
 21511 2ea8 50       		.byte	0x50
 21512 2ea9 00000000 		.4byte	0
 21513 2ead 00000000 		.4byte	0
 21514              	.LLST205:
 21515 2eb1 0E000000 		.4byte	.LVL742
 21516 2eb5 4A000000 		.4byte	.LVL749
 21517 2eb9 0300     		.2byte	0x3
 21518 2ebb 09       		.byte	0x9
 21519 2ebc FF       		.byte	0xff
 21520 2ebd 9F       		.byte	0x9f
 21521 2ebe 4A000000 		.4byte	.LVL749
 21522 2ec2 4E000000 		.4byte	.LVL750
 21523 2ec6 0100     		.2byte	0x1
 21524 2ec8 50       		.byte	0x50
 21525 2ec9 4E000000 		.4byte	.LVL750
 21526 2ecd 68000000 		.4byte	.LFE285
 21527 2ed1 0300     		.2byte	0x3
 21528 2ed3 09       		.byte	0x9
 21529 2ed4 FF       		.byte	0xff
 21530 2ed5 9F       		.byte	0x9f
 21531 2ed6 00000000 		.4byte	0
 21532 2eda 00000000 		.4byte	0
ARM GAS  C:\Users\jo\AppData\Local\Temp\ccpKXchH.s 			page 386


 21533              		.section	.debug_aranges,"",%progbits
 21534 0000 FC000000 		.4byte	0xfc
 21535 0004 0200     		.2byte	0x2
 21536 0006 00000000 		.4byte	.Ldebug_info0
 21537 000a 04       		.byte	0x4
 21538 000b 00       		.byte	0
 21539 000c 0000     		.2byte	0
 21540 000e 0000     		.2byte	0
 21541 0010 00000000 		.4byte	.LFB259
 21542 0014 54000000 		.4byte	.LFE259-.LFB259
 21543 0018 00000000 		.4byte	.LFB287
 21544 001c 24000000 		.4byte	.LFE287-.LFB287
 21545 0020 00000000 		.4byte	.LFB283
 21546 0024 E0010000 		.4byte	.LFE283-.LFB283
 21547 0028 00000000 		.4byte	.LFB281
 21548 002c 54020000 		.4byte	.LFE281-.LFB281
 21549 0030 00000000 		.4byte	.LFB273
 21550 0034 98010000 		.4byte	.LFE273-.LFB273
 21551 0038 00000000 		.4byte	.LFB257
 21552 003c 44000000 		.4byte	.LFE257-.LFB257
 21553 0040 00000000 		.4byte	.LFB275
 21554 0044 0C010000 		.4byte	.LFE275-.LFB275
 21555 0048 00000000 		.4byte	.LFB277
 21556 004c B0000000 		.4byte	.LFE277-.LFB277
 21557 0050 00000000 		.4byte	.LFB256
 21558 0054 02000000 		.4byte	.LFE256-.LFB256
 21559 0058 00000000 		.4byte	.LFB261
 21560 005c 4C020000 		.4byte	.LFE261-.LFB261
 21561 0060 00000000 		.4byte	.LFB262
 21562 0064 F8000000 		.4byte	.LFE262-.LFB262
 21563 0068 00000000 		.4byte	.LFB263
 21564 006c A0000000 		.4byte	.LFE263-.LFB263
 21565 0070 00000000 		.4byte	.LFB264
 21566 0074 F8000000 		.4byte	.LFE264-.LFB264
 21567 0078 00000000 		.4byte	.LFB265
 21568 007c 7C000000 		.4byte	.LFE265-.LFB265
 21569 0080 00000000 		.4byte	.LFB266
 21570 0084 AC030000 		.4byte	.LFE266-.LFB266
 21571 0088 00000000 		.4byte	.LFB267
 21572 008c 14000000 		.4byte	.LFE267-.LFB267
 21573 0090 00000000 		.4byte	.LFB268
 21574 0094 12000000 		.4byte	.LFE268-.LFB268
 21575 0098 00000000 		.4byte	.LFB270
 21576 009c 64010000 		.4byte	.LFE270-.LFB270
 21577 00a0 00000000 		.4byte	.LFB269
 21578 00a4 BC000000 		.4byte	.LFE269-.LFB269
 21579 00a8 00000000 		.4byte	.LFB271
 21580 00ac 04010000 		.4byte	.LFE271-.LFB271
 21581 00b0 00000000 		.4byte	.LFB272
 21582 00b4 06000000 		.4byte	.LFE272-.LFB272
 21583 00b8 00000000 		.4byte	.LFB274
 21584 00bc 18040000 		.4byte	.LFE274-.LFB274
 21585 00c0 00000000 		.4byte	.LFB276
 21586 00c4 84000000 		.4byte	.LFE276-.LFB276
 21587 00c8 00000000 		.4byte	.LFB278
 21588 00cc 06000000 		.4byte	.LFE278-.LFB278
 21589 00d0 00000000 		.4byte	.LFB279
ARM GAS  C:\Users\jo\AppData\Local\Temp\ccpKXchH.s 			page 387


 21590 00d4 06000000 		.4byte	.LFE279-.LFB279
 21591 00d8 00000000 		.4byte	.LFB280
 21592 00dc 64010000 		.4byte	.LFE280-.LFB280
 21593 00e0 00000000 		.4byte	.LFB282
 21594 00e4 40010000 		.4byte	.LFE282-.LFB282
 21595 00e8 00000000 		.4byte	.LFB284
 21596 00ec 78000000 		.4byte	.LFE284-.LFB284
 21597 00f0 00000000 		.4byte	.LFB285
 21598 00f4 68000000 		.4byte	.LFE285-.LFB285
 21599 00f8 00000000 		.4byte	0
 21600 00fc 00000000 		.4byte	0
 21601              		.section	.debug_ranges,"",%progbits
 21602              	.Ldebug_ranges0:
 21603 0000 48000000 		.4byte	.LBB99
 21604 0004 CE000000 		.4byte	.LBE99
 21605 0008 04010000 		.4byte	.LBB104
 21606 000c 5C010000 		.4byte	.LBE104
 21607 0010 62010000 		.4byte	.LBB105
 21608 0014 98010000 		.4byte	.LBE105
 21609 0018 00000000 		.4byte	0
 21610 001c 00000000 		.4byte	0
 21611 0020 48000000 		.4byte	.LBB100
 21612 0024 4E000000 		.4byte	.LBE100
 21613 0028 62010000 		.4byte	.LBB103
 21614 002c 68010000 		.4byte	.LBE103
 21615 0030 00000000 		.4byte	0
 21616 0034 00000000 		.4byte	0
 21617 0038 42000000 		.4byte	.LBB110
 21618 003c 58000000 		.4byte	.LBE110
 21619 0040 60000000 		.4byte	.LBB111
 21620 0044 6A000000 		.4byte	.LBE111
 21621 0048 7E000000 		.4byte	.LBB112
 21622 004c BE000000 		.4byte	.LBE112
 21623 0050 00000000 		.4byte	0
 21624 0054 00000000 		.4byte	0
 21625 0058 28000000 		.4byte	.LBB129
 21626 005c 3E000000 		.4byte	.LBE129
 21627 0060 44000000 		.4byte	.LBB133
 21628 0064 48000000 		.4byte	.LBE133
 21629 0068 72000000 		.4byte	.LBB136
 21630 006c 84000000 		.4byte	.LBE136
 21631 0070 00000000 		.4byte	0
 21632 0074 00000000 		.4byte	0
 21633 0078 BC000000 		.4byte	.LBB140
 21634 007c BE000000 		.4byte	.LBE140
 21635 0080 C2000000 		.4byte	.LBB143
 21636 0084 54010000 		.4byte	.LBE143
 21637 0088 CA010000 		.4byte	.LBB144
 21638 008c 14020000 		.4byte	.LBE144
 21639 0090 86020000 		.4byte	.LBB147
 21640 0094 AE020000 		.4byte	.LBE147
 21641 0098 B6020000 		.4byte	.LBB148
 21642 009c 18030000 		.4byte	.LBE148
 21643 00a0 00000000 		.4byte	0
 21644 00a4 00000000 		.4byte	0
 21645 00a8 D0000000 		.4byte	.LBB141
 21646 00ac 3E010000 		.4byte	.LBE141
ARM GAS  C:\Users\jo\AppData\Local\Temp\ccpKXchH.s 			page 388


 21647 00b0 9A020000 		.4byte	.LBB142
 21648 00b4 AE020000 		.4byte	.LBE142
 21649 00b8 00000000 		.4byte	0
 21650 00bc 00000000 		.4byte	0
 21651 00c0 C6000000 		.4byte	.LBB155
 21652 00c4 DA000000 		.4byte	.LBE155
 21653 00c8 B8030000 		.4byte	.LBB177
 21654 00cc EC030000 		.4byte	.LBE177
 21655 00d0 00000000 		.4byte	0
 21656 00d4 00000000 		.4byte	0
 21657 00d8 C6000000 		.4byte	.LBB156
 21658 00dc CC000000 		.4byte	.LBE156
 21659 00e0 B8030000 		.4byte	.LBB159
 21660 00e4 C2030000 		.4byte	.LBE159
 21661 00e8 00000000 		.4byte	0
 21662 00ec 00000000 		.4byte	0
 21663 00f0 DA000000 		.4byte	.LBB162
 21664 00f4 EA000000 		.4byte	.LBE162
 21665 00f8 30020000 		.4byte	.LBB171
 21666 00fc 46020000 		.4byte	.LBE171
 21667 0100 84030000 		.4byte	.LBB176
 21668 0104 B8030000 		.4byte	.LBE176
 21669 0108 00000000 		.4byte	0
 21670 010c 00000000 		.4byte	0
 21671 0110 30020000 		.4byte	.LBB165
 21672 0114 36020000 		.4byte	.LBE165
 21673 0118 84030000 		.4byte	.LBB168
 21674 011c 8E030000 		.4byte	.LBE168
 21675 0120 00000000 		.4byte	0
 21676 0124 00000000 		.4byte	0
 21677 0128 00000000 		.4byte	.LFB259
 21678 012c 54000000 		.4byte	.LFE259
 21679 0130 00000000 		.4byte	.LFB287
 21680 0134 24000000 		.4byte	.LFE287
 21681 0138 00000000 		.4byte	.LFB283
 21682 013c E0010000 		.4byte	.LFE283
 21683 0140 00000000 		.4byte	.LFB281
 21684 0144 54020000 		.4byte	.LFE281
 21685 0148 00000000 		.4byte	.LFB273
 21686 014c 98010000 		.4byte	.LFE273
 21687 0150 00000000 		.4byte	.LFB257
 21688 0154 44000000 		.4byte	.LFE257
 21689 0158 00000000 		.4byte	.LFB275
 21690 015c 0C010000 		.4byte	.LFE275
 21691 0160 00000000 		.4byte	.LFB277
 21692 0164 B0000000 		.4byte	.LFE277
 21693 0168 00000000 		.4byte	.LFB256
 21694 016c 02000000 		.4byte	.LFE256
 21695 0170 00000000 		.4byte	.LFB261
 21696 0174 4C020000 		.4byte	.LFE261
 21697 0178 00000000 		.4byte	.LFB262
 21698 017c F8000000 		.4byte	.LFE262
 21699 0180 00000000 		.4byte	.LFB263
 21700 0184 A0000000 		.4byte	.LFE263
 21701 0188 00000000 		.4byte	.LFB264
 21702 018c F8000000 		.4byte	.LFE264
 21703 0190 00000000 		.4byte	.LFB265
ARM GAS  C:\Users\jo\AppData\Local\Temp\ccpKXchH.s 			page 389


 21704 0194 7C000000 		.4byte	.LFE265
 21705 0198 00000000 		.4byte	.LFB266
 21706 019c AC030000 		.4byte	.LFE266
 21707 01a0 00000000 		.4byte	.LFB267
 21708 01a4 14000000 		.4byte	.LFE267
 21709 01a8 00000000 		.4byte	.LFB268
 21710 01ac 12000000 		.4byte	.LFE268
 21711 01b0 00000000 		.4byte	.LFB270
 21712 01b4 64010000 		.4byte	.LFE270
 21713 01b8 00000000 		.4byte	.LFB269
 21714 01bc BC000000 		.4byte	.LFE269
 21715 01c0 00000000 		.4byte	.LFB271
 21716 01c4 04010000 		.4byte	.LFE271
 21717 01c8 00000000 		.4byte	.LFB272
 21718 01cc 06000000 		.4byte	.LFE272
 21719 01d0 00000000 		.4byte	.LFB274
 21720 01d4 18040000 		.4byte	.LFE274
 21721 01d8 00000000 		.4byte	.LFB276
 21722 01dc 84000000 		.4byte	.LFE276
 21723 01e0 00000000 		.4byte	.LFB278
 21724 01e4 06000000 		.4byte	.LFE278
 21725 01e8 00000000 		.4byte	.LFB279
 21726 01ec 06000000 		.4byte	.LFE279
 21727 01f0 00000000 		.4byte	.LFB280
 21728 01f4 64010000 		.4byte	.LFE280
 21729 01f8 00000000 		.4byte	.LFB282
 21730 01fc 40010000 		.4byte	.LFE282
 21731 0200 00000000 		.4byte	.LFB284
 21732 0204 78000000 		.4byte	.LFE284
 21733 0208 00000000 		.4byte	.LFB285
 21734 020c 68000000 		.4byte	.LFE285
 21735 0210 00000000 		.4byte	0
 21736 0214 00000000 		.4byte	0
 21737              		.section	.debug_line,"",%progbits
 21738              	.Ldebug_line0:
 21739 0000 2F110000 		.section	.debug_str,"MS",%progbits,1
 21739      02008904 
 21739      00000201 
 21739      FB0E0D00 
 21739      01010101 
 21740              	.LASF428:
 21741 0000 6E657463 		.ascii	"netconn_send\000"
 21741      6F6E6E5F 
 21741      73656E64 
 21741      00
 21742              	.LASF325:
 21743 000d 61636365 		.ascii	"accepted\000"
 21743      70746564 
 21743      00
 21744              	.LASF58:
 21745 0016 74687265 		.ascii	"threads_queue_t\000"
 21745      6164735F 
 21745      71756575 
 21745      655F7400 
 21746              	.LASF347:
 21747 0026 6E616D65 		.ascii	"name\000"
 21747      00
ARM GAS  C:\Users\jo\AppData\Local\Temp\ccpKXchH.s 			page 390


 21748              	.LASF366:
 21749 002b 66726F6D 		.ascii	"from\000"
 21749      00
 21750              	.LASF113:
 21751 0030 746D5F63 		.ascii	"tm_calibration_t\000"
 21751      616C6962 
 21751      72617469 
 21751      6F6E5F74 
 21751      00
 21752              	.LASF376:
 21753 0041 746F6C65 		.ascii	"tolen\000"
 21753      6E00
 21754              	.LASF400:
 21755 0047 6C776970 		.ascii	"lwip_fcntl\000"
 21755      5F66636E 
 21755      746C00
 21756              	.LASF223:
 21757 0052 736F5F6F 		.ascii	"so_options\000"
 21757      7074696F 
 21757      6E7300
 21758              	.LASF99:
 21759 005d 63686172 		.ascii	"char\000"
 21759      00
 21760              	.LASF409:
 21761 0062 63687670 		.ascii	"chvprintf\000"
 21761      72696E74 
 21761      6600
 21762              	.LASF93:
 21763 006c 72656761 		.ascii	"regarm_t\000"
 21763      726D5F74 
 21763      00
 21764              	.LASF38:
 21765 0075 705F7072 		.ascii	"p_prio\000"
 21765      696F00
 21766              	.LASF196:
 21767 007c 6E657463 		.ascii	"netconn_type\000"
 21767      6F6E6E5F 
 21767      74797065 
 21767      00
 21768              	.LASF439:
 21769 0089 61676169 		.ascii	"again\000"
 21769      6E00
 21770              	.LASF358:
 21771 008f 66726565 		.ascii	"free_socket\000"
 21771      5F736F63 
 21771      6B657400 
 21772              	.LASF436:
 21773 009b 474E5520 		.ascii	"GNU C 4.9.3 20141119 (release) [ARM/embedded-4_9-br"
 21773      4320342E 
 21773      392E3320 
 21773      32303134 
 21773      31313139 
 21774 00ce 616E6368 		.ascii	"anch revision 218278] -mcpu=cortex-m4 -mno-thumb-in"
 21774      20726576 
 21774      6973696F 
 21774      6E203231 
 21774      38323738 
ARM GAS  C:\Users\jo\AppData\Local\Temp\ccpKXchH.s 			page 391


 21775 0101 74657277 		.ascii	"terwork -mthumb -ggdb -O2 -fomit-frame-pointer -fal"
 21775      6F726B20 
 21775      2D6D7468 
 21775      756D6220 
 21775      2D676764 
 21776 0134 69676E2D 		.ascii	"ign-functions=16 -ffunction-sections -fdata-section"
 21776      66756E63 
 21776      74696F6E 
 21776      733D3136 
 21776      202D6666 
 21777 0167 73202D66 		.ascii	"s -fno-common\000"
 21777      6E6F2D63 
 21777      6F6D6D6F 
 21777      6E00
 21778              	.LASF174:
 21779 0175 73615F64 		.ascii	"sa_data\000"
 21779      61746100 
 21780              	.LASF230:
 21781 017d 706F6C6C 		.ascii	"polltmr\000"
 21781      746D7200 
 21782              	.LASF177:
 21783 0185 74765F73 		.ascii	"tv_sec\000"
 21783      656300
 21784              	.LASF272:
 21785 018c 7463705F 		.ascii	"tcp_accept_fn\000"
 21785      61636365 
 21785      70745F66 
 21785      6E00
 21786              	.LASF185:
 21787 019a 666C6167 		.ascii	"flags\000"
 21787      7300
 21788              	.LASF34:
 21789 01a0 73797374 		.ascii	"systime_t\000"
 21789      696D655F 
 21789      7400
 21790              	.LASF365:
 21791 01aa 6C776970 		.ascii	"lwip_recvfrom\000"
 21791      5F726563 
 21791      7666726F 
 21791      6D00
 21792              	.LASF171:
 21793 01b8 736F636B 		.ascii	"sockaddr\000"
 21793      61646472 
 21793      00
 21794              	.LASF131:
 21795 01c1 6D5F6F77 		.ascii	"m_owner\000"
 21795      6E657200 
 21796              	.LASF134:
 21797 01c9 735F7175 		.ascii	"s_queue\000"
 21797      65756500 
 21798              	.LASF214:
 21799 01d1 72656376 		.ascii	"recvmbox\000"
 21799      6D626F78 
 21799      00
 21800              	.LASF290:
 21801 01da 7261775F 		.ascii	"raw_pcb\000"
 21801      70636200 
ARM GAS  C:\Users\jo\AppData\Local\Temp\ccpKXchH.s 			page 392


 21802              	.LASF289:
 21803 01e2 54494D45 		.ascii	"TIME_WAIT\000"
 21803      5F574149 
 21803      5400
 21804              	.LASF106:
 21805 01ec 73655F73 		.ascii	"se_state\000"
 21805      74617465 
 21805      00
 21806              	.LASF0:
 21807 01f5 756E7369 		.ascii	"unsigned int\000"
 21807      676E6564 
 21807      20696E74 
 21807      00
 21808              	.LASF277:
 21809 0202 7463705F 		.ascii	"tcp_connected_fn\000"
 21809      636F6E6E 
 21809      65637465 
 21809      645F666E 
 21809      00
 21810              	.LASF181:
 21811 0213 6E657874 		.ascii	"next\000"
 21811      00
 21812              	.LASF208:
 21813 0218 4E455443 		.ascii	"NETCONN_EVT_ERROR\000"
 21813      4F4E4E5F 
 21813      4556545F 
 21813      4552524F 
 21813      5200
 21814              	.LASF241:
 21815 022a 64757061 		.ascii	"dupacks\000"
 21815      636B7300 
 21816              	.LASF122:
 21817 0232 6D5F6372 		.ascii	"m_crit_isr\000"
 21817      69745F69 
 21817      737200
 21818              	.LASF194:
 21819 023d 4E455443 		.ascii	"NETCONN_UDPNOCHKSUM\000"
 21819      4F4E4E5F 
 21819      5544504E 
 21819      4F43484B 
 21819      53554D00 
 21820              	.LASF55:
 21821 0251 74687265 		.ascii	"threads_list_t\000"
 21821      6164735F 
 21821      6C697374 
 21821      5F7400
 21822              	.LASF179:
 21823 0260 6572725F 		.ascii	"err_t\000"
 21823      7400
 21824              	.LASF295:
 21825 0266 6C6F6361 		.ascii	"local\000"
 21825      6C00
 21826              	.LASF117:
 21827 026c 63756D75 		.ascii	"cumulative\000"
 21827      6C617469 
 21827      766500
 21828              	.LASF331:
ARM GAS  C:\Users\jo\AppData\Local\Temp\ccpKXchH.s 			page 393


 21829 0277 6D617866 		.ascii	"maxfdp1\000"
 21829      64703100 
 21830              	.LASF47:
 21831 027f 705F7761 		.ascii	"p_waiting\000"
 21831      6974696E 
 21831      6700
 21832              	.LASF10:
 21833 0289 5F5F696E 		.ascii	"__int32_t\000"
 21833      7433325F 
 21833      7400
 21834              	.LASF145:
 21835 0293 42617365 		.ascii	"BaseSequentialStreamVMT\000"
 21835      53657175 
 21835      656E7469 
 21835      616C5374 
 21835      7265616D 
 21836              	.LASF393:
 21837 02ab 73687574 		.ascii	"shut_tx\000"
 21837      5F747800 
 21838              	.LASF308:
 21839 02b3 70726576 		.ascii	"prev\000"
 21839      00
 21840              	.LASF155:
 21841 02b8 7531365F 		.ascii	"u16_t\000"
 21841      7400
 21842              	.LASF422:
 21843 02be 6E657463 		.ascii	"netconn_recved\000"
 21843      6F6E6E5F 
 21843      72656376 
 21843      656400
 21844              	.LASF438:
 21845 02cd 433A5C55 		.ascii	"C:\\Users\\jo\\Documents\\GitHub\\ChibiOS\\demos\\S"
 21845      73657273 
 21845      5C6A6F5C 
 21845      446F6375 
 21845      6D656E74 
 21846 02f9 544D3332 		.ascii	"TM32\\RT-STM32F407-DISCOVERY-uHttp\000"
 21846      5C52542D 
 21846      53544D33 
 21846      32463430 
 21846      372D4449 
 21847              	.LASF88:
 21848 031b 76746C69 		.ascii	"vtlist\000"
 21848      737400
 21849              	.LASF236:
 21850 0322 7263765F 		.ascii	"rcv_ann_right_edge\000"
 21850      616E6E5F 
 21850      72696768 
 21850      745F6564 
 21850      676500
 21851              	.LASF61:
 21852 0335 63685F72 		.ascii	"ch_ready_list\000"
 21852      65616479 
 21852      5F6C6973 
 21852      7400
 21853              	.LASF384:
 21854 0343 70726F74 		.ascii	"protocol\000"
ARM GAS  C:\Users\jo\AppData\Local\Temp\ccpKXchH.s 			page 394


 21854      6F636F6C 
 21854      00
 21855              	.LASF414:
 21856 034c 6E657463 		.ascii	"netconn_delete\000"
 21856      6F6E6E5F 
 21856      64656C65 
 21856      746500
 21857              	.LASF430:
 21858 035b 6E657463 		.ascii	"netconn_new_with_proto_and_callback\000"
 21858      6F6E6E5F 
 21858      6E65775F 
 21858      77697468 
 21858      5F70726F 
 21859              	.LASF378:
 21860 037f 746F5F69 		.ascii	"to_in\000"
 21860      6E00
 21861              	.LASF128:
 21862 0385 65776D61 		.ascii	"ewmask\000"
 21862      736B00
 21863              	.LASF426:
 21864 038c 6E657462 		.ascii	"netbuf_ref\000"
 21864      75665F72 
 21864      656600
 21865              	.LASF434:
 21866 0397 6E657463 		.ascii	"netconn_shutdown\000"
 21866      6F6E6E5F 
 21866      73687574 
 21866      646F776E 
 21866      00
 21867              	.LASF411:
 21868 03a8 6C776970 		.ascii	"lwip_htons\000"
 21868      5F68746F 
 21868      6E7300
 21869              	.LASF267:
 21870 03b3 6B656570 		.ascii	"keep_cnt_sent\000"
 21870      5F636E74 
 21870      5F73656E 
 21870      7400
 21871              	.LASF314:
 21872 03c1 736F636B 		.ascii	"sock\000"
 21872      00
 21873              	.LASF274:
 21874 03c6 7463705F 		.ascii	"tcp_sent_fn\000"
 21874      73656E74 
 21874      5F666E00 
 21875              	.LASF197:
 21876 03d2 6E657463 		.ascii	"netconn_state\000"
 21876      6F6E6E5F 
 21876      73746174 
 21876      6500
 21877              	.LASF329:
 21878 03e0 616C6C6F 		.ascii	"alloc_socket\000"
 21878      635F736F 
 21878      636B6574 
 21878      00
 21879              	.LASF68:
 21880 03ed 76746675 		.ascii	"vtfunc_t\000"
ARM GAS  C:\Users\jo\AppData\Local\Temp\ccpKXchH.s 			page 395


 21880      6E635F74 
 21880      00
 21881              	.LASF127:
 21882 03f6 77746F62 		.ascii	"wtobjp\000"
 21882      6A7000
 21883              	.LASF135:
 21884 03fd 735F636E 		.ascii	"s_cnt\000"
 21884      7400
 21885              	.LASF80:
 21886 0403 63685F73 		.ascii	"ch_system_debug\000"
 21886      79737465 
 21886      6D5F6465 
 21886      62756700 
 21887              	.LASF3:
 21888 0413 7369676E 		.ascii	"signed char\000"
 21888      65642063 
 21888      68617200 
 21889              	.LASF345:
 21890 041f 646F5F73 		.ascii	"do_signal\000"
 21890      69676E61 
 21890      6C00
 21891              	.LASF234:
 21892 0429 7263765F 		.ascii	"rcv_wnd\000"
 21892      776E6400 
 21893              	.LASF22:
 21894 0431 75696E74 		.ascii	"uint32_t\000"
 21894      33325F74 
 21894      00
 21895              	.LASF17:
 21896 043a 696E7438 		.ascii	"int8_t\000"
 21896      5F7400
 21897              	.LASF243:
 21898 0441 63776E64 		.ascii	"cwnd\000"
 21898      00
 21899              	.LASF123:
 21900 0446 6B65726E 		.ascii	"kernel_stats_t\000"
 21900      656C5F73 
 21900      74617473 
 21900      5F7400
 21901              	.LASF257:
 21902 0455 6F6F7365 		.ascii	"ooseq\000"
 21902      7100
 21903              	.LASF31:
 21904 045b 6576656E 		.ascii	"eventmask_t\000"
 21904      746D6173 
 21904      6B5F7400 
 21905              	.LASF63:
 21906 0467 725F7072 		.ascii	"r_prio\000"
 21906      696F00
 21907              	.LASF226:
 21908 046e 61636365 		.ascii	"accept\000"
 21908      707400
 21909              	.LASF57:
 21910 0475 63685F74 		.ascii	"ch_threads_list\000"
 21910      68726561 
 21910      64735F6C 
 21910      69737400 
ARM GAS  C:\Users\jo\AppData\Local\Temp\ccpKXchH.s 			page 396


 21911              	.LASF90:
 21912 0485 6B65726E 		.ascii	"kernel_stats\000"
 21912      656C5F73 
 21912      74617473 
 21912      00
 21913              	.LASF75:
 21914 0492 76745F70 		.ascii	"vt_par\000"
 21914      617200
 21915              	.LASF228:
 21916 0499 6C6F6361 		.ascii	"local_port\000"
 21916      6C5F706F 
 21916      727400
 21917              	.LASF129:
 21918 04a4 6D757465 		.ascii	"mutex\000"
 21918      7800
 21919              	.LASF361:
 21920 04aa 6C776970 		.ascii	"lwip_connect\000"
 21920      5F636F6E 
 21920      6E656374 
 21920      00
 21921              	.LASF29:
 21922 04b7 74707269 		.ascii	"tprio_t\000"
 21922      6F5F7400 
 21923              	.LASF166:
 21924 04bf 73696E5F 		.ascii	"sin_len\000"
 21924      6C656E00 
 21925              	.LASF369:
 21926 04c7 636F7079 		.ascii	"copylen\000"
 21926      6C656E00 
 21927              	.LASF102:
 21928 04cf 6664735F 		.ascii	"fds_bits\000"
 21928      62697473 
 21928      00
 21929              	.LASF70:
 21930 04d8 63685F76 		.ascii	"ch_virtual_timer\000"
 21930      69727475 
 21930      616C5F74 
 21930      696D6572 
 21930      00
 21931              	.LASF379:
 21932 04e9 6C776970 		.ascii	"lwip_send\000"
 21932      5F73656E 
 21932      6400
 21933              	.LASF19:
 21934 04f3 696E7431 		.ascii	"int16_t\000"
 21934      365F7400 
 21935              	.LASF417:
 21936 04fb 6E657462 		.ascii	"netbuf_delete\000"
 21936      75665F64 
 21936      656C6574 
 21936      6500
 21937              	.LASF291:
 21938 0509 7463705F 		.ascii	"tcp_seg\000"
 21938      73656700 
 21939              	.LASF16:
 21940 0511 6C6F6E67 		.ascii	"long long unsigned int\000"
 21940      206C6F6E 
ARM GAS  C:\Users\jo\AppData\Local\Temp\ccpKXchH.s 			page 397


 21940      6720756E 
 21940      7369676E 
 21940      65642069 
 21941              	.LASF105:
 21942 0528 73655F77 		.ascii	"se_wtobjp\000"
 21942      746F626A 
 21942      7000
 21943              	.LASF319:
 21944 0532 72656173 		.ascii	"reason\000"
 21944      6F6E00
 21945              	.LASF84:
 21946 0539 74726163 		.ascii	"trace_buffer\000"
 21946      655F6275 
 21946      66666572 
 21946      00
 21947              	.LASF190:
 21948 0546 4E455443 		.ascii	"NETCONN_INVALID\000"
 21948      4F4E4E5F 
 21948      494E5641 
 21948      4C494400 
 21949              	.LASF167:
 21950 0556 73696E5F 		.ascii	"sin_family\000"
 21950      66616D69 
 21950      6C7900
 21951              	.LASF8:
 21952 0561 5F5F7569 		.ascii	"__uint16_t\000"
 21952      6E743136 
 21952      5F7400
 21953              	.LASF207:
 21954 056c 4E455443 		.ascii	"NETCONN_EVT_SENDMINUS\000"
 21954      4F4E4E5F 
 21954      4556545F 
 21954      53454E44 
 21954      4D494E55 
 21955              	.LASF237:
 21956 0582 7274696D 		.ascii	"rtime\000"
 21956      6500
 21957              	.LASF355:
 21958 0588 6C6F6361 		.ascii	"local_addr\000"
 21958      6C5F6164 
 21958      647200
 21959              	.LASF368:
 21960 0593 6275666C 		.ascii	"buflen\000"
 21960      656E00
 21961              	.LASF82:
 21962 059a 6973725F 		.ascii	"isr_cnt\000"
 21962      636E7400 
 21963              	.LASF115:
 21964 05a2 776F7273 		.ascii	"worst\000"
 21964      7400
 21965              	.LASF332:
 21966 05a8 72656164 		.ascii	"readset_in\000"
 21966      7365745F 
 21966      696E00
 21967              	.LASF40:
 21968 05b3 705F6E65 		.ascii	"p_newer\000"
 21968      77657200 
ARM GAS  C:\Users\jo\AppData\Local\Temp\ccpKXchH.s 			page 398


 21969              	.LASF382:
 21970 05bb 6C776970 		.ascii	"lwip_socket\000"
 21970      5F736F63 
 21970      6B657400 
 21971              	.LASF77:
 21972 05c7 63685F76 		.ascii	"ch_virtual_timers_list\000"
 21972      69727475 
 21972      616C5F74 
 21972      696D6572 
 21972      735F6C69 
 21973              	.LASF233:
 21974 05de 7263765F 		.ascii	"rcv_nxt\000"
 21974      6E787400 
 21975              	.LASF408:
 21976 05e6 7379735F 		.ascii	"sys_sem_signal\000"
 21976      73656D5F 
 21976      7369676E 
 21976      616C00
 21977              	.LASF176:
 21978 05f5 74696D65 		.ascii	"timeval\000"
 21978      76616C00 
 21979              	.LASF204:
 21980 05fd 4E455443 		.ascii	"NETCONN_EVT_RCVPLUS\000"
 21980      4F4E4E5F 
 21980      4556545F 
 21980      52435650 
 21980      4C555300 
 21981              	.LASF103:
 21982 0611 73655F74 		.ascii	"se_time\000"
 21982      696D6500 
 21983              	.LASF170:
 21984 0619 73696E5F 		.ascii	"sin_zero\000"
 21984      7A65726F 
 21984      00
 21985              	.LASF35:
 21986 0622 74687265 		.ascii	"thread_t\000"
 21986      61645F74 
 21986      00
 21987              	.LASF192:
 21988 062b 4E455443 		.ascii	"NETCONN_UDP\000"
 21988      4F4E4E5F 
 21988      55445000 
 21989              	.LASF36:
 21990 0637 705F6E65 		.ascii	"p_next\000"
 21990      787400
 21991              	.LASF97:
 21992 063e 5F5F676E 		.ascii	"__gnuc_va_list\000"
 21992      75635F76 
 21992      615F6C69 
 21992      737400
 21993              	.LASF288:
 21994 064d 4C415354 		.ascii	"LAST_ACK\000"
 21994      5F41434B 
 21994      00
 21995              	.LASF164:
 21996 0656 735F6164 		.ascii	"s_addr\000"
 21996      647200
ARM GAS  C:\Users\jo\AppData\Local\Temp\ccpKXchH.s 			page 399


 21997              	.LASF183:
 21998 065d 746F745F 		.ascii	"tot_len\000"
 21998      6C656E00 
 21999              	.LASF294:
 22000 0665 69706164 		.ascii	"ipaddr\000"
 22000      647200
 22001              	.LASF1:
 22002 066c 73697A65 		.ascii	"size_t\000"
 22002      5F7400
 22003              	.LASF125:
 22004 0673 7264796D 		.ascii	"rdymsg\000"
 22004      736700
 22005              	.LASF182:
 22006 067a 7061796C 		.ascii	"payload\000"
 22006      6F616400 
 22007              	.LASF427:
 22008 0682 6E657462 		.ascii	"netbuf_free\000"
 22008      75665F66 
 22008      72656500 
 22009              	.LASF112:
 22010 068e 6F666673 		.ascii	"offset\000"
 22010      657400
 22011              	.LASF343:
 22012 0695 6576656E 		.ascii	"event_callback\000"
 22012      745F6361 
 22012      6C6C6261 
 22012      636B00
 22013              	.LASF374:
 22014 06a4 6C776970 		.ascii	"lwip_sendto\000"
 22014      5F73656E 
 22014      64746F00 
 22015              	.LASF306:
 22016 06b0 73656C65 		.ascii	"select_waiting\000"
 22016      63745F77 
 22016      61697469 
 22016      6E6700
 22017              	.LASF101:
 22018 06bf 5F747970 		.ascii	"_types_fd_set\000"
 22018      65735F66 
 22018      645F7365 
 22018      7400
 22019              	.LASF261:
 22020 06cd 636F6E6E 		.ascii	"connected\000"
 22020      65637465 
 22020      6400
 22021              	.LASF149:
 22022 06d7 5F426F6F 		.ascii	"_Bool\000"
 22022      6C00
 22023              	.LASF141:
 22024 06dd 6D625F72 		.ascii	"mb_rdptr\000"
 22024      64707472 
 22024      00
 22025              	.LASF271:
 22026 06e6 636F6E6E 		.ascii	"conn\000"
 22026      00
 22027              	.LASF144:
 22028 06eb 6D61696C 		.ascii	"mailbox_t\000"
ARM GAS  C:\Users\jo\AppData\Local\Temp\ccpKXchH.s 			page 400


 22028      626F785F 
 22028      7400
 22029              	.LASF287:
 22030 06f5 434C4F53 		.ascii	"CLOSING\000"
 22030      494E4700 
 22031              	.LASF339:
 22032 06fd 6C726561 		.ascii	"lreadset\000"
 22032      64736574 
 22032      00
 22033              	.LASF178:
 22034 0706 74765F75 		.ascii	"tv_usec\000"
 22034      73656300 
 22035              	.LASF313:
 22036 070e 6C776970 		.ascii	"lwip_setgetsockopt_data\000"
 22036      5F736574 
 22036      67657473 
 22036      6F636B6F 
 22036      70745F64 
 22037              	.LASF212:
 22038 0726 6C617374 		.ascii	"last_err\000"
 22038      5F657272 
 22038      00
 22039              	.LASF15:
 22040 072f 5F5F7569 		.ascii	"__uint64_t\000"
 22040      6E743634 
 22040      5F7400
 22041              	.LASF354:
 22042 073a 6C776970 		.ascii	"lwip_bind\000"
 22042      5F62696E 
 22042      6400
 22043              	.LASF328:
 22044 0744 6C776970 		.ascii	"lwip_getsockopt_internal\000"
 22044      5F676574 
 22044      736F636B 
 22044      6F70745F 
 22044      696E7465 
 22045              	.LASF158:
 22046 075d 7333325F 		.ascii	"s32_t\000"
 22046      7400
 22047              	.LASF116:
 22048 0763 6C617374 		.ascii	"last\000"
 22048      00
 22049              	.LASF143:
 22050 0768 6D625F65 		.ascii	"mb_emptysem\000"
 22050      6D707479 
 22050      73656D00 
 22051              	.LASF206:
 22052 0774 4E455443 		.ascii	"NETCONN_EVT_SENDPLUS\000"
 22052      4F4E4E5F 
 22052      4556545F 
 22052      53454E44 
 22052      504C5553 
 22053              	.LASF270:
 22054 0789 6170695F 		.ascii	"api_msg_msg\000"
 22054      6D73675F 
 22054      6D736700 
 22055              	.LASF248:
ARM GAS  C:\Users\jo\AppData\Local\Temp\ccpKXchH.s 			page 401


 22056 0795 736E645F 		.ascii	"snd_lbb\000"
 22056      6C626200 
 22057              	.LASF118:
 22058 079d 74696D65 		.ascii	"time_measurement_t\000"
 22058      5F6D6561 
 22058      73757265 
 22058      6D656E74 
 22058      5F7400
 22059              	.LASF239:
 22060 07b0 72747365 		.ascii	"rtseq\000"
 22060      7100
 22061              	.LASF205:
 22062 07b6 4E455443 		.ascii	"NETCONN_EVT_RCVMINUS\000"
 22062      4F4E4E5F 
 22062      4556545F 
 22062      5243564D 
 22062      494E5553 
 22063              	.LASF42:
 22064 07cb 705F6E61 		.ascii	"p_name\000"
 22064      6D6500
 22065              	.LASF148:
 22066 07d2 42617365 		.ascii	"BaseSequentialStream\000"
 22066      53657175 
 22066      656E7469 
 22066      616C5374 
 22066      7265616D 
 22067              	.LASF154:
 22068 07e7 73385F74 		.ascii	"s8_t\000"
 22068      00
 22069              	.LASF359:
 22070 07ec 69735F74 		.ascii	"is_tcp\000"
 22070      637000
 22071              	.LASF227:
 22072 07f3 7072696F 		.ascii	"prio\000"
 22072      00
 22073              	.LASF231:
 22074 07f8 706F6C6C 		.ascii	"pollinterval\000"
 22074      696E7465 
 22074      7276616C 
 22074      00
 22075              	.LASF262:
 22076 0805 706F6C6C 		.ascii	"poll\000"
 22076      00
 22077              	.LASF322:
 22078 080a 63687072 		.ascii	"chprintf\000"
 22078      696E7466 
 22078      00
 22079              	.LASF186:
 22080 0813 6E657462 		.ascii	"netbuf\000"
 22080      756600
 22081              	.LASF73:
 22082 081a 76745F64 		.ascii	"vt_delta\000"
 22082      656C7461 
 22082      00
 22083              	.LASF352:
 22084 0823 6E657773 		.ascii	"newsock\000"
 22084      6F636B00 
ARM GAS  C:\Users\jo\AppData\Local\Temp\ccpKXchH.s 			page 402


 22085              	.LASF309:
 22086 082b 72656164 		.ascii	"readset\000"
 22086      73657400 
 22087              	.LASF136:
 22088 0833 73656D61 		.ascii	"semaphore_t\000"
 22088      70686F72 
 22088      655F7400 
 22089              	.LASF246:
 22090 083f 736E645F 		.ascii	"snd_wl1\000"
 22090      776C3100 
 22091              	.LASF25:
 22092 0847 72747469 		.ascii	"rttime_t\000"
 22092      6D655F74 
 22092      00
 22093              	.LASF348:
 22094 0850 6E616D65 		.ascii	"namelen\000"
 22094      6C656E00 
 22095              	.LASF380:
 22096 0858 77726974 		.ascii	"write_flags\000"
 22096      655F666C 
 22096      61677300 
 22097              	.LASF251:
 22098 0864 61636B65 		.ascii	"acked\000"
 22098      6400
 22099              	.LASF286:
 22100 086a 434C4F53 		.ascii	"CLOSE_WAIT\000"
 22100      455F5741 
 22100      495400
 22101              	.LASF293:
 22102 0875 70726F74 		.ascii	"proto\000"
 22102      6F00
 22103              	.LASF79:
 22104 087b 73797374 		.ascii	"system_debug_t\000"
 22104      656D5F64 
 22104      65627567 
 22104      5F7400
 22105              	.LASF27:
 22106 088a 74737461 		.ascii	"tstate_t\000"
 22106      74655F74 
 22106      00
 22107              	.LASF104:
 22108 0893 73655F74 		.ascii	"se_tp\000"
 22108      7000
 22109              	.LASF377:
 22110 0899 73686F72 		.ascii	"short_size\000"
 22110      745F7369 
 22110      7A6500
 22111              	.LASF429:
 22112 08a4 6E657463 		.ascii	"netconn_write_partly\000"
 22112      6F6E6E5F 
 22112      77726974 
 22112      655F7061 
 22112      72746C79 
 22113              	.LASF326:
 22114 08b9 64617461 		.ascii	"data\000"
 22114      00
 22115              	.LASF14:
ARM GAS  C:\Users\jo\AppData\Local\Temp\ccpKXchH.s 			page 403


 22116 08be 6C6F6E67 		.ascii	"long long int\000"
 22116      206C6F6E 
 22116      6720696E 
 22116      7400
 22117              	.LASF202:
 22118 08cc 4E455443 		.ascii	"NETCONN_CLOSE\000"
 22118      4F4E4E5F 
 22118      434C4F53 
 22118      4500
 22119              	.LASF41:
 22120 08da 705F6F6C 		.ascii	"p_older\000"
 22120      64657200 
 22121              	.LASF138:
 22122 08e2 6D625F62 		.ascii	"mb_buffer\000"
 22122      75666665 
 22122      7200
 22123              	.LASF43:
 22124 08ec 705F7374 		.ascii	"p_stklimit\000"
 22124      6B6C696D 
 22124      697400
 22125              	.LASF12:
 22126 08f7 5F5F7569 		.ascii	"__uint32_t\000"
 22126      6E743332 
 22126      5F7400
 22127              	.LASF259:
 22128 0902 73656E74 		.ascii	"sent\000"
 22128      00
 22129              	.LASF18:
 22130 0907 75696E74 		.ascii	"uint8_t\000"
 22130      385F7400 
 22131              	.LASF142:
 22132 090f 6D625F66 		.ascii	"mb_fullsem\000"
 22132      756C6C73 
 22132      656D00
 22133              	.LASF184:
 22134 091a 74797065 		.ascii	"type\000"
 22134      00
 22135              	.LASF247:
 22136 091f 736E645F 		.ascii	"snd_wl2\000"
 22136      776C3200 
 22137              	.LASF386:
 22138 0927 6C776970 		.ascii	"lwip_select\000"
 22138      5F73656C 
 22138      65637400 
 22139              	.LASF53:
 22140 0933 705F6D70 		.ascii	"p_mpool\000"
 22140      6F6F6C00 
 22141              	.LASF51:
 22142 093b 705F6D74 		.ascii	"p_mtxlist\000"
 22142      786C6973 
 22142      7400
 22143              	.LASF276:
 22144 0945 7463705F 		.ascii	"tcp_err_fn\000"
 22144      6572725F 
 22144      666E00
 22145              	.LASF215:
 22146 0950 61636365 		.ascii	"acceptmbox\000"
ARM GAS  C:\Users\jo\AppData\Local\Temp\ccpKXchH.s 			page 404


 22146      70746D62 
 22146      6F7800
 22147              	.LASF56:
 22148 095b 63685F74 		.ascii	"ch_thread\000"
 22148      68726561 
 22148      6400
 22149              	.LASF108:
 22150 0965 74625F73 		.ascii	"tb_size\000"
 22150      697A6500 
 22151              	.LASF418:
 22152 096d 70627566 		.ascii	"pbuf_free\000"
 22152      5F667265 
 22152      6500
 22153              	.LASF300:
 22154 0977 6C776970 		.ascii	"lwip_sock\000"
 22154      5F736F63 
 22154      6B00
 22155              	.LASF152:
 22156 0981 76615F6C 		.ascii	"va_list\000"
 22156      69737400 
 22157              	.LASF389:
 22158 0989 6D736563 		.ascii	"msectimeout\000"
 22158      74696D65 
 22158      6F757400 
 22159              	.LASF395:
 22160 0995 6C776970 		.ascii	"lwip_getsockname\000"
 22160      5F676574 
 22160      736F636B 
 22160      6E616D65 
 22160      00
 22161              	.LASF59:
 22162 09a6 63685F74 		.ascii	"ch_threads_queue\000"
 22162      68726561 
 22162      64735F71 
 22162      75657565 
 22162      00
 22163              	.LASF431:
 22164 09b7 7379735F 		.ascii	"sys_sem_new\000"
 22164      73656D5F 
 22164      6E657700 
 22165              	.LASF54:
 22166 09c3 705F7374 		.ascii	"p_stats\000"
 22166      61747300 
 22167              	.LASF425:
 22168 09cb 6C776970 		.ascii	"lwip_strerr\000"
 22168      5F737472 
 22168      65727200 
 22169              	.LASF62:
 22170 09d7 725F7175 		.ascii	"r_queue\000"
 22170      65756500 
 22171              	.LASF266:
 22172 09df 70657273 		.ascii	"persist_backoff\000"
 22172      6973745F 
 22172      6261636B 
 22172      6F666600 
 22173              	.LASF65:
 22174 09ef 725F6E65 		.ascii	"r_newer\000"
ARM GAS  C:\Users\jo\AppData\Local\Temp\ccpKXchH.s 			page 405


 22174      77657200 
 22175              	.LASF168:
 22176 09f7 73696E5F 		.ascii	"sin_port\000"
 22176      706F7274 
 22176      00
 22177              	.LASF32:
 22178 0a00 636E745F 		.ascii	"cnt_t\000"
 22178      7400
 22179              	.LASF30:
 22180 0a06 6D73675F 		.ascii	"msg_t\000"
 22180      7400
 22181              	.LASF312:
 22182 0a0c 73656D5F 		.ascii	"sem_signalled\000"
 22182      7369676E 
 22182      616C6C65 
 22182      6400
 22183              	.LASF95:
 22184 0a1a 636F6E74 		.ascii	"context\000"
 22184      65787400 
 22185              	.LASF336:
 22186 0a22 77726974 		.ascii	"writeset_out\000"
 22186      65736574 
 22186      5F6F7574 
 22186      00
 22187              	.LASF153:
 22188 0a2f 75385F74 		.ascii	"u8_t\000"
 22188      00
 22189              	.LASF340:
 22190 0a34 6C777269 		.ascii	"lwriteset\000"
 22190      74657365 
 22190      7400
 22191              	.LASF45:
 22192 0a3e 705F666C 		.ascii	"p_flags\000"
 22192      61677300 
 22193              	.LASF6:
 22194 0a46 5F5F696E 		.ascii	"__int16_t\000"
 22194      7431365F 
 22194      7400
 22195              	.LASF356:
 22196 0a50 6E616D65 		.ascii	"name_in\000"
 22196      5F696E00 
 22197              	.LASF124:
 22198 0a58 5F5F6170 		.ascii	"__ap\000"
 22198      00
 22199              	.LASF69:
 22200 0a5d 76697274 		.ascii	"virtual_timer_t\000"
 22200      75616C5F 
 22200      74696D65 
 22200      725F7400 
 22201              	.LASF269:
 22202 0a6d 72656376 		.ascii	"recv_arg\000"
 22202      5F617267 
 22202      00
 22203              	.LASF357:
 22204 0a76 6F73616C 		.ascii	"osalSysHalt\000"
 22204      53797348 
 22204      616C7400 
ARM GAS  C:\Users\jo\AppData\Local\Temp\ccpKXchH.s 			page 406


 22205              	.LASF92:
 22206 0a82 73697A65 		.ascii	"sizetype\000"
 22206      74797065 
 22206      00
 22207              	.LASF398:
 22208 0a8b 6C776970 		.ascii	"lwip_ioctl\000"
 22208      5F696F63 
 22208      746C00
 22209              	.LASF413:
 22210 0a96 6E657463 		.ascii	"netconn_accept\000"
 22210      6F6E6E5F 
 22210      61636365 
 22210      707400
 22211              	.LASF150:
 22212 0aa5 49544D53 		.ascii	"ITMStreamVMT\000"
 22212      74726561 
 22212      6D564D54 
 22212      00
 22213              	.LASF404:
 22214 0ab2 6572725F 		.ascii	"err_to_errno_table\000"
 22214      746F5F65 
 22214      72726E6F 
 22214      5F746162 
 22214      6C6500
 22215              	.LASF311:
 22216 0ac5 65786365 		.ascii	"exceptset\000"
 22216      70747365 
 22216      7400
 22217              	.LASF229:
 22218 0acf 72656D6F 		.ascii	"remote_port\000"
 22218      74655F70 
 22218      6F727400 
 22219              	.LASF110:
 22220 0adb 74625F62 		.ascii	"tb_buffer\000"
 22220      75666665 
 22220      7200
 22221              	.LASF375:
 22222 0ae5 73697A65 		.ascii	"size\000"
 22222      00
 22223              	.LASF159:
 22224 0aea 6D656D5F 		.ascii	"mem_ptr_t\000"
 22224      7074725F 
 22224      7400
 22225              	.LASF139:
 22226 0af4 6D625F74 		.ascii	"mb_top\000"
 22226      6F7000
 22227              	.LASF109:
 22228 0afb 74625F70 		.ascii	"tb_ptr\000"
 22228      747200
 22229              	.LASF410:
 22230 0b02 6E657463 		.ascii	"netconn_getaddr\000"
 22230      6F6E6E5F 
 22230      67657461 
 22230      64647200 
 22231              	.LASF235:
 22232 0b12 7263765F 		.ascii	"rcv_ann_wnd\000"
 22232      616E6E5F 
ARM GAS  C:\Users\jo\AppData\Local\Temp\ccpKXchH.s 			page 407


 22232      776E6400 
 22233              	.LASF169:
 22234 0b1e 73696E5F 		.ascii	"sin_addr\000"
 22234      61646472 
 22234      00
 22235              	.LASF441:
 22236 0b27 72657475 		.ascii	"return_copy_fdsets\000"
 22236      726E5F63 
 22236      6F70795F 
 22236      66647365 
 22236      747300
 22237              	.LASF66:
 22238 0b3a 725F6F6C 		.ascii	"r_older\000"
 22238      64657200 
 22239              	.LASF273:
 22240 0b42 7463705F 		.ascii	"tcp_recv_fn\000"
 22240      72656376 
 22240      5F666E00 
 22241              	.LASF44:
 22242 0b4e 705F7374 		.ascii	"p_state\000"
 22242      61746500 
 22243              	.LASF151:
 22244 0b56 49544D53 		.ascii	"ITMStream\000"
 22244      74726561 
 22244      6D00
 22245              	.LASF351:
 22246 0b60 6E736F63 		.ascii	"nsock\000"
 22246      6B00
 22247              	.LASF360:
 22248 0b66 6C776970 		.ascii	"lwip_close\000"
 22248      5F636C6F 
 22248      736500
 22249              	.LASF335:
 22250 0b71 72656164 		.ascii	"readset_out\000"
 22250      7365745F 
 22250      6F757400 
 22251              	.LASF81:
 22252 0b7d 70616E69 		.ascii	"panic_msg\000"
 22252      635F6D73 
 22252      6700
 22253              	.LASF156:
 22254 0b87 7331365F 		.ascii	"s16_t\000"
 22254      7400
 22255              	.LASF370:
 22256 0b8d 646F6E65 		.ascii	"done\000"
 22256      00
 22257              	.LASF49:
 22258 0b92 705F6D73 		.ascii	"p_msg\000"
 22258      6700
 22259              	.LASF2:
 22260 0b98 5F5F696E 		.ascii	"__int8_t\000"
 22260      74385F74 
 22260      00
 22261              	.LASF296:
 22262 0ba1 64617461 		.ascii	"dataptr\000"
 22262      70747200 
 22263              	.LASF26:
ARM GAS  C:\Users\jo\AppData\Local\Temp\ccpKXchH.s 			page 408


 22264 0ba9 746D6F64 		.ascii	"tmode_t\000"
 22264      655F7400 
 22265              	.LASF33:
 22266 0bb1 75636E74 		.ascii	"ucnt_t\000"
 22266      5F7400
 22267              	.LASF437:
 22268 0bb8 2E2E2F2E 		.ascii	"../../../os/ext/lwip-1.4.1/src/api/sockets.c\000"
 22268      2E2F2E2E 
 22268      2F6F732F 
 22268      6578742F 
 22268      6C776970 
 22269              	.LASF89:
 22270 0be5 6D61696E 		.ascii	"mainthread\000"
 22270      74687265 
 22270      616400
 22271              	.LASF399:
 22272 0bf0 61726770 		.ascii	"argp\000"
 22272      00
 22273              	.LASF362:
 22274 0bf5 72656D6F 		.ascii	"remote_addr\000"
 22274      74655F61 
 22274      64647200 
 22275              	.LASF305:
 22276 0c01 65727265 		.ascii	"errevent\000"
 22276      76656E74 
 22276      00
 22277              	.LASF20:
 22278 0c0a 75696E74 		.ascii	"uint16_t\000"
 22278      31365F74 
 22278      00
 22279              	.LASF397:
 22280 0c13 6C776970 		.ascii	"lwip_setsockopt\000"
 22280      5F736574 
 22280      736F636B 
 22280      6F707400 
 22281              	.LASF198:
 22282 0c23 4E455443 		.ascii	"NETCONN_NONE\000"
 22282      4F4E4E5F 
 22282      4E4F4E45 
 22282      00
 22283              	.LASF275:
 22284 0c30 7463705F 		.ascii	"tcp_poll_fn\000"
 22284      706F6C6C 
 22284      5F666E00 
 22285              	.LASF249:
 22286 0c3c 736E645F 		.ascii	"snd_wnd\000"
 22286      776E6400 
 22287              	.LASF278:
 22288 0c44 7463705F 		.ascii	"tcp_state\000"
 22288      73746174 
 22288      6500
 22289              	.LASF24:
 22290 0c4e 7274636E 		.ascii	"rtcnt_t\000"
 22290      745F7400 
 22291              	.LASF334:
 22292 0c56 65786365 		.ascii	"exceptset_in\000"
 22292      70747365 
ARM GAS  C:\Users\jo\AppData\Local\Temp\ccpKXchH.s 			page 409


 22292      745F696E 
 22292      00
 22293              	.LASF201:
 22294 0c63 4E455443 		.ascii	"NETCONN_CONNECT\000"
 22294      4F4E4E5F 
 22294      434F4E4E 
 22294      45435400 
 22295              	.LASF327:
 22296 0c73 6C776970 		.ascii	"lwip_setsockopt_internal\000"
 22296      5F736574 
 22296      736F636B 
 22296      6F70745F 
 22296      696E7465 
 22297              	.LASF83:
 22298 0c8c 6C6F636B 		.ascii	"lock_cnt\000"
 22298      5F636E74 
 22298      00
 22299              	.LASF344:
 22300 0c95 6C617374 		.ascii	"last_select_cb_ctr\000"
 22300      5F73656C 
 22300      6563745F 
 22300      63625F63 
 22300      747200
 22301              	.LASF221:
 22302 0ca8 6C6F6361 		.ascii	"local_ip\000"
 22302      6C5F6970 
 22302      00
 22303              	.LASF119:
 22304 0cb1 6E5F6972 		.ascii	"n_irq\000"
 22304      7100
 22305              	.LASF415:
 22306 0cb7 6C776970 		.ascii	"lwip_ntohs\000"
 22306      5F6E746F 
 22306      687300
 22307              	.LASF28:
 22308 0cc2 74726566 		.ascii	"trefs_t\000"
 22308      735F7400 
 22309              	.LASF52:
 22310 0cca 705F7265 		.ascii	"p_realprio\000"
 22310      616C7072 
 22310      696F00
 22311              	.LASF279:
 22312 0cd5 434C4F53 		.ascii	"CLOSED\000"
 22312      454400
 22313              	.LASF292:
 22314 0cdc 7564705F 		.ascii	"udp_recv_fn\000"
 22314      72656376 
 22314      5F666E00 
 22315              	.LASF157:
 22316 0ce8 7533325F 		.ascii	"u32_t\000"
 22316      7400
 22317              	.LASF7:
 22318 0cee 73686F72 		.ascii	"short int\000"
 22318      7420696E 
 22318      7400
 22319              	.LASF140:
 22320 0cf8 6D625F77 		.ascii	"mb_wrptr\000"
ARM GAS  C:\Users\jo\AppData\Local\Temp\ccpKXchH.s 			page 410


 22320      72707472 
 22320      00
 22321              	.LASF67:
 22322 0d01 725F6375 		.ascii	"r_current\000"
 22322      7272656E 
 22322      7400
 22323              	.LASF50:
 22324 0d0b 705F6570 		.ascii	"p_epending\000"
 22324      656E6469 
 22324      6E6700
 22325              	.LASF367:
 22326 0d16 66726F6D 		.ascii	"fromlen\000"
 22326      6C656E00 
 22327              	.LASF130:
 22328 0d1e 6D5F7175 		.ascii	"m_queue\000"
 22328      65756500 
 22329              	.LASF11:
 22330 0d26 6C6F6E67 		.ascii	"long int\000"
 22330      20696E74 
 22330      00
 22331              	.LASF96:
 22332 0d2f 706F7274 		.ascii	"port_intctx\000"
 22332      5F696E74 
 22332      63747800 
 22333              	.LASF405:
 22334 0d3b 49544D5F 		.ascii	"ITM_RxBuffer\000"
 22334      52784275 
 22334      66666572 
 22334      00
 22335              	.LASF255:
 22336 0d48 756E7365 		.ascii	"unsent\000"
 22336      6E7400
 22337              	.LASF299:
 22338 0d4f 74637069 		.ascii	"tcpip_callback_fn\000"
 22338      705F6361 
 22338      6C6C6261 
 22338      636B5F66 
 22338      6E00
 22339              	.LASF238:
 22340 0d61 72747465 		.ascii	"rttest\000"
 22340      737400
 22341              	.LASF172:
 22342 0d68 73615F6C 		.ascii	"sa_len\000"
 22342      656E00
 22343              	.LASF86:
 22344 0d6f 63685F73 		.ascii	"ch_system\000"
 22344      79737465 
 22344      6D00
 22345              	.LASF218:
 22346 0d79 63757272 		.ascii	"current_msg\000"
 22346      656E745F 
 22346      6D736700 
 22347              	.LASF440:
 22348 0d85 6C776970 		.ascii	"lwip_socket_init\000"
 22348      5F736F63 
 22348      6B65745F 
 22348      696E6974 
ARM GAS  C:\Users\jo\AppData\Local\Temp\ccpKXchH.s 			page 411


 22348      00
 22349              	.LASF121:
 22350 0d96 6D5F6372 		.ascii	"m_crit_thd\000"
 22350      69745F74 
 22350      686400
 22351              	.LASF232:
 22352 0da1 6C617374 		.ascii	"last_timer\000"
 22352      5F74696D 
 22352      657200
 22353              	.LASF423:
 22354 0dac 6E657463 		.ascii	"netconn_recv\000"
 22354      6F6E6E5F 
 22354      72656376 
 22354      00
 22355              	.LASF23:
 22356 0db9 75696E74 		.ascii	"uint64_t\000"
 22356      36345F74 
 22356      00
 22357              	.LASF39:
 22358 0dc2 705F6374 		.ascii	"p_ctx\000"
 22358      7800
 22359              	.LASF330:
 22360 0dc8 6C776970 		.ascii	"lwip_selscan\000"
 22360      5F73656C 
 22360      7363616E 
 22360      00
 22361              	.LASF432:
 22362 0dd5 7379735F 		.ascii	"sys_arch_sem_wait\000"
 22362      61726368 
 22362      5F73656D 
 22362      5F776169 
 22362      7400
 22363              	.LASF338:
 22364 0de7 6E726561 		.ascii	"nready\000"
 22364      647900
 22365              	.LASF87:
 22366 0dee 726C6973 		.ascii	"rlist\000"
 22366      7400
 22367              	.LASF254:
 22368 0df4 756E7365 		.ascii	"unsent_oversize\000"
 22368      6E745F6F 
 22368      76657273 
 22368      697A6500 
 22369              	.LASF281:
 22370 0e04 53594E5F 		.ascii	"SYN_SENT\000"
 22370      53454E54 
 22370      00
 22371              	.LASF188:
 22372 0e0d 7379735F 		.ascii	"sys_sem_t\000"
 22372      73656D5F 
 22372      7400
 22373              	.LASF216:
 22374 0e17 736F636B 		.ascii	"socket\000"
 22374      657400
 22375              	.LASF245:
 22376 0e1e 736E645F 		.ascii	"snd_nxt\000"
 22376      6E787400 
ARM GAS  C:\Users\jo\AppData\Local\Temp\ccpKXchH.s 			page 412


 22377              	.LASF364:
 22378 0e26 6261636B 		.ascii	"backlog\000"
 22378      6C6F6700 
 22379              	.LASF383:
 22380 0e2e 646F6D61 		.ascii	"domain\000"
 22380      696E00
 22381              	.LASF165:
 22382 0e35 736F636B 		.ascii	"sockaddr_in\000"
 22382      61646472 
 22382      5F696E00 
 22383              	.LASF4:
 22384 0e41 5F5F7569 		.ascii	"__uint8_t\000"
 22384      6E74385F 
 22384      7400
 22385              	.LASF283:
 22386 0e4b 45535441 		.ascii	"ESTABLISHED\000"
 22386      424C4953 
 22386      48454400 
 22387              	.LASF250:
 22388 0e57 736E645F 		.ascii	"snd_wnd_max\000"
 22388      776E645F 
 22388      6D617800 
 22389              	.LASF147:
 22390 0e63 72656164 		.ascii	"read\000"
 22390      00
 22391              	.LASF133:
 22392 0e68 73656D61 		.ascii	"semaphore\000"
 22392      70686F72 
 22392      6500
 22393              	.LASF394:
 22394 0e72 6C776970 		.ascii	"lwip_getpeername\000"
 22394      5F676574 
 22394      70656572 
 22394      6E616D65 
 22394      00
 22395              	.LASF317:
 22396 0e83 6F707476 		.ascii	"optval\000"
 22396      616C00
 22397              	.LASF390:
 22398 0e8a 73656C65 		.ascii	"select_cb\000"
 22398      63745F63 
 22398      6200
 22399              	.LASF385:
 22400 0e94 6C776970 		.ascii	"lwip_write\000"
 22400      5F777269 
 22400      746500
 22401              	.LASF244:
 22402 0e9f 73737468 		.ascii	"ssthresh\000"
 22402      72657368 
 22402      00
 22403              	.LASF416:
 22404 0ea8 6E657463 		.ascii	"netconn_bind\000"
 22404      6F6E6E5F 
 22404      62696E64 
 22404      00
 22405              	.LASF100:
 22406 0eb5 66645F6D 		.ascii	"fd_mask\000"
ARM GAS  C:\Users\jo\AppData\Local\Temp\ccpKXchH.s 			page 413


 22406      61736B00 
 22407              	.LASF301:
 22408 0ebd 6C617374 		.ascii	"lastdata\000"
 22408      64617461 
 22408      00
 22409              	.LASF187:
 22410 0ec6 706F7274 		.ascii	"port\000"
 22410      00
 22411              	.LASF433:
 22412 0ecb 7379735F 		.ascii	"sys_sem_free\000"
 22412      73656D5F 
 22412      66726565 
 22412      00
 22413              	.LASF242:
 22414 0ed8 6C617374 		.ascii	"lastack\000"
 22414      61636B00 
 22415              	.LASF120:
 22416 0ee0 6E5F6374 		.ascii	"n_ctxswc\000"
 22416      78737763 
 22416      00
 22417              	.LASF37:
 22418 0ee9 705F7072 		.ascii	"p_prev\000"
 22418      657600
 22419              	.LASF189:
 22420 0ef0 7379735F 		.ascii	"sys_mbox_t\000"
 22420      6D626F78 
 22420      5F7400
 22421              	.LASF303:
 22422 0efb 72637665 		.ascii	"rcvevent\000"
 22422      76656E74 
 22422      00
 22423              	.LASF173:
 22424 0f04 73615F66 		.ascii	"sa_family\000"
 22424      616D696C 
 22424      7900
 22425              	.LASF13:
 22426 0f0e 6C6F6E67 		.ascii	"long unsigned int\000"
 22426      20756E73 
 22426      69676E65 
 22426      6420696E 
 22426      7400
 22427              	.LASF60:
 22428 0f20 72656164 		.ascii	"ready_list_t\000"
 22428      795F6C69 
 22428      73745F74 
 22428      00
 22429              	.LASF421:
 22430 0f2d 70627566 		.ascii	"pbuf_copy_partial\000"
 22430      5F636F70 
 22430      795F7061 
 22430      72746961 
 22430      6C00
 22431              	.LASF396:
 22432 0f3f 6C776970 		.ascii	"lwip_getsockopt\000"
 22432      5F676574 
 22432      736F636B 
 22432      6F707400 
ARM GAS  C:\Users\jo\AppData\Local\Temp\ccpKXchH.s 			page 414


 22433              	.LASF372:
 22434 0f4f 6C776970 		.ascii	"lwip_read\000"
 22434      5F726561 
 22434      6400
 22435              	.LASF21:
 22436 0f59 696E7433 		.ascii	"int32_t\000"
 22436      325F7400 
 22437              	.LASF91:
 22438 0f61 69646C65 		.ascii	"idle_thread_wa\000"
 22438      5F746872 
 22438      6561645F 
 22438      776100
 22439              	.LASF297:
 22440 0f70 61706966 		.ascii	"apiflags\000"
 22440      6C616773 
 22440      00
 22441              	.LASF258:
 22442 0f79 72656675 		.ascii	"refused_data\000"
 22442      7365645F 
 22442      64617461 
 22442      00
 22443              	.LASF424:
 22444 0f86 6E657463 		.ascii	"netconn_recv_tcp_pbuf\000"
 22444      6F6E6E5F 
 22444      72656376 
 22444      5F746370 
 22444      5F706275 
 22445              	.LASF318:
 22446 0f9c 6F70746C 		.ascii	"optlen\000"
 22446      656E00
 22447              	.LASF321:
 22448 0fa3 74727967 		.ascii	"tryget_socket\000"
 22448      65745F73 
 22448      6F636B65 
 22448      7400
 22449              	.LASF162:
 22450 0fb1 69705F61 		.ascii	"ip_addr_t\000"
 22450      6464725F 
 22450      7400
 22451              	.LASF203:
 22452 0fbb 6E657463 		.ascii	"netconn_evt\000"
 22452      6F6E6E5F 
 22452      65767400 
 22453              	.LASF419:
 22454 0fc7 6E657463 		.ascii	"netconn_connect\000"
 22454      6F6E6E5F 
 22454      636F6E6E 
 22454      65637400 
 22455              	.LASF209:
 22456 0fd7 6E657463 		.ascii	"netconn_callback\000"
 22456      6F6E6E5F 
 22456      63616C6C 
 22456      6261636B 
 22456      00
 22457              	.LASF401:
 22458 0fe8 736F636B 		.ascii	"sockets\000"
 22458      65747300 
ARM GAS  C:\Users\jo\AppData\Local\Temp\ccpKXchH.s 			page 415


 22459              	.LASF107:
 22460 0ff0 63685F73 		.ascii	"ch_swc_event_t\000"
 22460      77635F65 
 22460      76656E74 
 22460      5F7400
 22461              	.LASF163:
 22462 0fff 696E5F61 		.ascii	"in_addr\000"
 22462      64647200 
 22463              	.LASF137:
 22464 1007 6D757465 		.ascii	"mutex_t\000"
 22464      785F7400 
 22465              	.LASF388:
 22466 100f 77616974 		.ascii	"waitres\000"
 22466      72657300 
 22467              	.LASF114:
 22468 1017 62657374 		.ascii	"best\000"
 22468      00
 22469              	.LASF304:
 22470 101c 73656E64 		.ascii	"sendevent\000"
 22470      6576656E 
 22470      7400
 22471              	.LASF5:
 22472 1026 756E7369 		.ascii	"unsigned char\000"
 22472      676E6564 
 22472      20636861 
 22472      7200
 22473              	.LASF195:
 22474 1034 4E455443 		.ascii	"NETCONN_RAW\000"
 22474      4F4E4E5F 
 22474      52415700 
 22475              	.LASF284:
 22476 1040 46494E5F 		.ascii	"FIN_WAIT_1\000"
 22476      57414954 
 22476      5F3100
 22477              	.LASF285:
 22478 104b 46494E5F 		.ascii	"FIN_WAIT_2\000"
 22478      57414954 
 22478      5F3200
 22479              	.LASF256:
 22480 1056 756E6163 		.ascii	"unacked\000"
 22480      6B656400 
 22481              	.LASF76:
 22482 105e 76697274 		.ascii	"virtual_timers_list_t\000"
 22482      75616C5F 
 22482      74696D65 
 22482      72735F6C 
 22482      6973745F 
 22483              	.LASF46:
 22484 1074 705F7265 		.ascii	"p_refs\000"
 22484      667300
 22485              	.LASF220:
 22486 107b 69705F70 		.ascii	"ip_pcb\000"
 22486      636200
 22487              	.LASF191:
 22488 1082 4E455443 		.ascii	"NETCONN_TCP\000"
 22488      4F4E4E5F 
 22488      54435000 
ARM GAS  C:\Users\jo\AppData\Local\Temp\ccpKXchH.s 			page 416


 22489              	.LASF387:
 22490 108e 74696D65 		.ascii	"timeout\000"
 22490      6F757400 
 22491              	.LASF180:
 22492 1096 70627566 		.ascii	"pbuf\000"
 22492      00
 22493              	.LASF298:
 22494 109b 73687574 		.ascii	"shut\000"
 22494      00
 22495              	.LASF264:
 22496 10a0 6B656570 		.ascii	"keep_idle\000"
 22496      5F69646C 
 22496      6500
 22497              	.LASF200:
 22498 10aa 4E455443 		.ascii	"NETCONN_LISTEN\000"
 22498      4F4E4E5F 
 22498      4C495354 
 22498      454E00
 22499              	.LASF225:
 22500 10b9 63616C6C 		.ascii	"callback_arg\000"
 22500      6261636B 
 22500      5F617267 
 22500      00
 22501              	.LASF371:
 22502 10c6 66726F6D 		.ascii	"fromaddr\000"
 22502      61646472 
 22502      00
 22503              	.LASF280:
 22504 10cf 4C495354 		.ascii	"LISTEN\000"
 22504      454E00
 22505              	.LASF333:
 22506 10d6 77726974 		.ascii	"writeset_in\000"
 22506      65736574 
 22506      5F696E00 
 22507              	.LASF78:
 22508 10e2 76745F6C 		.ascii	"vt_lasttime\000"
 22508      61737474 
 22508      696D6500 
 22509              	.LASF217:
 22510 10ee 77726974 		.ascii	"write_offset\000"
 22510      655F6F66 
 22510      66736574 
 22510      00
 22511              	.LASF161:
 22512 10fb 61646472 		.ascii	"addr\000"
 22512      00
 22513              	.LASF391:
 22514 1100 6C776970 		.ascii	"lwip_shutdown\000"
 22514      5F736875 
 22514      74646F77 
 22514      6E00
 22515              	.LASF211:
 22516 110e 73746174 		.ascii	"state\000"
 22516      6500
 22517              	.LASF315:
 22518 1114 6C657665 		.ascii	"level\000"
 22518      6C00
ARM GAS  C:\Users\jo\AppData\Local\Temp\ccpKXchH.s 			page 417


 22519              	.LASF407:
 22520 111a 63685379 		.ascii	"chSysHalt\000"
 22520      7348616C 
 22520      7400
 22521              	.LASF219:
 22522 1124 63616C6C 		.ascii	"callback\000"
 22522      6261636B 
 22522      00
 22523              	.LASF71:
 22524 112d 76745F6E 		.ascii	"vt_next\000"
 22524      65787400 
 22525              	.LASF253:
 22526 1135 736E645F 		.ascii	"snd_queuelen\000"
 22526      71756575 
 22526      656C656E 
 22526      00
 22527              	.LASF85:
 22528 1142 63685F73 		.ascii	"ch_system_t\000"
 22528      79737465 
 22528      6D5F7400 
 22529              	.LASF420:
 22530 114e 6E657463 		.ascii	"netconn_listen_with_backlog\000"
 22530      6F6E6E5F 
 22530      6C697374 
 22530      656E5F77 
 22530      6974685F 
 22531              	.LASF402:
 22532 116a 73656C65 		.ascii	"select_cb_list\000"
 22532      63745F63 
 22532      625F6C69 
 22532      737400
 22533              	.LASF98:
 22534 1179 5F5F7661 		.ascii	"__va_list\000"
 22534      5F6C6973 
 22534      7400
 22535              	.LASF260:
 22536 1183 72656376 		.ascii	"recv\000"
 22536      00
 22537              	.LASF111:
 22538 1188 63685F74 		.ascii	"ch_trace_buffer_t\000"
 22538      72616365 
 22538      5F627566 
 22538      6665725F 
 22538      7400
 22539              	.LASF132:
 22540 119a 6D5F6E65 		.ascii	"m_next\000"
 22540      787400
 22541              	.LASF324:
 22542 11a1 6E657763 		.ascii	"newconn\000"
 22542      6F6E6E00 
 22543              	.LASF263:
 22544 11a9 65727266 		.ascii	"errf\000"
 22544      00
 22545              	.LASF403:
 22546 11ae 73656C65 		.ascii	"select_cb_ctr\000"
 22546      63745F63 
 22546      625F6374 
ARM GAS  C:\Users\jo\AppData\Local\Temp\ccpKXchH.s 			page 418


 22546      7200
 22547              	.LASF307:
 22548 11bc 6C776970 		.ascii	"lwip_select_cb\000"
 22548      5F73656C 
 22548      6563745F 
 22548      636200
 22549              	.LASF350:
 22550 11cb 61646472 		.ascii	"addrlen\000"
 22550      6C656E00 
 22551              	.LASF349:
 22552 11d3 6E616464 		.ascii	"naddr\000"
 22552      7200
 22553              	.LASF337:
 22554 11d9 65786365 		.ascii	"exceptset_out\000"
 22554      70747365 
 22554      745F6F75 
 22554      7400
 22555              	.LASF435:
 22556 11e7 74637069 		.ascii	"tcpip_callback_with_block\000"
 22556      705F6361 
 22556      6C6C6261 
 22556      636B5F77 
 22556      6974685F 
 22557              	.LASF224:
 22558 1201 7463705F 		.ascii	"tcp_pcb\000"
 22558      70636200 
 22559              	.LASF9:
 22560 1209 73686F72 		.ascii	"short unsigned int\000"
 22560      7420756E 
 22560      7369676E 
 22560      65642069 
 22560      6E7400
 22561              	.LASF64:
 22562 121c 725F6374 		.ascii	"r_ctx\000"
 22562      7800
 22563              	.LASF94:
 22564 1222 73746B61 		.ascii	"stkalign_t\000"
 22564      6C69676E 
 22564      5F7400
 22565              	.LASF363:
 22566 122d 6C776970 		.ascii	"lwip_listen\000"
 22566      5F6C6973 
 22566      74656E00 
 22567              	.LASF412:
 22568 1239 6D656D63 		.ascii	"memcpy\000"
 22568      707900
 22569              	.LASF342:
 22570 1240 5F5F746D 		.ascii	"__tmp\000"
 22570      7000
 22571              	.LASF381:
 22572 1246 77726974 		.ascii	"written\000"
 22572      74656E00 
 22573              	.LASF146:
 22574 124e 77726974 		.ascii	"write\000"
 22574      6500
 22575              	.LASF48:
 22576 1254 705F6D73 		.ascii	"p_msgqueue\000"
ARM GAS  C:\Users\jo\AppData\Local\Temp\ccpKXchH.s 			page 419


 22576      67717565 
 22576      756500
 22577              	.LASF193:
 22578 125f 4E455443 		.ascii	"NETCONN_UDPLITE\000"
 22578      4F4E4E5F 
 22578      5544504C 
 22578      49544500 
 22579              	.LASF265:
 22580 126f 70657273 		.ascii	"persist_cnt\000"
 22580      6973745F 
 22580      636E7400 
 22581              	.LASF222:
 22582 127b 72656D6F 		.ascii	"remote_ip\000"
 22582      74655F69 
 22582      7000
 22583              	.LASF302:
 22584 1285 6C617374 		.ascii	"lastoffset\000"
 22584      6F666673 
 22584      657400
 22585              	.LASF74:
 22586 1290 76745F66 		.ascii	"vt_func\000"
 22586      756E6300 
 22587              	.LASF213:
 22588 1298 6F705F63 		.ascii	"op_completed\000"
 22588      6F6D706C 
 22588      65746564 
 22588      00
 22589              	.LASF316:
 22590 12a5 6F70746E 		.ascii	"optname\000"
 22590      616D6500 
 22591              	.LASF346:
 22592 12ad 6C776970 		.ascii	"lwip_getaddrname\000"
 22592      5F676574 
 22592      61646472 
 22592      6E616D65 
 22592      00
 22593              	.LASF72:
 22594 12be 76745F70 		.ascii	"vt_prev\000"
 22594      72657600 
 22595              	.LASF323:
 22596 12c6 666F726D 		.ascii	"formatted_bytes\000"
 22596      61747465 
 22596      645F6279 
 22596      74657300 
 22597              	.LASF373:
 22598 12d6 6C776970 		.ascii	"lwip_recv\000"
 22598      5F726563 
 22598      7600
 22599              	.LASF268:
 22600 12e0 7564705F 		.ascii	"udp_pcb\000"
 22600      70636200 
 22601              	.LASF210:
 22602 12e8 6E657463 		.ascii	"netconn\000"
 22602      6F6E6E00 
 22603              	.LASF199:
 22604 12f0 4E455443 		.ascii	"NETCONN_WRITE\000"
 22604      4F4E4E5F 
ARM GAS  C:\Users\jo\AppData\Local\Temp\ccpKXchH.s 			page 420


 22604      57524954 
 22604      4500
 22605              	.LASF310:
 22606 12fe 77726974 		.ascii	"writeset\000"
 22606      65736574 
 22606      00
 22607              	.LASF353:
 22608 1307 6C776970 		.ascii	"lwip_accept\000"
 22608      5F616363 
 22608      65707400 
 22609              	.LASF252:
 22610 1313 736E645F 		.ascii	"snd_buf\000"
 22610      62756600 
 22611              	.LASF392:
 22612 131b 73687574 		.ascii	"shut_rx\000"
 22612      5F727800 
 22613              	.LASF175:
 22614 1323 736F636B 		.ascii	"socklen_t\000"
 22614      6C656E5F 
 22614      7400
 22615              	.LASF240:
 22616 132d 6E727478 		.ascii	"nrtx\000"
 22616      00
 22617              	.LASF126:
 22618 1332 65786974 		.ascii	"exitcode\000"
 22618      636F6465 
 22618      00
 22619              	.LASF282:
 22620 133b 53594E5F 		.ascii	"SYN_RCVD\000"
 22620      52435644 
 22620      00
 22621              	.LASF320:
 22622 1344 6765745F 		.ascii	"get_socket\000"
 22622      736F636B 
 22622      657400
 22623              	.LASF160:
 22624 134f 69705F61 		.ascii	"ip_addr\000"
 22624      64647200 
 22625              	.LASF406:
 22626 1357 69746D5F 		.ascii	"itm_port\000"
 22626      706F7274 
 22626      00
 22627              	.LASF341:
 22628 1360 6C657863 		.ascii	"lexceptset\000"
 22628      65707473 
 22628      657400
 22629              		.ident	"GCC: (GNU Tools for ARM Embedded Processors) 4.9.3 20141119 (release) [ARM/embedded-4_9-br
ARM GAS  C:\Users\jo\AppData\Local\Temp\ccpKXchH.s 			page 421


DEFINED SYMBOLS
                            *ABS*:00000000 sockets.c
C:\Users\jo\AppData\Local\Temp\ccpKXchH.s:19     .text.alloc_socket:00000000 $t
C:\Users\jo\AppData\Local\Temp\ccpKXchH.s:24     .text.alloc_socket:00000000 alloc_socket
C:\Users\jo\AppData\Local\Temp\ccpKXchH.s:118    .text.alloc_socket:00000050 $d
C:\Users\jo\AppData\Local\Temp\ccpKXchH.s:123    .text.chprintf.constprop.1:00000000 $t
C:\Users\jo\AppData\Local\Temp\ccpKXchH.s:128    .text.chprintf.constprop.1:00000000 chprintf.constprop.1
C:\Users\jo\AppData\Local\Temp\ccpKXchH.s:174    .text.chprintf.constprop.1:00000020 $d
C:\Users\jo\AppData\Local\Temp\ccpKXchH.s:179    .text.lwip_setsockopt_internal:00000000 $t
C:\Users\jo\AppData\Local\Temp\ccpKXchH.s:184    .text.lwip_setsockopt_internal:00000000 lwip_setsockopt_internal
C:\Users\jo\AppData\Local\Temp\ccpKXchH.s:563    .text.lwip_setsockopt_internal:000001ac $d
C:\Users\jo\AppData\Local\Temp\ccpKXchH.s:580    .text.lwip_getsockopt_internal:00000000 $t
C:\Users\jo\AppData\Local\Temp\ccpKXchH.s:585    .text.lwip_getsockopt_internal:00000000 lwip_getsockopt_internal
C:\Users\jo\AppData\Local\Temp\ccpKXchH.s:1035   .text.lwip_getsockopt_internal:00000210 $d
C:\Users\jo\AppData\Local\Temp\ccpKXchH.s:1056   .text.lwip_selscan:00000000 $t
C:\Users\jo\AppData\Local\Temp\ccpKXchH.s:1061   .text.lwip_selscan:00000000 lwip_selscan
C:\Users\jo\AppData\Local\Temp\ccpKXchH.s:1348   .text.lwip_selscan:00000184 $d
C:\Users\jo\AppData\Local\Temp\ccpKXchH.s:1358   .text.get_socket:00000000 $t
C:\Users\jo\AppData\Local\Temp\ccpKXchH.s:1363   .text.get_socket:00000000 get_socket
C:\Users\jo\AppData\Local\Temp\ccpKXchH.s:1423   .text.get_socket:00000034 $d
C:\Users\jo\AppData\Local\Temp\ccpKXchH.s:1433   .text.event_callback:00000000 $t
C:\Users\jo\AppData\Local\Temp\ccpKXchH.s:1438   .text.event_callback:00000000 event_callback
C:\Users\jo\AppData\Local\Temp\ccpKXchH.s:1483   .text.event_callback:00000024 $d
C:\Users\jo\AppData\Local\Temp\ccpKXchH.s:1663   .text.event_callback:000000f4 $d
C:\Users\jo\AppData\Local\Temp\ccpKXchH.s:1675   .text.lwip_getaddrname:00000000 $t
C:\Users\jo\AppData\Local\Temp\ccpKXchH.s:1680   .text.lwip_getaddrname:00000000 lwip_getaddrname
C:\Users\jo\AppData\Local\Temp\ccpKXchH.s:1799   .text.lwip_getaddrname:000000a0 $d
C:\Users\jo\AppData\Local\Temp\ccpKXchH.s:1807   .text.lwip_socket_init:00000000 $t
C:\Users\jo\AppData\Local\Temp\ccpKXchH.s:1813   .text.lwip_socket_init:00000000 lwip_socket_init
C:\Users\jo\AppData\Local\Temp\ccpKXchH.s:1825   .text.lwip_accept:00000000 $t
C:\Users\jo\AppData\Local\Temp\ccpKXchH.s:1831   .text.lwip_accept:00000000 lwip_accept
C:\Users\jo\AppData\Local\Temp\ccpKXchH.s:2207   .text.lwip_accept:00000208 $d
C:\Users\jo\AppData\Local\Temp\ccpKXchH.s:2228   .text.lwip_bind:00000000 $t
C:\Users\jo\AppData\Local\Temp\ccpKXchH.s:2234   .text.lwip_bind:00000000 lwip_bind
C:\Users\jo\AppData\Local\Temp\ccpKXchH.s:2402   .text.lwip_bind:000000d0 $d
C:\Users\jo\AppData\Local\Temp\ccpKXchH.s:2416   .text.lwip_close:00000000 $t
C:\Users\jo\AppData\Local\Temp\ccpKXchH.s:2422   .text.lwip_close:00000000 lwip_close
C:\Users\jo\AppData\Local\Temp\ccpKXchH.s:2583   .text.lwip_close:0000008c $d
C:\Users\jo\AppData\Local\Temp\ccpKXchH.s:2592   .text.lwip_connect:00000000 $t
C:\Users\jo\AppData\Local\Temp\ccpKXchH.s:2598   .text.lwip_connect:00000000 lwip_connect
C:\Users\jo\AppData\Local\Temp\ccpKXchH.s:2768   .text.lwip_connect:000000d0 $d
C:\Users\jo\AppData\Local\Temp\ccpKXchH.s:2782   .text.lwip_listen:00000000 $t
C:\Users\jo\AppData\Local\Temp\ccpKXchH.s:2788   .text.lwip_listen:00000000 lwip_listen
C:\Users\jo\AppData\Local\Temp\ccpKXchH.s:2884   .text.lwip_listen:0000006c $d
C:\Users\jo\AppData\Local\Temp\ccpKXchH.s:2892   .text.lwip_recvfrom:00000000 $t
C:\Users\jo\AppData\Local\Temp\ccpKXchH.s:2898   .text.lwip_recvfrom:00000000 lwip_recvfrom
C:\Users\jo\AppData\Local\Temp\ccpKXchH.s:3445   .text.lwip_recvfrom:000002e4 $d
C:\Users\jo\AppData\Local\Temp\ccpKXchH.s:3462   .text.lwip_recvfrom:00000318 $t
C:\Users\jo\AppData\Local\Temp\ccpKXchH.s:3536   .text.lwip_recvfrom:00000390 $d
C:\Users\jo\AppData\Local\Temp\ccpKXchH.s:3547   .text.lwip_read:00000000 $t
C:\Users\jo\AppData\Local\Temp\ccpKXchH.s:3553   .text.lwip_read:00000000 lwip_read
C:\Users\jo\AppData\Local\Temp\ccpKXchH.s:3580   .text.lwip_recv:00000000 $t
C:\Users\jo\AppData\Local\Temp\ccpKXchH.s:3586   .text.lwip_recv:00000000 lwip_recv
C:\Users\jo\AppData\Local\Temp\ccpKXchH.s:3614   .text.lwip_sendto:00000000 $t
C:\Users\jo\AppData\Local\Temp\ccpKXchH.s:3620   .text.lwip_sendto:00000000 lwip_sendto
C:\Users\jo\AppData\Local\Temp\ccpKXchH.s:3882   .text.lwip_send:00000000 lwip_send
C:\Users\jo\AppData\Local\Temp\ccpKXchH.s:3863   .text.lwip_sendto:00000140 $d
ARM GAS  C:\Users\jo\AppData\Local\Temp\ccpKXchH.s 			page 422


C:\Users\jo\AppData\Local\Temp\ccpKXchH.s:3876   .text.lwip_send:00000000 $t
C:\Users\jo\AppData\Local\Temp\ccpKXchH.s:4025   .text.lwip_send:000000ac $d
C:\Users\jo\AppData\Local\Temp\ccpKXchH.s:4033   .text.lwip_socket:00000000 $t
C:\Users\jo\AppData\Local\Temp\ccpKXchH.s:4039   .text.lwip_socket:00000000 lwip_socket
C:\Users\jo\AppData\Local\Temp\ccpKXchH.s:4246   .text.lwip_socket:000000dc $d
C:\Users\jo\AppData\Local\Temp\ccpKXchH.s:4260   .text.lwip_write:00000000 $t
C:\Users\jo\AppData\Local\Temp\ccpKXchH.s:4266   .text.lwip_write:00000000 lwip_write
C:\Users\jo\AppData\Local\Temp\ccpKXchH.s:4282   .text.lwip_select:00000000 $t
C:\Users\jo\AppData\Local\Temp\ccpKXchH.s:4288   .text.lwip_select:00000000 lwip_select
C:\Users\jo\AppData\Local\Temp\ccpKXchH.s:4798   .text.lwip_select:000002d8 $d
C:\Users\jo\AppData\Local\Temp\ccpKXchH.s:4814   .text.lwip_select:00000308 $t
C:\Users\jo\AppData\Local\Temp\ccpKXchH.s:4995   .text.lwip_select:000003f8 $d
C:\Users\jo\AppData\Local\Temp\ccpKXchH.s:5007   .text.lwip_shutdown:00000000 $t
C:\Users\jo\AppData\Local\Temp\ccpKXchH.s:5013   .text.lwip_shutdown:00000000 lwip_shutdown
C:\Users\jo\AppData\Local\Temp\ccpKXchH.s:5134   .text.lwip_shutdown:00000078 $d
C:\Users\jo\AppData\Local\Temp\ccpKXchH.s:5141   .text.lwip_getpeername:00000000 $t
C:\Users\jo\AppData\Local\Temp\ccpKXchH.s:5147   .text.lwip_getpeername:00000000 lwip_getpeername
C:\Users\jo\AppData\Local\Temp\ccpKXchH.s:5163   .text.lwip_getsockname:00000000 $t
C:\Users\jo\AppData\Local\Temp\ccpKXchH.s:5169   .text.lwip_getsockname:00000000 lwip_getsockname
C:\Users\jo\AppData\Local\Temp\ccpKXchH.s:5185   .text.lwip_getsockopt:00000000 $t
C:\Users\jo\AppData\Local\Temp\ccpKXchH.s:5191   .text.lwip_getsockopt:00000000 lwip_getsockopt
C:\Users\jo\AppData\Local\Temp\ccpKXchH.s:5450   .text.lwip_getsockopt:0000014c $d
C:\Users\jo\AppData\Local\Temp\ccpKXchH.s:5460   .text.lwip_setsockopt:00000000 $t
C:\Users\jo\AppData\Local\Temp\ccpKXchH.s:5466   .text.lwip_setsockopt:00000000 lwip_setsockopt
C:\Users\jo\AppData\Local\Temp\ccpKXchH.s:5712   .text.lwip_setsockopt:00000128 $d
C:\Users\jo\AppData\Local\Temp\ccpKXchH.s:5722   .text.lwip_ioctl:00000000 $t
C:\Users\jo\AppData\Local\Temp\ccpKXchH.s:5728   .text.lwip_ioctl:00000000 lwip_ioctl
C:\Users\jo\AppData\Local\Temp\ccpKXchH.s:5826   .text.lwip_ioctl:00000068 $d
C:\Users\jo\AppData\Local\Temp\ccpKXchH.s:5834   .text.lwip_fcntl:00000000 $t
C:\Users\jo\AppData\Local\Temp\ccpKXchH.s:5840   .text.lwip_fcntl:00000000 lwip_fcntl
C:\Users\jo\AppData\Local\Temp\ccpKXchH.s:5938   .text.lwip_fcntl:00000060 $d
C:\Users\jo\AppData\Local\Temp\ccpKXchH.s:5944   .rodata.err_to_errno_table:00000000 $d
C:\Users\jo\AppData\Local\Temp\ccpKXchH.s:5948   .rodata.err_to_errno_table:00000000 err_to_errno_table
C:\Users\jo\AppData\Local\Temp\ccpKXchH.s:5966   .bss.select_cb_list:00000000 $d
C:\Users\jo\AppData\Local\Temp\ccpKXchH.s:5970   .bss.select_cb_list:00000000 select_cb_list
C:\Users\jo\AppData\Local\Temp\ccpKXchH.s:5973   .bss.sockets:00000000 $d
C:\Users\jo\AppData\Local\Temp\ccpKXchH.s:5977   .bss.sockets:00000000 sockets
C:\Users\jo\AppData\Local\Temp\ccpKXchH.s:5980   .bss.select_cb_ctr:00000000 $d
C:\Users\jo\AppData\Local\Temp\ccpKXchH.s:5984   .bss.select_cb_ctr:00000000 select_cb_ctr
C:\Users\jo\AppData\Local\Temp\ccpKXchH.s:5987   .rodata.str1.4:00000000 $d
                     .debug_frame:00000010 $d
C:\Users\jo\AppData\Local\Temp\ccpKXchH.s:122    .text.alloc_socket:00000054 $t
C:\Users\jo\AppData\Local\Temp\ccpKXchH.s:178    .text.chprintf.constprop.1:00000024 $t
C:\Users\jo\AppData\Local\Temp\ccpKXchH.s:1055   .text.lwip_getsockopt_internal:00000254 $t
C:\Users\jo\AppData\Local\Temp\ccpKXchH.s:1357   .text.lwip_selscan:00000198 $t
C:\Users\jo\AppData\Local\Temp\ccpKXchH.s:1432   .text.get_socket:00000044 $t
C:\Users\jo\AppData\Local\Temp\ccpKXchH.s:1674   .text.event_callback:0000010c $t
C:\Users\jo\AppData\Local\Temp\ccpKXchH.s:2227   .text.lwip_accept:0000024c $t
C:\Users\jo\AppData\Local\Temp\ccpKXchH.s:2415   .text.lwip_bind:000000f8 $t
C:\Users\jo\AppData\Local\Temp\ccpKXchH.s:2781   .text.lwip_connect:000000f8 $t
C:\Users\jo\AppData\Local\Temp\ccpKXchH.s:2891   .text.lwip_listen:0000007c $t
C:\Users\jo\AppData\Local\Temp\ccpKXchH.s:3546   .text.lwip_recvfrom:000003ac $t
C:\Users\jo\AppData\Local\Temp\ccpKXchH.s:3875   .text.lwip_sendto:00000164 $t
C:\Users\jo\AppData\Local\Temp\ccpKXchH.s:4032   .text.lwip_send:000000bc $t
C:\Users\jo\AppData\Local\Temp\ccpKXchH.s:4259   .text.lwip_socket:00000104 $t
C:\Users\jo\AppData\Local\Temp\ccpKXchH.s:5006   .text.lwip_select:00000418 $t
C:\Users\jo\AppData\Local\Temp\ccpKXchH.s:5140   .text.lwip_shutdown:00000084 $t
ARM GAS  C:\Users\jo\AppData\Local\Temp\ccpKXchH.s 			page 423


C:\Users\jo\AppData\Local\Temp\ccpKXchH.s:5459   .text.lwip_getsockopt:00000164 $t
C:\Users\jo\AppData\Local\Temp\ccpKXchH.s:5833   .text.lwip_ioctl:00000078 $t
C:\Users\jo\AppData\Local\Temp\ccpKXchH.s:5943   .text.lwip_fcntl:00000068 $t
C:\Users\jo\AppData\Local\Temp\ccpKXchH.s:1489   .text.event_callback:00000029 $d
C:\Users\jo\AppData\Local\Temp\ccpKXchH.s:1489   .text.event_callback:0000002a $t

UNDEFINED SYMBOLS
chvprintf
itm_port
chSysHalt
sys_sem_signal
netconn_getaddr
lwip_htons
memcpy
netconn_accept
netconn_delete
lwip_ntohs
netconn_bind
netbuf_delete
pbuf_free
netconn_connect
netconn_listen_with_backlog
pbuf_copy_partial
netconn_recved
netconn_recv
netconn_recv_tcp_pbuf
lwip_strerr
netbuf_ref
netbuf_free
netconn_send
netconn_write_partly
netconn_new_with_proto_and_callback
sys_sem_new
sys_arch_sem_wait
sys_sem_free
netconn_shutdown
tcpip_callback_with_block
