ARM GAS  C:\Users\jo\AppData\Local\Temp\ccpKXchH.s 			page 1


   1              		.syntax unified
   2              		.cpu cortex-m4
   3              		.fpu softvfp
   4              		.eabi_attribute 20, 1
   5              		.eabi_attribute 21, 1
   6              		.eabi_attribute 23, 3
   7              		.eabi_attribute 24, 1
   8              		.eabi_attribute 25, 1
   9              		.eabi_attribute 26, 1
  10              		.eabi_attribute 30, 2
  11              		.eabi_attribute 34, 1
  12              		.eabi_attribute 18, 4
  13              		.thumb
  14              		.file	"sockets.c"
  15              		.text
  16              	.Ltext0:
  17              		.cfi_sections	.debug_frame
  18              		.section	.text.alloc_socket,"ax",%progbits
  19              		.align	2
  20              		.p2align 4,,15
  21              		.thumb
  22              		.thumb_func
  23              		.type	alloc_socket, %function
  24              	alloc_socket:
  25              	.LFB259:
  26              		.file 1 "../../../os/ext/lwip-1.4.1/src/api/sockets.c"
  27              		.loc 1 244 0
  28              		.cfi_startproc
  29              		@ args = 0, pretend = 0, frame = 0
  30              		@ frame_needed = 0, uses_anonymous_args = 0
  31              		@ link register save eliminated.
  32              	.LVL0:
  33 0000 F0B4     		push	{r4, r5, r6, r7}
  34              		.cfi_def_cfa_offset 16
  35              		.cfi_offset 4, -16
  36              		.cfi_offset 5, -12
  37              		.cfi_offset 6, -8
  38              		.cfi_offset 7, -4
  39              		.loc 1 252 0
  40 0002 134C     		ldr	r4, .L12
  41 0004 2268     		ldr	r2, [r4]
  42 0006 32B1     		cbz	r2, .L2
  43              	.LVL1:
  44 0008 A369     		ldr	r3, [r4, #24]
  45 000a 1BB1     		cbz	r3, .L10
  46              		.loc 1 270 0
  47 000c 4FF0FF30 		mov	r0, #-1
  48              	.LVL2:
  49              	.L3:
  50              		.loc 1 271 0
  51 0010 F0BC     		pop	{r4, r5, r6, r7}
  52              		.cfi_remember_state
  53              		.cfi_restore 7
  54              		.cfi_restore 6
  55              		.cfi_restore 5
  56              		.cfi_restore 4
  57              		.cfi_def_cfa_offset 0
ARM GAS  C:\Users\jo\AppData\Local\Temp\ccpKXchH.s 			page 2


  58 0012 7047     		bx	lr
  59              	.LVL3:
  60              	.L10:
  61              		.cfi_restore_state
  62              		.loc 1 249 0
  63 0014 0122     		movs	r2, #1
  64              	.LVL4:
  65              	.L2:
  66              		.loc 1 253 0
  67 0016 5300     		lsls	r3, r2, #1
  68 0018 9D18     		adds	r5, r3, r2
  69              		.loc 1 262 0
  70 001a 0778     		ldrb	r7, [r0]	@ zero_extendqisi2
  71              		.loc 1 253 0
  72 001c ED00     		lsls	r5, r5, #3
  73 001e 6619     		adds	r6, r4, r5
  74 0020 6051     		str	r0, [r4, r5]
  75              		.loc 1 262 0
  76 0022 102F     		cmp	r7, #16
  77              		.loc 1 257 0
  78 0024 4FF00000 		mov	r0, #0
  79              	.LVL5:
  80              		.loc 1 259 0
  81 0028 7081     		strh	r0, [r6, #10]	@ movhi
  82              		.loc 1 257 0
  83 002a 7060     		str	r0, [r6, #4]
  84              		.loc 1 258 0
  85 002c 3081     		strh	r0, [r6, #8]	@ movhi
  86              		.loc 1 262 0
  87 002e 0AD0     		beq	.L11
  88 0030 0121     		movs	r1, #1
  89              	.LVL6:
  90              	.L4:
  91              		.loc 1 262 0 is_stmt 0 discriminator 6
  92 0032 1344     		add	r3, r3, r2
  93 0034 04EBC303 		add	r3, r4, r3, lsl #3
  94              		.loc 1 263 0 is_stmt 1 discriminator 6
  95 0038 0024     		movs	r4, #0
  96              		.loc 1 266 0 discriminator 6
  97 003a 1046     		mov	r0, r2
  98              		.loc 1 262 0 discriminator 6
  99 003c 9981     		strh	r1, [r3, #12]	@ movhi
 100              		.loc 1 263 0 discriminator 6
 101 003e DC81     		strh	r4, [r3, #14]	@ movhi
 102              		.loc 1 264 0 discriminator 6
 103 0040 1C61     		str	r4, [r3, #16]
 104              		.loc 1 265 0 discriminator 6
 105 0042 5C61     		str	r4, [r3, #20]
 106              		.loc 1 266 0 discriminator 6
 107 0044 E4E7     		b	.L3
 108              	.LVL7:
 109              	.L11:
 110 0046 091A     		subs	r1, r1, r0
 111              	.LVL8:
 112 0048 18BF     		it	ne
 113 004a 0121     		movne	r1, #1
 114 004c F1E7     		b	.L4
ARM GAS  C:\Users\jo\AppData\Local\Temp\ccpKXchH.s 			page 3


 115              	.L13:
 116 004e 00BF     		.align	2
 117              	.L12:
 118 0050 00000000 		.word	.LANCHOR0
 119              		.cfi_endproc
 120              	.LFE259:
 121              		.size	alloc_socket, .-alloc_socket
 122 0054 AFF30080 		.section	.text.chprintf.constprop.1,"ax",%progbits
 122      AFF30080 
 122      AFF30080 
 123              		.align	2
 124              		.p2align 4,,15
 125              		.thumb
 126              		.thumb_func
 127              		.type	chprintf.constprop.1, %function
 128              	chprintf.constprop.1:
 129              	.LFB287:
 130              		.file 2 "../../../os/hal/lib/streams/chprintf.h"
 131              		.loc 2 69 0
 132              		.cfi_startproc
 133              		@ args = 4, pretend = 12, frame = 8
 134              		@ frame_needed = 0, uses_anonymous_args = 1
 135              	.LVL9:
 136 0000 0EB4     		push	{r1, r2, r3}
 137              		.cfi_def_cfa_offset 12
 138              		.cfi_offset 1, -12
 139              		.cfi_offset 2, -8
 140              		.cfi_offset 3, -4
 141 0002 00B5     		push	{lr}
 142              		.cfi_def_cfa_offset 16
 143              		.cfi_offset 14, -16
 144 0004 82B0     		sub	sp, sp, #8
 145              		.cfi_def_cfa_offset 24
 146              		.loc 2 69 0
 147 0006 03AA     		add	r2, sp, #12
 148              		.loc 2 74 0
 149 0008 0548     		ldr	r0, .L16
 150              	.LVL10:
 151              		.loc 2 69 0
 152 000a 52F8041B 		ldr	r1, [r2], #4
 153              		.loc 2 73 0
 154 000e 0192     		str	r2, [sp, #4]
 155              		.loc 2 74 0
 156 0010 FFF7FEFF 		bl	chvprintf
 157              	.LVL11:
 158              		.loc 2 78 0
 159 0014 02B0     		add	sp, sp, #8
 160              		.cfi_def_cfa_offset 16
 161              		@ sp needed
 162 0016 5DF804EB 		ldr	lr, [sp], #4
 163              		.cfi_restore 14
 164              		.cfi_def_cfa_offset 12
 165 001a 03B0     		add	sp, sp, #12
 166              		.cfi_restore 3
 167              		.cfi_restore 2
 168              		.cfi_restore 1
 169              		.cfi_def_cfa_offset 0
ARM GAS  C:\Users\jo\AppData\Local\Temp\ccpKXchH.s 			page 4


 170 001c 7047     		bx	lr
 171              	.L17:
 172 001e 00BF     		.align	2
 173              	.L16:
 174 0020 00000000 		.word	itm_port
 175              		.cfi_endproc
 176              	.LFE287:
 177              		.size	chprintf.constprop.1, .-chprintf.constprop.1
 178 0024 AFF30080 		.section	.text.lwip_setsockopt_internal,"ax",%progbits
 178      AFF30080 
 178      AFF30080 
 179              		.align	2
 180              		.p2align 4,,15
 181              		.thumb
 182              		.thumb_func
 183              		.type	lwip_setsockopt_internal, %function
 184              	lwip_setsockopt_internal:
 185              	.LFB283:
 186              		.loc 1 2073 0
 187              		.cfi_startproc
 188              		@ args = 0, pretend = 0, frame = 0
 189              		@ frame_needed = 0, uses_anonymous_args = 0
 190              	.LVL12:
 191 0000 F0B5     		push	{r4, r5, r6, r7, lr}
 192              		.cfi_def_cfa_offset 20
 193              		.cfi_offset 4, -20
 194              		.cfi_offset 5, -16
 195              		.cfi_offset 6, -12
 196              		.cfi_offset 7, -8
 197              		.cfi_offset 14, -4
 198              		.loc 1 2082 0
 199 0002 0446     		mov	r4, r0
 200              		.loc 1 2073 0
 201 0004 83B0     		sub	sp, sp, #12
 202              		.cfi_def_cfa_offset 32
 203              		.loc 1 2082 0
 204 0006 0028     		cmp	r0, #0
 205 0008 00F0AE80 		beq	.L56
 206              	.LVL13:
 207              	.L19:
 208              		.loc 1 2093 0
 209 000c A168     		ldr	r1, [r4, #8]
 210              		.loc 1 2085 0
 211 000e 2568     		ldr	r5, [r4]
 212              	.LVL14:
 213              		.loc 1 2087 0
 214 0010 6268     		ldr	r2, [r4, #4]
 215              	.LVL15:
 216              		.loc 1 2090 0
 217 0012 E368     		ldr	r3, [r4, #12]
 218              	.LVL16:
 219              		.loc 1 2091 0
 220 0014 2069     		ldr	r0, [r4, #16]
 221              	.LVL17:
 222              		.loc 1 2093 0
 223 0016 0629     		cmp	r1, #6
 224 0018 3CD0     		beq	.L21
ARM GAS  C:\Users\jo\AppData\Local\Temp\ccpKXchH.s 			page 5


 225 001a 40F6FF74 		movw	r4, #4095
 226              	.LVL18:
 227 001e A142     		cmp	r1, r4
 228 0020 23D0     		beq	.L22
 229 0022 91B1     		cbz	r1, .L57
 230              		.loc 1 2274 0 discriminator 1
 231 0024 614B     		ldr	r3, .L61
 232              	.LVL19:
 233 0026 0093     		str	r3, [sp]
 234              	.LVL20:
 235 0028 6148     		ldr	r0, .L61+4
 236              	.LVL21:
 237 002a 6249     		ldr	r1, .L61+8
 238              	.LVL22:
 239 002c 624A     		ldr	r2, .L61+12
 240              	.LVL23:
 241 002e 40F6E203 		movw	r3, #2274
 242 0032 FFF7FEFF 		bl	chprintf.constprop.1
 243              	.LVL24:
 244              	.LBB76:
 245              	.LBB77:
 246              		.file 3 "../../../os/hal/osal/rt/osal.h"
 247              		.loc 3 414 0 discriminator 1
 248 0036 6048     		ldr	r0, .L61+12
 249 0038 FFF7FEFF 		bl	chSysHalt
 250              	.LVL25:
 251              	.L30:
 252              	.LBE77:
 253              	.LBE76:
 254              		.loc 1 2277 0
 255 003c 2868     		ldr	r0, [r5]
 256 003e 0C30     		adds	r0, r0, #12
 257              		.loc 1 2278 0
 258 0040 03B0     		add	sp, sp, #12
 259              		.cfi_remember_state
 260              		.cfi_def_cfa_offset 20
 261              		@ sp needed
 262 0042 BDE8F040 		pop	{r4, r5, r6, r7, lr}
 263              		.cfi_restore 14
 264              		.cfi_restore 7
 265              		.cfi_restore 6
 266              		.cfi_restore 5
 267              		.cfi_restore 4
 268              		.cfi_def_cfa_offset 0
 269              	.LVL26:
 270              		.loc 1 2277 0
 271 0046 FFF7FEBF 		b	sys_sem_signal
 272              	.LVL27:
 273              	.L57:
 274              		.cfi_restore_state
 275              		.loc 1 2150 0
 276 004a 012B     		cmp	r3, #1
 277 004c 51D0     		beq	.L33
 278 004e 022B     		cmp	r3, #2
 279 0050 5BD1     		bne	.L51
 280              		.loc 1 2152 0
 281 0052 2B68     		ldr	r3, [r5]
ARM GAS  C:\Users\jo\AppData\Local\Temp\ccpKXchH.s 			page 6


 282              	.LVL28:
 283 0054 0168     		ldr	r1, [r0]
 284              	.LVL29:
 285 0056 5B68     		ldr	r3, [r3, #4]
 286              		.loc 1 2153 0
 287 0058 5548     		ldr	r0, .L61+4
 288              	.LVL30:
 289              		.loc 1 2152 0
 290 005a 9972     		strb	r1, [r3, #10]
 291              	.LVL31:
 292              		.loc 1 2153 0
 293 005c 2B68     		ldr	r3, [r5]
 294 005e 5749     		ldr	r1, .L61+16
 295 0060 5B68     		ldr	r3, [r3, #4]
 296 0062 9B7A     		ldrb	r3, [r3, #10]	@ zero_extendqisi2
 297 0064 FFF7FEFF 		bl	chprintf.constprop.1
 298              	.LVL32:
 299 0068 E8E7     		b	.L30
 300              	.LVL33:
 301              	.L22:
 302              		.loc 1 2097 0
 303 006a 202B     		cmp	r3, #32
 304 006c 5AD0     		beq	.L25
 305 006e 41F20A01 		movw	r1, #4106
 306              	.LVL34:
 307 0072 8B42     		cmp	r3, r1
 308 0074 1FD0     		beq	.L26
 309 0076 082B     		cmp	r3, #8
 310 0078 54D0     		beq	.L25
 311              		.loc 1 2143 0 discriminator 1
 312 007a 4C4B     		ldr	r3, .L61
 313              	.LVL35:
 314 007c 0093     		str	r3, [sp]
 315              	.LVL36:
 316 007e 4D49     		ldr	r1, .L61+8
 317 0080 4F4A     		ldr	r2, .L61+20
 318              	.LVL37:
 319 0082 4B48     		ldr	r0, .L61+4
 320              	.LVL38:
 321 0084 40F65F03 		movw	r3, #2143
 322 0088 FFF7FEFF 		bl	chprintf.constprop.1
 323              	.LVL39:
 324              	.LBB78:
 325              	.LBB79:
 326              		.loc 3 414 0 discriminator 1
 327 008c 4C48     		ldr	r0, .L61+20
 328 008e FFF7FEFF 		bl	chSysHalt
 329              	.LVL40:
 330 0092 D3E7     		b	.L30
 331              	.LVL41:
 332              	.L21:
 333              	.LBE79:
 334              	.LBE78:
 335              		.loc 1 2204 0
 336 0094 012B     		cmp	r3, #1
 337 0096 18D0     		beq	.L36
 338 0098 022B     		cmp	r3, #2
ARM GAS  C:\Users\jo\AppData\Local\Temp\ccpKXchH.s 			page 7


 339 009a 58D1     		bne	.L58
 340              		.loc 1 2215 0
 341 009c 2B68     		ldr	r3, [r5]
 342              	.LVL42:
 343 009e 0468     		ldr	r4, [r0]
 344              	.LVL43:
 345 00a0 5968     		ldr	r1, [r3, #4]
 346              	.LVL44:
 347              		.loc 1 2216 0
 348 00a2 4348     		ldr	r0, .L61+4
 349              	.LVL45:
 350              		.loc 1 2215 0
 351 00a4 C1F89040 		str	r4, [r1, #144]
 352              		.loc 1 2216 0
 353 00a8 5B68     		ldr	r3, [r3, #4]
 354 00aa 4649     		ldr	r1, .L61+24
 355 00ac D3F89030 		ldr	r3, [r3, #144]
 356 00b0 FFF7FEFF 		bl	chprintf.constprop.1
 357              	.LVL46:
 358 00b4 C2E7     		b	.L30
 359              	.LVL47:
 360              	.L26:
 361              		.loc 1 2135 0
 362 00b6 0368     		ldr	r3, [r0]
 363              	.LVL48:
 364 00b8 002B     		cmp	r3, #0
 365 00ba 6FD0     		beq	.L31
 366              		.loc 1 2136 0
 367 00bc 2B68     		ldr	r3, [r5]
 368 00be 5A68     		ldr	r2, [r3, #4]
 369              	.LVL49:
 370 00c0 137C     		ldrb	r3, [r2, #16]	@ zero_extendqisi2
 371 00c2 43F00103 		orr	r3, r3, #1
 372 00c6 1374     		strb	r3, [r2, #16]
 373              	.LVL50:
 374 00c8 B8E7     		b	.L30
 375              	.LVL51:
 376              	.L36:
 377              		.loc 1 2206 0
 378 00ca 0368     		ldr	r3, [r0]
 379              	.LVL52:
 380 00cc 002B     		cmp	r3, #0
 381 00ce 5ED1     		bne	.L59
 382              		.loc 1 2209 0
 383 00d0 2B68     		ldr	r3, [r5]
 384 00d2 5968     		ldr	r1, [r3, #4]
 385              	.LVL53:
 386 00d4 8B7F     		ldrb	r3, [r1, #30]	@ zero_extendqisi2
 387 00d6 23F04003 		bic	r3, r3, #64
 388 00da 8B77     		strb	r3, [r1, #30]
 389              	.LVL54:
 390              	.L39:
 391              		.loc 1 2211 0 discriminator 1
 392 00dc 0668     		ldr	r6, [r0]
 393 00de 3A4C     		ldr	r4, .L61+28
 394              	.LVL55:
 395 00e0 3A4B     		ldr	r3, .L61+32
ARM GAS  C:\Users\jo\AppData\Local\Temp\ccpKXchH.s 			page 8


 396 00e2 3B49     		ldr	r1, .L61+36
 397 00e4 3248     		ldr	r0, .L61+4
 398              	.LVL56:
 399 00e6 002E     		cmp	r6, #0
 400 00e8 08BF     		it	eq
 401 00ea 2346     		moveq	r3, r4
 402 00ec FFF7FEFF 		bl	chprintf.constprop.1
 403              	.LVL57:
 404              		.loc 1 2213 0 discriminator 1
 405 00f0 A4E7     		b	.L30
 406              	.LVL58:
 407              	.L33:
 408              		.loc 1 2157 0
 409 00f2 2B68     		ldr	r3, [r5]
 410              	.LVL59:
 411 00f4 0168     		ldr	r1, [r0]
 412              	.LVL60:
 413 00f6 5B68     		ldr	r3, [r3, #4]
 414              		.loc 1 2158 0
 415 00f8 2D48     		ldr	r0, .L61+4
 416              	.LVL61:
 417              		.loc 1 2157 0
 418 00fa 5972     		strb	r1, [r3, #9]
 419              	.LVL62:
 420              		.loc 1 2158 0
 421 00fc 2B68     		ldr	r3, [r5]
 422 00fe 3549     		ldr	r1, .L61+40
 423 0100 5B68     		ldr	r3, [r3, #4]
 424 0102 5B7A     		ldrb	r3, [r3, #9]	@ zero_extendqisi2
 425 0104 FFF7FEFF 		bl	chprintf.constprop.1
 426              	.LVL63:
 427 0108 98E7     		b	.L30
 428              	.LVL64:
 429              	.L51:
 430              		.loc 1 2196 0 discriminator 1
 431 010a 284B     		ldr	r3, .L61
 432              	.LVL65:
 433 010c 0093     		str	r3, [sp]
 434              	.LVL66:
 435 010e 2949     		ldr	r1, .L61+8
 436              	.LVL67:
 437 0110 2B4A     		ldr	r2, .L61+20
 438              	.LVL68:
 439 0112 2748     		ldr	r0, .L61+4
 440              	.LVL69:
 441 0114 40F69403 		movw	r3, #2196
 442 0118 FFF7FEFF 		bl	chprintf.constprop.1
 443              	.LVL70:
 444              	.LBB80:
 445              	.LBB81:
 446              		.loc 3 414 0 discriminator 1
 447 011c 2848     		ldr	r0, .L61+20
 448 011e FFF7FEFF 		bl	chSysHalt
 449              	.LVL71:
 450 0122 8BE7     		b	.L30
 451              	.LVL72:
 452              	.L25:
ARM GAS  C:\Users\jo\AppData\Local\Temp\ccpKXchH.s 			page 9


 453              	.LBE81:
 454              	.LBE80:
 455              		.loc 1 2110 0
 456 0124 0168     		ldr	r1, [r0]
 457 0126 0029     		cmp	r1, #0
 458 0128 2BD1     		bne	.L60
 459              		.loc 1 2113 0
 460 012a 2968     		ldr	r1, [r5]
 461 012c 4C68     		ldr	r4, [r1, #4]
 462 012e 217A     		ldrb	r1, [r4, #8]	@ zero_extendqisi2
 463 0130 21EA0301 		bic	r1, r1, r3
 464 0134 2172     		strb	r1, [r4, #8]
 465              	.LVL73:
 466              	.L28:
 467              		.loc 1 2115 0 discriminator 1
 468 0136 0768     		ldr	r7, [r0]
 469 0138 244E     		ldr	r6, .L61+32
 470 013a 234C     		ldr	r4, .L61+28
 471 013c 2649     		ldr	r1, .L61+44
 472 013e 1C48     		ldr	r0, .L61+4
 473              	.LVL74:
 474 0140 002F     		cmp	r7, #0
 475 0142 18BF     		it	ne
 476 0144 3446     		movne	r4, r6
 477 0146 0094     		str	r4, [sp]
 478 0148 FFF7FEFF 		bl	chprintf.constprop.1
 479              	.LVL75:
 480              		.loc 1 2117 0 discriminator 1
 481 014c 76E7     		b	.L30
 482              	.LVL76:
 483              	.L58:
 484              		.loc 1 2238 0 discriminator 1
 485 014e 174B     		ldr	r3, .L61
 486              	.LVL77:
 487 0150 0093     		str	r3, [sp]
 488              	.LVL78:
 489 0152 1849     		ldr	r1, .L61+8
 490              	.LVL79:
 491 0154 1A4A     		ldr	r2, .L61+20
 492              	.LVL80:
 493 0156 1648     		ldr	r0, .L61+4
 494              	.LVL81:
 495 0158 40F6BE03 		movw	r3, #2238
 496 015c FFF7FEFF 		bl	chprintf.constprop.1
 497              	.LVL82:
 498              	.LBB82:
 499              	.LBB83:
 500              		.loc 3 414 0 discriminator 1
 501 0160 1748     		ldr	r0, .L61+20
 502 0162 FFF7FEFF 		bl	chSysHalt
 503              	.LVL83:
 504 0166 69E7     		b	.L30
 505              	.LVL84:
 506              	.L56:
 507              	.LBE83:
 508              	.LBE82:
 509              		.loc 1 2082 0 discriminator 1
ARM GAS  C:\Users\jo\AppData\Local\Temp\ccpKXchH.s 			page 10


 510 0168 104B     		ldr	r3, .L61
 511 016a 0093     		str	r3, [sp]
 512 016c 1149     		ldr	r1, .L61+8
 513 016e 1B4A     		ldr	r2, .L61+48
 514 0170 0F48     		ldr	r0, .L61+4
 515              	.LVL85:
 516 0172 40F62203 		movw	r3, #2082
 517 0176 FFF7FEFF 		bl	chprintf.constprop.1
 518              	.LVL86:
 519              	.LBB84:
 520              	.LBB85:
 521              		.loc 3 414 0 discriminator 1
 522 017a 1848     		ldr	r0, .L61+48
 523 017c FFF7FEFF 		bl	chSysHalt
 524              	.LVL87:
 525 0180 44E7     		b	.L19
 526              	.LVL88:
 527              	.L60:
 528              	.LBE85:
 529              	.LBE84:
 530              		.loc 1 2111 0
 531 0182 2968     		ldr	r1, [r5]
 532 0184 4C68     		ldr	r4, [r1, #4]
 533 0186 217A     		ldrb	r1, [r4, #8]	@ zero_extendqisi2
 534 0188 1943     		orrs	r1, r1, r3
 535 018a 2172     		strb	r1, [r4, #8]
 536              	.LVL89:
 537 018c D3E7     		b	.L28
 538              	.LVL90:
 539              	.L59:
 540              		.loc 1 2207 0
 541 018e 2B68     		ldr	r3, [r5]
 542 0190 5968     		ldr	r1, [r3, #4]
 543              	.LVL91:
 544 0192 8B7F     		ldrb	r3, [r1, #30]	@ zero_extendqisi2
 545 0194 43F04003 		orr	r3, r3, #64
 546 0198 8B77     		strb	r3, [r1, #30]
 547              	.LVL92:
 548 019a 9FE7     		b	.L39
 549              	.LVL93:
 550              	.L31:
 551              		.loc 1 2138 0
 552 019c 2B68     		ldr	r3, [r5]
 553 019e 5A68     		ldr	r2, [r3, #4]
 554              	.LVL94:
 555 01a0 137C     		ldrb	r3, [r2, #16]	@ zero_extendqisi2
 556 01a2 23F00103 		bic	r3, r3, #1
 557 01a6 1374     		strb	r3, [r2, #16]
 558              	.LVL95:
 559 01a8 48E7     		b	.L30
 560              	.L62:
 561 01aa 00BF     		.align	2
 562              	.L61:
 563 01ac 3C000000 		.word	.LC4
 564 01b0 00000000 		.word	itm_port
 565 01b4 08000000 		.word	.LC2
 566 01b8 94010000 		.word	.LC11
ARM GAS  C:\Users\jo\AppData\Local\Temp\ccpKXchH.s 			page 11


 567 01bc BC000000 		.word	.LC7
 568 01c0 A8000000 		.word	.LC6
 569 01c4 5C010000 		.word	.LC10
 570 01c8 04000000 		.word	.LC1
 571 01cc 00000000 		.word	.LC0
 572 01d0 24010000 		.word	.LC9
 573 01d4 F0000000 		.word	.LC8
 574 01d8 6C000000 		.word	.LC5
 575 01dc 30000000 		.word	.LC3
 576              		.cfi_endproc
 577              	.LFE283:
 578              		.size	lwip_setsockopt_internal, .-lwip_setsockopt_internal
 579              		.section	.text.lwip_getsockopt_internal,"ax",%progbits
 580              		.align	2
 581              		.p2align 4,,15
 582              		.thumb
 583              		.thumb_func
 584              		.type	lwip_getsockopt_internal, %function
 585              	lwip_getsockopt_internal:
 586              	.LFB281:
 587              		.loc 1 1656 0
 588              		.cfi_startproc
 589              		@ args = 0, pretend = 0, frame = 0
 590              		@ frame_needed = 0, uses_anonymous_args = 0
 591              	.LVL96:
 592 0000 F0B5     		push	{r4, r5, r6, r7, lr}
 593              		.cfi_def_cfa_offset 20
 594              		.cfi_offset 4, -20
 595              		.cfi_offset 5, -16
 596              		.cfi_offset 6, -12
 597              		.cfi_offset 7, -8
 598              		.cfi_offset 14, -4
 599              		.loc 1 1665 0
 600 0002 0446     		mov	r4, r0
 601              		.loc 1 1656 0
 602 0004 83B0     		sub	sp, sp, #12
 603              		.cfi_def_cfa_offset 32
 604              		.loc 1 1665 0
 605 0006 0028     		cmp	r0, #0
 606 0008 00F0C980 		beq	.L116
 607              	.LVL97:
 608              	.L64:
 609              		.loc 1 1676 0
 610 000c A268     		ldr	r2, [r4, #8]
 611              		.loc 1 1673 0
 612 000e E368     		ldr	r3, [r4, #12]
 613              		.loc 1 1676 0
 614 0010 062A     		cmp	r2, #6
 615              		.loc 1 1670 0
 616 0012 94E86000 		ldmia	r4, {r5, r6}
 617              	.LVL98:
 618              		.loc 1 1674 0
 619 0016 2469     		ldr	r4, [r4, #16]
 620              	.LVL99:
 621              		.loc 1 1676 0
 622 0018 46D0     		beq	.L66
 623 001a 40F6FF71 		movw	r1, #4095
ARM GAS  C:\Users\jo\AppData\Local\Temp\ccpKXchH.s 			page 12


 624 001e 8A42     		cmp	r2, r1
 625 0020 23D0     		beq	.L67
 626 0022 92B1     		cbz	r2, .L117
 627              		.loc 1 1856 0 discriminator 1
 628 0024 7A4B     		ldr	r3, .L123
 629              	.LVL100:
 630 0026 0093     		str	r3, [sp]
 631              	.LVL101:
 632 0028 7A49     		ldr	r1, .L123+4
 633 002a 7B4A     		ldr	r2, .L123+8
 634              	.LVL102:
 635 002c 7B48     		ldr	r0, .L123+12
 636 002e 4FF4E863 		mov	r3, #1856
 637 0032 FFF7FEFF 		bl	chprintf.constprop.1
 638              	.LVL103:
 639              	.LBB86:
 640              	.LBB87:
 641              		.loc 3 414 0 discriminator 1
 642 0036 7848     		ldr	r0, .L123+8
 643 0038 FFF7FEFF 		bl	chSysHalt
 644              	.LVL104:
 645 003c 2868     		ldr	r0, [r5]
 646              	.LVL105:
 647              	.L76:
 648              	.LBE87:
 649              	.LBE86:
 650              		.loc 1 1859 0
 651 003e 0C30     		adds	r0, r0, #12
 652              		.loc 1 1860 0
 653 0040 03B0     		add	sp, sp, #12
 654              		.cfi_remember_state
 655              		.cfi_def_cfa_offset 20
 656              		@ sp needed
 657 0042 BDE8F040 		pop	{r4, r5, r6, r7, lr}
 658              		.cfi_restore 14
 659              		.cfi_restore 7
 660              		.cfi_restore 6
 661              		.cfi_restore 5
 662              		.cfi_restore 4
 663              		.cfi_def_cfa_offset 0
 664              	.LVL106:
 665              		.loc 1 1859 0
 666 0046 FFF7FEBF 		b	sys_sem_signal
 667              	.LVL107:
 668              	.L117:
 669              		.cfi_restore_state
 670              		.loc 1 1759 0
 671 004a 012B     		cmp	r3, #1
 672 004c 3CD0     		beq	.L86
 673 004e 022B     		cmp	r3, #2
 674 0050 40F09780 		bne	.L109
 675              		.loc 1 1761 0
 676 0054 2B68     		ldr	r3, [r5]
 677              	.LVL108:
 678              		.loc 1 1762 0
 679 0056 7148     		ldr	r0, .L123+12
 680              		.loc 1 1761 0
ARM GAS  C:\Users\jo\AppData\Local\Temp\ccpKXchH.s 			page 13


 681 0058 5B68     		ldr	r3, [r3, #4]
 682              		.loc 1 1762 0
 683 005a 7149     		ldr	r1, .L123+16
 684              		.loc 1 1761 0
 685 005c 9B7A     		ldrb	r3, [r3, #10]	@ zero_extendqisi2
 686 005e 2360     		str	r3, [r4]
 687              	.LVL109:
 688              		.loc 1 1762 0
 689 0060 3246     		mov	r2, r6
 690              	.LVL110:
 691 0062 FFF7FEFF 		bl	chprintf.constprop.1
 692              	.LVL111:
 693 0066 2868     		ldr	r0, [r5]
 694 0068 E9E7     		b	.L76
 695              	.LVL112:
 696              	.L67:
 697              		.loc 1 1680 0
 698 006a 202B     		cmp	r3, #32
 699 006c 4ED0     		beq	.L70
 700 006e 49DD     		ble	.L118
 701 0070 41F20802 		movw	r2, #4104
 702              	.LVL113:
 703 0074 9342     		cmp	r3, r2
 704 0076 00F0A680 		beq	.L72
 705 007a 41F20A02 		movw	r2, #4106
 706 007e 9342     		cmp	r3, r2
 707 0080 00F09A80 		beq	.L73
 708 0084 41F20702 		movw	r2, #4103
 709 0088 9342     		cmp	r3, r2
 710 008a 53D0     		beq	.L119
 711              	.L69:
 712              		.loc 1 1752 0 discriminator 1
 713 008c 604B     		ldr	r3, .L123
 714              	.LVL114:
 715 008e 0093     		str	r3, [sp]
 716              	.LVL115:
 717 0090 6049     		ldr	r1, .L123+4
 718 0092 644A     		ldr	r2, .L123+20
 719 0094 6148     		ldr	r0, .L123+12
 720 0096 4FF4DB63 		mov	r3, #1752
 721 009a FFF7FEFF 		bl	chprintf.constprop.1
 722              	.LVL116:
 723              	.LBB88:
 724              	.LBB89:
 725              		.loc 3 414 0 discriminator 1
 726 009e 6148     		ldr	r0, .L123+20
 727 00a0 FFF7FEFF 		bl	chSysHalt
 728              	.LVL117:
 729 00a4 2868     		ldr	r0, [r5]
 730 00a6 CAE7     		b	.L76
 731              	.LVL118:
 732              	.L66:
 733              	.LBE89:
 734              	.LBE88:
 735              		.loc 1 1800 0
 736 00a8 012B     		cmp	r3, #1
 737 00aa 18D0     		beq	.L89
ARM GAS  C:\Users\jo\AppData\Local\Temp\ccpKXchH.s 			page 14


 738 00ac 022B     		cmp	r3, #2
 739 00ae 5AD1     		bne	.L120
 740              		.loc 1 1807 0
 741 00b0 2B68     		ldr	r3, [r5]
 742              	.LVL119:
 743              		.loc 1 1808 0
 744 00b2 5A48     		ldr	r0, .L123+12
 745              		.loc 1 1807 0
 746 00b4 5B68     		ldr	r3, [r3, #4]
 747              		.loc 1 1808 0
 748 00b6 5C49     		ldr	r1, .L123+24
 749              		.loc 1 1807 0
 750 00b8 D3F89030 		ldr	r3, [r3, #144]
 751 00bc 2360     		str	r3, [r4]
 752              	.LVL120:
 753              		.loc 1 1808 0
 754 00be 3246     		mov	r2, r6
 755              	.LVL121:
 756 00c0 FFF7FEFF 		bl	chprintf.constprop.1
 757              	.LVL122:
 758 00c4 2868     		ldr	r0, [r5]
 759 00c6 BAE7     		b	.L76
 760              	.LVL123:
 761              	.L86:
 762              		.loc 1 1766 0
 763 00c8 2B68     		ldr	r3, [r5]
 764              	.LVL124:
 765              		.loc 1 1767 0
 766 00ca 5448     		ldr	r0, .L123+12
 767              		.loc 1 1766 0
 768 00cc 5B68     		ldr	r3, [r3, #4]
 769              		.loc 1 1767 0
 770 00ce 5749     		ldr	r1, .L123+28
 771              		.loc 1 1766 0
 772 00d0 5B7A     		ldrb	r3, [r3, #9]	@ zero_extendqisi2
 773 00d2 2360     		str	r3, [r4]
 774              	.LVL125:
 775              		.loc 1 1767 0
 776 00d4 3246     		mov	r2, r6
 777              	.LVL126:
 778 00d6 FFF7FEFF 		bl	chprintf.constprop.1
 779              	.LVL127:
 780 00da 2868     		ldr	r0, [r5]
 781 00dc AFE7     		b	.L76
 782              	.LVL128:
 783              	.L89:
 784              		.loc 1 1802 0
 785 00de 2B68     		ldr	r3, [r5]
 786              	.LVL129:
 787              		.loc 1 1803 0
 788 00e0 DFF854E1 		ldr	lr, .L123+40
 789              		.loc 1 1802 0
 790 00e4 5A68     		ldr	r2, [r3, #4]
 791              	.LVL130:
 792              		.loc 1 1803 0
 793 00e6 524B     		ldr	r3, .L123+32
 794              		.loc 1 1802 0
ARM GAS  C:\Users\jo\AppData\Local\Temp\ccpKXchH.s 			page 15


 795 00e8 977F     		ldrb	r7, [r2, #30]	@ zero_extendqisi2
 796              		.loc 1 1803 0
 797 00ea 4C48     		ldr	r0, .L123+12
 798 00ec 5149     		ldr	r1, .L123+36
 799              		.loc 1 1802 0
 800 00ee C7F38017 		ubfx	r7, r7, #6, #1
 801              		.loc 1 1803 0
 802 00f2 3246     		mov	r2, r6
 803              		.loc 1 1802 0
 804 00f4 2760     		str	r7, [r4]
 805              	.LVL131:
 806              		.loc 1 1803 0
 807 00f6 002F     		cmp	r7, #0
 808 00f8 18BF     		it	ne
 809 00fa 7346     		movne	r3, lr
 810 00fc FFF7FEFF 		bl	chprintf.constprop.1
 811              	.LVL132:
 812 0100 2868     		ldr	r0, [r5]
 813              		.loc 1 1805 0
 814 0102 9CE7     		b	.L76
 815              	.LVL133:
 816              	.L118:
 817              		.loc 1 1680 0
 818 0104 022B     		cmp	r3, #2
 819 0106 01D0     		beq	.L70
 820 0108 082B     		cmp	r3, #8
 821 010a BFD1     		bne	.L69
 822              	.L70:
 823              		.loc 1 1694 0
 824 010c 2968     		ldr	r1, [r5]
 825              		.loc 1 1695 0
 826 010e 4A4A     		ldr	r2, .L123+40
 827              	.LVL134:
 828              		.loc 1 1694 0
 829 0110 4968     		ldr	r1, [r1, #4]
 830              		.loc 1 1695 0
 831 0112 DFF81CE1 		ldr	lr, .L123+32
 832              		.loc 1 1694 0
 833 0116 0F7A     		ldrb	r7, [r1, #8]	@ zero_extendqisi2
 834              		.loc 1 1695 0
 835 0118 4048     		ldr	r0, .L123+12
 836 011a 4849     		ldr	r1, .L123+44
 837              		.loc 1 1694 0
 838 011c 1F40     		ands	r7, r7, r3
 839              		.loc 1 1695 0
 840 011e 002F     		cmp	r7, #0
 841 0120 18BF     		it	ne
 842 0122 9646     		movne	lr, r2
 843              		.loc 1 1694 0
 844 0124 2760     		str	r7, [r4]
 845              	.LVL135:
 846              		.loc 1 1695 0
 847 0126 3246     		mov	r2, r6
 848 0128 CDF800E0 		str	lr, [sp]
 849 012c FFF7FEFF 		bl	chprintf.constprop.1
 850              	.LVL136:
 851 0130 2868     		ldr	r0, [r5]
ARM GAS  C:\Users\jo\AppData\Local\Temp\ccpKXchH.s 			page 16


 852              		.loc 1 1697 0
 853 0132 84E7     		b	.L76
 854              	.LVL137:
 855              	.L119:
 856              		.loc 1 1722 0
 857 0134 2B69     		ldr	r3, [r5, #16]
 858              	.LVL138:
 859 0136 002B     		cmp	r3, #0
 860 0138 5DD1     		bne	.L121
 861              	.L82:
 862              		.loc 1 1723 0
 863 013a 2B68     		ldr	r3, [r5]
 864 013c 93F90830 		ldrsb	r3, [r3, #8]
 865 0140 5B42     		negs	r3, r3
 866 0142 0F2B     		cmp	r3, #15
 867 0144 96BF     		itet	ls
 868 0146 3E4A     		ldrls	r2, .L123+48
 869 0148 0523     		movhi	r3, #5
 870 014a 52F82330 		ldrls	r3, [r2, r3, lsl #2]
 871 014e 2B61     		str	r3, [r5, #16]
 872              	.L83:
 873              		.loc 1 1726 0
 874 0150 0022     		movs	r2, #0
 875              		.loc 1 1725 0
 876 0152 2360     		str	r3, [r4]
 877              	.LVL139:
 878              		.loc 1 1726 0
 879 0154 2A61     		str	r2, [r5, #16]
 880              		.loc 1 1727 0
 881 0156 2368     		ldr	r3, [r4]
 882 0158 3048     		ldr	r0, .L123+12
 883 015a 3A49     		ldr	r1, .L123+52
 884 015c 3246     		mov	r2, r6
 885 015e FFF7FEFF 		bl	chprintf.constprop.1
 886              	.LVL140:
 887 0162 2868     		ldr	r0, [r5]
 888 0164 6BE7     		b	.L76
 889              	.LVL141:
 890              	.L120:
 891              		.loc 1 1830 0 discriminator 1
 892 0166 2A4B     		ldr	r3, .L123
 893              	.LVL142:
 894 0168 0093     		str	r3, [sp]
 895              	.LVL143:
 896 016a 2A49     		ldr	r1, .L123+4
 897 016c 2D4A     		ldr	r2, .L123+20
 898              	.LVL144:
 899 016e 2B48     		ldr	r0, .L123+12
 900 0170 40F22673 		movw	r3, #1830
 901 0174 FFF7FEFF 		bl	chprintf.constprop.1
 902              	.LVL145:
 903              	.LBB90:
 904              	.LBB91:
 905              		.loc 3 414 0 discriminator 1
 906 0178 2A48     		ldr	r0, .L123+20
 907 017a FFF7FEFF 		bl	chSysHalt
 908              	.LVL146:
ARM GAS  C:\Users\jo\AppData\Local\Temp\ccpKXchH.s 			page 17


 909 017e 2868     		ldr	r0, [r5]
 910 0180 5DE7     		b	.L76
 911              	.LVL147:
 912              	.L109:
 913              	.LBE91:
 914              	.LBE90:
 915              		.loc 1 1792 0 discriminator 1
 916 0182 234B     		ldr	r3, .L123
 917              	.LVL148:
 918 0184 0093     		str	r3, [sp]
 919              	.LVL149:
 920 0186 2349     		ldr	r1, .L123+4
 921 0188 264A     		ldr	r2, .L123+20
 922              	.LVL150:
 923 018a 2448     		ldr	r0, .L123+12
 924 018c 4FF4E063 		mov	r3, #1792
 925 0190 FFF7FEFF 		bl	chprintf.constprop.1
 926              	.LVL151:
 927              	.LBB92:
 928              	.LBB93:
 929              		.loc 3 414 0 discriminator 1
 930 0194 2348     		ldr	r0, .L123+20
 931 0196 FFF7FEFF 		bl	chSysHalt
 932              	.LVL152:
 933 019a 2868     		ldr	r0, [r5]
 934 019c 4FE7     		b	.L76
 935              	.LVL153:
 936              	.L116:
 937              	.LBE93:
 938              	.LBE92:
 939              		.loc 1 1665 0 discriminator 1
 940 019e 1C4B     		ldr	r3, .L123
 941 01a0 0093     		str	r3, [sp]
 942 01a2 1C49     		ldr	r1, .L123+4
 943 01a4 284A     		ldr	r2, .L123+56
 944 01a6 1D48     		ldr	r0, .L123+12
 945              	.LVL154:
 946 01a8 40F28163 		movw	r3, #1665
 947 01ac FFF7FEFF 		bl	chprintf.constprop.1
 948              	.LVL155:
 949              	.LBB94:
 950              	.LBB95:
 951              		.loc 3 414 0 discriminator 1
 952 01b0 2548     		ldr	r0, .L123+56
 953 01b2 FFF7FEFF 		bl	chSysHalt
 954              	.LVL156:
 955 01b6 29E7     		b	.L64
 956              	.LVL157:
 957              	.L73:
 958              	.LBE95:
 959              	.LBE94:
 960              		.loc 1 1748 0
 961 01b8 2868     		ldr	r0, [r5]
 962 01ba 4368     		ldr	r3, [r0, #4]
 963              	.LVL158:
 964 01bc 1B7C     		ldrb	r3, [r3, #16]	@ zero_extendqisi2
 965 01be 03F00103 		and	r3, r3, #1
ARM GAS  C:\Users\jo\AppData\Local\Temp\ccpKXchH.s 			page 18


 966 01c2 2360     		str	r3, [r4]
 967              	.LVL159:
 968              		.loc 1 1749 0
 969 01c4 3BE7     		b	.L76
 970              	.LVL160:
 971              	.L72:
 972              		.loc 1 1700 0
 973 01c6 2B68     		ldr	r3, [r5]
 974              	.LVL161:
 975 01c8 1B78     		ldrb	r3, [r3]	@ zero_extendqisi2
 976 01ca 03F0F002 		and	r2, r3, #240
 977 01ce 202A     		cmp	r2, #32
 978 01d0 14D0     		beq	.L78
 979 01d2 402A     		cmp	r2, #64
 980 01d4 18D0     		beq	.L79
 981 01d6 102A     		cmp	r2, #16
 982 01d8 13D0     		beq	.L122
 983              		.loc 1 1711 0
 984 01da 2360     		str	r3, [r4]
 985              	.LVL162:
 986              		.loc 1 1712 0
 987 01dc 0F48     		ldr	r0, .L123+12
 988 01de 1B49     		ldr	r1, .L123+60
 989 01e0 3246     		mov	r2, r6
 990 01e2 FFF7FEFF 		bl	chprintf.constprop.1
 991              	.LVL163:
 992 01e6 2368     		ldr	r3, [r4]
 993              	.L81:
 994              		.loc 1 1716 0 discriminator 1
 995 01e8 0C48     		ldr	r0, .L123+12
 996 01ea 1949     		ldr	r1, .L123+64
 997 01ec 3246     		mov	r2, r6
 998 01ee FFF7FEFF 		bl	chprintf.constprop.1
 999              	.LVL164:
 1000 01f2 2868     		ldr	r0, [r5]
 1001              		.loc 1 1718 0 discriminator 1
 1002 01f4 23E7     		b	.L76
 1003              	.LVL165:
 1004              	.L121:
 1005              		.loc 1 1722 0 discriminator 1
 1006 01f6 732B     		cmp	r3, #115
 1007 01f8 AAD1     		bne	.L83
 1008 01fa 9EE7     		b	.L82
 1009              	.L78:
 1010              		.loc 1 1708 0
 1011 01fc 0223     		movs	r3, #2
 1012 01fe 2360     		str	r3, [r4]
 1013              	.LVL166:
 1014              		.loc 1 1709 0
 1015 0200 F2E7     		b	.L81
 1016              	.LVL167:
 1017              	.L122:
 1018              		.loc 1 1705 0
 1019 0202 0123     		movs	r3, #1
 1020 0204 2360     		str	r3, [r4]
 1021              	.LVL168:
 1022              		.loc 1 1706 0
ARM GAS  C:\Users\jo\AppData\Local\Temp\ccpKXchH.s 			page 19


 1023 0206 EFE7     		b	.L81
 1024              	.LVL169:
 1025              	.L79:
 1026              		.loc 1 1702 0
 1027 0208 0323     		movs	r3, #3
 1028 020a 2360     		str	r3, [r4]
 1029              	.LVL170:
 1030              		.loc 1 1703 0
 1031 020c ECE7     		b	.L81
 1032              	.L124:
 1033 020e 00BF     		.align	2
 1034              	.L123:
 1035 0210 3C000000 		.word	.LC4
 1036 0214 08000000 		.word	.LC2
 1037 0218 94010000 		.word	.LC11
 1038 021c 00000000 		.word	itm_port
 1039 0220 84020000 		.word	.LC16
 1040 0224 A8000000 		.word	.LC6
 1041 0228 18030000 		.word	.LC19
 1042 022c B4020000 		.word	.LC17
 1043 0230 04000000 		.word	.LC1
 1044 0234 E4020000 		.word	.LC18
 1045 0238 00000000 		.word	.LC0
 1046 023c A4010000 		.word	.LC12
 1047 0240 00000000 		.word	.LANCHOR1
 1048 0244 54020000 		.word	.LC15
 1049 0248 30000000 		.word	.LC3
 1050 024c DC010000 		.word	.LC13
 1051 0250 24020000 		.word	.LC14
 1052              		.cfi_endproc
 1053              	.LFE281:
 1054              		.size	lwip_getsockopt_internal, .-lwip_getsockopt_internal
 1055 0254 AFF30080 		.section	.text.lwip_selscan,"ax",%progbits
 1055      AFF30080 
 1055      AFF30080 
 1056              		.align	2
 1057              		.p2align 4,,15
 1058              		.thumb
 1059              		.thumb_func
 1060              		.type	lwip_selscan, %function
 1061              	lwip_selscan:
 1062              	.LFB273:
 1063              		.loc 1 1028 0
 1064              		.cfi_startproc
 1065              		@ args = 12, pretend = 0, frame = 32
 1066              		@ frame_needed = 0, uses_anonymous_args = 0
 1067              	.LVL171:
 1068 0000 2DE9F04F 		push	{r4, r5, r6, r7, r8, r9, r10, fp, lr}
 1069              		.cfi_def_cfa_offset 36
 1070              		.cfi_offset 4, -36
 1071              		.cfi_offset 5, -32
 1072              		.cfi_offset 6, -28
 1073              		.cfi_offset 7, -24
 1074              		.cfi_offset 8, -20
 1075              		.cfi_offset 9, -16
 1076              		.cfi_offset 10, -12
 1077              		.cfi_offset 11, -8
ARM GAS  C:\Users\jo\AppData\Local\Temp\ccpKXchH.s 			page 20


 1078              		.cfi_offset 14, -4
 1079 0004 89B0     		sub	sp, sp, #36
 1080              		.cfi_def_cfa_offset 72
 1081              	.LVL172:
 1082              	.LBB96:
 1083              		.loc 1 1034 0
 1084 0006 02AC     		add	r4, sp, #8
 1085              	.LVL173:
 1086 0008 0025     		movs	r5, #0
 1087              	.LVL174:
 1088              	.L126:
 1089              		.loc 1 1034 0 is_stmt 0 discriminator 3
 1090 000a 04F8015B 		strb	r5, [r4], #1
 1091              	.LVL175:
 1092 000e 04AE     		add	r6, sp, #16
 1093 0010 B442     		cmp	r4, r6
 1094 0012 FAD1     		bne	.L126
 1095 0014 3446     		mov	r4, r6
 1096              	.LVL176:
 1097              	.LBE96:
 1098              	.LBB97:
 1099              		.loc 1 1035 0 is_stmt 1
 1100 0016 0025     		movs	r5, #0
 1101              	.L127:
 1102              	.LVL177:
 1103              		.loc 1 1035 0 is_stmt 0 discriminator 3
 1104 0018 04F8015B 		strb	r5, [r4], #1
 1105              	.LVL178:
 1106 001c 06AE     		add	r6, sp, #24
 1107 001e B442     		cmp	r4, r6
 1108 0020 FAD1     		bne	.L127
 1109 0022 3446     		mov	r4, r6
 1110              	.LVL179:
 1111              	.LBE97:
 1112              	.LBB98:
 1113              		.loc 1 1036 0 is_stmt 1
 1114 0024 0025     		movs	r5, #0
 1115              	.L128:
 1116              	.LVL180:
 1117              		.loc 1 1036 0 is_stmt 0 discriminator 3
 1118 0026 04F8015B 		strb	r5, [r4], #1
 1119              	.LVL181:
 1120 002a 08AE     		add	r6, sp, #32
 1121 002c B442     		cmp	r4, r6
 1122 002e FAD1     		bne	.L128
 1123              	.LVL182:
 1124              	.LBE98:
 1125              		.loc 1 1040 0 is_stmt 1 discriminator 1
 1126 0030 0028     		cmp	r0, #0
 1127 0032 40F39380 		ble	.L136
 1128              		.loc 1 1040 0 is_stmt 0
 1129 0036 4FF0000B 		mov	fp, #0
 1130 003a DFF858A1 		ldr	r10, .L172+16
 1131 003e 9946     		mov	r9, r3
 1132 0040 9046     		mov	r8, r2
 1133 0042 0F46     		mov	r7, r1
 1134 0044 5C46     		mov	r4, fp
ARM GAS  C:\Users\jo\AppData\Local\Temp\ccpKXchH.s 			page 21


 1135              	.LVL183:
 1136 0046 0646     		mov	r6, r0
 1137              	.LVL184:
 1138              	.L135:
 1139              	.LBB99:
 1140              	.LBB100:
 1141              	.LBB101:
 1142              		.loc 1 225 0 is_stmt 1
 1143 0048 012C     		cmp	r4, #1
 1144 004a 40F28A80 		bls	.L168
 1145              	.LBE101:
 1146              	.LBE100:
 1147              		.loc 1 1044 0
 1148 004e 0025     		movs	r5, #0
 1149              		.loc 1 1043 0
 1150 0050 AC46     		mov	ip, r5
 1151              		.loc 1 1042 0
 1152 0052 AE46     		mov	lr, r5
 1153              		.loc 1 1041 0
 1154 0054 2846     		mov	r0, r5
 1155              	.LVL185:
 1156              	.L130:
 1157              		.loc 1 1057 0
 1158 0056 07B3     		cbz	r7, .L131
 1159              		.loc 1 1057 0 is_stmt 0 discriminator 1
 1160 0058 6209     		lsrs	r2, r4, #5
 1161 005a 04F01F01 		and	r1, r4, #31
 1162 005e 57F82230 		ldr	r3, [r7, r2, lsl #2]
 1163 0062 0B41     		asrs	r3, r3, r1
 1164 0064 DB07     		lsls	r3, r3, #31
 1165 0066 18D5     		bpl	.L131
 1166              		.loc 1 1057 0 discriminator 2
 1167 0068 0028     		cmp	r0, #0
 1168 006a 5FD0     		beq	.L169
 1169              	.LVL186:
 1170              	.L132:
 1171              		.loc 1 1058 0 is_stmt 1
 1172 006c 08AB     		add	r3, sp, #32
 1173 006e 03EB8202 		add	r2, r3, r2, lsl #2
 1174 0072 4FF0010E 		mov	lr, #1
 1175 0076 52F8183C 		ldr	r3, [r2, #-24]
 1176              		.loc 1 1059 0
 1177 007a 4248     		ldr	r0, .L172
 1178              	.LVL187:
 1179 007c CDF804C0 		str	ip, [sp, #4]
 1180              		.loc 1 1058 0
 1181 0080 0EFA01F1 		lsl	r1, lr, r1
 1182 0084 0B43     		orrs	r3, r3, r1
 1183 0086 42F8183C 		str	r3, [r2, #-24]
 1184              		.loc 1 1059 0
 1185 008a 3F49     		ldr	r1, .L172+4
 1186 008c 2246     		mov	r2, r4
 1187 008e FFF7FEFF 		bl	chprintf.constprop.1
 1188              	.LVL188:
 1189              		.loc 1 1060 0
 1190 0092 DDF804C0 		ldr	ip, [sp, #4]
 1191 0096 0BF1010B 		add	fp, fp, #1
ARM GAS  C:\Users\jo\AppData\Local\Temp\ccpKXchH.s 			page 22


 1192              	.LVL189:
 1193              	.L131:
 1194              		.loc 1 1063 0
 1195 009a B8F1000F 		cmp	r8, #0
 1196 009e 0AD0     		beq	.L133
 1197              		.loc 1 1063 0 is_stmt 0 discriminator 1
 1198 00a0 6209     		lsrs	r2, r4, #5
 1199 00a2 04F01F01 		and	r1, r4, #31
 1200 00a6 58F82230 		ldr	r3, [r8, r2, lsl #2]
 1201 00aa 0B41     		asrs	r3, r3, r1
 1202 00ac D807     		lsls	r0, r3, #31
 1203 00ae 02D5     		bpl	.L133
 1204              		.loc 1 1063 0 discriminator 2
 1205 00b0 BCF1000F 		cmp	ip, #0
 1206 00b4 26D1     		bne	.L170
 1207              	.L133:
 1208              		.loc 1 1069 0 is_stmt 1
 1209 00b6 B9F1000F 		cmp	r9, #0
 1210 00ba 08D0     		beq	.L134
 1211              		.loc 1 1069 0 is_stmt 0 discriminator 1
 1212 00bc 6209     		lsrs	r2, r4, #5
 1213 00be 04F01F01 		and	r1, r4, #31
 1214 00c2 59F82230 		ldr	r3, [r9, r2, lsl #2]
 1215 00c6 0B41     		asrs	r3, r3, r1
 1216 00c8 DB07     		lsls	r3, r3, #31
 1217 00ca 00D5     		bpl	.L134
 1218              		.loc 1 1069 0 discriminator 2
 1219 00cc A5BB     		cbnz	r5, .L171
 1220              	.LVL190:
 1221              	.L134:
 1222              	.LBE99:
 1223              		.loc 1 1040 0 is_stmt 1 discriminator 2
 1224 00ce 0134     		adds	r4, r4, #1
 1225              	.LVL191:
 1226 00d0 B442     		cmp	r4, r6
 1227 00d2 0AF1180A 		add	r10, r10, #24
 1228 00d6 B7D1     		bne	.L135
 1229              	.LVL192:
 1230              	.L129:
 1231              		.loc 1 1076 0
 1232 00d8 02AB     		add	r3, sp, #8
 1233 00da 93E80300 		ldmia	r3, {r0, r1}
 1234 00de 129B     		ldr	r3, [sp, #72]
 1235 00e0 83E80300 		stmia	r3, {r0, r1}
 1236              		.loc 1 1077 0
 1237 00e4 04AB     		add	r3, sp, #16
 1238 00e6 93E80300 		ldmia	r3, {r0, r1}
 1239 00ea 139B     		ldr	r3, [sp, #76]
 1240 00ec 83E80300 		stmia	r3, {r0, r1}
 1241              		.loc 1 1078 0
 1242 00f0 06AB     		add	r3, sp, #24
 1243 00f2 93E80300 		ldmia	r3, {r0, r1}
 1244 00f6 149B     		ldr	r3, [sp, #80]
 1245 00f8 83E80300 		stmia	r3, {r0, r1}
 1246              		.loc 1 1082 0
 1247 00fc 5846     		mov	r0, fp
 1248 00fe 09B0     		add	sp, sp, #36
ARM GAS  C:\Users\jo\AppData\Local\Temp\ccpKXchH.s 			page 23


 1249              		.cfi_remember_state
 1250              		.cfi_def_cfa_offset 36
 1251              		@ sp needed
 1252 0100 BDE8F08F 		pop	{r4, r5, r6, r7, r8, r9, r10, fp, pc}
 1253              	.LVL193:
 1254              	.L170:
 1255              		.cfi_restore_state
 1256              	.LBB104:
 1257              		.loc 1 1064 0
 1258 0104 08AB     		add	r3, sp, #32
 1259 0106 03EB8202 		add	r2, r3, r2, lsl #2
 1260 010a 4FF0010E 		mov	lr, #1
 1261 010e 52F8103C 		ldr	r3, [r2, #-16]
 1262              		.loc 1 1065 0
 1263 0112 1C48     		ldr	r0, .L172
 1264              		.loc 1 1064 0
 1265 0114 0EFA01F1 		lsl	r1, lr, r1
 1266 0118 0B43     		orrs	r3, r3, r1
 1267 011a 42F8103C 		str	r3, [r2, #-16]
 1268              		.loc 1 1065 0
 1269 011e 1B49     		ldr	r1, .L172+8
 1270 0120 2246     		mov	r2, r4
 1271 0122 FFF7FEFF 		bl	chprintf.constprop.1
 1272              	.LVL194:
 1273              		.loc 1 1066 0
 1274 0126 0BF1010B 		add	fp, fp, #1
 1275              	.LVL195:
 1276 012a C4E7     		b	.L133
 1277              	.LVL196:
 1278              	.L169:
 1279              		.loc 1 1057 0 discriminator 3
 1280 012c 0FFA8EFE 		sxth	lr, lr
 1281 0130 BEF1000F 		cmp	lr, #0
 1282 0134 9ADC     		bgt	.L132
 1283 0136 B0E7     		b	.L131
 1284              	.LVL197:
 1285              	.L171:
 1286              		.loc 1 1070 0
 1287 0138 08AB     		add	r3, sp, #32
 1288 013a 03EB8202 		add	r2, r3, r2, lsl #2
 1289 013e 0125     		movs	r5, #1
 1290              	.LVL198:
 1291 0140 52F8083C 		ldr	r3, [r2, #-8]
 1292              		.loc 1 1071 0
 1293 0144 0F48     		ldr	r0, .L172
 1294              		.loc 1 1070 0
 1295 0146 05FA01F1 		lsl	r1, r5, r1
 1296 014a 0B43     		orrs	r3, r3, r1
 1297 014c 42F8083C 		str	r3, [r2, #-8]
 1298              		.loc 1 1071 0
 1299 0150 0F49     		ldr	r1, .L172+12
 1300 0152 2246     		mov	r2, r4
 1301 0154 FFF7FEFF 		bl	chprintf.constprop.1
 1302              	.LVL199:
 1303              		.loc 1 1072 0
 1304 0158 AB44     		add	fp, fp, r5
 1305              	.LVL200:
ARM GAS  C:\Users\jo\AppData\Local\Temp\ccpKXchH.s 			page 24


 1306 015a B8E7     		b	.L134
 1307              	.LVL201:
 1308              	.L136:
 1309              	.LBE104:
 1310              		.loc 1 1040 0
 1311 015c 4FF0000B 		mov	fp, #0
 1312 0160 BAE7     		b	.L129
 1313              	.LVL202:
 1314              	.L168:
 1315              	.LBB105:
 1316              	.LBB103:
 1317              	.LBB102:
 1318              		.loc 1 228 0
 1319 0162 DAF80050 		ldr	r5, [r10]
 1320 0166 45B1     		cbz	r5, .L138
 1321              	.LBE102:
 1322              	.LBE103:
 1323              		.loc 1 1049 0
 1324 0168 DAF80400 		ldr	r0, [r10, #4]
 1325              	.LVL203:
 1326              		.loc 1 1050 0
 1327 016c BAF80AE0 		ldrh	lr, [r10, #10]
 1328              	.LVL204:
 1329              		.loc 1 1051 0
 1330 0170 BAF80CC0 		ldrh	ip, [r10, #12]
 1331              	.LVL205:
 1332              		.loc 1 1052 0
 1333 0174 BAF80E50 		ldrh	r5, [r10, #14]
 1334              	.LVL206:
 1335 0178 6DE7     		b	.L130
 1336              	.LVL207:
 1337              	.L138:
 1338              		.loc 1 1043 0
 1339 017a AC46     		mov	ip, r5
 1340              		.loc 1 1042 0
 1341 017c AE46     		mov	lr, r5
 1342              		.loc 1 1041 0
 1343 017e 2846     		mov	r0, r5
 1344 0180 69E7     		b	.L130
 1345              	.L173:
 1346 0182 00BF     		.align	2
 1347              	.L172:
 1348 0184 00000000 		.word	itm_port
 1349 0188 50030000 		.word	.LC20
 1350 018c 78030000 		.word	.LC21
 1351 0190 A0030000 		.word	.LC22
 1352 0194 00000000 		.word	.LANCHOR0
 1353              	.LBE105:
 1354              		.cfi_endproc
 1355              	.LFE273:
 1356              		.size	lwip_selscan, .-lwip_selscan
 1357 0198 AFF30080 		.section	.text.get_socket,"ax",%progbits
 1357      AFF30080 
 1358              		.align	2
 1359              		.p2align 4,,15
 1360              		.thumb
 1361              		.thumb_func
ARM GAS  C:\Users\jo\AppData\Local\Temp\ccpKXchH.s 			page 25


 1362              		.type	get_socket, %function
 1363              	get_socket:
 1364              	.LFB257:
 1365              		.loc 1 196 0
 1366              		.cfi_startproc
 1367              		@ args = 0, pretend = 0, frame = 0
 1368              		@ frame_needed = 0, uses_anonymous_args = 0
 1369              	.LVL208:
 1370              		.loc 1 199 0
 1371 0000 0128     		cmp	r0, #1
 1372              		.loc 1 196 0
 1373 0002 10B5     		push	{r4, lr}
 1374              		.cfi_def_cfa_offset 8
 1375              		.cfi_offset 4, -8
 1376              		.cfi_offset 14, -4
 1377              		.loc 1 199 0
 1378 0004 08D8     		bhi	.L179
 1379              		.loc 1 205 0
 1380 0006 00EB4003 		add	r3, r0, r0, lsl #1
 1381 000a DB00     		lsls	r3, r3, #3
 1382 000c 094A     		ldr	r2, .L181
 1383              		.loc 1 207 0
 1384 000e D458     		ldr	r4, [r2, r3]
 1385              		.loc 1 205 0
 1386 0010 1344     		add	r3, r3, r2
 1387              	.LVL209:
 1388              		.loc 1 207 0
 1389 0012 44B1     		cbz	r4, .L180
 1390              		.loc 1 213 0
 1391 0014 1846     		mov	r0, r3
 1392              	.LVL210:
 1393              		.loc 1 214 0
 1394 0016 10BD     		pop	{r4, pc}
 1395              	.LVL211:
 1396              	.L179:
 1397              		.loc 1 200 0 discriminator 1
 1398 0018 0246     		mov	r2, r0
 1399 001a 0749     		ldr	r1, .L181+4
 1400 001c 0748     		ldr	r0, .L181+8
 1401              	.LVL212:
 1402 001e FFF7FEFF 		bl	chprintf.constprop.1
 1403              	.LVL213:
 1404              		.loc 1 202 0 discriminator 1
 1405 0022 0020     		movs	r0, #0
 1406 0024 10BD     		pop	{r4, pc}
 1407              	.LVL214:
 1408              	.L180:
 1409              	.LBB108:
 1410              	.LBB109:
 1411              		.loc 1 208 0
 1412 0026 0246     		mov	r2, r0
 1413 0028 0549     		ldr	r1, .L181+12
 1414 002a 0448     		ldr	r0, .L181+8
 1415              	.LVL215:
 1416 002c FFF7FEFF 		bl	chprintf.constprop.1
 1417              	.LVL216:
 1418 0030 2046     		mov	r0, r4
ARM GAS  C:\Users\jo\AppData\Local\Temp\ccpKXchH.s 			page 26


 1419 0032 10BD     		pop	{r4, pc}
 1420              	.L182:
 1421              		.align	2
 1422              	.L181:
 1423 0034 00000000 		.word	.LANCHOR0
 1424 0038 CC030000 		.word	.LC23
 1425 003c 00000000 		.word	itm_port
 1426 0040 E8030000 		.word	.LC24
 1427              	.LBE109:
 1428              	.LBE108:
 1429              		.cfi_endproc
 1430              	.LFE257:
 1431              		.size	get_socket, .-get_socket
 1432 0044 AFF30080 		.section	.text.event_callback,"ax",%progbits
 1432      AFF30080 
 1432      AFF30080 
 1433              		.align	2
 1434              		.p2align 4,,15
 1435              		.thumb
 1436              		.thumb_func
 1437              		.type	event_callback, %function
 1438              	event_callback:
 1439              	.LFB275:
 1440              		.loc 1 1248 0
 1441              		.cfi_startproc
 1442              		@ args = 0, pretend = 0, frame = 0
 1443              		@ frame_needed = 0, uses_anonymous_args = 0
 1444              	.LVL217:
 1445              		.loc 1 1258 0
 1446 0000 0028     		cmp	r0, #0
 1447 0002 76D0     		beq	.L230
 1448              		.loc 1 1248 0
 1449 0004 2DE9F047 		push	{r4, r5, r6, r7, r8, r9, r10, lr}
 1450              		.cfi_def_cfa_offset 32
 1451              		.cfi_offset 4, -32
 1452              		.cfi_offset 5, -28
 1453              		.cfi_offset 6, -24
 1454              		.cfi_offset 7, -20
 1455              		.cfi_offset 8, -16
 1456              		.cfi_offset 9, -12
 1457              		.cfi_offset 10, -8
 1458              		.cfi_offset 14, -4
 1459              		.loc 1 1259 0
 1460 0008 8769     		ldr	r7, [r0, #24]
 1461              	.LVL218:
 1462              		.loc 1 1260 0
 1463 000a 002F     		cmp	r7, #0
 1464              		.loc 1 1248 0
 1465 000c 82B0     		sub	sp, sp, #8
 1466              		.cfi_def_cfa_offset 40
 1467              		.loc 1 1260 0
 1468 000e 0CDB     		blt	.L231
 1469              		.loc 1 1278 0
 1470 0010 3846     		mov	r0, r7
 1471              	.LVL219:
 1472 0012 0C46     		mov	r4, r1
 1473 0014 FFF7FEFF 		bl	get_socket
ARM GAS  C:\Users\jo\AppData\Local\Temp\ccpKXchH.s 			page 27


 1474              	.LVL220:
 1475              		.loc 1 1279 0
 1476 0018 0646     		mov	r6, r0
 1477 001a 48B1     		cbz	r0, .L183
 1478              		.loc 1 1288 0
 1479 001c 042C     		cmp	r4, #4
 1480 001e 5BD8     		bhi	.L188
 1481 0020 DFE804F0 		tbb	[pc, r4]
 1482              	.L190:
 1483 0024 09       		.byte	(.L189-.L190)/2
 1484 0025 4D       		.byte	(.L191-.L190)/2
 1485 0026 51       		.byte	(.L192-.L190)/2
 1486 0027 54       		.byte	(.L193-.L190)/2
 1487 0028 57       		.byte	(.L194-.L190)/2
 1488              	.LVL221:
 1489 0029 00       		.p2align 1
 1490              	.L231:
 1491              		.loc 1 1268 0
 1492 002a 09B9     		cbnz	r1, .L183
 1493              		.loc 1 1269 0
 1494 002c 013F     		subs	r7, r7, #1
 1495              	.LVL222:
 1496 002e 8761     		str	r7, [r0, #24]
 1497              	.LVL223:
 1498              	.L183:
 1499              		.loc 1 1360 0
 1500 0030 02B0     		add	sp, sp, #8
 1501              		.cfi_remember_state
 1502              		.cfi_def_cfa_offset 32
 1503              		@ sp needed
 1504 0032 BDE8F087 		pop	{r4, r5, r6, r7, r8, r9, r10, pc}
 1505              	.LVL224:
 1506              	.L189:
 1507              		.cfi_restore_state
 1508              		.loc 1 1290 0
 1509 0036 4389     		ldrh	r3, [r0, #10]
 1510 0038 0133     		adds	r3, r3, #1
 1511 003a 4381     		strh	r3, [r0, #10]	@ movhi
 1512              	.LVL225:
 1513              	.L195:
 1514              		.loc 1 1309 0
 1515 003c 7369     		ldr	r3, [r6, #20]
 1516 003e 002B     		cmp	r3, #0
 1517 0040 F6D0     		beq	.L183
 1518              	.LBB110:
 1519              		.loc 1 1328 0
 1520 0042 07F01F02 		and	r2, r7, #31
 1521 0046 0123     		movs	r3, #1
 1522 0048 DFF8BC80 		ldr	r8, .L232+20
 1523 004c 294D     		ldr	r5, .L232
 1524 004e 4FEA5719 		lsr	r9, r7, #5
 1525 0052 03FA02FA 		lsl	r10, r3, r2
 1526              		.loc 1 1343 0
 1527 0056 1F46     		mov	r7, r3
 1528              	.LVL226:
 1529              	.L200:
 1530              	.LBE110:
ARM GAS  C:\Users\jo\AppData\Local\Temp\ccpKXchH.s 			page 28


 1531              		.loc 1 1322 0
 1532 0058 D8F80040 		ldr	r4, [r8]
 1533              	.LVL227:
 1534 005c 64B9     		cbnz	r4, .L201
 1535 005e E7E7     		b	.L183
 1536              	.LVL228:
 1537              	.L198:
 1538              	.LBB111:
 1539              		.loc 1 1343 0
 1540 0060 6761     		str	r7, [r4, #20]
 1541              		.loc 1 1346 0
 1542 0062 04F11800 		add	r0, r4, #24
 1543 0066 FFF7FEFF 		bl	sys_sem_signal
 1544              	.LVL229:
 1545              	.L196:
 1546              	.LBE111:
 1547              		.loc 1 1350 0
 1548 006a 2A68     		ldr	r2, [r5]
 1549              	.LVL230:
 1550              		.loc 1 1354 0
 1551 006c 2B68     		ldr	r3, [r5]
 1552 006e 9A42     		cmp	r2, r3
 1553 0070 F2D1     		bne	.L200
 1554              		.loc 1 1322 0 discriminator 2
 1555 0072 2468     		ldr	r4, [r4]
 1556              	.LVL231:
 1557 0074 002C     		cmp	r4, #0
 1558 0076 DBD0     		beq	.L183
 1559              	.LVL232:
 1560              	.L201:
 1561              		.loc 1 1323 0
 1562 0078 6369     		ldr	r3, [r4, #20]
 1563 007a 002B     		cmp	r3, #0
 1564 007c F5D1     		bne	.L196
 1565              	.LVL233:
 1566              	.LBB112:
 1567              		.loc 1 1327 0
 1568 007e B6F90A30 		ldrsh	r3, [r6, #10]
 1569 0082 002B     		cmp	r3, #0
 1570 0084 06DD     		ble	.L197
 1571              		.loc 1 1328 0
 1572 0086 A368     		ldr	r3, [r4, #8]
 1573 0088 23B1     		cbz	r3, .L197
 1574 008a 53F82930 		ldr	r3, [r3, r9, lsl #2]
 1575              		.loc 1 1328 0 is_stmt 0 discriminator 1
 1576 008e 1AEA030F 		tst	r10, r3
 1577 0092 E5D1     		bne	.L198
 1578              	.L197:
 1579              		.loc 1 1332 0 is_stmt 1
 1580 0094 B389     		ldrh	r3, [r6, #12]
 1581 0096 33B1     		cbz	r3, .L228
 1582              		.loc 1 1333 0 discriminator 1
 1583 0098 E368     		ldr	r3, [r4, #12]
 1584 009a 23B1     		cbz	r3, .L228
 1585 009c 53F82930 		ldr	r3, [r3, r9, lsl #2]
 1586              		.loc 1 1333 0 is_stmt 0 discriminator 2
 1587 00a0 1AEA030F 		tst	r10, r3
ARM GAS  C:\Users\jo\AppData\Local\Temp\ccpKXchH.s 			page 29


 1588 00a4 DCD1     		bne	.L198
 1589              	.L228:
 1590              		.loc 1 1337 0 is_stmt 1
 1591 00a6 F389     		ldrh	r3, [r6, #14]
 1592 00a8 002B     		cmp	r3, #0
 1593 00aa DED0     		beq	.L196
 1594              		.loc 1 1338 0 discriminator 1
 1595 00ac 2369     		ldr	r3, [r4, #16]
 1596 00ae 002B     		cmp	r3, #0
 1597 00b0 DBD0     		beq	.L196
 1598 00b2 53F82930 		ldr	r3, [r3, r9, lsl #2]
 1599              		.loc 1 1338 0 is_stmt 0 discriminator 2
 1600 00b6 1AEA030F 		tst	r10, r3
 1601 00ba D6D0     		beq	.L196
 1602 00bc D0E7     		b	.L198
 1603              	.LVL234:
 1604              	.L191:
 1605              	.LBE112:
 1606              		.loc 1 1293 0 is_stmt 1
 1607 00be 4389     		ldrh	r3, [r0, #10]
 1608 00c0 013B     		subs	r3, r3, #1
 1609 00c2 4381     		strh	r3, [r0, #10]	@ movhi
 1610              		.loc 1 1294 0
 1611 00c4 BAE7     		b	.L195
 1612              	.L192:
 1613              		.loc 1 1296 0
 1614 00c6 0123     		movs	r3, #1
 1615 00c8 8381     		strh	r3, [r0, #12]	@ movhi
 1616              		.loc 1 1297 0
 1617 00ca B7E7     		b	.L195
 1618              	.L193:
 1619              		.loc 1 1299 0
 1620 00cc 0023     		movs	r3, #0
 1621 00ce 8381     		strh	r3, [r0, #12]	@ movhi
 1622              		.loc 1 1300 0
 1623 00d0 B4E7     		b	.L195
 1624              	.L194:
 1625              		.loc 1 1302 0
 1626 00d2 0123     		movs	r3, #1
 1627 00d4 C381     		strh	r3, [r0, #14]	@ movhi
 1628              		.loc 1 1303 0
 1629 00d6 B1E7     		b	.L195
 1630              	.L188:
 1631              		.loc 1 1305 0 discriminator 1
 1632 00d8 074B     		ldr	r3, .L232+4
 1633 00da 0093     		str	r3, [sp]
 1634 00dc 0749     		ldr	r1, .L232+8
 1635 00de 084A     		ldr	r2, .L232+12
 1636 00e0 0848     		ldr	r0, .L232+16
 1637              	.LVL235:
 1638 00e2 40F21953 		movw	r3, #1305
 1639 00e6 FFF7FEFF 		bl	chprintf.constprop.1
 1640              	.LVL236:
 1641              	.LBB113:
 1642              	.LBB114:
 1643              		.loc 3 414 0 discriminator 1
 1644 00ea 0548     		ldr	r0, .L232+12
ARM GAS  C:\Users\jo\AppData\Local\Temp\ccpKXchH.s 			page 30


 1645 00ec FFF7FEFF 		bl	chSysHalt
 1646              	.LVL237:
 1647 00f0 A4E7     		b	.L195
 1648              	.LVL238:
 1649              	.L230:
 1650              		.cfi_def_cfa_offset 0
 1651              		.cfi_restore 4
 1652              		.cfi_restore 5
 1653              		.cfi_restore 6
 1654              		.cfi_restore 7
 1655              		.cfi_restore 8
 1656              		.cfi_restore 9
 1657              		.cfi_restore 10
 1658              		.cfi_restore 14
 1659 00f2 7047     		bx	lr
 1660              	.L233:
 1661              		.align	2
 1662              	.L232:
 1663 00f4 00000000 		.word	.LANCHOR3
 1664 00f8 3C000000 		.word	.LC4
 1665 00fc 08000000 		.word	.LC2
 1666 0100 04040000 		.word	.LC25
 1667 0104 00000000 		.word	itm_port
 1668 0108 00000000 		.word	.LANCHOR2
 1669              	.LBE114:
 1670              	.LBE113:
 1671              		.cfi_endproc
 1672              	.LFE275:
 1673              		.size	event_callback, .-event_callback
 1674 010c AFF30080 		.section	.text.lwip_getaddrname,"ax",%progbits
 1675              		.align	2
 1676              		.p2align 4,,15
 1677              		.thumb
 1678              		.thumb_func
 1679              		.type	lwip_getaddrname, %function
 1680              	lwip_getaddrname:
 1681              	.LFB277:
 1682              		.loc 1 1409 0
 1683              		.cfi_startproc
 1684              		@ args = 0, pretend = 0, frame = 24
 1685              		@ frame_needed = 0, uses_anonymous_args = 0
 1686              	.LVL239:
 1687 0000 2DE9F043 		push	{r4, r5, r6, r7, r8, r9, lr}
 1688              		.cfi_def_cfa_offset 28
 1689              		.cfi_offset 4, -28
 1690              		.cfi_offset 5, -24
 1691              		.cfi_offset 6, -20
 1692              		.cfi_offset 7, -16
 1693              		.cfi_offset 8, -12
 1694              		.cfi_offset 9, -8
 1695              		.cfi_offset 14, -4
 1696 0004 89B0     		sub	sp, sp, #36
 1697              		.cfi_def_cfa_offset 64
 1698              		.loc 1 1409 0
 1699 0006 0F46     		mov	r7, r1
 1700 0008 1646     		mov	r6, r2
 1701 000a 9946     		mov	r9, r3
ARM GAS  C:\Users\jo\AppData\Local\Temp\ccpKXchH.s 			page 31


 1702 000c 8046     		mov	r8, r0
 1703              		.loc 1 1414 0
 1704 000e FFF7FEFF 		bl	get_socket
 1705              	.LVL240:
 1706              		.loc 1 1415 0
 1707 0012 0446     		mov	r4, r0
 1708 0014 0028     		cmp	r0, #0
 1709 0016 40D0     		beq	.L237
 1710              		.loc 1 1419 0
 1711 0018 0022     		movs	r2, #0
 1712              		.loc 1 1420 0
 1713 001a 1025     		movs	r5, #16
 1714              		.loc 1 1421 0
 1715 001c 0223     		movs	r3, #2
 1716              		.loc 1 1419 0
 1717 001e 0492     		str	r2, [sp, #16]
 1718 0020 0592     		str	r2, [sp, #20]
 1719 0022 0692     		str	r2, [sp, #24]
 1720 0024 0792     		str	r2, [sp, #28]
 1721              		.loc 1 1421 0
 1722 0026 8DF81130 		strb	r3, [sp, #17]
 1723              		.loc 1 1420 0
 1724 002a 8DF81050 		strb	r5, [sp, #16]
 1725              		.loc 1 1424 0
 1726 002e 4B46     		mov	r3, r9
 1727 0030 03A9     		add	r1, sp, #12
 1728 0032 0DF11202 		add	r2, sp, #18
 1729 0036 0068     		ldr	r0, [r0]
 1730              	.LVL241:
 1731 0038 FFF7FEFF 		bl	netconn_getaddr
 1732              	.LVL242:
 1733              		.loc 1 1426 0
 1734 003c 4246     		mov	r2, r8
 1735 003e 1849     		ldr	r1, .L239
 1736 0040 1848     		ldr	r0, .L239+4
 1737 0042 FFF7FEFF 		bl	chprintf.constprop.1
 1738              	.LVL243:
 1739              		.loc 1 1427 0
 1740 0046 9DF80E00 		ldrb	r0, [sp, #14]	@ zero_extendqisi2
 1741 004a 9DF80F10 		ldrb	r1, [sp, #15]	@ zero_extendqisi2
 1742 004e 9DF80D30 		ldrb	r3, [sp, #13]	@ zero_extendqisi2
 1743 0052 9DF80C20 		ldrb	r2, [sp, #12]	@ zero_extendqisi2
 1744 0056 8DE80300 		stmia	sp, {r0, r1}
 1745 005a 1349     		ldr	r1, .L239+8
 1746 005c 1148     		ldr	r0, .L239+4
 1747 005e FFF7FEFF 		bl	chprintf.constprop.1
 1748              	.LVL244:
 1749              		.loc 1 1428 0
 1750 0062 1249     		ldr	r1, .L239+12
 1751 0064 BDF81220 		ldrh	r2, [sp, #18]
 1752 0068 0E48     		ldr	r0, .L239+4
 1753 006a FFF7FEFF 		bl	chprintf.constprop.1
 1754              	.LVL245:
 1755              		.loc 1 1430 0
 1756 006e BDF81200 		ldrh	r0, [sp, #18]
 1757 0072 FFF7FEFF 		bl	lwip_htons
 1758              	.LVL246:
ARM GAS  C:\Users\jo\AppData\Local\Temp\ccpKXchH.s 			page 32


 1759              		.loc 1 1433 0
 1760 0076 3268     		ldr	r2, [r6]
 1761              		.loc 1 1431 0
 1762 0078 039B     		ldr	r3, [sp, #12]
 1763              		.loc 1 1430 0
 1764 007a ADF81200 		strh	r0, [sp, #18]	@ movhi
 1765              		.loc 1 1433 0
 1766 007e AA42     		cmp	r2, r5
 1767              		.loc 1 1434 0
 1768 0080 84BF     		itt	hi
 1769 0082 3560     		strhi	r5, [r6]
 1770 0084 2A46     		movhi	r2, r5
 1771              		.loc 1 1437 0
 1772 0086 3846     		mov	r0, r7
 1773 0088 04A9     		add	r1, sp, #16
 1774              		.loc 1 1431 0
 1775 008a 0593     		str	r3, [sp, #20]
 1776              		.loc 1 1437 0
 1777 008c FFF7FEFF 		bl	memcpy
 1778              	.LVL247:
 1779              		.loc 1 1438 0
 1780 0090 0020     		movs	r0, #0
 1781 0092 2061     		str	r0, [r4, #16]
 1782              	.L235:
 1783              		.loc 1 1440 0
 1784 0094 09B0     		add	sp, sp, #36
 1785              		.cfi_remember_state
 1786              		.cfi_def_cfa_offset 28
 1787              		@ sp needed
 1788 0096 BDE8F083 		pop	{r4, r5, r6, r7, r8, r9, pc}
 1789              	.LVL248:
 1790              	.L237:
 1791              		.cfi_restore_state
 1792              		.loc 1 1416 0
 1793 009a 4FF0FF30 		mov	r0, #-1
 1794              	.LVL249:
 1795 009e F9E7     		b	.L235
 1796              	.L240:
 1797              		.align	2
 1798              	.L239:
 1799 00a0 14040000 		.word	.LC26
 1800 00a4 00000000 		.word	itm_port
 1801 00a8 30040000 		.word	.LC27
 1802 00ac 3C040000 		.word	.LC28
 1803              		.cfi_endproc
 1804              	.LFE277:
 1805              		.size	lwip_getaddrname, .-lwip_getaddrname
 1806              		.section	.text.lwip_socket_init,"ax",%progbits
 1807              		.align	2
 1808              		.p2align 4,,15
 1809              		.global	lwip_socket_init
 1810              		.thumb
 1811              		.thumb_func
 1812              		.type	lwip_socket_init, %function
 1813              	lwip_socket_init:
 1814              	.LFB256:
 1815              		.loc 1 185 0
ARM GAS  C:\Users\jo\AppData\Local\Temp\ccpKXchH.s 			page 33


 1816              		.cfi_startproc
 1817              		@ args = 0, pretend = 0, frame = 0
 1818              		@ frame_needed = 0, uses_anonymous_args = 0
 1819              		@ link register save eliminated.
 1820 0000 7047     		bx	lr
 1821              		.cfi_endproc
 1822              	.LFE256:
 1823              		.size	lwip_socket_init, .-lwip_socket_init
 1824 0002 00BFAFF3 		.section	.text.lwip_accept,"ax",%progbits
 1824      0080AFF3 
 1824      0080AFF3 
 1824      0080
 1825              		.align	2
 1826              		.p2align 4,,15
 1827              		.global	lwip_accept
 1828              		.thumb
 1829              		.thumb_func
 1830              		.type	lwip_accept, %function
 1831              	lwip_accept:
 1832              	.LFB261:
 1833              		.loc 1 313 0
 1834              		.cfi_startproc
 1835              		@ args = 0, pretend = 0, frame = 32
 1836              		@ frame_needed = 0, uses_anonymous_args = 0
 1837              	.LVL250:
 1838              		.loc 1 313 0
 1839 0000 2DE9F041 		push	{r4, r5, r6, r7, r8, lr}
 1840              		.cfi_def_cfa_offset 24
 1841              		.cfi_offset 4, -24
 1842              		.cfi_offset 5, -20
 1843              		.cfi_offset 6, -16
 1844              		.cfi_offset 7, -12
 1845              		.cfi_offset 8, -8
 1846              		.cfi_offset 14, -4
 1847 0004 0746     		mov	r7, r0
 1848 0006 8AB0     		sub	sp, sp, #40
 1849              		.cfi_def_cfa_offset 64
 1850              		.loc 1 313 0
 1851 0008 0E46     		mov	r6, r1
 1852 000a 1446     		mov	r4, r2
 1853              		.loc 1 323 0
 1854 000c 7E49     		ldr	r1, .L276
 1855              	.LVL251:
 1856 000e 7F48     		ldr	r0, .L276+4
 1857              	.LVL252:
 1858 0010 3A46     		mov	r2, r7
 1859              	.LVL253:
 1860 0012 FFF7FEFF 		bl	chprintf.constprop.1
 1861              	.LVL254:
 1862              		.loc 1 324 0
 1863 0016 3846     		mov	r0, r7
 1864 0018 FFF7FEFF 		bl	get_socket
 1865              	.LVL255:
 1866              		.loc 1 325 0
 1867 001c 0546     		mov	r5, r0
 1868 001e 0028     		cmp	r0, #0
 1869 0020 00F0DD80 		beq	.L257
ARM GAS  C:\Users\jo\AppData\Local\Temp\ccpKXchH.s 			page 34


 1870              		.loc 1 329 0
 1871 0024 0068     		ldr	r0, [r0]
 1872              	.LVL256:
 1873 0026 037F     		ldrb	r3, [r0, #28]	@ zero_extendqisi2
 1874 0028 9A07     		lsls	r2, r3, #30
 1875 002a 04D5     		bpl	.L244
 1876              		.loc 1 329 0 is_stmt 0 discriminator 1
 1877 002c B5F90A30 		ldrsh	r3, [r5, #10]
 1878 0030 002B     		cmp	r3, #0
 1879 0032 40F3DE80 		ble	.L270
 1880              	.L244:
 1881              		.loc 1 336 0 is_stmt 1
 1882 0036 04A9     		add	r1, sp, #16
 1883 0038 FFF7FEFF 		bl	netconn_accept
 1884              	.LVL257:
 1885              		.loc 1 337 0
 1886 003c 8046     		mov	r8, r0
 1887 003e 0028     		cmp	r0, #0
 1888 0040 40F08C80 		bne	.L271
 1889              		.loc 1 346 0
 1890 0044 0498     		ldr	r0, [sp, #16]
 1891              	.LVL258:
 1892 0046 0028     		cmp	r0, #0
 1893 0048 00F09880 		beq	.L272
 1894              	.L248:
 1895              		.loc 1 348 0 discriminator 1
 1896 004c 037F     		ldrb	r3, [r0, #28]	@ zero_extendqisi2
 1897 004e 43F00803 		orr	r3, r3, #8
 1898 0052 0377     		strb	r3, [r0, #28]
 1899              		.loc 1 351 0 discriminator 1
 1900 0054 05A9     		add	r1, sp, #20
 1901 0056 0DF10E02 		add	r2, sp, #14
 1902 005a 0023     		movs	r3, #0
 1903 005c FFF7FEFF 		bl	netconn_getaddr
 1904              	.LVL259:
 1905              		.loc 1 352 0 discriminator 1
 1906 0060 8046     		mov	r8, r0
 1907 0062 0028     		cmp	r0, #0
 1908 0064 40F0A580 		bne	.L273
 1909              		.loc 1 362 0
 1910 0068 06B3     		cbz	r6, .L251
 1911              		.loc 1 363 0
 1912 006a 002C     		cmp	r4, #0
 1913 006c 00F09480 		beq	.L274
 1914              	.LVL260:
 1915              	.L252:
 1916              		.loc 1 364 0
 1917 0070 0023     		movs	r3, #0
 1918              		.loc 1 365 0
 1919 0072 4FF01008 		mov	r8, #16
 1920              		.loc 1 366 0
 1921 0076 0222     		movs	r2, #2
 1922              		.loc 1 367 0
 1923 0078 BDF80E00 		ldrh	r0, [sp, #14]
 1924              		.loc 1 364 0
 1925 007c 0693     		str	r3, [sp, #24]
 1926 007e 0793     		str	r3, [sp, #28]
ARM GAS  C:\Users\jo\AppData\Local\Temp\ccpKXchH.s 			page 35


 1927 0080 0893     		str	r3, [sp, #32]
 1928 0082 0993     		str	r3, [sp, #36]
 1929              		.loc 1 366 0
 1930 0084 8DF81920 		strb	r2, [sp, #25]
 1931              		.loc 1 365 0
 1932 0088 8DF81880 		strb	r8, [sp, #24]
 1933              		.loc 1 367 0
 1934 008c FFF7FEFF 		bl	lwip_htons
 1935              	.LVL261:
 1936              		.loc 1 370 0
 1937 0090 2268     		ldr	r2, [r4]
 1938              		.loc 1 368 0
 1939 0092 059B     		ldr	r3, [sp, #20]
 1940              		.loc 1 367 0
 1941 0094 ADF81A00 		strh	r0, [sp, #26]	@ movhi
 1942              		.loc 1 370 0
 1943 0098 4245     		cmp	r2, r8
 1944              		.loc 1 371 0
 1945 009a 84BF     		itt	hi
 1946 009c C4F80080 		strhi	r8, [r4]
 1947 00a0 4246     		movhi	r2, r8
 1948              		.loc 1 373 0
 1949 00a2 3046     		mov	r0, r6
 1950 00a4 06A9     		add	r1, sp, #24
 1951              		.loc 1 368 0
 1952 00a6 0793     		str	r3, [sp, #28]
 1953              		.loc 1 373 0
 1954 00a8 FFF7FEFF 		bl	memcpy
 1955              	.LVL262:
 1956              	.L251:
 1957              		.loc 1 376 0
 1958 00ac 0498     		ldr	r0, [sp, #16]
 1959 00ae 0121     		movs	r1, #1
 1960 00b0 FFF7FEFF 		bl	alloc_socket
 1961              	.LVL263:
 1962              		.loc 1 377 0
 1963 00b4 431C     		adds	r3, r0, #1
 1964              		.loc 1 376 0
 1965 00b6 0446     		mov	r4, r0
 1966              	.LVL264:
 1967              		.loc 1 377 0
 1968 00b8 00F09480 		beq	.L275
 1969              		.loc 1 382 0
 1970 00bc 0128     		cmp	r0, #1
 1971 00be 0BD9     		bls	.L255
 1972              		.loc 1 382 0 is_stmt 0 discriminator 1
 1973 00c0 534B     		ldr	r3, .L276+8
 1974 00c2 0093     		str	r3, [sp]
 1975 00c4 5148     		ldr	r0, .L276+4
 1976              	.LVL265:
 1977 00c6 5349     		ldr	r1, .L276+12
 1978 00c8 534A     		ldr	r2, .L276+16
 1979 00ca 4FF4BF73 		mov	r3, #382
 1980 00ce FFF7FEFF 		bl	chprintf.constprop.1
 1981              	.LVL266:
 1982              	.LBB115:
 1983              	.LBB116:
ARM GAS  C:\Users\jo\AppData\Local\Temp\ccpKXchH.s 			page 36


 1984              		.loc 3 414 0 is_stmt 1 discriminator 1
 1985 00d2 5148     		ldr	r0, .L276+16
 1986 00d4 FFF7FEFF 		bl	chSysHalt
 1987              	.LVL267:
 1988              	.L255:
 1989              	.LBE116:
 1990              	.LBE115:
 1991              		.loc 1 383 0
 1992 00d8 DDF810E0 		ldr	lr, [sp, #16]
 1993 00dc 4F4B     		ldr	r3, .L276+20
 1994 00de DEF82820 		ldr	r2, [lr, #40]
 1995 00e2 9A42     		cmp	r2, r3
 1996 00e4 0DD0     		beq	.L256
 1997              		.loc 1 383 0 is_stmt 0 discriminator 1
 1998 00e6 4A4B     		ldr	r3, .L276+8
 1999 00e8 0093     		str	r3, [sp]
 2000 00ea 4A49     		ldr	r1, .L276+12
 2001 00ec 4C4A     		ldr	r2, .L276+24
 2002 00ee 4748     		ldr	r0, .L276+4
 2003 00f0 40F27F13 		movw	r3, #383
 2004 00f4 FFF7FEFF 		bl	chprintf.constprop.1
 2005              	.LVL268:
 2006              	.LBB117:
 2007              	.LBB118:
 2008              		.loc 3 414 0 is_stmt 1 discriminator 1
 2009 00f8 4948     		ldr	r0, .L276+24
 2010 00fa FFF7FEFF 		bl	chSysHalt
 2011              	.LVL269:
 2012 00fe DDF810E0 		ldr	lr, [sp, #16]
 2013              	.LVL270:
 2014              	.L256:
 2015              	.LBE118:
 2016              	.LBE117:
 2017              		.loc 1 392 0
 2018 0102 484B     		ldr	r3, .L276+28
 2019 0104 DEF81860 		ldr	r6, [lr, #24]
 2020              	.LVL271:
 2021              		.loc 1 396 0
 2022 0108 4749     		ldr	r1, .L276+32
 2023 010a 4048     		ldr	r0, .L276+4
 2024              		.loc 1 392 0
 2025 010c 04EB4402 		add	r2, r4, r4, lsl #1
 2026 0110 03EBC203 		add	r3, r3, r2, lsl #3
 2027              		.loc 1 396 0
 2028 0114 3A46     		mov	r2, r7
 2029 0116 5F89     		ldrh	r7, [r3, #10]
 2030              	.LVL272:
 2031 0118 013F     		subs	r7, r7, #1
 2032              		.loc 1 392 0
 2033 011a BE1B     		subs	r6, r7, r6
 2034 011c 5E81     		strh	r6, [r3, #10]	@ movhi
 2035              		.loc 1 393 0
 2036 011e CEF81840 		str	r4, [lr, #24]
 2037              		.loc 1 396 0
 2038 0122 2346     		mov	r3, r4
 2039 0124 FFF7FEFF 		bl	chprintf.constprop.1
 2040              	.LVL273:
ARM GAS  C:\Users\jo\AppData\Local\Temp\ccpKXchH.s 			page 37


 2041              		.loc 1 397 0
 2042 0128 9DF81600 		ldrb	r0, [sp, #22]	@ zero_extendqisi2
 2043 012c 9DF81710 		ldrb	r1, [sp, #23]	@ zero_extendqisi2
 2044 0130 9DF81530 		ldrb	r3, [sp, #21]	@ zero_extendqisi2
 2045 0134 9DF81420 		ldrb	r2, [sp, #20]	@ zero_extendqisi2
 2046 0138 8DE80300 		stmia	sp, {r0, r1}
 2047 013c 3B49     		ldr	r1, .L276+36
 2048 013e 3348     		ldr	r0, .L276+4
 2049 0140 FFF7FEFF 		bl	chprintf.constprop.1
 2050              	.LVL274:
 2051              		.loc 1 398 0
 2052 0144 3148     		ldr	r0, .L276+4
 2053 0146 3A49     		ldr	r1, .L276+40
 2054 0148 BDF80E20 		ldrh	r2, [sp, #14]
 2055 014c FFF7FEFF 		bl	chprintf.constprop.1
 2056              	.LVL275:
 2057              		.loc 1 400 0
 2058 0150 0023     		movs	r3, #0
 2059              		.loc 1 401 0
 2060 0152 2046     		mov	r0, r4
 2061              		.loc 1 400 0
 2062 0154 2B61     		str	r3, [r5, #16]
 2063              	.LVL276:
 2064              	.L243:
 2065              		.loc 1 402 0
 2066 0156 0AB0     		add	sp, sp, #40
 2067              		.cfi_remember_state
 2068              		.cfi_def_cfa_offset 24
 2069              		@ sp needed
 2070 0158 BDE8F081 		pop	{r4, r5, r6, r7, r8, pc}
 2071              	.LVL277:
 2072              	.L271:
 2073              		.cfi_restore_state
 2074              		.loc 1 338 0 discriminator 1
 2075 015c 4346     		mov	r3, r8
 2076 015e 3A46     		mov	r2, r7
 2077 0160 2A48     		ldr	r0, .L276+4
 2078              	.LVL278:
 2079 0162 3449     		ldr	r1, .L276+44
 2080 0164 FFF7FEFF 		bl	chprintf.constprop.1
 2081              	.LVL279:
 2082              		.loc 1 339 0 discriminator 1
 2083 0168 2B68     		ldr	r3, [r5]
 2084 016a 1B78     		ldrb	r3, [r3]	@ zero_extendqisi2
 2085 016c 102B     		cmp	r3, #16
 2086 016e 29D0     		beq	.L269
 2087              		.loc 1 340 0
 2088 0170 5F24     		movs	r4, #95
 2089              	.LVL280:
 2090              		.loc 1 341 0
 2091 0172 2046     		mov	r0, r4
 2092              		.loc 1 340 0
 2093 0174 2C61     		str	r4, [r5, #16]
 2094              		.loc 1 402 0
 2095 0176 0AB0     		add	sp, sp, #40
 2096              		.cfi_remember_state
 2097              		.cfi_def_cfa_offset 24
ARM GAS  C:\Users\jo\AppData\Local\Temp\ccpKXchH.s 			page 38


 2098              		@ sp needed
 2099 0178 BDE8F081 		pop	{r4, r5, r6, r7, r8, pc}
 2100              	.LVL281:
 2101              	.L272:
 2102              		.cfi_restore_state
 2103              		.loc 1 346 0 discriminator 1
 2104 017c 244B     		ldr	r3, .L276+8
 2105 017e 0093     		str	r3, [sp]
 2106 0180 2449     		ldr	r1, .L276+12
 2107 0182 2D4A     		ldr	r2, .L276+48
 2108 0184 2148     		ldr	r0, .L276+4
 2109 0186 4FF4AD73 		mov	r3, #346
 2110 018a FFF7FEFF 		bl	chprintf.constprop.1
 2111              	.LVL282:
 2112              	.LBB119:
 2113              	.LBB120:
 2114              		.loc 3 414 0 discriminator 1
 2115 018e 2A48     		ldr	r0, .L276+48
 2116 0190 FFF7FEFF 		bl	chSysHalt
 2117              	.LVL283:
 2118 0194 0498     		ldr	r0, [sp, #16]
 2119 0196 59E7     		b	.L248
 2120              	.LVL284:
 2121              	.L274:
 2122              	.LBE120:
 2123              	.LBE119:
 2124              		.loc 1 363 0 discriminator 1
 2125 0198 1D4B     		ldr	r3, .L276+8
 2126 019a 0093     		str	r3, [sp]
 2127 019c 1D49     		ldr	r1, .L276+12
 2128 019e 274A     		ldr	r2, .L276+52
 2129 01a0 1A48     		ldr	r0, .L276+4
 2130              	.LVL285:
 2131 01a2 40F26B13 		movw	r3, #363
 2132 01a6 FFF7FEFF 		bl	chprintf.constprop.1
 2133              	.LVL286:
 2134              	.LBB121:
 2135              	.LBB122:
 2136              		.loc 3 414 0 discriminator 1
 2137 01aa 2448     		ldr	r0, .L276+52
 2138 01ac FFF7FEFF 		bl	chSysHalt
 2139              	.LVL287:
 2140 01b0 5EE7     		b	.L252
 2141              	.LVL288:
 2142              	.L273:
 2143              	.LBE122:
 2144              	.LBE121:
 2145              		.loc 1 353 0 discriminator 1
 2146 01b2 3A46     		mov	r2, r7
 2147 01b4 1548     		ldr	r0, .L276+4
 2148              	.LVL289:
 2149 01b6 2249     		ldr	r1, .L276+56
 2150 01b8 4346     		mov	r3, r8
 2151 01ba FFF7FEFF 		bl	chprintf.constprop.1
 2152              	.LVL290:
 2153              		.loc 1 354 0 discriminator 1
 2154 01be 0498     		ldr	r0, [sp, #16]
ARM GAS  C:\Users\jo\AppData\Local\Temp\ccpKXchH.s 			page 39


 2155 01c0 FFF7FEFF 		bl	netconn_delete
 2156              	.LVL291:
 2157              	.L269:
 2158              		.loc 1 355 0 discriminator 1
 2159 01c4 C8F10008 		rsb	r8, r8, #0
 2160 01c8 B8F10F0F 		cmp	r8, #15
 2161 01cc 96BF     		itet	ls
 2162 01ce 1D4B     		ldrls	r3, .L276+60
 2163 01d0 0523     		movhi	r3, #5
 2164 01d2 53F82830 		ldrls	r3, [r3, r8, lsl #2]
 2165 01d6 2B61     		str	r3, [r5, #16]
 2166              		.loc 1 356 0 discriminator 1
 2167 01d8 4FF0FF30 		mov	r0, #-1
 2168 01dc BBE7     		b	.L243
 2169              	.LVL292:
 2170              	.L257:
 2171              		.loc 1 326 0
 2172 01de 4FF0FF30 		mov	r0, #-1
 2173              	.LVL293:
 2174 01e2 B8E7     		b	.L243
 2175              	.LVL294:
 2176              	.L275:
 2177              		.loc 1 378 0
 2178 01e4 0498     		ldr	r0, [sp, #16]
 2179              	.LVL295:
 2180 01e6 FFF7FEFF 		bl	netconn_delete
 2181              	.LVL296:
 2182              		.loc 1 379 0
 2183 01ea 1723     		movs	r3, #23
 2184              		.loc 1 380 0
 2185 01ec 2046     		mov	r0, r4
 2186              		.loc 1 379 0
 2187 01ee 2B61     		str	r3, [r5, #16]
 2188              		.loc 1 380 0
 2189 01f0 B1E7     		b	.L243
 2190              	.LVL297:
 2191              	.L270:
 2192              		.loc 1 330 0 discriminator 1
 2193 01f2 3A46     		mov	r2, r7
 2194 01f4 0548     		ldr	r0, .L276+4
 2195 01f6 1449     		ldr	r1, .L276+64
 2196 01f8 FFF7FEFF 		bl	chprintf.constprop.1
 2197              	.LVL298:
 2198              		.loc 1 331 0 discriminator 1
 2199 01fc 0B23     		movs	r3, #11
 2200 01fe 2B61     		str	r3, [r5, #16]
 2201              		.loc 1 332 0 discriminator 1
 2202 0200 4FF0FF30 		mov	r0, #-1
 2203 0204 A7E7     		b	.L243
 2204              	.L277:
 2205 0206 00BF     		.align	2
 2206              	.L276:
 2207 0208 48040000 		.word	.LC29
 2208 020c 00000000 		.word	itm_port
 2209 0210 3C000000 		.word	.LC4
 2210 0214 08000000 		.word	.LC2
 2211 0218 10050000 		.word	.LC35
ARM GAS  C:\Users\jo\AppData\Local\Temp\ccpKXchH.s 			page 40


 2212 021c 00000000 		.word	event_callback
 2213 0220 28050000 		.word	.LC36
 2214 0224 00000000 		.word	.LANCHOR0
 2215 0228 4C050000 		.word	.LC37
 2216 022c 30040000 		.word	.LC27
 2217 0230 78050000 		.word	.LC38
 2218 0234 84040000 		.word	.LC31
 2219 0238 B4040000 		.word	.LC32
 2220 023c F4040000 		.word	.LC34
 2221 0240 C4040000 		.word	.LC33
 2222 0244 00000000 		.word	.LANCHOR1
 2223 0248 5C040000 		.word	.LC30
 2224              		.cfi_endproc
 2225              	.LFE261:
 2226              		.size	lwip_accept, .-lwip_accept
 2227 024c AFF30080 		.section	.text.lwip_bind,"ax",%progbits
 2228              		.align	2
 2229              		.p2align 4,,15
 2230              		.global	lwip_bind
 2231              		.thumb
 2232              		.thumb_func
 2233              		.type	lwip_bind, %function
 2234              	lwip_bind:
 2235              	.LFB262:
 2236              		.loc 1 406 0
 2237              		.cfi_startproc
 2238              		@ args = 0, pretend = 0, frame = 8
 2239              		@ frame_needed = 0, uses_anonymous_args = 0
 2240              	.LVL299:
 2241 0000 F0B5     		push	{r4, r5, r6, r7, lr}
 2242              		.cfi_def_cfa_offset 20
 2243              		.cfi_offset 4, -20
 2244              		.cfi_offset 5, -16
 2245              		.cfi_offset 6, -12
 2246              		.cfi_offset 7, -8
 2247              		.cfi_offset 14, -4
 2248 0002 85B0     		sub	sp, sp, #20
 2249              		.cfi_def_cfa_offset 40
 2250              		.loc 1 406 0
 2251 0004 0C46     		mov	r4, r1
 2252 0006 1746     		mov	r7, r2
 2253 0008 0646     		mov	r6, r0
 2254              		.loc 1 413 0
 2255 000a FFF7FEFF 		bl	get_socket
 2256              	.LVL300:
 2257              		.loc 1 414 0
 2258 000e 0546     		mov	r5, r0
 2259 0010 0028     		cmp	r0, #0
 2260 0012 59D0     		beq	.L284
 2261              		.loc 1 419 0
 2262 0014 102F     		cmp	r7, #16
 2263 0016 36D1     		bne	.L280
 2264              		.loc 1 419 0 is_stmt 0 discriminator 2
 2265 0018 6378     		ldrb	r3, [r4, #1]	@ zero_extendqisi2
 2266 001a 022B     		cmp	r3, #2
 2267 001c 33D1     		bne	.L280
 2268              		.loc 1 419 0 discriminator 4
ARM GAS  C:\Users\jo\AppData\Local\Temp\ccpKXchH.s 			page 41


 2269 001e A307     		lsls	r3, r4, #30
 2270 0020 31D1     		bne	.L280
 2271              	.LVL301:
 2272              		.loc 1 424 0 is_stmt 1
 2273 0022 6368     		ldr	r3, [r4, #4]
 2274              		.loc 1 427 0
 2275 0024 2A49     		ldr	r1, .L288
 2276 0026 2B48     		ldr	r0, .L288+4
 2277              	.LVL302:
 2278              		.loc 1 425 0
 2279 0028 6488     		ldrh	r4, [r4, #2]
 2280              	.LVL303:
 2281              		.loc 1 424 0
 2282 002a 0393     		str	r3, [sp, #12]
 2283              		.loc 1 427 0
 2284 002c 3246     		mov	r2, r6
 2285 002e FFF7FEFF 		bl	chprintf.constprop.1
 2286              	.LVL304:
 2287              		.loc 1 428 0
 2288 0032 9DF80E00 		ldrb	r0, [sp, #14]	@ zero_extendqisi2
 2289 0036 9DF80F10 		ldrb	r1, [sp, #15]	@ zero_extendqisi2
 2290 003a 9DF80D30 		ldrb	r3, [sp, #13]	@ zero_extendqisi2
 2291 003e 9DF80C20 		ldrb	r2, [sp, #12]	@ zero_extendqisi2
 2292 0042 8DE80300 		stmia	sp, {r0, r1}
 2293 0046 2449     		ldr	r1, .L288+8
 2294 0048 2248     		ldr	r0, .L288+4
 2295 004a FFF7FEFF 		bl	chprintf.constprop.1
 2296              	.LVL305:
 2297              		.loc 1 429 0
 2298 004e 2046     		mov	r0, r4
 2299 0050 FFF7FEFF 		bl	lwip_ntohs
 2300              	.LVL306:
 2301 0054 2149     		ldr	r1, .L288+12
 2302 0056 0246     		mov	r2, r0
 2303 0058 1E48     		ldr	r0, .L288+4
 2304 005a FFF7FEFF 		bl	chprintf.constprop.1
 2305              	.LVL307:
 2306              		.loc 1 431 0
 2307 005e 2046     		mov	r0, r4
 2308 0060 2C68     		ldr	r4, [r5]
 2309              	.LVL308:
 2310 0062 FFF7FEFF 		bl	lwip_ntohs
 2311              	.LVL309:
 2312 0066 03A9     		add	r1, sp, #12
 2313 0068 0246     		mov	r2, r0
 2314 006a 2046     		mov	r0, r4
 2315 006c FFF7FEFF 		bl	netconn_bind
 2316              	.LVL310:
 2317              		.loc 1 433 0
 2318 0070 0446     		mov	r4, r0
 2319              		.loc 1 434 0
 2320 0072 3246     		mov	r2, r6
 2321 0074 1748     		ldr	r0, .L288+4
 2322              	.LVL311:
 2323              		.loc 1 433 0
 2324 0076 C4B9     		cbnz	r4, .L287
 2325              		.loc 1 439 0 discriminator 1
ARM GAS  C:\Users\jo\AppData\Local\Temp\ccpKXchH.s 			page 42


 2326 0078 1949     		ldr	r1, .L288+16
 2327 007a FFF7FEFF 		bl	chprintf.constprop.1
 2328              	.LVL312:
 2329              		.loc 1 440 0 discriminator 1
 2330 007e 2C61     		str	r4, [r5, #16]
 2331              		.loc 1 441 0 discriminator 1
 2332 0080 2046     		mov	r0, r4
 2333              	.LVL313:
 2334              	.L279:
 2335              		.loc 1 442 0
 2336 0082 05B0     		add	sp, sp, #20
 2337              		.cfi_remember_state
 2338              		.cfi_def_cfa_offset 20
 2339              		@ sp needed
 2340 0084 F0BD     		pop	{r4, r5, r6, r7, pc}
 2341              	.LVL314:
 2342              	.L280:
 2343              		.cfi_restore_state
 2344              		.loc 1 419 0 discriminator 5
 2345 0086 174B     		ldr	r3, .L288+20
 2346 0088 0093     		str	r3, [sp]
 2347 008a 1749     		ldr	r1, .L288+24
 2348 008c 174A     		ldr	r2, .L288+28
 2349 008e 1148     		ldr	r0, .L288+4
 2350              	.LVL315:
 2351 0090 40F2A513 		movw	r3, #421
 2352 0094 FFF7FEFF 		bl	chprintf.constprop.1
 2353              	.LVL316:
 2354              	.LBB123:
 2355              	.LBB124:
 2356              		.loc 3 414 0 discriminator 5
 2357 0098 1448     		ldr	r0, .L288+28
 2358 009a FFF7FEFF 		bl	chSysHalt
 2359              	.LVL317:
 2360              	.LBE124:
 2361              	.LBE123:
 2362              		.loc 1 419 0 discriminator 5
 2363 009e 0523     		movs	r3, #5
 2364 00a0 4FF0FF30 		mov	r0, #-1
 2365 00a4 2B61     		str	r3, [r5, #16]
 2366              		.loc 1 442 0 discriminator 5
 2367 00a6 05B0     		add	sp, sp, #20
 2368              		.cfi_remember_state
 2369              		.cfi_def_cfa_offset 20
 2370              		@ sp needed
 2371 00a8 F0BD     		pop	{r4, r5, r6, r7, pc}
 2372              	.LVL318:
 2373              	.L287:
 2374              		.cfi_restore_state
 2375              		.loc 1 434 0 discriminator 1
 2376 00aa 2346     		mov	r3, r4
 2377 00ac 1049     		ldr	r1, .L288+32
 2378              		.loc 1 435 0 discriminator 1
 2379 00ae 6442     		negs	r4, r4
 2380              		.loc 1 434 0 discriminator 1
 2381 00b0 FFF7FEFF 		bl	chprintf.constprop.1
 2382              	.LVL319:
ARM GAS  C:\Users\jo\AppData\Local\Temp\ccpKXchH.s 			page 43


 2383              		.loc 1 435 0 discriminator 1
 2384 00b4 0F2C     		cmp	r4, #15
 2385 00b6 96BF     		itet	ls
 2386 00b8 0E4B     		ldrls	r3, .L288+36
 2387 00ba 0523     		movhi	r3, #5
 2388 00bc 53F82430 		ldrls	r3, [r3, r4, lsl #2]
 2389 00c0 2B61     		str	r3, [r5, #16]
 2390              		.loc 1 436 0 discriminator 1
 2391 00c2 4FF0FF30 		mov	r0, #-1
 2392 00c6 DCE7     		b	.L279
 2393              	.LVL320:
 2394              	.L284:
 2395              		.loc 1 415 0
 2396 00c8 4FF0FF30 		mov	r0, #-1
 2397              	.LVL321:
 2398 00cc D9E7     		b	.L279
 2399              	.L289:
 2400 00ce 00BF     		.align	2
 2401              	.L288:
 2402 00d0 A0050000 		.word	.LC40
 2403 00d4 00000000 		.word	itm_port
 2404 00d8 30040000 		.word	.LC27
 2405 00dc 3C040000 		.word	.LC28
 2406 00e0 D4050000 		.word	.LC42
 2407 00e4 3C000000 		.word	.LC4
 2408 00e8 08000000 		.word	.LC2
 2409 00ec 84050000 		.word	.LC39
 2410 00f0 B4050000 		.word	.LC41
 2411 00f4 00000000 		.word	.LANCHOR1
 2412              		.cfi_endproc
 2413              	.LFE262:
 2414              		.size	lwip_bind, .-lwip_bind
 2415 00f8 AFF30080 		.section	.text.lwip_close,"ax",%progbits
 2415      AFF30080 
 2416              		.align	2
 2417              		.p2align 4,,15
 2418              		.global	lwip_close
 2419              		.thumb
 2420              		.thumb_func
 2421              		.type	lwip_close, %function
 2422              	lwip_close:
 2423              	.LFB263:
 2424              		.loc 1 446 0
 2425              		.cfi_startproc
 2426              		@ args = 0, pretend = 0, frame = 0
 2427              		@ frame_needed = 0, uses_anonymous_args = 0
 2428              	.LVL322:
 2429 0000 70B5     		push	{r4, r5, r6, lr}
 2430              		.cfi_def_cfa_offset 16
 2431              		.cfi_offset 4, -16
 2432              		.cfi_offset 5, -12
 2433              		.cfi_offset 6, -8
 2434              		.cfi_offset 14, -4
 2435              		.loc 1 450 0
 2436 0002 0246     		mov	r2, r0
 2437              		.loc 1 446 0
 2438 0004 0446     		mov	r4, r0
ARM GAS  C:\Users\jo\AppData\Local\Temp\ccpKXchH.s 			page 44


 2439 0006 82B0     		sub	sp, sp, #8
 2440              		.cfi_def_cfa_offset 24
 2441              		.loc 1 450 0
 2442 0008 2049     		ldr	r1, .L305
 2443 000a 2148     		ldr	r0, .L305+4
 2444              	.LVL323:
 2445 000c FFF7FEFF 		bl	chprintf.constprop.1
 2446              	.LVL324:
 2447              		.loc 1 452 0
 2448 0010 2046     		mov	r0, r4
 2449 0012 FFF7FEFF 		bl	get_socket
 2450              	.LVL325:
 2451              		.loc 1 453 0
 2452 0016 0446     		mov	r4, r0
 2453              	.LVL326:
 2454 0018 0028     		cmp	r0, #0
 2455 001a 33D0     		beq	.L297
 2456              		.loc 1 457 0
 2457 001c 0368     		ldr	r3, [r0]
 2458 001e B3B1     		cbz	r3, .L292
 2459              		.loc 1 463 0
 2460 0020 1846     		mov	r0, r3
 2461              	.LVL327:
 2462              		.loc 1 458 0
 2463 0022 1E78     		ldrb	r6, [r3]	@ zero_extendqisi2
 2464              	.LVL328:
 2465              		.loc 1 463 0
 2466 0024 FFF7FEFF 		bl	netconn_delete
 2467              	.LVL329:
 2468              	.LBB129:
 2469              	.LBB130:
 2470              		.loc 1 285 0
 2471 0028 6068     		ldr	r0, [r4, #4]
 2472              	.LVL330:
 2473              		.loc 1 286 0
 2474 002a 0025     		movs	r5, #0
 2475 002c 6560     		str	r5, [r4, #4]
 2476              		.loc 1 287 0
 2477 002e 2581     		strh	r5, [r4, #8]	@ movhi
 2478              		.loc 1 288 0
 2479 0030 2561     		str	r5, [r4, #16]
 2480              		.loc 1 292 0
 2481 0032 2560     		str	r5, [r4]
 2482              		.loc 1 296 0
 2483 0034 18B1     		cbz	r0, .L303
 2484              		.loc 1 297 0
 2485 0036 102E     		cmp	r6, #16
 2486 0038 04D0     		beq	.L304
 2487              	.LVL331:
 2488              	.L295:
 2489              		.loc 1 300 0
 2490 003a FFF7FEFF 		bl	netbuf_delete
 2491              	.LVL332:
 2492              	.L303:
 2493              	.LBE130:
 2494              	.LBE129:
 2495              		.loc 1 467 0
ARM GAS  C:\Users\jo\AppData\Local\Temp\ccpKXchH.s 			page 45


 2496 003e 0020     		movs	r0, #0
 2497              	.LVL333:
 2498              	.L301:
 2499              		.loc 1 468 0
 2500 0040 02B0     		add	sp, sp, #8
 2501              		.cfi_remember_state
 2502              		.cfi_def_cfa_offset 16
 2503              		@ sp needed
 2504 0042 70BD     		pop	{r4, r5, r6, pc}
 2505              	.LVL334:
 2506              	.L304:
 2507              		.cfi_restore_state
 2508              	.LBB133:
 2509              	.LBB131:
 2510              		.loc 1 298 0
 2511 0044 FFF7FEFF 		bl	pbuf_free
 2512              	.LVL335:
 2513              	.LBE131:
 2514              	.LBE133:
 2515              		.loc 1 467 0
 2516 0048 2846     		mov	r0, r5
 2517              		.loc 1 468 0
 2518 004a 02B0     		add	sp, sp, #8
 2519              		.cfi_remember_state
 2520              		.cfi_def_cfa_offset 16
 2521              		@ sp needed
 2522 004c 70BD     		pop	{r4, r5, r6, pc}
 2523              	.LVL336:
 2524              	.L292:
 2525              		.cfi_restore_state
 2526              		.loc 1 460 0
 2527 004e 4268     		ldr	r2, [r0, #4]
 2528 0050 62B1     		cbz	r2, .L294
 2529              		.loc 1 460 0 is_stmt 0 discriminator 1
 2530 0052 104B     		ldr	r3, .L305+8
 2531 0054 0093     		str	r3, [sp]
 2532 0056 1049     		ldr	r1, .L305+12
 2533 0058 104A     		ldr	r2, .L305+16
 2534 005a 0D48     		ldr	r0, .L305+4
 2535              	.LVL337:
 2536 005c 4FF4E673 		mov	r3, #460
 2537 0060 FFF7FEFF 		bl	chprintf.constprop.1
 2538              	.LVL338:
 2539              	.LBB134:
 2540              	.LBB135:
 2541              		.loc 3 414 0 is_stmt 1 discriminator 1
 2542 0064 0D48     		ldr	r0, .L305+16
 2543 0066 FFF7FEFF 		bl	chSysHalt
 2544              	.LVL339:
 2545 006a 2368     		ldr	r3, [r4]
 2546              	.LVL340:
 2547              	.L294:
 2548              	.LBE135:
 2549              	.LBE134:
 2550              		.loc 1 463 0
 2551 006c 1846     		mov	r0, r3
 2552 006e FFF7FEFF 		bl	netconn_delete
ARM GAS  C:\Users\jo\AppData\Local\Temp\ccpKXchH.s 			page 46


 2553              	.LVL341:
 2554              	.LBB136:
 2555              	.LBB132:
 2556              		.loc 1 285 0
 2557 0072 6068     		ldr	r0, [r4, #4]
 2558              	.LVL342:
 2559              		.loc 1 286 0
 2560 0074 0023     		movs	r3, #0
 2561 0076 6360     		str	r3, [r4, #4]
 2562              		.loc 1 287 0
 2563 0078 2381     		strh	r3, [r4, #8]	@ movhi
 2564              		.loc 1 288 0
 2565 007a 2361     		str	r3, [r4, #16]
 2566              		.loc 1 292 0
 2567 007c 2360     		str	r3, [r4]
 2568              		.loc 1 296 0
 2569 007e 0028     		cmp	r0, #0
 2570 0080 DBD1     		bne	.L295
 2571 0082 DCE7     		b	.L303
 2572              	.LVL343:
 2573              	.L297:
 2574              	.LBE132:
 2575              	.LBE136:
 2576              		.loc 1 454 0
 2577 0084 4FF0FF30 		mov	r0, #-1
 2578              	.LVL344:
 2579 0088 DAE7     		b	.L301
 2580              	.L306:
 2581 008a 00BF     		.align	2
 2582              	.L305:
 2583 008c F0050000 		.word	.LC43
 2584 0090 00000000 		.word	itm_port
 2585 0094 3C000000 		.word	.LC4
 2586 0098 08000000 		.word	.LC2
 2587 009c 00060000 		.word	.LC44
 2588              		.cfi_endproc
 2589              	.LFE263:
 2590              		.size	lwip_close, .-lwip_close
 2591              		.section	.text.lwip_connect,"ax",%progbits
 2592              		.align	2
 2593              		.p2align 4,,15
 2594              		.global	lwip_connect
 2595              		.thumb
 2596              		.thumb_func
 2597              		.type	lwip_connect, %function
 2598              	lwip_connect:
 2599              	.LFB264:
 2600              		.loc 1 472 0
 2601              		.cfi_startproc
 2602              		@ args = 0, pretend = 0, frame = 8
 2603              		@ frame_needed = 0, uses_anonymous_args = 0
 2604              	.LVL345:
 2605 0000 F0B5     		push	{r4, r5, r6, r7, lr}
 2606              		.cfi_def_cfa_offset 20
 2607              		.cfi_offset 4, -20
 2608              		.cfi_offset 5, -16
 2609              		.cfi_offset 6, -12
ARM GAS  C:\Users\jo\AppData\Local\Temp\ccpKXchH.s 			page 47


 2610              		.cfi_offset 7, -8
 2611              		.cfi_offset 14, -4
 2612 0002 85B0     		sub	sp, sp, #20
 2613              		.cfi_def_cfa_offset 40
 2614              		.loc 1 472 0
 2615 0004 0C46     		mov	r4, r1
 2616 0006 1746     		mov	r7, r2
 2617 0008 0646     		mov	r6, r0
 2618              		.loc 1 477 0
 2619 000a FFF7FEFF 		bl	get_socket
 2620              	.LVL346:
 2621              		.loc 1 478 0
 2622 000e 0546     		mov	r5, r0
 2623 0010 0028     		cmp	r0, #0
 2624 0012 59D0     		beq	.L313
 2625              		.loc 1 483 0
 2626 0014 102F     		cmp	r7, #16
 2627 0016 36D1     		bne	.L309
 2628              		.loc 1 483 0 is_stmt 0 discriminator 2
 2629 0018 6378     		ldrb	r3, [r4, #1]	@ zero_extendqisi2
 2630 001a 022B     		cmp	r3, #2
 2631 001c 33D1     		bne	.L309
 2632              		.loc 1 483 0 discriminator 4
 2633 001e A307     		lsls	r3, r4, #30
 2634 0020 31D1     		bne	.L309
 2635              	.LVL347:
 2636              	.LBB137:
 2637              		.loc 1 495 0 is_stmt 1
 2638 0022 6368     		ldr	r3, [r4, #4]
 2639              		.loc 1 498 0
 2640 0024 2A49     		ldr	r1, .L317
 2641 0026 2B48     		ldr	r0, .L317+4
 2642              	.LVL348:
 2643              		.loc 1 496 0
 2644 0028 6488     		ldrh	r4, [r4, #2]
 2645              	.LVL349:
 2646              		.loc 1 495 0
 2647 002a 0393     		str	r3, [sp, #12]
 2648              		.loc 1 498 0
 2649 002c 3246     		mov	r2, r6
 2650 002e FFF7FEFF 		bl	chprintf.constprop.1
 2651              	.LVL350:
 2652              		.loc 1 499 0
 2653 0032 9DF80E00 		ldrb	r0, [sp, #14]	@ zero_extendqisi2
 2654 0036 9DF80F10 		ldrb	r1, [sp, #15]	@ zero_extendqisi2
 2655 003a 9DF80D30 		ldrb	r3, [sp, #13]	@ zero_extendqisi2
 2656 003e 9DF80C20 		ldrb	r2, [sp, #12]	@ zero_extendqisi2
 2657 0042 8DE80300 		stmia	sp, {r0, r1}
 2658 0046 2449     		ldr	r1, .L317+8
 2659 0048 2248     		ldr	r0, .L317+4
 2660 004a FFF7FEFF 		bl	chprintf.constprop.1
 2661              	.LVL351:
 2662              		.loc 1 500 0
 2663 004e 2046     		mov	r0, r4
 2664 0050 FFF7FEFF 		bl	lwip_ntohs
 2665              	.LVL352:
 2666 0054 2149     		ldr	r1, .L317+12
ARM GAS  C:\Users\jo\AppData\Local\Temp\ccpKXchH.s 			page 48


 2667 0056 0246     		mov	r2, r0
 2668 0058 1E48     		ldr	r0, .L317+4
 2669 005a FFF7FEFF 		bl	chprintf.constprop.1
 2670              	.LVL353:
 2671              		.loc 1 502 0
 2672 005e 2046     		mov	r0, r4
 2673 0060 2C68     		ldr	r4, [r5]
 2674              	.LVL354:
 2675 0062 FFF7FEFF 		bl	lwip_ntohs
 2676              	.LVL355:
 2677 0066 03A9     		add	r1, sp, #12
 2678 0068 0246     		mov	r2, r0
 2679 006a 2046     		mov	r0, r4
 2680 006c FFF7FEFF 		bl	netconn_connect
 2681              	.LVL356:
 2682              	.LBE137:
 2683              		.loc 1 505 0
 2684 0070 0446     		mov	r4, r0
 2685              		.loc 1 506 0
 2686 0072 3246     		mov	r2, r6
 2687 0074 1748     		ldr	r0, .L317+4
 2688              	.LVL357:
 2689              		.loc 1 505 0
 2690 0076 C4B9     		cbnz	r4, .L316
 2691              		.loc 1 511 0 discriminator 1
 2692 0078 1949     		ldr	r1, .L317+16
 2693 007a FFF7FEFF 		bl	chprintf.constprop.1
 2694              	.LVL358:
 2695              		.loc 1 512 0 discriminator 1
 2696 007e 2C61     		str	r4, [r5, #16]
 2697              		.loc 1 513 0 discriminator 1
 2698 0080 2046     		mov	r0, r4
 2699              	.LVL359:
 2700              	.L308:
 2701              		.loc 1 514 0
 2702 0082 05B0     		add	sp, sp, #20
 2703              		.cfi_remember_state
 2704              		.cfi_def_cfa_offset 20
 2705              		@ sp needed
 2706 0084 F0BD     		pop	{r4, r5, r6, r7, pc}
 2707              	.LVL360:
 2708              	.L309:
 2709              		.cfi_restore_state
 2710              		.loc 1 483 0 discriminator 5
 2711 0086 174B     		ldr	r3, .L317+20
 2712 0088 0093     		str	r3, [sp]
 2713 008a 1749     		ldr	r1, .L317+24
 2714 008c 174A     		ldr	r2, .L317+28
 2715 008e 1148     		ldr	r0, .L317+4
 2716              	.LVL361:
 2717 0090 40F2E513 		movw	r3, #485
 2718 0094 FFF7FEFF 		bl	chprintf.constprop.1
 2719              	.LVL362:
 2720              	.LBB138:
 2721              	.LBB139:
 2722              		.loc 3 414 0 discriminator 5
 2723 0098 1448     		ldr	r0, .L317+28
ARM GAS  C:\Users\jo\AppData\Local\Temp\ccpKXchH.s 			page 49


 2724 009a FFF7FEFF 		bl	chSysHalt
 2725              	.LVL363:
 2726              	.LBE139:
 2727              	.LBE138:
 2728              		.loc 1 483 0 discriminator 5
 2729 009e 0523     		movs	r3, #5
 2730 00a0 4FF0FF30 		mov	r0, #-1
 2731 00a4 2B61     		str	r3, [r5, #16]
 2732              		.loc 1 514 0 discriminator 5
 2733 00a6 05B0     		add	sp, sp, #20
 2734              		.cfi_remember_state
 2735              		.cfi_def_cfa_offset 20
 2736              		@ sp needed
 2737 00a8 F0BD     		pop	{r4, r5, r6, r7, pc}
 2738              	.LVL364:
 2739              	.L316:
 2740              		.cfi_restore_state
 2741              		.loc 1 506 0 discriminator 1
 2742 00aa 2346     		mov	r3, r4
 2743 00ac 1049     		ldr	r1, .L317+32
 2744              		.loc 1 507 0 discriminator 1
 2745 00ae 6442     		negs	r4, r4
 2746              		.loc 1 506 0 discriminator 1
 2747 00b0 FFF7FEFF 		bl	chprintf.constprop.1
 2748              	.LVL365:
 2749              		.loc 1 507 0 discriminator 1
 2750 00b4 0F2C     		cmp	r4, #15
 2751 00b6 96BF     		itet	ls
 2752 00b8 0E4B     		ldrls	r3, .L317+36
 2753 00ba 0523     		movhi	r3, #5
 2754 00bc 53F82430 		ldrls	r3, [r3, r4, lsl #2]
 2755 00c0 2B61     		str	r3, [r5, #16]
 2756              		.loc 1 508 0 discriminator 1
 2757 00c2 4FF0FF30 		mov	r0, #-1
 2758 00c6 DCE7     		b	.L308
 2759              	.LVL366:
 2760              	.L313:
 2761              		.loc 1 479 0
 2762 00c8 4FF0FF30 		mov	r0, #-1
 2763              	.LVL367:
 2764 00cc D9E7     		b	.L308
 2765              	.L318:
 2766 00ce 00BF     		.align	2
 2767              	.L317:
 2768 00d0 38060000 		.word	.LC46
 2769 00d4 00000000 		.word	itm_port
 2770 00d8 30040000 		.word	.LC27
 2771 00dc 3C040000 		.word	.LC28
 2772 00e0 74060000 		.word	.LC48
 2773 00e4 3C000000 		.word	.LC4
 2774 00e8 08000000 		.word	.LC2
 2775 00ec 18060000 		.word	.LC45
 2776 00f0 50060000 		.word	.LC47
 2777 00f4 00000000 		.word	.LANCHOR1
 2778              		.cfi_endproc
 2779              	.LFE264:
 2780              		.size	lwip_connect, .-lwip_connect
ARM GAS  C:\Users\jo\AppData\Local\Temp\ccpKXchH.s 			page 50


 2781 00f8 AFF30080 		.section	.text.lwip_listen,"ax",%progbits
 2781      AFF30080 
 2782              		.align	2
 2783              		.p2align 4,,15
 2784              		.global	lwip_listen
 2785              		.thumb
 2786              		.thumb_func
 2787              		.type	lwip_listen, %function
 2788              	lwip_listen:
 2789              	.LFB265:
 2790              		.loc 1 526 0
 2791              		.cfi_startproc
 2792              		@ args = 0, pretend = 0, frame = 0
 2793              		@ frame_needed = 0, uses_anonymous_args = 0
 2794              	.LVL368:
 2795 0000 70B5     		push	{r4, r5, r6, lr}
 2796              		.cfi_def_cfa_offset 16
 2797              		.cfi_offset 4, -16
 2798              		.cfi_offset 5, -12
 2799              		.cfi_offset 6, -8
 2800              		.cfi_offset 14, -4
 2801              		.loc 1 530 0
 2802 0002 0246     		mov	r2, r0
 2803 0004 0B46     		mov	r3, r1
 2804              		.loc 1 526 0
 2805 0006 0646     		mov	r6, r0
 2806 0008 0C46     		mov	r4, r1
 2807              		.loc 1 530 0
 2808 000a 1848     		ldr	r0, .L330
 2809              	.LVL369:
 2810 000c 1849     		ldr	r1, .L330+4
 2811              	.LVL370:
 2812 000e FFF7FEFF 		bl	chprintf.constprop.1
 2813              	.LVL371:
 2814              		.loc 1 532 0
 2815 0012 3046     		mov	r0, r6
 2816 0014 FFF7FEFF 		bl	get_socket
 2817              	.LVL372:
 2818              		.loc 1 533 0
 2819 0018 0546     		mov	r5, r0
 2820 001a C8B1     		cbz	r0, .L325
 2821              	.LVL373:
 2822              		.loc 1 538 0
 2823 001c FE2C     		cmp	r4, #254
 2824 001e DABF     		itte	le
 2825 0020 24EAE471 		bicle	r1, r4, r4, asr #31
 2826 0024 C9B2     		uxtble	r1, r1
 2827 0026 FF21     		movgt	r1, #255
 2828              		.loc 1 540 0
 2829 0028 0068     		ldr	r0, [r0]
 2830              	.LVL374:
 2831 002a FFF7FEFF 		bl	netconn_listen_with_backlog
 2832              	.LVL375:
 2833              		.loc 1 542 0
 2834 002e 0446     		mov	r4, r0
 2835 0030 08B9     		cbnz	r0, .L329
 2836              		.loc 1 552 0
ARM GAS  C:\Users\jo\AppData\Local\Temp\ccpKXchH.s 			page 51


 2837 0032 2861     		str	r0, [r5, #16]
 2838              		.loc 1 553 0
 2839 0034 70BD     		pop	{r4, r5, r6, pc}
 2840              	.LVL376:
 2841              	.L329:
 2842              		.loc 1 543 0 discriminator 1
 2843 0036 2346     		mov	r3, r4
 2844 0038 3246     		mov	r2, r6
 2845 003a 0C48     		ldr	r0, .L330
 2846              	.LVL377:
 2847 003c 0D49     		ldr	r1, .L330+8
 2848 003e FFF7FEFF 		bl	chprintf.constprop.1
 2849              	.LVL378:
 2850              		.loc 1 544 0 discriminator 1
 2851 0042 2B68     		ldr	r3, [r5]
 2852 0044 1B78     		ldrb	r3, [r3]	@ zero_extendqisi2
 2853 0046 102B     		cmp	r3, #16
 2854 0048 05D0     		beq	.L323
 2855              		.loc 1 545 0
 2856 004a 5F20     		movs	r0, #95
 2857 004c 2861     		str	r0, [r5, #16]
 2858              		.loc 1 546 0
 2859 004e 70BD     		pop	{r4, r5, r6, pc}
 2860              	.LVL379:
 2861              	.L325:
 2862              		.loc 1 534 0
 2863 0050 4FF0FF30 		mov	r0, #-1
 2864              	.LVL380:
 2865              		.loc 1 554 0
 2866 0054 70BD     		pop	{r4, r5, r6, pc}
 2867              	.LVL381:
 2868              	.L323:
 2869              		.loc 1 548 0
 2870 0056 6442     		negs	r4, r4
 2871 0058 0F2C     		cmp	r4, #15
 2872 005a 96BF     		itet	ls
 2873 005c 064B     		ldrls	r3, .L330+12
 2874 005e 0523     		movhi	r3, #5
 2875 0060 53F82430 		ldrls	r3, [r3, r4, lsl #2]
 2876 0064 2B61     		str	r3, [r5, #16]
 2877              		.loc 1 549 0
 2878 0066 4FF0FF30 		mov	r0, #-1
 2879 006a 70BD     		pop	{r4, r5, r6, pc}
 2880              	.LVL382:
 2881              	.L331:
 2882              		.align	2
 2883              	.L330:
 2884 006c 00000000 		.word	itm_port
 2885 0070 90060000 		.word	.LC49
 2886 0074 B0060000 		.word	.LC50
 2887 0078 00000000 		.word	.LANCHOR1
 2888              		.cfi_endproc
 2889              	.LFE265:
 2890              		.size	lwip_listen, .-lwip_listen
 2891 007c AFF30080 		.section	.text.lwip_recvfrom,"ax",%progbits
 2892              		.align	2
 2893              		.p2align 4,,15
ARM GAS  C:\Users\jo\AppData\Local\Temp\ccpKXchH.s 			page 52


 2894              		.global	lwip_recvfrom
 2895              		.thumb
 2896              		.thumb_func
 2897              		.type	lwip_recvfrom, %function
 2898              	lwip_recvfrom:
 2899              	.LFB266:
 2900              		.loc 1 559 0
 2901              		.cfi_startproc
 2902              		@ args = 8, pretend = 0, frame = 48
 2903              		@ frame_needed = 0, uses_anonymous_args = 0
 2904              	.LVL383:
 2905 0000 2DE9F04F 		push	{r4, r5, r6, r7, r8, r9, r10, fp, lr}
 2906              		.cfi_def_cfa_offset 36
 2907              		.cfi_offset 4, -36
 2908              		.cfi_offset 5, -32
 2909              		.cfi_offset 6, -28
 2910              		.cfi_offset 7, -24
 2911              		.cfi_offset 8, -20
 2912              		.cfi_offset 9, -16
 2913              		.cfi_offset 10, -12
 2914              		.cfi_offset 11, -8
 2915              		.cfi_offset 14, -4
 2916 0004 8FB0     		sub	sp, sp, #60
 2917              		.cfi_def_cfa_offset 96
 2918              		.loc 1 559 0
 2919 0006 1746     		mov	r7, r2
 2920 0008 9946     		mov	r9, r3
 2921 000a 0446     		mov	r4, r0
 2922              		.loc 1 570 0
 2923 000c 0246     		mov	r2, r0
 2924              	.LVL384:
 2925 000e 0B46     		mov	r3, r1
 2926              	.LVL385:
 2927              		.loc 1 559 0
 2928 0010 0590     		str	r0, [sp, #20]
 2929 0012 0391     		str	r1, [sp, #12]
 2930              		.loc 1 570 0
 2931 0014 8DE88002 		stmia	sp, {r7, r9}
 2932 0018 B249     		ldr	r1, .L400
 2933              	.LVL386:
 2934 001a B348     		ldr	r0, .L400+4
 2935              	.LVL387:
 2936              		.loc 1 561 0
 2937 001c 0025     		movs	r5, #0
 2938 001e 0895     		str	r5, [sp, #32]
 2939              	.LVL388:
 2940              		.loc 1 570 0
 2941 0020 FFF7FEFF 		bl	chprintf.constprop.1
 2942              	.LVL389:
 2943              		.loc 1 571 0
 2944 0024 2046     		mov	r0, r4
 2945 0026 FFF7FEFF 		bl	get_socket
 2946              	.LVL390:
 2947              		.loc 1 572 0
 2948 002a 0446     		mov	r4, r0
 2949              	.LVL391:
 2950 002c 0028     		cmp	r0, #0
ARM GAS  C:\Users\jo\AppData\Local\Temp\ccpKXchH.s 			page 53


 2951 002e 00F0AC81 		beq	.L373
 2952              		.loc 1 572 0 is_stmt 0 discriminator 1
 2953 0032 A846     		mov	r8, r5
 2954              	.LVL392:
 2955              	.L369:
 2956              		.loc 1 577 0 is_stmt 1 discriminator 1
 2957 0034 AC48     		ldr	r0, .L400+4
 2958 0036 AD49     		ldr	r1, .L400+8
 2959 0038 6268     		ldr	r2, [r4, #4]
 2960 003a FFF7FEFF 		bl	chprintf.constprop.1
 2961              	.LVL393:
 2962              		.loc 1 579 0 discriminator 1
 2963 003e 6368     		ldr	r3, [r4, #4]
 2964 0040 002B     		cmp	r3, #0
 2965 0042 00F0F680 		beq	.L334
 2966              		.loc 1 580 0
 2967 0046 0893     		str	r3, [sp, #32]
 2968 0048 9A46     		mov	r10, r3
 2969              	.L335:
 2970              		.loc 1 629 0
 2971 004a 2368     		ldr	r3, [r4]
 2972              		.loc 1 635 0
 2973 004c A849     		ldr	r1, .L400+12
 2974              		.loc 1 629 0
 2975 004e 1B78     		ldrb	r3, [r3]	@ zero_extendqisi2
 2976              		.loc 1 635 0
 2977 0050 A548     		ldr	r0, .L400+4
 2978              		.loc 1 629 0
 2979 0052 102B     		cmp	r3, #16
 2980              		.loc 1 632 0
 2981 0054 18BF     		it	ne
 2982 0056 DAF800A0 		ldrne	r10, [r10]
 2983              	.LVL394:
 2984              		.loc 1 634 0
 2985 005a BAF80850 		ldrh	r5, [r10, #8]
 2986              	.LVL395:
 2987              		.loc 1 635 0
 2988 005e CDF80080 		str	r8, [sp]
 2989 0062 2389     		ldrh	r3, [r4, #8]
 2990 0064 0193     		str	r3, [sp, #4]
 2991 0066 2A46     		mov	r2, r5
 2992 0068 3B46     		mov	r3, r7
 2993 006a FFF7FEFF 		bl	chprintf.constprop.1
 2994              	.LVL396:
 2995              		.loc 1 638 0
 2996 006e 2389     		ldrh	r3, [r4, #8]
 2997              		.loc 1 648 0
 2998 0070 039A     		ldr	r2, [sp, #12]
 2999              		.loc 1 638 0
 3000 0072 ED1A     		subs	r5, r5, r3
 3001              	.LVL397:
 3002 0074 ADB2     		uxth	r5, r5
 3003              	.LVL398:
 3004              		.loc 1 640 0
 3005 0076 AF42     		cmp	r7, r5
 3006              		.loc 1 643 0
 3007 0078 94BF     		ite	ls
ARM GAS  C:\Users\jo\AppData\Local\Temp\ccpKXchH.s 			page 54


 3008 007a BEB2     		uxthls	r6, r7
 3009              	.LVL399:
 3010              		.loc 1 641 0
 3011 007c 2E46     		movhi	r6, r5
 3012              	.LVL400:
 3013              		.loc 1 648 0
 3014 007e 02EB0801 		add	r1, r2, r8
 3015 0082 5046     		mov	r0, r10
 3016 0084 3246     		mov	r2, r6
 3017 0086 FFF7FEFF 		bl	pbuf_copy_partial
 3018              	.LVL401:
 3019              		.loc 1 652 0
 3020 008a 2068     		ldr	r0, [r4]
 3021 008c 0378     		ldrb	r3, [r0]	@ zero_extendqisi2
 3022 008e 102B     		cmp	r3, #16
 3023              		.loc 1 650 0
 3024 0090 B044     		add	r8, r8, r6
 3025              	.LVL402:
 3026              		.loc 1 652 0
 3027 0092 40F0F880 		bne	.L348
 3028              		.loc 1 653 0
 3029 0096 B742     		cmp	r7, r6
 3030 0098 C0F0BC80 		bcc	.L393
 3031              	.L349:
 3032              	.LVL403:
 3033              		.loc 1 655 0
 3034 009c BF1B     		subs	r7, r7, r6
 3035              	.LVL404:
 3036 009e 00F09480 		beq	.L350
 3037              		.loc 1 656 0 discriminator 1
 3038 00a2 9AF80D20 		ldrb	r2, [r10, #13]	@ zero_extendqisi2
 3039              		.loc 1 655 0 discriminator 1
 3040 00a6 D207     		lsls	r2, r2, #31
 3041 00a8 00F18F80 		bmi	.L350
 3042              		.loc 1 656 0
 3043 00ac B4F90A20 		ldrsh	r2, [r4, #10]
 3044 00b0 002A     		cmp	r2, #0
 3045 00b2 40F38A80 		ble	.L350
 3046              		.loc 1 657 0
 3047 00b6 19F0010A 		ands	r10, r9, #1
 3048              	.LVL405:
 3049 00ba 5FD0     		beq	.L354
 3050              	.LVL406:
 3051              	.LBB140:
 3052              		.loc 1 668 0
 3053 00bc 189A     		ldr	r2, [sp, #96]
 3054              	.LBE140:
 3055 00be 4FF0010A 		mov	r10, #1
 3056              	.LBB143:
 3057 00c2 002A     		cmp	r2, #0
 3058 00c4 00F08780 		beq	.L355
 3059              	.L371:
 3060              		.loc 1 668 0 is_stmt 0 discriminator 1
 3061 00c8 199A     		ldr	r2, [sp, #100]
 3062 00ca 002A     		cmp	r2, #0
 3063 00cc 00F08380 		beq	.L355
 3064              	.LBB141:
ARM GAS  C:\Users\jo\AppData\Local\Temp\ccpKXchH.s 			page 55


 3065              		.loc 1 671 0 is_stmt 1
 3066 00d0 102B     		cmp	r3, #16
 3067 00d2 00F0E280 		beq	.L394
 3068              	.L356:
 3069              		.loc 1 675 0
 3070 00d6 089B     		ldr	r3, [sp, #32]
 3071              		.loc 1 676 0
 3072 00d8 9889     		ldrh	r0, [r3, #12]
 3073 00da ADF81E00 		strh	r0, [sp, #30]	@ movhi
 3074              		.loc 1 675 0
 3075 00de 03F1080B 		add	fp, r3, #8
 3076              	.LVL407:
 3077              	.L357:
 3078              		.loc 1 679 0
 3079 00e2 0023     		movs	r3, #0
 3080              		.loc 1 680 0
 3081 00e4 1021     		movs	r1, #16
 3082              		.loc 1 681 0
 3083 00e6 0222     		movs	r2, #2
 3084              		.loc 1 679 0
 3085 00e8 0A93     		str	r3, [sp, #40]
 3086 00ea 0B93     		str	r3, [sp, #44]
 3087 00ec 0C93     		str	r3, [sp, #48]
 3088 00ee 0D93     		str	r3, [sp, #52]
 3089              		.loc 1 680 0
 3090 00f0 8DF82810 		strb	r1, [sp, #40]
 3091 00f4 0491     		str	r1, [sp, #16]
 3092              		.loc 1 681 0
 3093 00f6 8DF82920 		strb	r2, [sp, #41]
 3094              		.loc 1 682 0
 3095 00fa FFF7FEFF 		bl	lwip_htons
 3096              	.LVL408:
 3097              		.loc 1 685 0
 3098 00fe 199B     		ldr	r3, [sp, #100]
 3099              		.loc 1 682 0
 3100 0100 ADF82A00 		strh	r0, [sp, #42]	@ movhi
 3101              		.loc 1 685 0
 3102 0104 1A68     		ldr	r2, [r3]
 3103              		.loc 1 683 0
 3104 0106 DBF80030 		ldr	r3, [fp]
 3105 010a 0B93     		str	r3, [sp, #44]
 3106              		.loc 1 685 0
 3107 010c 102A     		cmp	r2, #16
 3108 010e 0499     		ldr	r1, [sp, #16]
 3109 0110 02D9     		bls	.L358
 3110              		.loc 1 686 0
 3111 0112 199B     		ldr	r3, [sp, #100]
 3112 0114 0A46     		mov	r2, r1
 3113 0116 1960     		str	r1, [r3]
 3114              	.L358:
 3115              		.loc 1 689 0
 3116 0118 0AA9     		add	r1, sp, #40
 3117 011a 1898     		ldr	r0, [sp, #96]
 3118 011c FFF7FEFF 		bl	memcpy
 3119              	.LVL409:
 3120              		.loc 1 691 0
 3121 0120 7449     		ldr	r1, .L400+16
ARM GAS  C:\Users\jo\AppData\Local\Temp\ccpKXchH.s 			page 56


 3122 0122 059A     		ldr	r2, [sp, #20]
 3123 0124 7048     		ldr	r0, .L400+4
 3124 0126 FFF7FEFF 		bl	chprintf.constprop.1
 3125              	.LVL410:
 3126              		.loc 1 692 0
 3127 012a 9BF80210 		ldrb	r1, [fp, #2]	@ zero_extendqisi2
 3128 012e 9BF80020 		ldrb	r2, [fp]	@ zero_extendqisi2
 3129 0132 9BF80130 		ldrb	r3, [fp, #1]	@ zero_extendqisi2
 3130 0136 0091     		str	r1, [sp]
 3131 0138 9BF80310 		ldrb	r1, [fp, #3]	@ zero_extendqisi2
 3132 013c 0191     		str	r1, [sp, #4]
 3133              	.LVL411:
 3134              	.L391:
 3135              	.LBE141:
 3136              		.loc 1 705 0 discriminator 17
 3137 013e 6E49     		ldr	r1, .L400+20
 3138 0140 6948     		ldr	r0, .L400+4
 3139 0142 FFF7FEFF 		bl	chprintf.constprop.1
 3140              	.LVL412:
 3141              		.loc 1 706 0 discriminator 17
 3142 0146 6848     		ldr	r0, .L400+4
 3143 0148 6C49     		ldr	r1, .L400+24
 3144 014a BDF81E20 		ldrh	r2, [sp, #30]
 3145 014e 4346     		mov	r3, r8
 3146 0150 FFF7FEFF 		bl	chprintf.constprop.1
 3147              	.LVL413:
 3148              	.LBE143:
 3149              		.loc 1 712 0 discriminator 17
 3150 0154 BAF1000F 		cmp	r10, #0
 3151 0158 0CD0     		beq	.L363
 3152              	.LVL414:
 3153              	.L370:
 3154              		.loc 1 733 0
 3155 015a B8F1000F 		cmp	r8, #0
 3156 015e 03D0     		beq	.L365
 3157              	.L364:
 3158              		.loc 1 735 0
 3159 0160 2068     		ldr	r0, [r4]
 3160 0162 4146     		mov	r1, r8
 3161 0164 FFF7FEFF 		bl	netconn_recved
 3162              	.LVL415:
 3163              	.L365:
 3164              		.loc 1 737 0
 3165 0168 0023     		movs	r3, #0
 3166              		.loc 1 738 0
 3167 016a 4046     		mov	r0, r8
 3168              		.loc 1 737 0
 3169 016c 2361     		str	r3, [r4, #16]
 3170              	.LVL416:
 3171              	.L389:
 3172              		.loc 1 739 0
 3173 016e 0FB0     		add	sp, sp, #60
 3174              		.cfi_remember_state
 3175              		.cfi_def_cfa_offset 36
 3176              		@ sp needed
 3177 0170 BDE8F08F 		pop	{r4, r5, r6, r7, r8, r9, r10, fp, pc}
 3178              	.LVL417:
ARM GAS  C:\Users\jo\AppData\Local\Temp\ccpKXchH.s 			page 57


 3179              	.L363:
 3180              		.cfi_restore_state
 3181 0174 2368     		ldr	r3, [r4]
 3182 0176 1B78     		ldrb	r3, [r3]	@ zero_extendqisi2
 3183              		.loc 1 712 0
 3184 0178 4FF0010A 		mov	r10, #1
 3185              	.LVL418:
 3186              	.L354:
 3187              		.loc 1 716 0
 3188 017c 102B     		cmp	r3, #16
 3189 017e 10D1     		bne	.L366
 3190              		.loc 1 716 0 is_stmt 0 discriminator 1
 3191 0180 AD1B     		subs	r5, r5, r6
 3192              	.LVL419:
 3193 0182 002D     		cmp	r5, #0
 3194 0184 0DDD     		ble	.L366
 3195              		.loc 1 718 0 is_stmt 1
 3196 0186 2389     		ldrh	r3, [r4, #8]
 3197              		.loc 1 717 0
 3198 0188 089A     		ldr	r2, [sp, #32]
 3199 018a 6260     		str	r2, [r4, #4]
 3200              		.loc 1 718 0
 3201 018c 1E44     		add	r6, r6, r3
 3202              	.LVL420:
 3203 018e 2681     		strh	r6, [r4, #8]	@ movhi
 3204              		.loc 1 719 0
 3205 0190 5548     		ldr	r0, .L400+4
 3206 0192 5B49     		ldr	r1, .L400+28
 3207 0194 FFF7FEFF 		bl	chprintf.constprop.1
 3208              	.LVL421:
 3209              		.loc 1 731 0
 3210 0198 BAF1000F 		cmp	r10, #0
 3211 019c 3FF44AAF 		beq	.L369
 3212 01a0 DBE7     		b	.L370
 3213              	.LVL422:
 3214              	.L366:
 3215              		.loc 1 721 0
 3216 01a2 0023     		movs	r3, #0
 3217 01a4 6360     		str	r3, [r4, #4]
 3218              		.loc 1 722 0
 3219 01a6 2381     		strh	r3, [r4, #8]	@ movhi
 3220              		.loc 1 723 0
 3221 01a8 4F48     		ldr	r0, .L400+4
 3222 01aa 5649     		ldr	r1, .L400+32
 3223 01ac 089A     		ldr	r2, [sp, #32]
 3224 01ae FFF7FEFF 		bl	chprintf.constprop.1
 3225              	.LVL423:
 3226              		.loc 1 724 0
 3227 01b2 2368     		ldr	r3, [r4]
 3228              		.loc 1 725 0
 3229 01b4 0898     		ldr	r0, [sp, #32]
 3230              		.loc 1 724 0
 3231 01b6 1B78     		ldrb	r3, [r3]	@ zero_extendqisi2
 3232 01b8 102B     		cmp	r3, #16
 3233 01ba 5DD0     		beq	.L395
 3234              		.loc 1 727 0
 3235 01bc FFF7FEFF 		bl	netbuf_delete
ARM GAS  C:\Users\jo\AppData\Local\Temp\ccpKXchH.s 			page 58


 3236              	.LVL424:
 3237              		.loc 1 731 0
 3238 01c0 BAF1000F 		cmp	r10, #0
 3239 01c4 3FF436AF 		beq	.L369
 3240 01c8 C7E7     		b	.L370
 3241              	.LVL425:
 3242              	.L350:
 3243              	.LBB144:
 3244              		.loc 1 668 0
 3245 01ca 189A     		ldr	r2, [sp, #96]
 3246 01cc 09F0010A 		and	r10, r9, #1
 3247              	.LVL426:
 3248 01d0 002A     		cmp	r2, #0
 3249 01d2 7FF479AF 		bne	.L371
 3250              	.L355:
 3251              		.loc 1 696 0
 3252 01d6 102B     		cmp	r3, #16
 3253 01d8 72D0     		beq	.L396
 3254              	.L360:
 3255              		.loc 1 700 0
 3256 01da 089B     		ldr	r3, [sp, #32]
 3257              		.loc 1 704 0
 3258 01dc 4248     		ldr	r0, .L400+4
 3259              		.loc 1 701 0
 3260 01de 9A89     		ldrh	r2, [r3, #12]
 3261 01e0 ADF81E20 		strh	r2, [sp, #30]	@ movhi
 3262              		.loc 1 700 0
 3263 01e4 03F1080C 		add	ip, r3, #8
 3264              		.loc 1 704 0
 3265 01e8 4249     		ldr	r1, .L400+16
 3266 01ea 059A     		ldr	r2, [sp, #20]
 3267              		.loc 1 700 0
 3268 01ec CDF810C0 		str	ip, [sp, #16]
 3269              	.LVL427:
 3270              		.loc 1 704 0
 3271 01f0 FFF7FEFF 		bl	chprintf.constprop.1
 3272              	.LVL428:
 3273              		.loc 1 705 0
 3274 01f4 DDF810C0 		ldr	ip, [sp, #16]
 3275 01f8 BCF1000F 		cmp	ip, #0
 3276 01fc 5BD0     		beq	.L377
 3277              	.L361:
 3278              	.LVL429:
 3279              		.loc 1 705 0 is_stmt 0 discriminator 2
 3280 01fe 9CF80020 		ldrb	r2, [ip]	@ zero_extendqisi2
 3281 0202 9CF80130 		ldrb	r3, [ip, #1]	@ zero_extendqisi2
 3282 0206 9CF80210 		ldrb	r1, [ip, #2]	@ zero_extendqisi2
 3283 020a 9CF80300 		ldrb	r0, [ip, #3]	@ zero_extendqisi2
 3284              	.LVL430:
 3285              	.L362:
 3286              		.loc 1 705 0 discriminator 17
 3287 020e 0091     		str	r1, [sp]
 3288 0210 0190     		str	r0, [sp, #4]
 3289 0212 94E7     		b	.L391
 3290              	.LVL431:
 3291              	.L393:
 3292              	.LBE144:
ARM GAS  C:\Users\jo\AppData\Local\Temp\ccpKXchH.s 			page 59


 3293              		.loc 1 653 0 is_stmt 1 discriminator 1
 3294 0214 3C4B     		ldr	r3, .L400+36
 3295 0216 0093     		str	r3, [sp]
 3296 0218 3C49     		ldr	r1, .L400+40
 3297 021a 3D4A     		ldr	r2, .L400+44
 3298 021c 3248     		ldr	r0, .L400+4
 3299 021e 40F28D23 		movw	r3, #653
 3300 0222 FFF7FEFF 		bl	chprintf.constprop.1
 3301              	.LVL432:
 3302              	.LBB145:
 3303              	.LBB146:
 3304              		.loc 3 414 0 discriminator 1
 3305 0226 3A48     		ldr	r0, .L400+44
 3306 0228 FFF7FEFF 		bl	chSysHalt
 3307              	.LVL433:
 3308 022c 2068     		ldr	r0, [r4]
 3309 022e 0378     		ldrb	r3, [r0]	@ zero_extendqisi2
 3310 0230 34E7     		b	.L349
 3311              	.LVL434:
 3312              	.L334:
 3313              	.LBE146:
 3314              	.LBE145:
 3315              		.loc 1 583 0
 3316 0232 19F0080F 		tst	r9, #8
 3317 0236 03D1     		bne	.L336
 3318              		.loc 1 583 0 is_stmt 0 discriminator 2
 3319 0238 2068     		ldr	r0, [r4]
 3320 023a 037F     		ldrb	r3, [r0, #28]	@ zero_extendqisi2
 3321 023c 9907     		lsls	r1, r3, #30
 3322 023e 05D5     		bpl	.L337
 3323              	.L336:
 3324              		.loc 1 583 0 discriminator 3
 3325 0240 B4F90A30 		ldrsh	r3, [r4, #10]
 3326 0244 002B     		cmp	r3, #0
 3327 0246 40F39280 		ble	.L338
 3328 024a 2068     		ldr	r0, [r4]
 3329              	.L337:
 3330              		.loc 1 599 0 is_stmt 1
 3331 024c 0378     		ldrb	r3, [r0]	@ zero_extendqisi2
 3332 024e 102B     		cmp	r3, #16
 3333              		.loc 1 600 0
 3334 0250 08A9     		add	r1, sp, #32
 3335              		.loc 1 599 0
 3336 0252 2CD0     		beq	.L397
 3337              		.loc 1 602 0
 3338 0254 FFF7FEFF 		bl	netconn_recv
 3339              	.LVL435:
 3340 0258 0546     		mov	r5, r0
 3341              	.LVL436:
 3342              	.L341:
 3343              		.loc 1 604 0 discriminator 1
 3344 025a 6EB2     		sxtb	r6, r5
 3345 025c 3246     		mov	r2, r6
 3346 025e 2248     		ldr	r0, .L400+4
 3347 0260 2C49     		ldr	r1, .L400+48
 3348 0262 089B     		ldr	r3, [sp, #32]
 3349 0264 FFF7FEFF 		bl	chprintf.constprop.1
ARM GAS  C:\Users\jo\AppData\Local\Temp\ccpKXchH.s 			page 60


 3350              	.LVL437:
 3351              		.loc 1 607 0 discriminator 1
 3352 0268 002D     		cmp	r5, #0
 3353 026a 63D1     		bne	.L398
 3354              		.loc 1 625 0
 3355 026c 089B     		ldr	r3, [sp, #32]
 3356 026e 002B     		cmp	r3, #0
 3357 0270 52D0     		beq	.L399
 3358              	.L345:
 3359              		.loc 1 626 0
 3360 0272 6360     		str	r3, [r4, #4]
 3361 0274 9A46     		mov	r10, r3
 3362 0276 E8E6     		b	.L335
 3363              	.LVL438:
 3364              	.L395:
 3365              		.loc 1 725 0
 3366 0278 FFF7FEFF 		bl	pbuf_free
 3367              	.LVL439:
 3368              		.loc 1 731 0
 3369 027c BAF1000F 		cmp	r10, #0
 3370 0280 3FF4D8AE 		beq	.L369
 3371 0284 69E7     		b	.L370
 3372              	.LVL440:
 3373              	.L348:
 3374              	.LBB147:
 3375              		.loc 1 668 0
 3376 0286 189B     		ldr	r3, [sp, #96]
 3377 0288 09F0010A 		and	r10, r9, #1
 3378              	.LVL441:
 3379 028c 002B     		cmp	r3, #0
 3380 028e A4D0     		beq	.L360
 3381 0290 199B     		ldr	r3, [sp, #100]
 3382 0292 002B     		cmp	r3, #0
 3383 0294 7FF41FAF 		bne	.L356
 3384 0298 9FE7     		b	.L360
 3385              	.L394:
 3386              	.LVL442:
 3387              	.LBB142:
 3388              		.loc 1 673 0
 3389 029a 09A9     		add	r1, sp, #36
 3390              	.LVL443:
 3391 029c 0DF11E02 		add	r2, sp, #30
 3392 02a0 0023     		movs	r3, #0
 3393              		.loc 1 672 0
 3394 02a2 8B46     		mov	fp, r1
 3395              		.loc 1 673 0
 3396 02a4 FFF7FEFF 		bl	netconn_getaddr
 3397              	.LVL444:
 3398 02a8 BDF81E00 		ldrh	r0, [sp, #30]
 3399 02ac 19E7     		b	.L357
 3400              	.LVL445:
 3401              	.L397:
 3402              	.LBE142:
 3403              	.LBE147:
 3404              		.loc 1 600 0
 3405 02ae FFF7FEFF 		bl	netconn_recv_tcp_pbuf
 3406              	.LVL446:
ARM GAS  C:\Users\jo\AppData\Local\Temp\ccpKXchH.s 			page 61


 3407 02b2 0546     		mov	r5, r0
 3408              	.LVL447:
 3409 02b4 D1E7     		b	.L341
 3410              	.LVL448:
 3411              	.L377:
 3412              	.LBB148:
 3413              		.loc 1 705 0
 3414 02b6 6146     		mov	r1, ip
 3415 02b8 6346     		mov	r3, ip
 3416 02ba 6246     		mov	r2, ip
 3417 02bc 6046     		mov	r0, ip
 3418 02be A6E7     		b	.L362
 3419              	.LVL449:
 3420              	.L396:
 3421              		.loc 1 698 0
 3422 02c0 09A9     		add	r1, sp, #36
 3423              	.LVL450:
 3424 02c2 0DF11E02 		add	r2, sp, #30
 3425 02c6 0023     		movs	r3, #0
 3426 02c8 FFF7FEFF 		bl	netconn_getaddr
 3427              	.LVL451:
 3428              		.loc 1 697 0
 3429 02cc 0DF1240C 		add	ip, sp, #36
 3430              	.LVL452:
 3431              		.loc 1 704 0
 3432 02d0 0548     		ldr	r0, .L400+4
 3433 02d2 0849     		ldr	r1, .L400+16
 3434 02d4 059A     		ldr	r2, [sp, #20]
 3435              		.loc 1 697 0
 3436 02d6 CDF810C0 		str	ip, [sp, #16]
 3437              		.loc 1 704 0
 3438 02da FFF7FEFF 		bl	chprintf.constprop.1
 3439              	.LVL453:
 3440 02de DDF810C0 		ldr	ip, [sp, #16]
 3441 02e2 8CE7     		b	.L361
 3442              	.L401:
 3443              		.align	2
 3444              	.L400:
 3445 02e4 D0060000 		.word	.LC51
 3446 02e8 00000000 		.word	itm_port
 3447 02ec F8060000 		.word	.LC52
 3448 02f0 BC070000 		.word	.LC57
 3449 02f4 20080000 		.word	.LC59
 3450 02f8 30040000 		.word	.LC27
 3451 02fc 3C080000 		.word	.LC60
 3452 0300 50080000 		.word	.LC61
 3453 0304 78080000 		.word	.LC62
 3454 0308 3C000000 		.word	.LC4
 3455 030c 08000000 		.word	.LC2
 3456 0310 F8070000 		.word	.LC58
 3457 0314 50070000 		.word	.LC54
 3458              	.LVL454:
 3459              	.L399:
 3460              	.LBE148:
 3461              		.loc 1 625 0 discriminator 1
 3462 0318 1D4B     		ldr	r3, .L402
 3463 031a 0093     		str	r3, [sp]
ARM GAS  C:\Users\jo\AppData\Local\Temp\ccpKXchH.s 			page 62


 3464 031c 1D49     		ldr	r1, .L402+4
 3465 031e 1E4A     		ldr	r2, .L402+8
 3466 0320 1E48     		ldr	r0, .L402+12
 3467 0322 40F27123 		movw	r3, #625
 3468 0326 FFF7FEFF 		bl	chprintf.constprop.1
 3469              	.LVL455:
 3470              	.LBB149:
 3471              	.LBB150:
 3472              		.loc 3 414 0 discriminator 1
 3473 032a 1B48     		ldr	r0, .L402+8
 3474 032c FFF7FEFF 		bl	chSysHalt
 3475              	.LVL456:
 3476 0330 089B     		ldr	r3, [sp, #32]
 3477 0332 9EE7     		b	.L345
 3478              	.LVL457:
 3479              	.L398:
 3480              	.LBE150:
 3481              	.LBE149:
 3482              		.loc 1 608 0
 3483 0334 B8F1000F 		cmp	r8, #0
 3484 0338 7FF412AF 		bne	.L364
 3485              		.loc 1 616 0 discriminator 1
 3486 033c 3046     		mov	r0, r6
 3487 033e FFF7FEFF 		bl	lwip_strerr
 3488              	.LVL458:
 3489 0342 059A     		ldr	r2, [sp, #20]
 3490 0344 1649     		ldr	r1, .L402+16
 3491 0346 0346     		mov	r3, r0
 3492 0348 1448     		ldr	r0, .L402+12
 3493 034a FFF7FEFF 		bl	chprintf.constprop.1
 3494              	.LVL459:
 3495              		.loc 1 618 0 discriminator 1
 3496 034e 7342     		negs	r3, r6
 3497 0350 0F2B     		cmp	r3, #15
 3498 0352 96BF     		itet	ls
 3499 0354 134A     		ldrls	r2, .L402+20
 3500 0356 0523     		movhi	r3, #5
 3501 0358 52F82330 		ldrls	r3, [r2, r3, lsl #2]
 3502 035c 2361     		str	r3, [r4, #16]
 3503              		.loc 1 619 0 discriminator 1
 3504 035e 16F10C08 		adds	r8, r6, #12
 3505              	.LVL460:
 3506 0362 18BF     		it	ne
 3507 0364 4FF00108 		movne	r8, #1
 3508 0368 C8F10000 		rsb	r0, r8, #0
 3509 036c FFE6     		b	.L389
 3510              	.LVL461:
 3511              	.L338:
 3512              		.loc 1 585 0
 3513 036e B8F1000F 		cmp	r8, #0
 3514 0372 7FF4F5AE 		bne	.L364
 3515              		.loc 1 592 0 discriminator 1
 3516 0376 059A     		ldr	r2, [sp, #20]
 3517 0378 0848     		ldr	r0, .L402+12
 3518 037a 0B49     		ldr	r1, .L402+24
 3519 037c FFF7FEFF 		bl	chprintf.constprop.1
 3520              	.LVL462:
ARM GAS  C:\Users\jo\AppData\Local\Temp\ccpKXchH.s 			page 63


 3521              		.loc 1 593 0 discriminator 1
 3522 0380 0B23     		movs	r3, #11
 3523 0382 2361     		str	r3, [r4, #16]
 3524              		.loc 1 594 0 discriminator 1
 3525 0384 4FF0FF30 		mov	r0, #-1
 3526 0388 F1E6     		b	.L389
 3527              	.LVL463:
 3528              	.L373:
 3529              		.loc 1 573 0
 3530 038a 4FF0FF30 		mov	r0, #-1
 3531              	.LVL464:
 3532 038e EEE6     		b	.L389
 3533              	.L403:
 3534              		.align	2
 3535              	.L402:
 3536 0390 3C000000 		.word	.LC4
 3537 0394 08000000 		.word	.LC2
 3538 0398 B0070000 		.word	.LC56
 3539 039c 00000000 		.word	itm_port
 3540 03a0 80070000 		.word	.LC55
 3541 03a4 00000000 		.word	.LANCHOR1
 3542 03a8 24070000 		.word	.LC53
 3543              		.cfi_endproc
 3544              	.LFE266:
 3545              		.size	lwip_recvfrom, .-lwip_recvfrom
 3546 03ac AFF30080 		.section	.text.lwip_read,"ax",%progbits
 3547              		.align	2
 3548              		.p2align 4,,15
 3549              		.global	lwip_read
 3550              		.thumb
 3551              		.thumb_func
 3552              		.type	lwip_read, %function
 3553              	lwip_read:
 3554              	.LFB267:
 3555              		.loc 1 743 0
 3556              		.cfi_startproc
 3557              		@ args = 0, pretend = 0, frame = 0
 3558              		@ frame_needed = 0, uses_anonymous_args = 0
 3559              	.LVL465:
 3560 0000 00B5     		push	{lr}
 3561              		.cfi_def_cfa_offset 4
 3562              		.cfi_offset 14, -4
 3563 0002 83B0     		sub	sp, sp, #12
 3564              		.cfi_def_cfa_offset 16
 3565              		.loc 1 744 0
 3566 0004 0023     		movs	r3, #0
 3567 0006 0093     		str	r3, [sp]
 3568 0008 0193     		str	r3, [sp, #4]
 3569 000a FFF7FEFF 		bl	lwip_recvfrom
 3570              	.LVL466:
 3571              		.loc 1 745 0
 3572 000e 03B0     		add	sp, sp, #12
 3573              		.cfi_def_cfa_offset 4
 3574              		@ sp needed
 3575 0010 5DF804FB 		ldr	pc, [sp], #4
 3576              		.cfi_endproc
 3577              	.LFE267:
ARM GAS  C:\Users\jo\AppData\Local\Temp\ccpKXchH.s 			page 64


 3578              		.size	lwip_read, .-lwip_read
 3579 0014 AFF30080 		.section	.text.lwip_recv,"ax",%progbits
 3579      AFF30080 
 3579      AFF30080 
 3580              		.align	2
 3581              		.p2align 4,,15
 3582              		.global	lwip_recv
 3583              		.thumb
 3584              		.thumb_func
 3585              		.type	lwip_recv, %function
 3586              	lwip_recv:
 3587              	.LFB268:
 3588              		.loc 1 749 0
 3589              		.cfi_startproc
 3590              		@ args = 0, pretend = 0, frame = 0
 3591              		@ frame_needed = 0, uses_anonymous_args = 0
 3592              	.LVL467:
 3593 0000 10B5     		push	{r4, lr}
 3594              		.cfi_def_cfa_offset 8
 3595              		.cfi_offset 4, -8
 3596              		.cfi_offset 14, -4
 3597 0002 82B0     		sub	sp, sp, #8
 3598              		.cfi_def_cfa_offset 16
 3599              		.loc 1 750 0
 3600 0004 0024     		movs	r4, #0
 3601 0006 0094     		str	r4, [sp]
 3602 0008 0194     		str	r4, [sp, #4]
 3603 000a FFF7FEFF 		bl	lwip_recvfrom
 3604              	.LVL468:
 3605              		.loc 1 751 0
 3606 000e 02B0     		add	sp, sp, #8
 3607              		.cfi_def_cfa_offset 8
 3608              		@ sp needed
 3609 0010 10BD     		pop	{r4, pc}
 3610              		.cfi_endproc
 3611              	.LFE268:
 3612              		.size	lwip_recv, .-lwip_recv
 3613 0012 00BFAFF3 		.section	.text.lwip_sendto,"ax",%progbits
 3613      0080AFF3 
 3613      0080AFF3 
 3613      0080
 3614              		.align	2
 3615              		.p2align 4,,15
 3616              		.global	lwip_sendto
 3617              		.thumb
 3618              		.thumb_func
 3619              		.type	lwip_sendto, %function
 3620              	lwip_sendto:
 3621              	.LFB270:
 3622              		.loc 1 792 0
 3623              		.cfi_startproc
 3624              		@ args = 8, pretend = 0, frame = 16
 3625              		@ frame_needed = 0, uses_anonymous_args = 0
 3626              	.LVL469:
 3627 0000 2DE9F047 		push	{r4, r5, r6, r7, r8, r9, r10, lr}
 3628              		.cfi_def_cfa_offset 32
 3629              		.cfi_offset 4, -32
ARM GAS  C:\Users\jo\AppData\Local\Temp\ccpKXchH.s 			page 65


 3630              		.cfi_offset 5, -28
 3631              		.cfi_offset 6, -24
 3632              		.cfi_offset 7, -20
 3633              		.cfi_offset 8, -16
 3634              		.cfi_offset 9, -12
 3635              		.cfi_offset 10, -8
 3636              		.cfi_offset 14, -4
 3637 0004 86B0     		sub	sp, sp, #24
 3638              		.cfi_def_cfa_offset 56
 3639              		.loc 1 792 0
 3640 0006 0F46     		mov	r7, r1
 3641 0008 1446     		mov	r4, r2
 3642 000a 9946     		mov	r9, r3
 3643 000c 8046     		mov	r8, r0
 3644 000e 0E9D     		ldr	r5, [sp, #56]
 3645 0010 DDF83CA0 		ldr	r10, [sp, #60]
 3646              		.loc 1 802 0
 3647 0014 FFF7FEFF 		bl	get_socket
 3648              	.LVL470:
 3649              		.loc 1 803 0
 3650 0018 0646     		mov	r6, r0
 3651 001a 0028     		cmp	r0, #0
 3652 001c 4AD0     		beq	.L427
 3653              		.loc 1 807 0
 3654 001e 0368     		ldr	r3, [r0]
 3655 0020 1B78     		ldrb	r3, [r3]	@ zero_extendqisi2
 3656 0022 102B     		cmp	r3, #16
 3657 0024 00F08480 		beq	.L429
 3658              		.loc 1 818 0
 3659 0028 B4F5803F 		cmp	r4, #65536
 3660 002c 48D2     		bcs	.L430
 3661              		.loc 1 819 0
 3662 002e A4B2     		uxth	r4, r4
 3663              	.LVL471:
 3664              		.loc 1 820 0
 3665 0030 002D     		cmp	r5, #0
 3666 0032 54D0     		beq	.L431
 3667              	.LVL472:
 3668              	.L413:
 3669              		.loc 1 820 0 is_stmt 0 discriminator 3
 3670 0034 BAF1100F 		cmp	r10, #16
 3671 0038 6BD1     		bne	.L415
 3672              		.loc 1 820 0 discriminator 5
 3673 003a 6B78     		ldrb	r3, [r5, #1]	@ zero_extendqisi2
 3674 003c 022B     		cmp	r3, #2
 3675 003e 68D1     		bne	.L415
 3676              		.loc 1 820 0 discriminator 7
 3677 0040 15F00303 		ands	r3, r5, #3
 3678 0044 65D1     		bne	.L415
 3679              	.LVL473:
 3680              		.loc 1 901 0 is_stmt 1
 3681 0046 6A68     		ldr	r2, [r5, #4]
 3682              		.loc 1 902 0
 3683 0048 6888     		ldrh	r0, [r5, #2]
 3684              		.loc 1 896 0
 3685 004a 0393     		str	r3, [sp, #12]
 3686 004c 0293     		str	r3, [sp, #8]
ARM GAS  C:\Users\jo\AppData\Local\Temp\ccpKXchH.s 			page 66


 3687              		.loc 1 901 0
 3688 004e 0492     		str	r2, [sp, #16]
 3689              		.loc 1 902 0
 3690 0050 FFF7FEFF 		bl	lwip_ntohs
 3691              	.LVL474:
 3692              		.loc 1 903 0
 3693 0054 ADF81400 		strh	r0, [sp, #20]	@ movhi
 3694 0058 0546     		mov	r5, r0
 3695              	.LVL475:
 3696              	.L420:
 3697              		.loc 1 910 0 discriminator 1
 3698 005a 4246     		mov	r2, r8
 3699 005c 3849     		ldr	r1, .L433
 3700 005e 3948     		ldr	r0, .L433+4
 3701 0060 3B46     		mov	r3, r7
 3702 0062 8DE81002 		stmia	sp, {r4, r9}
 3703 0066 FFF7FEFF 		bl	chprintf.constprop.1
 3704              	.LVL476:
 3705              		.loc 1 912 0 discriminator 1
 3706 006a 9DF81200 		ldrb	r0, [sp, #18]	@ zero_extendqisi2
 3707 006e 9DF81310 		ldrb	r1, [sp, #19]	@ zero_extendqisi2
 3708 0072 9DF81130 		ldrb	r3, [sp, #17]	@ zero_extendqisi2
 3709 0076 9DF81020 		ldrb	r2, [sp, #16]	@ zero_extendqisi2
 3710 007a 8DE80300 		stmia	sp, {r0, r1}
 3711 007e 3249     		ldr	r1, .L433+8
 3712 0080 3048     		ldr	r0, .L433+4
 3713 0082 FFF7FEFF 		bl	chprintf.constprop.1
 3714              	.LVL477:
 3715              		.loc 1 913 0 discriminator 1
 3716 0086 2A46     		mov	r2, r5
 3717 0088 3049     		ldr	r1, .L433+12
 3718 008a 2E48     		ldr	r0, .L433+4
 3719 008c FFF7FEFF 		bl	chprintf.constprop.1
 3720              	.LVL478:
 3721              		.loc 1 933 0 discriminator 1
 3722 0090 3946     		mov	r1, r7
 3723 0092 2246     		mov	r2, r4
 3724 0094 02A8     		add	r0, sp, #8
 3725 0096 FFF7FEFF 		bl	netbuf_ref
 3726              	.LVL479:
 3727              		.loc 1 935 0 discriminator 1
 3728 009a 0546     		mov	r5, r0
 3729 009c 60B3     		cbz	r0, .L432
 3730              	.LVL480:
 3731              		.loc 1 941 0
 3732 009e 02A8     		add	r0, sp, #8
 3733 00a0 FFF7FEFF 		bl	netbuf_free
 3734              	.LVL481:
 3735              		.loc 1 943 0
 3736 00a4 6B42     		negs	r3, r5
 3737 00a6 0F2B     		cmp	r3, #15
 3738 00a8 3FD8     		bhi	.L428
 3739              	.L421:
 3740              		.loc 1 943 0 is_stmt 0 discriminator 1
 3741 00aa 294A     		ldr	r2, .L433+16
 3742 00ac 52F82330 		ldr	r3, [r2, r3, lsl #2]
 3743              	.L418:
ARM GAS  C:\Users\jo\AppData\Local\Temp\ccpKXchH.s 			page 67


 3744              		.loc 1 943 0 discriminator 4
 3745 00b0 3361     		str	r3, [r6, #16]
 3746              		.loc 1 944 0 is_stmt 1 discriminator 4
 3747 00b2 0DB1     		cbz	r5, .L424
 3748              	.LVL482:
 3749              	.L427:
 3750              		.loc 1 820 0 discriminator 8
 3751 00b4 4FF0FF34 		mov	r4, #-1
 3752              	.L424:
 3753              		.loc 1 945 0
 3754 00b8 2046     		mov	r0, r4
 3755 00ba 06B0     		add	sp, sp, #24
 3756              		.cfi_remember_state
 3757              		.cfi_def_cfa_offset 32
 3758              		@ sp needed
 3759 00bc BDE8F087 		pop	{r4, r5, r6, r7, r8, r9, r10, pc}
 3760              	.LVL483:
 3761              	.L430:
 3762              		.cfi_restore_state
 3763              		.loc 1 818 0 discriminator 1
 3764 00c0 244B     		ldr	r3, .L433+20
 3765 00c2 0093     		str	r3, [sp]
 3766 00c4 2449     		ldr	r1, .L433+24
 3767 00c6 254A     		ldr	r2, .L433+28
 3768 00c8 1E48     		ldr	r0, .L433+4
 3769              	.LVL484:
 3770 00ca 40F23233 		movw	r3, #818
 3771 00ce FFF7FEFF 		bl	chprintf.constprop.1
 3772              	.LVL485:
 3773              	.LBB151:
 3774              	.LBB152:
 3775              		.loc 3 414 0 discriminator 1
 3776 00d2 2248     		ldr	r0, .L433+28
 3777 00d4 FFF7FEFF 		bl	chSysHalt
 3778              	.LVL486:
 3779              	.LBE152:
 3780              	.LBE151:
 3781              		.loc 1 819 0 discriminator 1
 3782 00d8 A4B2     		uxth	r4, r4
 3783              	.LVL487:
 3784              		.loc 1 820 0 discriminator 1
 3785 00da 002D     		cmp	r5, #0
 3786 00dc AAD1     		bne	.L413
 3787              	.LVL488:
 3788              	.L431:
 3789              		.loc 1 820 0 is_stmt 0 discriminator 2
 3790 00de BAF1000F 		cmp	r10, #0
 3791 00e2 A7D1     		bne	.L413
 3792              	.LVL489:
 3793              		.loc 1 896 0 is_stmt 1
 3794 00e4 CDF80CA0 		str	r10, [sp, #12]
 3795 00e8 CDF808A0 		str	r10, [sp, #8]
 3796              	.LVL490:
 3797              		.loc 1 906 0
 3798 00ec CDF810A0 		str	r10, [sp, #16]
 3799              		.loc 1 907 0
 3800 00f0 ADF814A0 		strh	r10, [sp, #20]	@ movhi
ARM GAS  C:\Users\jo\AppData\Local\Temp\ccpKXchH.s 			page 68


 3801 00f4 5546     		mov	r5, r10
 3802 00f6 B0E7     		b	.L420
 3803              	.LVL491:
 3804              	.L432:
 3805              		.loc 1 937 0
 3806 00f8 02A9     		add	r1, sp, #8
 3807 00fa 3068     		ldr	r0, [r6]
 3808              	.LVL492:
 3809 00fc FFF7FEFF 		bl	netconn_send
 3810              	.LVL493:
 3811 0100 0546     		mov	r5, r0
 3812              	.LVL494:
 3813              		.loc 1 941 0
 3814 0102 02A8     		add	r0, sp, #8
 3815 0104 FFF7FEFF 		bl	netbuf_free
 3816              	.LVL495:
 3817              		.loc 1 943 0
 3818 0108 6B42     		negs	r3, r5
 3819 010a 0F2B     		cmp	r3, #15
 3820 010c CDD9     		bls	.L421
 3821 010e 0523     		movs	r3, #5
 3822 0110 CEE7     		b	.L418
 3823              	.LVL496:
 3824              	.L415:
 3825              		.loc 1 820 0 discriminator 8
 3826 0112 104B     		ldr	r3, .L433+20
 3827 0114 0093     		str	r3, [sp]
 3828 0116 0B48     		ldr	r0, .L433+4
 3829 0118 0F49     		ldr	r1, .L433+24
 3830 011a 114A     		ldr	r2, .L433+32
 3831 011c 40F23733 		movw	r3, #823
 3832 0120 FFF7FEFF 		bl	chprintf.constprop.1
 3833              	.LVL497:
 3834              	.LBB153:
 3835              	.LBB154:
 3836              		.loc 3 414 0 discriminator 8
 3837 0124 0E48     		ldr	r0, .L433+32
 3838 0126 FFF7FEFF 		bl	chSysHalt
 3839              	.LVL498:
 3840              	.L428:
 3841              	.LBE154:
 3842              	.LBE153:
 3843              		.loc 1 820 0 discriminator 8
 3844 012a 0523     		movs	r3, #5
 3845 012c 3361     		str	r3, [r6, #16]
 3846 012e C1E7     		b	.L427
 3847              	.LVL499:
 3848              	.L429:
 3849              		.loc 1 809 0
 3850 0130 2246     		mov	r2, r4
 3851 0132 4046     		mov	r0, r8
 3852              	.LVL500:
 3853 0134 3946     		mov	r1, r7
 3854 0136 4B46     		mov	r3, r9
 3855 0138 FFF7FEFF 		bl	lwip_send
 3856              	.LVL501:
 3857 013c 0446     		mov	r4, r0
ARM GAS  C:\Users\jo\AppData\Local\Temp\ccpKXchH.s 			page 69


 3858              	.LVL502:
 3859 013e BBE7     		b	.L424
 3860              	.L434:
 3861              		.align	2
 3862              	.L433:
 3863 0140 E0080000 		.word	.LC65
 3864 0144 00000000 		.word	itm_port
 3865 0148 30040000 		.word	.LC27
 3866 014c 78050000 		.word	.LC38
 3867 0150 00000000 		.word	.LANCHOR1
 3868 0154 3C000000 		.word	.LC4
 3869 0158 08000000 		.word	.LC2
 3870 015c 9C080000 		.word	.LC63
 3871 0160 C0080000 		.word	.LC64
 3872              		.cfi_endproc
 3873              	.LFE270:
 3874              		.size	lwip_sendto, .-lwip_sendto
 3875 0164 AFF30080 		.section	.text.lwip_send,"ax",%progbits
 3875      AFF30080 
 3875      AFF30080 
 3876              		.align	2
 3877              		.p2align 4,,15
 3878              		.global	lwip_send
 3879              		.thumb
 3880              		.thumb_func
 3881              		.type	lwip_send, %function
 3882              	lwip_send:
 3883              	.LFB269:
 3884              		.loc 1 755 0
 3885              		.cfi_startproc
 3886              		@ args = 0, pretend = 0, frame = 8
 3887              		@ frame_needed = 0, uses_anonymous_args = 0
 3888              	.LVL503:
 3889 0000 2DE9F041 		push	{r4, r5, r6, r7, r8, lr}
 3890              		.cfi_def_cfa_offset 24
 3891              		.cfi_offset 4, -24
 3892              		.cfi_offset 5, -20
 3893              		.cfi_offset 6, -16
 3894              		.cfi_offset 7, -12
 3895              		.cfi_offset 8, -8
 3896              		.cfi_offset 14, -4
 3897 0004 84B0     		sub	sp, sp, #16
 3898              		.cfi_def_cfa_offset 40
 3899              		.loc 1 755 0
 3900 0006 0446     		mov	r4, r0
 3901              		.loc 1 761 0
 3902 0008 0092     		str	r2, [sp]
 3903 000a 0193     		str	r3, [sp, #4]
 3904              		.loc 1 755 0
 3905 000c 8846     		mov	r8, r1
 3906 000e 1746     		mov	r7, r2
 3907 0010 1E46     		mov	r6, r3
 3908              		.loc 1 761 0
 3909 0012 0246     		mov	r2, r0
 3910              	.LVL504:
 3911 0014 0B46     		mov	r3, r1
 3912              	.LVL505:
ARM GAS  C:\Users\jo\AppData\Local\Temp\ccpKXchH.s 			page 70


 3913 0016 2548     		ldr	r0, .L449
 3914              	.LVL506:
 3915 0018 2549     		ldr	r1, .L449+4
 3916              	.LVL507:
 3917 001a FFF7FEFF 		bl	chprintf.constprop.1
 3918              	.LVL508:
 3919              		.loc 1 764 0
 3920 001e 2046     		mov	r0, r4
 3921 0020 FFF7FEFF 		bl	get_socket
 3922              	.LVL509:
 3923              		.loc 1 765 0
 3924 0024 0546     		mov	r5, r0
 3925 0026 60B3     		cbz	r0, .L442
 3926              		.loc 1 769 0
 3927 0028 0068     		ldr	r0, [r0]
 3928              	.LVL510:
 3929 002a 0378     		ldrb	r3, [r0]	@ zero_extendqisi2
 3930 002c 102B     		cmp	r3, #16
 3931 002e 31D1     		bne	.L447
 3932              		.loc 1 781 0
 3933 0030 0DF1100E 		add	lr, sp, #16
 3934              		.loc 1 778 0
 3935 0034 16F0100F 		tst	r6, #16
 3936              		.loc 1 781 0
 3937 0038 4FF00002 		mov	r2, #0
 3938 003c 4EF8042D 		str	r2, [lr, #-4]!
 3939              		.loc 1 778 0
 3940 0040 14BF     		ite	ne
 3941 0042 0323     		movne	r3, #3
 3942 0044 0123     		moveq	r3, #1
 3943 0046 16F0080F 		tst	r6, #8
 3944 004a 0CBF     		ite	eq
 3945 004c 1646     		moveq	r6, r2
 3946              	.LVL511:
 3947 004e 0426     		movne	r6, #4
 3948              	.LVL512:
 3949              		.loc 1 782 0
 3950 0050 3343     		orrs	r3, r3, r6
 3951              	.LVL513:
 3952 0052 4146     		mov	r1, r8
 3953 0054 3A46     		mov	r2, r7
 3954 0056 CDF800E0 		str	lr, [sp]
 3955              	.LVL514:
 3956 005a FFF7FEFF 		bl	netconn_write_partly
 3957              	.LVL515:
 3958              		.loc 1 784 0
 3959 005e 039B     		ldr	r3, [sp, #12]
 3960 0060 0093     		str	r3, [sp]
 3961 0062 2246     		mov	r2, r4
 3962 0064 0346     		mov	r3, r0
 3963              		.loc 1 782 0
 3964 0066 0646     		mov	r6, r0
 3965              	.LVL516:
 3966              		.loc 1 784 0
 3967 0068 1249     		ldr	r1, .L449+8
 3968 006a 1048     		ldr	r0, .L449
 3969              	.LVL517:
ARM GAS  C:\Users\jo\AppData\Local\Temp\ccpKXchH.s 			page 71


 3970 006c FFF7FEFF 		bl	chprintf.constprop.1
 3971              	.LVL518:
 3972              		.loc 1 785 0
 3973 0070 7342     		negs	r3, r6
 3974 0072 0F2B     		cmp	r3, #15
 3975 0074 96BF     		itet	ls
 3976 0076 104A     		ldrls	r2, .L449+12
 3977 0078 0523     		movhi	r3, #5
 3978 007a 52F82330 		ldrls	r3, [r2, r3, lsl #2]
 3979 007e 2B61     		str	r3, [r5, #16]
 3980              		.loc 1 786 0
 3981 0080 26B1     		cbz	r6, .L448
 3982              	.L442:
 3983              		.loc 1 766 0
 3984 0082 4FF0FF30 		mov	r0, #-1
 3985              		.loc 1 787 0
 3986 0086 04B0     		add	sp, sp, #16
 3987              		.cfi_remember_state
 3988              		.cfi_def_cfa_offset 24
 3989              		@ sp needed
 3990 0088 BDE8F081 		pop	{r4, r5, r6, r7, r8, pc}
 3991              	.LVL519:
 3992              	.L448:
 3993              		.cfi_restore_state
 3994              		.loc 1 786 0 discriminator 1
 3995 008c 0398     		ldr	r0, [sp, #12]
 3996              		.loc 1 787 0 discriminator 1
 3997 008e 04B0     		add	sp, sp, #16
 3998              		.cfi_remember_state
 3999              		.cfi_def_cfa_offset 24
 4000              		@ sp needed
 4001 0090 BDE8F081 		pop	{r4, r5, r6, r7, r8, pc}
 4002              	.LVL520:
 4003              	.L447:
 4004              		.cfi_restore_state
 4005              		.loc 1 771 0
 4006 0094 0025     		movs	r5, #0
 4007              	.LVL521:
 4008 0096 2046     		mov	r0, r4
 4009 0098 4146     		mov	r1, r8
 4010 009a 3A46     		mov	r2, r7
 4011 009c 3346     		mov	r3, r6
 4012 009e 0095     		str	r5, [sp]
 4013 00a0 0195     		str	r5, [sp, #4]
 4014 00a2 FFF7FEFF 		bl	lwip_sendto
 4015              	.LVL522:
 4016              		.loc 1 787 0
 4017 00a6 04B0     		add	sp, sp, #16
 4018              		.cfi_def_cfa_offset 24
 4019              		@ sp needed
 4020 00a8 BDE8F081 		pop	{r4, r5, r6, r7, r8, pc}
 4021              	.LVL523:
 4022              	.L450:
 4023              		.align	2
 4024              	.L449:
 4025 00ac 00000000 		.word	itm_port
 4026 00b0 18090000 		.word	.LC66
ARM GAS  C:\Users\jo\AppData\Local\Temp\ccpKXchH.s 			page 72


 4027 00b4 48090000 		.word	.LC67
 4028 00b8 00000000 		.word	.LANCHOR1
 4029              		.cfi_endproc
 4030              	.LFE269:
 4031              		.size	lwip_send, .-lwip_send
 4032 00bc AFF30080 		.section	.text.lwip_socket,"ax",%progbits
 4033              		.align	2
 4034              		.p2align 4,,15
 4035              		.global	lwip_socket
 4036              		.thumb
 4037              		.thumb_func
 4038              		.type	lwip_socket, %function
 4039              	lwip_socket:
 4040              	.LFB271:
 4041              		.loc 1 949 0
 4042              		.cfi_startproc
 4043              		@ args = 0, pretend = 0, frame = 0
 4044              		@ frame_needed = 0, uses_anonymous_args = 0
 4045              	.LVL524:
 4046 0000 F0B5     		push	{r4, r5, r6, r7, lr}
 4047              		.cfi_def_cfa_offset 20
 4048              		.cfi_offset 4, -20
 4049              		.cfi_offset 5, -16
 4050              		.cfi_offset 6, -12
 4051              		.cfi_offset 7, -8
 4052              		.cfi_offset 14, -4
 4053              		.loc 1 956 0
 4054 0002 0229     		cmp	r1, #2
 4055              		.loc 1 949 0
 4056 0004 83B0     		sub	sp, sp, #12
 4057              		.cfi_def_cfa_offset 32
 4058              		.loc 1 949 0
 4059 0006 0646     		mov	r6, r0
 4060 0008 1446     		mov	r4, r2
 4061              		.loc 1 956 0
 4062 000a 4CD0     		beq	.L453
 4063 000c 0329     		cmp	r1, #3
 4064 000e 31D0     		beq	.L454
 4065 0010 0129     		cmp	r1, #1
 4066 0012 0AD0     		beq	.L476
 4067              		.loc 1 978 0 discriminator 1
 4068 0014 0092     		str	r2, [sp]
 4069 0016 0B46     		mov	r3, r1
 4070 0018 0246     		mov	r2, r0
 4071              	.LVL525:
 4072 001a 3049     		ldr	r1, .L478
 4073              	.LVL526:
 4074 001c 3048     		ldr	r0, .L478+4
 4075              	.LVL527:
 4076 001e FFF7FEFF 		bl	chprintf.constprop.1
 4077              	.LVL528:
 4078              		.loc 1 981 0 discriminator 1
 4079 0022 4FF0FF30 		mov	r0, #-1
 4080              	.LVL529:
 4081              	.L462:
 4082              		.loc 1 1001 0
 4083 0026 03B0     		add	sp, sp, #12
ARM GAS  C:\Users\jo\AppData\Local\Temp\ccpKXchH.s 			page 73


 4084              		.cfi_remember_state
 4085              		.cfi_def_cfa_offset 20
 4086              		@ sp needed
 4087 0028 F0BD     		pop	{r4, r5, r6, r7, pc}
 4088              	.LVL530:
 4089              	.L476:
 4090              		.cfi_restore_state
 4091              		.loc 1 969 0
 4092 002a 0021     		movs	r1, #0
 4093              	.LVL531:
 4094 002c 2D4A     		ldr	r2, .L478+8
 4095              	.LVL532:
 4096              		.loc 1 970 0
 4097 002e 2E4F     		ldr	r7, .L478+12
 4098              		.loc 1 969 0
 4099 0030 1020     		movs	r0, #16
 4100              	.LVL533:
 4101 0032 FFF7FEFF 		bl	netconn_new_with_proto_and_callback
 4102              	.LVL534:
 4103              		.loc 1 970 0
 4104 0036 2D4A     		ldr	r2, .L478+16
 4105 0038 2D49     		ldr	r1, .L478+20
 4106              		.loc 1 969 0
 4107 003a 0546     		mov	r5, r0
 4108              	.LVL535:
 4109              		.loc 1 970 0
 4110 003c 2346     		mov	r3, r4
 4111 003e 2848     		ldr	r0, .L478+4
 4112              	.LVL536:
 4113 0040 022E     		cmp	r6, #2
 4114 0042 08BF     		it	eq
 4115 0044 3A46     		moveq	r2, r7
 4116 0046 FFF7FEFF 		bl	chprintf.constprop.1
 4117              	.LVL537:
 4118              		.loc 1 972 0
 4119 004a 2DB3     		cbz	r5, .L464
 4120              		.loc 1 974 0 discriminator 1
 4121 004c 2B7F     		ldrb	r3, [r5, #28]	@ zero_extendqisi2
 4122 004e 43F00803 		orr	r3, r3, #8
 4123 0052 2B77     		strb	r3, [r5, #28]
 4124              	.L463:
 4125              		.loc 1 990 0
 4126 0054 2846     		mov	r0, r5
 4127 0056 0021     		movs	r1, #0
 4128 0058 FFF7FEFF 		bl	alloc_socket
 4129              	.LVL538:
 4130              		.loc 1 992 0
 4131 005c 431C     		adds	r3, r0, #1
 4132              		.loc 1 990 0
 4133 005e 0446     		mov	r4, r0
 4134              	.LVL539:
 4135              		.loc 1 992 0
 4136 0060 37D0     		beq	.L477
 4137              		.loc 1 997 0
 4138 0062 A861     		str	r0, [r5, #24]
 4139              		.loc 1 998 0
 4140 0064 2349     		ldr	r1, .L478+24
ARM GAS  C:\Users\jo\AppData\Local\Temp\ccpKXchH.s 			page 74


 4141 0066 1E48     		ldr	r0, .L478+4
 4142              	.LVL540:
 4143 0068 2246     		mov	r2, r4
 4144 006a FFF7FEFF 		bl	chprintf.constprop.1
 4145              	.LVL541:
 4146              		.loc 1 1000 0
 4147 006e 2046     		mov	r0, r4
 4148              		.loc 1 1001 0
 4149 0070 03B0     		add	sp, sp, #12
 4150              		.cfi_remember_state
 4151              		.cfi_def_cfa_offset 20
 4152              		@ sp needed
 4153 0072 F0BD     		pop	{r4, r5, r6, r7, pc}
 4154              	.LVL542:
 4155              	.L454:
 4156              		.cfi_restore_state
 4157              		.loc 1 958 0
 4158 0074 D1B2     		uxtb	r1, r2
 4159              	.LVL543:
 4160 0076 4020     		movs	r0, #64
 4161              	.LVL544:
 4162 0078 1A4A     		ldr	r2, .L478+8
 4163              	.LVL545:
 4164              		.loc 1 959 0
 4165 007a 1B4F     		ldr	r7, .L478+12
 4166              		.loc 1 958 0
 4167 007c FFF7FEFF 		bl	netconn_new_with_proto_and_callback
 4168              	.LVL546:
 4169              		.loc 1 959 0
 4170 0080 1A4A     		ldr	r2, .L478+16
 4171 0082 1D49     		ldr	r1, .L478+28
 4172              		.loc 1 958 0
 4173 0084 0546     		mov	r5, r0
 4174              	.LVL547:
 4175              		.loc 1 959 0
 4176 0086 2346     		mov	r3, r4
 4177 0088 1548     		ldr	r0, .L478+4
 4178              	.LVL548:
 4179 008a 022E     		cmp	r6, #2
 4180 008c 08BF     		it	eq
 4181 008e 3A46     		moveq	r2, r7
 4182 0090 FFF7FEFF 		bl	chprintf.constprop.1
 4183              	.LVL549:
 4184              		.loc 1 984 0
 4185 0094 002D     		cmp	r5, #0
 4186 0096 DDD1     		bne	.L463
 4187              	.L464:
 4188              	.LVL550:
 4189              		.loc 1 985 0
 4190 0098 1148     		ldr	r0, .L478+4
 4191 009a 1849     		ldr	r1, .L478+32
 4192 009c FFF7FEFF 		bl	chprintf.constprop.1
 4193              	.LVL551:
 4194              		.loc 1 987 0
 4195 00a0 4FF0FF30 		mov	r0, #-1
 4196 00a4 BFE7     		b	.L462
 4197              	.LVL552:
ARM GAS  C:\Users\jo\AppData\Local\Temp\ccpKXchH.s 			page 75


 4198              	.L453:
 4199              		.loc 1 963 0
 4200 00a6 882A     		cmp	r2, #136
 4201 00a8 0CBF     		ite	eq
 4202 00aa 2120     		moveq	r0, #33
 4203              	.LVL553:
 4204 00ac 2020     		movne	r0, #32
 4205 00ae 0021     		movs	r1, #0
 4206              	.LVL554:
 4207 00b0 0C4A     		ldr	r2, .L478+8
 4208              	.LVL555:
 4209              		.loc 1 965 0
 4210 00b2 0D4F     		ldr	r7, .L478+12
 4211              		.loc 1 963 0
 4212 00b4 FFF7FEFF 		bl	netconn_new_with_proto_and_callback
 4213              	.LVL556:
 4214              		.loc 1 965 0
 4215 00b8 0C4A     		ldr	r2, .L478+16
 4216 00ba 1149     		ldr	r1, .L478+36
 4217              		.loc 1 963 0
 4218 00bc 0546     		mov	r5, r0
 4219              	.LVL557:
 4220              		.loc 1 965 0
 4221 00be 2346     		mov	r3, r4
 4222 00c0 0748     		ldr	r0, .L478+4
 4223              	.LVL558:
 4224 00c2 022E     		cmp	r6, #2
 4225 00c4 08BF     		it	eq
 4226 00c6 3A46     		moveq	r2, r7
 4227 00c8 FFF7FEFF 		bl	chprintf.constprop.1
 4228              	.LVL559:
 4229              		.loc 1 984 0
 4230 00cc 002D     		cmp	r5, #0
 4231 00ce C1D1     		bne	.L463
 4232 00d0 E2E7     		b	.L464
 4233              	.LVL560:
 4234              	.L477:
 4235              		.loc 1 993 0
 4236 00d2 2846     		mov	r0, r5
 4237              	.LVL561:
 4238 00d4 FFF7FEFF 		bl	netconn_delete
 4239              	.LVL562:
 4240              		.loc 1 995 0
 4241 00d8 2046     		mov	r0, r4
 4242 00da A4E7     		b	.L462
 4243              	.L479:
 4244              		.align	2
 4245              	.L478:
 4246 00dc 140A0000 		.word	.LC74
 4247 00e0 00000000 		.word	itm_port
 4248 00e4 00000000 		.word	event_callback
 4249 00e8 6C090000 		.word	.LC68
 4250 00ec 74090000 		.word	.LC69
 4251 00f0 C4090000 		.word	.LC72
 4252 00f4 3C0A0000 		.word	.LC75
 4253 00f8 7C090000 		.word	.LC70
 4254 00fc E8090000 		.word	.LC73
ARM GAS  C:\Users\jo\AppData\Local\Temp\ccpKXchH.s 			page 76


 4255 0100 A0090000 		.word	.LC71
 4256              		.cfi_endproc
 4257              	.LFE271:
 4258              		.size	lwip_socket, .-lwip_socket
 4259 0104 AFF30080 		.section	.text.lwip_write,"ax",%progbits
 4259      AFF30080 
 4259      AFF30080 
 4260              		.align	2
 4261              		.p2align 4,,15
 4262              		.global	lwip_write
 4263              		.thumb
 4264              		.thumb_func
 4265              		.type	lwip_write, %function
 4266              	lwip_write:
 4267              	.LFB272:
 4268              		.loc 1 1005 0
 4269              		.cfi_startproc
 4270              		@ args = 0, pretend = 0, frame = 0
 4271              		@ frame_needed = 0, uses_anonymous_args = 0
 4272              		@ link register save eliminated.
 4273              	.LVL563:
 4274              		.loc 1 1006 0
 4275 0000 0023     		movs	r3, #0
 4276 0002 FFF7FEBF 		b	lwip_send
 4277              	.LVL564:
 4278              		.cfi_endproc
 4279              	.LFE272:
 4280              		.size	lwip_write, .-lwip_write
 4281 0006 00BFAFF3 		.section	.text.lwip_select,"ax",%progbits
 4281      0080AFF3 
 4281      0080
 4282              		.align	2
 4283              		.p2align 4,,15
 4284              		.global	lwip_select
 4285              		.thumb
 4286              		.thumb_func
 4287              		.type	lwip_select, %function
 4288              	lwip_select:
 4289              	.LFB274:
 4290              		.loc 1 1090 0
 4291              		.cfi_startproc
 4292              		@ args = 4, pretend = 0, frame = 72
 4293              		@ frame_needed = 0, uses_anonymous_args = 0
 4294              	.LVL565:
 4295 0000 2DE9F04F 		push	{r4, r5, r6, r7, r8, r9, r10, fp, lr}
 4296              		.cfi_def_cfa_offset 36
 4297              		.cfi_offset 4, -36
 4298              		.cfi_offset 5, -32
 4299              		.cfi_offset 6, -28
 4300              		.cfi_offset 7, -24
 4301              		.cfi_offset 8, -20
 4302              		.cfi_offset 9, -16
 4303              		.cfi_offset 10, -12
 4304              		.cfi_offset 11, -8
 4305              		.cfi_offset 14, -4
 4306 0004 97B0     		sub	sp, sp, #92
 4307              		.cfi_def_cfa_offset 128
ARM GAS  C:\Users\jo\AppData\Local\Temp\ccpKXchH.s 			page 77


 4308              		.loc 1 1090 0
 4309 0006 0746     		mov	r7, r0
 4310 0008 DDF880B0 		ldr	fp, [sp, #128]
 4311 000c 0D46     		mov	r5, r1
 4312 000e 1646     		mov	r6, r2
 4313 0010 9846     		mov	r8, r3
 4314              		.loc 1 1100 0
 4315 0012 BBF1000F 		cmp	fp, #0
 4316 0016 00F03581 		beq	.L482
 4317              		.loc 1 1100 0 is_stmt 0 discriminator 2
 4318 001a 9BE80C00 		ldmia	fp, {r2, r3}
 4319              	.LVL566:
 4320              		.loc 1 1107 0 is_stmt 1 discriminator 2
 4321 001e 0DF12C0E 		add	lr, sp, #44
 4322              		.loc 1 1100 0 discriminator 2
 4323 0022 0292     		str	r2, [sp, #8]
 4324 0024 0393     		str	r3, [sp, #12]
 4325 0026 AC49     		ldr	r1, .L587
 4326              	.LVL567:
 4327 0028 AC48     		ldr	r0, .L587+4
 4328              	.LVL568:
 4329              		.loc 1 1107 0 discriminator 2
 4330 002a CDF818E0 		str	lr, [sp, #24]
 4331              		.loc 1 1100 0 discriminator 2
 4332 002e 3A46     		mov	r2, r7
 4333 0030 2B46     		mov	r3, r5
 4334              		.loc 1 1107 0 discriminator 2
 4335 0032 09AC     		add	r4, sp, #36
 4336              		.loc 1 1100 0 discriminator 2
 4337 0034 8DE84001 		stmia	sp, {r6, r8}
 4338              		.loc 1 1107 0 discriminator 2
 4339 0038 0594     		str	r4, [sp, #20]
 4340              		.loc 1 1100 0 discriminator 2
 4341 003a FFF7FEFF 		bl	chprintf.constprop.1
 4342              	.LVL569:
 4343              		.loc 1 1107 0 discriminator 2
 4344 003e 059C     		ldr	r4, [sp, #20]
 4345 0040 0094     		str	r4, [sp]
 4346 0042 0DF1340A 		add	r10, sp, #52
 4347 0046 069C     		ldr	r4, [sp, #24]
 4348 0048 0194     		str	r4, [sp, #4]
 4349 004a CDF808A0 		str	r10, [sp, #8]
 4350 004e 3846     		mov	r0, r7
 4351 0050 2946     		mov	r1, r5
 4352 0052 3246     		mov	r2, r6
 4353 0054 4346     		mov	r3, r8
 4354 0056 FFF7FEFF 		bl	lwip_selscan
 4355              	.LVL570:
 4356              		.loc 1 1110 0 discriminator 2
 4357 005a 8146     		mov	r9, r0
 4358 005c 0028     		cmp	r0, #0
 4359 005e 40F0B280 		bne	.L483
 4360              		.loc 1 1111 0 discriminator 1
 4361 0062 DBF80030 		ldr	r3, [fp]
 4362 0066 002B     		cmp	r3, #0
 4363 0068 00F0CA80 		beq	.L578
 4364              	.L484:
ARM GAS  C:\Users\jo\AppData\Local\Temp\ccpKXchH.s 			page 78


 4365              		.loc 1 1123 0
 4366 006c 0023     		movs	r3, #0
 4367              		.loc 1 1129 0
 4368 006e 1946     		mov	r1, r3
 4369 0070 15A8     		add	r0, sp, #84
 4370              	.LVL571:
 4371              		.loc 1 1125 0
 4372 0072 1195     		str	r5, [sp, #68]
 4373              		.loc 1 1126 0
 4374 0074 1296     		str	r6, [sp, #72]
 4375              		.loc 1 1127 0
 4376 0076 CDF84C80 		str	r8, [sp, #76]
 4377              		.loc 1 1123 0
 4378 007a 0F93     		str	r3, [sp, #60]
 4379              		.loc 1 1124 0
 4380 007c 1093     		str	r3, [sp, #64]
 4381              		.loc 1 1128 0
 4382 007e 1493     		str	r3, [sp, #80]
 4383              		.loc 1 1129 0
 4384 0080 FFF7FEFF 		bl	sys_sem_new
 4385              	.LVL572:
 4386              		.loc 1 1130 0
 4387 0084 0028     		cmp	r0, #0
 4388 0086 40F07A81 		bne	.L522
 4389              		.loc 1 1140 0
 4390 008a 954B     		ldr	r3, .L587+8
 4391 008c 1B68     		ldr	r3, [r3]
 4392 008e 0F93     		str	r3, [sp, #60]
 4393              		.loc 1 1141 0
 4394 0090 0BB1     		cbz	r3, .L487
 4395              		.loc 1 1142 0
 4396 0092 0FAA     		add	r2, sp, #60
 4397 0094 5A60     		str	r2, [r3, #4]
 4398              	.L487:
 4399              		.loc 1 1144 0
 4400 0096 924B     		ldr	r3, .L587+8
 4401 0098 0FAA     		add	r2, sp, #60
 4402 009a 1A60     		str	r2, [r3]
 4403              		.loc 1 1146 0
 4404 009c 914B     		ldr	r3, .L587+12
 4405 009e 914A     		ldr	r2, .L587+12
 4406 00a0 1B68     		ldr	r3, [r3]
 4407              		.loc 1 1152 0
 4408 00a2 002F     		cmp	r7, #0
 4409              		.loc 1 1146 0
 4410 00a4 03F10103 		add	r3, r3, #1
 4411 00a8 1360     		str	r3, [r2]
 4412              	.LVL573:
 4413              		.loc 1 1152 0
 4414 00aa 40F33E81 		ble	.L488
 4415 00ae DFF85492 		ldr	r9, .L587+44
 4416              	.LVL574:
 4417 00b2 0024     		movs	r4, #0
 4418              	.LVL575:
 4419              	.L496:
 4420              		.loc 1 1153 0
 4421 00b4 CDB1     		cbz	r5, .L489
ARM GAS  C:\Users\jo\AppData\Local\Temp\ccpKXchH.s 			page 79


 4422              		.loc 1 1153 0 is_stmt 0 discriminator 1
 4423 00b6 6309     		lsrs	r3, r4, #5
 4424 00b8 04F01F02 		and	r2, r4, #31
 4425 00bc 55F82330 		ldr	r3, [r5, r3, lsl #2]
 4426 00c0 1341     		asrs	r3, r3, r2
 4427 00c2 DA07     		lsls	r2, r3, #31
 4428 00c4 11D5     		bpl	.L489
 4429              	.L490:
 4430              	.LVL576:
 4431              	.LBB155:
 4432              	.LBB156:
 4433              	.LBB157:
 4434              		.loc 1 225 0 is_stmt 1
 4435 00c6 012C     		cmp	r4, #1
 4436 00c8 40F27681 		bls	.L579
 4437              	.L495:
 4438              	.LBE157:
 4439              	.LBE156:
 4440              		.loc 1 1157 0
 4441 00cc 864B     		ldr	r3, .L587+16
 4442 00ce 8348     		ldr	r0, .L587+4
 4443 00d0 8649     		ldr	r1, .L587+20
 4444 00d2 874A     		ldr	r2, .L587+24
 4445 00d4 0093     		str	r3, [sp]
 4446 00d6 40F28543 		movw	r3, #1157
 4447              	.LVL577:
 4448              	.L574:
 4449              	.LBE155:
 4450              	.LBB162:
 4451              		.loc 1 1189 0
 4452 00da FFF7FEFF 		bl	chprintf.constprop.1
 4453              	.LVL578:
 4454              	.LBB163:
 4455              	.LBB164:
 4456              		.loc 3 414 0
 4457 00de 8448     		ldr	r0, .L587+24
 4458 00e0 FFF7FEFF 		bl	chSysHalt
 4459              	.LVL579:
 4460              	.LBE164:
 4461              	.LBE163:
 4462              		.loc 1 1191 0
 4463 00e4 0023     		movs	r3, #0
 4464 00e6 5B69     		ldr	r3, [r3, #20]
 4465 00e8 FFDE     		.inst	0xdeff
 4466              	.LVL580:
 4467              	.L489:
 4468              	.LBE162:
 4469              		.loc 1 1153 0 discriminator 3
 4470 00ea 3EB1     		cbz	r6, .L491
 4471              		.loc 1 1154 0
 4472 00ec 6309     		lsrs	r3, r4, #5
 4473 00ee 04F01F02 		and	r2, r4, #31
 4474 00f2 56F82330 		ldr	r3, [r6, r3, lsl #2]
 4475 00f6 1341     		asrs	r3, r3, r2
 4476 00f8 DB07     		lsls	r3, r3, #31
 4477 00fa E4D4     		bmi	.L490
 4478              	.L491:
ARM GAS  C:\Users\jo\AppData\Local\Temp\ccpKXchH.s 			page 80


 4479              		.loc 1 1154 0 is_stmt 0 discriminator 1
 4480 00fc B8F1000F 		cmp	r8, #0
 4481 0100 07D0     		beq	.L493
 4482              		.loc 1 1155 0 is_stmt 1
 4483 0102 6309     		lsrs	r3, r4, #5
 4484 0104 04F01F02 		and	r2, r4, #31
 4485 0108 58F82330 		ldr	r3, [r8, r3, lsl #2]
 4486 010c 1341     		asrs	r3, r3, r2
 4487 010e D807     		lsls	r0, r3, #31
 4488 0110 D9D4     		bmi	.L490
 4489              	.L493:
 4490              		.loc 1 1152 0 discriminator 2
 4491 0112 0134     		adds	r4, r4, #1
 4492              	.LVL581:
 4493 0114 BC42     		cmp	r4, r7
 4494 0116 09F11809 		add	r9, r9, #24
 4495 011a CBD1     		bne	.L496
 4496              		.loc 1 1167 0
 4497 011c 059B     		ldr	r3, [sp, #20]
 4498 011e 0093     		str	r3, [sp]
 4499 0120 069B     		ldr	r3, [sp, #24]
 4500 0122 0193     		str	r3, [sp, #4]
 4501 0124 CDF808A0 		str	r10, [sp, #8]
 4502 0128 3846     		mov	r0, r7
 4503 012a 2946     		mov	r1, r5
 4504 012c 3246     		mov	r2, r6
 4505 012e 4346     		mov	r3, r8
 4506 0130 FFF7FEFF 		bl	lwip_selscan
 4507              	.LVL582:
 4508              		.loc 1 1168 0
 4509 0134 8146     		mov	r9, r0
 4510 0136 0028     		cmp	r0, #0
 4511 0138 6CD1     		bne	.L580
 4512              		.loc 1 1170 0
 4513 013a BBF1000F 		cmp	fp, #0
 4514 013e 00F05581 		beq	.L581
 4515              	.LVL583:
 4516              	.L520:
 4517              		.loc 1 1174 0
 4518 0142 DBF80430 		ldr	r3, [fp, #4]
 4519 0146 6B49     		ldr	r1, .L587+28
 4520 0148 DBF80020 		ldr	r2, [fp]
 4521 014c 03F5FA73 		add	r3, r3, #500
 4522 0150 81FB0301 		smull	r0, r1, r1, r3
 4523              	.LVL584:
 4524 0154 DB17     		asrs	r3, r3, #31
 4525 0156 C3EBA113 		rsb	r3, r3, r1, asr #6
 4526 015a 4FF47A71 		mov	r1, #1000
 4527 015e 01FB0231 		mla	r1, r1, r2, r3
 4528              	.LVL585:
 4529              		.loc 1 1177 0
 4530 0162 0029     		cmp	r1, #0
 4531              	.LVL586:
 4532              		.loc 1 1181 0
 4533 0164 08BF     		it	eq
 4534 0166 0121     		moveq	r1, #1
 4535              	.LVL587:
ARM GAS  C:\Users\jo\AppData\Local\Temp\ccpKXchH.s 			page 81


 4536 0168 15A8     		add	r0, sp, #84
 4537 016a FFF7FEFF 		bl	sys_arch_sem_wait
 4538              	.LVL588:
 4539              		.loc 1 1184 0
 4540 016e 002F     		cmp	r7, #0
 4541              		.loc 1 1181 0
 4542 0170 0790     		str	r0, [sp, #28]
 4543              	.LVL589:
 4544              		.loc 1 1184 0
 4545 0172 4FF00009 		mov	r9, #0
 4546              	.LVL590:
 4547 0176 4FDC     		bgt	.L518
 4548              	.LVL591:
 4549              	.L499:
 4550              		.loc 1 1198 0
 4551 0178 0F9B     		ldr	r3, [sp, #60]
 4552 017a 0BB1     		cbz	r3, .L508
 4553              		.loc 1 1199 0
 4554 017c 109A     		ldr	r2, [sp, #64]
 4555 017e 5A60     		str	r2, [r3, #4]
 4556              	.L508:
 4557              		.loc 1 1201 0
 4558 0180 574A     		ldr	r2, .L587+8
 4559 0182 1268     		ldr	r2, [r2]
 4560 0184 0FA9     		add	r1, sp, #60
 4561 0186 8A42     		cmp	r2, r1
 4562              		.loc 1 1202 0
 4563 0188 109A     		ldr	r2, [sp, #64]
 4564              		.loc 1 1201 0
 4565 018a 00F0BD80 		beq	.L582
 4566              		.loc 1 1205 0
 4567 018e 002A     		cmp	r2, #0
 4568 0190 00F0E680 		beq	.L583
 4569              	.L512:
 4570              		.loc 1 1206 0
 4571 0194 1360     		str	r3, [r2]
 4572              	.L511:
 4573              		.loc 1 1209 0
 4574 0196 534B     		ldr	r3, .L587+12
 4575 0198 524A     		ldr	r2, .L587+12
 4576 019a 1B68     		ldr	r3, [r3]
 4577              		.loc 1 1212 0
 4578 019c 15A8     		add	r0, sp, #84
 4579              		.loc 1 1209 0
 4580 019e 0133     		adds	r3, r3, #1
 4581 01a0 1360     		str	r3, [r2]
 4582              		.loc 1 1212 0
 4583 01a2 FFF7FEFF 		bl	sys_sem_free
 4584              	.LVL592:
 4585              		.loc 1 1213 0
 4586 01a6 079B     		ldr	r3, [sp, #28]
 4587 01a8 0133     		adds	r3, r3, #1
 4588 01aa 66D0     		beq	.L584
 4589              		.loc 1 1222 0
 4590 01ac 059B     		ldr	r3, [sp, #20]
 4591 01ae 0093     		str	r3, [sp]
 4592 01b0 069B     		ldr	r3, [sp, #24]
ARM GAS  C:\Users\jo\AppData\Local\Temp\ccpKXchH.s 			page 82


 4593 01b2 0193     		str	r3, [sp, #4]
 4594 01b4 CDF808A0 		str	r10, [sp, #8]
 4595 01b8 3846     		mov	r0, r7
 4596 01ba 2946     		mov	r1, r5
 4597 01bc 3246     		mov	r2, r6
 4598 01be 4346     		mov	r3, r8
 4599 01c0 FFF7FEFF 		bl	lwip_selscan
 4600              	.LVL593:
 4601 01c4 8146     		mov	r9, r0
 4602              	.LVL594:
 4603              	.L483:
 4604              		.loc 1 1225 0 discriminator 1
 4605 01c6 4548     		ldr	r0, .L587+4
 4606              	.LVL595:
 4607 01c8 4B49     		ldr	r1, .L587+32
 4608 01ca 4A46     		mov	r2, r9
 4609 01cc FFF7FEFF 		bl	chprintf.constprop.1
 4610              	.LVL596:
 4611              	.L485:
 4612              		.loc 1 1228 0
 4613 01d0 25B1     		cbz	r5, .L514
 4614              		.loc 1 1229 0
 4615 01d2 059B     		ldr	r3, [sp, #20]
 4616 01d4 93E80300 		ldmia	r3, {r0, r1}
 4617 01d8 85E80300 		stmia	r5, {r0, r1}
 4618              	.L514:
 4619              		.loc 1 1231 0
 4620 01dc 26B1     		cbz	r6, .L515
 4621              		.loc 1 1232 0
 4622 01de 069B     		ldr	r3, [sp, #24]
 4623 01e0 93E80300 		ldmia	r3, {r0, r1}
 4624 01e4 86E80300 		stmia	r6, {r0, r1}
 4625              	.L515:
 4626              		.loc 1 1234 0
 4627 01e8 B8F1000F 		cmp	r8, #0
 4628 01ec 6FD0     		beq	.L526
 4629              		.loc 1 1235 0
 4630 01ee 9AE80300 		ldmia	r10, {r0, r1}
 4631 01f2 88E80300 		stmia	r8, {r0, r1}
 4632              		.loc 1 1239 0
 4633 01f6 CC46     		mov	ip, r9
 4634              	.L572:
 4635              		.loc 1 1240 0
 4636 01f8 6046     		mov	r0, ip
 4637 01fa 17B0     		add	sp, sp, #92
 4638              		.cfi_remember_state
 4639              		.cfi_def_cfa_offset 36
 4640              		@ sp needed
 4641 01fc BDE8F08F 		pop	{r4, r5, r6, r7, r8, r9, r10, fp, pc}
 4642              	.LVL597:
 4643              	.L578:
 4644              		.cfi_restore_state
 4645              		.loc 1 1111 0 discriminator 2
 4646 0200 DBF80430 		ldr	r3, [fp, #4]
 4647 0204 002B     		cmp	r3, #0
 4648 0206 7FF431AF 		bne	.L484
 4649              		.loc 1 1112 0 discriminator 1
ARM GAS  C:\Users\jo\AppData\Local\Temp\ccpKXchH.s 			page 83


 4650 020a 3C49     		ldr	r1, .L587+36
 4651 020c 3348     		ldr	r0, .L587+4
 4652              	.LVL598:
 4653 020e FFF7FEFF 		bl	chprintf.constprop.1
 4654              	.LVL599:
 4655              		.loc 1 1115 0 discriminator 1
 4656 0212 DDE7     		b	.L485
 4657              	.LVL600:
 4658              	.L580:
 4659              		.loc 1 1091 0
 4660 0214 0023     		movs	r3, #0
 4661 0216 0793     		str	r3, [sp, #28]
 4662              	.LVL601:
 4663              	.L518:
 4664 0218 DFF8E8B0 		ldr	fp, .L587+44
 4665 021c 0024     		movs	r4, #0
 4666              	.LVL602:
 4667              	.L507:
 4668              		.loc 1 1185 0
 4669 021e 95B1     		cbz	r5, .L500
 4670              		.loc 1 1185 0 is_stmt 0 discriminator 1
 4671 0220 6309     		lsrs	r3, r4, #5
 4672 0222 04F01F02 		and	r2, r4, #31
 4673 0226 55F82330 		ldr	r3, [r5, r3, lsl #2]
 4674 022a 1341     		asrs	r3, r3, r2
 4675 022c D907     		lsls	r1, r3, #31
 4676 022e 0AD5     		bpl	.L500
 4677              	.L501:
 4678              	.LVL603:
 4679              	.LBB171:
 4680              	.LBB165:
 4681              	.LBB166:
 4682              		.loc 1 225 0 is_stmt 1
 4683 0230 012C     		cmp	r4, #1
 4684 0232 40F2A780 		bls	.L585
 4685              	.L506:
 4686              	.LBE166:
 4687              	.LBE165:
 4688              		.loc 1 1189 0
 4689 0236 2C4B     		ldr	r3, .L587+16
 4690 0238 0093     		str	r3, [sp]
 4691 023a 2848     		ldr	r0, .L587+4
 4692 023c 2B49     		ldr	r1, .L587+20
 4693 023e 2C4A     		ldr	r2, .L587+24
 4694 0240 40F2A543 		movw	r3, #1189
 4695 0244 49E7     		b	.L574
 4696              	.LVL604:
 4697              	.L500:
 4698              	.LBE171:
 4699              		.loc 1 1185 0 discriminator 3
 4700 0246 3EB1     		cbz	r6, .L502
 4701              		.loc 1 1186 0
 4702 0248 6309     		lsrs	r3, r4, #5
 4703 024a 04F01F02 		and	r2, r4, #31
 4704 024e 56F82330 		ldr	r3, [r6, r3, lsl #2]
 4705 0252 1341     		asrs	r3, r3, r2
 4706 0254 DA07     		lsls	r2, r3, #31
ARM GAS  C:\Users\jo\AppData\Local\Temp\ccpKXchH.s 			page 84


 4707 0256 EBD4     		bmi	.L501
 4708              	.L502:
 4709              		.loc 1 1186 0 is_stmt 0 discriminator 1
 4710 0258 B8F1000F 		cmp	r8, #0
 4711 025c 07D0     		beq	.L504
 4712              		.loc 1 1187 0 is_stmt 1
 4713 025e 6309     		lsrs	r3, r4, #5
 4714 0260 04F01F02 		and	r2, r4, #31
 4715 0264 58F82330 		ldr	r3, [r8, r3, lsl #2]
 4716 0268 1341     		asrs	r3, r3, r2
 4717 026a DB07     		lsls	r3, r3, #31
 4718 026c E0D4     		bmi	.L501
 4719              	.L504:
 4720              		.loc 1 1184 0 discriminator 2
 4721 026e 0134     		adds	r4, r4, #1
 4722              	.LVL605:
 4723 0270 A742     		cmp	r7, r4
 4724 0272 0BF1180B 		add	fp, fp, #24
 4725 0276 D2DC     		bgt	.L507
 4726 0278 7EE7     		b	.L499
 4727              	.LVL606:
 4728              	.L584:
 4729              		.loc 1 1215 0 discriminator 1
 4730 027a 2149     		ldr	r1, .L587+40
 4731 027c 1748     		ldr	r0, .L587+4
 4732 027e FFF7FEFF 		bl	chprintf.constprop.1
 4733              	.LVL607:
 4734              		.loc 1 1218 0 discriminator 1
 4735 0282 A5E7     		b	.L485
 4736              	.LVL608:
 4737              	.L482:
 4738              		.loc 1 1100 0
 4739 0284 4FF0FF33 		mov	r3, #-1
 4740              	.LVL609:
 4741              		.loc 1 1107 0
 4742 0288 0DF12C0E 		add	lr, sp, #44
 4743              		.loc 1 1100 0
 4744 028c 0293     		str	r3, [sp, #8]
 4745 028e 0393     		str	r3, [sp, #12]
 4746 0290 1149     		ldr	r1, .L587
 4747              	.LVL610:
 4748 0292 1248     		ldr	r0, .L587+4
 4749              	.LVL611:
 4750              		.loc 1 1107 0
 4751 0294 CDF818E0 		str	lr, [sp, #24]
 4752              		.loc 1 1100 0
 4753 0298 3A46     		mov	r2, r7
 4754              	.LVL612:
 4755 029a 2B46     		mov	r3, r5
 4756              		.loc 1 1107 0
 4757 029c 09AC     		add	r4, sp, #36
 4758              		.loc 1 1100 0
 4759 029e 8DE84001 		stmia	sp, {r6, r8}
 4760              		.loc 1 1107 0
 4761 02a2 0594     		str	r4, [sp, #20]
 4762              		.loc 1 1100 0
 4763 02a4 FFF7FEFF 		bl	chprintf.constprop.1
ARM GAS  C:\Users\jo\AppData\Local\Temp\ccpKXchH.s 			page 85


 4764              	.LVL613:
 4765              		.loc 1 1107 0
 4766 02a8 059C     		ldr	r4, [sp, #20]
 4767 02aa 0094     		str	r4, [sp]
 4768 02ac 0DF1340A 		add	r10, sp, #52
 4769 02b0 069C     		ldr	r4, [sp, #24]
 4770 02b2 0194     		str	r4, [sp, #4]
 4771 02b4 CDF808A0 		str	r10, [sp, #8]
 4772 02b8 3846     		mov	r0, r7
 4773 02ba 2946     		mov	r1, r5
 4774 02bc 3246     		mov	r2, r6
 4775 02be 4346     		mov	r3, r8
 4776 02c0 FFF7FEFF 		bl	lwip_selscan
 4777              	.LVL614:
 4778              		.loc 1 1110 0
 4779 02c4 8146     		mov	r9, r0
 4780 02c6 0028     		cmp	r0, #0
 4781 02c8 3FF4D0AE 		beq	.L484
 4782 02cc 7BE7     		b	.L483
 4783              	.LVL615:
 4784              	.L526:
 4785              		.loc 1 1239 0
 4786 02ce CC46     		mov	ip, r9
 4787              		.loc 1 1240 0
 4788 02d0 6046     		mov	r0, ip
 4789 02d2 17B0     		add	sp, sp, #92
 4790              		.cfi_remember_state
 4791              		.cfi_def_cfa_offset 36
 4792              		@ sp needed
 4793 02d4 BDE8F08F 		pop	{r4, r5, r6, r7, r8, r9, r10, fp, pc}
 4794              	.LVL616:
 4795              	.L588:
 4796              		.align	2
 4797              	.L587:
 4798 02d8 400A0000 		.word	.LC76
 4799 02dc 00000000 		.word	itm_port
 4800 02e0 00000000 		.word	.LANCHOR2
 4801 02e4 00000000 		.word	.LANCHOR3
 4802 02e8 3C000000 		.word	.LC4
 4803 02ec 08000000 		.word	.LC2
 4804 02f0 3C0B0000 		.word	.LC84
 4805 02f4 D34D6210 		.word	274877907
 4806 02f8 240B0000 		.word	.LC83
 4807 02fc 740A0000 		.word	.LC77
 4808 0300 040B0000 		.word	.LC82
 4809 0304 00000000 		.word	.LANCHOR0
 4810              	.LVL617:
 4811              	.L582:
 4812              		.cfi_restore_state
 4813              		.loc 1 1202 0
 4814 0308 62B1     		cbz	r2, .L510
 4815              		.loc 1 1202 0 is_stmt 0 discriminator 1
 4816 030a 3B4B     		ldr	r3, .L589
 4817 030c 0093     		str	r3, [sp]
 4818 030e 3B49     		ldr	r1, .L589+4
 4819 0310 3B4A     		ldr	r2, .L589+8
 4820 0312 3C48     		ldr	r0, .L589+12
ARM GAS  C:\Users\jo\AppData\Local\Temp\ccpKXchH.s 			page 86


 4821 0314 40F2B243 		movw	r3, #1202
 4822 0318 FFF7FEFF 		bl	chprintf.constprop.1
 4823              	.LVL618:
 4824              	.LBB172:
 4825              	.LBB173:
 4826              		.loc 3 414 0 is_stmt 1 discriminator 1
 4827 031c 3848     		ldr	r0, .L589+8
 4828 031e FFF7FEFF 		bl	chSysHalt
 4829              	.LVL619:
 4830 0322 0F9B     		ldr	r3, [sp, #60]
 4831              	.LVL620:
 4832              	.L510:
 4833              	.LBE173:
 4834              	.LBE172:
 4835              		.loc 1 1203 0
 4836 0324 384A     		ldr	r2, .L589+16
 4837 0326 1360     		str	r3, [r2]
 4838 0328 35E7     		b	.L511
 4839              	.LVL621:
 4840              	.L488:
 4841              		.loc 1 1167 0
 4842 032a 059B     		ldr	r3, [sp, #20]
 4843 032c 0093     		str	r3, [sp]
 4844 032e 069B     		ldr	r3, [sp, #24]
 4845 0330 0193     		str	r3, [sp, #4]
 4846 0332 CDF808A0 		str	r10, [sp, #8]
 4847 0336 3846     		mov	r0, r7
 4848              	.LVL622:
 4849 0338 2946     		mov	r1, r5
 4850 033a 3246     		mov	r2, r6
 4851 033c 4346     		mov	r3, r8
 4852 033e FFF7FEFF 		bl	lwip_selscan
 4853              	.LVL623:
 4854              		.loc 1 1168 0
 4855 0342 8146     		mov	r9, r0
 4856 0344 48B9     		cbnz	r0, .L586
 4857              		.loc 1 1170 0
 4858 0346 BBF1000F 		cmp	fp, #0
 4859 034a 7FF4FAAE 		bne	.L520
 4860              	.LVL624:
 4861              		.loc 1 1181 0
 4862 034e 15A8     		add	r0, sp, #84
 4863              	.LVL625:
 4864 0350 4946     		mov	r1, r9
 4865 0352 FFF7FEFF 		bl	sys_arch_sem_wait
 4866              	.LVL626:
 4867 0356 0790     		str	r0, [sp, #28]
 4868              	.LVL627:
 4869 0358 0EE7     		b	.L499
 4870              	.LVL628:
 4871              	.L586:
 4872              		.loc 1 1091 0
 4873 035a 0023     		movs	r3, #0
 4874 035c 0793     		str	r3, [sp, #28]
 4875 035e 0BE7     		b	.L499
 4876              	.LVL629:
 4877              	.L583:
ARM GAS  C:\Users\jo\AppData\Local\Temp\ccpKXchH.s 			page 87


 4878              		.loc 1 1205 0 discriminator 1
 4879 0360 254B     		ldr	r3, .L589
 4880 0362 2A4A     		ldr	r2, .L589+20
 4881 0364 0093     		str	r3, [sp]
 4882 0366 2549     		ldr	r1, .L589+4
 4883 0368 2648     		ldr	r0, .L589+12
 4884 036a 40F2B543 		movw	r3, #1205
 4885 036e FFF7FEFF 		bl	chprintf.constprop.1
 4886              	.LVL630:
 4887              	.LBB174:
 4888              	.LBB175:
 4889              		.loc 3 414 0 discriminator 1
 4890 0372 2648     		ldr	r0, .L589+20
 4891 0374 FFF7FEFF 		bl	chSysHalt
 4892              	.LVL631:
 4893 0378 109A     		ldr	r2, [sp, #64]
 4894 037a 0F9B     		ldr	r3, [sp, #60]
 4895 037c 0AE7     		b	.L512
 4896              	.LVL632:
 4897              	.L522:
 4898              	.LBE175:
 4899              	.LBE174:
 4900              		.loc 1 1133 0
 4901 037e 4FF0FF3C 		mov	ip, #-1
 4902 0382 39E7     		b	.L572
 4903              	.LVL633:
 4904              	.L585:
 4905              	.LBB176:
 4906              	.LBB168:
 4907              	.LBB167:
 4908              		.loc 1 228 0
 4909 0384 DBF80030 		ldr	r3, [fp]
 4910 0388 002B     		cmp	r3, #0
 4911 038a 3FF454AF 		beq	.L506
 4912              	.LBE167:
 4913              	.LBE168:
 4914              		.loc 1 1191 0
 4915 038e DBF81430 		ldr	r3, [fp, #20]
 4916 0392 013B     		subs	r3, r3, #1
 4917              		.loc 1 1192 0
 4918 0394 002B     		cmp	r3, #0
 4919              		.loc 1 1191 0
 4920 0396 CBF81430 		str	r3, [fp, #20]
 4921              		.loc 1 1192 0
 4922 039a BFF668AF 		bge	.L504
 4923              		.loc 1 1192 0 is_stmt 0 discriminator 1
 4924 039e 164B     		ldr	r3, .L589
 4925 03a0 0093     		str	r3, [sp]
 4926 03a2 1649     		ldr	r1, .L589+4
 4927 03a4 1A4A     		ldr	r2, .L589+24
 4928 03a6 1748     		ldr	r0, .L589+12
 4929 03a8 4FF49563 		mov	r3, #1192
 4930 03ac FFF7FEFF 		bl	chprintf.constprop.1
 4931              	.LVL634:
 4932              	.LBB169:
 4933              	.LBB170:
 4934              		.loc 3 414 0 is_stmt 1 discriminator 1
ARM GAS  C:\Users\jo\AppData\Local\Temp\ccpKXchH.s 			page 88


 4935 03b0 1748     		ldr	r0, .L589+24
 4936 03b2 FFF7FEFF 		bl	chSysHalt
 4937              	.LVL635:
 4938 03b6 5AE7     		b	.L504
 4939              	.LVL636:
 4940              	.L579:
 4941              	.LBE170:
 4942              	.LBE169:
 4943              	.LBE176:
 4944              	.LBB177:
 4945              	.LBB159:
 4946              	.LBB158:
 4947              		.loc 1 228 0
 4948 03b8 D9F80030 		ldr	r3, [r9]
 4949 03bc 002B     		cmp	r3, #0
 4950 03be 3FF485AE 		beq	.L495
 4951              	.LBE158:
 4952              	.LBE159:
 4953              		.loc 1 1159 0
 4954 03c2 D9F81430 		ldr	r3, [r9, #20]
 4955 03c6 0133     		adds	r3, r3, #1
 4956              		.loc 1 1160 0
 4957 03c8 002B     		cmp	r3, #0
 4958              		.loc 1 1159 0
 4959 03ca C9F81430 		str	r3, [r9, #20]
 4960              		.loc 1 1160 0
 4961 03ce 3FF7A0AE 		bgt	.L493
 4962              		.loc 1 1160 0 is_stmt 0 discriminator 1
 4963 03d2 094B     		ldr	r3, .L589
 4964 03d4 0093     		str	r3, [sp]
 4965 03d6 0949     		ldr	r1, .L589+4
 4966 03d8 0E4A     		ldr	r2, .L589+28
 4967 03da 0A48     		ldr	r0, .L589+12
 4968 03dc 4FF49163 		mov	r3, #1160
 4969 03e0 FFF7FEFF 		bl	chprintf.constprop.1
 4970              	.LVL637:
 4971              	.LBB160:
 4972              	.LBB161:
 4973              		.loc 3 414 0 is_stmt 1 discriminator 1
 4974 03e4 0B48     		ldr	r0, .L589+28
 4975 03e6 FFF7FEFF 		bl	chSysHalt
 4976              	.LVL638:
 4977 03ea 92E6     		b	.L493
 4978              	.LVL639:
 4979              	.L581:
 4980              	.LBE161:
 4981              	.LBE160:
 4982              	.LBE177:
 4983              		.loc 1 1181 0
 4984 03ec 15A8     		add	r0, sp, #84
 4985              	.LVL640:
 4986 03ee 4946     		mov	r1, r9
 4987 03f0 FFF7FEFF 		bl	sys_arch_sem_wait
 4988              	.LVL641:
 4989 03f4 0790     		str	r0, [sp, #28]
 4990              	.LVL642:
 4991 03f6 0FE7     		b	.L518
ARM GAS  C:\Users\jo\AppData\Local\Temp\ccpKXchH.s 			page 89


 4992              	.L590:
 4993              		.align	2
 4994              	.L589:
 4995 03f8 3C000000 		.word	.LC4
 4996 03fc 08000000 		.word	.LC2
 4997 0400 D40A0000 		.word	.LC80
 4998 0404 00000000 		.word	itm_port
 4999 0408 00000000 		.word	.LANCHOR2
 5000 040c EC0A0000 		.word	.LC81
 5001 0410 B80A0000 		.word	.LC79
 5002 0414 9C0A0000 		.word	.LC78
 5003              		.cfi_endproc
 5004              	.LFE274:
 5005              		.size	lwip_select, .-lwip_select
 5006 0418 AFF30080 		.section	.text.lwip_shutdown,"ax",%progbits
 5006      AFF30080 
 5007              		.align	2
 5008              		.p2align 4,,15
 5009              		.global	lwip_shutdown
 5010              		.thumb
 5011              		.thumb_func
 5012              		.type	lwip_shutdown, %function
 5013              	lwip_shutdown:
 5014              	.LFB276:
 5015              		.loc 1 1368 0
 5016              		.cfi_startproc
 5017              		@ args = 0, pretend = 0, frame = 0
 5018              		@ frame_needed = 0, uses_anonymous_args = 0
 5019              	.LVL643:
 5020 0000 38B5     		push	{r3, r4, r5, lr}
 5021              		.cfi_def_cfa_offset 16
 5022              		.cfi_offset 3, -16
 5023              		.cfi_offset 4, -12
 5024              		.cfi_offset 5, -8
 5025              		.cfi_offset 14, -4
 5026              		.loc 1 1373 0
 5027 0002 0246     		mov	r2, r0
 5028              		.loc 1 1368 0
 5029 0004 0446     		mov	r4, r0
 5030              		.loc 1 1373 0
 5031 0006 0B46     		mov	r3, r1
 5032              		.loc 1 1368 0
 5033 0008 0D46     		mov	r5, r1
 5034              		.loc 1 1373 0
 5035 000a 1B48     		ldr	r0, .L603
 5036              	.LVL644:
 5037 000c 1B49     		ldr	r1, .L603+4
 5038              	.LVL645:
 5039 000e FFF7FEFF 		bl	chprintf.constprop.1
 5040              	.LVL646:
 5041              		.loc 1 1375 0
 5042 0012 2046     		mov	r0, r4
 5043 0014 FFF7FEFF 		bl	get_socket
 5044              	.LVL647:
 5045              		.loc 1 1376 0
 5046 0018 0446     		mov	r4, r0
 5047              	.LVL648:
ARM GAS  C:\Users\jo\AppData\Local\Temp\ccpKXchH.s 			page 90


 5048 001a 48B3     		cbz	r0, .L597
 5049              		.loc 1 1380 0
 5050 001c 0068     		ldr	r0, [r0]
 5051              	.LVL649:
 5052 001e 28B1     		cbz	r0, .L593
 5053              		.loc 1 1381 0
 5054 0020 0378     		ldrb	r3, [r0]	@ zero_extendqisi2
 5055 0022 102B     		cmp	r3, #16
 5056 0024 05D0     		beq	.L594
 5057              		.loc 1 1382 0
 5058 0026 5F20     		movs	r0, #95
 5059 0028 2061     		str	r0, [r4, #16]
 5060              		.loc 1 1383 0
 5061 002a 38BD     		pop	{r3, r4, r5, pc}
 5062              	.LVL650:
 5063              	.L593:
 5064              		.loc 1 1386 0
 5065 002c 6B20     		movs	r0, #107
 5066 002e 2061     		str	r0, [r4, #16]
 5067              		.loc 1 1387 0
 5068 0030 38BD     		pop	{r3, r4, r5, pc}
 5069              	.LVL651:
 5070              	.L594:
 5071              		.loc 1 1390 0
 5072 0032 35B1     		cbz	r5, .L598
 5073              		.loc 1 1392 0
 5074 0034 012D     		cmp	r5, #1
 5075 0036 15D0     		beq	.L599
 5076              		.loc 1 1394 0
 5077 0038 022D     		cmp	r5, #2
 5078 003a 16D0     		beq	.L600
 5079              		.loc 1 1398 0
 5080 003c 1620     		movs	r0, #22
 5081 003e 2061     		str	r0, [r4, #16]
 5082              		.loc 1 1399 0
 5083 0040 38BD     		pop	{r3, r4, r5, pc}
 5084              	.LVL652:
 5085              	.L598:
 5086              		.loc 1 1371 0
 5087 0042 2A46     		mov	r2, r5
 5088              		.loc 1 1391 0
 5089 0044 0121     		movs	r1, #1
 5090              	.L595:
 5091              	.LVL653:
 5092              		.loc 1 1401 0
 5093 0046 FFF7FEFF 		bl	netconn_shutdown
 5094              	.LVL654:
 5095              		.loc 1 1403 0
 5096 004a 4342     		negs	r3, r0
 5097 004c 0F2B     		cmp	r3, #15
 5098 004e 96BF     		itet	ls
 5099 0050 0B4A     		ldrls	r2, .L603+8
 5100 0052 0523     		movhi	r3, #5
 5101 0054 52F82330 		ldrls	r3, [r2, r3, lsl #2]
 5102 0058 2361     		str	r3, [r4, #16]
 5103              		.loc 1 1404 0
 5104 005a 0030     		adds	r0, r0, #0
ARM GAS  C:\Users\jo\AppData\Local\Temp\ccpKXchH.s 			page 91


 5105              	.LVL655:
 5106 005c 18BF     		it	ne
 5107 005e 0120     		movne	r0, #1
 5108 0060 4042     		negs	r0, r0
 5109 0062 38BD     		pop	{r3, r4, r5, pc}
 5110              	.LVL656:
 5111              	.L599:
 5112              		.loc 1 1393 0
 5113 0064 2A46     		mov	r2, r5
 5114              		.loc 1 1371 0
 5115 0066 0021     		movs	r1, #0
 5116 0068 EDE7     		b	.L595
 5117              	.L600:
 5118              		.loc 1 1396 0
 5119 006a 0122     		movs	r2, #1
 5120              		.loc 1 1395 0
 5121 006c 1146     		mov	r1, r2
 5122 006e EAE7     		b	.L595
 5123              	.LVL657:
 5124              	.L597:
 5125              		.loc 1 1377 0
 5126 0070 4FF0FF30 		mov	r0, #-1
 5127              	.LVL658:
 5128              		.loc 1 1405 0
 5129 0074 38BD     		pop	{r3, r4, r5, pc}
 5130              	.LVL659:
 5131              	.L604:
 5132 0076 00BF     		.align	2
 5133              	.L603:
 5134 0078 00000000 		.word	itm_port
 5135 007c 4C0B0000 		.word	.LC85
 5136 0080 00000000 		.word	.LANCHOR1
 5137              		.cfi_endproc
 5138              	.LFE276:
 5139              		.size	lwip_shutdown, .-lwip_shutdown
 5140 0084 AFF30080 		.section	.text.lwip_getpeername,"ax",%progbits
 5140      AFF30080 
 5140      AFF30080 
 5141              		.align	2
 5142              		.p2align 4,,15
 5143              		.global	lwip_getpeername
 5144              		.thumb
 5145              		.thumb_func
 5146              		.type	lwip_getpeername, %function
 5147              	lwip_getpeername:
 5148              	.LFB278:
 5149              		.loc 1 1444 0
 5150              		.cfi_startproc
 5151              		@ args = 0, pretend = 0, frame = 0
 5152              		@ frame_needed = 0, uses_anonymous_args = 0
 5153              		@ link register save eliminated.
 5154              	.LVL660:
 5155              		.loc 1 1445 0
 5156 0000 0023     		movs	r3, #0
 5157 0002 FFF7FEBF 		b	lwip_getaddrname
 5158              	.LVL661:
 5159              		.cfi_endproc
ARM GAS  C:\Users\jo\AppData\Local\Temp\ccpKXchH.s 			page 92


 5160              	.LFE278:
 5161              		.size	lwip_getpeername, .-lwip_getpeername
 5162 0006 00BFAFF3 		.section	.text.lwip_getsockname,"ax",%progbits
 5162      0080AFF3 
 5162      0080
 5163              		.align	2
 5164              		.p2align 4,,15
 5165              		.global	lwip_getsockname
 5166              		.thumb
 5167              		.thumb_func
 5168              		.type	lwip_getsockname, %function
 5169              	lwip_getsockname:
 5170              	.LFB279:
 5171              		.loc 1 1450 0
 5172              		.cfi_startproc
 5173              		@ args = 0, pretend = 0, frame = 0
 5174              		@ frame_needed = 0, uses_anonymous_args = 0
 5175              		@ link register save eliminated.
 5176              	.LVL662:
 5177              		.loc 1 1451 0
 5178 0000 0123     		movs	r3, #1
 5179 0002 FFF7FEBF 		b	lwip_getaddrname
 5180              	.LVL663:
 5181              		.cfi_endproc
 5182              	.LFE279:
 5183              		.size	lwip_getsockname, .-lwip_getsockname
 5184 0006 00BFAFF3 		.section	.text.lwip_getsockopt,"ax",%progbits
 5184      0080AFF3 
 5184      0080
 5185              		.align	2
 5186              		.p2align 4,,15
 5187              		.global	lwip_getsockopt
 5188              		.thumb
 5189              		.thumb_func
 5190              		.type	lwip_getsockopt, %function
 5191              	lwip_getsockopt:
 5192              	.LFB280:
 5193              		.loc 1 1456 0
 5194              		.cfi_startproc
 5195              		@ args = 4, pretend = 0, frame = 32
 5196              		@ frame_needed = 0, uses_anonymous_args = 0
 5197              	.LVL664:
 5198 0000 2DE9F047 		push	{r4, r5, r6, r7, r8, r9, r10, lr}
 5199              		.cfi_def_cfa_offset 32
 5200              		.cfi_offset 4, -32
 5201              		.cfi_offset 5, -28
 5202              		.cfi_offset 6, -24
 5203              		.cfi_offset 7, -20
 5204              		.cfi_offset 8, -16
 5205              		.cfi_offset 9, -12
 5206              		.cfi_offset 10, -8
 5207              		.cfi_offset 14, -4
 5208 0004 8AB0     		sub	sp, sp, #40
 5209              		.cfi_def_cfa_offset 72
 5210              		.loc 1 1456 0
 5211 0006 0D46     		mov	r5, r1
 5212 0008 1746     		mov	r7, r2
ARM GAS  C:\Users\jo\AppData\Local\Temp\ccpKXchH.s 			page 93


 5213 000a 9846     		mov	r8, r3
 5214 000c 8246     		mov	r10, r0
 5215 000e 129E     		ldr	r6, [sp, #72]
 5216              		.loc 1 1458 0
 5217 0010 FFF7FEFF 		bl	get_socket
 5218              	.LVL665:
 5219              		.loc 1 1461 0
 5220 0014 0446     		mov	r4, r0
 5221 0016 0028     		cmp	r0, #0
 5222 0018 00F09480 		beq	.L627
 5223              		.loc 1 1465 0
 5224 001c B8F1000F 		cmp	r8, #0
 5225 0020 00F08B80 		beq	.L609
 5226              		.loc 1 1465 0 is_stmt 0 discriminator 1
 5227 0024 002E     		cmp	r6, #0
 5228 0026 00F08880 		beq	.L609
 5229              		.loc 1 1471 0 is_stmt 1
 5230 002a 062D     		cmp	r5, #6
 5231 002c 55D0     		beq	.L612
 5232 002e 40F6FF73 		movw	r3, #4095
 5233 0032 9D42     		cmp	r5, r3
 5234 0034 0ED0     		beq	.L613
 5235 0036 3DB3     		cbz	r5, .L657
 5236              		.loc 1 1624 0 discriminator 1
 5237 0038 2B46     		mov	r3, r5
 5238 003a 0097     		str	r7, [sp]
 5239 003c 5246     		mov	r2, r10
 5240 003e 4348     		ldr	r0, .L661
 5241              	.LVL666:
 5242 0040 4349     		ldr	r1, .L661+4
 5243 0042 FFF7FEFF 		bl	chprintf.constprop.1
 5244              	.LVL667:
 5245 0046 5C23     		movs	r3, #92
 5246              	.LVL668:
 5247              	.L626:
 5248              		.loc 1 1631 0
 5249 0048 2361     		str	r3, [r4, #16]
 5250              		.loc 1 1632 0
 5251 004a 4FF0FF30 		mov	r0, #-1
 5252              	.L650:
 5253              		.loc 1 1652 0
 5254 004e 0AB0     		add	sp, sp, #40
 5255              		.cfi_remember_state
 5256              		.cfi_def_cfa_offset 32
 5257              		@ sp needed
 5258 0050 BDE8F087 		pop	{r4, r5, r6, r7, r8, r9, r10, pc}
 5259              	.LVL669:
 5260              	.L613:
 5261              		.cfi_restore_state
 5262              		.loc 1 1475 0
 5263 0054 202F     		cmp	r7, #32
 5264 0056 1AD0     		beq	.L654
 5265 0058 48DD     		ble	.L658
 5266 005a 41F20703 		movw	r3, #4103
 5267 005e 9F42     		cmp	r7, r3
 5268 0060 48DB     		blt	.L615
 5269 0062 41F20803 		movw	r3, #4104
ARM GAS  C:\Users\jo\AppData\Local\Temp\ccpKXchH.s 			page 94


 5270 0066 9F42     		cmp	r7, r3
 5271 0068 11DD     		ble	.L654
 5272 006a 41F20A03 		movw	r3, #4106
 5273 006e 9F42     		cmp	r7, r3
 5274 0070 40D1     		bne	.L615
 5275              		.loc 1 1513 0
 5276 0072 0268     		ldr	r2, [r0]
 5277              		.loc 1 1509 0
 5278 0074 3368     		ldr	r3, [r6]
 5279              		.loc 1 1513 0
 5280 0076 1178     		ldrb	r1, [r2]	@ zero_extendqisi2
 5281              		.loc 1 1510 0
 5282 0078 032B     		cmp	r3, #3
 5283 007a 8CBF     		ite	hi
 5284 007c 0023     		movhi	r3, #0
 5285 007e 1623     		movls	r3, #22
 5286              	.LVL670:
 5287              		.loc 1 1513 0
 5288 0080 2029     		cmp	r1, #32
 5289 0082 52D0     		beq	.L659
 5290              	.L631:
 5291 0084 6123     		movs	r3, #97
 5292              	.LVL671:
 5293 0086 DFE7     		b	.L626
 5294              	.LVL672:
 5295              	.L657:
 5296              		.loc 1 1530 0
 5297 0088 7B1E     		subs	r3, r7, #1
 5298 008a 012B     		cmp	r3, #1
 5299 008c 3AD8     		bhi	.L623
 5300              	.L654:
 5301              		.loc 1 1536 0
 5302 008e 3368     		ldr	r3, [r6]
 5303 0090 032B     		cmp	r3, #3
 5304 0092 01D8     		bhi	.L620
 5305              	.L633:
 5306 0094 1623     		movs	r3, #22
 5307              	.LVL673:
 5308 0096 D7E7     		b	.L626
 5309              	.L620:
 5310              		.loc 1 1644 0
 5311 0098 4FF00009 		mov	r9, #0
 5312              		.loc 1 1645 0
 5313 009c 03A9     		add	r1, sp, #12
 5314 009e 0122     		movs	r2, #1
 5315 00a0 2C48     		ldr	r0, .L661+8
 5316              	.LVL674:
 5317              		.loc 1 1636 0
 5318 00a2 0394     		str	r4, [sp, #12]
 5319              		.loc 1 1638 0
 5320 00a4 CDF810A0 		str	r10, [sp, #16]
 5321              		.loc 1 1640 0
 5322 00a8 0595     		str	r5, [sp, #20]
 5323              		.loc 1 1641 0
 5324 00aa 0697     		str	r7, [sp, #24]
 5325              		.loc 1 1642 0
 5326 00ac CDF81C80 		str	r8, [sp, #28]
ARM GAS  C:\Users\jo\AppData\Local\Temp\ccpKXchH.s 			page 95


 5327              		.loc 1 1643 0
 5328 00b0 0896     		str	r6, [sp, #32]
 5329              		.loc 1 1644 0
 5330 00b2 8DF82490 		strb	r9, [sp, #36]
 5331              		.loc 1 1645 0
 5332 00b6 FFF7FEFF 		bl	tcpip_callback_with_block
 5333              	.LVL675:
 5334              		.loc 1 1646 0
 5335 00ba 2068     		ldr	r0, [r4]
 5336 00bc 4946     		mov	r1, r9
 5337 00be 0C30     		adds	r0, r0, #12
 5338 00c0 FFF7FEFF 		bl	sys_arch_sem_wait
 5339              	.LVL676:
 5340              		.loc 1 1650 0
 5341 00c4 9DF92400 		ldrsb	r0, [sp, #36]
 5342 00c8 2061     		str	r0, [r4, #16]
 5343              	.LVL677:
 5344              		.loc 1 1651 0
 5345 00ca B0EB0900 		subs	r0, r0, r9
 5346              	.LVL678:
 5347 00ce 18BF     		it	ne
 5348 00d0 0120     		movne	r0, #1
 5349 00d2 4042     		negs	r0, r0
 5350              		.loc 1 1652 0
 5351 00d4 0AB0     		add	sp, sp, #40
 5352              		.cfi_remember_state
 5353              		.cfi_def_cfa_offset 32
 5354              		@ sp needed
 5355 00d6 BDE8F087 		pop	{r4, r5, r6, r7, r8, r9, r10, pc}
 5356              	.LVL679:
 5357              	.L612:
 5358              		.cfi_restore_state
 5359              		.loc 1 1571 0
 5360 00da 3368     		ldr	r3, [r6]
 5361 00dc 032B     		cmp	r3, #3
 5362 00de D9D9     		bls	.L633
 5363              		.loc 1 1577 0
 5364 00e0 0368     		ldr	r3, [r0]
 5365 00e2 1B78     		ldrb	r3, [r3]	@ zero_extendqisi2
 5366 00e4 102B     		cmp	r3, #16
 5367 00e6 15D0     		beq	.L660
 5368              		.loc 1 1578 0
 5369 00e8 0020     		movs	r0, #0
 5370              	.LVL680:
 5371 00ea B0E7     		b	.L650
 5372              	.LVL681:
 5373              	.L658:
 5374              		.loc 1 1475 0
 5375 00ec 022F     		cmp	r7, #2
 5376 00ee CED0     		beq	.L654
 5377 00f0 082F     		cmp	r7, #8
 5378 00f2 CCD0     		beq	.L654
 5379              	.L615:
 5380              		.loc 1 1522 0 discriminator 1
 5381 00f4 3B46     		mov	r3, r7
 5382 00f6 5246     		mov	r2, r10
 5383 00f8 1448     		ldr	r0, .L661
ARM GAS  C:\Users\jo\AppData\Local\Temp\ccpKXchH.s 			page 96


 5384              	.LVL682:
 5385 00fa 1749     		ldr	r1, .L661+12
 5386 00fc FFF7FEFF 		bl	chprintf.constprop.1
 5387              	.LVL683:
 5388 0100 5C23     		movs	r3, #92
 5389 0102 A1E7     		b	.L626
 5390              	.LVL684:
 5391              	.L623:
 5392              		.loc 1 1562 0 discriminator 1
 5393 0104 3B46     		mov	r3, r7
 5394 0106 5246     		mov	r2, r10
 5395 0108 1048     		ldr	r0, .L661
 5396              	.LVL685:
 5397 010a 1449     		ldr	r1, .L661+16
 5398 010c FFF7FEFF 		bl	chprintf.constprop.1
 5399              	.LVL686:
 5400 0110 5C23     		movs	r3, #92
 5401 0112 99E7     		b	.L626
 5402              	.LVL687:
 5403              	.L660:
 5404              		.loc 1 1580 0
 5405 0114 7B1E     		subs	r3, r7, #1
 5406 0116 012B     		cmp	r3, #1
 5407 0118 BED9     		bls	.L620
 5408              		.loc 1 1591 0 discriminator 1
 5409 011a 3B46     		mov	r3, r7
 5410 011c 5246     		mov	r2, r10
 5411 011e 0B48     		ldr	r0, .L661
 5412              	.LVL688:
 5413 0120 0F49     		ldr	r1, .L661+20
 5414 0122 FFF7FEFF 		bl	chprintf.constprop.1
 5415              	.LVL689:
 5416 0126 5C23     		movs	r3, #92
 5417 0128 8EE7     		b	.L626
 5418              	.LVL690:
 5419              	.L659:
 5420              		.loc 1 1514 0 discriminator 1
 5421 012a 5268     		ldr	r2, [r2, #4]
 5422 012c 127C     		ldrb	r2, [r2, #16]	@ zero_extendqisi2
 5423              		.loc 1 1513 0 discriminator 1
 5424 012e 9207     		lsls	r2, r2, #30
 5425 0130 A8D4     		bmi	.L631
 5426              		.loc 1 1630 0
 5427 0132 002B     		cmp	r3, #0
 5428 0134 B0D0     		beq	.L620
 5429 0136 5BB2     		sxtb	r3, r3
 5430              	.LVL691:
 5431 0138 86E7     		b	.L626
 5432              	.LVL692:
 5433              	.L609:
 5434              		.loc 1 1466 0
 5435 013a 0E23     		movs	r3, #14
 5436 013c 2361     		str	r3, [r4, #16]
 5437              		.loc 1 1467 0
 5438 013e 4FF0FF30 		mov	r0, #-1
 5439              	.LVL693:
 5440 0142 84E7     		b	.L650
ARM GAS  C:\Users\jo\AppData\Local\Temp\ccpKXchH.s 			page 97


 5441              	.LVL694:
 5442              	.L627:
 5443              		.loc 1 1462 0
 5444 0144 4FF0FF30 		mov	r0, #-1
 5445              	.LVL695:
 5446 0148 81E7     		b	.L650
 5447              	.L662:
 5448 014a 00BF     		.align	2
 5449              	.L661:
 5450 014c 00000000 		.word	itm_port
 5451 0150 1C0C0000 		.word	.LC89
 5452 0154 00000000 		.word	lwip_getsockopt_internal
 5453 0158 680B0000 		.word	.LC86
 5454 015c A40B0000 		.word	.LC87
 5455 0160 E00B0000 		.word	.LC88
 5456              		.cfi_endproc
 5457              	.LFE280:
 5458              		.size	lwip_getsockopt, .-lwip_getsockopt
 5459 0164 AFF30080 		.section	.text.lwip_setsockopt,"ax",%progbits
 5459      AFF30080 
 5459      AFF30080 
 5460              		.align	2
 5461              		.p2align 4,,15
 5462              		.global	lwip_setsockopt
 5463              		.thumb
 5464              		.thumb_func
 5465              		.type	lwip_setsockopt, %function
 5466              	lwip_setsockopt:
 5467              	.LFB282:
 5468              		.loc 1 1864 0
 5469              		.cfi_startproc
 5470              		@ args = 4, pretend = 0, frame = 32
 5471              		@ frame_needed = 0, uses_anonymous_args = 0
 5472              	.LVL696:
 5473 0000 2DE9F043 		push	{r4, r5, r6, r7, r8, r9, lr}
 5474              		.cfi_def_cfa_offset 28
 5475              		.cfi_offset 4, -28
 5476              		.cfi_offset 5, -24
 5477              		.cfi_offset 6, -20
 5478              		.cfi_offset 7, -16
 5479              		.cfi_offset 8, -12
 5480              		.cfi_offset 9, -8
 5481              		.cfi_offset 14, -4
 5482 0004 8BB0     		sub	sp, sp, #44
 5483              		.cfi_def_cfa_offset 72
 5484              		.loc 1 1864 0
 5485 0006 0D46     		mov	r5, r1
 5486 0008 1646     		mov	r6, r2
 5487 000a 1F46     		mov	r7, r3
 5488 000c 8146     		mov	r9, r0
 5489              		.loc 1 1865 0
 5490 000e FFF7FEFF 		bl	get_socket
 5491              	.LVL697:
 5492              		.loc 1 1869 0
 5493 0012 0446     		mov	r4, r0
 5494 0014 0028     		cmp	r0, #0
 5495 0016 7ED0     		beq	.L681
ARM GAS  C:\Users\jo\AppData\Local\Temp\ccpKXchH.s 			page 98


 5496              		.loc 1 1873 0
 5497 0018 002F     		cmp	r7, #0
 5498 001a 7FD0     		beq	.L706
 5499              		.loc 1 1879 0
 5500 001c 062D     		cmp	r5, #6
 5501 001e 4BD0     		beq	.L667
 5502 0020 40F6FF73 		movw	r3, #4095
 5503 0024 9D42     		cmp	r5, r3
 5504 0026 0ED0     		beq	.L668
 5505 0028 EDB1     		cbz	r5, .L707
 5506              		.loc 1 2040 0 discriminator 1
 5507 002a 2B46     		mov	r3, r5
 5508 002c 0096     		str	r6, [sp]
 5509 002e 4A46     		mov	r2, r9
 5510 0030 3D48     		ldr	r0, .L710
 5511              	.LVL698:
 5512 0032 3E49     		ldr	r1, .L710+4
 5513 0034 FFF7FEFF 		bl	chprintf.constprop.1
 5514              	.LVL699:
 5515 0038 5C23     		movs	r3, #92
 5516              	.LVL700:
 5517              	.L680:
 5518              		.loc 1 2047 0
 5519 003a 2361     		str	r3, [r4, #16]
 5520              		.loc 1 2048 0
 5521 003c 4FF0FF30 		mov	r0, #-1
 5522              	.L698:
 5523              		.loc 1 2069 0
 5524 0040 0BB0     		add	sp, sp, #44
 5525              		.cfi_remember_state
 5526              		.cfi_def_cfa_offset 28
 5527              		@ sp needed
 5528 0042 BDE8F083 		pop	{r4, r5, r6, r7, r8, r9, pc}
 5529              	.LVL701:
 5530              	.L668:
 5531              		.cfi_restore_state
 5532              		.loc 1 1883 0
 5533 0046 202E     		cmp	r6, #32
 5534 0048 10D0     		beq	.L703
 5535 004a 41F20A03 		movw	r3, #4106
 5536 004e 9E42     		cmp	r6, r3
 5537 0050 3BD0     		beq	.L672
 5538 0052 082E     		cmp	r6, #8
 5539 0054 0AD0     		beq	.L703
 5540              		.loc 1 1925 0 discriminator 1
 5541 0056 3346     		mov	r3, r6
 5542 0058 4A46     		mov	r2, r9
 5543 005a 3348     		ldr	r0, .L710
 5544              	.LVL702:
 5545 005c 3449     		ldr	r1, .L710+8
 5546 005e FFF7FEFF 		bl	chprintf.constprop.1
 5547              	.LVL703:
 5548 0062 5C23     		movs	r3, #92
 5549 0064 E9E7     		b	.L680
 5550              	.LVL704:
 5551              	.L707:
 5552              		.loc 1 1933 0
ARM GAS  C:\Users\jo\AppData\Local\Temp\ccpKXchH.s 			page 99


 5553 0066 731E     		subs	r3, r6, #1
 5554 0068 012B     		cmp	r3, #1
 5555 006a 39D8     		bhi	.L677
 5556              	.L703:
 5557              		.loc 1 1939 0
 5558 006c 129B     		ldr	r3, [sp, #72]
 5559 006e 032B     		cmp	r3, #3
 5560 0070 01D8     		bhi	.L674
 5561              	.L687:
 5562 0072 1623     		movs	r3, #22
 5563              	.LVL705:
 5564 0074 E1E7     		b	.L680
 5565              	.L674:
 5566              		.loc 1 2061 0
 5567 0076 4FF00008 		mov	r8, #0
 5568              		.loc 1 2060 0
 5569 007a 12AB     		add	r3, sp, #72
 5570              	.LVL706:
 5571              		.loc 1 2062 0
 5572 007c 03A9     		add	r1, sp, #12
 5573 007e 0122     		movs	r2, #1
 5574 0080 2C48     		ldr	r0, .L710+12
 5575              	.LVL707:
 5576              		.loc 1 2060 0
 5577 0082 0893     		str	r3, [sp, #32]
 5578              		.loc 1 2053 0
 5579 0084 0394     		str	r4, [sp, #12]
 5580              		.loc 1 2055 0
 5581 0086 CDF81090 		str	r9, [sp, #16]
 5582              		.loc 1 2057 0
 5583 008a 0595     		str	r5, [sp, #20]
 5584              		.loc 1 2058 0
 5585 008c 0696     		str	r6, [sp, #24]
 5586              		.loc 1 2059 0
 5587 008e 0797     		str	r7, [sp, #28]
 5588              		.loc 1 2061 0
 5589 0090 8DF82480 		strb	r8, [sp, #36]
 5590              		.loc 1 2062 0
 5591 0094 FFF7FEFF 		bl	tcpip_callback_with_block
 5592              	.LVL708:
 5593              		.loc 1 2063 0
 5594 0098 2068     		ldr	r0, [r4]
 5595 009a 4146     		mov	r1, r8
 5596 009c 0C30     		adds	r0, r0, #12
 5597 009e FFF7FEFF 		bl	sys_arch_sem_wait
 5598              	.LVL709:
 5599              		.loc 1 2067 0
 5600 00a2 9DF92400 		ldrsb	r0, [sp, #36]
 5601 00a6 2061     		str	r0, [r4, #16]
 5602              	.LVL710:
 5603              		.loc 1 2068 0
 5604 00a8 B0EB0800 		subs	r0, r0, r8
 5605              	.LVL711:
 5606 00ac 18BF     		it	ne
 5607 00ae 0120     		movne	r0, #1
 5608 00b0 4042     		negs	r0, r0
 5609              		.loc 1 2069 0
ARM GAS  C:\Users\jo\AppData\Local\Temp\ccpKXchH.s 			page 100


 5610 00b2 0BB0     		add	sp, sp, #44
 5611              		.cfi_remember_state
 5612              		.cfi_def_cfa_offset 28
 5613              		@ sp needed
 5614 00b4 BDE8F083 		pop	{r4, r5, r6, r7, r8, r9, pc}
 5615              	.LVL712:
 5616              	.L667:
 5617              		.cfi_restore_state
 5618              		.loc 1 1988 0
 5619 00b8 129B     		ldr	r3, [sp, #72]
 5620 00ba 032B     		cmp	r3, #3
 5621 00bc D9D9     		bls	.L687
 5622              		.loc 1 1994 0
 5623 00be 0368     		ldr	r3, [r0]
 5624 00c0 1B78     		ldrb	r3, [r3]	@ zero_extendqisi2
 5625 00c2 102B     		cmp	r3, #16
 5626 00c4 14D0     		beq	.L708
 5627              		.loc 1 1995 0
 5628 00c6 0020     		movs	r0, #0
 5629              	.LVL713:
 5630 00c8 BAE7     		b	.L698
 5631              	.LVL714:
 5632              	.L672:
 5633              		.loc 1 1917 0
 5634 00ca 0268     		ldr	r2, [r0]
 5635              		.loc 1 1913 0
 5636 00cc 129B     		ldr	r3, [sp, #72]
 5637              		.loc 1 1917 0
 5638 00ce 1178     		ldrb	r1, [r2]	@ zero_extendqisi2
 5639              		.loc 1 1914 0
 5640 00d0 032B     		cmp	r3, #3
 5641 00d2 8CBF     		ite	hi
 5642 00d4 0023     		movhi	r3, #0
 5643 00d6 1623     		movls	r3, #22
 5644              	.LVL715:
 5645              		.loc 1 1917 0
 5646 00d8 2029     		cmp	r1, #32
 5647 00da 14D0     		beq	.L709
 5648              	.L685:
 5649 00dc 6123     		movs	r3, #97
 5650              	.LVL716:
 5651 00de ACE7     		b	.L680
 5652              	.LVL717:
 5653              	.L677:
 5654              		.loc 1 1979 0 discriminator 1
 5655 00e0 3346     		mov	r3, r6
 5656 00e2 4A46     		mov	r2, r9
 5657 00e4 1048     		ldr	r0, .L710
 5658              	.LVL718:
 5659 00e6 1449     		ldr	r1, .L710+16
 5660 00e8 FFF7FEFF 		bl	chprintf.constprop.1
 5661              	.LVL719:
 5662 00ec 5C23     		movs	r3, #92
 5663 00ee A4E7     		b	.L680
 5664              	.LVL720:
 5665              	.L708:
 5666              		.loc 1 1997 0
ARM GAS  C:\Users\jo\AppData\Local\Temp\ccpKXchH.s 			page 101


 5667 00f0 731E     		subs	r3, r6, #1
 5668 00f2 012B     		cmp	r3, #1
 5669 00f4 BFD9     		bls	.L674
 5670              		.loc 1 2008 0 discriminator 1
 5671 00f6 3346     		mov	r3, r6
 5672 00f8 4A46     		mov	r2, r9
 5673 00fa 0B48     		ldr	r0, .L710
 5674              	.LVL721:
 5675 00fc 0F49     		ldr	r1, .L710+20
 5676 00fe FFF7FEFF 		bl	chprintf.constprop.1
 5677              	.LVL722:
 5678 0102 5C23     		movs	r3, #92
 5679 0104 99E7     		b	.L680
 5680              	.LVL723:
 5681              	.L709:
 5682              		.loc 1 1918 0 discriminator 1
 5683 0106 5268     		ldr	r2, [r2, #4]
 5684 0108 127C     		ldrb	r2, [r2, #16]	@ zero_extendqisi2
 5685              		.loc 1 1917 0 discriminator 1
 5686 010a 9207     		lsls	r2, r2, #30
 5687 010c E6D4     		bmi	.L685
 5688              		.loc 1 2046 0
 5689 010e 002B     		cmp	r3, #0
 5690 0110 B1D0     		beq	.L674
 5691 0112 5BB2     		sxtb	r3, r3
 5692              	.LVL724:
 5693 0114 91E7     		b	.L680
 5694              	.LVL725:
 5695              	.L681:
 5696              		.loc 1 1870 0
 5697 0116 4FF0FF30 		mov	r0, #-1
 5698              	.LVL726:
 5699 011a 91E7     		b	.L698
 5700              	.LVL727:
 5701              	.L706:
 5702              		.loc 1 1874 0
 5703 011c 0E23     		movs	r3, #14
 5704 011e 0361     		str	r3, [r0, #16]
 5705              		.loc 1 1875 0
 5706 0120 4FF0FF30 		mov	r0, #-1
 5707              	.LVL728:
 5708 0124 8CE7     		b	.L698
 5709              	.L711:
 5710 0126 00BF     		.align	2
 5711              	.L710:
 5712 0128 00000000 		.word	itm_port
 5713 012c 0C0D0000 		.word	.LC93
 5714 0130 580C0000 		.word	.LC90
 5715 0134 00000000 		.word	lwip_setsockopt_internal
 5716 0138 940C0000 		.word	.LC91
 5717 013c D00C0000 		.word	.LC92
 5718              		.cfi_endproc
 5719              	.LFE282:
 5720              		.size	lwip_setsockopt, .-lwip_setsockopt
 5721              		.section	.text.lwip_ioctl,"ax",%progbits
 5722              		.align	2
 5723              		.p2align 4,,15
ARM GAS  C:\Users\jo\AppData\Local\Temp\ccpKXchH.s 			page 102


 5724              		.global	lwip_ioctl
 5725              		.thumb
 5726              		.thumb_func
 5727              		.type	lwip_ioctl, %function
 5728              	lwip_ioctl:
 5729              	.LFB284:
 5730              		.loc 1 2282 0
 5731              		.cfi_startproc
 5732              		@ args = 0, pretend = 0, frame = 0
 5733              		@ frame_needed = 0, uses_anonymous_args = 0
 5734              	.LVL729:
 5735 0000 F0B5     		push	{r4, r5, r6, r7, lr}
 5736              		.cfi_def_cfa_offset 20
 5737              		.cfi_offset 4, -20
 5738              		.cfi_offset 5, -16
 5739              		.cfi_offset 6, -12
 5740              		.cfi_offset 7, -8
 5741              		.cfi_offset 14, -4
 5742 0002 83B0     		sub	sp, sp, #12
 5743              		.cfi_def_cfa_offset 32
 5744              		.loc 1 2282 0
 5745 0004 0E46     		mov	r6, r1
 5746 0006 1546     		mov	r5, r2
 5747 0008 0746     		mov	r7, r0
 5748              		.loc 1 2283 0
 5749 000a FFF7FEFF 		bl	get_socket
 5750              	.LVL730:
 5751              		.loc 1 2290 0
 5752 000e 0446     		mov	r4, r0
 5753 0010 38B3     		cbz	r0, .L719
 5754              		.loc 1 2294 0
 5755 0012 154B     		ldr	r3, .L726
 5756 0014 9E42     		cmp	r6, r3
 5757 0016 18D1     		bne	.L723
 5758              	.LVL731:
 5759              		.loc 1 2327 0
 5760 0018 0DB1     		cbz	r5, .L716
 5761              		.loc 1 2327 0 is_stmt 0 discriminator 1
 5762 001a 2B68     		ldr	r3, [r5]
 5763 001c 73B9     		cbnz	r3, .L717
 5764              	.L716:
 5765              		.loc 1 2330 0 is_stmt 1
 5766 001e 2268     		ldr	r2, [r4]
 5767 0020 137F     		ldrb	r3, [r2, #28]	@ zero_extendqisi2
 5768 0022 23F00203 		bic	r3, r3, #2
 5769 0026 1377     		strb	r3, [r2, #28]
 5770 0028 0023     		movs	r3, #0
 5771              	.LVL732:
 5772              	.L718:
 5773              		.loc 1 2331 0 discriminator 1
 5774 002a 3A46     		mov	r2, r7
 5775 002c 0F48     		ldr	r0, .L726+4
 5776              	.LVL733:
 5777 002e 1049     		ldr	r1, .L726+8
 5778 0030 FFF7FEFF 		bl	chprintf.constprop.1
 5779              	.LVL734:
 5780              		.loc 1 2332 0 discriminator 1
ARM GAS  C:\Users\jo\AppData\Local\Temp\ccpKXchH.s 			page 103


 5781 0034 0020     		movs	r0, #0
 5782 0036 2061     		str	r0, [r4, #16]
 5783              	.L724:
 5784              		.loc 1 2340 0
 5785 0038 03B0     		add	sp, sp, #12
 5786              		.cfi_remember_state
 5787              		.cfi_def_cfa_offset 20
 5788              		@ sp needed
 5789 003a F0BD     		pop	{r4, r5, r6, r7, pc}
 5790              	.LVL735:
 5791              	.L717:
 5792              		.cfi_restore_state
 5793              		.loc 1 2330 0
 5794 003c 0268     		ldr	r2, [r0]
 5795 003e 137F     		ldrb	r3, [r2, #28]	@ zero_extendqisi2
 5796 0040 43F00203 		orr	r3, r3, #2
 5797 0044 1377     		strb	r3, [r2, #28]
 5798 0046 0123     		movs	r3, #1
 5799 0048 EFE7     		b	.L718
 5800              	.LVL736:
 5801              	.L723:
 5802              		.loc 1 2336 0 discriminator 1
 5803 004a 3346     		mov	r3, r6
 5804 004c 0095     		str	r5, [sp]
 5805 004e 3A46     		mov	r2, r7
 5806 0050 0648     		ldr	r0, .L726+4
 5807              	.LVL737:
 5808 0052 0849     		ldr	r1, .L726+12
 5809 0054 FFF7FEFF 		bl	chprintf.constprop.1
 5810              	.LVL738:
 5811              		.loc 1 2337 0 discriminator 1
 5812 0058 2623     		movs	r3, #38
 5813 005a 2361     		str	r3, [r4, #16]
 5814              		.loc 1 2338 0 discriminator 1
 5815 005c 4FF0FF30 		mov	r0, #-1
 5816 0060 EAE7     		b	.L724
 5817              	.LVL739:
 5818              	.L719:
 5819              		.loc 1 2291 0
 5820 0062 4FF0FF30 		mov	r0, #-1
 5821              	.LVL740:
 5822 0066 E7E7     		b	.L724
 5823              	.L727:
 5824              		.align	2
 5825              	.L726:
 5826 0068 7E660480 		.word	-2147195266
 5827 006c 00000000 		.word	itm_port
 5828 0070 480D0000 		.word	.LC94
 5829 0074 680D0000 		.word	.LC95
 5830              		.cfi_endproc
 5831              	.LFE284:
 5832              		.size	lwip_ioctl, .-lwip_ioctl
 5833 0078 AFF30080 		.section	.text.lwip_fcntl,"ax",%progbits
 5833      AFF30080 
 5834              		.align	2
 5835              		.p2align 4,,15
 5836              		.global	lwip_fcntl
ARM GAS  C:\Users\jo\AppData\Local\Temp\ccpKXchH.s 			page 104


 5837              		.thumb
 5838              		.thumb_func
 5839              		.type	lwip_fcntl, %function
 5840              	lwip_fcntl:
 5841              	.LFB285:
 5842              		.loc 1 2348 0
 5843              		.cfi_startproc
 5844              		@ args = 0, pretend = 0, frame = 0
 5845              		@ frame_needed = 0, uses_anonymous_args = 0
 5846              	.LVL741:
 5847 0000 70B5     		push	{r4, r5, r6, lr}
 5848              		.cfi_def_cfa_offset 16
 5849              		.cfi_offset 4, -16
 5850              		.cfi_offset 5, -12
 5851              		.cfi_offset 6, -8
 5852              		.cfi_offset 14, -4
 5853 0002 82B0     		sub	sp, sp, #8
 5854              		.cfi_def_cfa_offset 24
 5855              		.loc 1 2348 0
 5856 0004 0C46     		mov	r4, r1
 5857 0006 1546     		mov	r5, r2
 5858 0008 0646     		mov	r6, r0
 5859              		.loc 1 2349 0
 5860 000a FFF7FEFF 		bl	get_socket
 5861              	.LVL742:
 5862              		.loc 1 2352 0
 5863 000e F0B1     		cbz	r0, .L736
 5864              		.loc 1 2352 0 is_stmt 0 discriminator 1
 5865 0010 0368     		ldr	r3, [r0]
 5866 0012 E3B1     		cbz	r3, .L736
 5867              		.loc 1 2356 0 is_stmt 1
 5868 0014 032C     		cmp	r4, #3
 5869 0016 15D0     		beq	.L731
 5870 0018 042C     		cmp	r4, #4
 5871 001a 0AD0     		beq	.L732
 5872              		.loc 1 2368 0 discriminator 1
 5873 001c 0095     		str	r5, [sp]
 5874 001e 3246     		mov	r2, r6
 5875 0020 2346     		mov	r3, r4
 5876 0022 0F48     		ldr	r0, .L740
 5877              	.LVL743:
 5878 0024 0F49     		ldr	r1, .L740+4
 5879 0026 FFF7FEFF 		bl	chprintf.constprop.1
 5880              	.LVL744:
 5881              		.loc 1 2350 0 discriminator 1
 5882 002a 4FF0FF30 		mov	r0, #-1
 5883              	.L729:
 5884              		.loc 1 2372 0
 5885 002e 02B0     		add	sp, sp, #8
 5886              		.cfi_remember_state
 5887              		.cfi_def_cfa_offset 16
 5888              		@ sp needed
 5889 0030 70BD     		pop	{r4, r5, r6, pc}
 5890              	.LVL745:
 5891              	.L732:
 5892              		.cfi_restore_state
 5893              		.loc 1 2361 0
ARM GAS  C:\Users\jo\AppData\Local\Temp\ccpKXchH.s 			page 105


 5894 0032 35F00100 		bics	r0, r5, #1
 5895              	.LVL746:
 5896 0036 0AD1     		bne	.L736
 5897              		.loc 1 2363 0
 5898 0038 1A7F     		ldrb	r2, [r3, #28]	@ zero_extendqisi2
 5899 003a 65B1     		cbz	r5, .L733
 5900              		.loc 1 2363 0 is_stmt 0 discriminator 1
 5901 003c 42F00202 		orr	r2, r2, #2
 5902 0040 1A77     		strb	r2, [r3, #28]
 5903 0042 F4E7     		b	.L729
 5904              	.LVL747:
 5905              	.L731:
 5906              		.loc 1 2358 0 is_stmt 1
 5907 0044 187F     		ldrb	r0, [r3, #28]	@ zero_extendqisi2
 5908              	.LVL748:
 5909 0046 C0F34000 		ubfx	r0, r0, #1, #1
 5910              	.LVL749:
 5911              		.loc 1 2372 0
 5912 004a 02B0     		add	sp, sp, #8
 5913              		.cfi_remember_state
 5914              		.cfi_def_cfa_offset 16
 5915              		@ sp needed
 5916 004c 70BD     		pop	{r4, r5, r6, pc}
 5917              	.LVL750:
 5918              	.L736:
 5919              		.cfi_restore_state
 5920              		.loc 1 2353 0
 5921 004e 4FF0FF30 		mov	r0, #-1
 5922              		.loc 1 2372 0
 5923 0052 02B0     		add	sp, sp, #8
 5924              		.cfi_remember_state
 5925              		.cfi_def_cfa_offset 16
 5926              		@ sp needed
 5927 0054 70BD     		pop	{r4, r5, r6, pc}
 5928              	.LVL751:
 5929              	.L733:
 5930              		.cfi_restore_state
 5931              		.loc 1 2363 0 discriminator 2
 5932 0056 22F00202 		bic	r2, r2, #2
 5933 005a 1A77     		strb	r2, [r3, #28]
 5934 005c E7E7     		b	.L729
 5935              	.L741:
 5936 005e 00BF     		.align	2
 5937              	.L740:
 5938 0060 00000000 		.word	itm_port
 5939 0064 8C0D0000 		.word	.LC96
 5940              		.cfi_endproc
 5941              	.LFE285:
 5942              		.size	lwip_fcntl, .-lwip_fcntl
 5943 0068 AFF30080 		.section	.rodata.err_to_errno_table,"a",%progbits
 5943      AFF30080 
 5944              		.align	2
 5945              		.set	.LANCHOR1,. + 0
 5946              		.type	err_to_errno_table, %object
 5947              		.size	err_to_errno_table, 64
 5948              	err_to_errno_table:
 5949 0000 00000000 		.word	0
ARM GAS  C:\Users\jo\AppData\Local\Temp\ccpKXchH.s 			page 106


 5950 0004 0C000000 		.word	12
 5951 0008 69000000 		.word	105
 5952 000c 0B000000 		.word	11
 5953 0010 71000000 		.word	113
 5954 0014 73000000 		.word	115
 5955 0018 16000000 		.word	22
 5956 001c 0B000000 		.word	11
 5957 0020 62000000 		.word	98
 5958 0024 72000000 		.word	114
 5959 0028 67000000 		.word	103
 5960 002c 68000000 		.word	104
 5961 0030 6B000000 		.word	107
 5962 0034 6B000000 		.word	107
 5963 0038 05000000 		.word	5
 5964 003c FFFFFFFF 		.word	-1
 5965              		.section	.bss.select_cb_list,"aw",%nobits
 5966              		.align	2
 5967              		.set	.LANCHOR2,. + 0
 5968              		.type	select_cb_list, %object
 5969              		.size	select_cb_list, 4
 5970              	select_cb_list:
 5971 0000 00000000 		.space	4
 5972              		.section	.bss.sockets,"aw",%nobits
 5973              		.align	2
 5974              		.set	.LANCHOR0,. + 0
 5975              		.type	sockets, %object
 5976              		.size	sockets, 48
 5977              	sockets:
 5978 0000 00000000 		.space	48
 5978      00000000 
 5978      00000000 
 5978      00000000 
 5978      00000000 
 5979              		.section	.bss.select_cb_ctr,"aw",%nobits
 5980              		.align	2
 5981              		.set	.LANCHOR3,. + 0
 5982              		.type	select_cb_ctr, %object
 5983              		.size	select_cb_ctr, 4
 5984              	select_cb_ctr:
 5985 0000 00000000 		.space	4
 5986              		.section	.rodata.str1.4,"aMS",%progbits,1
 5987              		.align	2
 5988              	.LC0:
 5989 0000 6F6E00   		.ascii	"on\000"
 5990 0003 00       		.space	1
 5991              	.LC1:
 5992 0004 6F666600 		.ascii	"off\000"
 5993              	.LC2:
 5994 0008 41737365 		.ascii	"Assertion \"%s\" failed at line %d in %s\012\000"
 5994      7274696F 
 5994      6E202225 
 5994      73222066 
 5994      61696C65 
 5995              	.LC3:
 5996 0030 61726720 		.ascii	"arg != NULL\000"
 5996      213D204E 
 5996      554C4C00 
ARM GAS  C:\Users\jo\AppData\Local\Temp\ccpKXchH.s 			page 107


 5997              	.LC4:
 5998 003c 2E2E2F2E 		.ascii	"../../../os/ext/lwip-1.4.1/src/api/sockets.c\000"
 5998      2E2F2E2E 
 5998      2F6F732F 
 5998      6578742F 
 5998      6C776970 
 5999 0069 000000   		.space	3
 6000              	.LC5:
 6001 006c 6C776970 		.ascii	"lwip_setsockopt(%d, SOL_SOCKET, optname=0x%x, ..) -"
 6001      5F736574 
 6001      736F636B 
 6001      6F707428 
 6001      25642C20 
 6002 009f 3E202573 		.ascii	"> %s\012\000"
 6002      0A00
 6003 00a5 000000   		.space	3
 6004              	.LC6:
 6005 00a8 756E6861 		.ascii	"unhandled optname\000"
 6005      6E646C65 
 6005      64206F70 
 6005      746E616D 
 6005      6500
 6006 00ba 0000     		.space	2
 6007              	.LC7:
 6008 00bc 6C776970 		.ascii	"lwip_setsockopt(%d, IPPROTO_IP, IP_TTL, ..) -> %d\012"
 6008      5F736574 
 6008      736F636B 
 6008      6F707428 
 6008      25642C20 
 6009 00ee 00       		.ascii	"\000"
 6010 00ef 00       		.space	1
 6011              	.LC8:
 6012 00f0 6C776970 		.ascii	"lwip_setsockopt(%d, IPPROTO_IP, IP_TOS, ..)-> %d\012"
 6012      5F736574 
 6012      736F636B 
 6012      6F707428 
 6012      25642C20 
 6013 0121 00       		.ascii	"\000"
 6014 0122 0000     		.space	2
 6015              	.LC9:
 6016 0124 6C776970 		.ascii	"lwip_setsockopt(%d, IPPROTO_TCP, TCP_NODELAY) -> %s"
 6016      5F736574 
 6016      736F636B 
 6016      6F707428 
 6016      25642C20 
 6017 0157 0A00     		.ascii	"\012\000"
 6018 0159 000000   		.space	3
 6019              	.LC10:
 6020 015c 6C776970 		.ascii	"lwip_setsockopt(%d, IPPROTO_TCP, TCP_KEEPALIVE) -> "
 6020      5F736574 
 6020      736F636B 
 6020      6F707428 
 6020      25642C20 
 6021 018f 25750A00 		.ascii	"%u\012\000"
 6022 0193 00       		.space	1
 6023              	.LC11:
 6024 0194 756E6861 		.ascii	"unhandled level\000"
ARM GAS  C:\Users\jo\AppData\Local\Temp\ccpKXchH.s 			page 108


 6024      6E646C65 
 6024      64206C65 
 6024      76656C00 
 6025              	.LC12:
 6026 01a4 6C776970 		.ascii	"lwip_getsockopt(%d, SOL_SOCKET, optname=0x%x, ..) ="
 6026      5F676574 
 6026      736F636B 
 6026      6F707428 
 6026      25642C20 
 6027 01d7 2025730A 		.ascii	" %s\012\000"
 6027      00
 6028              	.LC13:
 6029 01dc 6C776970 		.ascii	"lwip_getsockopt(%d, SOL_SOCKET, SO_TYPE): unrecogni"
 6029      5F676574 
 6029      736F636B 
 6029      6F707428 
 6029      25642C20 
 6030 020f 7A656420 		.ascii	"zed socket type %d\012\000"
 6030      736F636B 
 6030      65742074 
 6030      79706520 
 6030      25640A00 
 6031 0223 00       		.space	1
 6032              	.LC14:
 6033 0224 6C776970 		.ascii	"lwip_getsockopt(%d, SOL_SOCKET, SO_TYPE) = %d\012\000"
 6033      5F676574 
 6033      736F636B 
 6033      6F707428 
 6033      25642C20 
 6034 0253 00       		.space	1
 6035              	.LC15:
 6036 0254 6C776970 		.ascii	"lwip_getsockopt(%d, SOL_SOCKET, SO_ERROR) = %d\012\000"
 6036      5F676574 
 6036      736F636B 
 6036      6F707428 
 6036      25642C20 
 6037              	.LC16:
 6038 0284 6C776970 		.ascii	"lwip_getsockopt(%d, IPPROTO_IP, IP_TTL) = %d\012\000"
 6038      5F676574 
 6038      736F636B 
 6038      6F707428 
 6038      25642C20 
 6039 02b2 0000     		.space	2
 6040              	.LC17:
 6041 02b4 6C776970 		.ascii	"lwip_getsockopt(%d, IPPROTO_IP, IP_TOS) = %d\012\000"
 6041      5F676574 
 6041      736F636B 
 6041      6F707428 
 6041      25642C20 
 6042 02e2 0000     		.space	2
 6043              	.LC18:
 6044 02e4 6C776970 		.ascii	"lwip_getsockopt(%d, IPPROTO_TCP, TCP_NODELAY) = %s\012"
 6044      5F676574 
 6044      736F636B 
 6044      6F707428 
 6044      25642C20 
 6045 0317 00       		.ascii	"\000"
ARM GAS  C:\Users\jo\AppData\Local\Temp\ccpKXchH.s 			page 109


 6046              	.LC19:
 6047 0318 6C776970 		.ascii	"lwip_getsockopt(%d, IPPROTO_IP, TCP_KEEPALIVE) = %d"
 6047      5F676574 
 6047      736F636B 
 6047      6F707428 
 6047      25642C20 
 6048 034b 0A00     		.ascii	"\012\000"
 6049 034d 000000   		.space	3
 6050              	.LC20:
 6051 0350 6C776970 		.ascii	"lwip_selscan: fd=%d ready for reading\012\000"
 6051      5F73656C 
 6051      7363616E 
 6051      3A206664 
 6051      3D256420 
 6052 0377 00       		.space	1
 6053              	.LC21:
 6054 0378 6C776970 		.ascii	"lwip_selscan: fd=%d ready for writing\012\000"
 6054      5F73656C 
 6054      7363616E 
 6054      3A206664 
 6054      3D256420 
 6055 039f 00       		.space	1
 6056              	.LC22:
 6057 03a0 6C776970 		.ascii	"lwip_selscan: fd=%d ready for exception\012\000"
 6057      5F73656C 
 6057      7363616E 
 6057      3A206664 
 6057      3D256420 
 6058 03c9 000000   		.space	3
 6059              	.LC23:
 6060 03cc 6765745F 		.ascii	"get_socket(%d): invalid\012\000"
 6060      736F636B 
 6060      65742825 
 6060      64293A20 
 6060      696E7661 
 6061 03e5 000000   		.space	3
 6062              	.LC24:
 6063 03e8 6765745F 		.ascii	"get_socket(%d): not active\012\000"
 6063      736F636B 
 6063      65742825 
 6063      64293A20 
 6063      6E6F7420 
 6064              	.LC25:
 6065 0404 756E6B6E 		.ascii	"unknown event\000"
 6065      6F776E20 
 6065      6576656E 
 6065      7400
 6066 0412 0000     		.space	2
 6067              	.LC26:
 6068 0414 6C776970 		.ascii	"lwip_getaddrname(%d, addr=\000"
 6068      5F676574 
 6068      61646472 
 6068      6E616D65 
 6068      2825642C 
 6069 042f 00       		.space	1
 6070              	.LC27:
 6071 0430 25752E25 		.ascii	"%u.%u.%u.%u\000"
ARM GAS  C:\Users\jo\AppData\Local\Temp\ccpKXchH.s 			page 110


 6071      752E2575 
 6071      2E257500 
 6072              	.LC28:
 6073 043c 20706F72 		.ascii	" port=%u)\012\000"
 6073      743D2575 
 6073      290A00
 6074 0447 00       		.space	1
 6075              	.LC29:
 6076 0448 6C776970 		.ascii	"lwip_accept(%d)...\012\000"
 6076      5F616363 
 6076      65707428 
 6076      2564292E 
 6076      2E2E0A00 
 6077              	.LC30:
 6078 045c 6C776970 		.ascii	"lwip_accept(%d): returning EWOULDBLOCK\012\000"
 6078      5F616363 
 6078      65707428 
 6078      2564293A 
 6078      20726574 
 6079              	.LC31:
 6080 0484 6C776970 		.ascii	"lwip_accept(%d): netconn_acept failed, err=%d\012\000"
 6080      5F616363 
 6080      65707428 
 6080      2564293A 
 6080      206E6574 
 6081 04b3 00       		.space	1
 6082              	.LC32:
 6083 04b4 6E657763 		.ascii	"newconn != NULL\000"
 6083      6F6E6E20 
 6083      213D204E 
 6083      554C4C00 
 6084              	.LC33:
 6085 04c4 6C776970 		.ascii	"lwip_accept(%d): netconn_peer failed, err=%d\012\000"
 6085      5F616363 
 6085      65707428 
 6085      2564293A 
 6085      206E6574 
 6086 04f2 0000     		.space	2
 6087              	.LC34:
 6088 04f4 61646472 		.ascii	"addr valid but addrlen NULL\000"
 6088      2076616C 
 6088      69642062 
 6088      75742061 
 6088      6464726C 
 6089              	.LC35:
 6090 0510 696E7661 		.ascii	"invalid socket index\000"
 6090      6C696420 
 6090      736F636B 
 6090      65742069 
 6090      6E646578 
 6091 0525 000000   		.space	3
 6092              	.LC36:
 6093 0528 6E657763 		.ascii	"newconn->callback == event_callback\000"
 6093      6F6E6E2D 
 6093      3E63616C 
 6093      6C626163 
 6093      6B203D3D 
ARM GAS  C:\Users\jo\AppData\Local\Temp\ccpKXchH.s 			page 111


 6094              	.LC37:
 6095 054c 6C776970 		.ascii	"lwip_accept(%d) returning new sock=%d addr=\000"
 6095      5F616363 
 6095      65707428 
 6095      25642920 
 6095      72657475 
 6096              	.LC38:
 6097 0578 20706F72 		.ascii	" port=%u\012\000"
 6097      743D2575 
 6097      0A00
 6098 0582 0000     		.space	2
 6099              	.LC39:
 6100 0584 6C776970 		.ascii	"lwip_bind: invalid address\000"
 6100      5F62696E 
 6100      643A2069 
 6100      6E76616C 
 6100      69642061 
 6101 059f 00       		.space	1
 6102              	.LC40:
 6103 05a0 6C776970 		.ascii	"lwip_bind(%d, addr=\000"
 6103      5F62696E 
 6103      64282564 
 6103      2C206164 
 6103      64723D00 
 6104              	.LC41:
 6105 05b4 6C776970 		.ascii	"lwip_bind(%d) failed, err=%d\012\000"
 6105      5F62696E 
 6105      64282564 
 6105      29206661 
 6105      696C6564 
 6106 05d2 0000     		.space	2
 6107              	.LC42:
 6108 05d4 6C776970 		.ascii	"lwip_bind(%d) succeeded\012\000"
 6108      5F62696E 
 6108      64282564 
 6108      29207375 
 6108      63636565 
 6109 05ed 000000   		.space	3
 6110              	.LC43:
 6111 05f0 6C776970 		.ascii	"lwip_close(%d)\012\000"
 6111      5F636C6F 
 6111      73652825 
 6111      64290A00 
 6112              	.LC44:
 6113 0600 736F636B 		.ascii	"sock->lastdata == NULL\000"
 6113      2D3E6C61 
 6113      73746461 
 6113      7461203D 
 6113      3D204E55 
 6114 0617 00       		.space	1
 6115              	.LC45:
 6116 0618 6C776970 		.ascii	"lwip_connect: invalid address\000"
 6116      5F636F6E 
 6116      6E656374 
 6116      3A20696E 
 6116      76616C69 
 6117 0636 0000     		.space	2
ARM GAS  C:\Users\jo\AppData\Local\Temp\ccpKXchH.s 			page 112


 6118              	.LC46:
 6119 0638 6C776970 		.ascii	"lwip_connect(%d, addr=\000"
 6119      5F636F6E 
 6119      6E656374 
 6119      2825642C 
 6119      20616464 
 6120 064f 00       		.space	1
 6121              	.LC47:
 6122 0650 6C776970 		.ascii	"lwip_connect(%d) failed, err=%d\012\000"
 6122      5F636F6E 
 6122      6E656374 
 6122      28256429 
 6122      20666169 
 6123 0671 000000   		.space	3
 6124              	.LC48:
 6125 0674 6C776970 		.ascii	"lwip_connect(%d) succeeded\012\000"
 6125      5F636F6E 
 6125      6E656374 
 6125      28256429 
 6125      20737563 
 6126              	.LC49:
 6127 0690 6C776970 		.ascii	"lwip_listen(%d, backlog=%d)\012\000"
 6127      5F6C6973 
 6127      74656E28 
 6127      25642C20 
 6127      6261636B 
 6128 06ad 000000   		.space	3
 6129              	.LC50:
 6130 06b0 6C776970 		.ascii	"lwip_listen(%d) failed, err=%d\012\000"
 6130      5F6C6973 
 6130      74656E28 
 6130      25642920 
 6130      6661696C 
 6131              	.LC51:
 6132 06d0 6C776970 		.ascii	"lwip_recvfrom(%d, %p, %u, 0x%x, ..)\012\000"
 6132      5F726563 
 6132      7666726F 
 6132      6D282564 
 6132      2C202570 
 6133 06f5 000000   		.space	3
 6134              	.LC52:
 6135 06f8 6C776970 		.ascii	"lwip_recvfrom: top while sock->lastdata=%p\012\000"
 6135      5F726563 
 6135      7666726F 
 6135      6D3A2074 
 6135      6F702077 
 6136              	.LC53:
 6137 0724 6C776970 		.ascii	"lwip_recvfrom(%d): returning EWOULDBLOCK\012\000"
 6137      5F726563 
 6137      7666726F 
 6137      6D282564 
 6137      293A2072 
 6138 074e 0000     		.space	2
 6139              	.LC54:
 6140 0750 6C776970 		.ascii	"lwip_recvfrom: netconn_recv err=%d, netbuf=%p\012\000"
 6140      5F726563 
 6140      7666726F 
ARM GAS  C:\Users\jo\AppData\Local\Temp\ccpKXchH.s 			page 113


 6140      6D3A206E 
 6140      6574636F 
 6141 077f 00       		.space	1
 6142              	.LC55:
 6143 0780 6C776970 		.ascii	"lwip_recvfrom(%d): buf == NULL, error is \"%s\"!\012"
 6143      5F726563 
 6143      7666726F 
 6143      6D282564 
 6143      293A2062 
 6144 07af 00       		.ascii	"\000"
 6145              	.LC56:
 6146 07b0 62756620 		.ascii	"buf != NULL\000"
 6146      213D204E 
 6146      554C4C00 
 6147              	.LC57:
 6148 07bc 6C776970 		.ascii	"lwip_recvfrom: buflen=%u len=%u off=%d sock->lastof"
 6148      5F726563 
 6148      7666726F 
 6148      6D3A2062 
 6148      75666C65 
 6149 07ef 66736574 		.ascii	"fset=%u\012\000"
 6149      3D25750A 
 6149      00
 6150              	.LC58:
 6151 07f8 696E7661 		.ascii	"invalid copylen, len would underflow\000"
 6151      6C696420 
 6151      636F7079 
 6151      6C656E2C 
 6151      206C656E 
 6152 081d 000000   		.space	3
 6153              	.LC59:
 6154 0820 6C776970 		.ascii	"lwip_recvfrom(%d): addr=\000"
 6154      5F726563 
 6154      7666726F 
 6154      6D282564 
 6154      293A2061 
 6155 0839 000000   		.space	3
 6156              	.LC60:
 6157 083c 20706F72 		.ascii	" port=%u len=%d\012\000"
 6157      743D2575 
 6157      206C656E 
 6157      3D25640A 
 6157      00
 6158 084d 000000   		.space	3
 6159              	.LC61:
 6160 0850 6C776970 		.ascii	"lwip_recvfrom: lastdata now netbuf=%p\012\000"
 6160      5F726563 
 6160      7666726F 
 6160      6D3A206C 
 6160      61737464 
 6161 0877 00       		.space	1
 6162              	.LC62:
 6163 0878 6C776970 		.ascii	"lwip_recvfrom: deleting netbuf=%p\012\000"
 6163      5F726563 
 6163      7666726F 
 6163      6D3A2064 
 6163      656C6574 
ARM GAS  C:\Users\jo\AppData\Local\Temp\ccpKXchH.s 			page 114


 6164 089b 00       		.space	1
 6165              	.LC63:
 6166 089c 6C776970 		.ascii	"lwip_sendto: size must fit in u16_t\000"
 6166      5F73656E 
 6166      64746F3A 
 6166      2073697A 
 6166      65206D75 
 6167              	.LC64:
 6168 08c0 6C776970 		.ascii	"lwip_sendto: invalid address\000"
 6168      5F73656E 
 6168      64746F3A 
 6168      20696E76 
 6168      616C6964 
 6169 08dd 000000   		.space	3
 6170              	.LC65:
 6171 08e0 6C776970 		.ascii	"lwip_sendto(%d, data=%p, short_size=%u, flags=0x%x "
 6171      5F73656E 
 6171      64746F28 
 6171      25642C20 
 6171      64617461 
 6172 0913 746F3D00 		.ascii	"to=\000"
 6173 0917 00       		.space	1
 6174              	.LC66:
 6175 0918 6C776970 		.ascii	"lwip_send(%d, data=%p, size=%u, flags=0x%x)\012\000"
 6175      5F73656E 
 6175      64282564 
 6175      2C206461 
 6175      74613D25 
 6176 0945 000000   		.space	3
 6177              	.LC67:
 6178 0948 6C776970 		.ascii	"lwip_send(%d) err=%d written=%u\012\000"
 6178      5F73656E 
 6178      64282564 
 6178      29206572 
 6178      723D2564 
 6179 0969 000000   		.space	3
 6180              	.LC68:
 6181 096c 50465F49 		.ascii	"PF_INET\000"
 6181      4E455400 
 6182              	.LC69:
 6183 0974 554E4B4E 		.ascii	"UNKNOWN\000"
 6183      4F574E00 
 6184              	.LC70:
 6185 097c 6C776970 		.ascii	"lwip_socket(%s, SOCK_RAW, %d) = \000"
 6185      5F736F63 
 6185      6B657428 
 6185      25732C20 
 6185      534F434B 
 6186 099d 000000   		.space	3
 6187              	.LC71:
 6188 09a0 6C776970 		.ascii	"lwip_socket(%s, SOCK_DGRAM, %d) = \000"
 6188      5F736F63 
 6188      6B657428 
 6188      25732C20 
 6188      534F434B 
 6189 09c3 00       		.space	1
 6190              	.LC72:
ARM GAS  C:\Users\jo\AppData\Local\Temp\ccpKXchH.s 			page 115


 6191 09c4 6C776970 		.ascii	"lwip_socket(%s, SOCK_STREAM, %d) = \000"
 6191      5F736F63 
 6191      6B657428 
 6191      25732C20 
 6191      534F434B 
 6192              	.LC73:
 6193 09e8 2D31202F 		.ascii	"-1 / ENOBUFS (could not create netconn)\012\000"
 6193      20454E4F 
 6193      42554653 
 6193      2028636F 
 6193      756C6420 
 6194 0a11 000000   		.space	3
 6195              	.LC74:
 6196 0a14 6C776970 		.ascii	"lwip_socket(%d, %d/UNKNOWN, %d) = -1\012\000"
 6196      5F736F63 
 6196      6B657428 
 6196      25642C20 
 6196      25642F55 
 6197 0a3a 0000     		.space	2
 6198              	.LC75:
 6199 0a3c 25640A00 		.ascii	"%d\012\000"
 6200              	.LC76:
 6201 0a40 6C776970 		.ascii	"lwip_select(%d, %p, %p, %p, tvsec=%d tvusec=%d)\012"
 6201      5F73656C 
 6201      65637428 
 6201      25642C20 
 6201      25702C20 
 6202 0a70 00       		.ascii	"\000"
 6203 0a71 000000   		.space	3
 6204              	.LC77:
 6205 0a74 6C776970 		.ascii	"lwip_select: no timeout, returning 0\012\000"
 6205      5F73656C 
 6205      6563743A 
 6205      206E6F20 
 6205      74696D65 
 6206 0a9a 0000     		.space	2
 6207              	.LC78:
 6208 0a9c 736F636B 		.ascii	"sock->select_waiting > 0\000"
 6208      2D3E7365 
 6208      6C656374 
 6208      5F776169 
 6208      74696E67 
 6209 0ab5 000000   		.space	3
 6210              	.LC79:
 6211 0ab8 736F636B 		.ascii	"sock->select_waiting >= 0\000"
 6211      2D3E7365 
 6211      6C656374 
 6211      5F776169 
 6211      74696E67 
 6212 0ad2 0000     		.space	2
 6213              	.LC80:
 6214 0ad4 73656C65 		.ascii	"select_cb.prev == NULL\000"
 6214      63745F63 
 6214      622E7072 
 6214      6576203D 
 6214      3D204E55 
 6215 0aeb 00       		.space	1
ARM GAS  C:\Users\jo\AppData\Local\Temp\ccpKXchH.s 			page 116


 6216              	.LC81:
 6217 0aec 73656C65 		.ascii	"select_cb.prev != NULL\000"
 6217      63745F63 
 6217      622E7072 
 6217      65762021 
 6217      3D204E55 
 6218 0b03 00       		.space	1
 6219              	.LC82:
 6220 0b04 6C776970 		.ascii	"lwip_select: timeout expired\012\000"
 6220      5F73656C 
 6220      6563743A 
 6220      2074696D 
 6220      656F7574 
 6221 0b22 0000     		.space	2
 6222              	.LC83:
 6223 0b24 6C776970 		.ascii	"lwip_select: nready=%d\012\000"
 6223      5F73656C 
 6223      6563743A 
 6223      206E7265 
 6223      6164793D 
 6224              	.LC84:
 6225 0b3c 736F636B 		.ascii	"sock != NULL\000"
 6225      20213D20 
 6225      4E554C4C 
 6225      00
 6226 0b49 000000   		.space	3
 6227              	.LC85:
 6228 0b4c 6C776970 		.ascii	"lwip_shutdown(%d, how=%d)\012\000"
 6228      5F736875 
 6228      74646F77 
 6228      6E282564 
 6228      2C20686F 
 6229 0b67 00       		.space	1
 6230              	.LC86:
 6231 0b68 6C776970 		.ascii	"lwip_getsockopt(%d, SOL_SOCKET, UNIMPL: optname=0x%"
 6231      5F676574 
 6231      736F636B 
 6231      6F707428 
 6231      25642C20 
 6232 0b9b 782C202E 		.ascii	"x, ..)\012\000"
 6232      2E290A00 
 6233 0ba3 00       		.space	1
 6234              	.LC87:
 6235 0ba4 6C776970 		.ascii	"lwip_getsockopt(%d, IPPROTO_IP, UNIMPL: optname=0x%"
 6235      5F676574 
 6235      736F636B 
 6235      6F707428 
 6235      25642C20 
 6236 0bd7 782C202E 		.ascii	"x, ..)\012\000"
 6236      2E290A00 
 6237 0bdf 00       		.space	1
 6238              	.LC88:
 6239 0be0 6C776970 		.ascii	"lwip_getsockopt(%d, IPPROTO_TCP, UNIMPL: optname=0x"
 6239      5F676574 
 6239      736F636B 
 6239      6F707428 
 6239      25642C20 
ARM GAS  C:\Users\jo\AppData\Local\Temp\ccpKXchH.s 			page 117


 6240 0c13 25782C20 		.ascii	"%x, ..)\012\000"
 6240      2E2E290A 
 6240      00
 6241              	.LC89:
 6242 0c1c 6C776970 		.ascii	"lwip_getsockopt(%d, level=0x%x, UNIMPL: optname=0x%"
 6242      5F676574 
 6242      736F636B 
 6242      6F707428 
 6242      25642C20 
 6243 0c4f 782C202E 		.ascii	"x, ..)\012\000"
 6243      2E290A00 
 6244 0c57 00       		.space	1
 6245              	.LC90:
 6246 0c58 6C776970 		.ascii	"lwip_setsockopt(%d, SOL_SOCKET, UNIMPL: optname=0x%"
 6246      5F736574 
 6246      736F636B 
 6246      6F707428 
 6246      25642C20 
 6247 0c8b 782C202E 		.ascii	"x, ..)\012\000"
 6247      2E290A00 
 6248 0c93 00       		.space	1
 6249              	.LC91:
 6250 0c94 6C776970 		.ascii	"lwip_setsockopt(%d, IPPROTO_IP, UNIMPL: optname=0x%"
 6250      5F736574 
 6250      736F636B 
 6250      6F707428 
 6250      25642C20 
 6251 0cc7 782C202E 		.ascii	"x, ..)\012\000"
 6251      2E290A00 
 6252 0ccf 00       		.space	1
 6253              	.LC92:
 6254 0cd0 6C776970 		.ascii	"lwip_setsockopt(%d, IPPROTO_TCP, UNIMPL: optname=0x"
 6254      5F736574 
 6254      736F636B 
 6254      6F707428 
 6254      25642C20 
 6255 0d03 25782C20 		.ascii	"%x, ..)\012\000"
 6255      2E2E290A 
 6255      00
 6256              	.LC93:
 6257 0d0c 6C776970 		.ascii	"lwip_setsockopt(%d, level=0x%x, UNIMPL: optname=0x%"
 6257      5F736574 
 6257      736F636B 
 6257      6F707428 
 6257      25642C20 
 6258 0d3f 782C202E 		.ascii	"x, ..)\012\000"
 6258      2E290A00 
 6259 0d47 00       		.space	1
 6260              	.LC94:
 6261 0d48 6C776970 		.ascii	"lwip_ioctl(%d, FIONBIO, %d)\012\000"
 6261      5F696F63 
 6261      746C2825 
 6261      642C2046 
 6261      494F4E42 
 6262 0d65 000000   		.space	3
 6263              	.LC95:
 6264 0d68 6C776970 		.ascii	"lwip_ioctl(%d, UNIMPL: 0x%lx, %p)\012\000"
ARM GAS  C:\Users\jo\AppData\Local\Temp\ccpKXchH.s 			page 118


 6264      5F696F63 
 6264      746C2825 
 6264      642C2055 
 6264      4E494D50 
 6265 0d8b 00       		.space	1
 6266              	.LC96:
 6267 0d8c 6C776970 		.ascii	"lwip_fcntl(%d, UNIMPL: %d, %d)\012\000"
 6267      5F66636E 
 6267      746C2825 
 6267      642C2055 
 6267      4E494D50 
 6268              		.text
 6269              	.Letext0:
 6270              		.file 4 "c:\\program files\\gnu tools arm embedded\\4.9 2014q4\\lib\\gcc\\arm-none-eabi\\4.9.3\\in
 6271              		.file 5 "c:\\program files\\gnu tools arm embedded\\4.9 2014q4\\arm-none-eabi\\include\\machine\\_
 6272              		.file 6 "c:\\program files\\gnu tools arm embedded\\4.9 2014q4\\arm-none-eabi\\include\\stdint.h"
 6273              		.file 7 "../../../os/rt/ports/ARMCMx/compilers/GCC/chtypes.h"
 6274              		.file 8 "../../../os/rt/include/chsystypes.h"
 6275              		.file 9 "../../../os/rt/include/chschd.h"
 6276              		.file 10 "../../../os/rt/ports/ARMCMx/chcore.h"
 6277              		.file 11 "../../../os/rt/ports/ARMCMx/chcore_v7m.h"
 6278              		.file 12 "c:\\program files\\gnu tools arm embedded\\4.9 2014q4\\lib\\gcc\\arm-none-eabi\\4.9.3\\i
 6279              		.file 13 "<built-in>"
 6280              		.file 14 "c:\\program files\\gnu tools arm embedded\\4.9 2014q4\\arm-none-eabi\\include\\sys\\type
 6281              		.file 15 "../../../os/rt/include/chdebug.h"
 6282              		.file 16 "../../../os/rt/include/chtm.h"
 6283              		.file 17 "../../../os/rt/include/chstats.h"
 6284              		.file 18 "../../../os/rt/include/chmtx.h"
 6285              		.file 19 "../../../os/rt/include/chsem.h"
 6286              		.file 20 "../../../os/rt/include/chmboxes.h"
 6287              		.file 21 "../../../os/rt/include/chstreams.h"
 6288              		.file 22 "./ITM_trace.h"
 6289              		.file 23 "../../../os/various/lwip_bindings/arch/cc.h"
 6290              		.file 24 "../../../os/ext/lwip-1.4.1/src/include/ipv4/lwip/ip_addr.h"
 6291              		.file 25 "../../../os/ext/lwip-1.4.1/src/include/ipv4/lwip/inet.h"
 6292              		.file 26 "../../../os/ext/lwip-1.4.1/src/include/lwip/sockets.h"
 6293              		.file 27 "../../../os/ext/lwip-1.4.1/src/include/lwip/err.h"
 6294              		.file 28 "../../../os/ext/lwip-1.4.1/src/include/lwip/pbuf.h"
 6295              		.file 29 "../../../os/ext/lwip-1.4.1/src/include/lwip/netbuf.h"
 6296              		.file 30 "../../../os/various/lwip_bindings/arch/sys_arch.h"
 6297              		.file 31 "../../../os/ext/lwip-1.4.1/src/include/lwip/api.h"
 6298              		.file 32 "../../../os/ext/lwip-1.4.1/src/include/ipv4/lwip/ip.h"
 6299              		.file 33 "../../../os/ext/lwip-1.4.1/src/include/lwip/tcp.h"
 6300              		.file 34 "../../../os/ext/lwip-1.4.1/src/include/lwip/udp.h"
 6301              		.file 35 "../../../os/ext/lwip-1.4.1/src/include/lwip/api_msg.h"
 6302              		.file 36 "../../../os/ext/lwip-1.4.1/src/include/lwip/tcpip.h"
 6303              		.file 37 "../../../os/ext/CMSIS/include/core_cm4.h"
 6304              		.file 38 "../../../os/rt/include/chsys.h"
 6305              		.file 39 "../../../os/ext/lwip-1.4.1/src/include/lwip/sys.h"
 6306              		.file 40 "../../../os/ext/lwip-1.4.1/src/include/lwip/def.h"