ARM GAS  C:\Users\jo\AppData\Local\Temp\ccRRz0eu.s 			page 1


   1              		.syntax unified
   2              		.cpu cortex-m4
   3              		.fpu softvfp
   4              		.eabi_attribute 20, 1
   5              		.eabi_attribute 21, 1
   6              		.eabi_attribute 23, 3
   7              		.eabi_attribute 24, 1
   8              		.eabi_attribute 25, 1
   9              		.eabi_attribute 26, 1
  10              		.eabi_attribute 30, 2
  11              		.eabi_attribute 34, 1
  12              		.eabi_attribute 18, 4
  13              		.thumb
  14              		.file	"ssl_cache.c"
  15              		.text
  16              	.Ltext0:
  17              		.cfi_sections	.debug_frame
  18              		.section	.text.ssl_cache_init,"ax",%progbits
  19              		.align	2
  20              		.p2align 4,,15
  21              		.global	ssl_cache_init
  22              		.thumb
  23              		.thumb_func
  24              		.type	ssl_cache_init, %function
  25              	ssl_cache_init:
  26              	.LFB1:
  27              		.file 1 "../../../os/ext/PolarSSL/library/ssl_cache.c"
  28              		.loc 1 39 0
  29              		.cfi_startproc
  30              		@ args = 0, pretend = 0, frame = 0
  31              		@ frame_needed = 0, uses_anonymous_args = 0
  32              		@ link register save eliminated.
  33              	.LVL0:
  34              		.loc 1 40 0
  35 0000 0346     		mov	r3, r0
  36 0002 0022     		movs	r2, #0
  37 0004 03F8012B 		strb	r2, [r3], #1
  38 0008 0133     		adds	r3, r3, #1
  39 000a 4270     		strb	r2, [r0, #1]
  40 000c 03F8012B 		strb	r2, [r3], #1
  41 0010 03F8012B 		strb	r2, [r3], #1
  42 0014 03F8012B 		strb	r2, [r3], #1
  43 0018 03F8012B 		strb	r2, [r3], #1
  44 001c 03F8012B 		strb	r2, [r3], #1
  45 0020 03F8012B 		strb	r2, [r3], #1
  46 0024 03F8012B 		strb	r2, [r3], #1
  47 0028 03F8012B 		strb	r2, [r3], #1
  48 002c 03F8012B 		strb	r2, [r3], #1
  49              		.loc 1 42 0
  50 0030 0249     		ldr	r1, .L2
  51              		.loc 1 40 0
  52 0032 1A70     		strb	r2, [r3]
  53              		.loc 1 43 0
  54 0034 3223     		movs	r3, #50
  55              		.loc 1 42 0
  56 0036 4160     		str	r1, [r0, #4]
  57              		.loc 1 43 0
ARM GAS  C:\Users\jo\AppData\Local\Temp\ccRRz0eu.s 			page 2


  58 0038 8360     		str	r3, [r0, #8]
  59 003a 7047     		bx	lr
  60              	.L3:
  61              		.align	2
  62              	.L2:
  63 003c 80510100 		.word	86400
  64              		.cfi_endproc
  65              	.LFE1:
  66              		.size	ssl_cache_init, .-ssl_cache_init
  67              		.section	.text.ssl_cache_get,"ax",%progbits
  68              		.align	2
  69              		.p2align 4,,15
  70              		.global	ssl_cache_get
  71              		.thumb
  72              		.thumb_func
  73              		.type	ssl_cache_get, %function
  74              	ssl_cache_get:
  75              	.LFB2:
  76              		.loc 1 47 0
  77              		.cfi_startproc
  78              		@ args = 0, pretend = 0, frame = 0
  79              		@ frame_needed = 0, uses_anonymous_args = 0
  80              	.LVL1:
  81 0000 2DE9F047 		push	{r4, r5, r6, r7, r8, r9, r10, lr}
  82              		.cfi_def_cfa_offset 32
  83              		.cfi_offset 4, -32
  84              		.cfi_offset 5, -28
  85              		.cfi_offset 6, -24
  86              		.cfi_offset 7, -20
  87              		.cfi_offset 8, -16
  88              		.cfi_offset 9, -12
  89              		.cfi_offset 10, -8
  90              		.cfi_offset 14, -4
  91              		.loc 1 47 0
  92 0004 0546     		mov	r5, r0
  93              		.loc 1 48 0
  94 0006 0020     		movs	r0, #0
  95              	.LVL2:
  96              		.loc 1 47 0
  97 0008 0F46     		mov	r7, r1
  98              		.loc 1 48 0
  99 000a FFF7FEFF 		bl	time
 100              	.LVL3:
 101              		.loc 1 52 0
 102 000e 2C68     		ldr	r4, [r5]
 103              	.LVL4:
 104              		.loc 1 55 0
 105 0010 002C     		cmp	r4, #0
 106 0012 50D0     		beq	.L26
 107 0014 8046     		mov	r8, r0
 108              	.LVL5:
 109 0016 6E68     		ldr	r6, [r5, #4]
 110              		.loc 1 69 0
 111 0018 07F11009 		add	r9, r7, #16
 112 001c 02E0     		b	.L13
 113              	.LVL6:
 114              	.L8:
ARM GAS  C:\Users\jo\AppData\Local\Temp\ccRRz0eu.s 			page 3


 115              		.loc 1 55 0
 116 001e 2C46     		mov	r4, r5
 117              	.LVL7:
 118 0020 002D     		cmp	r5, #0
 119 0022 48D0     		beq	.L26
 120              	.LVL8:
 121              	.L13:
 122              		.loc 1 58 0
 123 0024 656F     		ldr	r5, [r4, #116]
 124              	.LVL9:
 125              		.loc 1 60 0
 126 0026 26B1     		cbz	r6, .L7
 127              		.loc 1 61 0 discriminator 1
 128 0028 2368     		ldr	r3, [r4]
 129 002a C3EB0803 		rsb	r3, r3, r8
 130              		.loc 1 60 0 discriminator 1
 131 002e B342     		cmp	r3, r6
 132 0030 F5DC     		bgt	.L8
 133              	.L7:
 134              		.loc 1 64 0
 135 0032 7A68     		ldr	r2, [r7, #4]
 136 0034 A368     		ldr	r3, [r4, #8]
 137 0036 9A42     		cmp	r2, r3
 138 0038 F1D1     		bne	.L8
 139              		.loc 1 64 0 is_stmt 0 discriminator 1
 140 003a BA68     		ldr	r2, [r7, #8]
 141 003c E368     		ldr	r3, [r4, #12]
 142 003e 9A42     		cmp	r2, r3
 143 0040 EDD1     		bne	.L8
 144              		.loc 1 66 0 is_stmt 1
 145 0042 FA68     		ldr	r2, [r7, #12]
 146              		.loc 1 65 0
 147 0044 2369     		ldr	r3, [r4, #16]
 148 0046 9A42     		cmp	r2, r3
 149 0048 E9D1     		bne	.L8
 150              		.loc 1 69 0
 151 004a 4846     		mov	r0, r9
 152 004c 04F11401 		add	r1, r4, #20
 153 0050 FFF7FEFF 		bl	memcmp
 154              	.LVL10:
 155 0054 8246     		mov	r10, r0
 156 0056 0028     		cmp	r0, #0
 157 0058 E1D1     		bne	.L8
 158              		.loc 1 73 0
 159 005a 04F13403 		add	r3, r4, #52
 160 005e 07F13002 		add	r2, r7, #48
 161 0062 04F16401 		add	r1, r4, #100
 162              	.LVL11:
 163              	.L9:
 164 0066 1E68     		ldr	r6, [r3]	@ unaligned
 165 0068 5D68     		ldr	r5, [r3, #4]	@ unaligned
 166 006a 9868     		ldr	r0, [r3, #8]	@ unaligned
 167 006c D3F80CE0 		ldr	lr, [r3, #12]	@ unaligned
 168 0070 C2F80CE0 		str	lr, [r2, #12]	@ unaligned
 169 0074 1033     		adds	r3, r3, #16
 170 0076 8B42     		cmp	r3, r1
 171 0078 1660     		str	r6, [r2]	@ unaligned
ARM GAS  C:\Users\jo\AppData\Local\Temp\ccRRz0eu.s 			page 4


 172 007a 5560     		str	r5, [r2, #4]	@ unaligned
 173 007c 9060     		str	r0, [r2, #8]	@ unaligned
 174 007e 02F11002 		add	r2, r2, #16
 175 0082 F0D1     		bne	.L9
 176              		.loc 1 78 0
 177 0084 236F     		ldr	r3, [r4, #112]
 178 0086 C3B1     		cbz	r3, .L6
 179              		.loc 1 80 0
 180 0088 4FF4E670 		mov	r0, #460
 181 008c FFF7FEFF 		bl	malloc
 182              	.LVL12:
 183 0090 0546     		mov	r5, r0
 184 0092 3866     		str	r0, [r7, #96]
 185              		.loc 1 81 0
 186 0094 78B1     		cbz	r0, .L26
 187              		.loc 1 84 0
 188 0096 0021     		movs	r1, #0
 189 0098 4FF4E672 		mov	r2, #460
 190 009c FFF7FEFF 		bl	memset
 191              	.LVL13:
 192              		.loc 1 85 0
 193 00a0 2846     		mov	r0, r5
 194 00a2 216F     		ldr	r1, [r4, #112]
 195 00a4 E26E     		ldr	r2, [r4, #108]
 196 00a6 FFF7FEFF 		bl	x509parse_crt
 197              	.LVL14:
 198 00aa 30B1     		cbz	r0, .L6
 199              		.loc 1 88 0
 200 00ac 386E     		ldr	r0, [r7, #96]
 201 00ae FFF7FEFF 		bl	free
 202              	.LVL15:
 203              		.loc 1 89 0
 204 00b2 0023     		movs	r3, #0
 205 00b4 3B66     		str	r3, [r7, #96]
 206              	.LVL16:
 207              	.L26:
 208              		.loc 1 90 0
 209 00b6 4FF0010A 		mov	r10, #1
 210              	.L6:
 211              		.loc 1 98 0
 212 00ba 5046     		mov	r0, r10
 213 00bc BDE8F087 		pop	{r4, r5, r6, r7, r8, r9, r10, pc}
 214              		.cfi_endproc
 215              	.LFE2:
 216              		.size	ssl_cache_get, .-ssl_cache_get
 217              		.section	.text.ssl_cache_set,"ax",%progbits
 218              		.align	2
 219              		.p2align 4,,15
 220              		.global	ssl_cache_set
 221              		.thumb
 222              		.thumb_func
 223              		.type	ssl_cache_set, %function
 224              	ssl_cache_set:
 225              	.LFB3:
 226              		.loc 1 101 0
 227              		.cfi_startproc
 228              		@ args = 0, pretend = 0, frame = 8
ARM GAS  C:\Users\jo\AppData\Local\Temp\ccRRz0eu.s 			page 5


 229              		@ frame_needed = 0, uses_anonymous_args = 0
 230              	.LVL17:
 231 0000 2DE9F04F 		push	{r4, r5, r6, r7, r8, r9, r10, fp, lr}
 232              		.cfi_def_cfa_offset 36
 233              		.cfi_offset 4, -36
 234              		.cfi_offset 5, -32
 235              		.cfi_offset 6, -28
 236              		.cfi_offset 7, -24
 237              		.cfi_offset 8, -20
 238              		.cfi_offset 9, -16
 239              		.cfi_offset 10, -12
 240              		.cfi_offset 11, -8
 241              		.cfi_offset 14, -4
 242 0004 83B0     		sub	sp, sp, #12
 243              		.cfi_def_cfa_offset 48
 244              		.loc 1 101 0
 245 0006 0446     		mov	r4, r0
 246 0008 0190     		str	r0, [sp, #4]
 247              		.loc 1 102 0
 248 000a 0020     		movs	r0, #0
 249              	.LVL18:
 250              		.loc 1 101 0
 251 000c 0D46     		mov	r5, r1
 252 000e 0091     		str	r1, [sp]
 253              		.loc 1 102 0
 254 0010 FFF7FEFF 		bl	time
 255              	.LVL19:
 256              		.loc 1 107 0
 257 0014 2246     		mov	r2, r4
 258 0016 2468     		ldr	r4, [r4]
 259              	.LVL20:
 260              		.loc 1 102 0
 261 0018 8146     		mov	r9, r0
 262              	.LVL21:
 263              		.loc 1 110 0
 264 001a 002C     		cmp	r4, #0
 265 001c 00F08280 		beq	.L29
 266 0020 4FF0000B 		mov	fp, #0
 267 0024 5668     		ldr	r6, [r2, #4]
 268 0026 5F46     		mov	r7, fp
 269 0028 DA46     		mov	r10, fp
 270              		.loc 1 121 0
 271 002a 05F11008 		add	r8, r5, #16
 272              	.LVL22:
 273              	.L35:
 274 002e 04F11401 		add	r1, r4, #20
 275 0032 4046     		mov	r0, r8
 276              		.loc 1 112 0
 277 0034 0BF1010B 		add	fp, fp, #1
 278              	.LVL23:
 279              		.loc 1 114 0
 280 0038 26B1     		cbz	r6, .L30
 281              		.loc 1 115 0 discriminator 1
 282 003a 2268     		ldr	r2, [r4]
 283 003c C2EB0902 		rsb	r2, r2, r9
 284              		.loc 1 114 0 discriminator 1
 285 0040 9642     		cmp	r6, r2
ARM GAS  C:\Users\jo\AppData\Local\Temp\ccRRz0eu.s 			page 6


 286 0042 46DB     		blt	.L67
 287              	.L30:
 288              		.loc 1 121 0
 289 0044 2269     		ldr	r2, [r4, #16]
 290 0046 FFF7FEFF 		bl	memcmp
 291              	.LVL24:
 292 004a 70B1     		cbz	r0, .L45
 293              		.loc 1 124 0
 294 004c BAF1000F 		cmp	r10, #0
 295 0050 06D1     		bne	.L32
 296 0052 D4F800A0 		ldr	r10, [r4]
 297              	.LVL25:
 298              	.L33:
 299 0056 2746     		mov	r7, r4
 300              	.LVL26:
 301              	.L34:
 302              		.loc 1 131 0
 303 0058 656F     		ldr	r5, [r4, #116]
 304              	.LVL27:
 305              		.loc 1 110 0
 306 005a 0DB3     		cbz	r5, .L68
 307 005c 2C46     		mov	r4, r5
 308              	.LVL28:
 309 005e E6E7     		b	.L35
 310              	.LVL29:
 311              	.L32:
 312              		.loc 1 124 0 discriminator 1
 313 0060 2268     		ldr	r2, [r4]
 314 0062 5245     		cmp	r2, r10
 315 0064 F8DA     		bge	.L34
 316 0066 9246     		mov	r10, r2
 317              	.LVL30:
 318 0068 F5E7     		b	.L33
 319              	.LVL31:
 320              	.L45:
 321 006a 2746     		mov	r7, r4
 322              	.L31:
 323              	.LVL32:
 324 006c 261D     		adds	r6, r4, #4
 325              	.LVL33:
 326              	.L41:
 327              		.loc 1 166 0
 328 006e 009C     		ldr	r4, [sp]
 329 0070 3046     		mov	r0, r6
 330 0072 2146     		mov	r1, r4
 331 0074 6422     		movs	r2, #100
 332 0076 FFF7FEFF 		bl	memcpy
 333              	.LVL34:
 334              		.loc 1 171 0
 335 007a 246E     		ldr	r4, [r4, #96]
 336 007c 2CB3     		cbz	r4, .L47
 337              		.loc 1 173 0
 338 007e 6568     		ldr	r5, [r4, #4]
 339 0080 2846     		mov	r0, r5
 340 0082 FFF7FEFF 		bl	malloc
 341              	.LVL35:
 342 0086 3867     		str	r0, [r7, #112]
ARM GAS  C:\Users\jo\AppData\Local\Temp\ccRRz0eu.s 			page 7


 343              		.loc 1 174 0
 344 0088 D8B1     		cbz	r0, .L40
 345              		.loc 1 177 0
 346 008a 2A46     		mov	r2, r5
 347 008c A168     		ldr	r1, [r4, #8]
 348 008e FFF7FEFF 		bl	memcpy
 349              	.LVL36:
 350              		.loc 1 179 0
 351 0092 6368     		ldr	r3, [r4, #4]
 352 0094 FB66     		str	r3, [r7, #108]
 353              		.loc 1 181 0
 354 0096 0020     		movs	r0, #0
 355 0098 7866     		str	r0, [r7, #100]
 356              		.loc 1 185 0
 357 009a 03B0     		add	sp, sp, #12
 358              		.cfi_remember_state
 359              		.cfi_def_cfa_offset 36
 360              	.LVL37:
 361              		@ sp needed
 362 009c BDE8F08F 		pop	{r4, r5, r6, r7, r8, r9, r10, fp, pc}
 363              	.LVL38:
 364              	.L68:
 365              		.cfi_restore_state
 366              		.loc 1 139 0
 367 00a0 1FB1     		cbz	r7, .L37
 368              		.loc 1 139 0 is_stmt 0 discriminator 1
 369 00a2 019B     		ldr	r3, [sp, #4]
 370 00a4 9B68     		ldr	r3, [r3, #8]
 371 00a6 5B45     		cmp	r3, fp
 372 00a8 17DD     		ble	.L69
 373              	.L37:
 374              		.loc 1 151 0 is_stmt 1
 375 00aa 7820     		movs	r0, #120
 376 00ac FFF7FEFF 		bl	malloc
 377              	.LVL39:
 378              		.loc 1 152 0
 379 00b0 0746     		mov	r7, r0
 380 00b2 30B1     		cbz	r0, .L40
 381              		.loc 1 155 0
 382 00b4 0021     		movs	r1, #0
 383 00b6 7822     		movs	r2, #120
 384 00b8 FFF7FEFF 		bl	memset
 385              	.LVL40:
 386 00bc 3E1D     		adds	r6, r7, #4
 387              		.loc 1 160 0
 388 00be 6767     		str	r7, [r4, #116]
 389 00c0 2DE0     		b	.L38
 390              	.LVL41:
 391              	.L40:
 392              		.loc 1 153 0
 393 00c2 0120     		movs	r0, #1
 394              		.loc 1 185 0
 395 00c4 03B0     		add	sp, sp, #12
 396              		.cfi_remember_state
 397              		.cfi_def_cfa_offset 36
 398              	.LVL42:
 399              		@ sp needed
ARM GAS  C:\Users\jo\AppData\Local\Temp\ccRRz0eu.s 			page 8


 400 00c6 BDE8F08F 		pop	{r4, r5, r6, r7, r8, r9, r10, fp, pc}
 401              	.LVL43:
 402              	.L47:
 403              		.cfi_restore_state
 404              		.loc 1 184 0
 405 00ca 2046     		mov	r0, r4
 406              		.loc 1 185 0
 407 00cc 03B0     		add	sp, sp, #12
 408              		.cfi_remember_state
 409              		.cfi_def_cfa_offset 36
 410              	.LVL44:
 411              		@ sp needed
 412 00ce BDE8F08F 		pop	{r4, r5, r6, r7, r8, r9, r10, fp, pc}
 413              	.LVL45:
 414              	.L67:
 415              		.cfi_restore_state
 416              		.loc 1 117 0
 417 00d2 C4F80090 		str	r9, [r4]
 418              		.loc 1 118 0
 419 00d6 2746     		mov	r7, r4
 420 00d8 C8E7     		b	.L31
 421              	.LVL46:
 422              	.L69:
 423              		.loc 1 142 0
 424 00da 3E1D     		adds	r6, r7, #4
 425 00dc 3046     		mov	r0, r6
 426 00de 2946     		mov	r1, r5
 427 00e0 6422     		movs	r2, #100
 428 00e2 FFF7FEFF 		bl	memset
 429              	.LVL47:
 430              		.loc 1 143 0
 431 00e6 386F     		ldr	r0, [r7, #112]
 432 00e8 C8B1     		cbz	r0, .L38
 433              		.loc 1 145 0
 434 00ea FFF7FEFF 		bl	free
 435              	.LVL48:
 436              		.loc 1 146 0
 437 00ee 87F86850 		strb	r5, [r7, #104]
 438 00f2 87F86950 		strb	r5, [r7, #105]
 439 00f6 87F86A50 		strb	r5, [r7, #106]
 440 00fa 87F86B50 		strb	r5, [r7, #107]
 441 00fe 87F86C50 		strb	r5, [r7, #108]
 442 0102 87F86D50 		strb	r5, [r7, #109]
 443 0106 87F86E50 		strb	r5, [r7, #110]
 444 010a 87F86F50 		strb	r5, [r7, #111]
 445 010e 87F87050 		strb	r5, [r7, #112]
 446 0112 87F87150 		strb	r5, [r7, #113]
 447 0116 87F87250 		strb	r5, [r7, #114]
 448 011a 87F87350 		strb	r5, [r7, #115]
 449              	.LVL49:
 450              	.L38:
 451              		.loc 1 163 0
 452 011e C7F80090 		str	r9, [r7]
 453 0122 A4E7     		b	.L41
 454              	.LVL50:
 455              	.L29:
 456              		.loc 1 151 0
ARM GAS  C:\Users\jo\AppData\Local\Temp\ccRRz0eu.s 			page 9


 457 0124 7820     		movs	r0, #120
 458              	.LVL51:
 459 0126 FFF7FEFF 		bl	malloc
 460              	.LVL52:
 461              		.loc 1 152 0
 462 012a 0746     		mov	r7, r0
 463 012c 0028     		cmp	r0, #0
 464 012e C8D0     		beq	.L40
 465              		.loc 1 155 0
 466 0130 2146     		mov	r1, r4
 467 0132 7822     		movs	r2, #120
 468 0134 FFF7FEFF 		bl	memset
 469              	.LVL53:
 470              		.loc 1 158 0
 471 0138 019B     		ldr	r3, [sp, #4]
 472 013a 3E1D     		adds	r6, r7, #4
 473 013c 1F60     		str	r7, [r3]
 474 013e EEE7     		b	.L38
 475              		.cfi_endproc
 476              	.LFE3:
 477              		.size	ssl_cache_set, .-ssl_cache_set
 478              		.section	.text.ssl_cache_set_timeout,"ax",%progbits
 479              		.align	2
 480              		.p2align 4,,15
 481              		.global	ssl_cache_set_timeout
 482              		.thumb
 483              		.thumb_func
 484              		.type	ssl_cache_set_timeout, %function
 485              	ssl_cache_set_timeout:
 486              	.LFB4:
 487              		.loc 1 188 0
 488              		.cfi_startproc
 489              		@ args = 0, pretend = 0, frame = 0
 490              		@ frame_needed = 0, uses_anonymous_args = 0
 491              		@ link register save eliminated.
 492              	.LVL54:
 493 0000 21EAE171 		bic	r1, r1, r1, asr #31
 494              	.LVL55:
 495              		.loc 1 191 0
 496 0004 4160     		str	r1, [r0, #4]
 497 0006 7047     		bx	lr
 498              		.cfi_endproc
 499              	.LFE4:
 500              		.size	ssl_cache_set_timeout, .-ssl_cache_set_timeout
 501 0008 AFF30080 		.section	.text.ssl_cache_set_max_entries,"ax",%progbits
 501      AFF30080 
 502              		.align	2
 503              		.p2align 4,,15
 504              		.global	ssl_cache_set_max_entries
 505              		.thumb
 506              		.thumb_func
 507              		.type	ssl_cache_set_max_entries, %function
 508              	ssl_cache_set_max_entries:
 509              	.LFB5:
 510              		.loc 1 195 0
 511              		.cfi_startproc
 512              		@ args = 0, pretend = 0, frame = 0
ARM GAS  C:\Users\jo\AppData\Local\Temp\ccRRz0eu.s 			page 10


 513              		@ frame_needed = 0, uses_anonymous_args = 0
 514              		@ link register save eliminated.
 515              	.LVL56:
 516 0000 21EAE171 		bic	r1, r1, r1, asr #31
 517              	.LVL57:
 518              		.loc 1 198 0
 519 0004 8160     		str	r1, [r0, #8]
 520 0006 7047     		bx	lr
 521              		.cfi_endproc
 522              	.LFE5:
 523              		.size	ssl_cache_set_max_entries, .-ssl_cache_set_max_entries
 524 0008 AFF30080 		.section	.text.ssl_cache_free,"ax",%progbits
 524      AFF30080 
 525              		.align	2
 526              		.p2align 4,,15
 527              		.global	ssl_cache_free
 528              		.thumb
 529              		.thumb_func
 530              		.type	ssl_cache_free, %function
 531              	ssl_cache_free:
 532              	.LFB6:
 533              		.loc 1 202 0
 534              		.cfi_startproc
 535              		@ args = 0, pretend = 0, frame = 0
 536              		@ frame_needed = 0, uses_anonymous_args = 0
 537              	.LVL58:
 538 0000 38B5     		push	{r3, r4, r5, lr}
 539              		.cfi_def_cfa_offset 16
 540              		.cfi_offset 3, -16
 541              		.cfi_offset 4, -12
 542              		.cfi_offset 5, -8
 543              		.cfi_offset 14, -4
 544              		.loc 1 205 0
 545 0002 0468     		ldr	r4, [r0]
 546              	.LVL59:
 547              		.loc 1 207 0
 548 0004 74B1     		cbz	r4, .L72
 549              	.LVL60:
 550              	.L75:
 551              		.loc 1 212 0
 552 0006 201D     		adds	r0, r4, #4
 553              		.loc 1 210 0
 554 0008 656F     		ldr	r5, [r4, #116]
 555              	.LVL61:
 556              		.loc 1 212 0
 557 000a FFF7FEFF 		bl	ssl_session_free
 558              	.LVL62:
 559              		.loc 1 214 0
 560 000e 236F     		ldr	r3, [r4, #112]
 561              		.loc 1 215 0
 562 0010 1846     		mov	r0, r3
 563              		.loc 1 214 0
 564 0012 0BB1     		cbz	r3, .L74
 565              		.loc 1 215 0
 566 0014 FFF7FEFF 		bl	free
 567              	.LVL63:
 568              	.L74:
ARM GAS  C:\Users\jo\AppData\Local\Temp\ccRRz0eu.s 			page 11


 569              		.loc 1 217 0
 570 0018 2046     		mov	r0, r4
 571 001a FFF7FEFF 		bl	free
 572              	.LVL64:
 573              		.loc 1 207 0
 574 001e 2C46     		mov	r4, r5
 575              	.LVL65:
 576 0020 002D     		cmp	r5, #0
 577 0022 F0D1     		bne	.L75
 578              	.LVL66:
 579              	.L72:
 580 0024 38BD     		pop	{r3, r4, r5, pc}
 581              		.cfi_endproc
 582              	.LFE6:
 583              		.size	ssl_cache_free, .-ssl_cache_free
 584 0026 00BFAFF3 		.text
 584      0080AFF3 
 584      0080
 585              	.Letext0:
 586              		.file 2 "c:\\program files\\gnu tools arm embedded\\4.9 2014q4\\lib\\gcc\\arm-none-eabi\\4.9.3\\in
 587              		.file 3 "c:\\program files\\gnu tools arm embedded\\4.9 2014q4\\arm-none-eabi\\include\\machine\\_
 588              		.file 4 "c:\\program files\\gnu tools arm embedded\\4.9 2014q4\\arm-none-eabi\\include\\sys\\types
 589              		.file 5 "c:\\program files\\gnu tools arm embedded\\4.9 2014q4\\arm-none-eabi\\include\\stdint.h"
 590              		.file 6 "../../../demos/STM32/RT-STM32F407-DISCOVERY-uHttp/uhttp-1.1/PolarSSL/include/polarssl/big
 591              		.file 7 "../../../demos/STM32/RT-STM32F407-DISCOVERY-uHttp/uhttp-1.1/PolarSSL/include/polarssl/rsa
 592              		.file 8 "../../../demos/STM32/RT-STM32F407-DISCOVERY-uHttp/uhttp-1.1/PolarSSL/include/polarssl/asn
 593              		.file 9 "../../../demos/STM32/RT-STM32F407-DISCOVERY-uHttp/uhttp-1.1/PolarSSL/include/polarssl/x50
 594              		.file 10 "../../../demos/STM32/RT-STM32F407-DISCOVERY-uHttp/uhttp-1.1/PolarSSL/include/polarssl/ss
 595              		.file 11 "../../../demos/STM32/RT-STM32F407-DISCOVERY-uHttp/uhttp-1.1/PolarSSL/include/polarssl/ss
 596              		.file 12 "c:\\program files\\gnu tools arm embedded\\4.9 2014q4\\arm-none-eabi\\include\\time.h"
 597              		.file 13 "c:\\program files\\gnu tools arm embedded\\4.9 2014q4\\arm-none-eabi\\include\\string.h"
 598              		.file 14 "c:\\program files\\gnu tools arm embedded\\4.9 2014q4\\arm-none-eabi\\include\\stdlib.h"