ARM GAS  C:\Users\jo\AppData\Local\Temp\cct348YO.s 			page 1


   1              		.syntax unified
   2              		.cpu cortex-m4
   3              		.fpu softvfp
   4              		.eabi_attribute 20, 1
   5              		.eabi_attribute 21, 1
   6              		.eabi_attribute 23, 3
   7              		.eabi_attribute 24, 1
   8              		.eabi_attribute 25, 1
   9              		.eabi_attribute 26, 1
  10              		.eabi_attribute 30, 2
  11              		.eabi_attribute 34, 1
  12              		.eabi_attribute 18, 4
  13              		.thumb
  14              		.file	"ssl_tls.c"
  15              		.text
  16              	.Ltext0:
  17              		.cfi_sections	.debug_frame
  18              		.section	.text.ssl_rsa_key_len,"ax",%progbits
  19              		.align	2
  20              		.p2align 4,,15
  21              		.thumb
  22              		.thumb_func
  23              		.type	ssl_rsa_key_len, %function
  24              	ssl_rsa_key_len:
  25              	.LFB3:
  26              		.file 1 "../../../os/ext/PolarSSL/library/ssl_tls.c"
  27              		.loc 1 86 0
  28              		.cfi_startproc
  29              		@ args = 0, pretend = 0, frame = 0
  30              		@ frame_needed = 0, uses_anonymous_args = 0
  31              		@ link register save eliminated.
  32              	.LVL0:
  33              		.loc 1 88 0
  34 0000 4068     		ldr	r0, [r0, #4]
  35              	.LVL1:
  36 0002 7047     		bx	lr
  37              		.cfi_endproc
  38              	.LFE3:
  39              		.size	ssl_rsa_key_len, .-ssl_rsa_key_len
  40 0004 AFF30080 		.section	.text.ssl_calc_finished_tls_sha256,"ax",%progbits
  40      AFF30080 
  40      AFF30080 
  41              		.align	2
  42              		.p2align 4,,15
  43              		.thumb
  44              		.thumb_func
  45              		.type	ssl_calc_finished_tls_sha256, %function
  46              	ssl_calc_finished_tls_sha256:
  47              	.LFB35:
  48              		.loc 1 2662 0
  49              		.cfi_startproc
  50              		@ args = 0, pretend = 0, frame = 272
  51              		@ frame_needed = 0, uses_anonymous_args = 0
  52              	.LVL2:
  53 0000 2DE9F043 		push	{r4, r5, r6, r7, r8, r9, lr}
  54              		.cfi_def_cfa_offset 28
  55              		.cfi_offset 4, -28
ARM GAS  C:\Users\jo\AppData\Local\Temp\cct348YO.s 			page 2


  56              		.cfi_offset 5, -24
  57              		.cfi_offset 6, -20
  58              		.cfi_offset 7, -16
  59              		.cfi_offset 8, -12
  60              		.cfi_offset 9, -8
  61              		.cfi_offset 14, -4
  62              		.loc 1 2668 0
  63 0004 066F     		ldr	r6, [r0, #112]
  64              	.LVL3:
  65              		.loc 1 2662 0
  66 0006 C9B0     		sub	sp, sp, #292
  67              		.cfi_def_cfa_offset 320
  68              		.loc 1 2662 0
  69 0008 0446     		mov	r4, r0
  70 000a 0F46     		mov	r7, r1
  71 000c 1546     		mov	r5, r2
  72              		.loc 1 2669 0
  73 000e 002E     		cmp	r6, #0
  74 0010 62D0     		beq	.L8
  75              	.L3:
  76              		.loc 1 2672 0
  77 0012 3248     		ldr	r0, .L9
  78              	.LVL4:
  79 0014 FFF7FEFF 		bl	debug_fmt
  80              	.LVL5:
  81 0018 4FF42763 		mov	r3, #2672
  82 001c 0090     		str	r0, [sp]
  83 001e 0221     		movs	r1, #2
  84 0020 2046     		mov	r0, r4
  85 0022 2F4A     		ldr	r2, .L9+4
  86 0024 FFF7FEFF 		bl	debug_print_msg
  87              	.LVL6:
  88              		.loc 1 2674 0
  89 0028 616F     		ldr	r1, [r4, #116]
  90 002a 0DA8     		add	r0, sp, #52
  91 002c 01F50671 		add	r1, r1, #536
  92 0030 EC22     		movs	r2, #236
  93 0032 FFF7FEFF 		bl	memcpy
  94              	.LVL7:
  95              		.loc 1 2683 0
  96 0036 2B4B     		ldr	r3, .L9+8
  97 0038 0093     		str	r3, [sp]
  98 003a 4FF02009 		mov	r9, #32
  99 003e 0FAB     		add	r3, sp, #60
 100 0040 0193     		str	r3, [sp, #4]
 101 0042 2046     		mov	r0, r4
 102 0044 CDF80890 		str	r9, [sp, #8]
 103 0048 0421     		movs	r1, #4
 104 004a 254A     		ldr	r2, .L9+4
 105 004c 40F67C23 		movw	r3, #2684
 106 0050 FFF7FEFF 		bl	debug_print_buf
 107              	.LVL8:
 108              		.loc 1 2687 0
 109 0054 244B     		ldr	r3, .L9+12
 110 0056 254A     		ldr	r2, .L9+16
 111              		.loc 1 2691 0
 112 0058 0DA8     		add	r0, sp, #52
ARM GAS  C:\Users\jo\AppData\Local\Temp\cct348YO.s 			page 3


 113 005a 05A9     		add	r1, sp, #20
 114              		.loc 1 2687 0
 115 005c 002D     		cmp	r5, #0
 116 005e 0CBF     		ite	eq
 117 0060 1D46     		moveq	r5, r3
 118 0062 1546     		movne	r5, r2
 119              	.LVL9:
 120              		.loc 1 2693 0
 121 0064 4FF00C08 		mov	r8, #12
 122              		.loc 1 2691 0
 123 0068 FFF7FEFF 		bl	sha2_finish
 124              	.LVL10:
 125              		.loc 1 2693 0
 126 006c 636F     		ldr	r3, [r4, #116]
 127 006e CDF80090 		str	r9, [sp]
 128 0072 0197     		str	r7, [sp, #4]
 129 0074 CDF80880 		str	r8, [sp, #8]
 130 0078 2A46     		mov	r2, r5
 131 007a 06F13000 		add	r0, r6, #48
 132 007e D3F8EC54 		ldr	r5, [r3, #1260]
 133              	.LVL11:
 134 0082 3021     		movs	r1, #48
 135 0084 05AB     		add	r3, sp, #20
 136 0086 A847     		blx	r5
 137              	.LVL12:
 138              		.loc 1 2696 0
 139 0088 194B     		ldr	r3, .L9+20
 140 008a 154A     		ldr	r2, .L9+4
 141 008c 8DE88801 		stmia	sp, {r3, r7, r8}
 142 0090 2046     		mov	r0, r4
 143 0092 40F68823 		movw	r3, #2696
 144 0096 0321     		movs	r1, #3
 145 0098 FFF7FEFF 		bl	debug_print_buf
 146              	.LVL13:
 147              		.loc 1 2698 0
 148 009c 0021     		movs	r1, #0
 149 009e 0DA8     		add	r0, sp, #52
 150 00a0 EC22     		movs	r2, #236
 151 00a2 FFF7FEFF 		bl	memset
 152              	.LVL14:
 153              		.loc 1 2700 0
 154 00a6 0DEB0902 		add	r2, sp, r9
 155 00aa 0023     		movs	r3, #0
 156 00ac 0593     		str	r3, [sp, #20]
 157 00ae 0693     		str	r3, [sp, #24]
 158 00b0 0793     		str	r3, [sp, #28]
 159              		.loc 1 2702 0
 160 00b2 1048     		ldr	r0, .L9+24
 161              		.loc 1 2700 0
 162 00b4 1360     		str	r3, [r2]
 163 00b6 0993     		str	r3, [sp, #36]
 164 00b8 0A93     		str	r3, [sp, #40]
 165 00ba 0B93     		str	r3, [sp, #44]
 166 00bc 0C93     		str	r3, [sp, #48]
 167              		.loc 1 2702 0
 168 00be FFF7FEFF 		bl	debug_fmt
 169              	.LVL15:
ARM GAS  C:\Users\jo\AppData\Local\Temp\cct348YO.s 			page 4


 170 00c2 0221     		movs	r1, #2
 171 00c4 0090     		str	r0, [sp]
 172 00c6 064A     		ldr	r2, .L9+4
 173 00c8 2046     		mov	r0, r4
 174 00ca 40F68E23 		movw	r3, #2702
 175 00ce FFF7FEFF 		bl	debug_print_msg
 176              	.LVL16:
 177              		.loc 1 2703 0
 178 00d2 49B0     		add	sp, sp, #292
 179              		.cfi_remember_state
 180              		.cfi_def_cfa_offset 28
 181              		@ sp needed
 182 00d4 BDE8F083 		pop	{r4, r5, r6, r7, r8, r9, pc}
 183              	.LVL17:
 184              	.L8:
 185              		.cfi_restore_state
 186              		.loc 1 2670 0
 187 00d8 C66E     		ldr	r6, [r0, #108]
 188              	.LVL18:
 189 00da 9AE7     		b	.L3
 190              	.L10:
 191              		.align	2
 192              	.L9:
 193 00dc 20000000 		.word	.LC2
 194 00e0 40000000 		.word	.LC3
 195 00e4 6C000000 		.word	.LC4
 196 00e8 00000000 		.word	.LC0
 197 00ec 10000000 		.word	.LC1
 198 00f0 80000000 		.word	.LC5
 199 00f4 98000000 		.word	.LC6
 200              		.cfi_endproc
 201              	.LFE35:
 202              		.size	ssl_calc_finished_tls_sha256, .-ssl_calc_finished_tls_sha256
 203 00f8 AFF30080 		.section	.text.ssl_calc_verify_tls_sha256,"ax",%progbits
 203      AFF30080 
 204              		.align	2
 205              		.p2align 4,,15
 206              		.thumb
 207              		.thumb_func
 208              		.type	ssl_calc_verify_tls_sha256, %function
 209              	ssl_calc_verify_tls_sha256:
 210              	.LFB11:
 211              		.loc 1 762 0
 212              		.cfi_startproc
 213              		@ args = 0, pretend = 0, frame = 240
 214              		@ frame_needed = 0, uses_anonymous_args = 0
 215              	.LVL19:
 216 0000 70B5     		push	{r4, r5, r6, lr}
 217              		.cfi_def_cfa_offset 16
 218              		.cfi_offset 4, -16
 219              		.cfi_offset 5, -12
 220              		.cfi_offset 6, -8
 221              		.cfi_offset 14, -4
 222 0002 0446     		mov	r4, r0
 223 0004 C0B0     		sub	sp, sp, #256
 224              		.cfi_def_cfa_offset 272
 225              		.loc 1 765 0
ARM GAS  C:\Users\jo\AppData\Local\Temp\cct348YO.s 			page 5


 226 0006 1848     		ldr	r0, .L13
 227              	.LVL20:
 228 0008 184D     		ldr	r5, .L13+4
 229              		.loc 1 762 0
 230 000a 0E46     		mov	r6, r1
 231              		.loc 1 765 0
 232 000c FFF7FEFF 		bl	debug_fmt
 233              	.LVL21:
 234 0010 40F2FD23 		movw	r3, #765
 235 0014 2A46     		mov	r2, r5
 236 0016 0090     		str	r0, [sp]
 237 0018 0221     		movs	r1, #2
 238 001a 2046     		mov	r0, r4
 239 001c FFF7FEFF 		bl	debug_print_msg
 240              	.LVL22:
 241              		.loc 1 767 0
 242 0020 616F     		ldr	r1, [r4, #116]
 243 0022 EC22     		movs	r2, #236
 244 0024 01F50671 		add	r1, r1, #536
 245 0028 05A8     		add	r0, sp, #20
 246 002a FFF7FEFF 		bl	memcpy
 247              	.LVL23:
 248              		.loc 1 768 0
 249 002e 05A8     		add	r0, sp, #20
 250 0030 3146     		mov	r1, r6
 251 0032 FFF7FEFF 		bl	sha2_finish
 252              	.LVL24:
 253              		.loc 1 770 0
 254 0036 0E49     		ldr	r1, .L13+8
 255 0038 0091     		str	r1, [sp]
 256 003a 2023     		movs	r3, #32
 257 003c 2A46     		mov	r2, r5
 258 003e 2046     		mov	r0, r4
 259 0040 0293     		str	r3, [sp, #8]
 260 0042 0321     		movs	r1, #3
 261 0044 40F20233 		movw	r3, #770
 262 0048 0196     		str	r6, [sp, #4]
 263 004a FFF7FEFF 		bl	debug_print_buf
 264              	.LVL25:
 265              		.loc 1 771 0
 266 004e 0948     		ldr	r0, .L13+12
 267 0050 FFF7FEFF 		bl	debug_fmt
 268              	.LVL26:
 269 0054 2A46     		mov	r2, r5
 270 0056 0090     		str	r0, [sp]
 271 0058 0221     		movs	r1, #2
 272 005a 2046     		mov	r0, r4
 273 005c 40F20333 		movw	r3, #771
 274 0060 FFF7FEFF 		bl	debug_print_msg
 275              	.LVL27:
 276              		.loc 1 774 0
 277 0064 40B0     		add	sp, sp, #256
 278              		.cfi_def_cfa_offset 16
 279              		@ sp needed
 280 0066 70BD     		pop	{r4, r5, r6, pc}
 281              	.LVL28:
 282              	.L14:
ARM GAS  C:\Users\jo\AppData\Local\Temp\cct348YO.s 			page 6


 283              		.align	2
 284              	.L13:
 285 0068 AC000000 		.word	.LC7
 286 006c 40000000 		.word	.LC3
 287 0070 C4000000 		.word	.LC8
 288 0074 E0000000 		.word	.LC9
 289              		.cfi_endproc
 290              	.LFE11:
 291              		.size	ssl_calc_verify_tls_sha256, .-ssl_calc_verify_tls_sha256
 292 0078 AFF30080 		.section	.text.tls_prf_sha256,"ax",%progbits
 292      AFF30080 
 293              		.align	2
 294              		.p2align 4,,15
 295              		.thumb
 296              		.thumb_func
 297              		.type	tls_prf_sha256, %function
 298              	tls_prf_sha256:
 299              	.LFB6:
 300              		.loc 1 200 0
 301              		.cfi_startproc
 302              		@ args = 12, pretend = 0, frame = 168
 303              		@ frame_needed = 0, uses_anonymous_args = 0
 304              	.LVL29:
 305 0000 2DE9F04F 		push	{r4, r5, r6, r7, r8, r9, r10, fp, lr}
 306              		.cfi_def_cfa_offset 36
 307              		.cfi_offset 4, -36
 308              		.cfi_offset 5, -32
 309              		.cfi_offset 6, -28
 310              		.cfi_offset 7, -24
 311              		.cfi_offset 8, -20
 312              		.cfi_offset 9, -16
 313              		.cfi_offset 10, -12
 314              		.cfi_offset 11, -8
 315              		.cfi_offset 14, -4
 316 0004 0646     		mov	r6, r0
 317 0006 ADB0     		sub	sp, sp, #180
 318              		.cfi_def_cfa_offset 216
 319              		.loc 1 206 0
 320 0008 1046     		mov	r0, r2
 321              	.LVL30:
 322              		.loc 1 200 0
 323 000a 9A46     		mov	r10, r3
 324 000c 1446     		mov	r4, r2
 325 000e 0F46     		mov	r7, r1
 326              		.loc 1 206 0
 327 0010 FFF7FEFF 		bl	strlen
 328              	.LVL31:
 329 0014 369B     		ldr	r3, [sp, #216]
 330              		.loc 1 200 0
 331 0016 389D     		ldr	r5, [sp, #224]
 332              		.loc 1 206 0
 333 0018 00EB030B 		add	fp, r0, r3
 334 001c 0BF12009 		add	r9, fp, #32
 335 0020 B9F1800F 		cmp	r9, #128
 336 0024 8046     		mov	r8, r0
 337 0026 53D8     		bhi	.L22
 338              	.LVL32:
ARM GAS  C:\Users\jo\AppData\Local\Temp\cct348YO.s 			page 7


 339              		.loc 1 210 0
 340 0028 2146     		mov	r1, r4
 341 002a 4246     		mov	r2, r8
 342 002c 14A8     		add	r0, sp, #80
 343              	.LVL33:
 344 002e FFF7FEFF 		bl	memcpy
 345              	.LVL34:
 346 0032 0CAC     		add	r4, sp, #48
 347              	.LVL35:
 348              		.loc 1 211 0
 349 0034 08F12000 		add	r0, r8, #32
 350 0038 5146     		mov	r1, r10
 351 003a 369A     		ldr	r2, [sp, #216]
 352 003c 2044     		add	r0, r0, r4
 353              		.loc 1 217 0
 354 003e 4FF00008 		mov	r8, #0
 355              	.LVL36:
 356              		.loc 1 211 0
 357 0042 FFF7FEFF 		bl	memcpy
 358              	.LVL37:
 359              		.loc 1 217 0
 360 0046 0094     		str	r4, [sp]
 361 0048 14AA     		add	r2, sp, #80
 362 004a 5B46     		mov	r3, fp
 363 004c CDF80480 		str	r8, [sp, #4]
 364 0050 3046     		mov	r0, r6
 365 0052 3946     		mov	r1, r7
 366 0054 FFF7FEFF 		bl	sha2_hmac
 367              	.LVL38:
 368              		.loc 1 219 0
 369 0058 8DB3     		cbz	r5, .L19
 370 005a C346     		mov	fp, r8
 371              	.LVL39:
 372              		.loc 1 224 0
 373 005c 3895     		str	r5, [sp, #224]
 374 005e 05F01F03 		and	r3, r5, #31
 375 0062 5D46     		mov	r5, fp
 376 0064 DDF8E0B0 		ldr	fp, [sp, #224]
 377 0068 0393     		str	r3, [sp, #12]
 378 006a 0DF1100A 		add	r10, sp, #16
 379              	.LVL40:
 380              	.L17:
 381              		.loc 1 221 0
 382 006e 3046     		mov	r0, r6
 383 0070 3946     		mov	r1, r7
 384 0072 2246     		mov	r2, r4
 385 0074 4B46     		mov	r3, r9
 386 0076 CDF800A0 		str	r10, [sp]
 387 007a CDF80480 		str	r8, [sp, #4]
 388 007e FFF7FEFF 		bl	sha2_hmac
 389              	.LVL41:
 390              		.loc 1 222 0
 391 0082 3046     		mov	r0, r6
 392 0084 3946     		mov	r1, r7
 393 0086 8DE81001 		stmia	sp, {r4, r8}
 394 008a 2246     		mov	r2, r4
 395 008c 2023     		movs	r3, #32
ARM GAS  C:\Users\jo\AppData\Local\Temp\cct348YO.s 			page 8


 396 008e FFF7FEFF 		bl	sha2_hmac
 397              	.LVL42:
 398              		.loc 1 224 0
 399 0092 05F12000 		add	r0, r5, #32
 400 0096 8345     		cmp	fp, r0
 401 0098 28BF     		it	cs
 402 009a 2021     		movcs	r1, #32
 403 009c 1CD3     		bcc	.L28
 404              	.L18:
 405              	.LVL43:
 406 009e 379B     		ldr	r3, [sp, #220]
 407 00a0 6A1E     		subs	r2, r5, #1
 408 00a2 1A44     		add	r2, r2, r3
 409 00a4 0DF10F0E 		add	lr, sp, #15
 410              		.loc 1 224 0 is_stmt 0 discriminator 3
 411 00a8 0023     		movs	r3, #0
 412              	.LVL44:
 413              	.L20:
 414              		.loc 1 226 0 is_stmt 1 discriminator 3
 415 00aa 0133     		adds	r3, r3, #1
 416              	.LVL45:
 417              		.loc 1 227 0 discriminator 3
 418 00ac 1EF8015F 		ldrb	r5, [lr, #1]!	@ zero_extendqisi2
 419 00b0 02F8015F 		strb	r5, [r2, #1]!
 420              		.loc 1 226 0 discriminator 3
 421 00b4 8B42     		cmp	r3, r1
 422 00b6 F8D3     		bcc	.L20
 423              	.LVL46:
 424              	.L21:
 425              		.loc 1 219 0
 426 00b8 8345     		cmp	fp, r0
 427 00ba 0546     		mov	r5, r0
 428 00bc D7D8     		bhi	.L17
 429              	.LVL47:
 430              	.L19:
 431              		.loc 1 230 0
 432 00be 2046     		mov	r0, r4
 433 00c0 0021     		movs	r1, #0
 434 00c2 8022     		movs	r2, #128
 435 00c4 FFF7FEFF 		bl	memset
 436              	.LVL48:
 437              		.loc 1 233 0
 438 00c8 0020     		movs	r0, #0
 439              		.loc 1 234 0
 440 00ca 2DB0     		add	sp, sp, #180
 441              		.cfi_remember_state
 442              		.cfi_def_cfa_offset 36
 443              		@ sp needed
 444 00cc BDE8F08F 		pop	{r4, r5, r6, r7, r8, r9, r10, fp, pc}
 445              	.LVL49:
 446              	.L22:
 447              		.cfi_restore_state
 448              		.loc 1 207 0
 449 00d0 0448     		ldr	r0, .L29
 450              		.loc 1 234 0
 451 00d2 2DB0     		add	sp, sp, #180
 452              		.cfi_remember_state
ARM GAS  C:\Users\jo\AppData\Local\Temp\cct348YO.s 			page 9


 453              		.cfi_def_cfa_offset 36
 454              		@ sp needed
 455 00d4 BDE8F08F 		pop	{r4, r5, r6, r7, r8, r9, r10, fp, pc}
 456              	.LVL50:
 457              	.L28:
 458              		.cfi_restore_state
 459              		.loc 1 224 0 discriminator 1
 460 00d8 039B     		ldr	r3, [sp, #12]
 461 00da 1946     		mov	r1, r3
 462              	.LVL51:
 463              		.loc 1 226 0 discriminator 1
 464 00dc 002B     		cmp	r3, #0
 465 00de EBD0     		beq	.L21
 466 00e0 DDE7     		b	.L18
 467              	.L30:
 468 00e2 00BF     		.align	2
 469              	.L29:
 470 00e4 008FFFFF 		.word	-28928
 471              		.cfi_endproc
 472              	.LFE6:
 473              		.size	tls_prf_sha256, .-tls_prf_sha256
 474 00e8 AFF30080 		.section	.text.ssl_calc_finished_tls_sha384,"ax",%progbits
 474      AFF30080 
 475              		.align	2
 476              		.p2align 4,,15
 477              		.thumb
 478              		.thumb_func
 479              		.type	ssl_calc_finished_tls_sha384, %function
 480              	ssl_calc_finished_tls_sha384:
 481              	.LFB36:
 482              		.loc 1 2708 0
 483              		.cfi_startproc
 484              		@ args = 0, pretend = 0, frame = 520
 485              		@ frame_needed = 0, uses_anonymous_args = 0
 486              	.LVL52:
 487 0000 2DE9F041 		push	{r4, r5, r6, r7, r8, lr}
 488              		.cfi_def_cfa_offset 24
 489              		.cfi_offset 4, -24
 490              		.cfi_offset 5, -20
 491              		.cfi_offset 6, -16
 492              		.cfi_offset 7, -12
 493              		.cfi_offset 8, -8
 494              		.cfi_offset 14, -4
 495              		.loc 1 2714 0
 496 0004 066F     		ldr	r6, [r0, #112]
 497              	.LVL53:
 498              		.loc 1 2708 0
 499 0006 ADF5067D 		sub	sp, sp, #536
 500              		.cfi_def_cfa_offset 560
 501              		.loc 1 2708 0
 502 000a 0446     		mov	r4, r0
 503 000c 0F46     		mov	r7, r1
 504 000e 1546     		mov	r5, r2
 505              		.loc 1 2715 0
 506 0010 002E     		cmp	r6, #0
 507 0012 61D0     		beq	.L36
 508              	.L32:
ARM GAS  C:\Users\jo\AppData\Local\Temp\cct348YO.s 			page 10


 509              		.loc 1 2718 0
 510 0014 3148     		ldr	r0, .L37
 511              	.LVL54:
 512 0016 FFF7FEFF 		bl	debug_fmt
 513              	.LVL55:
 514 001a 40F69E23 		movw	r3, #2718
 515 001e 0090     		str	r0, [sp]
 516 0020 0221     		movs	r1, #2
 517 0022 2046     		mov	r0, r4
 518 0024 2E4A     		ldr	r2, .L37+4
 519 0026 FFF7FEFF 		bl	debug_print_msg
 520              	.LVL56:
 521              		.loc 1 2720 0
 522 002a 616F     		ldr	r1, [r4, #116]
 523 002c 10A8     		add	r0, sp, #64
 524 002e 01F54271 		add	r1, r1, #776
 525 0032 4FF4EC72 		mov	r2, #472
 526 0036 FFF7FEFF 		bl	memcpy
 527              	.LVL57:
 528              		.loc 1 2729 0
 529 003a 2A4B     		ldr	r3, .L37+8
 530 003c 0093     		str	r3, [sp]
 531 003e 14AA     		add	r2, sp, #80
 532 0040 4023     		movs	r3, #64
 533 0042 0192     		str	r2, [sp, #4]
 534 0044 0293     		str	r3, [sp, #8]
 535 0046 2046     		mov	r0, r4
 536 0048 0421     		movs	r1, #4
 537 004a 254A     		ldr	r2, .L37+4
 538 004c 40F6AA23 		movw	r3, #2730
 539 0050 FFF7FEFF 		bl	debug_print_buf
 540              	.LVL58:
 541              		.loc 1 2733 0
 542 0054 244B     		ldr	r3, .L37+12
 543 0056 254A     		ldr	r2, .L37+16
 544              		.loc 1 2737 0
 545 0058 10A8     		add	r0, sp, #64
 546 005a 04A9     		add	r1, sp, #16
 547              		.loc 1 2733 0
 548 005c 002D     		cmp	r5, #0
 549 005e 0CBF     		ite	eq
 550 0060 1D46     		moveq	r5, r3
 551 0062 1546     		movne	r5, r2
 552              	.LVL59:
 553              		.loc 1 2739 0
 554 0064 4FF00C08 		mov	r8, #12
 555              		.loc 1 2737 0
 556 0068 FFF7FEFF 		bl	sha4_finish
 557              	.LVL60:
 558              		.loc 1 2739 0
 559 006c 3021     		movs	r1, #48
 560 006e 636F     		ldr	r3, [r4, #116]
 561 0070 8DE88201 		stmia	sp, {r1, r7, r8}
 562 0074 2A46     		mov	r2, r5
 563 0076 7018     		adds	r0, r6, r1
 564 0078 D3F8EC54 		ldr	r5, [r3, #1260]
 565              	.LVL61:
ARM GAS  C:\Users\jo\AppData\Local\Temp\cct348YO.s 			page 11


 566 007c 04AB     		add	r3, sp, #16
 567 007e A847     		blx	r5
 568              	.LVL62:
 569              		.loc 1 2742 0
 570 0080 1B4B     		ldr	r3, .L37+20
 571 0082 174A     		ldr	r2, .L37+4
 572 0084 8DE88801 		stmia	sp, {r3, r7, r8}
 573 0088 2046     		mov	r0, r4
 574 008a 40F6B623 		movw	r3, #2742
 575 008e 0321     		movs	r1, #3
 576 0090 FFF7FEFF 		bl	debug_print_buf
 577              	.LVL63:
 578              		.loc 1 2744 0
 579 0094 0021     		movs	r1, #0
 580 0096 10A8     		add	r0, sp, #64
 581 0098 4FF4EC72 		mov	r2, #472
 582 009c FFF7FEFF 		bl	memset
 583              	.LVL64:
 584              		.loc 1 2746 0
 585 00a0 0022     		movs	r2, #0
 586              		.loc 1 2748 0
 587 00a2 1448     		ldr	r0, .L37+24
 588              		.loc 1 2746 0
 589 00a4 0492     		str	r2, [sp, #16]
 590 00a6 0592     		str	r2, [sp, #20]
 591 00a8 0692     		str	r2, [sp, #24]
 592 00aa 0792     		str	r2, [sp, #28]
 593 00ac 0892     		str	r2, [sp, #32]
 594 00ae 0992     		str	r2, [sp, #36]
 595 00b0 0A92     		str	r2, [sp, #40]
 596 00b2 0B92     		str	r2, [sp, #44]
 597 00b4 0C92     		str	r2, [sp, #48]
 598 00b6 0D92     		str	r2, [sp, #52]
 599 00b8 0E92     		str	r2, [sp, #56]
 600 00ba 0F92     		str	r2, [sp, #60]
 601              		.loc 1 2748 0
 602 00bc FFF7FEFF 		bl	debug_fmt
 603              	.LVL65:
 604 00c0 0221     		movs	r1, #2
 605 00c2 0090     		str	r0, [sp]
 606 00c4 064A     		ldr	r2, .L37+4
 607 00c6 2046     		mov	r0, r4
 608 00c8 40F6BC23 		movw	r3, #2748
 609 00cc FFF7FEFF 		bl	debug_print_msg
 610              	.LVL66:
 611              		.loc 1 2749 0
 612 00d0 0DF5067D 		add	sp, sp, #536
 613              		.cfi_remember_state
 614              		.cfi_def_cfa_offset 24
 615              		@ sp needed
 616 00d4 BDE8F081 		pop	{r4, r5, r6, r7, r8, pc}
 617              	.LVL67:
 618              	.L36:
 619              		.cfi_restore_state
 620              		.loc 1 2716 0
 621 00d8 C66E     		ldr	r6, [r0, #108]
 622              	.LVL68:
ARM GAS  C:\Users\jo\AppData\Local\Temp\cct348YO.s 			page 12


 623 00da 9BE7     		b	.L32
 624              	.L38:
 625              		.align	2
 626              	.L37:
 627 00dc F0000000 		.word	.LC10
 628 00e0 40000000 		.word	.LC3
 629 00e4 10010000 		.word	.LC11
 630 00e8 00000000 		.word	.LC0
 631 00ec 10000000 		.word	.LC1
 632 00f0 80000000 		.word	.LC5
 633 00f4 98000000 		.word	.LC6
 634              		.cfi_endproc
 635              	.LFE36:
 636              		.size	ssl_calc_finished_tls_sha384, .-ssl_calc_finished_tls_sha384
 637 00f8 AFF30080 		.section	.text.ssl_calc_verify_tls_sha384,"ax",%progbits
 637      AFF30080 
 638              		.align	2
 639              		.p2align 4,,15
 640              		.thumb
 641              		.thumb_func
 642              		.type	ssl_calc_verify_tls_sha384, %function
 643              	ssl_calc_verify_tls_sha384:
 644              	.LFB12:
 645              		.loc 1 778 0
 646              		.cfi_startproc
 647              		@ args = 0, pretend = 0, frame = 472
 648              		@ frame_needed = 0, uses_anonymous_args = 0
 649              	.LVL69:
 650 0000 70B5     		push	{r4, r5, r6, lr}
 651              		.cfi_def_cfa_offset 16
 652              		.cfi_offset 4, -16
 653              		.cfi_offset 5, -12
 654              		.cfi_offset 6, -8
 655              		.cfi_offset 14, -4
 656 0002 0446     		mov	r4, r0
 657 0004 FAB0     		sub	sp, sp, #488
 658              		.cfi_def_cfa_offset 504
 659              		.loc 1 781 0
 660 0006 1948     		ldr	r0, .L41
 661              	.LVL70:
 662 0008 194D     		ldr	r5, .L41+4
 663              		.loc 1 778 0
 664 000a 0E46     		mov	r6, r1
 665              		.loc 1 781 0
 666 000c FFF7FEFF 		bl	debug_fmt
 667              	.LVL71:
 668 0010 40F20D33 		movw	r3, #781
 669 0014 2A46     		mov	r2, r5
 670 0016 0090     		str	r0, [sp]
 671 0018 0221     		movs	r1, #2
 672 001a 2046     		mov	r0, r4
 673 001c FFF7FEFF 		bl	debug_print_msg
 674              	.LVL72:
 675              		.loc 1 783 0
 676 0020 616F     		ldr	r1, [r4, #116]
 677 0022 4FF4EC72 		mov	r2, #472
 678 0026 01F54271 		add	r1, r1, #776
ARM GAS  C:\Users\jo\AppData\Local\Temp\cct348YO.s 			page 13


 679 002a 04A8     		add	r0, sp, #16
 680 002c FFF7FEFF 		bl	memcpy
 681              	.LVL73:
 682              		.loc 1 784 0
 683 0030 04A8     		add	r0, sp, #16
 684 0032 3146     		mov	r1, r6
 685 0034 FFF7FEFF 		bl	sha4_finish
 686              	.LVL74:
 687              		.loc 1 786 0
 688 0038 0E49     		ldr	r1, .L41+8
 689 003a 0091     		str	r1, [sp]
 690 003c 3023     		movs	r3, #48
 691 003e 2A46     		mov	r2, r5
 692 0040 2046     		mov	r0, r4
 693 0042 0293     		str	r3, [sp, #8]
 694 0044 0321     		movs	r1, #3
 695 0046 40F21233 		movw	r3, #786
 696 004a 0196     		str	r6, [sp, #4]
 697 004c FFF7FEFF 		bl	debug_print_buf
 698              	.LVL75:
 699              		.loc 1 787 0
 700 0050 0948     		ldr	r0, .L41+12
 701 0052 FFF7FEFF 		bl	debug_fmt
 702              	.LVL76:
 703 0056 2A46     		mov	r2, r5
 704 0058 0090     		str	r0, [sp]
 705 005a 0221     		movs	r1, #2
 706 005c 2046     		mov	r0, r4
 707 005e 40F21333 		movw	r3, #787
 708 0062 FFF7FEFF 		bl	debug_print_msg
 709              	.LVL77:
 710              		.loc 1 790 0
 711 0066 7AB0     		add	sp, sp, #488
 712              		.cfi_def_cfa_offset 16
 713              		@ sp needed
 714 0068 70BD     		pop	{r4, r5, r6, pc}
 715              	.LVL78:
 716              	.L42:
 717 006a 00BF     		.align	2
 718              	.L41:
 719 006c 24010000 		.word	.LC12
 720 0070 40000000 		.word	.LC3
 721 0074 C4000000 		.word	.LC8
 722 0078 E0000000 		.word	.LC9
 723              		.cfi_endproc
 724              	.LFE12:
 725              		.size	ssl_calc_verify_tls_sha384, .-ssl_calc_verify_tls_sha384
 726 007c AFF30080 		.section	.text.tls_prf_sha384,"ax",%progbits
 727              		.align	2
 728              		.p2align 4,,15
 729              		.thumb
 730              		.thumb_func
 731              		.type	tls_prf_sha384, %function
 732              	tls_prf_sha384:
 733              	.LFB7:
 734              		.loc 1 240 0
 735              		.cfi_startproc
ARM GAS  C:\Users\jo\AppData\Local\Temp\cct348YO.s 			page 14


 736              		@ args = 12, pretend = 0, frame = 184
 737              		@ frame_needed = 0, uses_anonymous_args = 0
 738              	.LVL79:
 739 0000 2DE9F04F 		push	{r4, r5, r6, r7, r8, r9, r10, fp, lr}
 740              		.cfi_def_cfa_offset 36
 741              		.cfi_offset 4, -36
 742              		.cfi_offset 5, -32
 743              		.cfi_offset 6, -28
 744              		.cfi_offset 7, -24
 745              		.cfi_offset 8, -20
 746              		.cfi_offset 9, -16
 747              		.cfi_offset 10, -12
 748              		.cfi_offset 11, -8
 749              		.cfi_offset 14, -4
 750 0004 0746     		mov	r7, r0
 751 0006 B1B0     		sub	sp, sp, #196
 752              		.cfi_def_cfa_offset 232
 753              		.loc 1 246 0
 754 0008 1046     		mov	r0, r2
 755              	.LVL80:
 756              		.loc 1 240 0
 757 000a 9B46     		mov	fp, r3
 758 000c 1446     		mov	r4, r2
 759 000e 8846     		mov	r8, r1
 760              		.loc 1 246 0
 761 0010 FFF7FEFF 		bl	strlen
 762              	.LVL81:
 763 0014 3A9B     		ldr	r3, [sp, #232]
 764              		.loc 1 240 0
 765 0016 DDF8ECA0 		ldr	r10, [sp, #236]
 766 001a 3C9D     		ldr	r5, [sp, #240]
 767              		.loc 1 246 0
 768 001c C318     		adds	r3, r0, r3
 769 001e 03F13009 		add	r9, r3, #48
 770 0022 B9F1800F 		cmp	r9, #128
 771 0026 0646     		mov	r6, r0
 772 0028 0393     		str	r3, [sp, #12]
 773 002a 51D8     		bhi	.L51
 774              	.LVL82:
 775              		.loc 1 250 0
 776 002c 2146     		mov	r1, r4
 777 002e 3246     		mov	r2, r6
 778 0030 1CA8     		add	r0, sp, #112
 779              	.LVL83:
 780 0032 FFF7FEFF 		bl	memcpy
 781              	.LVL84:
 782 0036 10AC     		add	r4, sp, #64
 783              	.LVL85:
 784              		.loc 1 251 0
 785 0038 06F13000 		add	r0, r6, #48
 786 003c 5946     		mov	r1, fp
 787 003e 3A9A     		ldr	r2, [sp, #232]
 788 0040 2044     		add	r0, r0, r4
 789              		.loc 1 257 0
 790 0042 0126     		movs	r6, #1
 791              	.LVL86:
 792              		.loc 1 251 0
ARM GAS  C:\Users\jo\AppData\Local\Temp\cct348YO.s 			page 15


 793 0044 FFF7FEFF 		bl	memcpy
 794              	.LVL87:
 795              		.loc 1 257 0
 796 0048 0094     		str	r4, [sp]
 797 004a 1CAA     		add	r2, sp, #112
 798 004c 039B     		ldr	r3, [sp, #12]
 799 004e 0196     		str	r6, [sp, #4]
 800 0050 3846     		mov	r0, r7
 801 0052 4146     		mov	r1, r8
 802 0054 FFF7FEFF 		bl	sha4_hmac
 803              	.LVL88:
 804              		.loc 1 259 0
 805 0058 8DB3     		cbz	r5, .L48
 806              		.loc 1 264 0
 807 005a 224B     		ldr	r3, .L58
 808 005c A3FB0523 		umull	r2, r3, r3, r5
 809 0060 5B09     		lsrs	r3, r3, #5
 810 0062 03EB4303 		add	r3, r3, r3, lsl #1
 811 0066 A5EB0313 		sub	r3, r5, r3, lsl #4
 812 006a 0393     		str	r3, [sp, #12]
 813              	.LVL89:
 814 006c 4FF0000B 		mov	fp, #0
 815              	.LVL90:
 816              	.L47:
 817              		.loc 1 261 0
 818 0070 04AB     		add	r3, sp, #16
 819 0072 8DE84800 		stmia	sp, {r3, r6}
 820 0076 3846     		mov	r0, r7
 821 0078 4146     		mov	r1, r8
 822 007a 2246     		mov	r2, r4
 823 007c 4B46     		mov	r3, r9
 824 007e FFF7FEFF 		bl	sha4_hmac
 825              	.LVL91:
 826              		.loc 1 262 0
 827 0082 3846     		mov	r0, r7
 828 0084 4146     		mov	r1, r8
 829 0086 8DE85000 		stmia	sp, {r4, r6}
 830 008a 2246     		mov	r2, r4
 831 008c 3023     		movs	r3, #48
 832 008e FFF7FEFF 		bl	sha4_hmac
 833              	.LVL92:
 834              		.loc 1 264 0
 835 0092 0BF13000 		add	r0, fp, #48
 836 0096 8542     		cmp	r5, r0
 837 0098 28BF     		it	cs
 838 009a 3021     		movcs	r1, #48
 839 009c 1CD3     		bcc	.L57
 840              	.L46:
 841              	.LVL93:
 842 009e 0BF1FF32 		add	r2, fp, #-1
 843 00a2 5244     		add	r2, r2, r10
 844 00a4 0DF10F0E 		add	lr, sp, #15
 845              		.loc 1 264 0 is_stmt 0 discriminator 3
 846 00a8 0023     		movs	r3, #0
 847              	.LVL94:
 848              	.L49:
 849              		.loc 1 266 0 is_stmt 1 discriminator 3
ARM GAS  C:\Users\jo\AppData\Local\Temp\cct348YO.s 			page 16


 850 00aa 0133     		adds	r3, r3, #1
 851              	.LVL95:
 852              		.loc 1 267 0 discriminator 3
 853 00ac 1EF801CF 		ldrb	ip, [lr, #1]!	@ zero_extendqisi2
 854 00b0 02F801CF 		strb	ip, [r2, #1]!
 855              		.loc 1 266 0 discriminator 3
 856 00b4 8B42     		cmp	r3, r1
 857 00b6 F8D3     		bcc	.L49
 858              	.LVL96:
 859              	.L50:
 860              		.loc 1 259 0
 861 00b8 8542     		cmp	r5, r0
 862 00ba 8346     		mov	fp, r0
 863 00bc D8D8     		bhi	.L47
 864              	.LVL97:
 865              	.L48:
 866              		.loc 1 270 0
 867 00be 2046     		mov	r0, r4
 868 00c0 0021     		movs	r1, #0
 869 00c2 8022     		movs	r2, #128
 870 00c4 FFF7FEFF 		bl	memset
 871              	.LVL98:
 872              		.loc 1 273 0
 873 00c8 0020     		movs	r0, #0
 874              		.loc 1 274 0
 875 00ca 31B0     		add	sp, sp, #196
 876              		.cfi_remember_state
 877              		.cfi_def_cfa_offset 36
 878              		@ sp needed
 879 00cc BDE8F08F 		pop	{r4, r5, r6, r7, r8, r9, r10, fp, pc}
 880              	.LVL99:
 881              	.L51:
 882              		.cfi_restore_state
 883              		.loc 1 247 0
 884 00d0 0548     		ldr	r0, .L58+4
 885              		.loc 1 274 0
 886 00d2 31B0     		add	sp, sp, #196
 887              		.cfi_remember_state
 888              		.cfi_def_cfa_offset 36
 889              		@ sp needed
 890 00d4 BDE8F08F 		pop	{r4, r5, r6, r7, r8, r9, r10, fp, pc}
 891              	.LVL100:
 892              	.L57:
 893              		.cfi_restore_state
 894              		.loc 1 266 0 discriminator 1
 895 00d8 039B     		ldr	r3, [sp, #12]
 896 00da 002B     		cmp	r3, #0
 897 00dc ECD0     		beq	.L50
 898              		.loc 1 266 0 is_stmt 0
 899 00de 0399     		ldr	r1, [sp, #12]
 900 00e0 DDE7     		b	.L46
 901              	.L59:
 902 00e2 00BF     		.align	2
 903              	.L58:
 904 00e4 ABAAAAAA 		.word	-1431655765
 905 00e8 008FFFFF 		.word	-28928
 906              		.cfi_endproc
ARM GAS  C:\Users\jo\AppData\Local\Temp\cct348YO.s 			page 17


 907              	.LFE7:
 908              		.size	tls_prf_sha384, .-tls_prf_sha384
 909 00ec AFF30080 		.section	.text.ssl_calc_finished_tls,"ax",%progbits
 910              		.align	2
 911              		.p2align 4,,15
 912              		.thumb
 913              		.thumb_func
 914              		.type	ssl_calc_finished_tls, %function
 915              	ssl_calc_finished_tls:
 916              	.LFB34:
 917              		.loc 1 2608 0 is_stmt 1
 918              		.cfi_startproc
 919              		@ args = 0, pretend = 0, frame = 472
 920              		@ frame_needed = 0, uses_anonymous_args = 0
 921              	.LVL101:
 922 0000 2DE9F041 		push	{r4, r5, r6, r7, r8, lr}
 923              		.cfi_def_cfa_offset 24
 924              		.cfi_offset 4, -24
 925              		.cfi_offset 5, -20
 926              		.cfi_offset 6, -16
 927              		.cfi_offset 7, -12
 928              		.cfi_offset 8, -8
 929              		.cfi_offset 14, -4
 930              		.loc 1 2615 0
 931 0004 066F     		ldr	r6, [r0, #112]
 932              	.LVL102:
 933              		.loc 1 2608 0
 934 0006 FAB0     		sub	sp, sp, #488
 935              		.cfi_def_cfa_offset 512
 936              		.loc 1 2608 0
 937 0008 0446     		mov	r4, r0
 938 000a 0F46     		mov	r7, r1
 939 000c 9046     		mov	r8, r2
 940              		.loc 1 2616 0
 941 000e 002E     		cmp	r6, #0
 942 0010 7AD0     		beq	.L65
 943              	.L61:
 944              		.loc 1 2619 0
 945 0012 3E48     		ldr	r0, .L66
 946              	.LVL103:
 947 0014 FFF7FEFF 		bl	debug_fmt
 948              	.LVL104:
 949 0018 40F63B23 		movw	r3, #2619
 950 001c 0090     		str	r0, [sp]
 951 001e 0221     		movs	r1, #2
 952 0020 2046     		mov	r0, r4
 953 0022 3B4A     		ldr	r2, .L66+4
 954 0024 FFF7FEFF 		bl	debug_print_msg
 955              	.LVL105:
 956              		.loc 1 2621 0
 957 0028 656F     		ldr	r5, [r4, #116]
 958 002a 0DA8     		add	r0, sp, #52
 959 002c 05F16401 		add	r1, r5, #100
 960 0030 D822     		movs	r2, #216
 961 0032 FFF7FEFF 		bl	memcpy
 962              	.LVL106:
 963              		.loc 1 2622 0
ARM GAS  C:\Users\jo\AppData\Local\Temp\cct348YO.s 			page 18


 964 0036 05F59E71 		add	r1, r5, #316
 965 003a 43A8     		add	r0, sp, #268
 966 003c DC22     		movs	r2, #220
 967 003e FFF7FEFF 		bl	memcpy
 968              	.LVL107:
 969              		.loc 1 2631 0
 970 0042 344B     		ldr	r3, .L66+8
 971 0044 0093     		str	r3, [sp]
 972 0046 0FAA     		add	r2, sp, #60
 973 0048 1023     		movs	r3, #16
 974 004a 0192     		str	r2, [sp, #4]
 975 004c 0293     		str	r3, [sp, #8]
 976 004e 2046     		mov	r0, r4
 977 0050 0421     		movs	r1, #4
 978 0052 2F4A     		ldr	r2, .L66+4
 979 0054 40F64823 		movw	r3, #2632
 980 0058 FFF7FEFF 		bl	debug_print_buf
 981              	.LVL108:
 982              		.loc 1 2636 0
 983 005c 2E4B     		ldr	r3, .L66+12
 984 005e 0093     		str	r3, [sp]
 985 0060 45AA     		add	r2, sp, #276
 986 0062 1423     		movs	r3, #20
 987 0064 0192     		str	r2, [sp, #4]
 988 0066 0293     		str	r3, [sp, #8]
 989 0068 2046     		mov	r0, r4
 990 006a 0421     		movs	r1, #4
 991 006c 284A     		ldr	r2, .L66+4
 992 006e 40F64D23 		movw	r3, #2637
 993 0072 FFF7FEFF 		bl	debug_print_buf
 994              	.LVL109:
 995              		.loc 1 2640 0
 996 0076 294B     		ldr	r3, .L66+16
 997 0078 294A     		ldr	r2, .L66+20
 998              		.loc 1 2644 0
 999 007a 0DA8     		add	r0, sp, #52
 1000 007c 04A9     		add	r1, sp, #16
 1001              		.loc 1 2640 0
 1002 007e B8F1000F 		cmp	r8, #0
 1003 0082 0CBF     		ite	eq
 1004 0084 1D46     		moveq	r5, r3
 1005 0086 1546     		movne	r5, r2
 1006              	.LVL110:
 1007              		.loc 1 2644 0
 1008 0088 FFF7FEFF 		bl	md5_finish
 1009              	.LVL111:
 1010              		.loc 1 2645 0
 1011 008c 43A8     		add	r0, sp, #268
 1012 008e 08A9     		add	r1, sp, #32
 1013 0090 FFF7FEFF 		bl	sha1_finish
 1014              	.LVL112:
 1015              		.loc 1 2647 0
 1016 0094 4FF00C08 		mov	r8, #12
 1017              	.LVL113:
 1018 0098 2422     		movs	r2, #36
 1019 009a 636F     		ldr	r3, [r4, #116]
 1020 009c 8DE88401 		stmia	sp, {r2, r7, r8}
ARM GAS  C:\Users\jo\AppData\Local\Temp\cct348YO.s 			page 19


 1021 00a0 06F13000 		add	r0, r6, #48
 1022 00a4 2A46     		mov	r2, r5
 1023 00a6 3021     		movs	r1, #48
 1024 00a8 D3F8EC54 		ldr	r5, [r3, #1260]
 1025              	.LVL114:
 1026 00ac 04AB     		add	r3, sp, #16
 1027 00ae A847     		blx	r5
 1028              	.LVL115:
 1029              		.loc 1 2650 0
 1030 00b0 1C4B     		ldr	r3, .L66+24
 1031 00b2 174A     		ldr	r2, .L66+4
 1032 00b4 8DE88801 		stmia	sp, {r3, r7, r8}
 1033 00b8 2046     		mov	r0, r4
 1034 00ba 40F65A23 		movw	r3, #2650
 1035 00be 0321     		movs	r1, #3
 1036 00c0 FFF7FEFF 		bl	debug_print_buf
 1037              	.LVL116:
 1038              		.loc 1 2652 0
 1039 00c4 0DA8     		add	r0, sp, #52
 1040 00c6 0021     		movs	r1, #0
 1041 00c8 D822     		movs	r2, #216
 1042 00ca FFF7FEFF 		bl	memset
 1043              	.LVL117:
 1044              		.loc 1 2653 0
 1045 00ce 0021     		movs	r1, #0
 1046 00d0 43A8     		add	r0, sp, #268
 1047 00d2 DC22     		movs	r2, #220
 1048 00d4 FFF7FEFF 		bl	memset
 1049              	.LVL118:
 1050              		.loc 1 2655 0
 1051 00d8 0022     		movs	r2, #0
 1052              		.loc 1 2657 0
 1053 00da 1348     		ldr	r0, .L66+28
 1054              		.loc 1 2655 0
 1055 00dc 0492     		str	r2, [sp, #16]
 1056 00de 0592     		str	r2, [sp, #20]
 1057 00e0 0692     		str	r2, [sp, #24]
 1058 00e2 0792     		str	r2, [sp, #28]
 1059 00e4 0892     		str	r2, [sp, #32]
 1060 00e6 0992     		str	r2, [sp, #36]
 1061 00e8 0A92     		str	r2, [sp, #40]
 1062 00ea 0B92     		str	r2, [sp, #44]
 1063 00ec 0C92     		str	r2, [sp, #48]
 1064              		.loc 1 2657 0
 1065 00ee FFF7FEFF 		bl	debug_fmt
 1066              	.LVL119:
 1067 00f2 0221     		movs	r1, #2
 1068 00f4 0090     		str	r0, [sp]
 1069 00f6 064A     		ldr	r2, .L66+4
 1070 00f8 2046     		mov	r0, r4
 1071 00fa 40F66123 		movw	r3, #2657
 1072 00fe FFF7FEFF 		bl	debug_print_msg
 1073              	.LVL120:
 1074              		.loc 1 2658 0
 1075 0102 7AB0     		add	sp, sp, #488
 1076              		.cfi_remember_state
 1077              		.cfi_def_cfa_offset 24
ARM GAS  C:\Users\jo\AppData\Local\Temp\cct348YO.s 			page 20


 1078              		@ sp needed
 1079 0104 BDE8F081 		pop	{r4, r5, r6, r7, r8, pc}
 1080              	.LVL121:
 1081              	.L65:
 1082              		.cfi_restore_state
 1083              		.loc 1 2617 0
 1084 0108 C66E     		ldr	r6, [r0, #108]
 1085              	.LVL122:
 1086 010a 82E7     		b	.L61
 1087              	.L67:
 1088              		.align	2
 1089              	.L66:
 1090 010c 3C010000 		.word	.LC13
 1091 0110 40000000 		.word	.LC3
 1092 0114 54010000 		.word	.LC14
 1093 0118 68010000 		.word	.LC15
 1094 011c 00000000 		.word	.LC0
 1095 0120 10000000 		.word	.LC1
 1096 0124 80000000 		.word	.LC5
 1097 0128 98000000 		.word	.LC6
 1098              		.cfi_endproc
 1099              	.LFE34:
 1100              		.size	ssl_calc_finished_tls, .-ssl_calc_finished_tls
 1101 012c AFF30080 		.section	.text.ssl_calc_verify_tls,"ax",%progbits
 1102              		.align	2
 1103              		.p2align 4,,15
 1104              		.thumb
 1105              		.thumb_func
 1106              		.type	ssl_calc_verify_tls, %function
 1107              	ssl_calc_verify_tls:
 1108              	.LFB10:
 1109              		.loc 1 743 0
 1110              		.cfi_startproc
 1111              		@ args = 0, pretend = 0, frame = 440
 1112              		@ frame_needed = 0, uses_anonymous_args = 0
 1113              	.LVL123:
 1114 0000 F0B5     		push	{r4, r5, r6, r7, lr}
 1115              		.cfi_def_cfa_offset 20
 1116              		.cfi_offset 4, -20
 1117              		.cfi_offset 5, -16
 1118              		.cfi_offset 6, -12
 1119              		.cfi_offset 7, -8
 1120              		.cfi_offset 14, -4
 1121 0002 0446     		mov	r4, r0
 1122 0004 F3B0     		sub	sp, sp, #460
 1123              		.cfi_def_cfa_offset 480
 1124              		.loc 1 747 0
 1125 0006 1E48     		ldr	r0, .L70
 1126              	.LVL124:
 1127 0008 1E4D     		ldr	r5, .L70+4
 1128              		.loc 1 743 0
 1129 000a 0E46     		mov	r6, r1
 1130              		.loc 1 747 0
 1131 000c FFF7FEFF 		bl	debug_fmt
 1132              	.LVL125:
 1133 0010 40F2EB23 		movw	r3, #747
 1134 0014 2A46     		mov	r2, r5
ARM GAS  C:\Users\jo\AppData\Local\Temp\cct348YO.s 			page 21


 1135 0016 0090     		str	r0, [sp]
 1136 0018 0221     		movs	r1, #2
 1137 001a 2046     		mov	r0, r4
 1138 001c FFF7FEFF 		bl	debug_print_msg
 1139              	.LVL126:
 1140              		.loc 1 749 0
 1141 0020 676F     		ldr	r7, [r4, #116]
 1142 0022 05A8     		add	r0, sp, #20
 1143 0024 07F16401 		add	r1, r7, #100
 1144 0028 D822     		movs	r2, #216
 1145 002a FFF7FEFF 		bl	memcpy
 1146              	.LVL127:
 1147              		.loc 1 750 0
 1148 002e DC22     		movs	r2, #220
 1149 0030 07F59E71 		add	r1, r7, #316
 1150 0034 3BA8     		add	r0, sp, #236
 1151 0036 FFF7FEFF 		bl	memcpy
 1152              	.LVL128:
 1153              		.loc 1 752 0
 1154 003a 05A8     		add	r0, sp, #20
 1155 003c 3146     		mov	r1, r6
 1156 003e FFF7FEFF 		bl	md5_finish
 1157              	.LVL129:
 1158              		.loc 1 753 0
 1159 0042 3BA8     		add	r0, sp, #236
 1160 0044 06F11001 		add	r1, r6, #16
 1161 0048 FFF7FEFF 		bl	sha1_finish
 1162              	.LVL130:
 1163              		.loc 1 755 0
 1164 004c 0E49     		ldr	r1, .L70+8
 1165 004e 0091     		str	r1, [sp]
 1166 0050 2423     		movs	r3, #36
 1167 0052 2A46     		mov	r2, r5
 1168 0054 2046     		mov	r0, r4
 1169 0056 0293     		str	r3, [sp, #8]
 1170 0058 0321     		movs	r1, #3
 1171 005a 40F2F323 		movw	r3, #755
 1172 005e 0196     		str	r6, [sp, #4]
 1173 0060 FFF7FEFF 		bl	debug_print_buf
 1174              	.LVL131:
 1175              		.loc 1 756 0
 1176 0064 0948     		ldr	r0, .L70+12
 1177 0066 FFF7FEFF 		bl	debug_fmt
 1178              	.LVL132:
 1179 006a 2A46     		mov	r2, r5
 1180 006c 0090     		str	r0, [sp]
 1181 006e 0221     		movs	r1, #2
 1182 0070 2046     		mov	r0, r4
 1183 0072 4FF43D73 		mov	r3, #756
 1184 0076 FFF7FEFF 		bl	debug_print_msg
 1185              	.LVL133:
 1186              		.loc 1 759 0
 1187 007a 73B0     		add	sp, sp, #460
 1188              		.cfi_def_cfa_offset 20
 1189              		@ sp needed
 1190 007c F0BD     		pop	{r4, r5, r6, r7, pc}
 1191              	.LVL134:
ARM GAS  C:\Users\jo\AppData\Local\Temp\cct348YO.s 			page 22


 1192              	.L71:
 1193 007e 00BF     		.align	2
 1194              	.L70:
 1195 0080 7C010000 		.word	.LC16
 1196 0084 40000000 		.word	.LC3
 1197 0088 C4000000 		.word	.LC8
 1198 008c E0000000 		.word	.LC9
 1199              		.cfi_endproc
 1200              	.LFE10:
 1201              		.size	ssl_calc_verify_tls, .-ssl_calc_verify_tls
 1202              		.section	.text.tls1_prf,"ax",%progbits
 1203              		.align	2
 1204              		.p2align 4,,15
 1205              		.thumb
 1206              		.thumb_func
 1207              		.type	tls1_prf, %function
 1208              	tls1_prf:
 1209              	.LFB5:
 1210              		.loc 1 140 0
 1211              		.cfi_startproc
 1212              		@ args = 12, pretend = 0, frame = 168
 1213              		@ frame_needed = 0, uses_anonymous_args = 0
 1214              	.LVL135:
 1215 0000 2DE9F04F 		push	{r4, r5, r6, r7, r8, r9, r10, fp, lr}
 1216              		.cfi_def_cfa_offset 36
 1217              		.cfi_offset 4, -36
 1218              		.cfi_offset 5, -32
 1219              		.cfi_offset 6, -28
 1220              		.cfi_offset 7, -24
 1221              		.cfi_offset 8, -20
 1222              		.cfi_offset 9, -16
 1223              		.cfi_offset 10, -12
 1224              		.cfi_offset 11, -8
 1225              		.cfi_offset 14, -4
 1226 0004 8346     		mov	fp, r0
 1227 0006 ADB0     		sub	sp, sp, #180
 1228              		.cfi_def_cfa_offset 216
 1229              		.loc 1 147 0
 1230 0008 1046     		mov	r0, r2
 1231              	.LVL136:
 1232              		.loc 1 140 0
 1233 000a 0E46     		mov	r6, r1
 1234 000c 9A46     		mov	r10, r3
 1235 000e 1746     		mov	r7, r2
 1236              		.loc 1 147 0
 1237 0010 FFF7FEFF 		bl	strlen
 1238              	.LVL137:
 1239 0014 369B     		ldr	r3, [sp, #216]
 1240              		.loc 1 140 0
 1241 0016 DDF8DC90 		ldr	r9, [sp, #220]
 1242 001a 389D     		ldr	r5, [sp, #224]
 1243              		.loc 1 147 0
 1244 001c C318     		adds	r3, r0, r3
 1245 001e 03F11401 		add	r1, r3, #20
 1246 0022 8029     		cmp	r1, #128
 1247 0024 8046     		mov	r8, r0
 1248 0026 0293     		str	r3, [sp, #8]
ARM GAS  C:\Users\jo\AppData\Local\Temp\cct348YO.s 			page 23


 1249 0028 0391     		str	r1, [sp, #12]
 1250 002a 00F29680 		bhi	.L85
 1251              		.loc 1 150 0
 1252 002e 741C     		adds	r4, r6, #1
 1253 0030 6408     		lsrs	r4, r4, #1
 1254              	.LVL138:
 1255              		.loc 1 155 0
 1256 0032 3946     		mov	r1, r7
 1257 0034 4246     		mov	r2, r8
 1258              		.loc 1 152 0
 1259 0036 361B     		subs	r6, r6, r4
 1260              	.LVL139:
 1261              		.loc 1 155 0
 1262 0038 11A8     		add	r0, sp, #68
 1263 003a FFF7FEFF 		bl	memcpy
 1264              	.LVL140:
 1265              		.loc 1 152 0
 1266 003e 0BEB0607 		add	r7, fp, r6
 1267              	.LVL141:
 1268              		.loc 1 156 0
 1269 0042 08F11400 		add	r0, r8, #20
 1270              		.loc 1 155 0
 1271 0046 0CAE     		add	r6, sp, #48
 1272              		.loc 1 156 0
 1273 0048 5146     		mov	r1, r10
 1274 004a 369A     		ldr	r2, [sp, #216]
 1275 004c 3044     		add	r0, r0, r6
 1276 004e FFF7FEFF 		bl	memcpy
 1277              	.LVL142:
 1278              		.loc 1 162 0
 1279 0052 DDF80880 		ldr	r8, [sp, #8]
 1280 0056 11A8     		add	r0, sp, #68
 1281 0058 0DF1340A 		add	r10, sp, #52
 1282              	.LVL143:
 1283 005c 0246     		mov	r2, r0
 1284 005e 2146     		mov	r1, r4
 1285 0060 CDF800A0 		str	r10, [sp]
 1286 0064 5846     		mov	r0, fp
 1287 0066 4346     		mov	r3, r8
 1288 0068 FFF7FEFF 		bl	md5_hmac
 1289              	.LVL144:
 1290              		.loc 1 164 0
 1291 006c 002D     		cmp	r5, #0
 1292 006e 78D0     		beq	.L74
 1293 0070 4346     		mov	r3, r8
 1294 0072 1033     		adds	r3, r3, #16
 1295 0074 4FF00008 		mov	r8, #0
 1296              		.loc 1 169 0
 1297 0078 05F00F02 		and	r2, r5, #15
 1298 007c 0497     		str	r7, [sp, #16]
 1299 007e 0592     		str	r2, [sp, #20]
 1300 0080 4746     		mov	r7, r8
 1301              	.LVL145:
 1302 0082 9846     		mov	r8, r3
 1303              	.LVL146:
 1304              	.L76:
 1305              		.loc 1 166 0
ARM GAS  C:\Users\jo\AppData\Local\Temp\cct348YO.s 			page 24


 1306 0084 07AB     		add	r3, sp, #28
 1307 0086 0093     		str	r3, [sp]
 1308 0088 5846     		mov	r0, fp
 1309 008a 2146     		mov	r1, r4
 1310 008c 5246     		mov	r2, r10
 1311 008e 4346     		mov	r3, r8
 1312 0090 FFF7FEFF 		bl	md5_hmac
 1313              	.LVL147:
 1314              		.loc 1 167 0
 1315 0094 5846     		mov	r0, fp
 1316 0096 2146     		mov	r1, r4
 1317 0098 CDF800A0 		str	r10, [sp]
 1318 009c 5246     		mov	r2, r10
 1319 009e 1023     		movs	r3, #16
 1320 00a0 FFF7FEFF 		bl	md5_hmac
 1321              	.LVL148:
 1322              		.loc 1 169 0
 1323 00a4 07F11000 		add	r0, r7, #16
 1324 00a8 8542     		cmp	r5, r0
 1325 00aa 28BF     		it	cs
 1326 00ac 1021     		movcs	r1, #16
 1327 00ae 60D3     		bcc	.L96
 1328              	.L75:
 1329              	.LVL149:
 1330 00b0 7A1E     		subs	r2, r7, #1
 1331 00b2 4A44     		add	r2, r2, r9
 1332 00b4 0DF11B0E 		add	lr, sp, #27
 1333              		.loc 1 169 0 is_stmt 0 discriminator 3
 1334 00b8 0023     		movs	r3, #0
 1335              	.LVL150:
 1336              	.L78:
 1337              		.loc 1 171 0 is_stmt 1 discriminator 3
 1338 00ba 0133     		adds	r3, r3, #1
 1339              	.LVL151:
 1340              		.loc 1 172 0 discriminator 3
 1341 00bc 1EF8017F 		ldrb	r7, [lr, #1]!	@ zero_extendqisi2
 1342 00c0 02F8017F 		strb	r7, [r2, #1]!
 1343              		.loc 1 171 0 discriminator 3
 1344 00c4 9942     		cmp	r1, r3
 1345 00c6 F8D8     		bhi	.L78
 1346              	.LVL152:
 1347              	.L79:
 1348              		.loc 1 164 0
 1349 00c8 8542     		cmp	r5, r0
 1350 00ca 0746     		mov	r7, r0
 1351 00cc DAD8     		bhi	.L76
 1352 00ce 049F     		ldr	r7, [sp, #16]
 1353              		.loc 1 178 0
 1354 00d0 029B     		ldr	r3, [sp, #8]
 1355 00d2 0096     		str	r6, [sp]
 1356 00d4 11AA     		add	r2, sp, #68
 1357 00d6 3846     		mov	r0, r7
 1358              	.LVL153:
 1359 00d8 2146     		mov	r1, r4
 1360              	.LVL154:
 1361 00da FFF7FEFF 		bl	sha1_hmac
 1362              	.LVL155:
ARM GAS  C:\Users\jo\AppData\Local\Temp\cct348YO.s 			page 25


 1363              		.loc 1 185 0
 1364 00de 2A4B     		ldr	r3, .L98
 1365 00e0 DDF80C80 		ldr	r8, [sp, #12]
 1366 00e4 A3FB053A 		umull	r3, r10, r3, r5
 1367 00e8 4FEA1A1A 		lsr	r10, r10, #4
 1368 00ec 0AEB8A0A 		add	r10, r10, r10, lsl #2
 1369 00f0 A5EB8A0A 		sub	r10, r5, r10, lsl #2
 1370 00f4 4FF0000B 		mov	fp, #0
 1371              	.LVL156:
 1372              	.L81:
 1373              		.loc 1 182 0
 1374 00f8 07AB     		add	r3, sp, #28
 1375 00fa 0093     		str	r3, [sp]
 1376 00fc 3846     		mov	r0, r7
 1377 00fe 2146     		mov	r1, r4
 1378 0100 3246     		mov	r2, r6
 1379 0102 4346     		mov	r3, r8
 1380 0104 FFF7FEFF 		bl	sha1_hmac
 1381              	.LVL157:
 1382              		.loc 1 183 0
 1383 0108 3846     		mov	r0, r7
 1384 010a 0096     		str	r6, [sp]
 1385 010c 2146     		mov	r1, r4
 1386 010e 3246     		mov	r2, r6
 1387 0110 1423     		movs	r3, #20
 1388 0112 FFF7FEFF 		bl	sha1_hmac
 1389              	.LVL158:
 1390              		.loc 1 185 0
 1391 0116 0BF1140E 		add	lr, fp, #20
 1392 011a 7545     		cmp	r5, lr
 1393 011c 28BF     		it	cs
 1394 011e 1420     		movcs	r0, #20
 1395 0120 2CD3     		bcc	.L97
 1396              	.L80:
 1397              	.LVL159:
 1398 0122 0BF1FF32 		add	r2, fp, #-1
 1399 0126 4A44     		add	r2, r2, r9
 1400 0128 0DF11B0C 		add	ip, sp, #27
 1401              		.loc 1 185 0 is_stmt 0 discriminator 3
 1402 012c 0021     		movs	r1, #0
 1403              	.LVL160:
 1404              	.L83:
 1405              		.loc 1 188 0 is_stmt 1 discriminator 3
 1406 012e 12F8013F 		ldrb	r3, [r2, #1]!	@ zero_extendqisi2
 1407 0132 1CF801BF 		ldrb	fp, [ip, #1]!	@ zero_extendqisi2
 1408              		.loc 1 187 0 discriminator 3
 1409 0136 0131     		adds	r1, r1, #1
 1410              	.LVL161:
 1411              		.loc 1 188 0 discriminator 3
 1412 0138 8BEA0303 		eor	r3, fp, r3
 1413              		.loc 1 187 0 discriminator 3
 1414 013c 8842     		cmp	r0, r1
 1415              		.loc 1 188 0 discriminator 3
 1416 013e 1370     		strb	r3, [r2]
 1417              		.loc 1 187 0 discriminator 3
 1418 0140 F5D8     		bhi	.L83
 1419              	.LVL162:
ARM GAS  C:\Users\jo\AppData\Local\Temp\cct348YO.s 			page 26


 1420              	.L84:
 1421              		.loc 1 180 0
 1422 0142 7545     		cmp	r5, lr
 1423 0144 F346     		mov	fp, lr
 1424 0146 D7D8     		bhi	.L81
 1425              	.LVL163:
 1426              	.L82:
 1427              		.loc 1 191 0
 1428 0148 3046     		mov	r0, r6
 1429 014a 0021     		movs	r1, #0
 1430 014c 8022     		movs	r2, #128
 1431 014e FFF7FEFF 		bl	memset
 1432              	.LVL164:
 1433              		.loc 1 194 0
 1434 0152 0020     		movs	r0, #0
 1435              		.loc 1 195 0
 1436 0154 2DB0     		add	sp, sp, #180
 1437              		.cfi_remember_state
 1438              		.cfi_def_cfa_offset 36
 1439              		@ sp needed
 1440 0156 BDE8F08F 		pop	{r4, r5, r6, r7, r8, r9, r10, fp, pc}
 1441              	.LVL165:
 1442              	.L85:
 1443              		.cfi_restore_state
 1444              		.loc 1 148 0
 1445 015a 0C48     		ldr	r0, .L98+4
 1446              		.loc 1 195 0
 1447 015c 2DB0     		add	sp, sp, #180
 1448              		.cfi_remember_state
 1449              		.cfi_def_cfa_offset 36
 1450              		@ sp needed
 1451 015e BDE8F08F 		pop	{r4, r5, r6, r7, r8, r9, r10, fp, pc}
 1452              	.LVL166:
 1453              	.L74:
 1454              		.cfi_restore_state
 1455              		.loc 1 178 0
 1456 0162 0096     		str	r6, [sp]
 1457 0164 3846     		mov	r0, r7
 1458 0166 2146     		mov	r1, r4
 1459 0168 11AA     		add	r2, sp, #68
 1460 016a 029B     		ldr	r3, [sp, #8]
 1461 016c FFF7FEFF 		bl	sha1_hmac
 1462              	.LVL167:
 1463 0170 EAE7     		b	.L82
 1464              	.LVL168:
 1465              	.L96:
 1466              		.loc 1 169 0 discriminator 1
 1467 0172 059B     		ldr	r3, [sp, #20]
 1468 0174 1946     		mov	r1, r3
 1469              	.LVL169:
 1470              		.loc 1 171 0 discriminator 1
 1471 0176 002B     		cmp	r3, #0
 1472 0178 A6D0     		beq	.L79
 1473 017a 99E7     		b	.L75
 1474              	.LVL170:
 1475              	.L97:
 1476              		.loc 1 187 0 discriminator 1
ARM GAS  C:\Users\jo\AppData\Local\Temp\cct348YO.s 			page 27


 1477 017c BAF1000F 		cmp	r10, #0
 1478 0180 DFD0     		beq	.L84
 1479              		.loc 1 187 0 is_stmt 0
 1480 0182 5046     		mov	r0, r10
 1481 0184 CDE7     		b	.L80
 1482              	.L99:
 1483 0186 00BF     		.align	2
 1484              	.L98:
 1485 0188 CDCCCCCC 		.word	-858993459
 1486 018c 008FFFFF 		.word	-28928
 1487              		.cfi_endproc
 1488              	.LFE5:
 1489              		.size	tls1_prf, .-tls1_prf
 1490              		.section	.text.ssl_update_checksum_md5sha1,"ax",%progbits
 1491              		.align	2
 1492              		.p2align 4,,15
 1493              		.thumb
 1494              		.thumb_func
 1495              		.type	ssl_update_checksum_md5sha1, %function
 1496              	ssl_update_checksum_md5sha1:
 1497              	.LFB30:
 1498              		.loc 1 2507 0 is_stmt 1
 1499              		.cfi_startproc
 1500              		@ args = 0, pretend = 0, frame = 0
 1501              		@ frame_needed = 0, uses_anonymous_args = 0
 1502              	.LVL171:
 1503 0000 70B5     		push	{r4, r5, r6, lr}
 1504              		.cfi_def_cfa_offset 16
 1505              		.cfi_offset 4, -16
 1506              		.cfi_offset 5, -12
 1507              		.cfi_offset 6, -8
 1508              		.cfi_offset 14, -4
 1509              		.loc 1 2507 0
 1510 0002 0446     		mov	r4, r0
 1511              		.loc 1 2508 0
 1512 0004 406F     		ldr	r0, [r0, #116]
 1513              	.LVL172:
 1514 0006 6430     		adds	r0, r0, #100
 1515              		.loc 1 2507 0
 1516 0008 0E46     		mov	r6, r1
 1517 000a 1546     		mov	r5, r2
 1518              		.loc 1 2508 0
 1519 000c FFF7FEFF 		bl	md5_update
 1520              	.LVL173:
 1521              		.loc 1 2509 0
 1522 0010 606F     		ldr	r0, [r4, #116]
 1523 0012 3146     		mov	r1, r6
 1524 0014 2A46     		mov	r2, r5
 1525 0016 00F59E70 		add	r0, r0, #316
 1526              		.loc 1 2510 0
 1527 001a BDE87040 		pop	{r4, r5, r6, lr}
 1528              		.cfi_restore 14
 1529              		.cfi_restore 6
 1530              		.cfi_restore 5
 1531              		.cfi_restore 4
 1532              		.cfi_def_cfa_offset 0
 1533              	.LVL174:
ARM GAS  C:\Users\jo\AppData\Local\Temp\cct348YO.s 			page 28


 1534              		.loc 1 2509 0
 1535 001e FFF7FEBF 		b	sha1_update
 1536              	.LVL175:
 1537              		.cfi_endproc
 1538              	.LFE30:
 1539              		.size	ssl_update_checksum_md5sha1, .-ssl_update_checksum_md5sha1
 1540 0022 00BFAFF3 		.section	.text.ssl_mac_md5,"ax",%progbits
 1540      0080AFF3 
 1540      0080AFF3 
 1540      0080
 1541              		.align	2
 1542              		.p2align 4,,15
 1543              		.thumb
 1544              		.thumb_func
 1545              		.type	ssl_mac_md5, %function
 1546              	ssl_mac_md5:
 1547              	.LFB13:
 1548              		.loc 1 799 0
 1549              		.cfi_startproc
 1550              		@ args = 4, pretend = 0, frame = 280
 1551              		@ frame_needed = 0, uses_anonymous_args = 0
 1552              	.LVL176:
 1553 0000 F0B5     		push	{r4, r5, r6, r7, lr}
 1554              		.cfi_def_cfa_offset 20
 1555              		.cfi_offset 4, -20
 1556              		.cfi_offset 5, -16
 1557              		.cfi_offset 6, -12
 1558              		.cfi_offset 7, -8
 1559              		.cfi_offset 14, -4
 1560 0002 0546     		mov	r5, r0
 1561 0004 C7B0     		sub	sp, sp, #284
 1562              		.cfi_def_cfa_offset 304
 1563              		.loc 1 799 0
 1564 0006 0E46     		mov	r6, r1
 1565              		.loc 1 804 0
 1566 0008 1868     		ldr	r0, [r3]	@ unaligned
 1567              	.LVL177:
 1568 000a 5968     		ldr	r1, [r3, #4]	@ unaligned
 1569              	.LVL178:
 1570              		.loc 1 799 0
 1571 000c 4C9F     		ldr	r7, [sp, #304]
 1572              		.loc 1 804 0
 1573 000e 01AB     		add	r3, sp, #4
 1574              	.LVL179:
 1575 0010 03C3     		stmia	r3!, {r0, r1}
 1576              		.loc 1 799 0
 1577 0012 1446     		mov	r4, r2
 1578              		.loc 1 806 0
 1579 0014 130A     		lsrs	r3, r2, #8
 1580              		.loc 1 809 0
 1581 0016 3621     		movs	r1, #54
 1582 0018 3022     		movs	r2, #48
 1583              	.LVL180:
 1584 001a 04A8     		add	r0, sp, #16
 1585              		.loc 1 806 0
 1586 001c 8DF80D30 		strb	r3, [sp, #13]
 1587              		.loc 1 807 0
ARM GAS  C:\Users\jo\AppData\Local\Temp\cct348YO.s 			page 29


 1588 0020 8DF80E40 		strb	r4, [sp, #14]
 1589              		.loc 1 805 0
 1590 0024 8DF80C70 		strb	r7, [sp, #12]
 1591              		.loc 1 809 0
 1592 0028 FFF7FEFF 		bl	memset
 1593              	.LVL181:
 1594              		.loc 1 810 0
 1595 002c 10A8     		add	r0, sp, #64
 1596 002e FFF7FEFF 		bl	md5_starts
 1597              	.LVL182:
 1598              		.loc 1 811 0
 1599 0032 10A8     		add	r0, sp, #64
 1600 0034 2946     		mov	r1, r5
 1601 0036 1022     		movs	r2, #16
 1602 0038 FFF7FEFF 		bl	md5_update
 1603              	.LVL183:
 1604              		.loc 1 812 0
 1605 003c 10A8     		add	r0, sp, #64
 1606 003e 04A9     		add	r1, sp, #16
 1607 0040 3022     		movs	r2, #48
 1608 0042 FFF7FEFF 		bl	md5_update
 1609              	.LVL184:
 1610              		.loc 1 813 0
 1611 0046 10A8     		add	r0, sp, #64
 1612 0048 01A9     		add	r1, sp, #4
 1613 004a 0B22     		movs	r2, #11
 1614 004c FFF7FEFF 		bl	md5_update
 1615              	.LVL185:
 1616              		.loc 1 814 0
 1617 0050 2246     		mov	r2, r4
 1618 0052 10A8     		add	r0, sp, #64
 1619              		.loc 1 815 0
 1620 0054 3419     		adds	r4, r6, r4
 1621              	.LVL186:
 1622              		.loc 1 814 0
 1623 0056 3146     		mov	r1, r6
 1624 0058 FFF7FEFF 		bl	md5_update
 1625              	.LVL187:
 1626              		.loc 1 815 0
 1627 005c 2146     		mov	r1, r4
 1628 005e 10A8     		add	r0, sp, #64
 1629 0060 FFF7FEFF 		bl	md5_finish
 1630              	.LVL188:
 1631              		.loc 1 817 0
 1632 0064 5C21     		movs	r1, #92
 1633 0066 3022     		movs	r2, #48
 1634 0068 04A8     		add	r0, sp, #16
 1635 006a FFF7FEFF 		bl	memset
 1636              	.LVL189:
 1637              		.loc 1 818 0
 1638 006e 10A8     		add	r0, sp, #64
 1639 0070 FFF7FEFF 		bl	md5_starts
 1640              	.LVL190:
 1641              		.loc 1 819 0
 1642 0074 10A8     		add	r0, sp, #64
 1643 0076 2946     		mov	r1, r5
 1644 0078 1022     		movs	r2, #16
ARM GAS  C:\Users\jo\AppData\Local\Temp\cct348YO.s 			page 30


 1645 007a FFF7FEFF 		bl	md5_update
 1646              	.LVL191:
 1647              		.loc 1 820 0
 1648 007e 10A8     		add	r0, sp, #64
 1649 0080 04A9     		add	r1, sp, #16
 1650 0082 3022     		movs	r2, #48
 1651 0084 FFF7FEFF 		bl	md5_update
 1652              	.LVL192:
 1653              		.loc 1 821 0
 1654 0088 10A8     		add	r0, sp, #64
 1655 008a 2146     		mov	r1, r4
 1656 008c 1022     		movs	r2, #16
 1657 008e FFF7FEFF 		bl	md5_update
 1658              	.LVL193:
 1659              		.loc 1 822 0
 1660 0092 10A8     		add	r0, sp, #64
 1661 0094 2146     		mov	r1, r4
 1662 0096 FFF7FEFF 		bl	md5_finish
 1663              	.LVL194:
 1664              		.loc 1 823 0
 1665 009a 47B0     		add	sp, sp, #284
 1666              		.cfi_def_cfa_offset 20
 1667              		@ sp needed
 1668 009c F0BD     		pop	{r4, r5, r6, r7, pc}
 1669              		.cfi_endproc
 1670              	.LFE13:
 1671              		.size	ssl_mac_md5, .-ssl_mac_md5
 1672 009e 00BF     		.section	.text.ssl_calc_finished_ssl,"ax",%progbits
 1673              		.align	2
 1674              		.p2align 4,,15
 1675              		.thumb
 1676              		.thumb_func
 1677              		.type	ssl_calc_finished_ssl, %function
 1678              	ssl_calc_finished_ssl:
 1679              	.LFB33:
 1680              		.loc 1 2528 0
 1681              		.cfi_startproc
 1682              		@ args = 0, pretend = 0, frame = 520
 1683              		@ frame_needed = 0, uses_anonymous_args = 0
 1684              	.LVL195:
 1685 0000 2DE9F047 		push	{r4, r5, r6, r7, r8, r9, r10, lr}
 1686              		.cfi_def_cfa_offset 32
 1687              		.cfi_offset 4, -32
 1688              		.cfi_offset 5, -28
 1689              		.cfi_offset 6, -24
 1690              		.cfi_offset 7, -20
 1691              		.cfi_offset 8, -16
 1692              		.cfi_offset 9, -12
 1693              		.cfi_offset 10, -8
 1694              		.cfi_offset 14, -4
 1695              		.loc 1 2537 0
 1696 0004 056F     		ldr	r5, [r0, #112]
 1697              	.LVL196:
 1698              		.loc 1 2528 0
 1699 0006 ADF5067D 		sub	sp, sp, #536
 1700              		.cfi_def_cfa_offset 568
 1701              		.loc 1 2528 0
ARM GAS  C:\Users\jo\AppData\Local\Temp\cct348YO.s 			page 31


 1702 000a 0446     		mov	r4, r0
 1703 000c 0F46     		mov	r7, r1
 1704 000e 9246     		mov	r10, r2
 1705              		.loc 1 2538 0
 1706 0010 002D     		cmp	r5, #0
 1707 0012 00F0DA80 		beq	.L109
 1708              	.L105:
 1709              		.loc 1 2541 0
 1710 0016 6E48     		ldr	r0, .L110
 1711              	.LVL197:
 1712 0018 FFF7FEFF 		bl	debug_fmt
 1713              	.LVL198:
 1714 001c 40F6ED13 		movw	r3, #2541
 1715 0020 0090     		str	r0, [sp]
 1716 0022 0221     		movs	r1, #2
 1717 0024 2046     		mov	r0, r4
 1718 0026 6B4A     		ldr	r2, .L110+4
 1719 0028 FFF7FEFF 		bl	debug_print_msg
 1720              	.LVL199:
 1721              		.loc 1 2543 0
 1722 002c 666F     		ldr	r6, [r4, #116]
 1723 002e 19A8     		add	r0, sp, #100
 1724 0030 06F16401 		add	r1, r6, #100
 1725 0034 D822     		movs	r2, #216
 1726 0036 FFF7FEFF 		bl	memcpy
 1727              	.LVL200:
 1728              		.loc 1 2544 0
 1729 003a 06F59E71 		add	r1, r6, #316
 1730 003e 4FA8     		add	r0, sp, #316
 1731 0040 DC22     		movs	r2, #220
 1732 0042 FFF7FEFF 		bl	memcpy
 1733              	.LVL201:
 1734              		.loc 1 2556 0
 1735 0046 644B     		ldr	r3, .L110+8
 1736 0048 0093     		str	r3, [sp]
 1737 004a 4FF01009 		mov	r9, #16
 1738 004e 1BAB     		add	r3, sp, #108
 1739 0050 0193     		str	r3, [sp, #4]
 1740 0052 2046     		mov	r0, r4
 1741 0054 CDF80890 		str	r9, [sp, #8]
 1742 0058 0421     		movs	r1, #4
 1743 005a 5E4A     		ldr	r2, .L110+4
 1744 005c 40F6FD13 		movw	r3, #2557
 1745 0060 FFF7FEFF 		bl	debug_print_buf
 1746              	.LVL202:
 1747              		.loc 1 2561 0
 1748 0064 5D4B     		ldr	r3, .L110+12
 1749 0066 0093     		str	r3, [sp]
 1750 0068 4FF01408 		mov	r8, #20
 1751 006c 51AB     		add	r3, sp, #324
 1752 006e 0193     		str	r3, [sp, #4]
 1753 0070 2046     		mov	r0, r4
 1754 0072 CDF80880 		str	r8, [sp, #8]
 1755 0076 0421     		movs	r1, #4
 1756 0078 564A     		ldr	r2, .L110+4
 1757 007a 40F60223 		movw	r3, #2562
 1758 007e FFF7FEFF 		bl	debug_print_buf
ARM GAS  C:\Users\jo\AppData\Local\Temp\cct348YO.s 			page 32


 1759              	.LVL203:
 1760              		.loc 1 2565 0
 1761 0082 574B     		ldr	r3, .L110+16
 1762 0084 574A     		ldr	r2, .L110+20
 1763              		.loc 1 2568 0
 1764 0086 0DA8     		add	r0, sp, #52
 1765              		.loc 1 2565 0
 1766 0088 BAF1000F 		cmp	r10, #0
 1767 008c 0CBF     		ite	eq
 1768 008e 1E46     		moveq	r6, r3
 1769 0090 1646     		movne	r6, r2
 1770              	.LVL204:
 1771              		.loc 1 2568 0
 1772 0092 3621     		movs	r1, #54
 1773 0094 3022     		movs	r2, #48
 1774              		.loc 1 2571 0
 1775 0096 1544     		add	r5, r5, r2
 1776              	.LVL205:
 1777              		.loc 1 2568 0
 1778 0098 FFF7FEFF 		bl	memset
 1779              	.LVL206:
 1780              		.loc 1 2570 0
 1781 009c 19A8     		add	r0, sp, #100
 1782 009e 3146     		mov	r1, r6
 1783 00a0 0422     		movs	r2, #4
 1784 00a2 FFF7FEFF 		bl	md5_update
 1785              	.LVL207:
 1786              		.loc 1 2571 0
 1787 00a6 19A8     		add	r0, sp, #100
 1788 00a8 2946     		mov	r1, r5
 1789 00aa 3022     		movs	r2, #48
 1790 00ac FFF7FEFF 		bl	md5_update
 1791              	.LVL208:
 1792              		.loc 1 2572 0
 1793 00b0 19A8     		add	r0, sp, #100
 1794 00b2 0DA9     		add	r1, sp, #52
 1795 00b4 3022     		movs	r2, #48
 1796 00b6 FFF7FEFF 		bl	md5_update
 1797              	.LVL209:
 1798              		.loc 1 2573 0
 1799 00ba 19A8     		add	r0, sp, #100
 1800 00bc 0DEB0901 		add	r1, sp, r9
 1801 00c0 FFF7FEFF 		bl	md5_finish
 1802              	.LVL210:
 1803              		.loc 1 2575 0
 1804 00c4 4FA8     		add	r0, sp, #316
 1805 00c6 3146     		mov	r1, r6
 1806 00c8 0422     		movs	r2, #4
 1807 00ca FFF7FEFF 		bl	sha1_update
 1808              	.LVL211:
 1809              		.loc 1 2576 0
 1810 00ce 4FA8     		add	r0, sp, #316
 1811 00d0 2946     		mov	r1, r5
 1812 00d2 3022     		movs	r2, #48
 1813 00d4 FFF7FEFF 		bl	sha1_update
 1814              	.LVL212:
 1815              		.loc 1 2577 0
ARM GAS  C:\Users\jo\AppData\Local\Temp\cct348YO.s 			page 33


 1816 00d8 4FA8     		add	r0, sp, #316
 1817 00da 0DA9     		add	r1, sp, #52
 1818 00dc 2822     		movs	r2, #40
 1819 00de FFF7FEFF 		bl	sha1_update
 1820              	.LVL213:
 1821              		.loc 1 2578 0
 1822 00e2 4FA8     		add	r0, sp, #316
 1823 00e4 08A9     		add	r1, sp, #32
 1824 00e6 FFF7FEFF 		bl	sha1_finish
 1825              	.LVL214:
 1826              		.loc 1 2580 0
 1827 00ea 5C21     		movs	r1, #92
 1828 00ec 3022     		movs	r2, #48
 1829 00ee 0DA8     		add	r0, sp, #52
 1830 00f0 FFF7FEFF 		bl	memset
 1831              	.LVL215:
 1832              		.loc 1 2582 0
 1833 00f4 19A8     		add	r0, sp, #100
 1834 00f6 FFF7FEFF 		bl	md5_starts
 1835              	.LVL216:
 1836              		.loc 1 2583 0
 1837 00fa 19A8     		add	r0, sp, #100
 1838 00fc 2946     		mov	r1, r5
 1839 00fe 3022     		movs	r2, #48
 1840 0100 FFF7FEFF 		bl	md5_update
 1841              	.LVL217:
 1842              		.loc 1 2584 0
 1843 0104 19A8     		add	r0, sp, #100
 1844 0106 0DA9     		add	r1, sp, #52
 1845 0108 3022     		movs	r2, #48
 1846 010a FFF7FEFF 		bl	md5_update
 1847              	.LVL218:
 1848              		.loc 1 2585 0
 1849 010e 4A46     		mov	r2, r9
 1850 0110 19A8     		add	r0, sp, #100
 1851 0112 0DEB0901 		add	r1, sp, r9
 1852 0116 FFF7FEFF 		bl	md5_update
 1853              	.LVL219:
 1854              		.loc 1 2586 0
 1855 011a 3946     		mov	r1, r7
 1856 011c 19A8     		add	r0, sp, #100
 1857 011e FFF7FEFF 		bl	md5_finish
 1858              	.LVL220:
 1859              		.loc 1 2588 0
 1860 0122 4FA8     		add	r0, sp, #316
 1861 0124 FFF7FEFF 		bl	sha1_starts
 1862              	.LVL221:
 1863              		.loc 1 2589 0
 1864 0128 4FA8     		add	r0, sp, #316
 1865 012a 2946     		mov	r1, r5
 1866 012c 3022     		movs	r2, #48
 1867 012e FFF7FEFF 		bl	sha1_update
 1868              	.LVL222:
 1869              		.loc 1 2590 0
 1870 0132 4FA8     		add	r0, sp, #316
 1871 0134 0DA9     		add	r1, sp, #52
 1872 0136 2822     		movs	r2, #40
ARM GAS  C:\Users\jo\AppData\Local\Temp\cct348YO.s 			page 34


 1873 0138 FFF7FEFF 		bl	sha1_update
 1874              	.LVL223:
 1875              		.loc 1 2591 0
 1876 013c 4246     		mov	r2, r8
 1877 013e 4FA8     		add	r0, sp, #316
 1878 0140 08A9     		add	r1, sp, #32
 1879 0142 FFF7FEFF 		bl	sha1_update
 1880              	.LVL224:
 1881              		.loc 1 2592 0
 1882 0146 4FA8     		add	r0, sp, #316
 1883 0148 07EB0901 		add	r1, r7, r9
 1884 014c FFF7FEFF 		bl	sha1_finish
 1885              	.LVL225:
 1886              		.loc 1 2594 0
 1887 0150 254A     		ldr	r2, .L110+24
 1888 0152 0092     		str	r2, [sp]
 1889 0154 2423     		movs	r3, #36
 1890 0156 0293     		str	r3, [sp, #8]
 1891 0158 2046     		mov	r0, r4
 1892 015a 40F62223 		movw	r3, #2594
 1893 015e 0197     		str	r7, [sp, #4]
 1894 0160 0321     		movs	r1, #3
 1895 0162 1C4A     		ldr	r2, .L110+4
 1896 0164 FFF7FEFF 		bl	debug_print_buf
 1897              	.LVL226:
 1898              		.loc 1 2596 0
 1899 0168 19A8     		add	r0, sp, #100
 1900 016a 0021     		movs	r1, #0
 1901 016c D822     		movs	r2, #216
 1902 016e FFF7FEFF 		bl	memset
 1903              	.LVL227:
 1904              		.loc 1 2600 0
 1905 0172 0DEB0805 		add	r5, sp, r8
 1906              	.LVL228:
 1907              		.loc 1 2597 0
 1908 0176 0021     		movs	r1, #0
 1909 0178 DC22     		movs	r2, #220
 1910 017a 4FA8     		add	r0, sp, #316
 1911 017c FFF7FEFF 		bl	memset
 1912              	.LVL229:
 1913              		.loc 1 2599 0
 1914 0180 0023     		movs	r3, #0
 1915              		.loc 1 2600 0
 1916 0182 0493     		str	r3, [sp, #16]
 1917              		.loc 1 2603 0
 1918 0184 1948     		ldr	r0, .L110+28
 1919              		.loc 1 2600 0
 1920 0186 2B60     		str	r3, [r5]
 1921              		.loc 1 2599 0
 1922 0188 0D93     		str	r3, [sp, #52]
 1923 018a 0E93     		str	r3, [sp, #56]
 1924 018c 0F93     		str	r3, [sp, #60]
 1925              		.loc 1 2601 0
 1926 018e 0893     		str	r3, [sp, #32]
 1927              		.loc 1 2599 0
 1928 0190 1093     		str	r3, [sp, #64]
 1929              		.loc 1 2601 0
ARM GAS  C:\Users\jo\AppData\Local\Temp\cct348YO.s 			page 35


 1930 0192 0993     		str	r3, [sp, #36]
 1931              		.loc 1 2599 0
 1932 0194 1193     		str	r3, [sp, #68]
 1933 0196 1293     		str	r3, [sp, #72]
 1934 0198 1393     		str	r3, [sp, #76]
 1935 019a 1493     		str	r3, [sp, #80]
 1936 019c 1593     		str	r3, [sp, #84]
 1937              		.loc 1 2601 0
 1938 019e 0A93     		str	r3, [sp, #40]
 1939              		.loc 1 2599 0
 1940 01a0 1693     		str	r3, [sp, #88]
 1941 01a2 1793     		str	r3, [sp, #92]
 1942              		.loc 1 2600 0
 1943 01a4 0693     		str	r3, [sp, #24]
 1944              		.loc 1 2601 0
 1945 01a6 0B93     		str	r3, [sp, #44]
 1946              		.loc 1 2599 0
 1947 01a8 1893     		str	r3, [sp, #96]
 1948              		.loc 1 2600 0
 1949 01aa 0793     		str	r3, [sp, #28]
 1950              		.loc 1 2601 0
 1951 01ac 0C93     		str	r3, [sp, #48]
 1952              		.loc 1 2603 0
 1953 01ae FFF7FEFF 		bl	debug_fmt
 1954              	.LVL230:
 1955 01b2 0221     		movs	r1, #2
 1956 01b4 0090     		str	r0, [sp]
 1957 01b6 074A     		ldr	r2, .L110+4
 1958 01b8 2046     		mov	r0, r4
 1959 01ba 40F62B23 		movw	r3, #2603
 1960 01be FFF7FEFF 		bl	debug_print_msg
 1961              	.LVL231:
 1962              		.loc 1 2604 0
 1963 01c2 0DF5067D 		add	sp, sp, #536
 1964              		.cfi_remember_state
 1965              		.cfi_def_cfa_offset 32
 1966              		@ sp needed
 1967 01c6 BDE8F087 		pop	{r4, r5, r6, r7, r8, r9, r10, pc}
 1968              	.LVL232:
 1969              	.L109:
 1970              		.cfi_restore_state
 1971              		.loc 1 2539 0
 1972 01ca C56E     		ldr	r5, [r0, #108]
 1973              	.LVL233:
 1974 01cc 23E7     		b	.L105
 1975              	.L111:
 1976 01ce 00BF     		.align	2
 1977              	.L110:
 1978 01d0 A0010000 		.word	.LC19
 1979 01d4 40000000 		.word	.LC3
 1980 01d8 54010000 		.word	.LC14
 1981 01dc 68010000 		.word	.LC15
 1982 01e0 90010000 		.word	.LC17
 1983 01e4 98010000 		.word	.LC18
 1984 01e8 80000000 		.word	.LC5
 1985 01ec 98000000 		.word	.LC6
 1986              		.cfi_endproc
ARM GAS  C:\Users\jo\AppData\Local\Temp\cct348YO.s 			page 36


 1987              	.LFE33:
 1988              		.size	ssl_calc_finished_ssl, .-ssl_calc_finished_ssl
 1989              		.section	.text.ssl_calc_verify_ssl,"ax",%progbits
 1990              		.align	2
 1991              		.p2align 4,,15
 1992              		.thumb
 1993              		.thumb_func
 1994              		.type	ssl_calc_verify_ssl, %function
 1995              	ssl_calc_verify_ssl:
 1996              	.LFB9:
 1997              		.loc 1 702 0
 1998              		.cfi_startproc
 1999              		@ args = 0, pretend = 0, frame = 536
 2000              		@ frame_needed = 0, uses_anonymous_args = 0
 2001              	.LVL234:
 2002 0000 F0B5     		push	{r4, r5, r6, r7, lr}
 2003              		.cfi_def_cfa_offset 20
 2004              		.cfi_offset 4, -20
 2005              		.cfi_offset 5, -16
 2006              		.cfi_offset 6, -12
 2007              		.cfi_offset 7, -8
 2008              		.cfi_offset 14, -4
 2009 0002 0446     		mov	r4, r0
 2010 0004 ADF50B7D 		sub	sp, sp, #556
 2011              		.cfi_def_cfa_offset 576
 2012              		.loc 1 708 0
 2013 0008 4548     		ldr	r0, .L114
 2014              	.LVL235:
 2015 000a 464E     		ldr	r6, .L114+4
 2016              		.loc 1 702 0
 2017 000c 0D46     		mov	r5, r1
 2018              		.loc 1 708 0
 2019 000e FFF7FEFF 		bl	debug_fmt
 2020              	.LVL236:
 2021 0012 4FF43173 		mov	r3, #708
 2022 0016 3246     		mov	r2, r6
 2023 0018 0090     		str	r0, [sp]
 2024 001a 0221     		movs	r1, #2
 2025 001c 2046     		mov	r0, r4
 2026 001e FFF7FEFF 		bl	debug_print_msg
 2027              	.LVL237:
 2028              		.loc 1 710 0
 2029 0022 676F     		ldr	r7, [r4, #116]
 2030 0024 1DA8     		add	r0, sp, #116
 2031 0026 07F16401 		add	r1, r7, #100
 2032 002a D822     		movs	r2, #216
 2033 002c FFF7FEFF 		bl	memcpy
 2034              	.LVL238:
 2035              		.loc 1 711 0
 2036 0030 07F59E71 		add	r1, r7, #316
 2037 0034 53A8     		add	r0, sp, #332
 2038 0036 DC22     		movs	r2, #220
 2039 0038 FFF7FEFF 		bl	memcpy
 2040              	.LVL239:
 2041              		.loc 1 713 0
 2042 003c 05A8     		add	r0, sp, #20
 2043 003e 3621     		movs	r1, #54
ARM GAS  C:\Users\jo\AppData\Local\Temp\cct348YO.s 			page 37


 2044 0040 3022     		movs	r2, #48
 2045 0042 FFF7FEFF 		bl	memset
 2046              	.LVL240:
 2047              		.loc 1 714 0
 2048 0046 11A8     		add	r0, sp, #68
 2049 0048 5C21     		movs	r1, #92
 2050 004a 3022     		movs	r2, #48
 2051 004c FFF7FEFF 		bl	memset
 2052              	.LVL241:
 2053              		.loc 1 716 0
 2054 0050 216F     		ldr	r1, [r4, #112]
 2055 0052 1DA8     		add	r0, sp, #116
 2056 0054 3031     		adds	r1, r1, #48
 2057 0056 3022     		movs	r2, #48
 2058 0058 FFF7FEFF 		bl	md5_update
 2059              	.LVL242:
 2060              		.loc 1 717 0
 2061 005c 3022     		movs	r2, #48
 2062 005e 1DA8     		add	r0, sp, #116
 2063 0060 05A9     		add	r1, sp, #20
 2064 0062 FFF7FEFF 		bl	md5_update
 2065              	.LVL243:
 2066              		.loc 1 718 0
 2067 0066 2946     		mov	r1, r5
 2068 0068 1DA8     		add	r0, sp, #116
 2069 006a FFF7FEFF 		bl	md5_finish
 2070              	.LVL244:
 2071              		.loc 1 720 0
 2072 006e 1DA8     		add	r0, sp, #116
 2073 0070 FFF7FEFF 		bl	md5_starts
 2074              	.LVL245:
 2075              		.loc 1 721 0
 2076 0074 216F     		ldr	r1, [r4, #112]
 2077 0076 1DA8     		add	r0, sp, #116
 2078 0078 3031     		adds	r1, r1, #48
 2079 007a 3022     		movs	r2, #48
 2080 007c FFF7FEFF 		bl	md5_update
 2081              	.LVL246:
 2082              		.loc 1 722 0
 2083 0080 1DA8     		add	r0, sp, #116
 2084 0082 11A9     		add	r1, sp, #68
 2085 0084 3022     		movs	r2, #48
 2086 0086 FFF7FEFF 		bl	md5_update
 2087              	.LVL247:
 2088              		.loc 1 723 0
 2089 008a 1DA8     		add	r0, sp, #116
 2090 008c 2946     		mov	r1, r5
 2091 008e 1022     		movs	r2, #16
 2092 0090 FFF7FEFF 		bl	md5_update
 2093              	.LVL248:
 2094              		.loc 1 724 0
 2095 0094 1DA8     		add	r0, sp, #116
 2096 0096 2946     		mov	r1, r5
 2097 0098 FFF7FEFF 		bl	md5_finish
 2098              	.LVL249:
 2099              		.loc 1 726 0
 2100 009c 216F     		ldr	r1, [r4, #112]
ARM GAS  C:\Users\jo\AppData\Local\Temp\cct348YO.s 			page 38


 2101 009e 53A8     		add	r0, sp, #332
 2102 00a0 3031     		adds	r1, r1, #48
 2103 00a2 3022     		movs	r2, #48
 2104 00a4 FFF7FEFF 		bl	sha1_update
 2105              	.LVL250:
 2106              		.loc 1 728 0
 2107 00a8 05F11007 		add	r7, r5, #16
 2108              		.loc 1 727 0
 2109 00ac 2822     		movs	r2, #40
 2110 00ae 53A8     		add	r0, sp, #332
 2111 00b0 05A9     		add	r1, sp, #20
 2112 00b2 FFF7FEFF 		bl	sha1_update
 2113              	.LVL251:
 2114              		.loc 1 728 0
 2115 00b6 3946     		mov	r1, r7
 2116 00b8 53A8     		add	r0, sp, #332
 2117 00ba FFF7FEFF 		bl	sha1_finish
 2118              	.LVL252:
 2119              		.loc 1 730 0
 2120 00be 53A8     		add	r0, sp, #332
 2121 00c0 FFF7FEFF 		bl	sha1_starts
 2122              	.LVL253:
 2123              		.loc 1 731 0
 2124 00c4 216F     		ldr	r1, [r4, #112]
 2125 00c6 53A8     		add	r0, sp, #332
 2126 00c8 3031     		adds	r1, r1, #48
 2127 00ca 3022     		movs	r2, #48
 2128 00cc FFF7FEFF 		bl	sha1_update
 2129              	.LVL254:
 2130              		.loc 1 732 0
 2131 00d0 53A8     		add	r0, sp, #332
 2132 00d2 11A9     		add	r1, sp, #68
 2133 00d4 2822     		movs	r2, #40
 2134 00d6 FFF7FEFF 		bl	sha1_update
 2135              	.LVL255:
 2136              		.loc 1 733 0
 2137 00da 53A8     		add	r0, sp, #332
 2138 00dc 3946     		mov	r1, r7
 2139 00de 1422     		movs	r2, #20
 2140 00e0 FFF7FEFF 		bl	sha1_update
 2141              	.LVL256:
 2142              		.loc 1 734 0
 2143 00e4 53A8     		add	r0, sp, #332
 2144 00e6 3946     		mov	r1, r7
 2145 00e8 FFF7FEFF 		bl	sha1_finish
 2146              	.LVL257:
 2147              		.loc 1 736 0
 2148 00ec 0E49     		ldr	r1, .L114+8
 2149 00ee 0091     		str	r1, [sp]
 2150 00f0 2423     		movs	r3, #36
 2151 00f2 3246     		mov	r2, r6
 2152 00f4 2046     		mov	r0, r4
 2153 00f6 0293     		str	r3, [sp, #8]
 2154 00f8 0321     		movs	r1, #3
 2155 00fa 4FF43873 		mov	r3, #736
 2156 00fe 0195     		str	r5, [sp, #4]
 2157 0100 FFF7FEFF 		bl	debug_print_buf
ARM GAS  C:\Users\jo\AppData\Local\Temp\cct348YO.s 			page 39


 2158              	.LVL258:
 2159              		.loc 1 737 0
 2160 0104 0948     		ldr	r0, .L114+12
 2161 0106 FFF7FEFF 		bl	debug_fmt
 2162              	.LVL259:
 2163 010a 3246     		mov	r2, r6
 2164 010c 0090     		str	r0, [sp]
 2165 010e 0221     		movs	r1, #2
 2166 0110 2046     		mov	r0, r4
 2167 0112 40F2E123 		movw	r3, #737
 2168 0116 FFF7FEFF 		bl	debug_print_msg
 2169              	.LVL260:
 2170              		.loc 1 740 0
 2171 011a 0DF50B7D 		add	sp, sp, #556
 2172              		.cfi_def_cfa_offset 20
 2173              		@ sp needed
 2174 011e F0BD     		pop	{r4, r5, r6, r7, pc}
 2175              	.LVL261:
 2176              	.L115:
 2177              		.align	2
 2178              	.L114:
 2179 0120 B8010000 		.word	.LC20
 2180 0124 40000000 		.word	.LC3
 2181 0128 C4000000 		.word	.LC8
 2182 012c E0000000 		.word	.LC9
 2183              		.cfi_endproc
 2184              	.LFE9:
 2185              		.size	ssl_calc_verify_ssl, .-ssl_calc_verify_ssl
 2186              		.section	.text.ssl3_prf,"ax",%progbits
 2187              		.align	2
 2188              		.p2align 4,,15
 2189              		.thumb
 2190              		.thumb_func
 2191              		.type	ssl3_prf, %function
 2192              	ssl3_prf:
 2193              	.LFB4:
 2194              		.loc 1 96 0
 2195              		.cfi_startproc
 2196              		@ args = 12, pretend = 0, frame = 480
 2197              		@ frame_needed = 0, uses_anonymous_args = 0
 2198              	.LVL262:
 2199 0000 2DE9F04F 		push	{r4, r5, r6, r7, r8, r9, r10, fp, lr}
 2200              		.cfi_def_cfa_offset 36
 2201              		.cfi_offset 4, -36
 2202              		.cfi_offset 5, -32
 2203              		.cfi_offset 6, -28
 2204              		.cfi_offset 7, -24
 2205              		.cfi_offset 8, -20
 2206              		.cfi_offset 9, -16
 2207              		.cfi_offset 10, -12
 2208              		.cfi_offset 11, -8
 2209              		.cfi_offset 14, -4
 2210 0004 F9B0     		sub	sp, sp, #484
 2211              		.cfi_def_cfa_offset 520
 2212              		.loc 1 96 0
 2213 0006 849A     		ldr	r2, [sp, #528]
 2214              	.LVL263:
ARM GAS  C:\Users\jo\AppData\Local\Temp\cct348YO.s 			page 40


 2215 0008 0193     		str	r3, [sp, #4]
 2216              		.loc 1 112 0
 2217 000a 1309     		lsrs	r3, r2, #4
 2218              	.LVL264:
 2219 000c 0093     		str	r3, [sp]
 2220 000e 4ED0     		beq	.L123
 2221 0010 839E     		ldr	r6, [sp, #524]
 2222 0012 8146     		mov	r9, r0
 2223 0014 8A46     		mov	r10, r1
 2224 0016 4FF0000B 		mov	fp, #0
 2225 001a 0BAD     		add	r5, sp, #44
 2226 001c 41AC     		add	r4, sp, #260
 2227 001e 02AF     		add	r7, sp, #8
 2228 0020 0DF11808 		add	r8, sp, #24
 2229              	.LVL265:
 2230              	.L118:
 2231 0024 0BF14101 		add	r1, fp, #65
 2232              		.loc 1 114 0 discriminator 3
 2233 0028 0BF1010B 		add	fp, fp, #1
 2234              	.LVL266:
 2235 002c 5A46     		mov	r2, fp
 2236 002e 3846     		mov	r0, r7
 2237 0030 FFF7FEFF 		bl	memset
 2238              	.LVL267:
 2239              		.loc 1 116 0 discriminator 3
 2240 0034 2046     		mov	r0, r4
 2241 0036 FFF7FEFF 		bl	sha1_starts
 2242              	.LVL268:
 2243              		.loc 1 117 0 discriminator 3
 2244 003a 2046     		mov	r0, r4
 2245 003c 3946     		mov	r1, r7
 2246 003e 5A46     		mov	r2, fp
 2247 0040 FFF7FEFF 		bl	sha1_update
 2248              	.LVL269:
 2249              		.loc 1 118 0 discriminator 3
 2250 0044 2046     		mov	r0, r4
 2251 0046 4946     		mov	r1, r9
 2252 0048 5246     		mov	r2, r10
 2253 004a FFF7FEFF 		bl	sha1_update
 2254              	.LVL270:
 2255              		.loc 1 119 0 discriminator 3
 2256 004e 829A     		ldr	r2, [sp, #520]
 2257 0050 0199     		ldr	r1, [sp, #4]
 2258 0052 2046     		mov	r0, r4
 2259 0054 FFF7FEFF 		bl	sha1_update
 2260              	.LVL271:
 2261              		.loc 1 120 0 discriminator 3
 2262 0058 4146     		mov	r1, r8
 2263 005a 2046     		mov	r0, r4
 2264 005c FFF7FEFF 		bl	sha1_finish
 2265              	.LVL272:
 2266              		.loc 1 122 0 discriminator 3
 2267 0060 2846     		mov	r0, r5
 2268 0062 FFF7FEFF 		bl	md5_starts
 2269              	.LVL273:
 2270              		.loc 1 123 0 discriminator 3
 2271 0066 2846     		mov	r0, r5
ARM GAS  C:\Users\jo\AppData\Local\Temp\cct348YO.s 			page 41


 2272 0068 4946     		mov	r1, r9
 2273 006a 5246     		mov	r2, r10
 2274 006c FFF7FEFF 		bl	md5_update
 2275              	.LVL274:
 2276              		.loc 1 124 0 discriminator 3
 2277 0070 2846     		mov	r0, r5
 2278 0072 4146     		mov	r1, r8
 2279 0074 1422     		movs	r2, #20
 2280 0076 FFF7FEFF 		bl	md5_update
 2281              	.LVL275:
 2282              		.loc 1 125 0 discriminator 3
 2283 007a 3146     		mov	r1, r6
 2284 007c 2846     		mov	r0, r5
 2285 007e FFF7FEFF 		bl	md5_finish
 2286              	.LVL276:
 2287              		.loc 1 112 0 discriminator 3
 2288 0082 009B     		ldr	r3, [sp]
 2289 0084 9B45     		cmp	fp, r3
 2290 0086 06F11006 		add	r6, r6, #16
 2291 008a CBD1     		bne	.L118
 2292              	.LVL277:
 2293              	.L119:
 2294              		.loc 1 128 0
 2295 008c 2846     		mov	r0, r5
 2296 008e 0021     		movs	r1, #0
 2297 0090 D822     		movs	r2, #216
 2298 0092 FFF7FEFF 		bl	memset
 2299              	.LVL278:
 2300              		.loc 1 129 0
 2301 0096 2046     		mov	r0, r4
 2302 0098 0021     		movs	r1, #0
 2303 009a DC22     		movs	r2, #220
 2304 009c FFF7FEFF 		bl	memset
 2305              	.LVL279:
 2306              		.loc 1 131 0
 2307 00a0 0020     		movs	r0, #0
 2308 00a2 3860     		str	r0, [r7]
 2309              		.loc 1 132 0
 2310 00a4 C8F80000 		str	r0, [r8]
 2311              		.loc 1 135 0
 2312 00a8 79B0     		add	sp, sp, #484
 2313              		.cfi_remember_state
 2314              		.cfi_def_cfa_offset 36
 2315              		@ sp needed
 2316 00aa BDE8F08F 		pop	{r4, r5, r6, r7, r8, r9, r10, fp, pc}
 2317              	.LVL280:
 2318              	.L123:
 2319              		.cfi_restore_state
 2320 00ae 0BAD     		add	r5, sp, #44
 2321 00b0 41AC     		add	r4, sp, #260
 2322 00b2 02AF     		add	r7, sp, #8
 2323 00b4 0DF11808 		add	r8, sp, #24
 2324 00b8 E8E7     		b	.L119
 2325              		.cfi_endproc
 2326              	.LFE4:
 2327              		.size	ssl3_prf, .-ssl3_prf
 2328 00ba 00BFAFF3 		.section	.text.ssl_mac_sha1,"ax",%progbits
ARM GAS  C:\Users\jo\AppData\Local\Temp\cct348YO.s 			page 42


 2328      0080
 2329              		.align	2
 2330              		.p2align 4,,15
 2331              		.thumb
 2332              		.thumb_func
 2333              		.type	ssl_mac_sha1, %function
 2334              	ssl_mac_sha1:
 2335              	.LFB14:
 2336              		.loc 1 828 0
 2337              		.cfi_startproc
 2338              		@ args = 4, pretend = 0, frame = 272
 2339              		@ frame_needed = 0, uses_anonymous_args = 0
 2340              	.LVL281:
 2341 0000 F0B5     		push	{r4, r5, r6, r7, lr}
 2342              		.cfi_def_cfa_offset 20
 2343              		.cfi_offset 4, -20
 2344              		.cfi_offset 5, -16
 2345              		.cfi_offset 6, -12
 2346              		.cfi_offset 7, -8
 2347              		.cfi_offset 14, -4
 2348 0002 0546     		mov	r5, r0
 2349 0004 C5B0     		sub	sp, sp, #276
 2350              		.cfi_def_cfa_offset 296
 2351              		.loc 1 828 0
 2352 0006 0E46     		mov	r6, r1
 2353              		.loc 1 833 0
 2354 0008 1868     		ldr	r0, [r3]	@ unaligned
 2355              	.LVL282:
 2356 000a 5968     		ldr	r1, [r3, #4]	@ unaligned
 2357              	.LVL283:
 2358              		.loc 1 828 0
 2359 000c 4A9F     		ldr	r7, [sp, #296]
 2360              		.loc 1 833 0
 2361 000e 6B46     		mov	r3, sp
 2362              	.LVL284:
 2363 0010 03C3     		stmia	r3!, {r0, r1}
 2364              		.loc 1 828 0
 2365 0012 1446     		mov	r4, r2
 2366              		.loc 1 835 0
 2367 0014 130A     		lsrs	r3, r2, #8
 2368              		.loc 1 838 0
 2369 0016 3621     		movs	r1, #54
 2370 0018 2822     		movs	r2, #40
 2371              	.LVL285:
 2372 001a 03A8     		add	r0, sp, #12
 2373              		.loc 1 835 0
 2374 001c 8DF80930 		strb	r3, [sp, #9]
 2375              		.loc 1 836 0
 2376 0020 8DF80A40 		strb	r4, [sp, #10]
 2377              		.loc 1 834 0
 2378 0024 8DF80870 		strb	r7, [sp, #8]
 2379              		.loc 1 838 0
 2380 0028 FFF7FEFF 		bl	memset
 2381              	.LVL286:
 2382              		.loc 1 839 0
 2383 002c 0DA8     		add	r0, sp, #52
 2384 002e FFF7FEFF 		bl	sha1_starts
ARM GAS  C:\Users\jo\AppData\Local\Temp\cct348YO.s 			page 43


 2385              	.LVL287:
 2386              		.loc 1 840 0
 2387 0032 0DA8     		add	r0, sp, #52
 2388 0034 2946     		mov	r1, r5
 2389 0036 1422     		movs	r2, #20
 2390 0038 FFF7FEFF 		bl	sha1_update
 2391              	.LVL288:
 2392              		.loc 1 841 0
 2393 003c 0DA8     		add	r0, sp, #52
 2394 003e 03A9     		add	r1, sp, #12
 2395 0040 2822     		movs	r2, #40
 2396 0042 FFF7FEFF 		bl	sha1_update
 2397              	.LVL289:
 2398              		.loc 1 842 0
 2399 0046 0DA8     		add	r0, sp, #52
 2400 0048 6946     		mov	r1, sp
 2401 004a 0B22     		movs	r2, #11
 2402 004c FFF7FEFF 		bl	sha1_update
 2403              	.LVL290:
 2404              		.loc 1 843 0
 2405 0050 2246     		mov	r2, r4
 2406 0052 0DA8     		add	r0, sp, #52
 2407              		.loc 1 844 0
 2408 0054 3419     		adds	r4, r6, r4
 2409              	.LVL291:
 2410              		.loc 1 843 0
 2411 0056 3146     		mov	r1, r6
 2412 0058 FFF7FEFF 		bl	sha1_update
 2413              	.LVL292:
 2414              		.loc 1 844 0
 2415 005c 2146     		mov	r1, r4
 2416 005e 0DA8     		add	r0, sp, #52
 2417 0060 FFF7FEFF 		bl	sha1_finish
 2418              	.LVL293:
 2419              		.loc 1 846 0
 2420 0064 5C21     		movs	r1, #92
 2421 0066 2822     		movs	r2, #40
 2422 0068 03A8     		add	r0, sp, #12
 2423 006a FFF7FEFF 		bl	memset
 2424              	.LVL294:
 2425              		.loc 1 847 0
 2426 006e 0DA8     		add	r0, sp, #52
 2427 0070 FFF7FEFF 		bl	sha1_starts
 2428              	.LVL295:
 2429              		.loc 1 848 0
 2430 0074 0DA8     		add	r0, sp, #52
 2431 0076 2946     		mov	r1, r5
 2432 0078 1422     		movs	r2, #20
 2433 007a FFF7FEFF 		bl	sha1_update
 2434              	.LVL296:
 2435              		.loc 1 849 0
 2436 007e 0DA8     		add	r0, sp, #52
 2437 0080 03A9     		add	r1, sp, #12
 2438 0082 2822     		movs	r2, #40
 2439 0084 FFF7FEFF 		bl	sha1_update
 2440              	.LVL297:
 2441              		.loc 1 850 0
ARM GAS  C:\Users\jo\AppData\Local\Temp\cct348YO.s 			page 44


 2442 0088 0DA8     		add	r0, sp, #52
 2443 008a 2146     		mov	r1, r4
 2444 008c 1422     		movs	r2, #20
 2445 008e FFF7FEFF 		bl	sha1_update
 2446              	.LVL298:
 2447              		.loc 1 851 0
 2448 0092 0DA8     		add	r0, sp, #52
 2449 0094 2146     		mov	r1, r4
 2450 0096 FFF7FEFF 		bl	sha1_finish
 2451              	.LVL299:
 2452              		.loc 1 852 0
 2453 009a 45B0     		add	sp, sp, #276
 2454              		.cfi_def_cfa_offset 20
 2455              		@ sp needed
 2456 009c F0BD     		pop	{r4, r5, r6, r7, pc}
 2457              		.cfi_endproc
 2458              	.LFE14:
 2459              		.size	ssl_mac_sha1, .-ssl_mac_sha1
 2460              		.section	.text.ssl_mac_sha2,"ax",%progbits
 2461              		.align	2
 2462              		.p2align 4,,15
 2463              		.thumb
 2464              		.thumb_func
 2465              		.type	ssl_mac_sha2, %function
 2466              	ssl_mac_sha2:
 2467              	.LFB15:
 2468              		.loc 1 857 0
 2469              		.cfi_startproc
 2470              		@ args = 4, pretend = 0, frame = 280
 2471              		@ frame_needed = 0, uses_anonymous_args = 0
 2472              	.LVL300:
 2473 0000 F0B5     		push	{r4, r5, r6, r7, lr}
 2474              		.cfi_def_cfa_offset 20
 2475              		.cfi_offset 4, -20
 2476              		.cfi_offset 5, -16
 2477              		.cfi_offset 6, -12
 2478              		.cfi_offset 7, -8
 2479              		.cfi_offset 14, -4
 2480 0002 0546     		mov	r5, r0
 2481 0004 C7B0     		sub	sp, sp, #284
 2482              		.cfi_def_cfa_offset 304
 2483              		.loc 1 857 0
 2484 0006 0E46     		mov	r6, r1
 2485              		.loc 1 862 0
 2486 0008 1868     		ldr	r0, [r3]	@ unaligned
 2487              	.LVL301:
 2488 000a 5968     		ldr	r1, [r3, #4]	@ unaligned
 2489              	.LVL302:
 2490              		.loc 1 857 0
 2491 000c 4C9F     		ldr	r7, [sp, #304]
 2492              		.loc 1 862 0
 2493 000e 6B46     		mov	r3, sp
 2494              	.LVL303:
 2495 0010 03C3     		stmia	r3!, {r0, r1}
 2496              		.loc 1 857 0
 2497 0012 1446     		mov	r4, r2
 2498              		.loc 1 864 0
ARM GAS  C:\Users\jo\AppData\Local\Temp\cct348YO.s 			page 45


 2499 0014 130A     		lsrs	r3, r2, #8
 2500              		.loc 1 867 0
 2501 0016 03A8     		add	r0, sp, #12
 2502 0018 2022     		movs	r2, #32
 2503              	.LVL304:
 2504 001a 3621     		movs	r1, #54
 2505              		.loc 1 864 0
 2506 001c 8DF80930 		strb	r3, [sp, #9]
 2507              		.loc 1 865 0
 2508 0020 8DF80A40 		strb	r4, [sp, #10]
 2509              		.loc 1 863 0
 2510 0024 8DF80870 		strb	r7, [sp, #8]
 2511              		.loc 1 867 0
 2512 0028 FFF7FEFF 		bl	memset
 2513              	.LVL305:
 2514              		.loc 1 868 0
 2515 002c 0BA8     		add	r0, sp, #44
 2516 002e 0021     		movs	r1, #0
 2517 0030 FFF7FEFF 		bl	sha2_starts
 2518              	.LVL306:
 2519              		.loc 1 869 0
 2520 0034 0BA8     		add	r0, sp, #44
 2521 0036 2946     		mov	r1, r5
 2522 0038 2022     		movs	r2, #32
 2523 003a FFF7FEFF 		bl	sha2_update
 2524              	.LVL307:
 2525              		.loc 1 870 0
 2526 003e 0BA8     		add	r0, sp, #44
 2527 0040 03A9     		add	r1, sp, #12
 2528 0042 2022     		movs	r2, #32
 2529 0044 FFF7FEFF 		bl	sha2_update
 2530              	.LVL308:
 2531              		.loc 1 871 0
 2532 0048 0BA8     		add	r0, sp, #44
 2533 004a 6946     		mov	r1, sp
 2534 004c 0B22     		movs	r2, #11
 2535 004e FFF7FEFF 		bl	sha2_update
 2536              	.LVL309:
 2537              		.loc 1 872 0
 2538 0052 2246     		mov	r2, r4
 2539 0054 0BA8     		add	r0, sp, #44
 2540              		.loc 1 873 0
 2541 0056 3419     		adds	r4, r6, r4
 2542              	.LVL310:
 2543              		.loc 1 872 0
 2544 0058 3146     		mov	r1, r6
 2545 005a FFF7FEFF 		bl	sha2_update
 2546              	.LVL311:
 2547              		.loc 1 873 0
 2548 005e 2146     		mov	r1, r4
 2549 0060 0BA8     		add	r0, sp, #44
 2550 0062 FFF7FEFF 		bl	sha2_finish
 2551              	.LVL312:
 2552              		.loc 1 875 0
 2553 0066 2022     		movs	r2, #32
 2554 0068 03A8     		add	r0, sp, #12
 2555 006a 5C21     		movs	r1, #92
ARM GAS  C:\Users\jo\AppData\Local\Temp\cct348YO.s 			page 46


 2556 006c FFF7FEFF 		bl	memset
 2557              	.LVL313:
 2558              		.loc 1 876 0
 2559 0070 0BA8     		add	r0, sp, #44
 2560 0072 0021     		movs	r1, #0
 2561 0074 FFF7FEFF 		bl	sha2_starts
 2562              	.LVL314:
 2563              		.loc 1 877 0
 2564 0078 0BA8     		add	r0, sp, #44
 2565 007a 2946     		mov	r1, r5
 2566 007c 2022     		movs	r2, #32
 2567 007e FFF7FEFF 		bl	sha2_update
 2568              	.LVL315:
 2569              		.loc 1 878 0
 2570 0082 0BA8     		add	r0, sp, #44
 2571 0084 03A9     		add	r1, sp, #12
 2572 0086 2022     		movs	r2, #32
 2573 0088 FFF7FEFF 		bl	sha2_update
 2574              	.LVL316:
 2575              		.loc 1 879 0
 2576 008c 0BA8     		add	r0, sp, #44
 2577 008e 2146     		mov	r1, r4
 2578 0090 2022     		movs	r2, #32
 2579 0092 FFF7FEFF 		bl	sha2_update
 2580              	.LVL317:
 2581              		.loc 1 880 0
 2582 0096 0BA8     		add	r0, sp, #44
 2583 0098 2146     		mov	r1, r4
 2584 009a FFF7FEFF 		bl	sha2_finish
 2585              	.LVL318:
 2586              		.loc 1 881 0
 2587 009e 47B0     		add	sp, sp, #284
 2588              		.cfi_def_cfa_offset 20
 2589              		@ sp needed
 2590 00a0 F0BD     		pop	{r4, r5, r6, r7, pc}
 2591              		.cfi_endproc
 2592              	.LFE15:
 2593              		.size	ssl_mac_sha2, .-ssl_mac_sha2
 2594 00a2 00BFAFF3 		.section	.text.ssl_encrypt_buf,"ax",%progbits
 2594      0080AFF3 
 2594      0080AFF3 
 2594      0080
 2595              		.align	2
 2596              		.p2align 4,,15
 2597              		.thumb
 2598              		.thumb_func
 2599              		.type	ssl_encrypt_buf, %function
 2600              	ssl_encrypt_buf:
 2601              	.LFB16:
 2602              		.loc 1 887 0
 2603              		.cfi_startproc
 2604              		@ args = 0, pretend = 0, frame = 240
 2605              		@ frame_needed = 0, uses_anonymous_args = 0
 2606              	.LVL319:
 2607 0000 2DE9F043 		push	{r4, r5, r6, r7, r8, r9, lr}
 2608              		.cfi_def_cfa_offset 28
 2609              		.cfi_offset 4, -28
ARM GAS  C:\Users\jo\AppData\Local\Temp\cct348YO.s 			page 47


 2610              		.cfi_offset 5, -24
 2611              		.cfi_offset 6, -20
 2612              		.cfi_offset 7, -16
 2613              		.cfi_offset 8, -12
 2614              		.cfi_offset 9, -8
 2615              		.cfi_offset 14, -4
 2616 0004 0446     		mov	r4, r0
 2617 0006 C5B0     		sub	sp, sp, #276
 2618              		.cfi_def_cfa_offset 304
 2619              		.loc 1 890 0
 2620 0008 C148     		ldr	r0, .L212
 2621              	.LVL320:
 2622 000a FFF7FEFF 		bl	debug_fmt
 2623              	.LVL321:
 2624 000e 40F27A33 		movw	r3, #890
 2625 0012 0090     		str	r0, [sp]
 2626 0014 0221     		movs	r1, #2
 2627 0016 BF4A     		ldr	r2, .L212+4
 2628 0018 2046     		mov	r0, r4
 2629 001a FFF7FEFF 		bl	debug_print_msg
 2630              	.LVL322:
 2631              		.loc 1 895 0
 2632 001e E368     		ldr	r3, [r4, #12]
 2633 0020 CBB9     		cbnz	r3, .L129
 2634              		.loc 1 897 0
 2635 0022 E06F     		ldr	r0, [r4, #124]
 2636 0024 0269     		ldr	r2, [r0, #16]
 2637 0026 102A     		cmp	r2, #16
 2638 0028 00F0DC80 		beq	.L199
 2639              		.loc 1 901 0
 2640 002c 142A     		cmp	r2, #20
 2641 002e 00F09A81 		beq	.L200
 2642              		.loc 1 905 0
 2643 0032 202A     		cmp	r2, #32
 2644 0034 00F0C781 		beq	.L201
 2645              		.loc 1 909 0
 2646 0038 DAB1     		cbz	r2, .L131
 2647              		.loc 1 911 0
 2648 003a 1146     		mov	r1, r2
 2649 003c B648     		ldr	r0, .L212+8
 2650 003e FFF7FEFF 		bl	debug_fmt
 2651              	.LVL323:
 2652 0042 0121     		movs	r1, #1
 2653 0044 0090     		str	r0, [sp]
 2654 0046 B34A     		ldr	r2, .L212+4
 2655 0048 2046     		mov	r0, r4
 2656 004a 4FF46473 		mov	r3, #912
 2657 004e FFF7FEFF 		bl	debug_print_msg
 2658              	.LVL324:
 2659              		.loc 1 913 0
 2660 0052 B248     		ldr	r0, .L212+12
 2661 0054 53E0     		b	.L134
 2662              	.L129:
 2663              		.loc 1 918 0
 2664 0056 E16F     		ldr	r1, [r4, #124]
 2665 0058 0A69     		ldr	r2, [r1, #16]
 2666 005a 102A     		cmp	r2, #16
ARM GAS  C:\Users\jo\AppData\Local\Temp\cct348YO.s 			page 48


 2667 005c 00F0D180 		beq	.L202
 2668              		.loc 1 927 0
 2669 0060 142A     		cmp	r2, #20
 2670 0062 00F08F81 		beq	.L203
 2671              		.loc 1 936 0
 2672 0066 202A     		cmp	r2, #32
 2673 0068 00F0BC81 		beq	.L204
 2674              		.loc 1 945 0
 2675 006c 002A     		cmp	r2, #0
 2676 006e 40F04B82 		bne	.L205
 2677              	.L131:
 2678              		.loc 1 953 0
 2679 0072 D4F8B400 		ldr	r0, [r4, #180]
 2680 0076 D4F8BC30 		ldr	r3, [r4, #188]
 2681 007a A949     		ldr	r1, .L212+16
 2682 007c 0292     		str	r2, [sp, #8]
 2683 007e 0344     		add	r3, r3, r0
 2684 0080 8DE80A00 		stmia	sp, {r1, r3}
 2685 0084 A34A     		ldr	r2, .L212+4
 2686 0086 0421     		movs	r1, #4
 2687 0088 40F2BA33 		movw	r3, #954
 2688 008c 2046     		mov	r0, r4
 2689 008e FFF7FEFF 		bl	debug_print_buf
 2690              	.LVL325:
 2691              		.loc 1 956 0
 2692 0092 E36F     		ldr	r3, [r4, #124]
 2693 0094 D4F8BC10 		ldr	r1, [r4, #188]
 2694 0098 1D69     		ldr	r5, [r3, #16]
 2695              		.loc 1 958 0
 2696 009a 9A68     		ldr	r2, [r3, #8]
 2697              		.loc 1 956 0
 2698 009c 0D44     		add	r5, r5, r1
 2699 009e C4F8BC50 		str	r5, [r4, #188]
 2700              		.loc 1 958 0
 2701 00a2 7AB3     		cbz	r2, .L206
 2702              		.loc 1 987 0
 2703 00a4 0C2A     		cmp	r2, #12
 2704 00a6 6FD0     		beq	.L207
 2705              	.LBB24:
 2706              		.loc 1 1073 0
 2707 00a8 6E1C     		adds	r6, r5, #1
 2708 00aa B6FBF2F3 		udiv	r3, r6, r2
 2709 00ae 02FB1366 		mls	r6, r2, r3, r6
 2710 00b2 961B     		subs	r6, r2, r6
 2711              	.LVL326:
 2712              		.loc 1 1075 0
 2713 00b4 B242     		cmp	r2, r6
 2714 00b6 0ABF     		itet	eq
 2715 00b8 0023     		moveq	r3, #0
 2716 00ba F3B2     		uxtbne	r3, r6
 2717              		.loc 1 1076 0
 2718 00bc 1E46     		moveq	r6, r3
 2719              	.LVL327:
 2720              		.loc 1 1078 0
 2721 00be 0022     		movs	r2, #0
 2722 00c0 01E0     		b	.L145
 2723              	.LVL328:
ARM GAS  C:\Users\jo\AppData\Local\Temp\cct348YO.s 			page 49


 2724              	.L208:
 2725 00c2 D4F8BC50 		ldr	r5, [r4, #188]
 2726              	.LVL329:
 2727              	.L145:
 2728              		.loc 1 1079 0 discriminator 3
 2729 00c6 D4F8B410 		ldr	r1, [r4, #180]
 2730 00ca 1144     		add	r1, r1, r2
 2731              		.loc 1 1078 0 discriminator 3
 2732 00cc 0132     		adds	r2, r2, #1
 2733              	.LVL330:
 2734 00ce 9642     		cmp	r6, r2
 2735              		.loc 1 1079 0 discriminator 3
 2736 00d0 4B55     		strb	r3, [r1, r5]
 2737              		.loc 1 1078 0 discriminator 3
 2738 00d2 F6D2     		bcs	.L208
 2739 00d4 D4F8BC30 		ldr	r3, [r4, #188]
 2740              		.loc 1 1090 0
 2741 00d8 E268     		ldr	r2, [r4, #12]
 2742              	.LVL331:
 2743              		.loc 1 1084 0
 2744 00da D4F8B470 		ldr	r7, [r4, #180]
 2745 00de 0133     		adds	r3, r3, #1
 2746              		.loc 1 1081 0
 2747 00e0 9D19     		adds	r5, r3, r6
 2748              		.loc 1 1090 0
 2749 00e2 012A     		cmp	r2, #1
 2750              		.loc 1 1081 0
 2751 00e4 C4F8BC50 		str	r5, [r4, #188]
 2752              	.LVL332:
 2753              		.loc 1 1090 0
 2754 00e8 40F33081 		ble	.L209
 2755              	.LBB25:
 2756              		.loc 1 1095 0
 2757 00ec E16F     		ldr	r1, [r4, #124]
 2758 00ee 236A     		ldr	r3, [r4, #32]
 2759 00f0 8A68     		ldr	r2, [r1, #8]
 2760 00f2 206C     		ldr	r0, [r4, #64]
 2761 00f4 1431     		adds	r1, r1, #20
 2762 00f6 9847     		blx	r3
 2763              	.LVL333:
 2764              		.loc 1 1097 0
 2765 00f8 0028     		cmp	r0, #0
 2766 00fa 00F0A380 		beq	.L210
 2767              	.LVL334:
 2768              	.L134:
 2769              	.LBE25:
 2770              	.LBE24:
 2771              		.loc 1 1190 0
 2772 00fe 45B0     		add	sp, sp, #276
 2773              		.cfi_remember_state
 2774              		.cfi_def_cfa_offset 28
 2775              		@ sp needed
 2776 0100 BDE8F083 		pop	{r4, r5, r6, r7, r8, r9, pc}
 2777              	.LVL335:
 2778              	.L206:
 2779              		.cfi_restore_state
 2780              		.loc 1 962 0
ARM GAS  C:\Users\jo\AppData\Local\Temp\cct348YO.s 			page 50


 2781 0104 2946     		mov	r1, r5
 2782 0106 8748     		ldr	r0, .L212+20
 2783 0108 FFF7FEFF 		bl	debug_fmt
 2784              	.LVL336:
 2785 010c 0321     		movs	r1, #3
 2786 010e 0090     		str	r0, [sp]
 2787 0110 804A     		ldr	r2, .L212+4
 2788 0112 2046     		mov	r0, r4
 2789 0114 4FF47173 		mov	r3, #964
 2790 0118 FFF7FEFF 		bl	debug_print_msg
 2791              	.LVL337:
 2792              		.loc 1 966 0
 2793 011c D4F8B420 		ldr	r2, [r4, #180]
 2794 0120 D4F8BC30 		ldr	r3, [r4, #188]
 2795 0124 8049     		ldr	r1, .L212+24
 2796 0126 2046     		mov	r0, r4
 2797 0128 8DE80E00 		stmia	sp, {r1, r2, r3}
 2798 012c 40F2C733 		movw	r3, #967
 2799 0130 0421     		movs	r1, #4
 2800 0132 784A     		ldr	r2, .L212+4
 2801 0134 FFF7FEFF 		bl	debug_print_buf
 2802              	.LVL338:
 2803              		.loc 1 970 0
 2804 0138 A36E     		ldr	r3, [r4, #104]
 2805 013a 5B68     		ldr	r3, [r3, #4]
 2806 013c 043B     		subs	r3, r3, #4
 2807 013e 012B     		cmp	r3, #1
 2808 0140 4CD8     		bhi	.L196
 2809              		.loc 1 973 0
 2810 0142 D4F8B420 		ldr	r2, [r4, #180]
 2811 0146 E06F     		ldr	r0, [r4, #124]
 2812 0148 D4F8BC10 		ldr	r1, [r4, #188]
 2813 014c 1346     		mov	r3, r2
 2814 014e 7430     		adds	r0, r0, #116
 2815 0150 FFF7FEFF 		bl	arc4_crypt
 2816              	.LVL339:
 2817              	.L140:
 2818              	.LBB27:
 2819              		.loc 1 1090 0 discriminator 1
 2820 0154 0822     		movs	r2, #8
 2821              	.LVL340:
 2822              	.L156:
 2823              	.LBE27:
 2824              		.loc 1 1184 0
 2825 0156 013A     		subs	r2, r2, #1
 2826              	.LVL341:
 2827 0158 D4F8AC10 		ldr	r1, [r4, #172]
 2828 015c 8B5C     		ldrb	r3, [r1, r2]	@ zero_extendqisi2
 2829 015e 0133     		adds	r3, r3, #1
 2830 0160 DBB2     		uxtb	r3, r3
 2831 0162 8B54     		strb	r3, [r1, r2]
 2832 0164 0BB9     		cbnz	r3, .L154
 2833              		.loc 1 1183 0 discriminator 1
 2834 0166 002A     		cmp	r2, #0
 2835 0168 F5D1     		bne	.L156
 2836              	.L154:
 2837              		.loc 1 1187 0
ARM GAS  C:\Users\jo\AppData\Local\Temp\cct348YO.s 			page 51


 2838 016a 7048     		ldr	r0, .L212+28
 2839 016c FFF7FEFF 		bl	debug_fmt
 2840              	.LVL342:
 2841 0170 0221     		movs	r1, #2
 2842 0172 0090     		str	r0, [sp]
 2843 0174 674A     		ldr	r2, .L212+4
 2844 0176 2046     		mov	r0, r4
 2845 0178 40F2A343 		movw	r3, #1187
 2846 017c FFF7FEFF 		bl	debug_print_msg
 2847              	.LVL343:
 2848              		.loc 1 1189 0
 2849 0180 0020     		movs	r0, #0
 2850              		.loc 1 1190 0
 2851 0182 45B0     		add	sp, sp, #276
 2852              		.cfi_remember_state
 2853              		.cfi_def_cfa_offset 28
 2854              		@ sp needed
 2855 0184 BDE8F083 		pop	{r4, r5, r6, r7, r8, r9, pc}
 2856              	.LVL344:
 2857              	.L207:
 2858              		.cfi_restore_state
 2859              	.LBB28:
 2860              		.loc 1 997 0
 2861 0188 D4F8AC30 		ldr	r3, [r4, #172]
 2862              		.loc 1 1004 0
 2863 018c 684A     		ldr	r2, .L212+32
 2864              		.loc 1 997 0
 2865 018e 1868     		ldr	r0, [r3]	@ unaligned
 2866 0190 5968     		ldr	r1, [r3, #4]	@ unaligned
 2867              		.loc 1 998 0
 2868 0192 D4F8B860 		ldr	r6, [r4, #184]
 2869              		.loc 1 1004 0
 2870 0196 0092     		str	r2, [sp]
 2871              	.LVL345:
 2872              		.loc 1 997 0
 2873 0198 09AB     		add	r3, sp, #36
 2874              		.loc 1 1004 0
 2875 019a 4FF00D08 		mov	r8, #13
 2876 019e 0193     		str	r3, [sp, #4]
 2877              		.loc 1 997 0
 2878 01a0 03C3     		stmia	r3!, {r0, r1}
 2879              		.loc 1 1004 0
 2880 01a2 CDF80880 		str	r8, [sp, #8]
 2881              		.loc 1 1001 0
 2882 01a6 4FEA152C 		lsr	ip, r5, #8
 2883              		.loc 1 999 0
 2884 01aa A768     		ldr	r7, [r4, #8]
 2885              		.loc 1 1002 0
 2886 01ac 8DF83050 		strb	r5, [sp, #48]
 2887              		.loc 1 1004 0
 2888 01b0 40F2ED33 		movw	r3, #1005
 2889              		.loc 1 1000 0
 2890 01b4 257B     		ldrb	r5, [r4, #12]	@ zero_extendqisi2
 2891              		.loc 1 1004 0
 2892 01b6 574A     		ldr	r2, .L212+4
 2893              		.loc 1 1001 0
 2894 01b8 8DF82FC0 		strb	ip, [sp, #47]
ARM GAS  C:\Users\jo\AppData\Local\Temp\cct348YO.s 			page 52


 2895              		.loc 1 1004 0
 2896 01bc 2046     		mov	r0, r4
 2897 01be 0421     		movs	r1, #4
 2898              		.loc 1 998 0
 2899 01c0 8DF82C60 		strb	r6, [sp, #44]
 2900              		.loc 1 999 0
 2901 01c4 8DF82D70 		strb	r7, [sp, #45]
 2902              		.loc 1 1000 0
 2903 01c8 8DF82E50 		strb	r5, [sp, #46]
 2904              		.loc 1 1004 0
 2905 01cc FFF7FEFF 		bl	debug_print_buf
 2906              	.LVL346:
 2907              		.loc 1 1009 0
 2908 01d0 A36E     		ldr	r3, [r4, #104]
 2909              		.loc 1 1011 0
 2910 01d2 5B68     		ldr	r3, [r3, #4]
 2911 01d4 9C3B     		subs	r3, r3, #156
 2912              		.loc 1 1009 0
 2913 01d6 032B     		cmp	r3, #3
 2914 01d8 40F22681 		bls	.L211
 2915              	.LVL347:
 2916              	.L196:
 2917              	.LBE28:
 2918              	.LBB29:
 2919              		.loc 1 1179 0
 2920 01dc 4F48     		ldr	r0, .L212+12
 2921              	.LBE29:
 2922              		.loc 1 1190 0
 2923 01de 45B0     		add	sp, sp, #276
 2924              		.cfi_remember_state
 2925              		.cfi_def_cfa_offset 28
 2926              		@ sp needed
 2927 01e0 BDE8F083 		pop	{r4, r5, r6, r7, r8, r9, pc}
 2928              	.LVL348:
 2929              	.L199:
 2930              		.cfi_restore_state
 2931              		.loc 1 898 0
 2932 01e4 D4F8B850 		ldr	r5, [r4, #184]
 2933 01e8 D4F8BC20 		ldr	r2, [r4, #188]
 2934 01ec D4F8AC30 		ldr	r3, [r4, #172]
 2935 01f0 D4F8B410 		ldr	r1, [r4, #180]
 2936 01f4 0095     		str	r5, [sp]
 2937 01f6 3430     		adds	r0, r0, #52
 2938 01f8 FFF7FEFF 		bl	ssl_mac_md5
 2939              	.LVL349:
 2940 01fc E36F     		ldr	r3, [r4, #124]
 2941 01fe 1A69     		ldr	r2, [r3, #16]
 2942 0200 37E7     		b	.L131
 2943              	.L202:
 2944              	.LBB30:
 2945              		.loc 1 921 0
 2946 0202 3431     		adds	r1, r1, #52
 2947 0204 09A8     		add	r0, sp, #36
 2948 0206 FFF7FEFF 		bl	md5_hmac_starts
 2949              	.LVL350:
 2950              		.loc 1 922 0
 2951 020a 09A8     		add	r0, sp, #36
ARM GAS  C:\Users\jo\AppData\Local\Temp\cct348YO.s 			page 53


 2952 020c D4F8AC10 		ldr	r1, [r4, #172]
 2953 0210 0D22     		movs	r2, #13
 2954 0212 FFF7FEFF 		bl	md5_hmac_update
 2955              	.LVL351:
 2956              		.loc 1 923 0
 2957 0216 D4F8BC20 		ldr	r2, [r4, #188]
 2958 021a D4F8B410 		ldr	r1, [r4, #180]
 2959 021e 09A8     		add	r0, sp, #36
 2960 0220 FFF7FEFF 		bl	md5_hmac_update
 2961              	.LVL352:
 2962              		.loc 1 924 0
 2963 0224 D4F8BC30 		ldr	r3, [r4, #188]
 2964 0228 D4F8B410 		ldr	r1, [r4, #180]
 2965 022c 09A8     		add	r0, sp, #36
 2966 022e 1944     		add	r1, r1, r3
 2967 0230 FFF7FEFF 		bl	md5_hmac_finish
 2968              	.LVL353:
 2969              		.loc 1 925 0
 2970 0234 D822     		movs	r2, #216
 2971 0236 09A8     		add	r0, sp, #36
 2972 0238 0021     		movs	r1, #0
 2973 023a FFF7FEFF 		bl	memset
 2974              	.LVL354:
 2975 023e E36F     		ldr	r3, [r4, #124]
 2976 0240 1A69     		ldr	r2, [r3, #16]
 2977              	.LBE30:
 2978 0242 16E7     		b	.L131
 2979              	.LVL355:
 2980              	.L210:
 2981              	.LBB31:
 2982              	.LBB26:
 2983              		.loc 1 1103 0
 2984 0244 E36F     		ldr	r3, [r4, #124]
 2985 0246 D4F8B410 		ldr	r1, [r4, #180]
 2986 024a 9868     		ldr	r0, [r3, #8]
 2987              	.LVL356:
 2988 024c D4F8BC20 		ldr	r2, [r4, #188]
 2989 0250 0844     		add	r0, r0, r1
 2990 0252 FFF7FEFF 		bl	memmove
 2991              	.LVL357:
 2992              		.loc 1 1105 0
 2993 0256 E16F     		ldr	r1, [r4, #124]
 2994 0258 D4F8B400 		ldr	r0, [r4, #180]
 2995 025c 8A68     		ldr	r2, [r1, #8]
 2996 025e 1431     		adds	r1, r1, #20
 2997 0260 FFF7FEFF 		bl	memcpy
 2998              	.LVL358:
 2999              		.loc 1 1111 0
 3000 0264 E36F     		ldr	r3, [r4, #124]
 3001              		.loc 1 1112 0
 3002 0266 D4F8BC50 		ldr	r5, [r4, #188]
 3003              	.LVL359:
 3004              		.loc 1 1111 0
 3005 026a 9A68     		ldr	r2, [r3, #8]
 3006 026c D4F8B470 		ldr	r7, [r4, #180]
 3007              	.LVL360:
 3008              		.loc 1 1113 0
ARM GAS  C:\Users\jo\AppData\Local\Temp\cct348YO.s 			page 54


 3009 0270 A918     		adds	r1, r5, r2
 3010 0272 C4F8BC10 		str	r1, [r4, #188]
 3011              		.loc 1 1111 0
 3012 0276 1744     		add	r7, r7, r2
 3013              	.LVL361:
 3014              	.L147:
 3015              	.LBE26:
 3016              		.loc 1 1116 0
 3017 0278 9A68     		ldr	r2, [r3, #8]
 3018 027a 2E48     		ldr	r0, .L212+36
 3019 027c 731C     		adds	r3, r6, #1
 3020 027e FFF7FEFF 		bl	debug_fmt
 3021              	.LVL362:
 3022 0282 0321     		movs	r1, #3
 3023 0284 0090     		str	r0, [sp]
 3024 0286 234A     		ldr	r2, .L212+4
 3025 0288 2046     		mov	r0, r4
 3026 028a 40F25E43 		movw	r3, #1118
 3027 028e FFF7FEFF 		bl	debug_print_msg
 3028              	.LVL363:
 3029              		.loc 1 1120 0
 3030 0292 D4F8B420 		ldr	r2, [r4, #180]
 3031 0296 D4F8BC30 		ldr	r3, [r4, #188]
 3032 029a 2349     		ldr	r1, .L212+24
 3033 029c 2046     		mov	r0, r4
 3034 029e 8DE80E00 		stmia	sp, {r1, r2, r3}
 3035 02a2 1C4A     		ldr	r2, .L212+4
 3036 02a4 40F26143 		movw	r3, #1121
 3037 02a8 0421     		movs	r1, #4
 3038 02aa FFF7FEFF 		bl	debug_print_buf
 3039              	.LVL364:
 3040              		.loc 1 1123 0
 3041 02ae E36F     		ldr	r3, [r4, #124]
 3042 02b0 9A68     		ldr	r2, [r3, #8]
 3043 02b2 082A     		cmp	r2, #8
 3044 02b4 4DD0     		beq	.L148
 3045 02b6 102A     		cmp	r2, #16
 3046 02b8 90D1     		bne	.L196
 3047              		.loc 1 1145 0
 3048 02ba A26E     		ldr	r2, [r4, #104]
 3049 02bc 5268     		ldr	r2, [r2, #4]
 3050 02be 2F2A     		cmp	r2, #47
 3051 02c0 3AD0     		beq	.L150
 3052              		.loc 1 1145 0 is_stmt 0 discriminator 1
 3053 02c2 332A     		cmp	r2, #51
 3054 02c4 38D0     		beq	.L150
 3055              		.loc 1 1146 0 is_stmt 1
 3056 02c6 352A     		cmp	r2, #53
 3057 02c8 36D0     		beq	.L150
 3058              		.loc 1 1147 0
 3059 02ca 392A     		cmp	r2, #57
 3060 02cc 34D0     		beq	.L150
 3061              		.loc 1 1148 0
 3062 02ce A2F13C01 		sub	r1, r2, #60
 3063 02d2 0129     		cmp	r1, #1
 3064 02d4 30D9     		bls	.L150
 3065              		.loc 1 1150 0
ARM GAS  C:\Users\jo\AppData\Local\Temp\cct348YO.s 			page 55


 3066 02d6 672A     		cmp	r2, #103
 3067 02d8 2ED0     		beq	.L150
 3068              		.loc 1 1151 0
 3069 02da 6B2A     		cmp	r2, #107
 3070 02dc 2CD0     		beq	.L150
 3071              		.loc 1 1162 0
 3072 02de 22F00401 		bic	r1, r2, #4
 3073 02e2 4129     		cmp	r1, #65
 3074 02e4 0AD0     		beq	.L152
 3075              		.loc 1 1163 0
 3076 02e6 22F04000 		bic	r0, r2, #64
 3077 02ea 8428     		cmp	r0, #132
 3078 02ec 06D0     		beq	.L152
 3079              		.loc 1 1164 0
 3080 02ee 882A     		cmp	r2, #136
 3081 02f0 04D0     		beq	.L152
 3082              		.loc 1 1165 0
 3083 02f2 BA29     		cmp	r1, #186
 3084 02f4 02D0     		beq	.L152
 3085              		.loc 1 1167 0
 3086 02f6 C02A     		cmp	r2, #192
 3087 02f8 7FF470AF 		bne	.L196
 3088              	.L152:
 3089              		.loc 1 1171 0
 3090 02fc 0097     		str	r7, [sp]
 3091 02fe 0197     		str	r7, [sp, #4]
 3092 0300 2A46     		mov	r2, r5
 3093 0302 03F17400 		add	r0, r3, #116
 3094 0306 0121     		movs	r1, #1
 3095 0308 1433     		adds	r3, r3, #20
 3096 030a FFF7FEFF 		bl	camellia_crypt_cbc
 3097              	.LVL365:
 3098              		.loc 1 1174 0
 3099 030e 21E7     		b	.L140
 3100              	.L213:
 3101              		.align	2
 3102              	.L212:
 3103 0310 CC010000 		.word	.LC21
 3104 0314 40000000 		.word	.LC3
 3105 0318 DC010000 		.word	.LC22
 3106 031c 808FFFFF 		.word	-28800
 3107 0320 F0010000 		.word	.LC23
 3108 0324 00020000 		.word	.LC24
 3109 0328 3C020000 		.word	.LC25
 3110 032c E0020000 		.word	.LC29
 3111 0330 5C020000 		.word	.LC26
 3112 0334 90020000 		.word	.LC28
 3113              	.L150:
 3114              		.loc 1 1154 0
 3115 0338 0097     		str	r7, [sp]
 3116 033a 0197     		str	r7, [sp, #4]
 3117 033c 2A46     		mov	r2, r5
 3118 033e 03F17400 		add	r0, r3, #116
 3119 0342 0121     		movs	r1, #1
 3120 0344 1433     		adds	r3, r3, #20
 3121 0346 FFF7FEFF 		bl	aes_crypt_cbc
 3122              	.LVL366:
ARM GAS  C:\Users\jo\AppData\Local\Temp\cct348YO.s 			page 56


 3123              		.loc 1 1157 0
 3124 034a 03E7     		b	.L140
 3125              	.L209:
 3126 034c E36F     		ldr	r3, [r4, #124]
 3127              		.loc 1 1090 0
 3128 034e 2946     		mov	r1, r5
 3129 0350 92E7     		b	.L147
 3130              	.L148:
 3131              		.loc 1 1137 0
 3132 0352 0097     		str	r7, [sp]
 3133 0354 0197     		str	r7, [sp, #4]
 3134 0356 2A46     		mov	r2, r5
 3135 0358 03F17400 		add	r0, r3, #116
 3136 035c 0121     		movs	r1, #1
 3137 035e 1433     		adds	r3, r3, #20
 3138 0360 FFF7FEFF 		bl	des3_crypt_cbc
 3139              	.LVL367:
 3140              		.loc 1 1140 0
 3141 0364 F6E6     		b	.L140
 3142              	.LVL368:
 3143              	.L200:
 3144              	.LBE31:
 3145              		.loc 1 902 0
 3146 0366 D4F8B850 		ldr	r5, [r4, #184]
 3147 036a D4F8BC20 		ldr	r2, [r4, #188]
 3148 036e D4F8AC30 		ldr	r3, [r4, #172]
 3149 0372 D4F8B410 		ldr	r1, [r4, #180]
 3150 0376 0095     		str	r5, [sp]
 3151 0378 3430     		adds	r0, r0, #52
 3152 037a FFF7FEFF 		bl	ssl_mac_sha1
 3153              	.LVL369:
 3154 037e E36F     		ldr	r3, [r4, #124]
 3155 0380 1A69     		ldr	r2, [r3, #16]
 3156 0382 76E6     		b	.L131
 3157              	.L203:
 3158              	.LBB32:
 3159              		.loc 1 930 0
 3160 0384 3431     		adds	r1, r1, #52
 3161 0386 09A8     		add	r0, sp, #36
 3162 0388 FFF7FEFF 		bl	sha1_hmac_starts
 3163              	.LVL370:
 3164              		.loc 1 931 0
 3165 038c 09A8     		add	r0, sp, #36
 3166 038e D4F8AC10 		ldr	r1, [r4, #172]
 3167 0392 0D22     		movs	r2, #13
 3168 0394 FFF7FEFF 		bl	sha1_hmac_update
 3169              	.LVL371:
 3170              		.loc 1 932 0
 3171 0398 D4F8BC20 		ldr	r2, [r4, #188]
 3172 039c D4F8B410 		ldr	r1, [r4, #180]
 3173 03a0 09A8     		add	r0, sp, #36
 3174 03a2 FFF7FEFF 		bl	sha1_hmac_update
 3175              	.LVL372:
 3176              		.loc 1 933 0
 3177 03a6 D4F8BC30 		ldr	r3, [r4, #188]
 3178 03aa D4F8B410 		ldr	r1, [r4, #180]
 3179 03ae 09A8     		add	r0, sp, #36
ARM GAS  C:\Users\jo\AppData\Local\Temp\cct348YO.s 			page 57


 3180 03b0 1944     		add	r1, r1, r3
 3181 03b2 FFF7FEFF 		bl	sha1_hmac_finish
 3182              	.LVL373:
 3183              		.loc 1 934 0
 3184 03b6 DC22     		movs	r2, #220
 3185 03b8 09A8     		add	r0, sp, #36
 3186 03ba 0021     		movs	r1, #0
 3187 03bc FFF7FEFF 		bl	memset
 3188              	.LVL374:
 3189 03c0 E36F     		ldr	r3, [r4, #124]
 3190 03c2 1A69     		ldr	r2, [r3, #16]
 3191              	.LBE32:
 3192 03c4 55E6     		b	.L131
 3193              	.L201:
 3194              		.loc 1 906 0
 3195 03c6 D4F8B850 		ldr	r5, [r4, #184]
 3196 03ca D4F8BC20 		ldr	r2, [r4, #188]
 3197 03ce D4F8AC30 		ldr	r3, [r4, #172]
 3198 03d2 D4F8B410 		ldr	r1, [r4, #180]
 3199 03d6 0095     		str	r5, [sp]
 3200 03d8 3430     		adds	r0, r0, #52
 3201 03da FFF7FEFF 		bl	ssl_mac_sha2
 3202              	.LVL375:
 3203 03de E36F     		ldr	r3, [r4, #124]
 3204 03e0 1A69     		ldr	r2, [r3, #16]
 3205 03e2 46E6     		b	.L131
 3206              	.L204:
 3207              	.LBB33:
 3208              		.loc 1 939 0
 3209 03e4 0023     		movs	r3, #0
 3210 03e6 3431     		adds	r1, r1, #52
 3211 03e8 09A8     		add	r0, sp, #36
 3212 03ea FFF7FEFF 		bl	sha2_hmac_starts
 3213              	.LVL376:
 3214              		.loc 1 940 0
 3215 03ee 09A8     		add	r0, sp, #36
 3216 03f0 D4F8AC10 		ldr	r1, [r4, #172]
 3217 03f4 0D22     		movs	r2, #13
 3218 03f6 FFF7FEFF 		bl	sha2_hmac_update
 3219              	.LVL377:
 3220              		.loc 1 941 0
 3221 03fa D4F8BC20 		ldr	r2, [r4, #188]
 3222 03fe D4F8B410 		ldr	r1, [r4, #180]
 3223 0402 09A8     		add	r0, sp, #36
 3224 0404 FFF7FEFF 		bl	sha2_hmac_update
 3225              	.LVL378:
 3226              		.loc 1 942 0
 3227 0408 D4F8BC30 		ldr	r3, [r4, #188]
 3228 040c D4F8B410 		ldr	r1, [r4, #180]
 3229 0410 09A8     		add	r0, sp, #36
 3230 0412 1944     		add	r1, r1, r3
 3231 0414 FFF7FEFF 		bl	sha2_hmac_finish
 3232              	.LVL379:
 3233              		.loc 1 943 0
 3234 0418 EC22     		movs	r2, #236
 3235 041a 09A8     		add	r0, sp, #36
 3236 041c 0021     		movs	r1, #0
ARM GAS  C:\Users\jo\AppData\Local\Temp\cct348YO.s 			page 58


 3237 041e FFF7FEFF 		bl	memset
 3238              	.LVL380:
 3239 0422 E36F     		ldr	r3, [r4, #124]
 3240 0424 1A69     		ldr	r2, [r3, #16]
 3241              	.LBE33:
 3242 0426 24E6     		b	.L131
 3243              	.LVL381:
 3244              	.L211:
 3245              	.LBB34:
 3246              		.loc 1 1018 0
 3247 0428 E36F     		ldr	r3, [r4, #124]
 3248              		.loc 1 1017 0
 3249 042a 256A     		ldr	r5, [r4, #32]
 3250              		.loc 1 1018 0
 3251 042c DA68     		ldr	r2, [r3, #12]
 3252              		.loc 1 1017 0
 3253 042e 9E68     		ldr	r6, [r3, #8]
 3254 0430 206C     		ldr	r0, [r4, #64]
 3255 0432 9918     		adds	r1, r3, r2
 3256 0434 1431     		adds	r1, r1, #20
 3257 0436 B21A     		subs	r2, r6, r2
 3258 0438 A847     		blx	r5
 3259              	.LVL382:
 3260              		.loc 1 1020 0
 3261 043a 0546     		mov	r5, r0
 3262 043c 0028     		cmp	r0, #0
 3263 043e 7FF45EAE 		bne	.L134
 3264              		.loc 1 1026 0
 3265 0442 E26F     		ldr	r2, [r4, #124]
 3266 0444 D4F8B410 		ldr	r1, [r4, #180]
 3267 0448 9368     		ldr	r3, [r2, #8]
 3268 044a D068     		ldr	r0, [r2, #12]
 3269              	.LVL383:
 3270 044c D4F8BC20 		ldr	r2, [r4, #188]
 3271 0450 181A     		subs	r0, r3, r0
 3272 0452 0844     		add	r0, r0, r1
 3273 0454 FFF7FEFF 		bl	memmove
 3274              	.LVL384:
 3275              		.loc 1 1030 0
 3276 0458 E36F     		ldr	r3, [r4, #124]
 3277              		.loc 1 1029 0
 3278 045a D4F8B400 		ldr	r0, [r4, #180]
 3279              		.loc 1 1030 0
 3280 045e DA68     		ldr	r2, [r3, #12]
 3281              		.loc 1 1029 0
 3282 0460 9E68     		ldr	r6, [r3, #8]
 3283 0462 9918     		adds	r1, r3, r2
 3284 0464 1431     		adds	r1, r1, #20
 3285 0466 B21A     		subs	r2, r6, r2
 3286 0468 FFF7FEFF 		bl	memcpy
 3287              	.LVL385:
 3288              		.loc 1 1036 0
 3289 046c E26F     		ldr	r2, [r4, #124]
 3290              		.loc 1 1038 0
 3291 046e D4F8BC70 		ldr	r7, [r4, #188]
 3292              		.loc 1 1036 0
 3293 0472 9368     		ldr	r3, [r2, #8]
ARM GAS  C:\Users\jo\AppData\Local\Temp\cct348YO.s 			page 59


 3294 0474 D268     		ldr	r2, [r2, #12]
 3295 0476 D4F8B460 		ldr	r6, [r4, #180]
 3296              		.loc 1 1042 0
 3297 047a 2A48     		ldr	r0, .L214
 3298              		.loc 1 1036 0
 3299 047c 9B1A     		subs	r3, r3, r2
 3300              		.loc 1 1039 0
 3301 047e D919     		adds	r1, r3, r7
 3302              		.loc 1 1042 0
 3303 0480 2A46     		mov	r2, r5
 3304              		.loc 1 1039 0
 3305 0482 C4F8BC10 		str	r1, [r4, #188]
 3306              		.loc 1 1036 0
 3307 0486 F518     		adds	r5, r6, r3
 3308              	.LVL386:
 3309              		.loc 1 1042 0
 3310 0488 FFF7FEFF 		bl	debug_fmt
 3311              	.LVL387:
 3312 048c 0321     		movs	r1, #3
 3313 048e 0090     		str	r0, [sp]
 3314 0490 254A     		ldr	r2, .L214+4
 3315 0492 2046     		mov	r0, r4
 3316 0494 40F21443 		movw	r3, #1044
 3317 0498 FFF7FEFF 		bl	debug_print_msg
 3318              	.LVL388:
 3319              		.loc 1 1046 0
 3320 049c D4F8B420 		ldr	r2, [r4, #180]
 3321 04a0 D4F8BC30 		ldr	r3, [r4, #188]
 3322 04a4 2149     		ldr	r1, .L214+8
 3323 04a6 2046     		mov	r0, r4
 3324 04a8 8DE80E00 		stmia	sp, {r1, r2, r3}
 3325 04ac 0421     		movs	r1, #4
 3326 04ae 1E4A     		ldr	r2, .L214+4
 3327 04b0 40F21743 		movw	r3, #1047
 3328 04b4 FFF7FEFF 		bl	debug_print_buf
 3329              	.LVL389:
 3330              		.loc 1 1054 0
 3331 04b8 E36F     		ldr	r3, [r4, #124]
 3332              		.loc 1 1052 0
 3333 04ba D4F8BC10 		ldr	r1, [r4, #188]
 3334              		.loc 1 1054 0
 3335 04be 9A68     		ldr	r2, [r3, #8]
 3336 04c0 0092     		str	r2, [sp]
 3337 04c2 05EB0709 		add	r9, r5, r7
 3338 04c6 1026     		movs	r6, #16
 3339 04c8 09A8     		add	r0, sp, #36
 3340              		.loc 1 1052 0
 3341 04ca 1031     		adds	r1, r1, #16
 3342              		.loc 1 1054 0
 3343 04cc 0190     		str	r0, [sp, #4]
 3344 04ce 3A46     		mov	r2, r7
 3345 04d0 CDF81890 		str	r9, [sp, #24]
 3346 04d4 0395     		str	r5, [sp, #12]
 3347 04d6 0495     		str	r5, [sp, #16]
 3348 04d8 CDF80880 		str	r8, [sp, #8]
 3349 04dc 03F17400 		add	r0, r3, #116
 3350              		.loc 1 1052 0
ARM GAS  C:\Users\jo\AppData\Local\Temp\cct348YO.s 			page 60


 3351 04e0 C4F8BC10 		str	r1, [r4, #188]
 3352              		.loc 1 1054 0
 3353 04e4 1433     		adds	r3, r3, #20
 3354 04e6 0596     		str	r6, [sp, #20]
 3355 04e8 0121     		movs	r1, #1
 3356 04ea FFF7FEFF 		bl	gcm_crypt_and_tag
 3357              	.LVL390:
 3358              		.loc 1 1061 0
 3359 04ee 104B     		ldr	r3, .L214+12
 3360 04f0 0093     		str	r3, [sp]
 3361 04f2 CDF80490 		str	r9, [sp, #4]
 3362 04f6 0296     		str	r6, [sp, #8]
 3363 04f8 2046     		mov	r0, r4
 3364 04fa 0421     		movs	r1, #4
 3365 04fc 0A4A     		ldr	r2, .L214+4
 3366 04fe 40F22643 		movw	r3, #1062
 3367 0502 FFF7FEFF 		bl	debug_print_buf
 3368              	.LVL391:
 3369 0506 25E6     		b	.L140
 3370              	.LVL392:
 3371              	.L205:
 3372              	.LBE34:
 3373              		.loc 1 947 0
 3374 0508 1146     		mov	r1, r2
 3375 050a 0A48     		ldr	r0, .L214+16
 3376 050c FFF7FEFF 		bl	debug_fmt
 3377              	.LVL393:
 3378 0510 0121     		movs	r1, #1
 3379 0512 0090     		str	r0, [sp]
 3380 0514 044A     		ldr	r2, .L214+4
 3381 0516 2046     		mov	r0, r4
 3382 0518 4FF46D73 		mov	r3, #948
 3383 051c FFF7FEFF 		bl	debug_print_msg
 3384              	.LVL394:
 3385              		.loc 1 949 0
 3386 0520 0548     		ldr	r0, .L214+20
 3387 0522 ECE5     		b	.L134
 3388              	.L215:
 3389              		.align	2
 3390              	.L214:
 3391 0524 00020000 		.word	.LC24
 3392 0528 40000000 		.word	.LC3
 3393 052c 3C020000 		.word	.LC25
 3394 0530 7C020000 		.word	.LC27
 3395 0534 DC010000 		.word	.LC22
 3396 0538 808FFFFF 		.word	-28800
 3397              		.cfi_endproc
 3398              	.LFE16:
 3399              		.size	ssl_encrypt_buf, .-ssl_encrypt_buf
 3400 053c AFF30080 		.section	.text.ssl_update_checksum_sha256,"ax",%progbits
 3401              		.align	2
 3402              		.p2align 4,,15
 3403              		.thumb
 3404              		.thumb_func
 3405              		.type	ssl_update_checksum_sha256, %function
 3406              	ssl_update_checksum_sha256:
 3407              	.LFB31:
ARM GAS  C:\Users\jo\AppData\Local\Temp\cct348YO.s 			page 61


 3408              		.loc 1 2514 0
 3409              		.cfi_startproc
 3410              		@ args = 0, pretend = 0, frame = 0
 3411              		@ frame_needed = 0, uses_anonymous_args = 0
 3412              		@ link register save eliminated.
 3413              	.LVL395:
 3414              		.loc 1 2515 0
 3415 0000 406F     		ldr	r0, [r0, #116]
 3416              	.LVL396:
 3417 0002 00F50670 		add	r0, r0, #536
 3418 0006 FFF7FEBF 		b	sha2_update
 3419              	.LVL397:
 3420              		.cfi_endproc
 3421              	.LFE31:
 3422              		.size	ssl_update_checksum_sha256, .-ssl_update_checksum_sha256
 3423 000a 00BFAFF3 		.section	.text.ssl_decrypt_buf,"ax",%progbits
 3423      0080
 3424              		.align	2
 3425              		.p2align 4,,15
 3426              		.thumb
 3427              		.thumb_func
 3428              		.type	ssl_decrypt_buf, %function
 3429              	ssl_decrypt_buf:
 3430              	.LFB17:
 3431              		.loc 1 1198 0
 3432              		.cfi_startproc
 3433              		@ args = 0, pretend = 0, frame = 272
 3434              		@ frame_needed = 0, uses_anonymous_args = 0
 3435              	.LVL398:
 3436 0000 2DE9F04F 		push	{r4, r5, r6, r7, r8, r9, r10, fp, lr}
 3437              		.cfi_def_cfa_offset 36
 3438              		.cfi_offset 4, -36
 3439              		.cfi_offset 5, -32
 3440              		.cfi_offset 6, -28
 3441              		.cfi_offset 7, -24
 3442              		.cfi_offset 8, -20
 3443              		.cfi_offset 9, -16
 3444              		.cfi_offset 10, -12
 3445              		.cfi_offset 11, -8
 3446              		.cfi_offset 14, -4
 3447 0004 0446     		mov	r4, r0
 3448 0006 CBB0     		sub	sp, sp, #300
 3449              		.cfi_def_cfa_offset 336
 3450              		.loc 1 1202 0
 3451 0008 C348     		ldr	r0, .L339
 3452              	.LVL399:
 3453 000a FFF7FEFF 		bl	debug_fmt
 3454              	.LVL400:
 3455 000e 0221     		movs	r1, #2
 3456 0010 0090     		str	r0, [sp]
 3457 0012 C24A     		ldr	r2, .L339+4
 3458 0014 2046     		mov	r0, r4
 3459 0016 40F2B243 		movw	r3, #1202
 3460 001a FFF7FEFF 		bl	debug_print_msg
 3461              	.LVL401:
 3462              		.loc 1 1204 0
 3463 001e A56F     		ldr	r5, [r4, #120]
ARM GAS  C:\Users\jo\AppData\Local\Temp\cct348YO.s 			page 62


 3464 0020 D4F89C10 		ldr	r1, [r4, #156]
 3465 0024 6A68     		ldr	r2, [r5, #4]
 3466 0026 9142     		cmp	r1, r2
 3467 0028 C0F0FB82 		bcc	.L324
 3468              		.loc 1 1211 0
 3469 002c AE68     		ldr	r6, [r5, #8]
 3470 002e 002E     		cmp	r6, #0
 3471 0030 40F0A280 		bne	.L220
 3472              		.loc 1 1214 0
 3473 0034 636E     		ldr	r3, [r4, #100]
 3474 0036 5B68     		ldr	r3, [r3, #4]
 3475 0038 043B     		subs	r3, r3, #4
 3476 003a 012B     		cmp	r3, #1
 3477 003c 00F20181 		bhi	.L321
 3478              		.loc 1 1217 0
 3479 0040 D4F89020 		ldr	r2, [r4, #144]
 3480 0044 05F52570 		add	r0, r5, #660
 3481 0048 1346     		mov	r3, r2
 3482 004a FFF7FEFF 		bl	arc4_crypt
 3483              	.LVL402:
 3484 004e D4F890E0 		ldr	lr, [r4, #144]
 3485 0052 D4F89C50 		ldr	r5, [r4, #156]
 3486              		.loc 1 1199 0
 3487 0056 0127     		movs	r7, #1
 3488              	.LVL403:
 3489              	.L222:
 3490              		.loc 1 1451 0
 3491 0058 B14B     		ldr	r3, .L339+8
 3492 005a CDF804E0 		str	lr, [sp, #4]
 3493 005e 0295     		str	r5, [sp, #8]
 3494 0060 0093     		str	r3, [sp]
 3495 0062 2046     		mov	r0, r4
 3496 0064 0421     		movs	r1, #4
 3497 0066 AD4A     		ldr	r2, .L339+4
 3498 0068 40F2AC53 		movw	r3, #1452
 3499 006c FFF7FEFF 		bl	debug_print_buf
 3500              	.LVL404:
 3501              		.loc 1 1457 0
 3502 0070 A26F     		ldr	r2, [r4, #120]
 3503 0072 D4F89C30 		ldr	r3, [r4, #156]
 3504 0076 1169     		ldr	r1, [r2, #16]
 3505              		.loc 1 1459 0
 3506 0078 D4F88C20 		ldr	r2, [r4, #140]
 3507 007c 5B1A     		subs	r3, r3, r1
 3508              		.loc 1 1457 0
 3509 007e 9B1B     		subs	r3, r3, r6
 3510              		.loc 1 1459 0
 3511 0080 190A     		lsrs	r1, r3, #8
 3512              		.loc 1 1457 0
 3513 0082 C4F89C30 		str	r3, [r4, #156]
 3514              		.loc 1 1459 0
 3515 0086 D170     		strb	r1, [r2, #3]
 3516              		.loc 1 1460 0
 3517 0088 D4F88C30 		ldr	r3, [r4, #140]
 3518 008c D4F89C20 		ldr	r2, [r4, #156]
 3519 0090 1A71     		strb	r2, [r3, #4]
 3520              		.loc 1 1462 0
ARM GAS  C:\Users\jo\AppData\Local\Temp\cct348YO.s 			page 63


 3521 0092 D4F89090 		ldr	r9, [r4, #144]
 3522 0096 D4F89C50 		ldr	r5, [r4, #156]
 3523 009a D4F87880 		ldr	r8, [r4, #120]
 3524 009e 09EB0501 		add	r1, r9, r5
 3525 00a2 D8F81020 		ldr	r2, [r8, #16]
 3526 00a6 07A8     		add	r0, sp, #28
 3527 00a8 FFF7FEFF 		bl	memcpy
 3528              	.LVL405:
 3529              		.loc 1 1464 0
 3530 00ac E368     		ldr	r3, [r4, #12]
 3531 00ae 002B     		cmp	r3, #0
 3532 00b0 40F0CC80 		bne	.L245
 3533              		.loc 1 1466 0
 3534 00b4 D8F81020 		ldr	r2, [r8, #16]
 3535 00b8 102A     		cmp	r2, #16
 3536 00ba 00F00B82 		beq	.L325
 3537              		.loc 1 1470 0
 3538 00be 142A     		cmp	r2, #20
 3539 00c0 00F03B82 		beq	.L326
 3540              		.loc 1 1474 0
 3541 00c4 202A     		cmp	r2, #32
 3542 00c6 00F08F82 		beq	.L327
 3543              		.loc 1 1478 0
 3544 00ca 002A     		cmp	r2, #0
 3545 00cc 40F0D282 		bne	.L328
 3546              	.LVL406:
 3547              	.L247:
 3548              		.loc 1 1549 0
 3549 00d0 944B     		ldr	r3, .L339+12
 3550 00d2 0292     		str	r2, [sp, #8]
 3551 00d4 07A9     		add	r1, sp, #28
 3552 00d6 0191     		str	r1, [sp, #4]
 3553 00d8 0093     		str	r3, [sp]
 3554 00da 2046     		mov	r0, r4
 3555 00dc 0421     		movs	r1, #4
 3556 00de 8F4A     		ldr	r2, .L339+4
 3557 00e0 40F20D63 		movw	r3, #1549
 3558 00e4 FFF7FEFF 		bl	debug_print_buf
 3559              	.LVL407:
 3560              		.loc 1 1550 0
 3561 00e8 D4F89010 		ldr	r1, [r4, #144]
 3562 00ec D4F89C30 		ldr	r3, [r4, #156]
 3563 00f0 A26F     		ldr	r2, [r4, #120]
 3564 00f2 8D48     		ldr	r0, .L339+16
 3565 00f4 0090     		str	r0, [sp]
 3566 00f6 0B44     		add	r3, r3, r1
 3567 00f8 0193     		str	r3, [sp, #4]
 3568 00fa 1369     		ldr	r3, [r2, #16]
 3569 00fc 0293     		str	r3, [sp, #8]
 3570 00fe 2046     		mov	r0, r4
 3571 0100 0421     		movs	r1, #4
 3572 0102 864A     		ldr	r2, .L339+4
 3573 0104 40F20F63 		movw	r3, #1551
 3574 0108 FFF7FEFF 		bl	debug_print_buf
 3575              	.LVL408:
 3576              		.loc 1 1553 0
 3577 010c A36F     		ldr	r3, [r4, #120]
ARM GAS  C:\Users\jo\AppData\Local\Temp\cct348YO.s 			page 64


 3578 010e D4F89C60 		ldr	r6, [r4, #156]
 3579 0112 D4F89010 		ldr	r1, [r4, #144]
 3580 0116 1A69     		ldr	r2, [r3, #16]
 3581 0118 07A8     		add	r0, sp, #28
 3582 011a 3144     		add	r1, r1, r6
 3583 011c FFF7FEFF 		bl	memcmp
 3584              	.LVL409:
 3585 0120 0546     		mov	r5, r0
 3586 0122 0028     		cmp	r0, #0
 3587 0124 40F0B780 		bne	.L276
 3588              		.loc 1 1565 0
 3589 0128 002F     		cmp	r7, #0
 3590 012a 00F0B480 		beq	.L276
 3591              		.loc 1 1568 0
 3592 012e 002E     		cmp	r6, #0
 3593 0130 40F0B680 		bne	.L259
 3594              		.loc 1 1570 0
 3595 0134 D4F8A830 		ldr	r3, [r4, #168]
 3596 0138 0133     		adds	r3, r3, #1
 3597              		.loc 1 1576 0
 3598 013a 032B     		cmp	r3, #3
 3599              		.loc 1 1570 0
 3600 013c C4F8A830 		str	r3, [r4, #168]
 3601              		.loc 1 1576 0
 3602 0140 00F38A82 		bgt	.L329
 3603              	.L260:
 3604              	.LVL410:
 3605              	.LBB35:
 3606              	.LBB36:
 3607              		.loc 1 1538 0 discriminator 1
 3608 0144 0822     		movs	r2, #8
 3609              	.LVL411:
 3610              	.L263:
 3611              	.LBE36:
 3612              	.LBE35:
 3613              		.loc 1 1587 0
 3614 0146 013A     		subs	r2, r2, #1
 3615              	.LVL412:
 3616 0148 D4F88810 		ldr	r1, [r4, #136]
 3617 014c 8B5C     		ldrb	r3, [r1, r2]	@ zero_extendqisi2
 3618 014e 0133     		adds	r3, r3, #1
 3619 0150 DBB2     		uxtb	r3, r3
 3620 0152 8B54     		strb	r3, [r1, r2]
 3621 0154 0BB9     		cbnz	r3, .L261
 3622              		.loc 1 1586 0 discriminator 1
 3623 0156 002A     		cmp	r2, #0
 3624 0158 F5D1     		bne	.L263
 3625              	.L261:
 3626              		.loc 1 1590 0
 3627 015a 7448     		ldr	r0, .L339+20
 3628 015c FFF7FEFF 		bl	debug_fmt
 3629              	.LVL413:
 3630 0160 0221     		movs	r1, #2
 3631 0162 0090     		str	r0, [sp]
 3632 0164 6D4A     		ldr	r2, .L339+4
 3633 0166 2046     		mov	r0, r4
 3634 0168 40F23663 		movw	r3, #1590
ARM GAS  C:\Users\jo\AppData\Local\Temp\cct348YO.s 			page 65


 3635 016c FFF7FEFF 		bl	debug_print_msg
 3636              	.LVL414:
 3637              	.L320:
 3638              		.loc 1 1593 0
 3639 0170 2846     		mov	r0, r5
 3640 0172 4BB0     		add	sp, sp, #300
 3641              		.cfi_remember_state
 3642              		.cfi_def_cfa_offset 36
 3643              		@ sp needed
 3644 0174 BDE8F08F 		pop	{r4, r5, r6, r7, r8, r9, r10, fp, pc}
 3645              	.LVL415:
 3646              	.L220:
 3647              		.cfi_restore_state
 3648              		.loc 1 1231 0
 3649 0178 0C2E     		cmp	r6, #12
 3650 017a 00F0FA80 		beq	.L330
 3651              	.LVL416:
 3652              	.LBB40:
 3653              		.loc 1 1307 0
 3654 017e B1FBF6F7 		udiv	r7, r1, r6
 3655 0182 06FB1717 		mls	r7, r6, r7, r1
 3656 0186 002F     		cmp	r7, #0
 3657 0188 40F05882 		bne	.L331
 3658              		.loc 1 1314 0
 3659 018c E368     		ldr	r3, [r4, #12]
 3660 018e 022B     		cmp	r3, #2
 3661 0190 ACBF     		ite	ge
 3662 0192 3246     		movge	r2, r6
 3663 0194 0022     		movlt	r2, #0
 3664              	.LVL417:
 3665              		.loc 1 1317 0
 3666 0196 9019     		adds	r0, r2, r6
 3667 0198 8142     		cmp	r1, r0
 3668 019a 2869     		ldr	r0, [r5, #16]
 3669 019c C0F03282 		bcc	.L229
 3670 01a0 00F1010E 		add	lr, r0, #1
 3671              		.loc 1 1318 0 discriminator 1
 3672 01a4 7244     		add	r2, r2, lr
 3673              	.LVL418:
 3674              		.loc 1 1317 0 discriminator 1
 3675 01a6 9142     		cmp	r1, r2
 3676 01a8 C0F02C82 		bcc	.L229
 3677              	.LVL419:
 3678              		.loc 1 1332 0
 3679 01ac 012B     		cmp	r3, #1
 3680              		.loc 1 1326 0
 3681 01ae D4F89000 		ldr	r0, [r4, #144]
 3682              	.LVL420:
 3683              		.loc 1 1332 0
 3684 01b2 40F37B81 		ble	.L268
 3685              		.loc 1 1335 0
 3686 01b6 891B     		subs	r1, r1, r6
 3687              	.LVL421:
 3688              		.loc 1 1336 0
 3689 01b8 C4F89C10 		str	r1, [r4, #156]
 3690              	.LVL422:
 3691              		.loc 1 1334 0
ARM GAS  C:\Users\jo\AppData\Local\Temp\cct348YO.s 			page 66


 3692 01bc 00EB060E 		add	lr, r0, r6
 3693              	.LVL423:
 3694              		.loc 1 1338 0
 3695 01c0 002E     		cmp	r6, #0
 3696 01c2 3ED0     		beq	.L321
 3697              		.loc 1 1338 0 is_stmt 0 discriminator 3
 3698 01c4 0346     		mov	r3, r0
 3699              	.LVL424:
 3700 01c6 3A46     		mov	r2, r7
 3701 01c8 01E0     		b	.L233
 3702              	.LVL425:
 3703              	.L332:
 3704 01ca D4F89030 		ldr	r3, [r4, #144]
 3705              	.LVL426:
 3706              	.L233:
 3707              		.loc 1 1339 0 is_stmt 1 discriminator 3
 3708 01ce 9B5C     		ldrb	r3, [r3, r2]	@ zero_extendqisi2
 3709 01d0 1544     		add	r5, r5, r2
 3710              		.loc 1 1338 0 discriminator 3
 3711 01d2 0132     		adds	r2, r2, #1
 3712              	.LVL427:
 3713              		.loc 1 1339 0 discriminator 3
 3714 01d4 85F82430 		strb	r3, [r5, #36]
 3715              		.loc 1 1338 0 discriminator 3
 3716 01d8 A56F     		ldr	r5, [r4, #120]
 3717 01da AB68     		ldr	r3, [r5, #8]
 3718 01dc 9342     		cmp	r3, r2
 3719 01de F4D8     		bhi	.L332
 3720              	.LVL428:
 3721              	.L231:
 3722              		.loc 1 1342 0
 3723 01e0 082B     		cmp	r3, #8
 3724 01e2 00F05781 		beq	.L234
 3725 01e6 102B     		cmp	r3, #16
 3726 01e8 2BD1     		bne	.L321
 3727              		.loc 1 1364 0
 3728 01ea 636E     		ldr	r3, [r4, #100]
 3729 01ec 5B68     		ldr	r3, [r3, #4]
 3730 01ee 2F2B     		cmp	r3, #47
 3731 01f0 59D0     		beq	.L237
 3732              		.loc 1 1364 0 is_stmt 0 discriminator 1
 3733 01f2 332B     		cmp	r3, #51
 3734 01f4 57D0     		beq	.L237
 3735              		.loc 1 1365 0 is_stmt 1
 3736 01f6 352B     		cmp	r3, #53
 3737 01f8 55D0     		beq	.L237
 3738              		.loc 1 1366 0
 3739 01fa 392B     		cmp	r3, #57
 3740 01fc 53D0     		beq	.L237
 3741              		.loc 1 1367 0
 3742 01fe A3F13C02 		sub	r2, r3, #60
 3743 0202 012A     		cmp	r2, #1
 3744 0204 4FD9     		bls	.L237
 3745              		.loc 1 1369 0
 3746 0206 672B     		cmp	r3, #103
 3747 0208 4DD0     		beq	.L237
 3748              		.loc 1 1370 0
ARM GAS  C:\Users\jo\AppData\Local\Temp\cct348YO.s 			page 67


 3749 020a 6B2B     		cmp	r3, #107
 3750 020c 4BD0     		beq	.L237
 3751              		.loc 1 1381 0
 3752 020e 23F00402 		bic	r2, r3, #4
 3753 0212 412A     		cmp	r2, #65
 3754 0214 09D0     		beq	.L239
 3755              		.loc 1 1382 0
 3756 0216 23F04006 		bic	r6, r3, #64
 3757 021a 842E     		cmp	r6, #132
 3758 021c 05D0     		beq	.L239
 3759              		.loc 1 1383 0
 3760 021e 882B     		cmp	r3, #136
 3761 0220 03D0     		beq	.L239
 3762              		.loc 1 1384 0
 3763 0222 BA2A     		cmp	r2, #186
 3764 0224 01D0     		beq	.L239
 3765              		.loc 1 1386 0
 3766 0226 C02B     		cmp	r3, #192
 3767 0228 0BD1     		bne	.L321
 3768              	.L239:
 3769              		.loc 1 1390 0
 3770 022a 0190     		str	r0, [sp, #4]
 3771 022c 0A46     		mov	r2, r1
 3772 022e CDF800E0 		str	lr, [sp]
 3773 0232 05F52570 		add	r0, r5, #660
 3774              	.LVL429:
 3775 0236 05F12403 		add	r3, r5, #36
 3776 023a 0021     		movs	r1, #0
 3777              	.LVL430:
 3778 023c FFF7FEFF 		bl	camellia_crypt_cbc
 3779              	.LVL431:
 3780              		.loc 1 1393 0
 3781 0240 3CE0     		b	.L236
 3782              	.L321:
 3783              		.loc 1 1398 0
 3784 0242 3B4D     		ldr	r5, .L339+24
 3785              	.LBE40:
 3786              		.loc 1 1593 0
 3787 0244 2846     		mov	r0, r5
 3788 0246 4BB0     		add	sp, sp, #300
 3789              		.cfi_remember_state
 3790              		.cfi_def_cfa_offset 36
 3791              		@ sp needed
 3792 0248 BDE8F08F 		pop	{r4, r5, r6, r7, r8, r9, r10, fp, pc}
 3793              	.LVL432:
 3794              	.L245:
 3795              		.cfi_restore_state
 3796 024c 1535     		adds	r5, r5, #21
 3797              	.LVL433:
 3798              	.LBB43:
 3799              		.loc 1 1506 0
 3800 024e D8F81020 		ldr	r2, [r8, #16]
 3801              		.loc 1 1501 0
 3802 0252 2E44     		add	r6, r6, r5
 3803              	.LVL434:
 3804              		.loc 1 1502 0
 3805 0254 AD09     		lsrs	r5, r5, #6
ARM GAS  C:\Users\jo\AppData\Local\Temp\cct348YO.s 			page 68


 3806              		.loc 1 1501 0
 3807 0256 C5EB9615 		rsb	r5, r5, r6, lsr #6
 3808              	.LVL435:
 3809              		.loc 1 1506 0
 3810 025a 102A     		cmp	r2, #16
 3811              		.loc 1 1504 0
 3812 025c C7EB0726 		rsb	r6, r7, r7, lsl #8
 3813 0260 05EA0605 		and	r5, r5, r6
 3814              	.LVL436:
 3815              		.loc 1 1506 0
 3816 0264 00F04481 		beq	.L333
 3817              		.loc 1 1516 0
 3818 0268 142A     		cmp	r2, #20
 3819 026a 00F07481 		beq	.L334
 3820              		.loc 1 1531 0
 3821 026e 202A     		cmp	r2, #32
 3822 0270 00F09581 		beq	.L335
 3823              		.loc 1 1541 0
 3824 0274 002A     		cmp	r2, #0
 3825 0276 3FF42BAF 		beq	.L247
 3826              		.loc 1 1543 0
 3827 027a 1146     		mov	r1, r2
 3828 027c 2D48     		ldr	r0, .L339+28
 3829              		.loc 1 1545 0
 3830 027e 2C4D     		ldr	r5, .L339+24
 3831              	.LVL437:
 3832              		.loc 1 1543 0
 3833 0280 FFF7FEFF 		bl	debug_fmt
 3834              	.LVL438:
 3835 0284 0121     		movs	r1, #1
 3836 0286 0090     		str	r0, [sp]
 3837 0288 244A     		ldr	r2, .L339+4
 3838 028a 2046     		mov	r0, r4
 3839 028c 4FF4C163 		mov	r3, #1544
 3840 0290 FFF7FEFF 		bl	debug_print_msg
 3841              	.LVL439:
 3842              		.loc 1 1545 0
 3843 0294 6CE7     		b	.L320
 3844              	.L276:
 3845              	.LBE43:
 3846              		.loc 1 1566 0
 3847 0296 284D     		ldr	r5, .L339+32
 3848              		.loc 1 1593 0
 3849 0298 2846     		mov	r0, r5
 3850 029a 4BB0     		add	sp, sp, #300
 3851              		.cfi_remember_state
 3852              		.cfi_def_cfa_offset 36
 3853              		@ sp needed
 3854 029c BDE8F08F 		pop	{r4, r5, r6, r7, r8, r9, r10, fp, pc}
 3855              	.LVL440:
 3856              	.L259:
 3857              		.cfi_restore_state
 3858              		.loc 1 1584 0
 3859 02a0 C4F8A800 		str	r0, [r4, #168]
 3860 02a4 4EE7     		b	.L260
 3861              	.LVL441:
 3862              	.L237:
ARM GAS  C:\Users\jo\AppData\Local\Temp\cct348YO.s 			page 69


 3863              	.LBB44:
 3864              		.loc 1 1373 0
 3865 02a6 0190     		str	r0, [sp, #4]
 3866 02a8 0A46     		mov	r2, r1
 3867 02aa CDF800E0 		str	lr, [sp]
 3868 02ae 05F52570 		add	r0, r5, #660
 3869              	.LVL442:
 3870 02b2 05F12403 		add	r3, r5, #36
 3871 02b6 0021     		movs	r1, #0
 3872              	.LVL443:
 3873 02b8 FFF7FEFF 		bl	aes_crypt_cbc
 3874              	.LVL444:
 3875              	.L236:
 3876              		.loc 1 1401 0
 3877 02bc D4F89C50 		ldr	r5, [r4, #156]
 3878 02c0 D4F890E0 		ldr	lr, [r4, #144]
 3879              		.loc 1 1403 0
 3880 02c4 A26F     		ldr	r2, [r4, #120]
 3881              		.loc 1 1401 0
 3882 02c6 691E     		subs	r1, r5, #1
 3883              		.loc 1 1403 0
 3884 02c8 1369     		ldr	r3, [r2, #16]
 3885              		.loc 1 1401 0
 3886 02ca 1EF801C0 		ldrb	ip, [lr, r1]	@ zero_extendqisi2
 3887 02ce 0CF10106 		add	r6, ip, #1
 3888              	.LVL445:
 3889              		.loc 1 1403 0
 3890 02d2 3344     		add	r3, r3, r6
 3891 02d4 9D42     		cmp	r5, r3
 3892              		.loc 1 1413 0
 3893 02d6 E368     		ldr	r3, [r4, #12]
 3894              		.loc 1 1403 0
 3895 02d8 30D2     		bcs	.L336
 3896              	.LVL446:
 3897              		.loc 1 1413 0
 3898 02da 002B     		cmp	r3, #0
 3899 02dc 00F0E980 		beq	.L277
 3900              		.loc 1 1409 0
 3901 02e0 0026     		movs	r6, #0
 3902              	.LBB41:
 3903              		.loc 1 1431 0
 3904 02e2 3046     		mov	r0, r6
 3905              		.loc 1 1434 0
 3906 02e4 0123     		movs	r3, #1
 3907              	.LVL447:
 3908              	.L265:
 3909 02e6 1944     		add	r1, r1, r3
 3910 02e8 7144     		add	r1, r1, lr
 3911 02ea 06F1FF38 		add	r8, r6, #-1
 3912              		.loc 1 1434 0 is_stmt 0 discriminator 2
 3913 02ee 0022     		movs	r2, #0
 3914              	.LVL448:
 3915              	.L244:
 3916              		.loc 1 1438 0 is_stmt 1 discriminator 2
 3917 02f0 11F801CB 		ldrb	ip, [r1], #1	@ zero_extendqisi2
 3918              		.loc 1 1437 0 discriminator 2
 3919 02f4 0133     		adds	r3, r3, #1
ARM GAS  C:\Users\jo\AppData\Local\Temp\cct348YO.s 			page 70


 3920              	.LVL449:
 3921              		.loc 1 1438 0 discriminator 2
 3922 02f6 C445     		cmp	ip, r8
 3923 02f8 08BF     		it	eq
 3924 02fa 0132     		addeq	r2, r2, #1
 3925              	.LVL450:
 3926              		.loc 1 1437 0 discriminator 2
 3927 02fc B3F5807F 		cmp	r3, #256
 3928 0300 F6D9     		bls	.L244
 3929              	.LVL451:
 3930              	.L243:
 3931              		.loc 1 1441 0
 3932 0302 0244     		add	r2, r2, r0
 3933 0304 B2F5007F 		cmp	r2, #512
 3934 0308 2CBF     		ite	cs
 3935 030a 0027     		movcs	r7, #0
 3936 030c 07F00107 		andcc	r7, r7, #1
 3937              	.LVL452:
 3938              		.loc 1 1447 0
 3939 0310 7B02     		lsls	r3, r7, #9
 3940              	.LVL453:
 3941 0312 DB1B     		subs	r3, r3, r7
 3942 0314 1E40     		ands	r6, r6, r3
 3943              	.LVL454:
 3944 0316 9FE6     		b	.L222
 3945              	.L340:
 3946              		.align	2
 3947              	.L339:
 3948 0318 F0020000 		.word	.LC30
 3949 031c 40000000 		.word	.LC3
 3950 0320 C8030000 		.word	.LC37
 3951 0324 E4030000 		.word	.LC38
 3952 0328 F0010000 		.word	.LC23
 3953 032c 34040000 		.word	.LC40
 3954 0330 808FFFFF 		.word	-28800
 3955 0334 DC010000 		.word	.LC22
 3956 0338 808EFFFF 		.word	-29056
 3957              	.LVL455:
 3958              	.L336:
 3959              	.LBE41:
 3960              		.loc 1 1413 0
 3961 033c 002B     		cmp	r3, #0
 3962 033e 00F0A380 		beq	.L337
 3963              	.LVL456:
 3964              	.LBB42:
 3965              		.loc 1 1432 0
 3966 0342 891B     		subs	r1, r1, r6
 3967              	.LVL457:
 3968 0344 0EEB0102 		add	r2, lr, r1
 3969 0348 0020     		movs	r0, #0
 3970 034a 0123     		movs	r3, #1
 3971              	.LVL458:
 3972              	.L242:
 3973              		.loc 1 1435 0 discriminator 3
 3974 034c 12F8017F 		ldrb	r7, [r2, #1]!	@ zero_extendqisi2
 3975              		.loc 1 1434 0 discriminator 3
 3976 0350 0133     		adds	r3, r3, #1
ARM GAS  C:\Users\jo\AppData\Local\Temp\cct348YO.s 			page 71


 3977              	.LVL459:
 3978              		.loc 1 1435 0 discriminator 3
 3979 0352 6745     		cmp	r7, ip
 3980 0354 08BF     		it	eq
 3981 0356 0130     		addeq	r0, r0, #1
 3982              	.LVL460:
 3983              		.loc 1 1434 0 discriminator 3
 3984 0358 9E42     		cmp	r6, r3
 3985 035a F7D2     		bcs	.L242
 3986              		.loc 1 1437 0
 3987 035c B3F5807F 		cmp	r3, #256
 3988 0360 A6EB0007 		sub	r7, r6, r0
 3989 0364 B7FA87F7 		clz	r7, r7
 3990 0368 4FEA5717 		lsr	r7, r7, #5
 3991 036c BBD9     		bls	.L265
 3992 036e 0022     		movs	r2, #0
 3993 0370 C7E7     		b	.L243
 3994              	.LVL461:
 3995              	.L330:
 3996              	.LBE42:
 3997              	.LBE44:
 3998              	.LBB45:
 3999              		.loc 1 1240 0
 4000 0372 636E     		ldr	r3, [r4, #100]
 4001              		.loc 1 1242 0
 4002 0374 5B68     		ldr	r3, [r3, #4]
 4003 0376 9C3B     		subs	r3, r3, #156
 4004              		.loc 1 1240 0
 4005 0378 032B     		cmp	r3, #3
 4006 037a 3FF662AF 		bhi	.L321
 4007              		.loc 1 1246 0
 4008 037e EB68     		ldr	r3, [r5, #12]
 4009              	.LVL462:
 4010              		.loc 1 1253 0
 4011 0380 D4F88850 		ldr	r5, [r4, #136]
 4012              		.loc 1 1260 0
 4013 0384 C24F     		ldr	r7, .L341
 4014              		.loc 1 1255 0
 4015 0386 D4F808C0 		ldr	ip, [r4, #8]
 4016              		.loc 1 1248 0
 4017 038a D4F89080 		ldr	r8, [r4, #144]
 4018              		.loc 1 1254 0
 4019 038e D4F89890 		ldr	r9, [r4, #152]
 4020              		.loc 1 1256 0
 4021 0392 D4F80CE0 		ldr	lr, [r4, #12]
 4022              		.loc 1 1260 0
 4023 0396 BF4A     		ldr	r2, .L341+4
 4024 0398 1944     		add	r1, r1, r3
 4025              	.LVL463:
 4026              		.loc 1 1247 0
 4027 039a A1F11C06 		sub	r6, r1, #28
 4028              	.LVL464:
 4029              		.loc 1 1251 0
 4030 039e C4F89C60 		str	r6, [r4, #156]
 4031              		.loc 1 1253 0
 4032 03a2 2868     		ldr	r0, [r5]	@ unaligned
 4033 03a4 6968     		ldr	r1, [r5, #4]	@ unaligned
ARM GAS  C:\Users\jo\AppData\Local\Temp\cct348YO.s 			page 72


 4034              		.loc 1 1260 0
 4035 03a6 0097     		str	r7, [sp]
 4036              		.loc 1 1253 0
 4037 03a8 0FAF     		add	r7, sp, #60
 4038              		.loc 1 1260 0
 4039 03aa 4FF00D0A 		mov	r10, #13
 4040              		.loc 1 1253 0
 4041 03ae BB46     		mov	fp, r7
 4042              		.loc 1 1248 0
 4043 03b0 C3F10C05 		rsb	r5, r3, #12
 4044              		.loc 1 1260 0
 4045 03b4 0197     		str	r7, [sp, #4]
 4046 03b6 40F2ED43 		movw	r3, #1261
 4047              		.loc 1 1253 0
 4048 03ba ABE80300 		stmia	fp!, {r0, r1}
 4049              		.loc 1 1257 0
 4050 03be 4FEA162B 		lsr	fp, r6, #8
 4051              		.loc 1 1260 0
 4052 03c2 2046     		mov	r0, r4
 4053 03c4 0421     		movs	r1, #4
 4054 03c6 CDF808A0 		str	r10, [sp, #8]
 4055              		.loc 1 1255 0
 4056 03ca 8DF845C0 		strb	ip, [sp, #69]
 4057              		.loc 1 1257 0
 4058 03ce 8DF847B0 		strb	fp, [sp, #71]
 4059              		.loc 1 1254 0
 4060 03d2 8DF84490 		strb	r9, [sp, #68]
 4061              		.loc 1 1256 0
 4062 03d6 8DF846E0 		strb	lr, [sp, #70]
 4063              		.loc 1 1258 0
 4064 03da 8DF84860 		strb	r6, [sp, #72]
 4065              		.loc 1 1260 0
 4066 03de FFF7FEFF 		bl	debug_print_buf
 4067              	.LVL465:
 4068              		.loc 1 1263 0
 4069 03e2 A36F     		ldr	r3, [r4, #120]
 4070 03e4 D4F89010 		ldr	r1, [r4, #144]
 4071 03e8 DA68     		ldr	r2, [r3, #12]
 4072 03ea D3F808E0 		ldr	lr, [r3, #8]
 4073 03ee 9818     		adds	r0, r3, r2
 4074 03f0 2430     		adds	r0, r0, #36
 4075 03f2 C2EB0E02 		rsb	r2, r2, lr
 4076 03f6 FFF7FEFF 		bl	memcpy
 4077              	.LVL466:
 4078              		.loc 1 1267 0
 4079 03fa A36F     		ldr	r3, [r4, #120]
 4080 03fc A64A     		ldr	r2, .L341+8
 4081 03fe 0092     		str	r2, [sp]
 4082 0400 03F12402 		add	r2, r3, #36
 4083 0404 0192     		str	r2, [sp, #4]
 4084 0406 9B68     		ldr	r3, [r3, #8]
 4085 0408 0293     		str	r3, [sp, #8]
 4086              		.loc 1 1248 0
 4087 040a 4544     		add	r5, r5, r8
 4088              	.LVL467:
 4089              		.loc 1 1267 0
 4090 040c 2046     		mov	r0, r4
ARM GAS  C:\Users\jo\AppData\Local\Temp\cct348YO.s 			page 73


 4091 040e 0421     		movs	r1, #4
 4092 0410 A04A     		ldr	r2, .L341+4
 4093 0412 40F2F443 		movw	r3, #1268
 4094 0416 FFF7FEFF 		bl	debug_print_buf
 4095              	.LVL468:
 4096              		.loc 1 1269 0
 4097 041a 05EB060B 		add	fp, r5, r6
 4098 041e 9F4B     		ldr	r3, .L341+12
 4099 0420 0093     		str	r3, [sp]
 4100 0422 4FF01009 		mov	r9, #16
 4101 0426 2046     		mov	r0, r4
 4102 0428 0421     		movs	r1, #4
 4103 042a 9A4A     		ldr	r2, .L341+4
 4104 042c CDF804B0 		str	fp, [sp, #4]
 4105 0430 40F2F543 		movw	r3, #1269
 4106 0434 CDF80890 		str	r9, [sp, #8]
 4107 0438 FFF7FEFF 		bl	debug_print_buf
 4108              	.LVL469:
 4109              		.loc 1 1271 0
 4110 043c A36F     		ldr	r3, [r4, #120]
 4111 043e D4F89010 		ldr	r1, [r4, #144]
 4112 0442 DA68     		ldr	r2, [r3, #12]
 4113 0444 D3F808E0 		ldr	lr, [r3, #8]
 4114 0448 9818     		adds	r0, r3, r2
 4115 044a 2430     		adds	r0, r0, #36
 4116 044c C2EB0E02 		rsb	r2, r2, lr
 4117 0450 FFF7FEFF 		bl	memcpy
 4118              	.LVL470:
 4119              		.loc 1 1275 0
 4120 0454 A26F     		ldr	r2, [r4, #120]
 4121 0456 3146     		mov	r1, r6
 4122 0458 9368     		ldr	r3, [r2, #8]
 4123 045a 0097     		str	r7, [sp]
 4124 045c 02F52570 		add	r0, r2, #660
 4125 0460 CDF808B0 		str	fp, [sp, #8]
 4126 0464 0495     		str	r5, [sp, #16]
 4127 0466 CDF804A0 		str	r10, [sp, #4]
 4128 046a CDF80C90 		str	r9, [sp, #12]
 4129 046e CDF81480 		str	r8, [sp, #20]
 4130 0472 2432     		adds	r2, r2, #36
 4131 0474 FFF7FEFF 		bl	gcm_auth_decrypt
 4132              	.LVL471:
 4133              		.loc 1 1283 0
 4134 0478 F0B9     		cbnz	r0, .L338
 4135              	.LBE45:
 4136              		.loc 1 1199 0 discriminator 1
 4137 047a 0646     		mov	r6, r0
 4138              	.LVL472:
 4139 047c D4F890E0 		ldr	lr, [r4, #144]
 4140 0480 D4F89C50 		ldr	r5, [r4, #156]
 4141              	.LVL473:
 4142 0484 0127     		movs	r7, #1
 4143 0486 E7E5     		b	.L222
 4144              	.LVL474:
 4145              	.L337:
 4146              	.LBB46:
 4147              		.loc 1 1415 0
ARM GAS  C:\Users\jo\AppData\Local\Temp\cct348YO.s 			page 74


 4148 0488 9768     		ldr	r7, [r2, #8]
 4149              	.LBE46:
 4150              		.loc 1 1199 0
 4151 048a BE42     		cmp	r6, r7
 4152 048c 8CBF     		ite	hi
 4153 048e 0027     		movhi	r7, #0
 4154 0490 0127     		movls	r7, #1
 4155              	.LBB47:
 4156 0492 E1E5     		b	.L222
 4157              	.LVL475:
 4158              	.L234:
 4159              		.loc 1 1356 0
 4160 0494 0190     		str	r0, [sp, #4]
 4161 0496 0A46     		mov	r2, r1
 4162 0498 CDF800E0 		str	lr, [sp]
 4163 049c 05F52570 		add	r0, r5, #660
 4164              	.LVL476:
 4165 04a0 05F12403 		add	r3, r5, #36
 4166 04a4 0021     		movs	r1, #0
 4167              	.LVL477:
 4168 04a6 FFF7FEFF 		bl	des3_crypt_cbc
 4169              	.LVL478:
 4170              		.loc 1 1359 0
 4171 04aa 07E7     		b	.L236
 4172              	.LVL479:
 4173              	.L268:
 4174 04ac 3346     		mov	r3, r6
 4175              	.LVL480:
 4176              		.loc 1 1326 0
 4177 04ae 8646     		mov	lr, r0
 4178 04b0 96E6     		b	.L231
 4179              	.LVL481:
 4180              	.L277:
 4181              		.loc 1 1410 0
 4182 04b2 1F46     		mov	r7, r3
 4183              		.loc 1 1409 0
 4184 04b4 1E46     		mov	r6, r3
 4185 04b6 CFE5     		b	.L222
 4186              	.LVL482:
 4187              	.L338:
 4188              	.LBE47:
 4189              	.LBB48:
 4190              		.loc 1 1285 0
 4191 04b8 4142     		negs	r1, r0
 4192 04ba 7948     		ldr	r0, .L341+16
 4193              	.LVL483:
 4194              		.loc 1 1288 0
 4195 04bc 794D     		ldr	r5, .L341+20
 4196              	.LVL484:
 4197              		.loc 1 1285 0
 4198 04be FFF7FEFF 		bl	debug_fmt
 4199              	.LVL485:
 4200 04c2 0121     		movs	r1, #1
 4201 04c4 0090     		str	r0, [sp]
 4202 04c6 734A     		ldr	r2, .L341+4
 4203 04c8 2046     		mov	r0, r4
 4204 04ca 40F20653 		movw	r3, #1286
ARM GAS  C:\Users\jo\AppData\Local\Temp\cct348YO.s 			page 75


 4205 04ce FFF7FEFF 		bl	debug_print_msg
 4206              	.LVL486:
 4207              		.loc 1 1288 0
 4208 04d2 4DE6     		b	.L320
 4209              	.LVL487:
 4210              	.L325:
 4211              	.LBE48:
 4212              		.loc 1 1467 0
 4213 04d4 D4F89820 		ldr	r2, [r4, #152]
 4214 04d8 D4F88830 		ldr	r3, [r4, #136]
 4215 04dc 0092     		str	r2, [sp]
 4216 04de 08F15400 		add	r0, r8, #84
 4217 04e2 2A46     		mov	r2, r5
 4218 04e4 4946     		mov	r1, r9
 4219 04e6 FFF7FEFF 		bl	ssl_mac_md5
 4220              	.LVL488:
 4221 04ea A36F     		ldr	r3, [r4, #120]
 4222 04ec 1A69     		ldr	r2, [r3, #16]
 4223 04ee EFE5     		b	.L247
 4224              	.LVL489:
 4225              	.L333:
 4226              	.LBB49:
 4227              	.LBB37:
 4228              		.loc 1 1509 0
 4229 04f0 0FAE     		add	r6, sp, #60
 4230 04f2 08F15401 		add	r1, r8, #84
 4231 04f6 3046     		mov	r0, r6
 4232 04f8 FFF7FEFF 		bl	md5_hmac_starts
 4233              	.LVL490:
 4234              		.loc 1 1510 0
 4235 04fc D4F89C20 		ldr	r2, [r4, #156]
 4236 0500 D4F88810 		ldr	r1, [r4, #136]
 4237 0504 3046     		mov	r0, r6
 4238 0506 0D32     		adds	r2, r2, #13
 4239 0508 FFF7FEFF 		bl	md5_hmac_update
 4240              	.LVL491:
 4241              		.loc 1 1511 0
 4242 050c D4F89010 		ldr	r1, [r4, #144]
 4243 0510 D4F89C30 		ldr	r3, [r4, #156]
 4244 0514 3046     		mov	r0, r6
 4245 0516 1944     		add	r1, r1, r3
 4246 0518 FFF7FEFF 		bl	md5_hmac_finish
 4247              	.LVL492:
 4248              		.loc 1 1513 0
 4249 051c 4FF00008 		mov	r8, #0
 4250 0520 45B1     		cbz	r5, .L258
 4251              	.LVL493:
 4252              	.L251:
 4253              		.loc 1 1513 0 is_stmt 0 discriminator 3
 4254 0522 08F10108 		add	r8, r8, #1
 4255              	.LVL494:
 4256              		.loc 1 1514 0 is_stmt 1 discriminator 3
 4257 0526 3046     		mov	r0, r6
 4258 0528 D4F89010 		ldr	r1, [r4, #144]
 4259 052c FFF7FEFF 		bl	md5_process
 4260              	.LVL495:
 4261              		.loc 1 1513 0 discriminator 3
ARM GAS  C:\Users\jo\AppData\Local\Temp\cct348YO.s 			page 76


 4262 0530 4545     		cmp	r5, r8
 4263 0532 F6D1     		bne	.L251
 4264              	.LVL496:
 4265              	.L258:
 4266 0534 A36F     		ldr	r3, [r4, #120]
 4267 0536 1A69     		ldr	r2, [r3, #16]
 4268              	.LBE37:
 4269 0538 CAE5     		b	.L247
 4270              	.LVL497:
 4271              	.L326:
 4272              	.LBE49:
 4273              		.loc 1 1471 0
 4274 053a D4F89820 		ldr	r2, [r4, #152]
 4275 053e D4F88830 		ldr	r3, [r4, #136]
 4276 0542 0092     		str	r2, [sp]
 4277 0544 08F15400 		add	r0, r8, #84
 4278 0548 2A46     		mov	r2, r5
 4279 054a 4946     		mov	r1, r9
 4280 054c FFF7FEFF 		bl	ssl_mac_sha1
 4281              	.LVL498:
 4282 0550 A36F     		ldr	r3, [r4, #120]
 4283 0552 1A69     		ldr	r2, [r3, #16]
 4284 0554 BCE5     		b	.L247
 4285              	.LVL499:
 4286              	.L334:
 4287              	.LBB50:
 4288              	.LBB38:
 4289              		.loc 1 1519 0
 4290 0556 0FAE     		add	r6, sp, #60
 4291 0558 08F15401 		add	r1, r8, #84
 4292 055c 3046     		mov	r0, r6
 4293 055e FFF7FEFF 		bl	sha1_hmac_starts
 4294              	.LVL500:
 4295              		.loc 1 1520 0
 4296 0562 D4F89C20 		ldr	r2, [r4, #156]
 4297 0566 D4F88810 		ldr	r1, [r4, #136]
 4298 056a 3046     		mov	r0, r6
 4299 056c 0D32     		adds	r2, r2, #13
 4300 056e FFF7FEFF 		bl	sha1_hmac_update
 4301              	.LVL501:
 4302              		.loc 1 1521 0
 4303 0572 D4F89010 		ldr	r1, [r4, #144]
 4304 0576 D4F89C30 		ldr	r3, [r4, #156]
 4305 057a 3046     		mov	r0, r6
 4306 057c 1944     		add	r1, r1, r3
 4307 057e FFF7FEFF 		bl	sha1_hmac_finish
 4308              	.LVL502:
 4309              		.loc 1 1528 0
 4310 0582 4FF00008 		mov	r8, #0
 4311 0586 002D     		cmp	r5, #0
 4312 0588 D4D0     		beq	.L258
 4313              	.LVL503:
 4314              	.L254:
 4315              		.loc 1 1528 0 is_stmt 0 discriminator 3
 4316 058a 08F10108 		add	r8, r8, #1
 4317              	.LVL504:
 4318              		.loc 1 1529 0 is_stmt 1 discriminator 3
ARM GAS  C:\Users\jo\AppData\Local\Temp\cct348YO.s 			page 77


 4319 058e 3046     		mov	r0, r6
 4320 0590 D4F89010 		ldr	r1, [r4, #144]
 4321 0594 FFF7FEFF 		bl	sha1_process
 4322              	.LVL505:
 4323              		.loc 1 1528 0 discriminator 3
 4324 0598 4545     		cmp	r5, r8
 4325 059a F6D1     		bne	.L254
 4326 059c CAE7     		b	.L258
 4327              	.LVL506:
 4328              	.L335:
 4329              	.LBE38:
 4330              	.LBB39:
 4331              		.loc 1 1534 0
 4332 059e 0FAE     		add	r6, sp, #60
 4333 05a0 08F15401 		add	r1, r8, #84
 4334 05a4 0023     		movs	r3, #0
 4335 05a6 3046     		mov	r0, r6
 4336 05a8 FFF7FEFF 		bl	sha2_hmac_starts
 4337              	.LVL507:
 4338              		.loc 1 1535 0
 4339 05ac D4F89C20 		ldr	r2, [r4, #156]
 4340 05b0 D4F88810 		ldr	r1, [r4, #136]
 4341 05b4 3046     		mov	r0, r6
 4342 05b6 0D32     		adds	r2, r2, #13
 4343 05b8 FFF7FEFF 		bl	sha2_hmac_update
 4344              	.LVL508:
 4345              		.loc 1 1536 0
 4346 05bc D4F89010 		ldr	r1, [r4, #144]
 4347 05c0 D4F89C30 		ldr	r3, [r4, #156]
 4348 05c4 3046     		mov	r0, r6
 4349 05c6 1944     		add	r1, r1, r3
 4350 05c8 FFF7FEFF 		bl	sha2_hmac_finish
 4351              	.LVL509:
 4352              		.loc 1 1538 0
 4353 05cc 4FF00008 		mov	r8, #0
 4354 05d0 002D     		cmp	r5, #0
 4355 05d2 AFD0     		beq	.L258
 4356              	.LVL510:
 4357              	.L257:
 4358              		.loc 1 1538 0 is_stmt 0 discriminator 3
 4359 05d4 08F10108 		add	r8, r8, #1
 4360              	.LVL511:
 4361              		.loc 1 1539 0 is_stmt 1 discriminator 3
 4362 05d8 3046     		mov	r0, r6
 4363 05da D4F89010 		ldr	r1, [r4, #144]
 4364 05de FFF7FEFF 		bl	sha2_process
 4365              	.LVL512:
 4366              		.loc 1 1538 0 discriminator 3
 4367 05e2 4545     		cmp	r5, r8
 4368 05e4 F6D1     		bne	.L257
 4369 05e6 A5E7     		b	.L258
 4370              	.LVL513:
 4371              	.L327:
 4372              	.LBE39:
 4373              	.LBE50:
 4374              		.loc 1 1475 0
 4375 05e8 D4F89820 		ldr	r2, [r4, #152]
ARM GAS  C:\Users\jo\AppData\Local\Temp\cct348YO.s 			page 78


 4376 05ec D4F88830 		ldr	r3, [r4, #136]
 4377 05f0 0092     		str	r2, [sp]
 4378 05f2 08F15400 		add	r0, r8, #84
 4379 05f6 2A46     		mov	r2, r5
 4380 05f8 4946     		mov	r1, r9
 4381 05fa FFF7FEFF 		bl	ssl_mac_sha2
 4382              	.LVL514:
 4383 05fe A36F     		ldr	r3, [r4, #120]
 4384 0600 1A69     		ldr	r2, [r3, #16]
 4385 0602 65E5     		b	.L247
 4386              	.LVL515:
 4387              	.L229:
 4388              	.LBB51:
 4389              		.loc 1 1320 0
 4390 0604 3246     		mov	r2, r6
 4391 0606 0346     		mov	r3, r0
 4392              	.LVL516:
 4393 0608 2748     		ldr	r0, .L341+24
 4394              		.loc 1 1322 0
 4395 060a 264D     		ldr	r5, .L341+20
 4396              	.LVL517:
 4397              		.loc 1 1320 0
 4398 060c FFF7FEFF 		bl	debug_fmt
 4399              	.LVL518:
 4400 0610 0121     		movs	r1, #1
 4401 0612 0090     		str	r0, [sp]
 4402 0614 1F4A     		ldr	r2, .L341+4
 4403 0616 2046     		mov	r0, r4
 4404 0618 40F22953 		movw	r3, #1321
 4405 061c FFF7FEFF 		bl	debug_print_msg
 4406              	.LVL519:
 4407              		.loc 1 1322 0
 4408 0620 A6E5     		b	.L320
 4409              	.L324:
 4410              	.LBE51:
 4411              		.loc 1 1206 0
 4412 0622 2248     		ldr	r0, .L341+28
 4413              		.loc 1 1208 0
 4414 0624 1F4D     		ldr	r5, .L341+20
 4415              		.loc 1 1206 0
 4416 0626 FFF7FEFF 		bl	debug_fmt
 4417              	.LVL520:
 4418 062a 0121     		movs	r1, #1
 4419 062c 0090     		str	r0, [sp]
 4420 062e 194A     		ldr	r2, .L341+4
 4421 0630 2046     		mov	r0, r4
 4422 0632 40F2B743 		movw	r3, #1207
 4423 0636 FFF7FEFF 		bl	debug_print_msg
 4424              	.LVL521:
 4425              		.loc 1 1208 0
 4426 063a 99E5     		b	.L320
 4427              	.LVL522:
 4428              	.L331:
 4429              	.LBB52:
 4430              		.loc 1 1309 0
 4431 063c 3246     		mov	r2, r6
 4432 063e 1C48     		ldr	r0, .L341+32
ARM GAS  C:\Users\jo\AppData\Local\Temp\cct348YO.s 			page 79


 4433              		.loc 1 1311 0
 4434 0640 184D     		ldr	r5, .L341+20
 4435              		.loc 1 1309 0
 4436 0642 FFF7FEFF 		bl	debug_fmt
 4437              	.LVL523:
 4438 0646 0121     		movs	r1, #1
 4439 0648 0090     		str	r0, [sp]
 4440 064a 124A     		ldr	r2, .L341+4
 4441 064c 2046     		mov	r0, r4
 4442 064e 40F21E53 		movw	r3, #1310
 4443 0652 FFF7FEFF 		bl	debug_print_msg
 4444              	.LVL524:
 4445              		.loc 1 1311 0
 4446 0656 8BE5     		b	.L320
 4447              	.LVL525:
 4448              	.L329:
 4449              	.LBE52:
 4450              		.loc 1 1578 0
 4451 0658 1648     		ldr	r0, .L341+36
 4452 065a FFF7FEFF 		bl	debug_fmt
 4453              	.LVL526:
 4454 065e 0121     		movs	r1, #1
 4455 0660 0090     		str	r0, [sp]
 4456 0662 0C4A     		ldr	r2, .L341+4
 4457 0664 2046     		mov	r0, r4
 4458 0666 40F22B63 		movw	r3, #1579
 4459              		.loc 1 1580 0
 4460 066a A5F5E345 		sub	r5, r5, #29056
 4461              		.loc 1 1578 0
 4462 066e FFF7FEFF 		bl	debug_print_msg
 4463              	.LVL527:
 4464              		.loc 1 1580 0
 4465 0672 7DE5     		b	.L320
 4466              	.LVL528:
 4467              	.L328:
 4468              		.loc 1 1480 0
 4469 0674 1146     		mov	r1, r2
 4470 0676 1048     		ldr	r0, .L341+40
 4471              		.loc 1 1482 0
 4472 0678 104D     		ldr	r5, .L341+44
 4473              		.loc 1 1480 0
 4474 067a FFF7FEFF 		bl	debug_fmt
 4475              	.LVL529:
 4476 067e 0121     		movs	r1, #1
 4477 0680 0090     		str	r0, [sp]
 4478 0682 044A     		ldr	r2, .L341+4
 4479 0684 2046     		mov	r0, r4
 4480 0686 40F2C953 		movw	r3, #1481
 4481 068a FFF7FEFF 		bl	debug_print_msg
 4482              	.LVL530:
 4483              		.loc 1 1482 0
 4484 068e 6FE5     		b	.L320
 4485              	.L342:
 4486              		.align	2
 4487              	.L341:
 4488 0690 5C020000 		.word	.LC26
 4489 0694 40000000 		.word	.LC3
ARM GAS  C:\Users\jo\AppData\Local\Temp\cct348YO.s 			page 80


 4490 0698 20030000 		.word	.LC32
 4491 069c 28030000 		.word	.LC33
 4492 06a0 34030000 		.word	.LC34
 4493 06a4 808EFFFF 		.word	-29056
 4494 06a8 88030000 		.word	.LC36
 4495 06ac 00030000 		.word	.LC31
 4496 06b0 68030000 		.word	.LC35
 4497 06b4 F4030000 		.word	.LC39
 4498 06b8 DC010000 		.word	.LC22
 4499 06bc 808FFFFF 		.word	-28800
 4500              		.cfi_endproc
 4501              	.LFE17:
 4502              		.size	ssl_decrypt_buf, .-ssl_decrypt_buf
 4503              		.section	.text.ssl_update_checksum_sha384,"ax",%progbits
 4504              		.align	2
 4505              		.p2align 4,,15
 4506              		.thumb
 4507              		.thumb_func
 4508              		.type	ssl_update_checksum_sha384, %function
 4509              	ssl_update_checksum_sha384:
 4510              	.LFB32:
 4511              		.loc 1 2521 0
 4512              		.cfi_startproc
 4513              		@ args = 0, pretend = 0, frame = 0
 4514              		@ frame_needed = 0, uses_anonymous_args = 0
 4515              		@ link register save eliminated.
 4516              	.LVL531:
 4517              		.loc 1 2522 0
 4518 0000 406F     		ldr	r0, [r0, #116]
 4519              	.LVL532:
 4520 0002 00F54270 		add	r0, r0, #776
 4521 0006 FFF7FEBF 		b	sha4_update
 4522              	.LVL533:
 4523              		.cfi_endproc
 4524              	.LFE32:
 4525              		.size	ssl_update_checksum_sha384, .-ssl_update_checksum_sha384
 4526 000a 00BFAFF3 		.section	.text.ssl_update_checksum_start,"ax",%progbits
 4526      0080
 4527              		.align	2
 4528              		.p2align 4,,15
 4529              		.thumb
 4530              		.thumb_func
 4531              		.type	ssl_update_checksum_start, %function
 4532              	ssl_update_checksum_start:
 4533              	.LFB29:
 4534              		.loc 1 2496 0
 4535              		.cfi_startproc
 4536              		@ args = 0, pretend = 0, frame = 0
 4537              		@ frame_needed = 0, uses_anonymous_args = 0
 4538              	.LVL534:
 4539 0000 70B5     		push	{r4, r5, r6, lr}
 4540              		.cfi_def_cfa_offset 16
 4541              		.cfi_offset 4, -16
 4542              		.cfi_offset 5, -12
 4543              		.cfi_offset 6, -8
 4544              		.cfi_offset 14, -4
 4545              		.loc 1 2496 0
ARM GAS  C:\Users\jo\AppData\Local\Temp\cct348YO.s 			page 81


 4546 0002 0446     		mov	r4, r0
 4547              		.loc 1 2497 0
 4548 0004 406F     		ldr	r0, [r0, #116]
 4549              	.LVL535:
 4550 0006 6430     		adds	r0, r0, #100
 4551              		.loc 1 2496 0
 4552 0008 0E46     		mov	r6, r1
 4553 000a 1546     		mov	r5, r2
 4554              		.loc 1 2497 0
 4555 000c FFF7FEFF 		bl	md5_update
 4556              	.LVL536:
 4557              		.loc 1 2498 0
 4558 0010 606F     		ldr	r0, [r4, #116]
 4559 0012 3146     		mov	r1, r6
 4560 0014 2A46     		mov	r2, r5
 4561 0016 00F59E70 		add	r0, r0, #316
 4562 001a FFF7FEFF 		bl	sha1_update
 4563              	.LVL537:
 4564              		.loc 1 2499 0
 4565 001e 606F     		ldr	r0, [r4, #116]
 4566 0020 3146     		mov	r1, r6
 4567 0022 2A46     		mov	r2, r5
 4568 0024 00F50670 		add	r0, r0, #536
 4569 0028 FFF7FEFF 		bl	sha2_update
 4570              	.LVL538:
 4571              		.loc 1 2501 0
 4572 002c 606F     		ldr	r0, [r4, #116]
 4573 002e 3146     		mov	r1, r6
 4574 0030 2A46     		mov	r2, r5
 4575 0032 00F54270 		add	r0, r0, #776
 4576              		.loc 1 2503 0
 4577 0036 BDE87040 		pop	{r4, r5, r6, lr}
 4578              		.cfi_restore 14
 4579              		.cfi_restore 6
 4580              		.cfi_restore 5
 4581              		.cfi_restore 4
 4582              		.cfi_def_cfa_offset 0
 4583              	.LVL539:
 4584              		.loc 1 2501 0
 4585 003a FFF7FEBF 		b	sha4_update
 4586              	.LVL540:
 4587              		.cfi_endproc
 4588              	.LFE29:
 4589              		.size	ssl_update_checksum_start, .-ssl_update_checksum_start
 4590 003e 00BF     		.section	.text.ssl_rsa_sign,"ax",%progbits
 4591              		.align	2
 4592              		.p2align 4,,15
 4593              		.thumb
 4594              		.thumb_func
 4595              		.type	ssl_rsa_sign, %function
 4596              	ssl_rsa_sign:
 4597              	.LFB2:
 4598              		.loc 1 80 0
 4599              		.cfi_startproc
 4600              		@ args = 16, pretend = 0, frame = 0
 4601              		@ frame_needed = 0, uses_anonymous_args = 0
 4602              		@ link register save eliminated.
ARM GAS  C:\Users\jo\AppData\Local\Temp\cct348YO.s 			page 82


 4603              	.LVL541:
 4604 0000 70B4     		push	{r4, r5, r6}
 4605              		.cfi_def_cfa_offset 12
 4606              		.cfi_offset 4, -12
 4607              		.cfi_offset 5, -8
 4608              		.cfi_offset 6, -4
 4609              		.loc 1 83 0
 4610 0002 70BC     		pop	{r4, r5, r6}
 4611              		.cfi_restore 6
 4612              		.cfi_restore 5
 4613              		.cfi_restore 4
 4614              		.cfi_def_cfa_offset 0
 4615              	.LVL542:
 4616              		.loc 1 81 0
 4617 0004 FFF7FEBF 		b	rsa_pkcs1_sign
 4618              	.LVL543:
 4619              		.cfi_endproc
 4620              	.LFE2:
 4621              		.size	ssl_rsa_sign, .-ssl_rsa_sign
 4622 0008 AFF30080 		.section	.text.ssl_rsa_decrypt,"ax",%progbits
 4622      AFF30080 
 4623              		.align	2
 4624              		.p2align 4,,15
 4625              		.thumb
 4626              		.thumb_func
 4627              		.type	ssl_rsa_decrypt, %function
 4628              	ssl_rsa_decrypt:
 4629              	.LFB1:
 4630              		.loc 1 71 0
 4631              		.cfi_startproc
 4632              		@ args = 8, pretend = 0, frame = 0
 4633              		@ frame_needed = 0, uses_anonymous_args = 0
 4634              		@ link register save eliminated.
 4635              	.LVL544:
 4636 0000 10B4     		push	{r4}
 4637              		.cfi_def_cfa_offset 4
 4638              		.cfi_offset 4, -4
 4639              		.loc 1 74 0
 4640 0002 5DF8044B 		ldr	r4, [sp], #4
 4641              		.cfi_restore 4
 4642              		.cfi_def_cfa_offset 0
 4643              	.LVL545:
 4644              		.loc 1 72 0
 4645 0006 FFF7FEBF 		b	rsa_pkcs1_decrypt
 4646              	.LVL546:
 4647              		.cfi_endproc
 4648              	.LFE1:
 4649              		.size	ssl_rsa_decrypt, .-ssl_rsa_decrypt
 4650 000a 00BFAFF3 		.section	.text.ssl_derive_keys,"ax",%progbits
 4650      0080
 4651              		.align	2
 4652              		.p2align 4,,15
 4653              		.global	ssl_derive_keys
 4654              		.thumb
 4655              		.thumb_func
 4656              		.type	ssl_derive_keys, %function
 4657              	ssl_derive_keys:
ARM GAS  C:\Users\jo\AppData\Local\Temp\cct348YO.s 			page 83


 4658              	.LFB8:
 4659              		.loc 1 296 0
 4660              		.cfi_startproc
 4661              		@ args = 0, pretend = 0, frame = 328
 4662              		@ frame_needed = 0, uses_anonymous_args = 0
 4663              	.LVL547:
 4664 0000 2DE9F04F 		push	{r4, r5, r6, r7, r8, r9, r10, fp, lr}
 4665              		.cfi_def_cfa_offset 36
 4666              		.cfi_offset 4, -36
 4667              		.cfi_offset 5, -32
 4668              		.cfi_offset 6, -28
 4669              		.cfi_offset 7, -24
 4670              		.cfi_offset 8, -20
 4671              		.cfi_offset 9, -16
 4672              		.cfi_offset 10, -12
 4673              		.cfi_offset 11, -8
 4674              		.cfi_offset 14, -4
 4675 0004 0446     		mov	r4, r0
 4676 0006 D7B0     		sub	sp, sp, #348
 4677              		.cfi_def_cfa_offset 384
 4678              		.loc 1 306 0
 4679 0008 6A48     		ldr	r0, .L401
 4680              	.LVL548:
 4681              		.loc 1 302 0
 4682 000a D4F87090 		ldr	r9, [r4, #112]
 4683              	.LVL549:
 4684              		.loc 1 303 0
 4685 000e D4F88450 		ldr	r5, [r4, #132]
 4686              	.LVL550:
 4687              		.loc 1 304 0
 4688 0012 666F     		ldr	r6, [r4, #116]
 4689              	.LVL551:
 4690              		.loc 1 306 0
 4691 0014 FFF7FEFF 		bl	debug_fmt
 4692              	.LVL552:
 4693 0018 4FF49973 		mov	r3, #306
 4694 001c 0090     		str	r0, [sp]
 4695 001e 0221     		movs	r1, #2
 4696 0020 654A     		ldr	r2, .L401+4
 4697 0022 2046     		mov	r0, r4
 4698 0024 FFF7FEFF 		bl	debug_print_msg
 4699              	.LVL553:
 4700              		.loc 1 311 0
 4701 0028 E368     		ldr	r3, [r4, #12]
 4702 002a 002B     		cmp	r3, #0
 4703 002c 40F0A281 		bne	.L351
 4704              		.loc 1 313 0
 4705 0030 6249     		ldr	r1, .L401+8
 4706              		.loc 1 314 0
 4707 0032 634A     		ldr	r2, .L401+12
 4708              		.loc 1 315 0
 4709 0034 634B     		ldr	r3, .L401+16
 4710              		.loc 1 313 0
 4711 0036 C6F8EC14 		str	r1, [r6, #1260]
 4712              		.loc 1 314 0
 4713 003a C6F8E424 		str	r2, [r6, #1252]
 4714              		.loc 1 315 0
ARM GAS  C:\Users\jo\AppData\Local\Temp\cct348YO.s 			page 84


 4715 003e C6F8E834 		str	r3, [r6, #1256]
 4716              	.L352:
 4717              		.loc 1 349 0
 4718 0042 D6F83437 		ldr	r3, [r6, #1844]
 4719 0046 0593     		str	r3, [sp, #20]
 4720 0048 002B     		cmp	r3, #0
 4721 004a 40F0A481 		bne	.L355
 4722              	.L399:
 4723              		.loc 1 351 0
 4724 004e 5E4B     		ldr	r3, .L401+20
 4725 0050 594A     		ldr	r2, .L401+4
 4726 0052 06F2345B 		addw	fp, r6, #1332
 4727 0056 8DE80808 		stmia	sp, {r3, fp}
 4728 005a D6F8F034 		ldr	r3, [r6, #1264]
 4729 005e 0293     		str	r3, [sp, #8]
 4730 0060 2046     		mov	r0, r4
 4731 0062 0321     		movs	r1, #3
 4732 0064 4FF4B073 		mov	r3, #352
 4733 0068 FFF7FEFF 		bl	debug_print_buf
 4734              	.LVL554:
 4735              		.loc 1 356 0
 4736 006c 09F1300A 		add	r10, r9, #48
 4737              		.loc 1 354 0
 4738 0070 4022     		movs	r2, #64
 4739 0072 3023     		movs	r3, #48
 4740 0074 D6F8F014 		ldr	r1, [r6, #1264]
 4741 0078 0092     		str	r2, [sp]
 4742 007a 0293     		str	r3, [sp, #8]
 4743 007c CDF804A0 		str	r10, [sp, #4]
 4744              		.loc 1 356 0
 4745 0080 06F2F448 		addw	r8, r6, #1268
 4746              		.loc 1 354 0
 4747 0084 514A     		ldr	r2, .L401+24
 4748 0086 D6F8EC74 		ldr	r7, [r6, #1260]
 4749 008a 5846     		mov	r0, fp
 4750 008c 4346     		mov	r3, r8
 4751 008e B847     		blx	r7
 4752              	.LVL555:
 4753              		.loc 1 358 0
 4754 0090 5846     		mov	r0, fp
 4755 0092 0599     		ldr	r1, [sp, #20]
 4756 0094 4FF40072 		mov	r2, #512
 4757 0098 FFF7FEFF 		bl	memset
 4758              	.LVL556:
 4759              	.L356:
 4760              		.loc 1 366 0
 4761 009c 0DF1180C 		add	ip, sp, #24
 4762 00a0 4746     		mov	r7, r8
 4763              	.L357:
 4764 00a2 3868     		ldr	r0, [r7]	@ unaligned
 4765 00a4 7968     		ldr	r1, [r7, #4]	@ unaligned
 4766 00a6 BA68     		ldr	r2, [r7, #8]	@ unaligned
 4767 00a8 FB68     		ldr	r3, [r7, #12]	@ unaligned
 4768 00aa E646     		mov	lr, ip
 4769 00ac AEE80F00 		stmia	lr!, {r0, r1, r2, r3}
 4770 00b0 1037     		adds	r7, r7, #16
 4771 00b2 5F45     		cmp	r7, fp
ARM GAS  C:\Users\jo\AppData\Local\Temp\cct348YO.s 			page 85


 4772 00b4 F446     		mov	ip, lr
 4773 00b6 F4D1     		bne	.L357
 4774              		.loc 1 367 0
 4775 00b8 0EAF     		add	r7, sp, #56
 4776 00ba 0FCF     		ldmia	r7!, {r0, r1, r2, r3}
 4777 00bc C8F80000 		str	r0, [r8]	@ unaligned
 4778 00c0 C8F80410 		str	r1, [r8, #4]	@ unaligned
 4779 00c4 C8F80820 		str	r2, [r8, #8]	@ unaligned
 4780 00c8 C8F80C30 		str	r3, [r8, #12]	@ unaligned
 4781 00cc 0FCF     		ldmia	r7!, {r0, r1, r2, r3}
 4782              		.loc 1 368 0
 4783 00ce 06AF     		add	r7, sp, #24
 4784              		.loc 1 367 0
 4785 00d0 C8F81000 		str	r0, [r8, #16]	@ unaligned
 4786 00d4 C8F81410 		str	r1, [r8, #20]	@ unaligned
 4787 00d8 C8F81820 		str	r2, [r8, #24]	@ unaligned
 4788 00dc C8F81C30 		str	r3, [r8, #28]	@ unaligned
 4789              		.loc 1 368 0
 4790 00e0 0FCF     		ldmia	r7!, {r0, r1, r2, r3}
 4791 00e2 C6F81405 		str	r0, [r6, #1300]	@ unaligned
 4792 00e6 C6F81815 		str	r1, [r6, #1304]	@ unaligned
 4793 00ea C6F81C25 		str	r2, [r6, #1308]	@ unaligned
 4794 00ee C6F82035 		str	r3, [r6, #1312]	@ unaligned
 4795 00f2 0FCF     		ldmia	r7!, {r0, r1, r2, r3}
 4796              		.loc 1 369 0
 4797 00f4 4FF0400B 		mov	fp, #64
 4798              		.loc 1 368 0
 4799 00f8 C6F82405 		str	r0, [r6, #1316]	@ unaligned
 4800 00fc C6F82815 		str	r1, [r6, #1320]	@ unaligned
 4801 0100 C6F82C25 		str	r2, [r6, #1324]	@ unaligned
 4802 0104 C6F83035 		str	r3, [r6, #1328]	@ unaligned
 4803              		.loc 1 369 0
 4804 0108 5A46     		mov	r2, fp
 4805 010a 0021     		movs	r1, #0
 4806 010c 06A8     		add	r0, sp, #24
 4807 010e FFF7FEFF 		bl	memset
 4808              	.LVL557:
 4809              		.loc 1 383 0
 4810 0112 16AF     		add	r7, sp, #88
 4811 0114 4FF48073 		mov	r3, #256
 4812 0118 0293     		str	r3, [sp, #8]
 4813 011a CDF800B0 		str	fp, [sp]
 4814 011e 0197     		str	r7, [sp, #4]
 4815 0120 2B4A     		ldr	r2, .L401+28
 4816 0122 D6F8EC64 		ldr	r6, [r6, #1260]
 4817              	.LVL558:
 4818 0126 3021     		movs	r1, #48
 4819 0128 4346     		mov	r3, r8
 4820 012a 5046     		mov	r0, r10
 4821 012c B047     		blx	r6
 4822              	.LVL559:
 4823 012e D9F80430 		ldr	r3, [r9, #4]
 4824              		.loc 1 386 0
 4825 0132 2848     		ldr	r0, .L401+32
 4826 0134 043B     		subs	r3, r3, #4
 4827 0136 C02B     		cmp	r3, #192
 4828 0138 96BF     		itet	ls
ARM GAS  C:\Users\jo\AppData\Local\Temp\cct348YO.s 			page 86


 4829 013a 274A     		ldrls	r2, .L401+36
 4830              	.LBB53:
 4831              	.LBB54:
 4832              		.loc 1 3306 0
 4833 013c 2749     		ldrhi	r1, .L401+40
 4834 013e 52F82310 		ldrls	r1, [r2, r3, lsl #2]
 4835              	.LBE54:
 4836              	.LBE53:
 4837              		.loc 1 386 0
 4838 0142 FFF7FEFF 		bl	debug_fmt
 4839              	.LVL560:
 4840 0146 0321     		movs	r1, #3
 4841 0148 0090     		str	r0, [sp]
 4842 014a 1B4A     		ldr	r2, .L401+4
 4843 014c 2046     		mov	r0, r4
 4844 014e 40F28313 		movw	r3, #387
 4845 0152 FFF7FEFF 		bl	debug_print_msg
 4846              	.LVL561:
 4847              		.loc 1 388 0
 4848 0156 1D4A     		ldr	r2, .L401+24
 4849 0158 0092     		str	r2, [sp]
 4850 015a 3023     		movs	r3, #48
 4851 015c 0293     		str	r3, [sp, #8]
 4852 015e 2046     		mov	r0, r4
 4853 0160 0321     		movs	r1, #3
 4854 0162 154A     		ldr	r2, .L401+4
 4855 0164 CDF804A0 		str	r10, [sp, #4]
 4856 0168 4FF4C273 		mov	r3, #388
 4857 016c FFF7FEFF 		bl	debug_print_buf
 4858              	.LVL562:
 4859              		.loc 1 389 0
 4860 0170 1B4B     		ldr	r3, .L401+44
 4861 0172 114A     		ldr	r2, .L401+4
 4862 0174 4026     		movs	r6, #64
 4863 0176 8DE80801 		stmia	sp, {r3, r8}
 4864 017a 2046     		mov	r0, r4
 4865 017c 0421     		movs	r1, #4
 4866 017e 40F28513 		movw	r3, #389
 4867 0182 0296     		str	r6, [sp, #8]
 4868 0184 FFF7FEFF 		bl	debug_print_buf
 4869              	.LVL563:
 4870              		.loc 1 390 0
 4871 0188 164A     		ldr	r2, .L401+48
 4872 018a 0092     		str	r2, [sp]
 4873 018c 4FF48073 		mov	r3, #256
 4874 0190 0293     		str	r3, [sp, #8]
 4875 0192 2046     		mov	r0, r4
 4876 0194 4FF4C373 		mov	r3, #390
 4877 0198 0421     		movs	r1, #4
 4878 019a 074A     		ldr	r2, .L401+4
 4879 019c 0197     		str	r7, [sp, #4]
 4880 019e FFF7FEFF 		bl	debug_print_buf
 4881              	.LVL564:
 4882              		.loc 1 392 0
 4883 01a2 4046     		mov	r0, r8
 4884 01a4 3246     		mov	r2, r6
 4885 01a6 0021     		movs	r1, #0
ARM GAS  C:\Users\jo\AppData\Local\Temp\cct348YO.s 			page 87


 4886 01a8 FFF7FEFF 		bl	memset
 4887              	.LVL565:
 4888              		.loc 1 397 0
 4889 01ac D9F80430 		ldr	r3, [r9, #4]
 4890 01b0 043B     		subs	r3, r3, #4
 4891 01b2 19E0     		b	.L402
 4892              	.L403:
 4893              		.align	2
 4894              	.L401:
 4895 01b4 4C040000 		.word	.LC42
 4896 01b8 40000000 		.word	.LC3
 4897 01bc 00000000 		.word	ssl3_prf
 4898 01c0 00000000 		.word	ssl_calc_verify_ssl
 4899 01c4 00000000 		.word	ssl_calc_finished_ssl
 4900 01c8 5C040000 		.word	.LC43
 4901 01cc 70040000 		.word	.LC44
 4902 01d0 A0040000 		.word	.LC46
 4903 01d4 B0040000 		.word	.LC47
 4904 01d8 00000000 		.word	.LANCHOR0
 4905 01dc 44040000 		.word	.LC41
 4906 01e0 C4040000 		.word	.LC48
 4907 01e4 D4040000 		.word	.LC49
 4908              	.L402:
 4909 01e8 C02B     		cmp	r3, #192
 4910 01ea 00F28682 		bhi	.L359
 4911 01ee DFE813F0 		tbh	[pc, r3, lsl #1]
 4912              	.L361:
 4913 01f2 8002     		.2byte	(.L360-.L361)/2
 4914 01f4 7702     		.2byte	(.L362-.L361)/2
 4915 01f6 8402     		.2byte	(.L359-.L361)/2
 4916 01f8 8402     		.2byte	(.L359-.L361)/2
 4917 01fa 8402     		.2byte	(.L359-.L361)/2
 4918 01fc 8402     		.2byte	(.L359-.L361)/2
 4919 01fe 7302     		.2byte	(.L363-.L361)/2
 4920 0200 8402     		.2byte	(.L359-.L361)/2
 4921 0202 8402     		.2byte	(.L359-.L361)/2
 4922 0204 8402     		.2byte	(.L359-.L361)/2
 4923 0206 8402     		.2byte	(.L359-.L361)/2
 4924 0208 8402     		.2byte	(.L359-.L361)/2
 4925 020a 8402     		.2byte	(.L359-.L361)/2
 4926 020c 8402     		.2byte	(.L359-.L361)/2
 4927 020e 8402     		.2byte	(.L359-.L361)/2
 4928 0210 8402     		.2byte	(.L359-.L361)/2
 4929 0212 8402     		.2byte	(.L359-.L361)/2
 4930 0214 8402     		.2byte	(.L359-.L361)/2
 4931 0216 7302     		.2byte	(.L363-.L361)/2
 4932 0218 8402     		.2byte	(.L359-.L361)/2
 4933 021a 8402     		.2byte	(.L359-.L361)/2
 4934 021c 8402     		.2byte	(.L359-.L361)/2
 4935 021e 8402     		.2byte	(.L359-.L361)/2
 4936 0220 8402     		.2byte	(.L359-.L361)/2
 4937 0222 8402     		.2byte	(.L359-.L361)/2
 4938 0224 8402     		.2byte	(.L359-.L361)/2
 4939 0226 8402     		.2byte	(.L359-.L361)/2
 4940 0228 8402     		.2byte	(.L359-.L361)/2
 4941 022a 8402     		.2byte	(.L359-.L361)/2
 4942 022c 8402     		.2byte	(.L359-.L361)/2
ARM GAS  C:\Users\jo\AppData\Local\Temp\cct348YO.s 			page 88


 4943 022e 8402     		.2byte	(.L359-.L361)/2
 4944 0230 8402     		.2byte	(.L359-.L361)/2
 4945 0232 8402     		.2byte	(.L359-.L361)/2
 4946 0234 8402     		.2byte	(.L359-.L361)/2
 4947 0236 8402     		.2byte	(.L359-.L361)/2
 4948 0238 8402     		.2byte	(.L359-.L361)/2
 4949 023a 8402     		.2byte	(.L359-.L361)/2
 4950 023c 8402     		.2byte	(.L359-.L361)/2
 4951 023e 8402     		.2byte	(.L359-.L361)/2
 4952 0240 8402     		.2byte	(.L359-.L361)/2
 4953 0242 8402     		.2byte	(.L359-.L361)/2
 4954 0244 8402     		.2byte	(.L359-.L361)/2
 4955 0246 8402     		.2byte	(.L359-.L361)/2
 4956 0248 4C02     		.2byte	(.L368-.L361)/2
 4957 024a 8402     		.2byte	(.L359-.L361)/2
 4958 024c 8402     		.2byte	(.L359-.L361)/2
 4959 024e 8402     		.2byte	(.L359-.L361)/2
 4960 0250 4C02     		.2byte	(.L368-.L361)/2
 4961 0252 8402     		.2byte	(.L359-.L361)/2
 4962 0254 1501     		.2byte	(.L369-.L361)/2
 4963 0256 8402     		.2byte	(.L359-.L361)/2
 4964 0258 8402     		.2byte	(.L359-.L361)/2
 4965 025a 8402     		.2byte	(.L359-.L361)/2
 4966 025c 1501     		.2byte	(.L369-.L361)/2
 4967 025e 8402     		.2byte	(.L359-.L361)/2
 4968 0260 8402     		.2byte	(.L359-.L361)/2
 4969 0262 5E02     		.2byte	(.L372-.L361)/2
 4970 0264 5502     		.2byte	(.L367-.L361)/2
 4971 0266 8402     		.2byte	(.L359-.L361)/2
 4972 0268 8402     		.2byte	(.L359-.L361)/2
 4973 026a 8402     		.2byte	(.L359-.L361)/2
 4974 026c 4C02     		.2byte	(.L368-.L361)/2
 4975 026e 8402     		.2byte	(.L359-.L361)/2
 4976 0270 8402     		.2byte	(.L359-.L361)/2
 4977 0272 8402     		.2byte	(.L359-.L361)/2
 4978 0274 4C02     		.2byte	(.L368-.L361)/2
 4979 0276 8402     		.2byte	(.L359-.L361)/2
 4980 0278 8402     		.2byte	(.L359-.L361)/2
 4981 027a 8402     		.2byte	(.L359-.L361)/2
 4982 027c 8402     		.2byte	(.L359-.L361)/2
 4983 027e 8402     		.2byte	(.L359-.L361)/2
 4984 0280 8402     		.2byte	(.L359-.L361)/2
 4985 0282 8402     		.2byte	(.L359-.L361)/2
 4986 0284 8402     		.2byte	(.L359-.L361)/2
 4987 0286 8402     		.2byte	(.L359-.L361)/2
 4988 0288 8402     		.2byte	(.L359-.L361)/2
 4989 028a 8402     		.2byte	(.L359-.L361)/2
 4990 028c 8402     		.2byte	(.L359-.L361)/2
 4991 028e 8402     		.2byte	(.L359-.L361)/2
 4992 0290 8402     		.2byte	(.L359-.L361)/2
 4993 0292 8402     		.2byte	(.L359-.L361)/2
 4994 0294 8402     		.2byte	(.L359-.L361)/2
 4995 0296 8402     		.2byte	(.L359-.L361)/2
 4996 0298 8402     		.2byte	(.L359-.L361)/2
 4997 029a 8402     		.2byte	(.L359-.L361)/2
 4998 029c 8402     		.2byte	(.L359-.L361)/2
 4999 029e 8402     		.2byte	(.L359-.L361)/2
ARM GAS  C:\Users\jo\AppData\Local\Temp\cct348YO.s 			page 89


 5000 02a0 8402     		.2byte	(.L359-.L361)/2
 5001 02a2 8402     		.2byte	(.L359-.L361)/2
 5002 02a4 8402     		.2byte	(.L359-.L361)/2
 5003 02a6 8402     		.2byte	(.L359-.L361)/2
 5004 02a8 8402     		.2byte	(.L359-.L361)/2
 5005 02aa 8402     		.2byte	(.L359-.L361)/2
 5006 02ac 8402     		.2byte	(.L359-.L361)/2
 5007 02ae 8402     		.2byte	(.L359-.L361)/2
 5008 02b0 8402     		.2byte	(.L359-.L361)/2
 5009 02b2 8402     		.2byte	(.L359-.L361)/2
 5010 02b4 8402     		.2byte	(.L359-.L361)/2
 5011 02b6 8402     		.2byte	(.L359-.L361)/2
 5012 02b8 5E02     		.2byte	(.L372-.L361)/2
 5013 02ba 8402     		.2byte	(.L359-.L361)/2
 5014 02bc 8402     		.2byte	(.L359-.L361)/2
 5015 02be 8402     		.2byte	(.L359-.L361)/2
 5016 02c0 5502     		.2byte	(.L367-.L361)/2
 5017 02c2 8402     		.2byte	(.L359-.L361)/2
 5018 02c4 8402     		.2byte	(.L359-.L361)/2
 5019 02c6 8402     		.2byte	(.L359-.L361)/2
 5020 02c8 8402     		.2byte	(.L359-.L361)/2
 5021 02ca 8402     		.2byte	(.L359-.L361)/2
 5022 02cc 8402     		.2byte	(.L359-.L361)/2
 5023 02ce 8402     		.2byte	(.L359-.L361)/2
 5024 02d0 8402     		.2byte	(.L359-.L361)/2
 5025 02d2 8402     		.2byte	(.L359-.L361)/2
 5026 02d4 8402     		.2byte	(.L359-.L361)/2
 5027 02d6 8402     		.2byte	(.L359-.L361)/2
 5028 02d8 8402     		.2byte	(.L359-.L361)/2
 5029 02da 8402     		.2byte	(.L359-.L361)/2
 5030 02dc 8402     		.2byte	(.L359-.L361)/2
 5031 02de 8402     		.2byte	(.L359-.L361)/2
 5032 02e0 8402     		.2byte	(.L359-.L361)/2
 5033 02e2 8402     		.2byte	(.L359-.L361)/2
 5034 02e4 8402     		.2byte	(.L359-.L361)/2
 5035 02e6 8402     		.2byte	(.L359-.L361)/2
 5036 02e8 8402     		.2byte	(.L359-.L361)/2
 5037 02ea 8402     		.2byte	(.L359-.L361)/2
 5038 02ec 8402     		.2byte	(.L359-.L361)/2
 5039 02ee 8402     		.2byte	(.L359-.L361)/2
 5040 02f0 8402     		.2byte	(.L359-.L361)/2
 5041 02f2 1501     		.2byte	(.L369-.L361)/2
 5042 02f4 8402     		.2byte	(.L359-.L361)/2
 5043 02f6 8402     		.2byte	(.L359-.L361)/2
 5044 02f8 8402     		.2byte	(.L359-.L361)/2
 5045 02fa 1501     		.2byte	(.L369-.L361)/2
 5046 02fc 8402     		.2byte	(.L359-.L361)/2
 5047 02fe 8402     		.2byte	(.L359-.L361)/2
 5048 0300 8402     		.2byte	(.L359-.L361)/2
 5049 0302 8402     		.2byte	(.L359-.L361)/2
 5050 0304 8402     		.2byte	(.L359-.L361)/2
 5051 0306 8402     		.2byte	(.L359-.L361)/2
 5052 0308 8402     		.2byte	(.L359-.L361)/2
 5053 030a 8402     		.2byte	(.L359-.L361)/2
 5054 030c 8402     		.2byte	(.L359-.L361)/2
 5055 030e 8402     		.2byte	(.L359-.L361)/2
 5056 0310 8402     		.2byte	(.L359-.L361)/2
ARM GAS  C:\Users\jo\AppData\Local\Temp\cct348YO.s 			page 90


 5057 0312 8402     		.2byte	(.L359-.L361)/2
 5058 0314 8402     		.2byte	(.L359-.L361)/2
 5059 0316 8402     		.2byte	(.L359-.L361)/2
 5060 0318 8402     		.2byte	(.L359-.L361)/2
 5061 031a 8402     		.2byte	(.L359-.L361)/2
 5062 031c 8402     		.2byte	(.L359-.L361)/2
 5063 031e 8402     		.2byte	(.L359-.L361)/2
 5064 0320 8402     		.2byte	(.L359-.L361)/2
 5065 0322 7102     		.2byte	(.L370-.L361)/2
 5066 0324 6702     		.2byte	(.L371-.L361)/2
 5067 0326 7102     		.2byte	(.L370-.L361)/2
 5068 0328 6702     		.2byte	(.L371-.L361)/2
 5069 032a 8402     		.2byte	(.L359-.L361)/2
 5070 032c 8402     		.2byte	(.L359-.L361)/2
 5071 032e 8402     		.2byte	(.L359-.L361)/2
 5072 0330 8402     		.2byte	(.L359-.L361)/2
 5073 0332 8402     		.2byte	(.L359-.L361)/2
 5074 0334 8402     		.2byte	(.L359-.L361)/2
 5075 0336 8402     		.2byte	(.L359-.L361)/2
 5076 0338 8402     		.2byte	(.L359-.L361)/2
 5077 033a 8402     		.2byte	(.L359-.L361)/2
 5078 033c 8402     		.2byte	(.L359-.L361)/2
 5079 033e 8402     		.2byte	(.L359-.L361)/2
 5080 0340 8402     		.2byte	(.L359-.L361)/2
 5081 0342 8402     		.2byte	(.L359-.L361)/2
 5082 0344 8402     		.2byte	(.L359-.L361)/2
 5083 0346 8402     		.2byte	(.L359-.L361)/2
 5084 0348 8402     		.2byte	(.L359-.L361)/2
 5085 034a 8402     		.2byte	(.L359-.L361)/2
 5086 034c 8402     		.2byte	(.L359-.L361)/2
 5087 034e 8402     		.2byte	(.L359-.L361)/2
 5088 0350 8402     		.2byte	(.L359-.L361)/2
 5089 0352 8402     		.2byte	(.L359-.L361)/2
 5090 0354 8402     		.2byte	(.L359-.L361)/2
 5091 0356 8402     		.2byte	(.L359-.L361)/2
 5092 0358 8402     		.2byte	(.L359-.L361)/2
 5093 035a 8402     		.2byte	(.L359-.L361)/2
 5094 035c 8402     		.2byte	(.L359-.L361)/2
 5095 035e 5E02     		.2byte	(.L372-.L361)/2
 5096 0360 8402     		.2byte	(.L359-.L361)/2
 5097 0362 8402     		.2byte	(.L359-.L361)/2
 5098 0364 8402     		.2byte	(.L359-.L361)/2
 5099 0366 5E02     		.2byte	(.L372-.L361)/2
 5100 0368 8402     		.2byte	(.L359-.L361)/2
 5101 036a 5502     		.2byte	(.L367-.L361)/2
 5102 036c 8402     		.2byte	(.L359-.L361)/2
 5103 036e 8402     		.2byte	(.L359-.L361)/2
 5104 0370 8402     		.2byte	(.L359-.L361)/2
 5105 0372 5502     		.2byte	(.L367-.L361)/2
 5106              	.LVL566:
 5107              		.p2align 1
 5108              	.L351:
 5109              		.loc 1 317 0
 5110 0374 022B     		cmp	r3, #2
 5111 0376 20DC     		bgt	.L353
 5112              		.loc 1 321 0
 5113 0378 1D4B     		ldr	r3, .L404
ARM GAS  C:\Users\jo\AppData\Local\Temp\cct348YO.s 			page 91


 5114 037a C6F8E834 		str	r3, [r6, #1256]
 5115              		.loc 1 349 0
 5116 037e D6F83437 		ldr	r3, [r6, #1844]
 5117              		.loc 1 319 0
 5118 0382 1C49     		ldr	r1, .L404+4
 5119              		.loc 1 320 0
 5120 0384 1C4A     		ldr	r2, .L404+8
 5121              		.loc 1 319 0
 5122 0386 C6F8EC14 		str	r1, [r6, #1260]
 5123              		.loc 1 320 0
 5124 038a C6F8E424 		str	r2, [r6, #1252]
 5125              		.loc 1 349 0
 5126 038e 0593     		str	r3, [sp, #20]
 5127 0390 002B     		cmp	r3, #0
 5128 0392 3FF45CAE 		beq	.L399
 5129              	.L355:
 5130              		.loc 1 361 0
 5131 0396 1948     		ldr	r0, .L404+12
 5132 0398 FFF7FEFF 		bl	debug_fmt
 5133              	.LVL567:
 5134 039c 0321     		movs	r1, #3
 5135 039e 0090     		str	r0, [sp]
 5136 03a0 174A     		ldr	r2, .L404+16
 5137 03a2 2046     		mov	r0, r4
 5138 03a4 40F26913 		movw	r3, #361
 5139 03a8 FFF7FEFF 		bl	debug_print_msg
 5140              	.LVL568:
 5141 03ac 06F2F448 		addw	r8, r6, #1268
 5142 03b0 09F1300A 		add	r10, r9, #48
 5143 03b4 06F2345B 		addw	fp, r6, #1332
 5144 03b8 70E6     		b	.L356
 5145              	.L353:
 5146              		.loc 1 324 0
 5147 03ba D9F80430 		ldr	r3, [r9, #4]
 5148 03be 23F00203 		bic	r3, r3, #2
 5149 03c2 9D2B     		cmp	r3, #157
 5150 03c4 09D0     		beq	.L400
 5151              		.loc 1 334 0
 5152 03c6 0F49     		ldr	r1, .L404+20
 5153              		.loc 1 335 0
 5154 03c8 0F4A     		ldr	r2, .L404+24
 5155              		.loc 1 336 0
 5156 03ca 104B     		ldr	r3, .L404+28
 5157              		.loc 1 334 0
 5158 03cc C6F8EC14 		str	r1, [r6, #1260]
 5159              		.loc 1 335 0
 5160 03d0 C6F8E424 		str	r2, [r6, #1252]
 5161              		.loc 1 336 0
 5162 03d4 C6F8E834 		str	r3, [r6, #1256]
 5163 03d8 33E6     		b	.L352
 5164              	.L400:
 5165              		.loc 1 327 0
 5166 03da 0D49     		ldr	r1, .L404+32
 5167              		.loc 1 328 0
 5168 03dc 0D4A     		ldr	r2, .L404+36
 5169              		.loc 1 329 0
 5170 03de 0E4B     		ldr	r3, .L404+40
ARM GAS  C:\Users\jo\AppData\Local\Temp\cct348YO.s 			page 92


 5171              		.loc 1 327 0
 5172 03e0 C6F8EC14 		str	r1, [r6, #1260]
 5173              		.loc 1 328 0
 5174 03e4 C6F8E424 		str	r2, [r6, #1252]
 5175              		.loc 1 329 0
 5176 03e8 C6F8E834 		str	r3, [r6, #1256]
 5177 03ec 29E6     		b	.L352
 5178              	.L405:
 5179 03ee 00BF     		.align	2
 5180              	.L404:
 5181 03f0 00000000 		.word	ssl_calc_finished_tls
 5182 03f4 00000000 		.word	tls1_prf
 5183 03f8 00000000 		.word	ssl_calc_verify_tls
 5184 03fc 80040000 		.word	.LC45
 5185 0400 40000000 		.word	.LC3
 5186 0404 00000000 		.word	tls_prf_sha256
 5187 0408 00000000 		.word	ssl_calc_verify_tls_sha256
 5188 040c 00000000 		.word	ssl_calc_finished_tls_sha256
 5189 0410 00000000 		.word	tls_prf_sha384
 5190 0414 00000000 		.word	ssl_calc_verify_tls_sha384
 5191 0418 00000000 		.word	ssl_calc_finished_tls_sha384
 5192              	.LVL569:
 5193              	.L369:
 5194              		.loc 1 471 0
 5195 041c 2021     		movs	r1, #32
 5196              		.loc 1 473 0
 5197 041e 0A46     		mov	r2, r1
 5198              		.loc 1 472 0
 5199 0420 1023     		movs	r3, #16
 5200              	.L397:
 5201 0422 1420     		movs	r0, #20
 5202              		.loc 1 471 0
 5203 0424 2960     		str	r1, [r5]
 5204 0426 6960     		str	r1, [r5, #4]
 5205              		.loc 1 472 0
 5206 0428 AB60     		str	r3, [r5, #8]
 5207 042a 2861     		str	r0, [r5, #16]
 5208              	.L374:
 5209              		.loc 1 523 0
 5210 042c 0090     		str	r0, [sp]
 5211 042e 6448     		ldr	r0, .L406
 5212 0430 FFF7FEFF 		bl	debug_fmt
 5213              	.LVL570:
 5214 0434 40F20D23 		movw	r3, #525
 5215 0438 0090     		str	r0, [sp]
 5216 043a 0321     		movs	r1, #3
 5217 043c 2046     		mov	r0, r4
 5218 043e 614A     		ldr	r2, .L406+4
 5219 0440 FFF7FEFF 		bl	debug_print_msg
 5220              	.LVL571:
 5221              		.loc 1 530 0
 5222 0444 D4F8E430 		ldr	r3, [r4, #228]
 5223              		.loc 1 532 0
 5224 0448 D5F810B0 		ldr	fp, [r5, #16]
 5225              		.loc 1 533 0
 5226 044c 2846     		mov	r0, r5
 5227              		.loc 1 530 0
ARM GAS  C:\Users\jo\AppData\Local\Temp\cct348YO.s 			page 93


 5228 044e 002B     		cmp	r3, #0
 5229 0450 40F06681 		bne	.L377
 5230              	.LVL572:
 5231              		.loc 1 535 0
 5232 0454 5A46     		mov	r2, fp
 5233              		.loc 1 533 0
 5234 0456 50F834AB 		ldr	r10, [r0], #52
 5235              	.LVL573:
 5236              		.loc 1 535 0
 5237 045a 3946     		mov	r1, r7
 5238 045c FFF7FEFF 		bl	memcpy
 5239              	.LVL574:
 5240              		.loc 1 536 0
 5241 0460 07EB0B01 		add	r1, r7, fp
 5242 0464 5A46     		mov	r2, fp
 5243 0466 05F15400 		add	r0, r5, #84
 5244              		.loc 1 532 0
 5245 046a 4FEA4B08 		lsl	r8, fp, #1
 5246              		.loc 1 536 0
 5247 046e FFF7FEFF 		bl	memcpy
 5248              	.LVL575:
 5249              		.loc 1 542 0
 5250 0472 D5F80CB0 		ldr	fp, [r5, #12]
 5251              		.loc 1 533 0
 5252 0476 08EB0A06 		add	r6, r8, r10
 5253 047a 3E44     		add	r6, r6, r7
 5254              		.loc 1 532 0
 5255 047c B844     		add	r8, r8, r7
 5256              	.LVL576:
 5257              		.loc 1 543 0
 5258 047e BBF1000F 		cmp	fp, #0
 5259 0482 01D1     		bne	.L378
 5260              		.loc 1 543 0 is_stmt 0 discriminator 2
 5261 0484 D5F808B0 		ldr	fp, [r5, #8]
 5262              	.L378:
 5263              	.LVL577:
 5264              		.loc 1 544 0 is_stmt 1
 5265 0488 06EB0A01 		add	r1, r6, r10
 5266 048c 5A46     		mov	r2, fp
 5267 048e 05F11400 		add	r0, r5, #20
 5268 0492 FFF7FEFF 		bl	memcpy
 5269              	.LVL578:
 5270              		.loc 1 545 0
 5271 0496 0BEB0A01 		add	r1, fp, r10
 5272 049a 3144     		add	r1, r1, r6
 5273 049c 5A46     		mov	r2, fp
 5274 049e 05F12400 		add	r0, r5, #36
 5275 04a2 FFF7FEFF 		bl	memcpy
 5276              	.LVL579:
 5277              	.L379:
 5278              		.loc 1 584 0
 5279 04a6 D9F80430 		ldr	r3, [r9, #4]
 5280 04aa 043B     		subs	r3, r3, #4
 5281 04ac C02B     		cmp	r3, #192
 5282 04ae 00F2EA80 		bhi	.L393
 5283 04b2 DFE803F0 		tbb	[pc, r3]
 5284              	.L382:
ARM GAS  C:\Users\jo\AppData\Local\Temp\cct348YO.s 			page 94


 5285 04b6 DB       		.byte	(.L381-.L382)/2
 5286 04b7 DB       		.byte	(.L381-.L382)/2
 5287 04b8 E8       		.byte	(.L393-.L382)/2
 5288 04b9 E8       		.byte	(.L393-.L382)/2
 5289 04ba E8       		.byte	(.L393-.L382)/2
 5290 04bb E8       		.byte	(.L393-.L382)/2
 5291 04bc D0       		.byte	(.L383-.L382)/2
 5292 04bd E8       		.byte	(.L393-.L382)/2
 5293 04be E8       		.byte	(.L393-.L382)/2
 5294 04bf E8       		.byte	(.L393-.L382)/2
 5295 04c0 E8       		.byte	(.L393-.L382)/2
 5296 04c1 E8       		.byte	(.L393-.L382)/2
 5297 04c2 E8       		.byte	(.L393-.L382)/2
 5298 04c3 E8       		.byte	(.L393-.L382)/2
 5299 04c4 E8       		.byte	(.L393-.L382)/2
 5300 04c5 E8       		.byte	(.L393-.L382)/2
 5301 04c6 E8       		.byte	(.L393-.L382)/2
 5302 04c7 E8       		.byte	(.L393-.L382)/2
 5303 04c8 D0       		.byte	(.L383-.L382)/2
 5304 04c9 E8       		.byte	(.L393-.L382)/2
 5305 04ca E8       		.byte	(.L393-.L382)/2
 5306 04cb E8       		.byte	(.L393-.L382)/2
 5307 04cc E8       		.byte	(.L393-.L382)/2
 5308 04cd E8       		.byte	(.L393-.L382)/2
 5309 04ce E8       		.byte	(.L393-.L382)/2
 5310 04cf E8       		.byte	(.L393-.L382)/2
 5311 04d0 E8       		.byte	(.L393-.L382)/2
 5312 04d1 E8       		.byte	(.L393-.L382)/2
 5313 04d2 E8       		.byte	(.L393-.L382)/2
 5314 04d3 E8       		.byte	(.L393-.L382)/2
 5315 04d4 E8       		.byte	(.L393-.L382)/2
 5316 04d5 E8       		.byte	(.L393-.L382)/2
 5317 04d6 E8       		.byte	(.L393-.L382)/2
 5318 04d7 E8       		.byte	(.L393-.L382)/2
 5319 04d8 E8       		.byte	(.L393-.L382)/2
 5320 04d9 E8       		.byte	(.L393-.L382)/2
 5321 04da E8       		.byte	(.L393-.L382)/2
 5322 04db E8       		.byte	(.L393-.L382)/2
 5323 04dc E8       		.byte	(.L393-.L382)/2
 5324 04dd E8       		.byte	(.L393-.L382)/2
 5325 04de E8       		.byte	(.L393-.L382)/2
 5326 04df E8       		.byte	(.L393-.L382)/2
 5327 04e0 E8       		.byte	(.L393-.L382)/2
 5328 04e1 C3       		.byte	(.L384-.L382)/2
 5329 04e2 E8       		.byte	(.L393-.L382)/2
 5330 04e3 E8       		.byte	(.L393-.L382)/2
 5331 04e4 E8       		.byte	(.L393-.L382)/2
 5332 04e5 C3       		.byte	(.L384-.L382)/2
 5333 04e6 E8       		.byte	(.L393-.L382)/2
 5334 04e7 B4       		.byte	(.L385-.L382)/2
 5335 04e8 E8       		.byte	(.L393-.L382)/2
 5336 04e9 E8       		.byte	(.L393-.L382)/2
 5337 04ea E8       		.byte	(.L393-.L382)/2
 5338 04eb B4       		.byte	(.L385-.L382)/2
 5339 04ec E8       		.byte	(.L393-.L382)/2
 5340 04ed E8       		.byte	(.L393-.L382)/2
 5341 04ee C3       		.byte	(.L384-.L382)/2
ARM GAS  C:\Users\jo\AppData\Local\Temp\cct348YO.s 			page 95


 5342 04ef B4       		.byte	(.L385-.L382)/2
 5343 04f0 E8       		.byte	(.L393-.L382)/2
 5344 04f1 E8       		.byte	(.L393-.L382)/2
 5345 04f2 E8       		.byte	(.L393-.L382)/2
 5346 04f3 A7       		.byte	(.L386-.L382)/2
 5347 04f4 E8       		.byte	(.L393-.L382)/2
 5348 04f5 E8       		.byte	(.L393-.L382)/2
 5349 04f6 E8       		.byte	(.L393-.L382)/2
 5350 04f7 A7       		.byte	(.L386-.L382)/2
 5351 04f8 E8       		.byte	(.L393-.L382)/2
 5352 04f9 E8       		.byte	(.L393-.L382)/2
 5353 04fa E8       		.byte	(.L393-.L382)/2
 5354 04fb E8       		.byte	(.L393-.L382)/2
 5355 04fc E8       		.byte	(.L393-.L382)/2
 5356 04fd E8       		.byte	(.L393-.L382)/2
 5357 04fe E8       		.byte	(.L393-.L382)/2
 5358 04ff E8       		.byte	(.L393-.L382)/2
 5359 0500 E8       		.byte	(.L393-.L382)/2
 5360 0501 E8       		.byte	(.L393-.L382)/2
 5361 0502 E8       		.byte	(.L393-.L382)/2
 5362 0503 E8       		.byte	(.L393-.L382)/2
 5363 0504 E8       		.byte	(.L393-.L382)/2
 5364 0505 E8       		.byte	(.L393-.L382)/2
 5365 0506 E8       		.byte	(.L393-.L382)/2
 5366 0507 E8       		.byte	(.L393-.L382)/2
 5367 0508 E8       		.byte	(.L393-.L382)/2
 5368 0509 E8       		.byte	(.L393-.L382)/2
 5369 050a E8       		.byte	(.L393-.L382)/2
 5370 050b E8       		.byte	(.L393-.L382)/2
 5371 050c E8       		.byte	(.L393-.L382)/2
 5372 050d E8       		.byte	(.L393-.L382)/2
 5373 050e E8       		.byte	(.L393-.L382)/2
 5374 050f E8       		.byte	(.L393-.L382)/2
 5375 0510 E8       		.byte	(.L393-.L382)/2
 5376 0511 E8       		.byte	(.L393-.L382)/2
 5377 0512 E8       		.byte	(.L393-.L382)/2
 5378 0513 E8       		.byte	(.L393-.L382)/2
 5379 0514 E8       		.byte	(.L393-.L382)/2
 5380 0515 E8       		.byte	(.L393-.L382)/2
 5381 0516 E8       		.byte	(.L393-.L382)/2
 5382 0517 E8       		.byte	(.L393-.L382)/2
 5383 0518 E8       		.byte	(.L393-.L382)/2
 5384 0519 C3       		.byte	(.L384-.L382)/2
 5385 051a E8       		.byte	(.L393-.L382)/2
 5386 051b E8       		.byte	(.L393-.L382)/2
 5387 051c E8       		.byte	(.L393-.L382)/2
 5388 051d B4       		.byte	(.L385-.L382)/2
 5389 051e E8       		.byte	(.L393-.L382)/2
 5390 051f E8       		.byte	(.L393-.L382)/2
 5391 0520 E8       		.byte	(.L393-.L382)/2
 5392 0521 E8       		.byte	(.L393-.L382)/2
 5393 0522 E8       		.byte	(.L393-.L382)/2
 5394 0523 E8       		.byte	(.L393-.L382)/2
 5395 0524 E8       		.byte	(.L393-.L382)/2
 5396 0525 E8       		.byte	(.L393-.L382)/2
 5397 0526 E8       		.byte	(.L393-.L382)/2
 5398 0527 E8       		.byte	(.L393-.L382)/2
ARM GAS  C:\Users\jo\AppData\Local\Temp\cct348YO.s 			page 96


 5399 0528 E8       		.byte	(.L393-.L382)/2
 5400 0529 E8       		.byte	(.L393-.L382)/2
 5401 052a E8       		.byte	(.L393-.L382)/2
 5402 052b E8       		.byte	(.L393-.L382)/2
 5403 052c E8       		.byte	(.L393-.L382)/2
 5404 052d E8       		.byte	(.L393-.L382)/2
 5405 052e E8       		.byte	(.L393-.L382)/2
 5406 052f E8       		.byte	(.L393-.L382)/2
 5407 0530 E8       		.byte	(.L393-.L382)/2
 5408 0531 E8       		.byte	(.L393-.L382)/2
 5409 0532 E8       		.byte	(.L393-.L382)/2
 5410 0533 E8       		.byte	(.L393-.L382)/2
 5411 0534 E8       		.byte	(.L393-.L382)/2
 5412 0535 E8       		.byte	(.L393-.L382)/2
 5413 0536 98       		.byte	(.L387-.L382)/2
 5414 0537 E8       		.byte	(.L393-.L382)/2
 5415 0538 E8       		.byte	(.L393-.L382)/2
 5416 0539 E8       		.byte	(.L393-.L382)/2
 5417 053a 98       		.byte	(.L387-.L382)/2
 5418 053b E8       		.byte	(.L393-.L382)/2
 5419 053c E8       		.byte	(.L393-.L382)/2
 5420 053d E8       		.byte	(.L393-.L382)/2
 5421 053e E8       		.byte	(.L393-.L382)/2
 5422 053f E8       		.byte	(.L393-.L382)/2
 5423 0540 E8       		.byte	(.L393-.L382)/2
 5424 0541 E8       		.byte	(.L393-.L382)/2
 5425 0542 E8       		.byte	(.L393-.L382)/2
 5426 0543 E8       		.byte	(.L393-.L382)/2
 5427 0544 E8       		.byte	(.L393-.L382)/2
 5428 0545 E8       		.byte	(.L393-.L382)/2
 5429 0546 E8       		.byte	(.L393-.L382)/2
 5430 0547 E8       		.byte	(.L393-.L382)/2
 5431 0548 E8       		.byte	(.L393-.L382)/2
 5432 0549 E8       		.byte	(.L393-.L382)/2
 5433 054a E8       		.byte	(.L393-.L382)/2
 5434 054b E8       		.byte	(.L393-.L382)/2
 5435 054c E8       		.byte	(.L393-.L382)/2
 5436 054d E8       		.byte	(.L393-.L382)/2
 5437 054e 8B       		.byte	(.L388-.L382)/2
 5438 054f 61       		.byte	(.L389-.L382)/2
 5439 0550 8B       		.byte	(.L388-.L382)/2
 5440 0551 61       		.byte	(.L389-.L382)/2
 5441 0552 E8       		.byte	(.L393-.L382)/2
 5442 0553 E8       		.byte	(.L393-.L382)/2
 5443 0554 E8       		.byte	(.L393-.L382)/2
 5444 0555 E8       		.byte	(.L393-.L382)/2
 5445 0556 E8       		.byte	(.L393-.L382)/2
 5446 0557 E8       		.byte	(.L393-.L382)/2
 5447 0558 E8       		.byte	(.L393-.L382)/2
 5448 0559 E8       		.byte	(.L393-.L382)/2
 5449 055a E8       		.byte	(.L393-.L382)/2
 5450 055b E8       		.byte	(.L393-.L382)/2
 5451 055c E8       		.byte	(.L393-.L382)/2
 5452 055d E8       		.byte	(.L393-.L382)/2
 5453 055e E8       		.byte	(.L393-.L382)/2
 5454 055f E8       		.byte	(.L393-.L382)/2
 5455 0560 E8       		.byte	(.L393-.L382)/2
ARM GAS  C:\Users\jo\AppData\Local\Temp\cct348YO.s 			page 97


 5456 0561 E8       		.byte	(.L393-.L382)/2
 5457 0562 E8       		.byte	(.L393-.L382)/2
 5458 0563 E8       		.byte	(.L393-.L382)/2
 5459 0564 E8       		.byte	(.L393-.L382)/2
 5460 0565 E8       		.byte	(.L393-.L382)/2
 5461 0566 E8       		.byte	(.L393-.L382)/2
 5462 0567 E8       		.byte	(.L393-.L382)/2
 5463 0568 E8       		.byte	(.L393-.L382)/2
 5464 0569 E8       		.byte	(.L393-.L382)/2
 5465 056a E8       		.byte	(.L393-.L382)/2
 5466 056b E8       		.byte	(.L393-.L382)/2
 5467 056c A7       		.byte	(.L386-.L382)/2
 5468 056d E8       		.byte	(.L393-.L382)/2
 5469 056e E8       		.byte	(.L393-.L382)/2
 5470 056f E8       		.byte	(.L393-.L382)/2
 5471 0570 A7       		.byte	(.L386-.L382)/2
 5472 0571 E8       		.byte	(.L393-.L382)/2
 5473 0572 98       		.byte	(.L387-.L382)/2
 5474 0573 E8       		.byte	(.L393-.L382)/2
 5475 0574 E8       		.byte	(.L393-.L382)/2
 5476 0575 E8       		.byte	(.L393-.L382)/2
 5477 0576 98       		.byte	(.L387-.L382)/2
 5478 0577 00       		.p2align 1
 5479              	.L389:
 5480              		.loc 1 630 0
 5481 0578 4146     		mov	r1, r8
 5482 057a 4FF48072 		mov	r2, #256
 5483 057e 05F17400 		add	r0, r5, #116
 5484 0582 FFF7FEFF 		bl	gcm_init
 5485              	.LVL580:
 5486              		.loc 1 631 0
 5487 0586 05F52570 		add	r0, r5, #660
 5488 058a 3146     		mov	r1, r6
 5489 058c 4FF48072 		mov	r2, #256
 5490 0590 FFF7FEFF 		bl	gcm_init
 5491              	.LVL581:
 5492              	.L390:
 5493              		.loc 1 675 0
 5494 0594 0021     		movs	r1, #0
 5495 0596 4FF48072 		mov	r2, #256
 5496 059a 3846     		mov	r0, r7
 5497 059c FFF7FEFF 		bl	memset
 5498              	.LVL582:
 5499              		.loc 1 696 0
 5500 05a0 0948     		ldr	r0, .L406+8
 5501 05a2 FFF7FEFF 		bl	debug_fmt
 5502              	.LVL583:
 5503 05a6 0221     		movs	r1, #2
 5504 05a8 0090     		str	r0, [sp]
 5505 05aa 064A     		ldr	r2, .L406+4
 5506 05ac 2046     		mov	r0, r4
 5507 05ae 4FF42E73 		mov	r3, #696
 5508 05b2 FFF7FEFF 		bl	debug_print_msg
 5509              	.LVL584:
 5510              		.loc 1 698 0
 5511 05b6 0020     		movs	r0, #0
 5512              	.LVL585:
ARM GAS  C:\Users\jo\AppData\Local\Temp\cct348YO.s 			page 98


 5513              	.L376:
 5514              		.loc 1 699 0
 5515 05b8 57B0     		add	sp, sp, #348
 5516              		.cfi_remember_state
 5517              		.cfi_def_cfa_offset 36
 5518              		@ sp needed
 5519 05ba BDE8F08F 		pop	{r4, r5, r6, r7, r8, r9, r10, fp, pc}
 5520              	.LVL586:
 5521              	.L407:
 5522 05be 00BF     		.align	2
 5523              	.L406:
 5524 05c0 00050000 		.word	.LC51
 5525 05c4 40000000 		.word	.LC3
 5526 05c8 30050000 		.word	.LC52
 5527              	.LVL587:
 5528              	.L388:
 5529              		.cfi_restore_state
 5530              		.loc 1 624 0
 5531 05cc 4146     		mov	r1, r8
 5532 05ce 05F17400 		add	r0, r5, #116
 5533 05d2 8022     		movs	r2, #128
 5534 05d4 FFF7FEFF 		bl	gcm_init
 5535              	.LVL588:
 5536              		.loc 1 625 0
 5537 05d8 05F52570 		add	r0, r5, #660
 5538 05dc 3146     		mov	r1, r6
 5539 05de 8022     		movs	r2, #128
 5540 05e0 FFF7FEFF 		bl	gcm_init
 5541              	.LVL589:
 5542              		.loc 1 626 0
 5543 05e4 D6E7     		b	.L390
 5544              	.L387:
 5545              		.loc 1 649 0
 5546 05e6 4146     		mov	r1, r8
 5547 05e8 05F17400 		add	r0, r5, #116
 5548 05ec 4FF48072 		mov	r2, #256
 5549 05f0 FFF7FEFF 		bl	camellia_setkey_enc
 5550              	.LVL590:
 5551              		.loc 1 650 0
 5552 05f4 05F52570 		add	r0, r5, #660
 5553 05f8 3146     		mov	r1, r6
 5554 05fa 4FF48072 		mov	r2, #256
 5555 05fe FFF7FEFF 		bl	camellia_setkey_dec
 5556              	.LVL591:
 5557              		.loc 1 651 0
 5558 0602 C7E7     		b	.L390
 5559              	.L386:
 5560              		.loc 1 641 0
 5561 0604 4146     		mov	r1, r8
 5562 0606 05F17400 		add	r0, r5, #116
 5563 060a 8022     		movs	r2, #128
 5564 060c FFF7FEFF 		bl	camellia_setkey_enc
 5565              	.LVL592:
 5566              		.loc 1 642 0
 5567 0610 05F52570 		add	r0, r5, #660
 5568 0614 3146     		mov	r1, r6
 5569 0616 8022     		movs	r2, #128
ARM GAS  C:\Users\jo\AppData\Local\Temp\cct348YO.s 			page 99


 5570 0618 FFF7FEFF 		bl	camellia_setkey_dec
 5571              	.LVL593:
 5572              		.loc 1 643 0
 5573 061c BAE7     		b	.L390
 5574              	.L385:
 5575              		.loc 1 617 0
 5576 061e 4146     		mov	r1, r8
 5577 0620 05F17400 		add	r0, r5, #116
 5578 0624 4FF48072 		mov	r2, #256
 5579 0628 FFF7FEFF 		bl	aes_setkey_enc
 5580              	.LVL594:
 5581              		.loc 1 618 0
 5582 062c 05F52570 		add	r0, r5, #660
 5583 0630 3146     		mov	r1, r6
 5584 0632 4FF48072 		mov	r2, #256
 5585 0636 FFF7FEFF 		bl	aes_setkey_dec
 5586              	.LVL595:
 5587              		.loc 1 619 0
 5588 063a ABE7     		b	.L390
 5589              	.L384:
 5590              		.loc 1 609 0
 5591 063c 4146     		mov	r1, r8
 5592 063e 05F17400 		add	r0, r5, #116
 5593 0642 8022     		movs	r2, #128
 5594 0644 FFF7FEFF 		bl	aes_setkey_enc
 5595              	.LVL596:
 5596              		.loc 1 610 0
 5597 0648 05F52570 		add	r0, r5, #660
 5598 064c 3146     		mov	r1, r6
 5599 064e 8022     		movs	r2, #128
 5600 0650 FFF7FEFF 		bl	aes_setkey_dec
 5601              	.LVL597:
 5602              		.loc 1 611 0
 5603 0654 9EE7     		b	.L390
 5604              	.L383:
 5605              		.loc 1 599 0
 5606 0656 4146     		mov	r1, r8
 5607 0658 05F17400 		add	r0, r5, #116
 5608 065c FFF7FEFF 		bl	des3_set3key_enc
 5609              	.LVL598:
 5610              		.loc 1 600 0
 5611 0660 05F52570 		add	r0, r5, #660
 5612 0664 3146     		mov	r1, r6
 5613 0666 FFF7FEFF 		bl	des3_set3key_dec
 5614              	.LVL599:
 5615              		.loc 1 601 0
 5616 066a 93E7     		b	.L390
 5617              	.L381:
 5618              		.loc 1 589 0
 5619 066c 4146     		mov	r1, r8
 5620 066e 05F17400 		add	r0, r5, #116
 5621 0672 2A68     		ldr	r2, [r5]
 5622 0674 FFF7FEFF 		bl	arc4_setup
 5623              	.LVL600:
 5624              		.loc 1 591 0
 5625 0678 3146     		mov	r1, r6
 5626 067a 05F52570 		add	r0, r5, #660
ARM GAS  C:\Users\jo\AppData\Local\Temp\cct348YO.s 			page 100


 5627 067e 2A68     		ldr	r2, [r5]
 5628 0680 FFF7FEFF 		bl	arc4_setup
 5629              	.LVL601:
 5630              		.loc 1 593 0
 5631 0684 86E7     		b	.L390
 5632              	.L393:
 5633              		.loc 1 672 0
 5634 0686 3B48     		ldr	r0, .L408
 5635 0688 96E7     		b	.L376
 5636              	.LVL602:
 5637              	.L368:
 5638              		.loc 1 465 0
 5639 068a 1021     		movs	r1, #16
 5640 068c 2022     		movs	r2, #32
 5641              		.loc 1 466 0
 5642 068e 1420     		movs	r0, #20
 5643              		.loc 1 467 0
 5644 0690 0B46     		mov	r3, r1
 5645              		.loc 1 465 0
 5646 0692 2960     		str	r1, [r5]
 5647              		.loc 1 466 0
 5648 0694 A960     		str	r1, [r5, #8]
 5649              		.loc 1 465 0
 5650 0696 6A60     		str	r2, [r5, #4]
 5651              		.loc 1 466 0
 5652 0698 2861     		str	r0, [r5, #16]
 5653              		.loc 1 467 0
 5654 069a C7E6     		b	.L374
 5655              	.L367:
 5656              		.loc 1 441 0
 5657 069c 2022     		movs	r2, #32
 5658              		.loc 1 443 0
 5659 069e 1046     		mov	r0, r2
 5660              		.loc 1 442 0
 5661 06a0 1023     		movs	r3, #16
 5662              	.L396:
 5663              		.loc 1 441 0
 5664 06a2 2A60     		str	r2, [r5]
 5665 06a4 6A60     		str	r2, [r5, #4]
 5666              		.loc 1 442 0
 5667 06a6 2A61     		str	r2, [r5, #16]
 5668              		.loc 1 443 0
 5669 06a8 0146     		mov	r1, r0
 5670              		.loc 1 442 0
 5671 06aa AB60     		str	r3, [r5, #8]
 5672              		.loc 1 443 0
 5673 06ac BEE6     		b	.L374
 5674              	.L372:
 5675              		.loc 1 478 0
 5676 06ae 1021     		movs	r1, #16
 5677 06b0 2022     		movs	r2, #32
 5678              		.loc 1 480 0
 5679 06b2 0B46     		mov	r3, r1
 5680 06b4 1046     		mov	r0, r2
 5681              		.loc 1 478 0
 5682 06b6 2960     		str	r1, [r5]
 5683              		.loc 1 479 0
ARM GAS  C:\Users\jo\AppData\Local\Temp\cct348YO.s 			page 101


 5684 06b8 A960     		str	r1, [r5, #8]
 5685              		.loc 1 478 0
 5686 06ba 6A60     		str	r2, [r5, #4]
 5687              		.loc 1 479 0
 5688 06bc 2A61     		str	r2, [r5, #16]
 5689              		.loc 1 480 0
 5690 06be B5E6     		b	.L374
 5691              	.L371:
 5692              		.loc 1 455 0
 5693 06c0 2021     		movs	r1, #32
 5694              	.L398:
 5695 06c2 0122     		movs	r2, #1
 5696              		.loc 1 456 0
 5697 06c4 0C23     		movs	r3, #12
 5698 06c6 0020     		movs	r0, #0
 5699              		.loc 1 457 0
 5700 06c8 0426     		movs	r6, #4
 5701              		.loc 1 456 0
 5702 06ca 85E80E00 		stmia	r5, {r1, r2, r3}
 5703 06ce 2861     		str	r0, [r5, #16]
 5704              		.loc 1 457 0
 5705 06d0 EE60     		str	r6, [r5, #12]
 5706              		.loc 1 458 0
 5707 06d2 ABE6     		b	.L374
 5708              	.L370:
 5709              		.loc 1 448 0
 5710 06d4 1021     		movs	r1, #16
 5711 06d6 F4E7     		b	.L398
 5712              	.L363:
 5713              		.loc 1 414 0
 5714 06d8 1821     		movs	r1, #24
 5715              		.loc 1 416 0
 5716 06da 0A46     		mov	r2, r1
 5717              		.loc 1 415 0
 5718 06dc 0823     		movs	r3, #8
 5719 06de A0E6     		b	.L397
 5720              	.L362:
 5721              		.loc 1 406 0
 5722 06e0 1422     		movs	r2, #20
 5723 06e2 1021     		movs	r1, #16
 5724              		.loc 1 407 0
 5725 06e4 0023     		movs	r3, #0
 5726              		.loc 1 408 0
 5727 06e6 1046     		mov	r0, r2
 5728              		.loc 1 406 0
 5729 06e8 6A60     		str	r2, [r5, #4]
 5730              		.loc 1 407 0
 5731 06ea 2A61     		str	r2, [r5, #16]
 5732              		.loc 1 406 0
 5733 06ec 2960     		str	r1, [r5]
 5734              		.loc 1 407 0
 5735 06ee AB60     		str	r3, [r5, #8]
 5736              		.loc 1 408 0
 5737 06f0 9CE6     		b	.L374
 5738              	.L360:
 5739              		.loc 1 401 0
 5740 06f2 1022     		movs	r2, #16
ARM GAS  C:\Users\jo\AppData\Local\Temp\cct348YO.s 			page 102


 5741              		.loc 1 403 0
 5742 06f4 1046     		mov	r0, r2
 5743              		.loc 1 402 0
 5744 06f6 0023     		movs	r3, #0
 5745 06f8 D3E7     		b	.L396
 5746              	.L359:
 5747              	.LVL603:
 5748 06fa C02B     		cmp	r3, #192
 5749 06fc 96BF     		itet	ls
 5750 06fe 1E4A     		ldrls	r2, .L408+4
 5751              	.LBB55:
 5752              	.LBB56:
 5753              		.loc 1 3306 0
 5754 0700 1E49     		ldrhi	r1, .L408+8
 5755 0702 52F82310 		ldrls	r1, [r2, r3, lsl #2]
 5756              	.LBE56:
 5757              	.LBE55:
 5758              		.loc 1 518 0
 5759 0706 1E48     		ldr	r0, .L408+12
 5760 0708 FFF7FEFF 		bl	debug_fmt
 5761              	.LVL604:
 5762 070c 0121     		movs	r1, #1
 5763 070e 0090     		str	r0, [sp]
 5764 0710 1C4A     		ldr	r2, .L408+16
 5765 0712 2046     		mov	r0, r4
 5766 0714 40F20723 		movw	r3, #519
 5767 0718 FFF7FEFF 		bl	debug_print_msg
 5768              	.LVL605:
 5769              		.loc 1 520 0
 5770 071c 1548     		ldr	r0, .L408
 5771 071e 4BE7     		b	.L376
 5772              	.LVL606:
 5773              	.L377:
 5774              		.loc 1 553 0
 5775 0720 5A46     		mov	r2, fp
 5776              		.loc 1 550 0
 5777 0722 50F854AB 		ldr	r10, [r0], #84
 5778              	.LVL607:
 5779              		.loc 1 553 0
 5780 0726 3946     		mov	r1, r7
 5781 0728 FFF7FEFF 		bl	memcpy
 5782              	.LVL608:
 5783              		.loc 1 554 0
 5784 072c 07EB0B01 		add	r1, r7, fp
 5785 0730 5A46     		mov	r2, fp
 5786 0732 05F13400 		add	r0, r5, #52
 5787              		.loc 1 550 0
 5788 0736 4FEA4B06 		lsl	r6, fp, #1
 5789              		.loc 1 554 0
 5790 073a FFF7FEFF 		bl	memcpy
 5791              	.LVL609:
 5792              		.loc 1 560 0
 5793 073e D5F80CB0 		ldr	fp, [r5, #12]
 5794              		.loc 1 550 0
 5795 0742 06EB0A08 		add	r8, r6, r10
 5796 0746 B844     		add	r8, r8, r7
 5797              	.LVL610:
ARM GAS  C:\Users\jo\AppData\Local\Temp\cct348YO.s 			page 103


 5798              		.loc 1 551 0
 5799 0748 3E44     		add	r6, r6, r7
 5800              	.LVL611:
 5801              		.loc 1 561 0
 5802 074a BBF1000F 		cmp	fp, #0
 5803 074e 01D1     		bne	.L380
 5804              		.loc 1 561 0 is_stmt 0 discriminator 2
 5805 0750 D5F808B0 		ldr	fp, [r5, #8]
 5806              	.L380:
 5807              	.LVL612:
 5808              		.loc 1 562 0 is_stmt 1
 5809 0754 08EB0A01 		add	r1, r8, r10
 5810 0758 5A46     		mov	r2, fp
 5811 075a 05F12400 		add	r0, r5, #36
 5812 075e FFF7FEFF 		bl	memcpy
 5813              	.LVL613:
 5814              		.loc 1 563 0
 5815 0762 0BEB0A01 		add	r1, fp, r10
 5816 0766 4144     		add	r1, r1, r8
 5817 0768 5A46     		mov	r2, fp
 5818 076a 05F11400 		add	r0, r5, #20
 5819 076e FFF7FEFF 		bl	memcpy
 5820              	.LVL614:
 5821 0772 98E6     		b	.L379
 5822              	.L409:
 5823              		.align	2
 5824              	.L408:
 5825 0774 808FFFFF 		.word	-28800
 5826 0778 00000000 		.word	.LANCHOR0
 5827 077c 44040000 		.word	.LC41
 5828 0780 E0040000 		.word	.LC50
 5829 0784 40000000 		.word	.LC3
 5830              		.cfi_endproc
 5831              	.LFE8:
 5832              		.size	ssl_derive_keys, .-ssl_derive_keys
 5833 0788 AFF30080 		.section	.text.ssl_fetch_input,"ax",%progbits
 5833      AFF30080 
 5834              		.align	2
 5835              		.p2align 4,,15
 5836              		.global	ssl_fetch_input
 5837              		.thumb
 5838              		.thumb_func
 5839              		.type	ssl_fetch_input, %function
 5840              	ssl_fetch_input:
 5841              	.LFB18:
 5842              		.loc 1 1706 0
 5843              		.cfi_startproc
 5844              		@ args = 0, pretend = 0, frame = 0
 5845              		@ frame_needed = 0, uses_anonymous_args = 0
 5846              	.LVL615:
 5847 0000 F0B5     		push	{r4, r5, r6, r7, lr}
 5848              		.cfi_def_cfa_offset 20
 5849              		.cfi_offset 4, -20
 5850              		.cfi_offset 5, -16
 5851              		.cfi_offset 6, -12
 5852              		.cfi_offset 7, -8
 5853              		.cfi_offset 14, -4
ARM GAS  C:\Users\jo\AppData\Local\Temp\cct348YO.s 			page 104


 5854 0002 0446     		mov	r4, r0
 5855 0004 83B0     		sub	sp, sp, #12
 5856              		.cfi_def_cfa_offset 32
 5857              		.loc 1 1710 0
 5858 0006 2748     		ldr	r0, .L420
 5859              	.LVL616:
 5860              		.loc 1 1706 0
 5861 0008 0E46     		mov	r6, r1
 5862              		.loc 1 1710 0
 5863 000a FFF7FEFF 		bl	debug_fmt
 5864              	.LVL617:
 5865 000e 264A     		ldr	r2, .L420+4
 5866 0010 0090     		str	r0, [sp]
 5867 0012 0221     		movs	r1, #2
 5868 0014 2046     		mov	r0, r4
 5869 0016 40F2AE63 		movw	r3, #1710
 5870 001a FFF7FEFF 		bl	debug_print_msg
 5871              	.LVL618:
 5872              		.loc 1 1712 0
 5873 001e D4F8A020 		ldr	r2, [r4, #160]
 5874 0022 9642     		cmp	r6, r2
 5875 0024 2DD9     		bls	.L414
 5876 0026 214F     		ldr	r7, .L420+8
 5877 0028 07E0     		b	.L413
 5878              	.LVL619:
 5879              	.L419:
 5880              		.loc 1 1724 0
 5881 002a 38DB     		blt	.L416
 5882              		.loc 1 1727 0
 5883 002c D4F8A020 		ldr	r2, [r4, #160]
 5884 0030 2A44     		add	r2, r2, r5
 5885              		.loc 1 1712 0
 5886 0032 9642     		cmp	r6, r2
 5887              		.loc 1 1727 0
 5888 0034 C4F8A020 		str	r2, [r4, #160]
 5889              		.loc 1 1712 0
 5890 0038 23D9     		bls	.L414
 5891              	.LVL620:
 5892              	.L413:
 5893              		.loc 1 1715 0
 5894 003a D4F88C10 		ldr	r1, [r4, #140]
 5895 003e A36A     		ldr	r3, [r4, #40]
 5896 0040 A06C     		ldr	r0, [r4, #72]
 5897 0042 1144     		add	r1, r1, r2
 5898 0044 B21A     		subs	r2, r6, r2
 5899              	.LVL621:
 5900 0046 9847     		blx	r3
 5901              	.LVL622:
 5902              		.loc 1 1717 0
 5903 0048 D4F8A010 		ldr	r1, [r4, #160]
 5904              		.loc 1 1715 0
 5905 004c 0546     		mov	r5, r0
 5906              	.LVL623:
 5907              		.loc 1 1717 0
 5908 004e 3246     		mov	r2, r6
 5909 0050 1748     		ldr	r0, .L420+12
 5910              	.LVL624:
ARM GAS  C:\Users\jo\AppData\Local\Temp\cct348YO.s 			page 105


 5911 0052 FFF7FEFF 		bl	debug_fmt
 5912              	.LVL625:
 5913 0056 0221     		movs	r1, #2
 5914 0058 0090     		str	r0, [sp]
 5915 005a 134A     		ldr	r2, .L420+4
 5916 005c 2046     		mov	r0, r4
 5917 005e 40F2B663 		movw	r3, #1718
 5918 0062 FFF7FEFF 		bl	debug_print_msg
 5919              	.LVL626:
 5920              		.loc 1 1719 0
 5921 0066 0195     		str	r5, [sp, #4]
 5922 0068 0097     		str	r7, [sp]
 5923 006a 2046     		mov	r0, r4
 5924 006c 0221     		movs	r1, #2
 5925 006e 0E4A     		ldr	r2, .L420+4
 5926 0070 40F2B763 		movw	r3, #1719
 5927 0074 FFF7FEFF 		bl	debug_print_ret
 5928              	.LVL627:
 5929              		.loc 1 1721 0
 5930 0078 002D     		cmp	r5, #0
 5931 007a D6D1     		bne	.L419
 5932              		.loc 1 1722 0
 5933 007c 0D48     		ldr	r0, .L420+16
 5934              		.loc 1 1733 0
 5935 007e 03B0     		add	sp, sp, #12
 5936              		.cfi_remember_state
 5937              		.cfi_def_cfa_offset 20
 5938              		@ sp needed
 5939 0080 F0BD     		pop	{r4, r5, r6, r7, pc}
 5940              	.LVL628:
 5941              	.L414:
 5942              		.cfi_restore_state
 5943              		.loc 1 1730 0
 5944 0082 0D48     		ldr	r0, .L420+20
 5945 0084 FFF7FEFF 		bl	debug_fmt
 5946              	.LVL629:
 5947 0088 0221     		movs	r1, #2
 5948 008a 0090     		str	r0, [sp]
 5949 008c 064A     		ldr	r2, .L420+4
 5950 008e 2046     		mov	r0, r4
 5951 0090 40F2C263 		movw	r3, #1730
 5952 0094 FFF7FEFF 		bl	debug_print_msg
 5953              	.LVL630:
 5954              		.loc 1 1732 0
 5955 0098 0020     		movs	r0, #0
 5956              		.loc 1 1733 0
 5957 009a 03B0     		add	sp, sp, #12
 5958              		.cfi_remember_state
 5959              		.cfi_def_cfa_offset 20
 5960              		@ sp needed
 5961 009c F0BD     		pop	{r4, r5, r6, r7, pc}
 5962              	.LVL631:
 5963              	.L416:
 5964              		.cfi_restore_state
 5965 009e 2846     		mov	r0, r5
 5966 00a0 03B0     		add	sp, sp, #12
 5967              		.cfi_def_cfa_offset 20
ARM GAS  C:\Users\jo\AppData\Local\Temp\cct348YO.s 			page 106


 5968              		@ sp needed
 5969 00a2 F0BD     		pop	{r4, r5, r6, r7, pc}
 5970              	.LVL632:
 5971              	.L421:
 5972              		.align	2
 5973              	.L420:
 5974 00a4 40050000 		.word	.LC53
 5975 00a8 40000000 		.word	.LC3
 5976 00ac 7C050000 		.word	.LC56
 5977 00b0 60050000 		.word	.LC55
 5978 00b4 808DFFFF 		.word	-29312
 5979 00b8 50050000 		.word	.LC54
 5980              		.cfi_endproc
 5981              	.LFE18:
 5982              		.size	ssl_fetch_input, .-ssl_fetch_input
 5983 00bc AFF30080 		.section	.text.ssl_flush_output,"ax",%progbits
 5984              		.align	2
 5985              		.p2align 4,,15
 5986              		.global	ssl_flush_output
 5987              		.thumb
 5988              		.thumb_func
 5989              		.type	ssl_flush_output, %function
 5990              	ssl_flush_output:
 5991              	.LFB19:
 5992              		.loc 1 1739 0
 5993              		.cfi_startproc
 5994              		@ args = 0, pretend = 0, frame = 0
 5995              		@ frame_needed = 0, uses_anonymous_args = 0
 5996              	.LVL633:
 5997 0000 F0B5     		push	{r4, r5, r6, r7, lr}
 5998              		.cfi_def_cfa_offset 20
 5999              		.cfi_offset 4, -20
 6000              		.cfi_offset 5, -16
 6001              		.cfi_offset 6, -12
 6002              		.cfi_offset 7, -8
 6003              		.cfi_offset 14, -4
 6004 0002 0446     		mov	r4, r0
 6005 0004 83B0     		sub	sp, sp, #12
 6006              		.cfi_def_cfa_offset 32
 6007              		.loc 1 1743 0
 6008 0006 3848     		ldr	r0, .L433
 6009              	.LVL634:
 6010 0008 FFF7FEFF 		bl	debug_fmt
 6011              	.LVL635:
 6012 000c 374A     		ldr	r2, .L433+4
 6013 000e 0090     		str	r0, [sp]
 6014 0010 0221     		movs	r1, #2
 6015 0012 2046     		mov	r0, r4
 6016 0014 40F2CF63 		movw	r3, #1743
 6017 0018 FFF7FEFF 		bl	debug_print_msg
 6018              	.LVL636:
 6019              		.loc 1 1745 0
 6020 001c D4F8C020 		ldr	r2, [r4, #192]
 6021 0020 002A     		cmp	r2, #0
 6022 0022 50D0     		beq	.L427
 6023              	.LBB57:
 6024              		.loc 1 1757 0
ARM GAS  C:\Users\jo\AppData\Local\Temp\cct348YO.s 			page 107


 6025 0024 324F     		ldr	r7, .L433+8
 6026 0026 06E0     		b	.L426
 6027              	.LVL637:
 6028              	.L432:
 6029              	.LBE57:
 6030              		.loc 1 1773 0
 6031 0028 D4F8C020 		ldr	r2, [r4, #192]
 6032 002c 521B     		subs	r2, r2, r5
 6033 002e C4F8C020 		str	r2, [r4, #192]
 6034              		.loc 1 1745 0
 6035 0032 002A     		cmp	r2, #0
 6036 0034 47D0     		beq	.L427
 6037              	.LVL638:
 6038              	.L426:
 6039              		.loc 1 1747 0
 6040 0036 D4F8BC10 		ldr	r1, [r4, #188]
 6041 003a 2E48     		ldr	r0, .L433+12
 6042 003c 0531     		adds	r1, r1, #5
 6043 003e FFF7FEFF 		bl	debug_fmt
 6044              	.LVL639:
 6045 0042 0221     		movs	r1, #2
 6046 0044 0090     		str	r0, [sp]
 6047 0046 294A     		ldr	r2, .L433+4
 6048 0048 40F2D463 		movw	r3, #1748
 6049 004c 2046     		mov	r0, r4
 6050 004e FFF7FEFF 		bl	debug_print_msg
 6051              	.LVL640:
 6052              		.loc 1 1750 0
 6053 0052 D4F8BC50 		ldr	r5, [r4, #188]
 6054 0056 D4F8C030 		ldr	r3, [r4, #192]
 6055              	.LBB58:
 6056              		.loc 1 1752 0
 6057 005a 5A1B     		subs	r2, r3, r5
 6058              	.LVL641:
 6059              	.LBE58:
 6060              		.loc 1 1750 0
 6061 005c 9D42     		cmp	r5, r3
 6062              	.LBB59:
 6063              		.loc 1 1754 0
 6064 005e C2F10501 		rsb	r1, r2, #5
 6065              	.LBE59:
 6066              		.loc 1 1750 0
 6067 0062 18D2     		bcs	.L425
 6068              	.LBB60:
 6069              		.loc 1 1754 0
 6070 0064 D4F8B050 		ldr	r5, [r4, #176]
 6071              		.loc 1 1755 0
 6072 0068 E36A     		ldr	r3, [r4, #44]
 6073 006a E06C     		ldr	r0, [r4, #76]
 6074 006c 2944     		add	r1, r1, r5
 6075 006e 9847     		blx	r3
 6076              	.LVL642:
 6077              		.loc 1 1757 0
 6078 0070 0097     		str	r7, [sp]
 6079              		.loc 1 1755 0
 6080 0072 0646     		mov	r6, r0
 6081              	.LVL643:
ARM GAS  C:\Users\jo\AppData\Local\Temp\cct348YO.s 			page 108


 6082              		.loc 1 1757 0
 6083 0074 0190     		str	r0, [sp, #4]
 6084 0076 0221     		movs	r1, #2
 6085 0078 2046     		mov	r0, r4
 6086              	.LVL644:
 6087 007a 1C4A     		ldr	r2, .L433+4
 6088 007c 40F2DD63 		movw	r3, #1757
 6089 0080 FFF7FEFF 		bl	debug_print_ret
 6090              	.LVL645:
 6091              		.loc 1 1759 0
 6092 0084 002E     		cmp	r6, #0
 6093 0086 2CDD     		ble	.L428
 6094              		.loc 1 1762 0
 6095 0088 D4F8C030 		ldr	r3, [r4, #192]
 6096 008c D4F8BC50 		ldr	r5, [r4, #188]
 6097 0090 9B1B     		subs	r3, r3, r6
 6098 0092 C4F8C030 		str	r3, [r4, #192]
 6099              	.LVL646:
 6100              	.L425:
 6101              	.LBE60:
 6102              		.loc 1 1765 0
 6103 0096 D4F8B410 		ldr	r1, [r4, #180]
 6104              		.loc 1 1766 0
 6105 009a E66A     		ldr	r6, [r4, #44]
 6106 009c E06C     		ldr	r0, [r4, #76]
 6107              		.loc 1 1765 0
 6108 009e ED1A     		subs	r5, r5, r3
 6109              	.LVL647:
 6110              		.loc 1 1766 0
 6111 00a0 1A46     		mov	r2, r3
 6112 00a2 2944     		add	r1, r1, r5
 6113 00a4 B047     		blx	r6
 6114              	.LVL648:
 6115              		.loc 1 1768 0
 6116 00a6 144B     		ldr	r3, .L433+16
 6117 00a8 104A     		ldr	r2, .L433+4
 6118              		.loc 1 1766 0
 6119 00aa 0546     		mov	r5, r0
 6120              	.LVL649:
 6121              		.loc 1 1768 0
 6122 00ac 8DE82800 		stmia	sp, {r3, r5}
 6123 00b0 2046     		mov	r0, r4
 6124              	.LVL650:
 6125 00b2 0221     		movs	r1, #2
 6126 00b4 4FF4DD63 		mov	r3, #1768
 6127 00b8 FFF7FEFF 		bl	debug_print_ret
 6128              	.LVL651:
 6129              		.loc 1 1770 0
 6130 00bc 002D     		cmp	r5, #0
 6131 00be B3DC     		bgt	.L432
 6132 00c0 2846     		mov	r0, r5
 6133              		.loc 1 1779 0
 6134 00c2 03B0     		add	sp, sp, #12
 6135              		.cfi_remember_state
 6136              		.cfi_def_cfa_offset 20
 6137              		@ sp needed
 6138 00c4 F0BD     		pop	{r4, r5, r6, r7, pc}
ARM GAS  C:\Users\jo\AppData\Local\Temp\cct348YO.s 			page 109


 6139              	.LVL652:
 6140              	.L427:
 6141              		.cfi_restore_state
 6142              		.loc 1 1776 0
 6143 00c6 0D48     		ldr	r0, .L433+20
 6144 00c8 FFF7FEFF 		bl	debug_fmt
 6145              	.LVL653:
 6146 00cc 0221     		movs	r1, #2
 6147 00ce 0090     		str	r0, [sp]
 6148 00d0 064A     		ldr	r2, .L433+4
 6149 00d2 2046     		mov	r0, r4
 6150 00d4 4FF4DE63 		mov	r3, #1776
 6151 00d8 FFF7FEFF 		bl	debug_print_msg
 6152              	.LVL654:
 6153              		.loc 1 1778 0
 6154 00dc 0020     		movs	r0, #0
 6155              		.loc 1 1779 0
 6156 00de 03B0     		add	sp, sp, #12
 6157              		.cfi_remember_state
 6158              		.cfi_def_cfa_offset 20
 6159              		@ sp needed
 6160 00e0 F0BD     		pop	{r4, r5, r6, r7, pc}
 6161              	.LVL655:
 6162              	.L428:
 6163              		.cfi_restore_state
 6164              	.LBB61:
 6165 00e2 3046     		mov	r0, r6
 6166              	.LBE61:
 6167 00e4 03B0     		add	sp, sp, #12
 6168              		.cfi_def_cfa_offset 20
 6169              		@ sp needed
 6170 00e6 F0BD     		pop	{r4, r5, r6, r7, pc}
 6171              	.LVL656:
 6172              	.L434:
 6173              		.align	2
 6174              	.L433:
 6175 00e8 88050000 		.word	.LC57
 6176 00ec 40000000 		.word	.LC3
 6177 00f0 CC050000 		.word	.LC60
 6178 00f4 A8050000 		.word	.LC59
 6179 00f8 E4050000 		.word	.LC61
 6180 00fc 98050000 		.word	.LC58
 6181              		.cfi_endproc
 6182              	.LFE19:
 6183              		.size	ssl_flush_output, .-ssl_flush_output
 6184              		.section	.text.ssl_write_record,"ax",%progbits
 6185              		.align	2
 6186              		.p2align 4,,15
 6187              		.global	ssl_write_record
 6188              		.thumb
 6189              		.thumb_func
 6190              		.type	ssl_write_record, %function
 6191              	ssl_write_record:
 6192              	.LFB20:
 6193              		.loc 1 1785 0
 6194              		.cfi_startproc
 6195              		@ args = 0, pretend = 0, frame = 0
ARM GAS  C:\Users\jo\AppData\Local\Temp\cct348YO.s 			page 110


 6196              		@ frame_needed = 0, uses_anonymous_args = 0
 6197              	.LVL657:
 6198 0000 70B5     		push	{r4, r5, r6, lr}
 6199              		.cfi_def_cfa_offset 16
 6200              		.cfi_offset 4, -16
 6201              		.cfi_offset 5, -12
 6202              		.cfi_offset 6, -8
 6203              		.cfi_offset 14, -4
 6204 0002 0446     		mov	r4, r0
 6205 0004 84B0     		sub	sp, sp, #16
 6206              		.cfi_def_cfa_offset 32
 6207              		.loc 1 1789 0
 6208 0006 5A48     		ldr	r0, .L448
 6209              	.LVL658:
 6210              		.loc 1 1787 0
 6211 0008 D4F8BC50 		ldr	r5, [r4, #188]
 6212              	.LVL659:
 6213              		.loc 1 1789 0
 6214 000c FFF7FEFF 		bl	debug_fmt
 6215              	.LVL660:
 6216 0010 40F2FD63 		movw	r3, #1789
 6217 0014 0090     		str	r0, [sp]
 6218 0016 0221     		movs	r1, #2
 6219 0018 564A     		ldr	r2, .L448+4
 6220 001a 2046     		mov	r0, r4
 6221 001c FFF7FEFF 		bl	debug_print_msg
 6222              	.LVL661:
 6223              		.loc 1 1791 0
 6224 0020 D4F8B830 		ldr	r3, [r4, #184]
 6225 0024 162B     		cmp	r3, #22
 6226 0026 00F08980 		beq	.L436
 6227 002a EEB2     		uxtb	r6, r5
 6228              	.L437:
 6229              		.loc 1 1830 0
 6230 002c D4F8B020 		ldr	r2, [r4, #176]
 6231 0030 1370     		strb	r3, [r2]
 6232              		.loc 1 1831 0
 6233 0032 D4F8B030 		ldr	r3, [r4, #176]
 6234 0036 A268     		ldr	r2, [r4, #8]
 6235 0038 5A70     		strb	r2, [r3, #1]
 6236              		.loc 1 1832 0
 6237 003a D4F8B030 		ldr	r3, [r4, #176]
 6238 003e E268     		ldr	r2, [r4, #12]
 6239 0040 9A70     		strb	r2, [r3, #2]
 6240              		.loc 1 1833 0
 6241 0042 D4F8B030 		ldr	r3, [r4, #176]
 6242 0046 2D0A     		lsrs	r5, r5, #8
 6243              	.LVL662:
 6244 0048 DD70     		strb	r5, [r3, #3]
 6245              		.loc 1 1834 0
 6246 004a D4F8B030 		ldr	r3, [r4, #176]
 6247 004e 1E71     		strb	r6, [r3, #4]
 6248              		.loc 1 1836 0
 6249 0050 E36F     		ldr	r3, [r4, #124]
 6250 0052 73B1     		cbz	r3, .L438
 6251              		.loc 1 1838 0
 6252 0054 2046     		mov	r0, r4
ARM GAS  C:\Users\jo\AppData\Local\Temp\cct348YO.s 			page 111


 6253 0056 FFF7FEFF 		bl	ssl_encrypt_buf
 6254              	.LVL663:
 6255 005a 0546     		mov	r5, r0
 6256 005c 0028     		cmp	r0, #0
 6257 005e 60D1     		bne	.L446
 6258              		.loc 1 1844 0
 6259 0060 D4F8BC30 		ldr	r3, [r4, #188]
 6260              	.LVL664:
 6261              		.loc 1 1845 0
 6262 0064 D4F8B020 		ldr	r2, [r4, #176]
 6263 0068 190A     		lsrs	r1, r3, #8
 6264 006a D170     		strb	r1, [r2, #3]
 6265              		.loc 1 1846 0
 6266 006c D4F8B020 		ldr	r2, [r4, #176]
 6267 0070 1371     		strb	r3, [r2, #4]
 6268              	.LVL665:
 6269              	.L438:
 6270              		.loc 1 1849 0
 6271 0072 D4F8BC20 		ldr	r2, [r4, #188]
 6272              		.loc 1 1851 0
 6273 0076 D4F8B030 		ldr	r3, [r4, #176]
 6274 007a 3F48     		ldr	r0, .L448+8
 6275              		.loc 1 1849 0
 6276 007c 0532     		adds	r2, r2, #5
 6277 007e C4F8C020 		str	r2, [r4, #192]
 6278              		.loc 1 1851 0
 6279 0082 DE78     		ldrb	r6, [r3, #3]	@ zero_extendqisi2
 6280 0084 1D79     		ldrb	r5, [r3, #4]	@ zero_extendqisi2
 6281 0086 1978     		ldrb	r1, [r3]	@ zero_extendqisi2
 6282 0088 5A78     		ldrb	r2, [r3, #1]	@ zero_extendqisi2
 6283 008a 9B78     		ldrb	r3, [r3, #2]	@ zero_extendqisi2
 6284 008c 45EA0625 		orr	r5, r5, r6, lsl #8
 6285 0090 0095     		str	r5, [sp]
 6286 0092 FFF7FEFF 		bl	debug_fmt
 6287              	.LVL666:
 6288 0096 0321     		movs	r1, #3
 6289 0098 0090     		str	r0, [sp]
 6290 009a 364A     		ldr	r2, .L448+4
 6291 009c 2046     		mov	r0, r4
 6292 009e 40F23E73 		movw	r3, #1854
 6293 00a2 FFF7FEFF 		bl	debug_print_msg
 6294              	.LVL667:
 6295              		.loc 1 1856 0
 6296 00a6 354B     		ldr	r3, .L448+12
 6297 00a8 D4F8B020 		ldr	r2, [r4, #176]
 6298 00ac 0093     		str	r3, [sp]
 6299 00ae 0523     		movs	r3, #5
 6300 00b0 0192     		str	r2, [sp, #4]
 6301 00b2 0293     		str	r3, [sp, #8]
 6302 00b4 2046     		mov	r0, r4
 6303 00b6 0421     		movs	r1, #4
 6304 00b8 2E4A     		ldr	r2, .L448+4
 6305 00ba 40F24173 		movw	r3, #1857
 6306 00be FFF7FEFF 		bl	debug_print_buf
 6307              	.LVL668:
 6308              		.loc 1 1858 0
 6309 00c2 D4F8B030 		ldr	r3, [r4, #176]
ARM GAS  C:\Users\jo\AppData\Local\Temp\cct348YO.s 			page 112


 6310 00c6 D4F8BC20 		ldr	r2, [r4, #188]
 6311 00ca 2D49     		ldr	r1, .L448+16
 6312 00cc 0091     		str	r1, [sp]
 6313 00ce 2033     		adds	r3, r3, #32
 6314 00d0 0193     		str	r3, [sp, #4]
 6315 00d2 0292     		str	r2, [sp, #8]
 6316 00d4 2046     		mov	r0, r4
 6317 00d6 0421     		movs	r1, #4
 6318 00d8 264A     		ldr	r2, .L448+4
 6319 00da 40F24373 		movw	r3, #1859
 6320 00de FFF7FEFF 		bl	debug_print_buf
 6321              	.LVL669:
 6322              		.loc 1 1862 0
 6323 00e2 2046     		mov	r0, r4
 6324 00e4 FFF7FEFF 		bl	ssl_flush_output
 6325              	.LVL670:
 6326 00e8 0546     		mov	r5, r0
 6327 00ea 68B9     		cbnz	r0, .L447
 6328              		.loc 1 1868 0
 6329 00ec 2548     		ldr	r0, .L448+20
 6330              	.LVL671:
 6331 00ee FFF7FEFF 		bl	debug_fmt
 6332              	.LVL672:
 6333 00f2 0221     		movs	r1, #2
 6334 00f4 0090     		str	r0, [sp]
 6335 00f6 1F4A     		ldr	r2, .L448+4
 6336 00f8 2046     		mov	r0, r4
 6337 00fa 40F24C73 		movw	r3, #1868
 6338 00fe FFF7FEFF 		bl	debug_print_msg
 6339              	.LVL673:
 6340              		.loc 1 1870 0
 6341 0102 2846     		mov	r0, r5
 6342              		.loc 1 1871 0
 6343 0104 04B0     		add	sp, sp, #16
 6344              		.cfi_remember_state
 6345              		.cfi_def_cfa_offset 16
 6346              		@ sp needed
 6347 0106 70BD     		pop	{r4, r5, r6, pc}
 6348              	.LVL674:
 6349              	.L447:
 6350              		.cfi_restore_state
 6351              		.loc 1 1864 0
 6352 0108 1F4B     		ldr	r3, .L448+24
 6353 010a 0190     		str	r0, [sp, #4]
 6354 010c 0093     		str	r3, [sp]
 6355 010e 2046     		mov	r0, r4
 6356              	.LVL675:
 6357 0110 0121     		movs	r1, #1
 6358 0112 184A     		ldr	r2, .L448+4
 6359 0114 4FF4E963 		mov	r3, #1864
 6360 0118 FFF7FEFF 		bl	debug_print_ret
 6361              	.LVL676:
 6362              		.loc 1 1865 0
 6363 011c 2846     		mov	r0, r5
 6364              		.loc 1 1871 0
 6365 011e 04B0     		add	sp, sp, #16
 6366              		.cfi_remember_state
ARM GAS  C:\Users\jo\AppData\Local\Temp\cct348YO.s 			page 113


 6367              		.cfi_def_cfa_offset 16
 6368              		@ sp needed
 6369 0120 70BD     		pop	{r4, r5, r6, pc}
 6370              	.LVL677:
 6371              	.L446:
 6372              		.cfi_restore_state
 6373              		.loc 1 1840 0
 6374 0122 1A4B     		ldr	r3, .L448+28
 6375 0124 0190     		str	r0, [sp, #4]
 6376 0126 0093     		str	r3, [sp]
 6377 0128 2046     		mov	r0, r4
 6378              	.LVL678:
 6379 012a 0121     		movs	r1, #1
 6380 012c 114A     		ldr	r2, .L448+4
 6381 012e 4FF4E663 		mov	r3, #1840
 6382 0132 FFF7FEFF 		bl	debug_print_ret
 6383              	.LVL679:
 6384              		.loc 1 1841 0
 6385 0136 2846     		mov	r0, r5
 6386              		.loc 1 1871 0
 6387 0138 04B0     		add	sp, sp, #16
 6388              		.cfi_remember_state
 6389              		.cfi_def_cfa_offset 16
 6390              		@ sp needed
 6391 013a 70BD     		pop	{r4, r5, r6, pc}
 6392              	.LVL680:
 6393              	.L436:
 6394              		.cfi_restore_state
 6395              		.loc 1 1793 0
 6396 013c D4F8B420 		ldr	r2, [r4, #180]
 6397 0140 2B1F     		subs	r3, r5, #4
 6398 0142 190C     		lsrs	r1, r3, #16
 6399 0144 5170     		strb	r1, [r2, #1]
 6400              		.loc 1 1794 0
 6401 0146 D4F8B420 		ldr	r2, [r4, #180]
 6402 014a 1B0A     		lsrs	r3, r3, #8
 6403 014c 9370     		strb	r3, [r2, #2]
 6404              		.loc 1 1795 0
 6405 014e D4F8B430 		ldr	r3, [r4, #180]
 6406 0152 EEB2     		uxtb	r6, r5
 6407 0154 321F     		subs	r2, r6, #4
 6408 0156 DA70     		strb	r2, [r3, #3]
 6409              		.loc 1 1797 0
 6410 0158 636F     		ldr	r3, [r4, #116]
 6411 015a D4F8B410 		ldr	r1, [r4, #180]
 6412 015e D3F8E034 		ldr	r3, [r3, #1248]
 6413 0162 2046     		mov	r0, r4
 6414 0164 2A46     		mov	r2, r5
 6415 0166 9847     		blx	r3
 6416              	.LVL681:
 6417 0168 D4F8B830 		ldr	r3, [r4, #184]
 6418 016c 5EE7     		b	.L437
 6419              	.L449:
 6420 016e 00BF     		.align	2
 6421              	.L448:
 6422 0170 F0050000 		.word	.LC62
 6423 0174 40000000 		.word	.LC3
ARM GAS  C:\Users\jo\AppData\Local\Temp\cct348YO.s 			page 114


 6424 0178 10060000 		.word	.LC64
 6425 017c 4C060000 		.word	.LC65
 6426 0180 74060000 		.word	.LC66
 6427 0184 A8060000 		.word	.LC68
 6428 0188 94060000 		.word	.LC67
 6429 018c 00060000 		.word	.LC63
 6430              		.cfi_endproc
 6431              	.LFE20:
 6432              		.size	ssl_write_record, .-ssl_write_record
 6433              		.section	.text.ssl_send_alert_message,"ax",%progbits
 6434              		.align	2
 6435              		.p2align 4,,15
 6436              		.global	ssl_send_alert_message
 6437              		.thumb
 6438              		.thumb_func
 6439              		.type	ssl_send_alert_message, %function
 6440              	ssl_send_alert_message:
 6441              	.LFB23:
 6442              		.loc 1 2146 0
 6443              		.cfi_startproc
 6444              		@ args = 0, pretend = 0, frame = 0
 6445              		@ frame_needed = 0, uses_anonymous_args = 0
 6446              	.LVL682:
 6447 0000 F0B5     		push	{r4, r5, r6, r7, lr}
 6448              		.cfi_def_cfa_offset 20
 6449              		.cfi_offset 4, -20
 6450              		.cfi_offset 5, -16
 6451              		.cfi_offset 6, -12
 6452              		.cfi_offset 7, -8
 6453              		.cfi_offset 14, -4
 6454 0002 0446     		mov	r4, r0
 6455 0004 83B0     		sub	sp, sp, #12
 6456              		.cfi_def_cfa_offset 32
 6457              		.loc 1 2149 0
 6458 0006 1C48     		ldr	r0, .L455
 6459              	.LVL683:
 6460              		.loc 1 2146 0
 6461 0008 1546     		mov	r5, r2
 6462 000a 0F46     		mov	r7, r1
 6463              		.loc 1 2149 0
 6464 000c FFF7FEFF 		bl	debug_fmt
 6465              	.LVL684:
 6466 0010 0221     		movs	r1, #2
 6467 0012 0090     		str	r0, [sp]
 6468 0014 194A     		ldr	r2, .L455+4
 6469 0016 2046     		mov	r0, r4
 6470 0018 40F66503 		movw	r3, #2149
 6471 001c FFF7FEFF 		bl	debug_print_msg
 6472              	.LVL685:
 6473              		.loc 1 2153 0
 6474 0020 D4F8B430 		ldr	r3, [r4, #180]
 6475              		.loc 1 2151 0
 6476 0024 1522     		movs	r2, #21
 6477              		.loc 1 2152 0
 6478 0026 0226     		movs	r6, #2
 6479              		.loc 1 2151 0
 6480 0028 C4F8B820 		str	r2, [r4, #184]
ARM GAS  C:\Users\jo\AppData\Local\Temp\cct348YO.s 			page 115


 6481              		.loc 1 2152 0
 6482 002c C4F8BC60 		str	r6, [r4, #188]
 6483              		.loc 1 2153 0
 6484 0030 1F70     		strb	r7, [r3]
 6485              		.loc 1 2154 0
 6486 0032 D4F8B430 		ldr	r3, [r4, #180]
 6487              		.loc 1 2156 0
 6488 0036 2046     		mov	r0, r4
 6489              		.loc 1 2154 0
 6490 0038 5D70     		strb	r5, [r3, #1]
 6491              		.loc 1 2156 0
 6492 003a FFF7FEFF 		bl	ssl_write_record
 6493              	.LVL686:
 6494 003e 0546     		mov	r5, r0
 6495 0040 68B9     		cbnz	r0, .L454
 6496              	.LVL687:
 6497              	.LBB64:
 6498              	.LBB65:
 6499              		.loc 1 2162 0
 6500 0042 0F48     		ldr	r0, .L455+8
 6501              	.LVL688:
 6502 0044 FFF7FEFF 		bl	debug_fmt
 6503              	.LVL689:
 6504 0048 3146     		mov	r1, r6
 6505 004a 0090     		str	r0, [sp]
 6506 004c 0B4A     		ldr	r2, .L455+4
 6507 004e 2046     		mov	r0, r4
 6508 0050 40F67203 		movw	r3, #2162
 6509 0054 FFF7FEFF 		bl	debug_print_msg
 6510              	.LVL690:
 6511              	.LBE65:
 6512              	.LBE64:
 6513              		.loc 1 2165 0
 6514 0058 2846     		mov	r0, r5
 6515 005a 03B0     		add	sp, sp, #12
 6516              		.cfi_remember_state
 6517              		.cfi_def_cfa_offset 20
 6518              		@ sp needed
 6519 005c F0BD     		pop	{r4, r5, r6, r7, pc}
 6520              	.LVL691:
 6521              	.L454:
 6522              		.cfi_restore_state
 6523              		.loc 1 2158 0
 6524 005e 094B     		ldr	r3, .L455+12
 6525 0060 0190     		str	r0, [sp, #4]
 6526 0062 0093     		str	r3, [sp]
 6527 0064 2046     		mov	r0, r4
 6528              	.LVL692:
 6529 0066 0121     		movs	r1, #1
 6530 0068 044A     		ldr	r2, .L455+4
 6531 006a 40F66E03 		movw	r3, #2158
 6532 006e FFF7FEFF 		bl	debug_print_ret
 6533              	.LVL693:
 6534              		.loc 1 2165 0
 6535 0072 2846     		mov	r0, r5
 6536 0074 03B0     		add	sp, sp, #12
 6537              		.cfi_def_cfa_offset 20
ARM GAS  C:\Users\jo\AppData\Local\Temp\cct348YO.s 			page 116


 6538              		@ sp needed
 6539 0076 F0BD     		pop	{r4, r5, r6, r7, pc}
 6540              	.LVL694:
 6541              	.L456:
 6542              		.align	2
 6543              	.L455:
 6544 0078 B8060000 		.word	.LC69
 6545 007c 40000000 		.word	.LC3
 6546 0080 E4060000 		.word	.LC71
 6547 0084 D0060000 		.word	.LC70
 6548              		.cfi_endproc
 6549              	.LFE23:
 6550              		.size	ssl_send_alert_message, .-ssl_send_alert_message
 6551 0088 AFF30080 		.section	.text.ssl_read_record,"ax",%progbits
 6551      AFF30080 
 6552              		.align	2
 6553              		.p2align 4,,15
 6554              		.global	ssl_read_record
 6555              		.thumb
 6556              		.thumb_func
 6557              		.type	ssl_read_record, %function
 6558              	ssl_read_record:
 6559              	.LFB21:
 6560              		.loc 1 1874 0
 6561              		.cfi_startproc
 6562              		@ args = 0, pretend = 0, frame = 0
 6563              		@ frame_needed = 0, uses_anonymous_args = 0
 6564              	.LVL695:
 6565 0000 70B5     		push	{r4, r5, r6, lr}
 6566              		.cfi_def_cfa_offset 16
 6567              		.cfi_offset 4, -16
 6568              		.cfi_offset 5, -12
 6569              		.cfi_offset 6, -8
 6570              		.cfi_offset 14, -4
 6571 0002 0446     		mov	r4, r0
 6572 0004 84B0     		sub	sp, sp, #16
 6573              		.cfi_def_cfa_offset 32
 6574              		.loc 1 1877 0
 6575 0006 B348     		ldr	r0, .L508
 6576              	.LVL696:
 6577 0008 FFF7FEFF 		bl	debug_fmt
 6578              	.LVL697:
 6579 000c 0221     		movs	r1, #2
 6580 000e 0090     		str	r0, [sp]
 6581 0010 B14A     		ldr	r2, .L508+4
 6582 0012 2046     		mov	r0, r4
 6583 0014 40F25573 		movw	r3, #1877
 6584 0018 FFF7FEFF 		bl	debug_print_msg
 6585              	.LVL698:
 6586              		.loc 1 1879 0
 6587 001c D4F8A410 		ldr	r1, [r4, #164]
 6588 0020 21B1     		cbz	r1, .L458
 6589              		.loc 1 1880 0 discriminator 1
 6590 0022 D4F89C20 		ldr	r2, [r4, #156]
 6591              		.loc 1 1879 0 discriminator 1
 6592 0026 9142     		cmp	r1, r2
 6593 0028 C0F08780 		bcc	.L491
ARM GAS  C:\Users\jo\AppData\Local\Temp\cct348YO.s 			page 117


 6594              	.L458:
 6595              		.loc 1 1914 0
 6596 002c 0023     		movs	r3, #0
 6597 002e C4F8A430 		str	r3, [r4, #164]
 6598              		.loc 1 1919 0
 6599 0032 2046     		mov	r0, r4
 6600 0034 0521     		movs	r1, #5
 6601 0036 FFF7FEFF 		bl	ssl_fetch_input
 6602              	.LVL699:
 6603 003a 0546     		mov	r5, r0
 6604 003c 0028     		cmp	r0, #0
 6605 003e 6FD1     		bne	.L492
 6606              		.loc 1 1925 0
 6607 0040 D4F88C30 		ldr	r3, [r4, #140]
 6608              		.loc 1 1928 0
 6609 0044 A548     		ldr	r0, .L508+8
 6610              	.LVL700:
 6611              		.loc 1 1925 0
 6612 0046 1A78     		ldrb	r2, [r3]	@ zero_extendqisi2
 6613 0048 C4F89820 		str	r2, [r4, #152]
 6614              		.loc 1 1926 0
 6615 004c D978     		ldrb	r1, [r3, #3]	@ zero_extendqisi2
 6616 004e 1A79     		ldrb	r2, [r3, #4]	@ zero_extendqisi2
 6617 0050 42EA0122 		orr	r2, r2, r1, lsl #8
 6618 0054 C4F89C20 		str	r2, [r4, #156]
 6619              		.loc 1 1928 0
 6620 0058 DE78     		ldrb	r6, [r3, #3]	@ zero_extendqisi2
 6621 005a 1D79     		ldrb	r5, [r3, #4]	@ zero_extendqisi2
 6622              	.LVL701:
 6623 005c 1978     		ldrb	r1, [r3]	@ zero_extendqisi2
 6624 005e 5A78     		ldrb	r2, [r3, #1]	@ zero_extendqisi2
 6625 0060 9B78     		ldrb	r3, [r3, #2]	@ zero_extendqisi2
 6626 0062 45EA0625 		orr	r5, r5, r6, lsl #8
 6627 0066 0095     		str	r5, [sp]
 6628 0068 FFF7FEFF 		bl	debug_fmt
 6629              	.LVL702:
 6630 006c 0321     		movs	r1, #3
 6631 006e 0090     		str	r0, [sp]
 6632 0070 994A     		ldr	r2, .L508+4
 6633 0072 40F28B73 		movw	r3, #1931
 6634 0076 2046     		mov	r0, r4
 6635 0078 FFF7FEFF 		bl	debug_print_msg
 6636              	.LVL703:
 6637              		.loc 1 1933 0
 6638 007c D4F88C30 		ldr	r3, [r4, #140]
 6639 0080 A268     		ldr	r2, [r4, #8]
 6640 0082 5978     		ldrb	r1, [r3, #1]	@ zero_extendqisi2
 6641 0084 9142     		cmp	r1, r2
 6642 0086 40F06881 		bne	.L493
