ARM GAS  C:\Users\jo\AppData\Local\Temp\ccRRz0eu.s 			page 1


   1              		.syntax unified
   2              		.cpu cortex-m4
   3              		.fpu softvfp
   4              		.eabi_attribute 20, 1
   5              		.eabi_attribute 21, 1
   6              		.eabi_attribute 23, 3
   7              		.eabi_attribute 24, 1
   8              		.eabi_attribute 25, 1
   9              		.eabi_attribute 26, 1
  10              		.eabi_attribute 30, 2
  11              		.eabi_attribute 34, 1
  12              		.eabi_attribute 18, 4
  13              		.thumb
  14              		.file	"ssl_cache.c"
  15              		.text
  16              	.Ltext0:
  17              		.cfi_sections	.debug_frame
  18              		.section	.text.ssl_cache_init,"ax",%progbits
  19              		.align	2
  20              		.p2align 4,,15
  21              		.global	ssl_cache_init
  22              		.thumb
  23              		.thumb_func
  24              		.type	ssl_cache_init, %function
  25              	ssl_cache_init:
  26              	.LFB1:
  27              		.file 1 "../../../os/ext/PolarSSL/library/ssl_cache.c"
  28              		.loc 1 39 0
  29              		.cfi_startproc
  30              		@ args = 0, pretend = 0, frame = 0
  31              		@ frame_needed = 0, uses_anonymous_args = 0
  32              		@ link register save eliminated.
  33              	.LVL0:
  34              		.loc 1 40 0
  35 0000 0346     		mov	r3, r0
  36 0002 0022     		movs	r2, #0
  37 0004 03F8012B 		strb	r2, [r3], #1
  38 0008 0133     		adds	r3, r3, #1
  39 000a 4270     		strb	r2, [r0, #1]
  40 000c 03F8012B 		strb	r2, [r3], #1
  41 0010 03F8012B 		strb	r2, [r3], #1
  42 0014 03F8012B 		strb	r2, [r3], #1
  43 0018 03F8012B 		strb	r2, [r3], #1
  44 001c 03F8012B 		strb	r2, [r3], #1
  45 0020 03F8012B 		strb	r2, [r3], #1
  46 0024 03F8012B 		strb	r2, [r3], #1
  47 0028 03F8012B 		strb	r2, [r3], #1
  48 002c 03F8012B 		strb	r2, [r3], #1
  49              		.loc 1 42 0
  50 0030 0249     		ldr	r1, .L2
  51              		.loc 1 40 0
  52 0032 1A70     		strb	r2, [r3]
  53              		.loc 1 43 0
  54 0034 3223     		movs	r3, #50
  55              		.loc 1 42 0
  56 0036 4160     		str	r1, [r0, #4]
  57              		.loc 1 43 0
ARM GAS  C:\Users\jo\AppData\Local\Temp\ccRRz0eu.s 			page 2


  58 0038 8360     		str	r3, [r0, #8]
  59 003a 7047     		bx	lr
  60              	.L3:
  61              		.align	2
  62              	.L2:
  63 003c 80510100 		.word	86400
  64              		.cfi_endproc
  65              	.LFE1:
  66              		.size	ssl_cache_init, .-ssl_cache_init
  67              		.section	.text.ssl_cache_get,"ax",%progbits
  68              		.align	2
  69              		.p2align 4,,15
  70              		.global	ssl_cache_get
  71              		.thumb
  72              		.thumb_func
  73              		.type	ssl_cache_get, %function
  74              	ssl_cache_get:
  75              	.LFB2:
  76              		.loc 1 47 0
  77              		.cfi_startproc
  78              		@ args = 0, pretend = 0, frame = 0
  79              		@ frame_needed = 0, uses_anonymous_args = 0
  80              	.LVL1:
  81 0000 2DE9F047 		push	{r4, r5, r6, r7, r8, r9, r10, lr}
  82              		.cfi_def_cfa_offset 32
  83              		.cfi_offset 4, -32
  84              		.cfi_offset 5, -28
  85              		.cfi_offset 6, -24
  86              		.cfi_offset 7, -20
  87              		.cfi_offset 8, -16
  88              		.cfi_offset 9, -12
  89              		.cfi_offset 10, -8
  90              		.cfi_offset 14, -4
  91              		.loc 1 47 0
  92 0004 0546     		mov	r5, r0
  93              		.loc 1 48 0
  94 0006 0020     		movs	r0, #0
  95              	.LVL2:
  96              		.loc 1 47 0
  97 0008 0F46     		mov	r7, r1
  98              		.loc 1 48 0
  99 000a FFF7FEFF 		bl	time
 100              	.LVL3:
 101              		.loc 1 52 0
 102 000e 2C68     		ldr	r4, [r5]
 103              	.LVL4:
 104              		.loc 1 55 0
 105 0010 002C     		cmp	r4, #0
 106 0012 50D0     		beq	.L26
 107 0014 8046     		mov	r8, r0
 108              	.LVL5:
 109 0016 6E68     		ldr	r6, [r5, #4]
 110              		.loc 1 69 0
 111 0018 07F11009 		add	r9, r7, #16
 112 001c 02E0     		b	.L13
 113              	.LVL6:
 114              	.L8:
ARM GAS  C:\Users\jo\AppData\Local\Temp\ccRRz0eu.s 			page 3


 115              		.loc 1 55 0
 116 001e 2C46     		mov	r4, r5
 117              	.LVL7:
 118 0020 002D     		cmp	r5, #0
 119 0022 48D0     		beq	.L26
 120              	.LVL8:
 121              	.L13:
 122              		.loc 1 58 0
 123 0024 656F     		ldr	r5, [r4, #116]
 124              	.LVL9:
 125              		.loc 1 60 0
 126 0026 26B1     		cbz	r6, .L7
 127              		.loc 1 61 0 discriminator 1
 128 0028 2368     		ldr	r3, [r4]
 129 002a C3EB0803 		rsb	r3, r3, r8
 130              		.loc 1 60 0 discriminator 1
 131 002e B342     		cmp	r3, r6
 132 0030 F5DC     		bgt	.L8
 133              	.L7:
 134              		.loc 1 64 0
 135 0032 7A68     		ldr	r2, [r7, #4]
 136 0034 A368     		ldr	r3, [r4, #8]
 137 0036 9A42     		cmp	r2, r3
 138 0038 F1D1     		bne	.L8
 139              		.loc 1 64 0 is_stmt 0 discriminator 1
 140 003a BA68     		ldr	r2, [r7, #8]
 141 003c E368     		ldr	r3, [r4, #12]
 142 003e 9A42     		cmp	r2, r3
 143 0040 EDD1     		bne	.L8
 144              		.loc 1 66 0 is_stmt 1
 145 0042 FA68     		ldr	r2, [r7, #12]
 146              		.loc 1 65 0
 147 0044 2369     		ldr	r3, [r4, #16]
 148 0046 9A42     		cmp	r2, r3
 149 0048 E9D1     		bne	.L8
 150              		.loc 1 69 0
 151 004a 4846     		mov	r0, r9
 152 004c 04F11401 		add	r1, r4, #20
 153 0050 FFF7FEFF 		bl	memcmp
 154              	.LVL10:
 155 0054 8246     		mov	r10, r0
 156 0056 0028     		cmp	r0, #0
 157 0058 E1D1     		bne	.L8
 158              		.loc 1 73 0
 159 005a 04F13403 		add	r3, r4, #52
 160 005e 07F13002 		add	r2, r7, #48
 161 0062 04F16401 		add	r1, r4, #100
 162              	.LVL11:
 163              	.L9:
 164 0066 1E68     		ldr	r6, [r3]	@ unaligned
 165 0068 5D68     		ldr	r5, [r3, #4]	@ unaligned
 166 006a 9868     		ldr	r0, [r3, #8]	@ unaligned
 167 006c D3F80CE0 		ldr	lr, [r3, #12]	@ unaligned
 168 0070 C2F80CE0 		str	lr, [r2, #12]	@ unaligned
 169 0074 1033     		adds	r3, r3, #16
 170 0076 8B42     		cmp	r3, r1
 171 0078 1660     		str	r6, [r2]	@ unaligned
ARM GAS  C:\Users\jo\AppData\Local\Temp\ccRRz0eu.s 			page 4


 172 007a 5560     		str	r5, [r2, #4]	@ unaligned
 173 007c 9060     		str	r0, [r2, #8]	@ unaligned
 174 007e 02F11002 		add	r2, r2, #16
 175 0082 F0D1     		bne	.L9
 176              		.loc 1 78 0
 177 0084 236F     		ldr	r3, [r4, #112]
 178 0086 C3B1     		cbz	r3, .L6
 179              		.loc 1 80 0
 180 0088 4FF4E670 		mov	r0, #460
 181 008c FFF7FEFF 		bl	malloc
 182              	.LVL12:
 183 0090 0546     		mov	r5, r0
 184 0092 3866     		str	r0, [r7, #96]
 185              		.loc 1 81 0
 186 0094 78B1     		cbz	r0, .L26
 187              		.loc 1 84 0
 188 0096 0021     		movs	r1, #0
 189 0098 4FF4E672 		mov	r2, #460
 190 009c FFF7FEFF 		bl	memset
 191              	.LVL13:
 192              		.loc 1 85 0
 193 00a0 2846     		mov	r0, r5
 194 00a2 216F     		ldr	r1, [r4, #112]
 195 00a4 E26E     		ldr	r2, [r4, #108]
 196 00a6 FFF7FEFF 		bl	x509parse_crt
 197              	.LVL14:
 198 00aa 30B1     		cbz	r0, .L6
 199              		.loc 1 88 0
 200 00ac 386E     		ldr	r0, [r7, #96]
 201 00ae FFF7FEFF 		bl	free
 202              	.LVL15:
 203              		.loc 1 89 0
 204 00b2 0023     		movs	r3, #0
 205 00b4 3B66     		str	r3, [r7, #96]
 206              	.LVL16:
 207              	.L26:
 208              		.loc 1 90 0
 209 00b6 4FF0010A 		mov	r10, #1
 210              	.L6:
 211              		.loc 1 98 0
 212 00ba 5046     		mov	r0, r10
 213 00bc BDE8F087 		pop	{r4, r5, r6, r7, r8, r9, r10, pc}
 214              		.cfi_endproc
 215              	.LFE2:
 216              		.size	ssl_cache_get, .-ssl_cache_get
 217              		.section	.text.ssl_cache_set,"ax",%progbits
 218              		.align	2
 219              		.p2align 4,,15
 220              		.global	ssl_cache_set
 221              		.thumb
 222              		.thumb_func
 223              		.type	ssl_cache_set, %function
 224              	ssl_cache_set:
 225              	.LFB3:
 226              		.loc 1 101 0
 227              		.cfi_startproc
 228              		@ args = 0, pretend = 0, frame = 8
ARM GAS  C:\Users\jo\AppData\Local\Temp\ccRRz0eu.s 			page 5


 229              		@ frame_needed = 0, uses_anonymous_args = 0
 230              	.LVL17:
 231 0000 2DE9F04F 		push	{r4, r5, r6, r7, r8, r9, r10, fp, lr}
 232              		.cfi_def_cfa_offset 36
 233              		.cfi_offset 4, -36
 234              		.cfi_offset 5, -32
 235              		.cfi_offset 6, -28
 236              		.cfi_offset 7, -24
 237              		.cfi_offset 8, -20
 238              		.cfi_offset 9, -16
 239              		.cfi_offset 10, -12
 240              		.cfi_offset 11, -8
 241              		.cfi_offset 14, -4
 242 0004 83B0     		sub	sp, sp, #12
 243              		.cfi_def_cfa_offset 48
 244              		.loc 1 101 0
 245 0006 0446     		mov	r4, r0
 246 0008 0190     		str	r0, [sp, #4]
 247              		.loc 1 102 0
 248 000a 0020     		movs	r0, #0
 249              	.LVL18:
 250              		.loc 1 101 0
 251 000c 0D46     		mov	r5, r1
 252 000e 0091     		str	r1, [sp]
 253              		.loc 1 102 0
 254 0010 FFF7FEFF 		bl	time
 255              	.LVL19:
 256              		.loc 1 107 0
 257 0014 2246     		mov	r2, r4
 258 0016 2468     		ldr	r4, [r4]
 259              	.LVL20:
 260              		.loc 1 102 0
 261 0018 8146     		mov	r9, r0
 262              	.LVL21:
 263              		.loc 1 110 0
 264 001a 002C     		cmp	r4, #0
 265 001c 00F08280 		beq	.L29
 266 0020 4FF0000B 		mov	fp, #0
 267 0024 5668     		ldr	r6, [r2, #4]
 268 0026 5F46     		mov	r7, fp
 269 0028 DA46     		mov	r10, fp
 270              		.loc 1 121 0
 271 002a 05F11008 		add	r8, r5, #16
 272              	.LVL22:
 273              	.L35:
 274 002e 04F11401 		add	r1, r4, #20
 275 0032 4046     		mov	r0, r8
 276              		.loc 1 112 0
 277 0034 0BF1010B 		add	fp, fp, #1
 278              	.LVL23:
 279              		.loc 1 114 0
 280 0038 26B1     		cbz	r6, .L30
 281              		.loc 1 115 0 discriminator 1
 282 003a 2268     		ldr	r2, [r4]
 283 003c C2EB0902 		rsb	r2, r2, r9
 284              		.loc 1 114 0 discriminator 1
 285 0040 9642     		cmp	r6, r2
ARM GAS  C:\Users\jo\AppData\Local\Temp\ccRRz0eu.s 			page 6


 286 0042 46DB     		blt	.L67
 287              	.L30:
 288              		.loc 1 121 0
 289 0044 2269     		ldr	r2, [r4, #16]
 290 0046 FFF7FEFF 		bl	memcmp
 291              	.LVL24:
 292 004a 70B1     		cbz	r0, .L45
 293              		.loc 1 124 0
 294 004c BAF1000F 		cmp	r10, #0
 295 0050 06D1     		bne	.L32
 296 0052 D4F800A0 		ldr	r10, [r4]
 297              	.LVL25:
 298              	.L33:
 299 0056 2746     		mov	r7, r4
 300              	.LVL26:
 301              	.L34:
 302              		.loc 1 131 0
 303 0058 656F     		ldr	r5, [r4, #116]
 304              	.LVL27:
 305              		.loc 1 110 0
 306 005a 0DB3     		cbz	r5, .L68
 307 005c 2C46     		mov	r4, r5
 308              	.LVL28:
 309 005e E6E7     		b	.L35
 310              	.LVL29:
 311              	.L32:
 312              		.loc 1 124 0 discriminator 1
 313 0060 2268     		ldr	r2, [r4]
 314 0062 5245     		cmp	r2, r10
 315 0064 F8DA     		bge	.L34
 316 0066 9246     		mov	r10, r2
 317              	.LVL30:
 318 0068 F5E7     		b	.L33
 319              	.LVL31:
 320              	.L45:
 321 006a 2746     		mov	r7, r4
 322              	.L31:
 323              	.LVL32:
 324 006c 261D     		adds	r6, r4, #4
 325              	.LVL33:
 326              	.L41:
 327              		.loc 1 166 0
 328 006e 009C     		ldr	r4, [sp]
 329 0070 3046     		mov	r0, r6
 330 0072 2146     		mov	r1, r4
 331 0074 6422     		movs	r2, #100
 332 0076 FFF7FEFF 		bl	memcpy
 333              	.LVL34:
 334              		.loc 1 171 0
 335 007a 246E     		ldr	r4, [r4, #96]
 336 007c 2CB3     		cbz	r4, .L47
 337              		.loc 1 173 0
 338 007e 6568     		ldr	r5, [r4, #4]
 339 0080 2846     		mov	r0, r5
 340 0082 FFF7FEFF 		bl	malloc
 341              	.LVL35:
 342 0086 3867     		str	r0, [r7, #112]
ARM GAS  C:\Users\jo\AppData\Local\Temp\ccRRz0eu.s 			page 7


 343              		.loc 1 174 0
 344 0088 D8B1     		cbz	r0, .L40
 345              		.loc 1 177 0
 346 008a 2A46     		mov	r2, r5
 347 008c A168     		ldr	r1, [r4, #8]
 348 008e FFF7FEFF 		bl	memcpy
 349              	.LVL36:
 350              		.loc 1 179 0
 351 0092 6368     		ldr	r3, [r4, #4]
 352 0094 FB66     		str	r3, [r7, #108]
 353              		.loc 1 181 0
 354 0096 0020     		movs	r0, #0
 355 0098 7866     		str	r0, [r7, #100]
 356              		.loc 1 185 0
 357 009a 03B0     		add	sp, sp, #12
 358              		.cfi_remember_state
 359              		.cfi_def_cfa_offset 36
 360              	.LVL37:
 361              		@ sp needed
 362 009c BDE8F08F 		pop	{r4, r5, r6, r7, r8, r9, r10, fp, pc}
 363              	.LVL38:
 364              	.L68:
 365              		.cfi_restore_state
 366              		.loc 1 139 0
 367 00a0 1FB1     		cbz	r7, .L37
 368              		.loc 1 139 0 is_stmt 0 discriminator 1
 369 00a2 019B     		ldr	r3, [sp, #4]
 370 00a4 9B68     		ldr	r3, [r3, #8]
 371 00a6 5B45     		cmp	r3, fp
 372 00a8 17DD     		ble	.L69
 373              	.L37:
 374              		.loc 1 151 0 is_stmt 1
 375 00aa 7820     		movs	r0, #120
 376 00ac FFF7FEFF 		bl	malloc
 377              	.LVL39:
 378              		.loc 1 152 0
 379 00b0 0746     		mov	r7, r0
 380 00b2 30B1     		cbz	r0, .L40
 381              		.loc 1 155 0
 382 00b4 0021     		movs	r1, #0
 383 00b6 7822     		movs	r2, #120
 384 00b8 FFF7FEFF 		bl	memset
 385              	.LVL40:
 386 00bc 3E1D     		adds	r6, r7, #4
 387              		.loc 1 160 0
 388 00be 6767     		str	r7, [r4, #116]
 389 00c0 2DE0     		b	.L38
 390              	.LVL41:
 391              	.L40:
 392              		.loc 1 153 0
 393 00c2 0120     		movs	r0, #1
 394              		.loc 1 185 0
 395 00c4 03B0     		add	sp, sp, #12
 396              		.cfi_remember_state
 397              		.cfi_def_cfa_offset 36
 398              	.LVL42:
 399              		@ sp needed
ARM GAS  C:\Users\jo\AppData\Local\Temp\ccRRz0eu.s 			page 8


 400 00c6 BDE8F08F 		pop	{r4, r5, r6, r7, r8, r9, r10, fp, pc}
 401              	.LVL43:
 402              	.L47:
 403              		.cfi_restore_state
 404              		.loc 1 184 0
 405 00ca 2046     		mov	r0, r4
 406              		.loc 1 185 0
 407 00cc 03B0     		add	sp, sp, #12
 408              		.cfi_remember_state
 409              		.cfi_def_cfa_offset 36
 410              	.LVL44:
 411              		@ sp needed
 412 00ce BDE8F08F 		pop	{r4, r5, r6, r7, r8, r9, r10, fp, pc}
 413              	.LVL45:
 414              	.L67:
 415              		.cfi_restore_state
 416              		.loc 1 117 0
 417 00d2 C4F80090 		str	r9, [r4]
 418              		.loc 1 118 0
 419 00d6 2746     		mov	r7, r4
 420 00d8 C8E7     		b	.L31
 421              	.LVL46:
 422              	.L69:
 423              		.loc 1 142 0
 424 00da 3E1D     		adds	r6, r7, #4
 425 00dc 3046     		mov	r0, r6
 426 00de 2946     		mov	r1, r5
 427 00e0 6422     		movs	r2, #100
 428 00e2 FFF7FEFF 		bl	memset
 429              	.LVL47:
 430              		.loc 1 143 0
 431 00e6 386F     		ldr	r0, [r7, #112]
 432 00e8 C8B1     		cbz	r0, .L38
 433              		.loc 1 145 0
 434 00ea FFF7FEFF 		bl	free
 435              	.LVL48:
 436              		.loc 1 146 0
 437 00ee 87F86850 		strb	r5, [r7, #104]
 438 00f2 87F86950 		strb	r5, [r7, #105]
 439 00f6 87F86A50 		strb	r5, [r7, #106]
 440 00fa 87F86B50 		strb	r5, [r7, #107]
 441 00fe 87F86C50 		strb	r5, [r7, #108]
 442 0102 87F86D50 		strb	r5, [r7, #109]
 443 0106 87F86E50 		strb	r5, [r7, #110]
 444 010a 87F86F50 		strb	r5, [r7, #111]
 445 010e 87F87050 		strb	r5, [r7, #112]
 446 0112 87F87150 		strb	r5, [r7, #113]
 447 0116 87F87250 		strb	r5, [r7, #114]
 448 011a 87F87350 		strb	r5, [r7, #115]
 449              	.LVL49:
 450              	.L38:
 451              		.loc 1 163 0
 452 011e C7F80090 		str	r9, [r7]
 453 0122 A4E7     		b	.L41
 454              	.LVL50:
 455              	.L29:
 456              		.loc 1 151 0
ARM GAS  C:\Users\jo\AppData\Local\Temp\ccRRz0eu.s 			page 9


 457 0124 7820     		movs	r0, #120
 458              	.LVL51:
 459 0126 FFF7FEFF 		bl	malloc
 460              	.LVL52:
 461              		.loc 1 152 0
 462 012a 0746     		mov	r7, r0
 463 012c 0028     		cmp	r0, #0
 464 012e C8D0     		beq	.L40
 465              		.loc 1 155 0
 466 0130 2146     		mov	r1, r4
 467 0132 7822     		movs	r2, #120
 468 0134 FFF7FEFF 		bl	memset
 469              	.LVL53:
 470              		.loc 1 158 0
 471 0138 019B     		ldr	r3, [sp, #4]
 472 013a 3E1D     		adds	r6, r7, #4
 473 013c 1F60     		str	r7, [r3]
 474 013e EEE7     		b	.L38
 475              		.cfi_endproc
 476              	.LFE3:
 477              		.size	ssl_cache_set, .-ssl_cache_set
 478              		.section	.text.ssl_cache_set_timeout,"ax",%progbits
 479              		.align	2
 480              		.p2align 4,,15
 481              		.global	ssl_cache_set_timeout
 482              		.thumb
 483              		.thumb_func
 484              		.type	ssl_cache_set_timeout, %function
 485              	ssl_cache_set_timeout:
 486              	.LFB4:
 487              		.loc 1 188 0
 488              		.cfi_startproc
 489              		@ args = 0, pretend = 0, frame = 0
 490              		@ frame_needed = 0, uses_anonymous_args = 0
 491              		@ link register save eliminated.
 492              	.LVL54:
 493 0000 21EAE171 		bic	r1, r1, r1, asr #31
 494              	.LVL55:
 495              		.loc 1 191 0
 496 0004 4160     		str	r1, [r0, #4]
 497 0006 7047     		bx	lr
 498              		.cfi_endproc
 499              	.LFE4:
 500              		.size	ssl_cache_set_timeout, .-ssl_cache_set_timeout
 501 0008 AFF30080 		.section	.text.ssl_cache_set_max_entries,"ax",%progbits
 501      AFF30080 
 502              		.align	2
 503              		.p2align 4,,15
 504              		.global	ssl_cache_set_max_entries
 505              		.thumb
 506              		.thumb_func
 507              		.type	ssl_cache_set_max_entries, %function
 508              	ssl_cache_set_max_entries:
 509              	.LFB5:
 510              		.loc 1 195 0
 511              		.cfi_startproc
 512              		@ args = 0, pretend = 0, frame = 0
ARM GAS  C:\Users\jo\AppData\Local\Temp\ccRRz0eu.s 			page 10


 513              		@ frame_needed = 0, uses_anonymous_args = 0
 514              		@ link register save eliminated.
 515              	.LVL56:
 516 0000 21EAE171 		bic	r1, r1, r1, asr #31
 517              	.LVL57:
 518              		.loc 1 198 0
 519 0004 8160     		str	r1, [r0, #8]
 520 0006 7047     		bx	lr
 521              		.cfi_endproc
 522              	.LFE5:
 523              		.size	ssl_cache_set_max_entries, .-ssl_cache_set_max_entries
 524 0008 AFF30080 		.section	.text.ssl_cache_free,"ax",%progbits
 524      AFF30080 
 525              		.align	2
 526              		.p2align 4,,15
 527              		.global	ssl_cache_free
 528              		.thumb
 529              		.thumb_func
 530              		.type	ssl_cache_free, %function
 531              	ssl_cache_free:
 532              	.LFB6:
 533              		.loc 1 202 0
 534              		.cfi_startproc
 535              		@ args = 0, pretend = 0, frame = 0
 536              		@ frame_needed = 0, uses_anonymous_args = 0
 537              	.LVL58:
 538 0000 38B5     		push	{r3, r4, r5, lr}
 539              		.cfi_def_cfa_offset 16
 540              		.cfi_offset 3, -16
 541              		.cfi_offset 4, -12
 542              		.cfi_offset 5, -8
 543              		.cfi_offset 14, -4
 544              		.loc 1 205 0
 545 0002 0468     		ldr	r4, [r0]
 546              	.LVL59:
 547              		.loc 1 207 0
 548 0004 74B1     		cbz	r4, .L72
 549              	.LVL60:
 550              	.L75:
 551              		.loc 1 212 0
 552 0006 201D     		adds	r0, r4, #4
 553              		.loc 1 210 0
 554 0008 656F     		ldr	r5, [r4, #116]
 555              	.LVL61:
 556              		.loc 1 212 0
 557 000a FFF7FEFF 		bl	ssl_session_free
 558              	.LVL62:
 559              		.loc 1 214 0
 560 000e 236F     		ldr	r3, [r4, #112]
 561              		.loc 1 215 0
 562 0010 1846     		mov	r0, r3
 563              		.loc 1 214 0
 564 0012 0BB1     		cbz	r3, .L74
 565              		.loc 1 215 0
 566 0014 FFF7FEFF 		bl	free
 567              	.LVL63:
 568              	.L74:
ARM GAS  C:\Users\jo\AppData\Local\Temp\ccRRz0eu.s 			page 11


 569              		.loc 1 217 0
 570 0018 2046     		mov	r0, r4
 571 001a FFF7FEFF 		bl	free
 572              	.LVL64:
 573              		.loc 1 207 0
 574 001e 2C46     		mov	r4, r5
 575              	.LVL65:
 576 0020 002D     		cmp	r5, #0
 577 0022 F0D1     		bne	.L75
 578              	.LVL66:
 579              	.L72:
 580 0024 38BD     		pop	{r3, r4, r5, pc}
 581              		.cfi_endproc
 582              	.LFE6:
 583              		.size	ssl_cache_free, .-ssl_cache_free
 584 0026 00BFAFF3 		.text
 584      0080AFF3 
 584      0080
 585              	.Letext0:
 586              		.file 2 "c:\\program files\\gnu tools arm embedded\\4.9 2014q4\\lib\\gcc\\arm-none-eabi\\4.9.3\\in
 587              		.file 3 "c:\\program files\\gnu tools arm embedded\\4.9 2014q4\\arm-none-eabi\\include\\machine\\_
 588              		.file 4 "c:\\program files\\gnu tools arm embedded\\4.9 2014q4\\arm-none-eabi\\include\\sys\\types
 589              		.file 5 "c:\\program files\\gnu tools arm embedded\\4.9 2014q4\\arm-none-eabi\\include\\stdint.h"
 590              		.file 6 "../../../demos/STM32/RT-STM32F407-DISCOVERY-uHttp/uhttp-1.1/PolarSSL/include/polarssl/big
 591              		.file 7 "../../../demos/STM32/RT-STM32F407-DISCOVERY-uHttp/uhttp-1.1/PolarSSL/include/polarssl/rsa
 592              		.file 8 "../../../demos/STM32/RT-STM32F407-DISCOVERY-uHttp/uhttp-1.1/PolarSSL/include/polarssl/asn
 593              		.file 9 "../../../demos/STM32/RT-STM32F407-DISCOVERY-uHttp/uhttp-1.1/PolarSSL/include/polarssl/x50
 594              		.file 10 "../../../demos/STM32/RT-STM32F407-DISCOVERY-uHttp/uhttp-1.1/PolarSSL/include/polarssl/ss
 595              		.file 11 "../../../demos/STM32/RT-STM32F407-DISCOVERY-uHttp/uhttp-1.1/PolarSSL/include/polarssl/ss
 596              		.file 12 "c:\\program files\\gnu tools arm embedded\\4.9 2014q4\\arm-none-eabi\\include\\time.h"
 597              		.file 13 "c:\\program files\\gnu tools arm embedded\\4.9 2014q4\\arm-none-eabi\\include\\string.h"
 598              		.file 14 "c:\\program files\\gnu tools arm embedded\\4.9 2014q4\\arm-none-eabi\\include\\stdlib.h"
 599              		.section	.debug_info,"",%progbits
 600              	.Ldebug_info0:
 601 0000 0D0A0000 		.4byte	0xa0d
 602 0004 0400     		.2byte	0x4
 603 0006 00000000 		.4byte	.Ldebug_abbrev0
 604 000a 04       		.byte	0x4
 605 000b 01       		.uleb128 0x1
 606 000c 2A000000 		.4byte	.LASF91
 607 0010 01       		.byte	0x1
 608 0011 57030000 		.4byte	.LASF92
 609 0015 2E020000 		.4byte	.LASF93
 610 0019 00000000 		.4byte	.Ldebug_ranges0+0
 611 001d 00000000 		.4byte	0
 612 0021 00000000 		.4byte	.Ldebug_line0
 613 0025 02       		.uleb128 0x2
 614 0026 04       		.byte	0x4
 615 0027 05       		.byte	0x5
 616 0028 696E7400 		.ascii	"int\000"
 617 002c 03       		.uleb128 0x3
 618 002d 0F020000 		.4byte	.LASF6
 619 0031 02       		.byte	0x2
 620 0032 D4       		.byte	0xd4
 621 0033 37000000 		.4byte	0x37
 622 0037 04       		.uleb128 0x4
 623 0038 04       		.byte	0x4
ARM GAS  C:\Users\jo\AppData\Local\Temp\ccRRz0eu.s 			page 12


 624 0039 07       		.byte	0x7
 625 003a 04010000 		.4byte	.LASF0
 626 003e 04       		.uleb128 0x4
 627 003f 01       		.byte	0x1
 628 0040 06       		.byte	0x6
 629 0041 F9040000 		.4byte	.LASF1
 630 0045 04       		.uleb128 0x4
 631 0046 01       		.byte	0x1
 632 0047 08       		.byte	0x8
 633 0048 A5040000 		.4byte	.LASF2
 634 004c 04       		.uleb128 0x4
 635 004d 02       		.byte	0x2
 636 004e 05       		.byte	0x5
 637 004f 96030000 		.4byte	.LASF3
 638 0053 04       		.uleb128 0x4
 639 0054 02       		.byte	0x2
 640 0055 07       		.byte	0x7
 641 0056 05050000 		.4byte	.LASF4
 642 005a 04       		.uleb128 0x4
 643 005b 04       		.byte	0x4
 644 005c 05       		.byte	0x5
 645 005d BB030000 		.4byte	.LASF5
 646 0061 03       		.uleb128 0x3
 647 0062 B3040000 		.4byte	.LASF7
 648 0066 03       		.byte	0x3
 649 0067 41       		.byte	0x41
 650 0068 6C000000 		.4byte	0x6c
 651 006c 04       		.uleb128 0x4
 652 006d 04       		.byte	0x4
 653 006e 07       		.byte	0x7
 654 006f 68040000 		.4byte	.LASF8
 655 0073 04       		.uleb128 0x4
 656 0074 08       		.byte	0x8
 657 0075 05       		.byte	0x5
 658 0076 E6020000 		.4byte	.LASF9
 659 007a 04       		.uleb128 0x4
 660 007b 08       		.byte	0x8
 661 007c 07       		.byte	0x7
 662 007d 9C010000 		.4byte	.LASF10
 663 0081 04       		.uleb128 0x4
 664 0082 04       		.byte	0x4
 665 0083 07       		.byte	0x7
 666 0084 5F040000 		.4byte	.LASF11
 667 0088 05       		.uleb128 0x5
 668 0089 04       		.byte	0x4
 669 008a 06       		.uleb128 0x6
 670 008b 04       		.byte	0x4
 671 008c 45000000 		.4byte	0x45
 672 0090 04       		.uleb128 0x4
 673 0091 01       		.byte	0x1
 674 0092 08       		.byte	0x8
 675 0093 7C020000 		.4byte	.LASF12
 676 0097 03       		.uleb128 0x3
 677 0098 BD020000 		.4byte	.LASF13
 678 009c 04       		.byte	0x4
 679 009d 7A       		.byte	0x7a
 680 009e 5A000000 		.4byte	0x5a
ARM GAS  C:\Users\jo\AppData\Local\Temp\ccRRz0eu.s 			page 13


 681 00a2 03       		.uleb128 0x3
 682 00a3 54010000 		.4byte	.LASF14
 683 00a7 05       		.byte	0x5
 684 00a8 2D       		.byte	0x2d
 685 00a9 61000000 		.4byte	0x61
 686 00ad 03       		.uleb128 0x3
 687 00ae 3E010000 		.4byte	.LASF15
 688 00b2 06       		.byte	0x6
 689 00b3 92       		.byte	0x92
 690 00b4 A2000000 		.4byte	0xa2
 691 00b8 07       		.uleb128 0x7
 692 00b9 0C       		.byte	0xc
 693 00ba 06       		.byte	0x6
 694 00bb A4       		.byte	0xa4
 695 00bc DF000000 		.4byte	0xdf
 696 00c0 08       		.uleb128 0x8
 697 00c1 7300     		.ascii	"s\000"
 698 00c3 06       		.byte	0x6
 699 00c4 A6       		.byte	0xa6
 700 00c5 25000000 		.4byte	0x25
 701 00c9 00       		.byte	0
 702 00ca 08       		.uleb128 0x8
 703 00cb 6E00     		.ascii	"n\000"
 704 00cd 06       		.byte	0x6
 705 00ce A7       		.byte	0xa7
 706 00cf 2C000000 		.4byte	0x2c
 707 00d3 04       		.byte	0x4
 708 00d4 08       		.uleb128 0x8
 709 00d5 7000     		.ascii	"p\000"
 710 00d7 06       		.byte	0x6
 711 00d8 A8       		.byte	0xa8
 712 00d9 DF000000 		.4byte	0xdf
 713 00dd 08       		.byte	0x8
 714 00de 00       		.byte	0
 715 00df 06       		.uleb128 0x6
 716 00e0 04       		.byte	0x4
 717 00e1 AD000000 		.4byte	0xad
 718 00e5 09       		.uleb128 0x9
 719 00e6 6D706900 		.ascii	"mpi\000"
 720 00ea 06       		.byte	0x6
 721 00eb AA       		.byte	0xaa
 722 00ec B8000000 		.4byte	0xb8
 723 00f0 07       		.uleb128 0x7
 724 00f1 94       		.byte	0x94
 725 00f2 07       		.byte	0x7
 726 00f3 87       		.byte	0x87
 727 00f4 9D010000 		.4byte	0x19d
 728 00f8 08       		.uleb128 0x8
 729 00f9 76657200 		.ascii	"ver\000"
 730 00fd 07       		.byte	0x7
 731 00fe 89       		.byte	0x89
 732 00ff 25000000 		.4byte	0x25
 733 0103 00       		.byte	0
 734 0104 08       		.uleb128 0x8
 735 0105 6C656E00 		.ascii	"len\000"
 736 0109 07       		.byte	0x7
 737 010a 8A       		.byte	0x8a
ARM GAS  C:\Users\jo\AppData\Local\Temp\ccRRz0eu.s 			page 14


 738 010b 2C000000 		.4byte	0x2c
 739 010f 04       		.byte	0x4
 740 0110 08       		.uleb128 0x8
 741 0111 4E00     		.ascii	"N\000"
 742 0113 07       		.byte	0x7
 743 0114 8C       		.byte	0x8c
 744 0115 E5000000 		.4byte	0xe5
 745 0119 08       		.byte	0x8
 746 011a 08       		.uleb128 0x8
 747 011b 4500     		.ascii	"E\000"
 748 011d 07       		.byte	0x7
 749 011e 8D       		.byte	0x8d
 750 011f E5000000 		.4byte	0xe5
 751 0123 14       		.byte	0x14
 752 0124 08       		.uleb128 0x8
 753 0125 4400     		.ascii	"D\000"
 754 0127 07       		.byte	0x7
 755 0128 8F       		.byte	0x8f
 756 0129 E5000000 		.4byte	0xe5
 757 012d 20       		.byte	0x20
 758 012e 08       		.uleb128 0x8
 759 012f 5000     		.ascii	"P\000"
 760 0131 07       		.byte	0x7
 761 0132 90       		.byte	0x90
 762 0133 E5000000 		.4byte	0xe5
 763 0137 2C       		.byte	0x2c
 764 0138 08       		.uleb128 0x8
 765 0139 5100     		.ascii	"Q\000"
 766 013b 07       		.byte	0x7
 767 013c 91       		.byte	0x91
 768 013d E5000000 		.4byte	0xe5
 769 0141 38       		.byte	0x38
 770 0142 08       		.uleb128 0x8
 771 0143 445000   		.ascii	"DP\000"
 772 0146 07       		.byte	0x7
 773 0147 92       		.byte	0x92
 774 0148 E5000000 		.4byte	0xe5
 775 014c 44       		.byte	0x44
 776 014d 08       		.uleb128 0x8
 777 014e 445100   		.ascii	"DQ\000"
 778 0151 07       		.byte	0x7
 779 0152 93       		.byte	0x93
 780 0153 E5000000 		.4byte	0xe5
 781 0157 50       		.byte	0x50
 782 0158 08       		.uleb128 0x8
 783 0159 515000   		.ascii	"QP\000"
 784 015c 07       		.byte	0x7
 785 015d 94       		.byte	0x94
 786 015e E5000000 		.4byte	0xe5
 787 0162 5C       		.byte	0x5c
 788 0163 08       		.uleb128 0x8
 789 0164 524E00   		.ascii	"RN\000"
 790 0167 07       		.byte	0x7
 791 0168 96       		.byte	0x96
 792 0169 E5000000 		.4byte	0xe5
 793 016d 68       		.byte	0x68
 794 016e 08       		.uleb128 0x8
ARM GAS  C:\Users\jo\AppData\Local\Temp\ccRRz0eu.s 			page 15


 795 016f 525000   		.ascii	"RP\000"
 796 0172 07       		.byte	0x7
 797 0173 97       		.byte	0x97
 798 0174 E5000000 		.4byte	0xe5
 799 0178 74       		.byte	0x74
 800 0179 08       		.uleb128 0x8
 801 017a 525100   		.ascii	"RQ\000"
 802 017d 07       		.byte	0x7
 803 017e 98       		.byte	0x98
 804 017f E5000000 		.4byte	0xe5
 805 0183 80       		.byte	0x80
 806 0184 0A       		.uleb128 0xa
 807 0185 0B030000 		.4byte	.LASF16
 808 0189 07       		.byte	0x7
 809 018a 9A       		.byte	0x9a
 810 018b 25000000 		.4byte	0x25
 811 018f 8C       		.byte	0x8c
 812 0190 0A       		.uleb128 0xa
 813 0191 57040000 		.4byte	.LASF17
 814 0195 07       		.byte	0x7
 815 0196 9C       		.byte	0x9c
 816 0197 25000000 		.4byte	0x25
 817 019b 90       		.byte	0x90
 818 019c 00       		.byte	0
 819 019d 03       		.uleb128 0x3
 820 019e CB030000 		.4byte	.LASF18
 821 01a2 07       		.byte	0x7
 822 01a3 A1       		.byte	0xa1
 823 01a4 F0000000 		.4byte	0xf0
 824 01a8 0B       		.uleb128 0xb
 825 01a9 F0030000 		.4byte	.LASF20
 826 01ad 0C       		.byte	0xc
 827 01ae 08       		.byte	0x8
 828 01af 6C       		.byte	0x6c
 829 01b0 D7010000 		.4byte	0x1d7
 830 01b4 08       		.uleb128 0x8
 831 01b5 74616700 		.ascii	"tag\000"
 832 01b9 08       		.byte	0x8
 833 01ba 6E       		.byte	0x6e
 834 01bb 25000000 		.4byte	0x25
 835 01bf 00       		.byte	0
 836 01c0 08       		.uleb128 0x8
 837 01c1 6C656E00 		.ascii	"len\000"
 838 01c5 08       		.byte	0x8
 839 01c6 6F       		.byte	0x6f
 840 01c7 2C000000 		.4byte	0x2c
 841 01cb 04       		.byte	0x4
 842 01cc 08       		.uleb128 0x8
 843 01cd 7000     		.ascii	"p\000"
 844 01cf 08       		.byte	0x8
 845 01d0 70       		.byte	0x70
 846 01d1 8A000000 		.4byte	0x8a
 847 01d5 08       		.byte	0x8
 848 01d6 00       		.byte	0
 849 01d7 03       		.uleb128 0x3
 850 01d8 CD040000 		.4byte	.LASF19
 851 01dc 08       		.byte	0x8
ARM GAS  C:\Users\jo\AppData\Local\Temp\ccRRz0eu.s 			page 16


 852 01dd 72       		.byte	0x72
 853 01de A8010000 		.4byte	0x1a8
 854 01e2 0B       		.uleb128 0xb
 855 01e3 13030000 		.4byte	.LASF21
 856 01e7 10       		.byte	0x10
 857 01e8 08       		.byte	0x8
 858 01e9 82       		.byte	0x82
 859 01ea 07020000 		.4byte	0x207
 860 01ee 08       		.uleb128 0x8
 861 01ef 62756600 		.ascii	"buf\000"
 862 01f3 08       		.byte	0x8
 863 01f4 84       		.byte	0x84
 864 01f5 D7010000 		.4byte	0x1d7
 865 01f9 00       		.byte	0
 866 01fa 0A       		.uleb128 0xa
 867 01fb 11010000 		.4byte	.LASF22
 868 01ff 08       		.byte	0x8
 869 0200 85       		.byte	0x85
 870 0201 07020000 		.4byte	0x207
 871 0205 0C       		.byte	0xc
 872 0206 00       		.byte	0
 873 0207 06       		.uleb128 0x6
 874 0208 04       		.byte	0x4
 875 0209 E2010000 		.4byte	0x1e2
 876 020d 03       		.uleb128 0x3
 877 020e 24040000 		.4byte	.LASF23
 878 0212 08       		.byte	0x8
 879 0213 87       		.byte	0x87
 880 0214 E2010000 		.4byte	0x1e2
 881 0218 03       		.uleb128 0x3
 882 0219 B3010000 		.4byte	.LASF24
 883 021d 09       		.byte	0x9
 884 021e FD       		.byte	0xfd
 885 021f D7010000 		.4byte	0x1d7
 886 0223 0C       		.uleb128 0xc
 887 0224 CB010000 		.4byte	.LASF25
 888 0228 1C       		.byte	0x1c
 889 0229 09       		.byte	0x9
 890 022a 0801     		.2byte	0x108
 891 022c 58020000 		.4byte	0x258
 892 0230 0D       		.uleb128 0xd
 893 0231 6F696400 		.ascii	"oid\000"
 894 0235 09       		.byte	0x9
 895 0236 0A01     		.2byte	0x10a
 896 0238 18020000 		.4byte	0x218
 897 023c 00       		.byte	0
 898 023d 0D       		.uleb128 0xd
 899 023e 76616C00 		.ascii	"val\000"
 900 0242 09       		.byte	0x9
 901 0243 0B01     		.2byte	0x10b
 902 0245 18020000 		.4byte	0x218
 903 0249 0C       		.byte	0xc
 904 024a 0E       		.uleb128 0xe
 905 024b 11010000 		.4byte	.LASF22
 906 024f 09       		.byte	0x9
 907 0250 0C01     		.2byte	0x10c
 908 0252 58020000 		.4byte	0x258
ARM GAS  C:\Users\jo\AppData\Local\Temp\ccRRz0eu.s 			page 17


 909 0256 18       		.byte	0x18
 910 0257 00       		.byte	0
 911 0258 06       		.uleb128 0x6
 912 0259 04       		.byte	0x4
 913 025a 23020000 		.4byte	0x223
 914 025e 0F       		.uleb128 0xf
 915 025f 1A040000 		.4byte	.LASF26
 916 0263 09       		.byte	0x9
 917 0264 0E01     		.2byte	0x10e
 918 0266 23020000 		.4byte	0x223
 919 026a 0F       		.uleb128 0xf
 920 026b 37050000 		.4byte	.LASF27
 921 026f 09       		.byte	0x9
 922 0270 1301     		.2byte	0x113
 923 0272 0D020000 		.4byte	0x20d
 924 0276 0C       		.uleb128 0xc
 925 0277 00030000 		.4byte	.LASF28
 926 027b 18       		.byte	0x18
 927 027c 09       		.byte	0x9
 928 027d 1601     		.2byte	0x116
 929 027f D2020000 		.4byte	0x2d2
 930 0283 0E       		.uleb128 0xe
 931 0284 8B040000 		.4byte	.LASF29
 932 0288 09       		.byte	0x9
 933 0289 1801     		.2byte	0x118
 934 028b 25000000 		.4byte	0x25
 935 028f 00       		.byte	0
 936 0290 0D       		.uleb128 0xd
 937 0291 6D6F6E00 		.ascii	"mon\000"
 938 0295 09       		.byte	0x9
 939 0296 1801     		.2byte	0x118
 940 0298 25000000 		.4byte	0x25
 941 029c 04       		.byte	0x4
 942 029d 0D       		.uleb128 0xd
 943 029e 64617900 		.ascii	"day\000"
 944 02a2 09       		.byte	0x9
 945 02a3 1801     		.2byte	0x118
 946 02a5 25000000 		.4byte	0x25
 947 02a9 08       		.byte	0x8
 948 02aa 0E       		.uleb128 0xe
 949 02ab 29020000 		.4byte	.LASF30
 950 02af 09       		.byte	0x9
 951 02b0 1901     		.2byte	0x119
 952 02b2 25000000 		.4byte	0x25
 953 02b6 0C       		.byte	0xc
 954 02b7 0D       		.uleb128 0xd
 955 02b8 6D696E00 		.ascii	"min\000"
 956 02bc 09       		.byte	0x9
 957 02bd 1901     		.2byte	0x119
 958 02bf 25000000 		.4byte	0x25
 959 02c3 10       		.byte	0x10
 960 02c4 0D       		.uleb128 0xd
 961 02c5 73656300 		.ascii	"sec\000"
 962 02c9 09       		.byte	0x9
 963 02ca 1901     		.2byte	0x119
 964 02cc 25000000 		.4byte	0x25
 965 02d0 14       		.byte	0x14
ARM GAS  C:\Users\jo\AppData\Local\Temp\ccRRz0eu.s 			page 18


 966 02d1 00       		.byte	0
 967 02d2 0F       		.uleb128 0xf
 968 02d3 D7030000 		.4byte	.LASF31
 969 02d7 09       		.byte	0x9
 970 02d8 1B01     		.2byte	0x11b
 971 02da 76020000 		.4byte	0x276
 972 02de 10       		.uleb128 0x10
 973 02df B2020000 		.4byte	.LASF32
 974 02e3 CC01     		.2byte	0x1cc
 975 02e5 09       		.byte	0x9
 976 02e6 2001     		.2byte	0x120
 977 02e8 5A040000 		.4byte	0x45a
 978 02ec 0D       		.uleb128 0xd
 979 02ed 72617700 		.ascii	"raw\000"
 980 02f1 09       		.byte	0x9
 981 02f2 2201     		.2byte	0x122
 982 02f4 18020000 		.4byte	0x218
 983 02f8 00       		.byte	0
 984 02f9 0D       		.uleb128 0xd
 985 02fa 74627300 		.ascii	"tbs\000"
 986 02fe 09       		.byte	0x9
 987 02ff 2301     		.2byte	0x123
 988 0301 18020000 		.4byte	0x218
 989 0305 0C       		.byte	0xc
 990 0306 0E       		.uleb128 0xe
 991 0307 16010000 		.4byte	.LASF33
 992 030b 09       		.byte	0x9
 993 030c 2501     		.2byte	0x125
 994 030e 25000000 		.4byte	0x25
 995 0312 18       		.byte	0x18
 996 0313 0E       		.uleb128 0xe
 997 0314 90040000 		.4byte	.LASF34
 998 0318 09       		.byte	0x9
 999 0319 2601     		.2byte	0x126
 1000 031b 18020000 		.4byte	0x218
 1001 031f 1C       		.byte	0x1c
 1002 0320 0E       		.uleb128 0xe
 1003 0321 FD010000 		.4byte	.LASF35
 1004 0325 09       		.byte	0x9
 1005 0326 2701     		.2byte	0x127
 1006 0328 18020000 		.4byte	0x218
 1007 032c 28       		.byte	0x28
 1008 032d 0E       		.uleb128 0xe
 1009 032e 32040000 		.4byte	.LASF36
 1010 0332 09       		.byte	0x9
 1011 0333 2901     		.2byte	0x129
 1012 0335 18020000 		.4byte	0x218
 1013 0339 34       		.byte	0x34
 1014 033a 0E       		.uleb128 0xe
 1015 033b 29030000 		.4byte	.LASF37
 1016 033f 09       		.byte	0x9
 1017 0340 2A01     		.2byte	0x12a
 1018 0342 18020000 		.4byte	0x218
 1019 0346 40       		.byte	0x40
 1020 0347 0E       		.uleb128 0xe
 1021 0348 C4020000 		.4byte	.LASF38
 1022 034c 09       		.byte	0x9
ARM GAS  C:\Users\jo\AppData\Local\Temp\ccRRz0eu.s 			page 19


 1023 034d 2C01     		.2byte	0x12c
 1024 034f 5E020000 		.4byte	0x25e
 1025 0353 4C       		.byte	0x4c
 1026 0354 0E       		.uleb128 0xe
 1027 0355 1E010000 		.4byte	.LASF39
 1028 0359 09       		.byte	0x9
 1029 035a 2D01     		.2byte	0x12d
 1030 035c 5E020000 		.4byte	0x25e
 1031 0360 68       		.byte	0x68
 1032 0361 0E       		.uleb128 0xe
 1033 0362 B0030000 		.4byte	.LASF40
 1034 0366 09       		.byte	0x9
 1035 0367 2F01     		.2byte	0x12f
 1036 0369 D2020000 		.4byte	0x2d2
 1037 036d 84       		.byte	0x84
 1038 036e 0E       		.uleb128 0xe
 1039 036f 5D010000 		.4byte	.LASF41
 1040 0373 09       		.byte	0x9
 1041 0374 3001     		.2byte	0x130
 1042 0376 D2020000 		.4byte	0x2d2
 1043 037a 9C       		.byte	0x9c
 1044 037b 0E       		.uleb128 0xe
 1045 037c BE040000 		.4byte	.LASF42
 1046 0380 09       		.byte	0x9
 1047 0381 3201     		.2byte	0x132
 1048 0383 18020000 		.4byte	0x218
 1049 0387 B4       		.byte	0xb4
 1050 0388 0D       		.uleb128 0xd
 1051 0389 72736100 		.ascii	"rsa\000"
 1052 038d 09       		.byte	0x9
 1053 038e 3301     		.2byte	0x133
 1054 0390 9D010000 		.4byte	0x19d
 1055 0394 C0       		.byte	0xc0
 1056 0395 11       		.uleb128 0x11
 1057 0396 34010000 		.4byte	.LASF43
 1058 039a 09       		.byte	0x9
 1059 039b 3501     		.2byte	0x135
 1060 039d 18020000 		.4byte	0x218
 1061 03a1 5401     		.2byte	0x154
 1062 03a3 11       		.uleb128 0x11
 1063 03a4 1F000000 		.4byte	.LASF44
 1064 03a8 09       		.byte	0x9
 1065 03a9 3601     		.2byte	0x136
 1066 03ab 18020000 		.4byte	0x218
 1067 03af 6001     		.2byte	0x160
 1068 03b1 11       		.uleb128 0x11
 1069 03b2 00000000 		.4byte	.LASF45
 1070 03b6 09       		.byte	0x9
 1071 03b7 3701     		.2byte	0x137
 1072 03b9 18020000 		.4byte	0x218
 1073 03bd 6C01     		.2byte	0x16c
 1074 03bf 11       		.uleb128 0x11
 1075 03c0 81020000 		.4byte	.LASF46
 1076 03c4 09       		.byte	0x9
 1077 03c5 3801     		.2byte	0x138
 1078 03c7 6A020000 		.4byte	0x26a
 1079 03cb 7801     		.2byte	0x178
ARM GAS  C:\Users\jo\AppData\Local\Temp\ccRRz0eu.s 			page 20


 1080 03cd 11       		.uleb128 0x11
 1081 03ce E7010000 		.4byte	.LASF47
 1082 03d2 09       		.byte	0x9
 1083 03d3 3A01     		.2byte	0x13a
 1084 03d5 25000000 		.4byte	0x25
 1085 03d9 8801     		.2byte	0x188
 1086 03db 11       		.uleb128 0x11
 1087 03dc 15000000 		.4byte	.LASF48
 1088 03e0 09       		.byte	0x9
 1089 03e1 3B01     		.2byte	0x13b
 1090 03e3 25000000 		.4byte	0x25
 1091 03e7 8C01     		.2byte	0x18c
 1092 03e9 11       		.uleb128 0x11
 1093 03ea 90010000 		.4byte	.LASF49
 1094 03ee 09       		.byte	0x9
 1095 03ef 3C01     		.2byte	0x13c
 1096 03f1 25000000 		.4byte	0x25
 1097 03f5 9001     		.2byte	0x190
 1098 03f7 11       		.uleb128 0x11
 1099 03f8 BC010000 		.4byte	.LASF50
 1100 03fc 09       		.byte	0x9
 1101 03fd 3E01     		.2byte	0x13e
 1102 03ff 45000000 		.4byte	0x45
 1103 0403 9401     		.2byte	0x194
 1104 0405 11       		.uleb128 0x11
 1105 0406 07000000 		.4byte	.LASF51
 1106 040a 09       		.byte	0x9
 1107 040b 4001     		.2byte	0x140
 1108 040d 6A020000 		.4byte	0x26a
 1109 0411 9801     		.2byte	0x198
 1110 0413 11       		.uleb128 0x11
 1111 0414 D9020000 		.4byte	.LASF52
 1112 0418 09       		.byte	0x9
 1113 0419 4201     		.2byte	0x142
 1114 041b 45000000 		.4byte	0x45
 1115 041f A801     		.2byte	0x1a8
 1116 0421 11       		.uleb128 0x11
 1117 0422 06020000 		.4byte	.LASF53
 1118 0426 09       		.byte	0x9
 1119 0427 4401     		.2byte	0x144
 1120 0429 18020000 		.4byte	0x218
 1121 042d AC01     		.2byte	0x1ac
 1122 042f 12       		.uleb128 0x12
 1123 0430 73696700 		.ascii	"sig\000"
 1124 0434 09       		.byte	0x9
 1125 0435 4501     		.2byte	0x145
 1126 0437 18020000 		.4byte	0x218
 1127 043b B801     		.2byte	0x1b8
 1128 043d 11       		.uleb128 0x11
 1129 043e 97040000 		.4byte	.LASF54
 1130 0442 09       		.byte	0x9
 1131 0443 4601     		.2byte	0x146
 1132 0445 25000000 		.4byte	0x25
 1133 0449 C401     		.2byte	0x1c4
 1134 044b 11       		.uleb128 0x11
 1135 044c 11010000 		.4byte	.LASF22
 1136 0450 09       		.byte	0x9
ARM GAS  C:\Users\jo\AppData\Local\Temp\ccRRz0eu.s 			page 21


 1137 0451 4801     		.2byte	0x148
 1138 0453 5A040000 		.4byte	0x45a
 1139 0457 C801     		.2byte	0x1c8
 1140 0459 00       		.byte	0
 1141 045a 06       		.uleb128 0x6
 1142 045b 04       		.byte	0x4
 1143 045c DE020000 		.4byte	0x2de
 1144 0460 0F       		.uleb128 0xf
 1145 0461 84030000 		.4byte	.LASF55
 1146 0465 09       		.byte	0x9
 1147 0466 4A01     		.2byte	0x14a
 1148 0468 DE020000 		.4byte	0x2de
 1149 046c 06       		.uleb128 0x6
 1150 046d 04       		.byte	0x4
 1151 046e 72040000 		.4byte	0x472
 1152 0472 13       		.uleb128 0x13
 1153 0473 45000000 		.4byte	0x45
 1154 0477 0F       		.uleb128 0xf
 1155 0478 84010000 		.4byte	.LASF56
 1156 047c 0A       		.byte	0xa
 1157 047d 3301     		.2byte	0x133
 1158 047f 83040000 		.4byte	0x483
 1159 0483 0C       		.uleb128 0xc
 1160 0484 D6040000 		.4byte	.LASF57
 1161 0488 64       		.byte	0x64
 1162 0489 0A       		.byte	0xa
 1163 048a 3B01     		.2byte	0x13b
 1164 048c EB040000 		.4byte	0x4eb
 1165 0490 0E       		.uleb128 0xe
 1166 0491 4B030000 		.4byte	.LASF58
 1167 0495 0A       		.byte	0xa
 1168 0496 3D01     		.2byte	0x13d
 1169 0498 97000000 		.4byte	0x97
 1170 049c 00       		.byte	0
 1171 049d 0E       		.uleb128 0xe
 1172 049e F1010000 		.4byte	.LASF59
 1173 04a2 0A       		.byte	0xa
 1174 04a3 3E01     		.2byte	0x13e
 1175 04a5 25000000 		.4byte	0x25
 1176 04a9 04       		.byte	0x4
 1177 04aa 0E       		.uleb128 0xe
 1178 04ab ED040000 		.4byte	.LASF60
 1179 04af 0A       		.byte	0xa
 1180 04b0 3F01     		.2byte	0x13f
 1181 04b2 25000000 		.4byte	0x25
 1182 04b6 08       		.byte	0x8
 1183 04b7 0E       		.uleb128 0xe
 1184 04b8 C4030000 		.4byte	.LASF61
 1185 04bc 0A       		.byte	0xa
 1186 04bd 4001     		.2byte	0x140
 1187 04bf 2C000000 		.4byte	0x2c
 1188 04c3 0C       		.byte	0xc
 1189 04c4 0D       		.uleb128 0xd
 1190 04c5 696400   		.ascii	"id\000"
 1191 04c8 0A       		.byte	0xa
 1192 04c9 4101     		.2byte	0x141
 1193 04cb EB040000 		.4byte	0x4eb
ARM GAS  C:\Users\jo\AppData\Local\Temp\ccRRz0eu.s 			page 22


 1194 04cf 10       		.byte	0x10
 1195 04d0 0E       		.uleb128 0xe
 1196 04d1 7A040000 		.4byte	.LASF62
 1197 04d5 0A       		.byte	0xa
 1198 04d6 4201     		.2byte	0x142
 1199 04d8 FB040000 		.4byte	0x4fb
 1200 04dc 30       		.byte	0x30
 1201 04dd 0E       		.uleb128 0xe
 1202 04de 81040000 		.4byte	.LASF63
 1203 04e2 0A       		.byte	0xa
 1204 04e3 4301     		.2byte	0x143
 1205 04e5 0B050000 		.4byte	0x50b
 1206 04e9 60       		.byte	0x60
 1207 04ea 00       		.byte	0
 1208 04eb 14       		.uleb128 0x14
 1209 04ec 45000000 		.4byte	0x45
 1210 04f0 FB040000 		.4byte	0x4fb
 1211 04f4 15       		.uleb128 0x15
 1212 04f5 81000000 		.4byte	0x81
 1213 04f9 1F       		.byte	0x1f
 1214 04fa 00       		.byte	0
 1215 04fb 14       		.uleb128 0x14
 1216 04fc 45000000 		.4byte	0x45
 1217 0500 0B050000 		.4byte	0x50b
 1218 0504 15       		.uleb128 0x15
 1219 0505 81000000 		.4byte	0x81
 1220 0509 2F       		.byte	0x2f
 1221 050a 00       		.byte	0
 1222 050b 06       		.uleb128 0x6
 1223 050c 04       		.byte	0x4
 1224 050d 60040000 		.4byte	0x460
 1225 0511 06       		.uleb128 0x6
 1226 0512 04       		.byte	0x4
 1227 0513 77040000 		.4byte	0x477
 1228 0517 06       		.uleb128 0x6
 1229 0518 04       		.byte	0x4
 1230 0519 1D050000 		.4byte	0x51d
 1231 051d 13       		.uleb128 0x13
 1232 051e 77040000 		.4byte	0x477
 1233 0522 03       		.uleb128 0x3
 1234 0523 25050000 		.4byte	.LASF64
 1235 0527 0B       		.byte	0xb
 1236 0528 29       		.byte	0x29
 1237 0529 2D050000 		.4byte	0x52d
 1238 052d 0B       		.uleb128 0xb
 1239 052e 93020000 		.4byte	.LASF65
 1240 0532 0C       		.byte	0xc
 1241 0533 0B       		.byte	0xb
 1242 0534 3A       		.byte	0x3a
 1243 0535 5E050000 		.4byte	0x55e
 1244 0539 0A       		.uleb128 0xa
 1245 053a 18050000 		.4byte	.LASF66
 1246 053e 0B       		.byte	0xb
 1247 053f 3C       		.byte	0x3c
 1248 0540 A6050000 		.4byte	0x5a6
 1249 0544 00       		.byte	0
 1250 0545 0A       		.uleb128 0xa
ARM GAS  C:\Users\jo\AppData\Local\Temp\ccRRz0eu.s 			page 23


 1251 0546 C5040000 		.4byte	.LASF67
 1252 054a 0B       		.byte	0xb
 1253 054b 3D       		.byte	0x3d
 1254 054c 25000000 		.4byte	0x25
 1255 0550 04       		.byte	0x4
 1256 0551 0A       		.uleb128 0xa
 1257 0552 F4020000 		.4byte	.LASF68
 1258 0556 0B       		.byte	0xb
 1259 0557 3E       		.byte	0x3e
 1260 0558 25000000 		.4byte	0x25
 1261 055c 08       		.byte	0x8
 1262 055d 00       		.byte	0
 1263 055e 03       		.uleb128 0x3
 1264 055f A0030000 		.4byte	.LASF69
 1265 0563 0B       		.byte	0xb
 1266 0564 2A       		.byte	0x2a
 1267 0565 69050000 		.4byte	0x569
 1268 0569 0B       		.uleb128 0xb
 1269 056a D6010000 		.4byte	.LASF70
 1270 056e 78       		.byte	0x78
 1271 056f 0B       		.byte	0xb
 1272 0570 2F       		.byte	0x2f
 1273 0571 A6050000 		.4byte	0x5a6
 1274 0575 0A       		.uleb128 0xa
 1275 0576 E3040000 		.4byte	.LASF71
 1276 057a 0B       		.byte	0xb
 1277 057b 31       		.byte	0x31
 1278 057c 97000000 		.4byte	0x97
 1279 0580 00       		.byte	0
 1280 0581 0A       		.uleb128 0xa
 1281 0582 8E030000 		.4byte	.LASF72
 1282 0586 0B       		.byte	0xb
 1283 0587 32       		.byte	0x32
 1284 0588 77040000 		.4byte	0x477
 1285 058c 04       		.byte	0x4
 1286 058d 0A       		.uleb128 0xa
 1287 058e 81040000 		.4byte	.LASF63
 1288 0592 0B       		.byte	0xb
 1289 0593 33       		.byte	0x33
 1290 0594 18020000 		.4byte	0x218
 1291 0598 68       		.byte	0x68
 1292 0599 0A       		.uleb128 0xa
 1293 059a 11010000 		.4byte	.LASF22
 1294 059e 0B       		.byte	0xb
 1295 059f 34       		.byte	0x34
 1296 05a0 A6050000 		.4byte	0x5a6
 1297 05a4 74       		.byte	0x74
 1298 05a5 00       		.byte	0
 1299 05a6 06       		.uleb128 0x6
 1300 05a7 04       		.byte	0x4
 1301 05a8 5E050000 		.4byte	0x55e
 1302 05ac 06       		.uleb128 0x6
 1303 05ad 04       		.byte	0x4
 1304 05ae B2050000 		.4byte	0x5b2
 1305 05b2 16       		.uleb128 0x16
 1306 05b3 17       		.uleb128 0x17
 1307 05b4 45010000 		.4byte	.LASF80
ARM GAS  C:\Users\jo\AppData\Local\Temp\ccRRz0eu.s 			page 24


 1308 05b8 01       		.byte	0x1
 1309 05b9 26       		.byte	0x26
 1310 05ba 00000000 		.4byte	.LFB1
 1311 05be 40000000 		.4byte	.LFE1-.LFB1
 1312 05c2 01       		.uleb128 0x1
 1313 05c3 9C       		.byte	0x9c
 1314 05c4 D6050000 		.4byte	0x5d6
 1315 05c8 18       		.uleb128 0x18
 1316 05c9 51030000 		.4byte	.LASF73
 1317 05cd 01       		.byte	0x1
 1318 05ce 26       		.byte	0x26
 1319 05cf D6050000 		.4byte	0x5d6
 1320 05d3 01       		.uleb128 0x1
 1321 05d4 50       		.byte	0x50
 1322 05d5 00       		.byte	0
 1323 05d6 06       		.uleb128 0x6
 1324 05d7 04       		.byte	0x4
 1325 05d8 22050000 		.4byte	0x522
 1326 05dc 19       		.uleb128 0x19
 1327 05dd 16020000 		.4byte	.LASF76
 1328 05e1 01       		.byte	0x1
 1329 05e2 2E       		.byte	0x2e
 1330 05e3 25000000 		.4byte	0x25
 1331 05e7 00000000 		.4byte	.LFB2
 1332 05eb C0000000 		.4byte	.LFE2-.LFB2
 1333 05ef 01       		.uleb128 0x1
 1334 05f0 9C       		.byte	0x9c
 1335 05f1 CD060000 		.4byte	0x6cd
 1336 05f5 1A       		.uleb128 0x1a
 1337 05f6 A6020000 		.4byte	.LASF74
 1338 05fa 01       		.byte	0x1
 1339 05fb 2E       		.byte	0x2e
 1340 05fc 88000000 		.4byte	0x88
 1341 0600 00000000 		.4byte	.LLST0
 1342 0604 1A       		.uleb128 0x1a
 1343 0605 8E030000 		.4byte	.LASF72
 1344 0609 01       		.byte	0x1
 1345 060a 2E       		.byte	0x2e
 1346 060b 11050000 		.4byte	0x511
 1347 060f 2C000000 		.4byte	.LLST1
 1348 0613 1B       		.uleb128 0x1b
 1349 0614 7400     		.ascii	"t\000"
 1350 0616 01       		.byte	0x1
 1351 0617 30       		.byte	0x30
 1352 0618 97000000 		.4byte	0x97
 1353 061c 4A000000 		.4byte	.LLST2
 1354 0620 1C       		.uleb128 0x1c
 1355 0621 51030000 		.4byte	.LASF73
 1356 0625 01       		.byte	0x1
 1357 0626 31       		.byte	0x31
 1358 0627 D6050000 		.4byte	0x5d6
 1359 062b 5D000000 		.4byte	.LLST3
 1360 062f 1B       		.uleb128 0x1b
 1361 0630 63757200 		.ascii	"cur\000"
 1362 0634 01       		.byte	0x1
 1363 0635 32       		.byte	0x32
 1364 0636 A6050000 		.4byte	0x5a6
ARM GAS  C:\Users\jo\AppData\Local\Temp\ccRRz0eu.s 			page 25


 1365 063a 7E000000 		.4byte	.LLST4
 1366 063e 1C       		.uleb128 0x1c
 1367 063f 9F040000 		.4byte	.LASF75
 1368 0643 01       		.byte	0x1
 1369 0644 32       		.byte	0x32
 1370 0645 A6050000 		.4byte	0x5a6
 1371 0649 B2000000 		.4byte	.LLST5
 1372 064d 1D       		.uleb128 0x1d
 1373 064e 0E000000 		.4byte	.LVL3
 1374 0652 48090000 		.4byte	0x948
 1375 0656 60060000 		.4byte	0x660
 1376 065a 1E       		.uleb128 0x1e
 1377 065b 01       		.uleb128 0x1
 1378 065c 50       		.byte	0x50
 1379 065d 01       		.uleb128 0x1
 1380 065e 30       		.byte	0x30
 1381 065f 00       		.byte	0
 1382 0660 1D       		.uleb128 0x1d
 1383 0661 54000000 		.4byte	.LVL10
 1384 0665 63090000 		.4byte	0x963
 1385 0669 7A060000 		.4byte	0x67a
 1386 066d 1E       		.uleb128 0x1e
 1387 066e 01       		.uleb128 0x1
 1388 066f 51       		.byte	0x51
 1389 0670 02       		.uleb128 0x2
 1390 0671 74       		.byte	0x74
 1391 0672 14       		.sleb128 20
 1392 0673 1E       		.uleb128 0x1e
 1393 0674 01       		.uleb128 0x1
 1394 0675 50       		.byte	0x50
 1395 0676 02       		.uleb128 0x2
 1396 0677 79       		.byte	0x79
 1397 0678 00       		.sleb128 0
 1398 0679 00       		.byte	0
 1399 067a 1D       		.uleb128 0x1d
 1400 067b 90000000 		.4byte	.LVL12
 1401 067f 82090000 		.4byte	0x982
 1402 0683 8F060000 		.4byte	0x68f
 1403 0687 1E       		.uleb128 0x1e
 1404 0688 01       		.uleb128 0x1
 1405 0689 50       		.byte	0x50
 1406 068a 03       		.uleb128 0x3
 1407 068b 0A       		.byte	0xa
 1408 068c CC01     		.2byte	0x1cc
 1409 068e 00       		.byte	0
 1410 068f 1D       		.uleb128 0x1d
 1411 0690 A0000000 		.4byte	.LVL13
 1412 0694 97090000 		.4byte	0x997
 1413 0698 AF060000 		.4byte	0x6af
 1414 069c 1E       		.uleb128 0x1e
 1415 069d 01       		.uleb128 0x1
 1416 069e 52       		.byte	0x52
 1417 069f 03       		.uleb128 0x3
 1418 06a0 0A       		.byte	0xa
 1419 06a1 CC01     		.2byte	0x1cc
 1420 06a3 1E       		.uleb128 0x1e
 1421 06a4 01       		.uleb128 0x1
ARM GAS  C:\Users\jo\AppData\Local\Temp\ccRRz0eu.s 			page 26


 1422 06a5 51       		.byte	0x51
 1423 06a6 01       		.uleb128 0x1
 1424 06a7 30       		.byte	0x30
 1425 06a8 1E       		.uleb128 0x1e
 1426 06a9 01       		.uleb128 0x1
 1427 06aa 50       		.byte	0x50
 1428 06ab 02       		.uleb128 0x2
 1429 06ac 75       		.byte	0x75
 1430 06ad 00       		.sleb128 0
 1431 06ae 00       		.byte	0
 1432 06af 1D       		.uleb128 0x1d
 1433 06b0 AA000000 		.4byte	.LVL14
 1434 06b4 B4090000 		.4byte	0x9b4
 1435 06b8 C3060000 		.4byte	0x6c3
 1436 06bc 1E       		.uleb128 0x1e
 1437 06bd 01       		.uleb128 0x1
 1438 06be 50       		.byte	0x50
 1439 06bf 02       		.uleb128 0x2
 1440 06c0 75       		.byte	0x75
 1441 06c1 00       		.sleb128 0
 1442 06c2 00       		.byte	0
 1443 06c3 1F       		.uleb128 0x1f
 1444 06c4 B2000000 		.4byte	.LVL15
 1445 06c8 D4090000 		.4byte	0x9d4
 1446 06cc 00       		.byte	0
 1447 06cd 19       		.uleb128 0x19
 1448 06ce 26010000 		.4byte	.LASF77
 1449 06d2 01       		.byte	0x1
 1450 06d3 64       		.byte	0x64
 1451 06d4 25000000 		.4byte	0x25
 1452 06d8 00000000 		.4byte	.LFB3
 1453 06dc 40010000 		.4byte	.LFE3-.LFB3
 1454 06e0 01       		.uleb128 0x1
 1455 06e1 9C       		.byte	0x9c
 1456 06e2 58080000 		.4byte	0x858
 1457 06e6 1A       		.uleb128 0x1a
 1458 06e7 A6020000 		.4byte	.LASF74
 1459 06eb 01       		.byte	0x1
 1460 06ec 64       		.byte	0x64
 1461 06ed 88000000 		.4byte	0x88
 1462 06f1 DC000000 		.4byte	.LLST6
 1463 06f5 1A       		.uleb128 0x1a
 1464 06f6 8E030000 		.4byte	.LASF72
 1465 06fa 01       		.byte	0x1
 1466 06fb 64       		.byte	0x64
 1467 06fc 17050000 		.4byte	0x517
 1468 0700 28010000 		.4byte	.LLST7
 1469 0704 1B       		.uleb128 0x1b
 1470 0705 7400     		.ascii	"t\000"
 1471 0707 01       		.byte	0x1
 1472 0708 66       		.byte	0x66
 1473 0709 97000000 		.4byte	0x97
 1474 070d A5010000 		.4byte	.LLST8
 1475 0711 1C       		.uleb128 0x1c
 1476 0712 AB020000 		.4byte	.LASF78
 1477 0716 01       		.byte	0x1
 1478 0717 66       		.byte	0x66
ARM GAS  C:\Users\jo\AppData\Local\Temp\ccRRz0eu.s 			page 27


 1479 0718 97000000 		.4byte	0x97
 1480 071c D9010000 		.4byte	.LLST9
 1481 0720 20       		.uleb128 0x20
 1482 0721 51030000 		.4byte	.LASF73
 1483 0725 01       		.byte	0x1
 1484 0726 67       		.byte	0x67
 1485 0727 D6050000 		.4byte	0x5d6
 1486 072b 1B       		.uleb128 0x1b
 1487 072c 63757200 		.ascii	"cur\000"
 1488 0730 01       		.byte	0x1
 1489 0731 68       		.byte	0x68
 1490 0732 A6050000 		.4byte	0x5a6
 1491 0736 25020000 		.4byte	.LLST10
 1492 073a 1B       		.uleb128 0x1b
 1493 073b 70727600 		.ascii	"prv\000"
 1494 073f 01       		.byte	0x1
 1495 0740 68       		.byte	0x68
 1496 0741 A6050000 		.4byte	0x5a6
 1497 0745 B1020000 		.4byte	.LLST11
 1498 0749 1B       		.uleb128 0x1b
 1499 074a 6F6C6400 		.ascii	"old\000"
 1500 074e 01       		.byte	0x1
 1501 074f 68       		.byte	0x68
 1502 0750 A6050000 		.4byte	0x5a6
 1503 0754 0A030000 		.4byte	.LLST12
 1504 0758 1C       		.uleb128 0x1c
 1505 0759 6D010000 		.4byte	.LASF79
 1506 075d 01       		.byte	0x1
 1507 075e 69       		.byte	0x69
 1508 075f 25000000 		.4byte	0x25
 1509 0763 35030000 		.4byte	.LLST13
 1510 0767 1D       		.uleb128 0x1d
 1511 0768 14000000 		.4byte	.LVL19
 1512 076c 48090000 		.4byte	0x948
 1513 0770 7A070000 		.4byte	0x77a
 1514 0774 1E       		.uleb128 0x1e
 1515 0775 01       		.uleb128 0x1
 1516 0776 50       		.byte	0x50
 1517 0777 01       		.uleb128 0x1
 1518 0778 30       		.byte	0x30
 1519 0779 00       		.byte	0
 1520 077a 1F       		.uleb128 0x1f
 1521 077b 4A000000 		.4byte	.LVL24
 1522 077f 63090000 		.4byte	0x963
 1523 0783 1D       		.uleb128 0x1d
 1524 0784 7A000000 		.4byte	.LVL34
 1525 0788 E5090000 		.4byte	0x9e5
 1526 078c A3070000 		.4byte	0x7a3
 1527 0790 1E       		.uleb128 0x1e
 1528 0791 01       		.uleb128 0x1
 1529 0792 52       		.byte	0x52
 1530 0793 02       		.uleb128 0x2
 1531 0794 08       		.byte	0x8
 1532 0795 64       		.byte	0x64
 1533 0796 1E       		.uleb128 0x1e
 1534 0797 01       		.uleb128 0x1
 1535 0798 51       		.byte	0x51
ARM GAS  C:\Users\jo\AppData\Local\Temp\ccRRz0eu.s 			page 28


 1536 0799 02       		.uleb128 0x2
 1537 079a 74       		.byte	0x74
 1538 079b 00       		.sleb128 0
 1539 079c 1E       		.uleb128 0x1e
 1540 079d 01       		.uleb128 0x1
 1541 079e 50       		.byte	0x50
 1542 079f 02       		.uleb128 0x2
 1543 07a0 76       		.byte	0x76
 1544 07a1 00       		.sleb128 0
 1545 07a2 00       		.byte	0
 1546 07a3 1D       		.uleb128 0x1d
 1547 07a4 86000000 		.4byte	.LVL35
 1548 07a8 82090000 		.4byte	0x982
 1549 07ac B7070000 		.4byte	0x7b7
 1550 07b0 1E       		.uleb128 0x1e
 1551 07b1 01       		.uleb128 0x1
 1552 07b2 50       		.byte	0x50
 1553 07b3 02       		.uleb128 0x2
 1554 07b4 75       		.byte	0x75
 1555 07b5 00       		.sleb128 0
 1556 07b6 00       		.byte	0
 1557 07b7 1D       		.uleb128 0x1d
 1558 07b8 92000000 		.4byte	.LVL36
 1559 07bc E5090000 		.4byte	0x9e5
 1560 07c0 CB070000 		.4byte	0x7cb
 1561 07c4 1E       		.uleb128 0x1e
 1562 07c5 01       		.uleb128 0x1
 1563 07c6 52       		.byte	0x52
 1564 07c7 02       		.uleb128 0x2
 1565 07c8 75       		.byte	0x75
 1566 07c9 00       		.sleb128 0
 1567 07ca 00       		.byte	0
 1568 07cb 1D       		.uleb128 0x1d
 1569 07cc B0000000 		.4byte	.LVL39
 1570 07d0 82090000 		.4byte	0x982
 1571 07d4 DF070000 		.4byte	0x7df
 1572 07d8 1E       		.uleb128 0x1e
 1573 07d9 01       		.uleb128 0x1
 1574 07da 50       		.byte	0x50
 1575 07db 02       		.uleb128 0x2
 1576 07dc 08       		.byte	0x8
 1577 07dd 78       		.byte	0x78
 1578 07de 00       		.byte	0
 1579 07df 1D       		.uleb128 0x1d
 1580 07e0 BC000000 		.4byte	.LVL40
 1581 07e4 97090000 		.4byte	0x997
 1582 07e8 FE070000 		.4byte	0x7fe
 1583 07ec 1E       		.uleb128 0x1e
 1584 07ed 01       		.uleb128 0x1
 1585 07ee 52       		.byte	0x52
 1586 07ef 02       		.uleb128 0x2
 1587 07f0 08       		.byte	0x8
 1588 07f1 78       		.byte	0x78
 1589 07f2 1E       		.uleb128 0x1e
 1590 07f3 01       		.uleb128 0x1
 1591 07f4 51       		.byte	0x51
 1592 07f5 01       		.uleb128 0x1
ARM GAS  C:\Users\jo\AppData\Local\Temp\ccRRz0eu.s 			page 29


 1593 07f6 30       		.byte	0x30
 1594 07f7 1E       		.uleb128 0x1e
 1595 07f8 01       		.uleb128 0x1
 1596 07f9 50       		.byte	0x50
 1597 07fa 02       		.uleb128 0x2
 1598 07fb 77       		.byte	0x77
 1599 07fc 00       		.sleb128 0
 1600 07fd 00       		.byte	0
 1601 07fe 1D       		.uleb128 0x1d
 1602 07ff E6000000 		.4byte	.LVL47
 1603 0803 97090000 		.4byte	0x997
 1604 0807 1E080000 		.4byte	0x81e
 1605 080b 1E       		.uleb128 0x1e
 1606 080c 01       		.uleb128 0x1
 1607 080d 52       		.byte	0x52
 1608 080e 02       		.uleb128 0x2
 1609 080f 08       		.byte	0x8
 1610 0810 64       		.byte	0x64
 1611 0811 1E       		.uleb128 0x1e
 1612 0812 01       		.uleb128 0x1
 1613 0813 51       		.byte	0x51
 1614 0814 02       		.uleb128 0x2
 1615 0815 75       		.byte	0x75
 1616 0816 00       		.sleb128 0
 1617 0817 1E       		.uleb128 0x1e
 1618 0818 01       		.uleb128 0x1
 1619 0819 50       		.byte	0x50
 1620 081a 02       		.uleb128 0x2
 1621 081b 76       		.byte	0x76
 1622 081c 00       		.sleb128 0
 1623 081d 00       		.byte	0
 1624 081e 1F       		.uleb128 0x1f
 1625 081f EE000000 		.4byte	.LVL48
 1626 0823 D4090000 		.4byte	0x9d4
 1627 0827 1D       		.uleb128 0x1d
 1628 0828 2A010000 		.4byte	.LVL52
 1629 082c 82090000 		.4byte	0x982
 1630 0830 3B080000 		.4byte	0x83b
 1631 0834 1E       		.uleb128 0x1e
 1632 0835 01       		.uleb128 0x1
 1633 0836 50       		.byte	0x50
 1634 0837 02       		.uleb128 0x2
 1635 0838 08       		.byte	0x8
 1636 0839 78       		.byte	0x78
 1637 083a 00       		.byte	0
 1638 083b 21       		.uleb128 0x21
 1639 083c 38010000 		.4byte	.LVL53
 1640 0840 97090000 		.4byte	0x997
 1641 0844 1E       		.uleb128 0x1e
 1642 0845 01       		.uleb128 0x1
 1643 0846 52       		.byte	0x52
 1644 0847 02       		.uleb128 0x2
 1645 0848 08       		.byte	0x8
 1646 0849 78       		.byte	0x78
 1647 084a 1E       		.uleb128 0x1e
 1648 084b 01       		.uleb128 0x1
 1649 084c 51       		.byte	0x51
ARM GAS  C:\Users\jo\AppData\Local\Temp\ccRRz0eu.s 			page 30


 1650 084d 02       		.uleb128 0x2
 1651 084e 74       		.byte	0x74
 1652 084f 00       		.sleb128 0
 1653 0850 1E       		.uleb128 0x1e
 1654 0851 01       		.uleb128 0x1
 1655 0852 50       		.byte	0x50
 1656 0853 02       		.uleb128 0x2
 1657 0854 77       		.byte	0x77
 1658 0855 00       		.sleb128 0
 1659 0856 00       		.byte	0
 1660 0857 00       		.byte	0
 1661 0858 17       		.uleb128 0x17
 1662 0859 35030000 		.4byte	.LASF81
 1663 085d 01       		.byte	0x1
 1664 085e BB       		.byte	0xbb
 1665 085f 00000000 		.4byte	.LFB4
 1666 0863 08000000 		.4byte	.LFE4-.LFB4
 1667 0867 01       		.uleb128 0x1
 1668 0868 9C       		.byte	0x9c
 1669 0869 8A080000 		.4byte	0x88a
 1670 086d 18       		.uleb128 0x18
 1671 086e 51030000 		.4byte	.LASF73
 1672 0872 01       		.byte	0x1
 1673 0873 BB       		.byte	0xbb
 1674 0874 D6050000 		.4byte	0x5d6
 1675 0878 01       		.uleb128 0x1
 1676 0879 50       		.byte	0x50
 1677 087a 1A       		.uleb128 0x1a
 1678 087b C5040000 		.4byte	.LASF67
 1679 087f 01       		.byte	0x1
 1680 0880 BB       		.byte	0xbb
 1681 0881 25000000 		.4byte	0x25
 1682 0885 76030000 		.4byte	.LLST14
 1683 0889 00       		.byte	0
 1684 088a 17       		.uleb128 0x17
 1685 088b 3D040000 		.4byte	.LASF82
 1686 088f 01       		.byte	0x1
 1687 0890 C2       		.byte	0xc2
 1688 0891 00000000 		.4byte	.LFB5
 1689 0895 08000000 		.4byte	.LFE5-.LFB5
 1690 0899 01       		.uleb128 0x1
 1691 089a 9C       		.byte	0x9c
 1692 089b BC080000 		.4byte	0x8bc
 1693 089f 18       		.uleb128 0x18
 1694 08a0 51030000 		.4byte	.LASF73
 1695 08a4 01       		.byte	0x1
 1696 08a5 C2       		.byte	0xc2
 1697 08a6 D6050000 		.4byte	0x5d6
 1698 08aa 01       		.uleb128 0x1
 1699 08ab 50       		.byte	0x50
 1700 08ac 22       		.uleb128 0x22
 1701 08ad 6D617800 		.ascii	"max\000"
 1702 08b1 01       		.byte	0x1
 1703 08b2 C2       		.byte	0xc2
 1704 08b3 25000000 		.4byte	0x25
 1705 08b7 AB030000 		.4byte	.LLST15
 1706 08bb 00       		.byte	0
ARM GAS  C:\Users\jo\AppData\Local\Temp\ccRRz0eu.s 			page 31


 1707 08bc 17       		.uleb128 0x17
 1708 08bd E1030000 		.4byte	.LASF83
 1709 08c1 01       		.byte	0x1
 1710 08c2 C9       		.byte	0xc9
 1711 08c3 00000000 		.4byte	.LFB6
 1712 08c7 26000000 		.4byte	.LFE6-.LFB6
 1713 08cb 01       		.uleb128 0x1
 1714 08cc 9C       		.byte	0x9c
 1715 08cd 2C090000 		.4byte	0x92c
 1716 08d1 1A       		.uleb128 0x1a
 1717 08d2 51030000 		.4byte	.LASF73
 1718 08d6 01       		.byte	0x1
 1719 08d7 C9       		.byte	0xc9
 1720 08d8 D6050000 		.4byte	0x5d6
 1721 08dc E0030000 		.4byte	.LLST16
 1722 08e0 1B       		.uleb128 0x1b
 1723 08e1 63757200 		.ascii	"cur\000"
 1724 08e5 01       		.byte	0x1
 1725 08e6 CB       		.byte	0xcb
 1726 08e7 A6050000 		.4byte	0x5a6
 1727 08eb 01040000 		.4byte	.LLST17
 1728 08ef 1B       		.uleb128 0x1b
 1729 08f0 70727600 		.ascii	"prv\000"
 1730 08f4 01       		.byte	0x1
 1731 08f5 CB       		.byte	0xcb
 1732 08f6 A6050000 		.4byte	0x5a6
 1733 08fa 2A040000 		.4byte	.LLST18
 1734 08fe 1D       		.uleb128 0x1d
 1735 08ff 0E000000 		.4byte	.LVL62
 1736 0903 020A0000 		.4byte	0xa02
 1737 0907 12090000 		.4byte	0x912
 1738 090b 1E       		.uleb128 0x1e
 1739 090c 01       		.uleb128 0x1
 1740 090d 50       		.byte	0x50
 1741 090e 02       		.uleb128 0x2
 1742 090f 74       		.byte	0x74
 1743 0910 04       		.sleb128 4
 1744 0911 00       		.byte	0
 1745 0912 1F       		.uleb128 0x1f
 1746 0913 18000000 		.4byte	.LVL63
 1747 0917 D4090000 		.4byte	0x9d4
 1748 091b 21       		.uleb128 0x21
 1749 091c 1E000000 		.4byte	.LVL64
 1750 0920 D4090000 		.4byte	0x9d4
 1751 0924 1E       		.uleb128 0x1e
 1752 0925 01       		.uleb128 0x1
 1753 0926 50       		.byte	0x50
 1754 0927 02       		.uleb128 0x2
 1755 0928 74       		.byte	0x74
 1756 0929 00       		.sleb128 0
 1757 092a 00       		.byte	0
 1758 092b 00       		.byte	0
 1759 092c 14       		.uleb128 0x14
 1760 092d 25000000 		.4byte	0x25
 1761 0931 37090000 		.4byte	0x937
 1762 0935 23       		.uleb128 0x23
 1763 0936 00       		.byte	0
ARM GAS  C:\Users\jo\AppData\Local\Temp\ccRRz0eu.s 			page 32


 1764 0937 24       		.uleb128 0x24
 1765 0938 FA030000 		.4byte	.LASF94
 1766 093c 0A       		.byte	0xa
 1767 093d 1202     		.2byte	0x212
 1768 093f 43090000 		.4byte	0x943
 1769 0943 13       		.uleb128 0x13
 1770 0944 2C090000 		.4byte	0x92c
 1771 0948 25       		.uleb128 0x25
 1772 0949 C6010000 		.4byte	.LASF84
 1773 094d 0C       		.byte	0xc
 1774 094e 35       		.byte	0x35
 1775 094f 97000000 		.4byte	0x97
 1776 0953 5D090000 		.4byte	0x95d
 1777 0957 26       		.uleb128 0x26
 1778 0958 5D090000 		.4byte	0x95d
 1779 095c 00       		.byte	0
 1780 095d 06       		.uleb128 0x6
 1781 095e 04       		.byte	0x4
 1782 095f 97000000 		.4byte	0x97
 1783 0963 25       		.uleb128 0x25
 1784 0964 13040000 		.4byte	.LASF85
 1785 0968 0D       		.byte	0xd
 1786 0969 16       		.byte	0x16
 1787 096a 25000000 		.4byte	0x25
 1788 096e 82090000 		.4byte	0x982
 1789 0972 26       		.uleb128 0x26
 1790 0973 AC050000 		.4byte	0x5ac
 1791 0977 26       		.uleb128 0x26
 1792 0978 AC050000 		.4byte	0x5ac
 1793 097c 26       		.uleb128 0x26
 1794 097d 2C000000 		.4byte	0x2c
 1795 0981 00       		.byte	0
 1796 0982 25       		.uleb128 0x25
 1797 0983 66010000 		.4byte	.LASF86
 1798 0987 0E       		.byte	0xe
 1799 0988 60       		.byte	0x60
 1800 0989 88000000 		.4byte	0x88
 1801 098d 97090000 		.4byte	0x997
 1802 0991 26       		.uleb128 0x26
 1803 0992 2C000000 		.4byte	0x2c
 1804 0996 00       		.byte	0
 1805 0997 27       		.uleb128 0x27
 1806 0998 22030000 		.4byte	.LASF88
 1807 099c 88000000 		.4byte	0x88
 1808 09a0 B4090000 		.4byte	0x9b4
 1809 09a4 26       		.uleb128 0x26
 1810 09a5 88000000 		.4byte	0x88
 1811 09a9 26       		.uleb128 0x26
 1812 09aa 25000000 		.4byte	0x25
 1813 09ae 26       		.uleb128 0x26
 1814 09af 81000000 		.4byte	0x81
 1815 09b3 00       		.byte	0
 1816 09b4 28       		.uleb128 0x28
 1817 09b5 CB020000 		.4byte	.LASF87
 1818 09b9 09       		.byte	0x9
 1819 09ba C701     		.2byte	0x1c7
 1820 09bc 25000000 		.4byte	0x25
ARM GAS  C:\Users\jo\AppData\Local\Temp\ccRRz0eu.s 			page 33


 1821 09c0 D4090000 		.4byte	0x9d4
 1822 09c4 26       		.uleb128 0x26
 1823 09c5 0B050000 		.4byte	0x50b
 1824 09c9 26       		.uleb128 0x26
 1825 09ca 6C040000 		.4byte	0x46c
 1826 09ce 26       		.uleb128 0x26
 1827 09cf 2C000000 		.4byte	0x2c
 1828 09d3 00       		.byte	0
 1829 09d4 29       		.uleb128 0x29
 1830 09d5 24020000 		.4byte	.LASF89
 1831 09d9 0E       		.byte	0xe
 1832 09da 55       		.byte	0x55
 1833 09db E5090000 		.4byte	0x9e5
 1834 09df 26       		.uleb128 0x26
 1835 09e0 88000000 		.4byte	0x88
 1836 09e4 00       		.byte	0
 1837 09e5 27       		.uleb128 0x27
 1838 09e6 1E050000 		.4byte	.LASF90
 1839 09ea 88000000 		.4byte	0x88
 1840 09ee 020A0000 		.4byte	0xa02
 1841 09f2 26       		.uleb128 0x26
 1842 09f3 88000000 		.4byte	0x88
 1843 09f7 26       		.uleb128 0x26
 1844 09f8 AC050000 		.4byte	0x5ac
 1845 09fc 26       		.uleb128 0x26
 1846 09fd 81000000 		.4byte	0x81
 1847 0a01 00       		.byte	0
 1848 0a02 2A       		.uleb128 0x2a
 1849 0a03 73010000 		.4byte	.LASF95
 1850 0a07 0A       		.byte	0xa
 1851 0a08 3E04     		.2byte	0x43e
 1852 0a0a 26       		.uleb128 0x26
 1853 0a0b 11050000 		.4byte	0x511
 1854 0a0f 00       		.byte	0
 1855 0a10 00       		.byte	0
 1856              		.section	.debug_abbrev,"",%progbits
 1857              	.Ldebug_abbrev0:
 1858 0000 01       		.uleb128 0x1
 1859 0001 11       		.uleb128 0x11
 1860 0002 01       		.byte	0x1
 1861 0003 25       		.uleb128 0x25
 1862 0004 0E       		.uleb128 0xe
 1863 0005 13       		.uleb128 0x13
 1864 0006 0B       		.uleb128 0xb
 1865 0007 03       		.uleb128 0x3
 1866 0008 0E       		.uleb128 0xe
 1867 0009 1B       		.uleb128 0x1b
 1868 000a 0E       		.uleb128 0xe
 1869 000b 55       		.uleb128 0x55
 1870 000c 17       		.uleb128 0x17
 1871 000d 11       		.uleb128 0x11
 1872 000e 01       		.uleb128 0x1
 1873 000f 10       		.uleb128 0x10
 1874 0010 17       		.uleb128 0x17
 1875 0011 00       		.byte	0
 1876 0012 00       		.byte	0
 1877 0013 02       		.uleb128 0x2
ARM GAS  C:\Users\jo\AppData\Local\Temp\ccRRz0eu.s 			page 34


 1878 0014 24       		.uleb128 0x24
 1879 0015 00       		.byte	0
 1880 0016 0B       		.uleb128 0xb
 1881 0017 0B       		.uleb128 0xb
 1882 0018 3E       		.uleb128 0x3e
 1883 0019 0B       		.uleb128 0xb
 1884 001a 03       		.uleb128 0x3
 1885 001b 08       		.uleb128 0x8
 1886 001c 00       		.byte	0
 1887 001d 00       		.byte	0
 1888 001e 03       		.uleb128 0x3
 1889 001f 16       		.uleb128 0x16
 1890 0020 00       		.byte	0
 1891 0021 03       		.uleb128 0x3
 1892 0022 0E       		.uleb128 0xe
 1893 0023 3A       		.uleb128 0x3a
 1894 0024 0B       		.uleb128 0xb
 1895 0025 3B       		.uleb128 0x3b
 1896 0026 0B       		.uleb128 0xb
 1897 0027 49       		.uleb128 0x49
 1898 0028 13       		.uleb128 0x13
 1899 0029 00       		.byte	0
 1900 002a 00       		.byte	0
 1901 002b 04       		.uleb128 0x4
 1902 002c 24       		.uleb128 0x24
 1903 002d 00       		.byte	0
 1904 002e 0B       		.uleb128 0xb
 1905 002f 0B       		.uleb128 0xb
 1906 0030 3E       		.uleb128 0x3e
 1907 0031 0B       		.uleb128 0xb
 1908 0032 03       		.uleb128 0x3
 1909 0033 0E       		.uleb128 0xe
 1910 0034 00       		.byte	0
 1911 0035 00       		.byte	0
 1912 0036 05       		.uleb128 0x5
 1913 0037 0F       		.uleb128 0xf
 1914 0038 00       		.byte	0
 1915 0039 0B       		.uleb128 0xb
 1916 003a 0B       		.uleb128 0xb
 1917 003b 00       		.byte	0
 1918 003c 00       		.byte	0
 1919 003d 06       		.uleb128 0x6
 1920 003e 0F       		.uleb128 0xf
 1921 003f 00       		.byte	0
 1922 0040 0B       		.uleb128 0xb
 1923 0041 0B       		.uleb128 0xb
 1924 0042 49       		.uleb128 0x49
 1925 0043 13       		.uleb128 0x13
 1926 0044 00       		.byte	0
 1927 0045 00       		.byte	0
 1928 0046 07       		.uleb128 0x7
 1929 0047 13       		.uleb128 0x13
 1930 0048 01       		.byte	0x1
 1931 0049 0B       		.uleb128 0xb
 1932 004a 0B       		.uleb128 0xb
 1933 004b 3A       		.uleb128 0x3a
 1934 004c 0B       		.uleb128 0xb
ARM GAS  C:\Users\jo\AppData\Local\Temp\ccRRz0eu.s 			page 35


 1935 004d 3B       		.uleb128 0x3b
 1936 004e 0B       		.uleb128 0xb
 1937 004f 01       		.uleb128 0x1
 1938 0050 13       		.uleb128 0x13
 1939 0051 00       		.byte	0
 1940 0052 00       		.byte	0
 1941 0053 08       		.uleb128 0x8
 1942 0054 0D       		.uleb128 0xd
 1943 0055 00       		.byte	0
 1944 0056 03       		.uleb128 0x3
 1945 0057 08       		.uleb128 0x8
 1946 0058 3A       		.uleb128 0x3a
 1947 0059 0B       		.uleb128 0xb
 1948 005a 3B       		.uleb128 0x3b
 1949 005b 0B       		.uleb128 0xb
 1950 005c 49       		.uleb128 0x49
 1951 005d 13       		.uleb128 0x13
 1952 005e 38       		.uleb128 0x38
 1953 005f 0B       		.uleb128 0xb
 1954 0060 00       		.byte	0
 1955 0061 00       		.byte	0
 1956 0062 09       		.uleb128 0x9
 1957 0063 16       		.uleb128 0x16
 1958 0064 00       		.byte	0
 1959 0065 03       		.uleb128 0x3
 1960 0066 08       		.uleb128 0x8
 1961 0067 3A       		.uleb128 0x3a
 1962 0068 0B       		.uleb128 0xb
 1963 0069 3B       		.uleb128 0x3b
 1964 006a 0B       		.uleb128 0xb
 1965 006b 49       		.uleb128 0x49
 1966 006c 13       		.uleb128 0x13
 1967 006d 00       		.byte	0
 1968 006e 00       		.byte	0
 1969 006f 0A       		.uleb128 0xa
 1970 0070 0D       		.uleb128 0xd
 1971 0071 00       		.byte	0
 1972 0072 03       		.uleb128 0x3
 1973 0073 0E       		.uleb128 0xe
 1974 0074 3A       		.uleb128 0x3a
 1975 0075 0B       		.uleb128 0xb
 1976 0076 3B       		.uleb128 0x3b
 1977 0077 0B       		.uleb128 0xb
 1978 0078 49       		.uleb128 0x49
 1979 0079 13       		.uleb128 0x13
 1980 007a 38       		.uleb128 0x38
 1981 007b 0B       		.uleb128 0xb
 1982 007c 00       		.byte	0
 1983 007d 00       		.byte	0
 1984 007e 0B       		.uleb128 0xb
 1985 007f 13       		.uleb128 0x13
 1986 0080 01       		.byte	0x1
 1987 0081 03       		.uleb128 0x3
 1988 0082 0E       		.uleb128 0xe
 1989 0083 0B       		.uleb128 0xb
 1990 0084 0B       		.uleb128 0xb
 1991 0085 3A       		.uleb128 0x3a
ARM GAS  C:\Users\jo\AppData\Local\Temp\ccRRz0eu.s 			page 36


 1992 0086 0B       		.uleb128 0xb
 1993 0087 3B       		.uleb128 0x3b
 1994 0088 0B       		.uleb128 0xb
 1995 0089 01       		.uleb128 0x1
 1996 008a 13       		.uleb128 0x13
 1997 008b 00       		.byte	0
 1998 008c 00       		.byte	0
 1999 008d 0C       		.uleb128 0xc
 2000 008e 13       		.uleb128 0x13
 2001 008f 01       		.byte	0x1
 2002 0090 03       		.uleb128 0x3
 2003 0091 0E       		.uleb128 0xe
 2004 0092 0B       		.uleb128 0xb
 2005 0093 0B       		.uleb128 0xb
 2006 0094 3A       		.uleb128 0x3a
 2007 0095 0B       		.uleb128 0xb
 2008 0096 3B       		.uleb128 0x3b
 2009 0097 05       		.uleb128 0x5
 2010 0098 01       		.uleb128 0x1
 2011 0099 13       		.uleb128 0x13
 2012 009a 00       		.byte	0
 2013 009b 00       		.byte	0
 2014 009c 0D       		.uleb128 0xd
 2015 009d 0D       		.uleb128 0xd
 2016 009e 00       		.byte	0
 2017 009f 03       		.uleb128 0x3
 2018 00a0 08       		.uleb128 0x8
 2019 00a1 3A       		.uleb128 0x3a
 2020 00a2 0B       		.uleb128 0xb
 2021 00a3 3B       		.uleb128 0x3b
 2022 00a4 05       		.uleb128 0x5
 2023 00a5 49       		.uleb128 0x49
 2024 00a6 13       		.uleb128 0x13
 2025 00a7 38       		.uleb128 0x38
 2026 00a8 0B       		.uleb128 0xb
 2027 00a9 00       		.byte	0
 2028 00aa 00       		.byte	0
 2029 00ab 0E       		.uleb128 0xe
 2030 00ac 0D       		.uleb128 0xd
 2031 00ad 00       		.byte	0
 2032 00ae 03       		.uleb128 0x3
 2033 00af 0E       		.uleb128 0xe
 2034 00b0 3A       		.uleb128 0x3a
 2035 00b1 0B       		.uleb128 0xb
 2036 00b2 3B       		.uleb128 0x3b
 2037 00b3 05       		.uleb128 0x5
 2038 00b4 49       		.uleb128 0x49
 2039 00b5 13       		.uleb128 0x13
 2040 00b6 38       		.uleb128 0x38
 2041 00b7 0B       		.uleb128 0xb
 2042 00b8 00       		.byte	0
 2043 00b9 00       		.byte	0
 2044 00ba 0F       		.uleb128 0xf
 2045 00bb 16       		.uleb128 0x16
 2046 00bc 00       		.byte	0
 2047 00bd 03       		.uleb128 0x3
 2048 00be 0E       		.uleb128 0xe
ARM GAS  C:\Users\jo\AppData\Local\Temp\ccRRz0eu.s 			page 37


 2049 00bf 3A       		.uleb128 0x3a
 2050 00c0 0B       		.uleb128 0xb
 2051 00c1 3B       		.uleb128 0x3b
 2052 00c2 05       		.uleb128 0x5
 2053 00c3 49       		.uleb128 0x49
 2054 00c4 13       		.uleb128 0x13
 2055 00c5 00       		.byte	0
 2056 00c6 00       		.byte	0
 2057 00c7 10       		.uleb128 0x10
 2058 00c8 13       		.uleb128 0x13
 2059 00c9 01       		.byte	0x1
 2060 00ca 03       		.uleb128 0x3
 2061 00cb 0E       		.uleb128 0xe
 2062 00cc 0B       		.uleb128 0xb
 2063 00cd 05       		.uleb128 0x5
 2064 00ce 3A       		.uleb128 0x3a
 2065 00cf 0B       		.uleb128 0xb
 2066 00d0 3B       		.uleb128 0x3b
 2067 00d1 05       		.uleb128 0x5
 2068 00d2 01       		.uleb128 0x1
 2069 00d3 13       		.uleb128 0x13
 2070 00d4 00       		.byte	0
 2071 00d5 00       		.byte	0
 2072 00d6 11       		.uleb128 0x11
 2073 00d7 0D       		.uleb128 0xd
 2074 00d8 00       		.byte	0
 2075 00d9 03       		.uleb128 0x3
 2076 00da 0E       		.uleb128 0xe
 2077 00db 3A       		.uleb128 0x3a
 2078 00dc 0B       		.uleb128 0xb
 2079 00dd 3B       		.uleb128 0x3b
 2080 00de 05       		.uleb128 0x5
 2081 00df 49       		.uleb128 0x49
 2082 00e0 13       		.uleb128 0x13
 2083 00e1 38       		.uleb128 0x38
 2084 00e2 05       		.uleb128 0x5
 2085 00e3 00       		.byte	0
 2086 00e4 00       		.byte	0
 2087 00e5 12       		.uleb128 0x12
 2088 00e6 0D       		.uleb128 0xd
 2089 00e7 00       		.byte	0
 2090 00e8 03       		.uleb128 0x3
 2091 00e9 08       		.uleb128 0x8
 2092 00ea 3A       		.uleb128 0x3a
 2093 00eb 0B       		.uleb128 0xb
 2094 00ec 3B       		.uleb128 0x3b
 2095 00ed 05       		.uleb128 0x5
 2096 00ee 49       		.uleb128 0x49
 2097 00ef 13       		.uleb128 0x13
 2098 00f0 38       		.uleb128 0x38
 2099 00f1 05       		.uleb128 0x5
 2100 00f2 00       		.byte	0
 2101 00f3 00       		.byte	0
 2102 00f4 13       		.uleb128 0x13
 2103 00f5 26       		.uleb128 0x26
 2104 00f6 00       		.byte	0
 2105 00f7 49       		.uleb128 0x49
ARM GAS  C:\Users\jo\AppData\Local\Temp\ccRRz0eu.s 			page 38


 2106 00f8 13       		.uleb128 0x13
 2107 00f9 00       		.byte	0
 2108 00fa 00       		.byte	0
 2109 00fb 14       		.uleb128 0x14
 2110 00fc 01       		.uleb128 0x1
 2111 00fd 01       		.byte	0x1
 2112 00fe 49       		.uleb128 0x49
 2113 00ff 13       		.uleb128 0x13
 2114 0100 01       		.uleb128 0x1
 2115 0101 13       		.uleb128 0x13
 2116 0102 00       		.byte	0
 2117 0103 00       		.byte	0
 2118 0104 15       		.uleb128 0x15
 2119 0105 21       		.uleb128 0x21
 2120 0106 00       		.byte	0
 2121 0107 49       		.uleb128 0x49
 2122 0108 13       		.uleb128 0x13
 2123 0109 2F       		.uleb128 0x2f
 2124 010a 0B       		.uleb128 0xb
 2125 010b 00       		.byte	0
 2126 010c 00       		.byte	0
 2127 010d 16       		.uleb128 0x16
 2128 010e 26       		.uleb128 0x26
 2129 010f 00       		.byte	0
 2130 0110 00       		.byte	0
 2131 0111 00       		.byte	0
 2132 0112 17       		.uleb128 0x17
 2133 0113 2E       		.uleb128 0x2e
 2134 0114 01       		.byte	0x1
 2135 0115 3F       		.uleb128 0x3f
 2136 0116 19       		.uleb128 0x19
 2137 0117 03       		.uleb128 0x3
 2138 0118 0E       		.uleb128 0xe
 2139 0119 3A       		.uleb128 0x3a
 2140 011a 0B       		.uleb128 0xb
 2141 011b 3B       		.uleb128 0x3b
 2142 011c 0B       		.uleb128 0xb
 2143 011d 27       		.uleb128 0x27
 2144 011e 19       		.uleb128 0x19
 2145 011f 11       		.uleb128 0x11
 2146 0120 01       		.uleb128 0x1
 2147 0121 12       		.uleb128 0x12
 2148 0122 06       		.uleb128 0x6
 2149 0123 40       		.uleb128 0x40
 2150 0124 18       		.uleb128 0x18
 2151 0125 9742     		.uleb128 0x2117
 2152 0127 19       		.uleb128 0x19
 2153 0128 01       		.uleb128 0x1
 2154 0129 13       		.uleb128 0x13
 2155 012a 00       		.byte	0
 2156 012b 00       		.byte	0
 2157 012c 18       		.uleb128 0x18
 2158 012d 05       		.uleb128 0x5
 2159 012e 00       		.byte	0
 2160 012f 03       		.uleb128 0x3
 2161 0130 0E       		.uleb128 0xe
 2162 0131 3A       		.uleb128 0x3a
ARM GAS  C:\Users\jo\AppData\Local\Temp\ccRRz0eu.s 			page 39


 2163 0132 0B       		.uleb128 0xb
 2164 0133 3B       		.uleb128 0x3b
 2165 0134 0B       		.uleb128 0xb
 2166 0135 49       		.uleb128 0x49
 2167 0136 13       		.uleb128 0x13
 2168 0137 02       		.uleb128 0x2
 2169 0138 18       		.uleb128 0x18
 2170 0139 00       		.byte	0
 2171 013a 00       		.byte	0
 2172 013b 19       		.uleb128 0x19
 2173 013c 2E       		.uleb128 0x2e
 2174 013d 01       		.byte	0x1
 2175 013e 3F       		.uleb128 0x3f
 2176 013f 19       		.uleb128 0x19
 2177 0140 03       		.uleb128 0x3
 2178 0141 0E       		.uleb128 0xe
 2179 0142 3A       		.uleb128 0x3a
 2180 0143 0B       		.uleb128 0xb
 2181 0144 3B       		.uleb128 0x3b
 2182 0145 0B       		.uleb128 0xb
 2183 0146 27       		.uleb128 0x27
 2184 0147 19       		.uleb128 0x19
 2185 0148 49       		.uleb128 0x49
 2186 0149 13       		.uleb128 0x13
 2187 014a 11       		.uleb128 0x11
 2188 014b 01       		.uleb128 0x1
 2189 014c 12       		.uleb128 0x12
 2190 014d 06       		.uleb128 0x6
 2191 014e 40       		.uleb128 0x40
 2192 014f 18       		.uleb128 0x18
 2193 0150 9742     		.uleb128 0x2117
 2194 0152 19       		.uleb128 0x19
 2195 0153 01       		.uleb128 0x1
 2196 0154 13       		.uleb128 0x13
 2197 0155 00       		.byte	0
 2198 0156 00       		.byte	0
 2199 0157 1A       		.uleb128 0x1a
 2200 0158 05       		.uleb128 0x5
 2201 0159 00       		.byte	0
 2202 015a 03       		.uleb128 0x3
 2203 015b 0E       		.uleb128 0xe
 2204 015c 3A       		.uleb128 0x3a
 2205 015d 0B       		.uleb128 0xb
 2206 015e 3B       		.uleb128 0x3b
 2207 015f 0B       		.uleb128 0xb
 2208 0160 49       		.uleb128 0x49
 2209 0161 13       		.uleb128 0x13
 2210 0162 02       		.uleb128 0x2
 2211 0163 17       		.uleb128 0x17
 2212 0164 00       		.byte	0
 2213 0165 00       		.byte	0
 2214 0166 1B       		.uleb128 0x1b
 2215 0167 34       		.uleb128 0x34
 2216 0168 00       		.byte	0
 2217 0169 03       		.uleb128 0x3
 2218 016a 08       		.uleb128 0x8
 2219 016b 3A       		.uleb128 0x3a
ARM GAS  C:\Users\jo\AppData\Local\Temp\ccRRz0eu.s 			page 40


 2220 016c 0B       		.uleb128 0xb
 2221 016d 3B       		.uleb128 0x3b
 2222 016e 0B       		.uleb128 0xb
 2223 016f 49       		.uleb128 0x49
 2224 0170 13       		.uleb128 0x13
 2225 0171 02       		.uleb128 0x2
 2226 0172 17       		.uleb128 0x17
 2227 0173 00       		.byte	0
 2228 0174 00       		.byte	0
 2229 0175 1C       		.uleb128 0x1c
 2230 0176 34       		.uleb128 0x34
 2231 0177 00       		.byte	0
 2232 0178 03       		.uleb128 0x3
 2233 0179 0E       		.uleb128 0xe
 2234 017a 3A       		.uleb128 0x3a
 2235 017b 0B       		.uleb128 0xb
 2236 017c 3B       		.uleb128 0x3b
 2237 017d 0B       		.uleb128 0xb
 2238 017e 49       		.uleb128 0x49
 2239 017f 13       		.uleb128 0x13
 2240 0180 02       		.uleb128 0x2
 2241 0181 17       		.uleb128 0x17
 2242 0182 00       		.byte	0
 2243 0183 00       		.byte	0
 2244 0184 1D       		.uleb128 0x1d
 2245 0185 898201   		.uleb128 0x4109
 2246 0188 01       		.byte	0x1
 2247 0189 11       		.uleb128 0x11
 2248 018a 01       		.uleb128 0x1
 2249 018b 31       		.uleb128 0x31
 2250 018c 13       		.uleb128 0x13
 2251 018d 01       		.uleb128 0x1
 2252 018e 13       		.uleb128 0x13
 2253 018f 00       		.byte	0
 2254 0190 00       		.byte	0
 2255 0191 1E       		.uleb128 0x1e
 2256 0192 8A8201   		.uleb128 0x410a
 2257 0195 00       		.byte	0
 2258 0196 02       		.uleb128 0x2
 2259 0197 18       		.uleb128 0x18
 2260 0198 9142     		.uleb128 0x2111
 2261 019a 18       		.uleb128 0x18
 2262 019b 00       		.byte	0
 2263 019c 00       		.byte	0
 2264 019d 1F       		.uleb128 0x1f
 2265 019e 898201   		.uleb128 0x4109
 2266 01a1 00       		.byte	0
 2267 01a2 11       		.uleb128 0x11
 2268 01a3 01       		.uleb128 0x1
 2269 01a4 31       		.uleb128 0x31
 2270 01a5 13       		.uleb128 0x13
 2271 01a6 00       		.byte	0
 2272 01a7 00       		.byte	0
 2273 01a8 20       		.uleb128 0x20
 2274 01a9 34       		.uleb128 0x34
 2275 01aa 00       		.byte	0
 2276 01ab 03       		.uleb128 0x3
ARM GAS  C:\Users\jo\AppData\Local\Temp\ccRRz0eu.s 			page 41


 2277 01ac 0E       		.uleb128 0xe
 2278 01ad 3A       		.uleb128 0x3a
 2279 01ae 0B       		.uleb128 0xb
 2280 01af 3B       		.uleb128 0x3b
 2281 01b0 0B       		.uleb128 0xb
 2282 01b1 49       		.uleb128 0x49
 2283 01b2 13       		.uleb128 0x13
 2284 01b3 00       		.byte	0
 2285 01b4 00       		.byte	0
 2286 01b5 21       		.uleb128 0x21
 2287 01b6 898201   		.uleb128 0x4109
 2288 01b9 01       		.byte	0x1
 2289 01ba 11       		.uleb128 0x11
 2290 01bb 01       		.uleb128 0x1
 2291 01bc 31       		.uleb128 0x31
 2292 01bd 13       		.uleb128 0x13
 2293 01be 00       		.byte	0
 2294 01bf 00       		.byte	0
 2295 01c0 22       		.uleb128 0x22
 2296 01c1 05       		.uleb128 0x5
 2297 01c2 00       		.byte	0
 2298 01c3 03       		.uleb128 0x3
 2299 01c4 08       		.uleb128 0x8
 2300 01c5 3A       		.uleb128 0x3a
 2301 01c6 0B       		.uleb128 0xb
 2302 01c7 3B       		.uleb128 0x3b
 2303 01c8 0B       		.uleb128 0xb
 2304 01c9 49       		.uleb128 0x49
 2305 01ca 13       		.uleb128 0x13
 2306 01cb 02       		.uleb128 0x2
 2307 01cc 17       		.uleb128 0x17
 2308 01cd 00       		.byte	0
 2309 01ce 00       		.byte	0
 2310 01cf 23       		.uleb128 0x23
 2311 01d0 21       		.uleb128 0x21
 2312 01d1 00       		.byte	0
 2313 01d2 00       		.byte	0
 2314 01d3 00       		.byte	0
 2315 01d4 24       		.uleb128 0x24
 2316 01d5 34       		.uleb128 0x34
 2317 01d6 00       		.byte	0
 2318 01d7 03       		.uleb128 0x3
 2319 01d8 0E       		.uleb128 0xe
 2320 01d9 3A       		.uleb128 0x3a
 2321 01da 0B       		.uleb128 0xb
 2322 01db 3B       		.uleb128 0x3b
 2323 01dc 05       		.uleb128 0x5
 2324 01dd 49       		.uleb128 0x49
 2325 01de 13       		.uleb128 0x13
 2326 01df 3F       		.uleb128 0x3f
 2327 01e0 19       		.uleb128 0x19
 2328 01e1 3C       		.uleb128 0x3c
 2329 01e2 19       		.uleb128 0x19
 2330 01e3 00       		.byte	0
 2331 01e4 00       		.byte	0
 2332 01e5 25       		.uleb128 0x25
 2333 01e6 2E       		.uleb128 0x2e
ARM GAS  C:\Users\jo\AppData\Local\Temp\ccRRz0eu.s 			page 42


 2334 01e7 01       		.byte	0x1
 2335 01e8 3F       		.uleb128 0x3f
 2336 01e9 19       		.uleb128 0x19
 2337 01ea 03       		.uleb128 0x3
 2338 01eb 0E       		.uleb128 0xe
 2339 01ec 3A       		.uleb128 0x3a
 2340 01ed 0B       		.uleb128 0xb
 2341 01ee 3B       		.uleb128 0x3b
 2342 01ef 0B       		.uleb128 0xb
 2343 01f0 27       		.uleb128 0x27
 2344 01f1 19       		.uleb128 0x19
 2345 01f2 49       		.uleb128 0x49
 2346 01f3 13       		.uleb128 0x13
 2347 01f4 3C       		.uleb128 0x3c
 2348 01f5 19       		.uleb128 0x19
 2349 01f6 01       		.uleb128 0x1
 2350 01f7 13       		.uleb128 0x13
 2351 01f8 00       		.byte	0
 2352 01f9 00       		.byte	0
 2353 01fa 26       		.uleb128 0x26
 2354 01fb 05       		.uleb128 0x5
 2355 01fc 00       		.byte	0
 2356 01fd 49       		.uleb128 0x49
 2357 01fe 13       		.uleb128 0x13
 2358 01ff 00       		.byte	0
 2359 0200 00       		.byte	0
 2360 0201 27       		.uleb128 0x27
 2361 0202 2E       		.uleb128 0x2e
 2362 0203 01       		.byte	0x1
 2363 0204 3F       		.uleb128 0x3f
 2364 0205 19       		.uleb128 0x19
 2365 0206 03       		.uleb128 0x3
 2366 0207 0E       		.uleb128 0xe
 2367 0208 27       		.uleb128 0x27
 2368 0209 19       		.uleb128 0x19
 2369 020a 49       		.uleb128 0x49
 2370 020b 13       		.uleb128 0x13
 2371 020c 34       		.uleb128 0x34
 2372 020d 19       		.uleb128 0x19
 2373 020e 3C       		.uleb128 0x3c
 2374 020f 19       		.uleb128 0x19
 2375 0210 01       		.uleb128 0x1
 2376 0211 13       		.uleb128 0x13
 2377 0212 00       		.byte	0
 2378 0213 00       		.byte	0
 2379 0214 28       		.uleb128 0x28
 2380 0215 2E       		.uleb128 0x2e
 2381 0216 01       		.byte	0x1
 2382 0217 3F       		.uleb128 0x3f
 2383 0218 19       		.uleb128 0x19
 2384 0219 03       		.uleb128 0x3
 2385 021a 0E       		.uleb128 0xe
 2386 021b 3A       		.uleb128 0x3a
 2387 021c 0B       		.uleb128 0xb
 2388 021d 3B       		.uleb128 0x3b
 2389 021e 05       		.uleb128 0x5
 2390 021f 27       		.uleb128 0x27
ARM GAS  C:\Users\jo\AppData\Local\Temp\ccRRz0eu.s 			page 43


 2391 0220 19       		.uleb128 0x19
 2392 0221 49       		.uleb128 0x49
 2393 0222 13       		.uleb128 0x13
 2394 0223 3C       		.uleb128 0x3c
 2395 0224 19       		.uleb128 0x19
 2396 0225 01       		.uleb128 0x1
 2397 0226 13       		.uleb128 0x13
 2398 0227 00       		.byte	0
 2399 0228 00       		.byte	0
 2400 0229 29       		.uleb128 0x29
 2401 022a 2E       		.uleb128 0x2e
 2402 022b 01       		.byte	0x1
 2403 022c 3F       		.uleb128 0x3f
 2404 022d 19       		.uleb128 0x19
 2405 022e 03       		.uleb128 0x3
 2406 022f 0E       		.uleb128 0xe
 2407 0230 3A       		.uleb128 0x3a
 2408 0231 0B       		.uleb128 0xb
 2409 0232 3B       		.uleb128 0x3b
 2410 0233 0B       		.uleb128 0xb
 2411 0234 27       		.uleb128 0x27
 2412 0235 19       		.uleb128 0x19
 2413 0236 3C       		.uleb128 0x3c
 2414 0237 19       		.uleb128 0x19
 2415 0238 01       		.uleb128 0x1
 2416 0239 13       		.uleb128 0x13
 2417 023a 00       		.byte	0
 2418 023b 00       		.byte	0
 2419 023c 2A       		.uleb128 0x2a
 2420 023d 2E       		.uleb128 0x2e
 2421 023e 01       		.byte	0x1
 2422 023f 3F       		.uleb128 0x3f
 2423 0240 19       		.uleb128 0x19
 2424 0241 03       		.uleb128 0x3
 2425 0242 0E       		.uleb128 0xe
 2426 0243 3A       		.uleb128 0x3a
 2427 0244 0B       		.uleb128 0xb
 2428 0245 3B       		.uleb128 0x3b
 2429 0246 05       		.uleb128 0x5
 2430 0247 27       		.uleb128 0x27
 2431 0248 19       		.uleb128 0x19
 2432 0249 3C       		.uleb128 0x3c
 2433 024a 19       		.uleb128 0x19
 2434 024b 00       		.byte	0
 2435 024c 00       		.byte	0
 2436 024d 00       		.byte	0
 2437              		.section	.debug_loc,"",%progbits
 2438              	.Ldebug_loc0:
 2439              	.LLST0:
 2440 0000 00000000 		.4byte	.LVL1
 2441 0004 08000000 		.4byte	.LVL2
 2442 0008 0100     		.2byte	0x1
 2443 000a 50       		.byte	0x50
 2444 000b 08000000 		.4byte	.LVL2
 2445 000f 1E000000 		.4byte	.LVL6
 2446 0013 0100     		.2byte	0x1
 2447 0015 55       		.byte	0x55
ARM GAS  C:\Users\jo\AppData\Local\Temp\ccRRz0eu.s 			page 44


 2448 0016 1E000000 		.4byte	.LVL6
 2449 001a C0000000 		.4byte	.LFE2
 2450 001e 0400     		.2byte	0x4
 2451 0020 F3       		.byte	0xf3
 2452 0021 01       		.uleb128 0x1
 2453 0022 50       		.byte	0x50
 2454 0023 9F       		.byte	0x9f
 2455 0024 00000000 		.4byte	0
 2456 0028 00000000 		.4byte	0
 2457              	.LLST1:
 2458 002c 00000000 		.4byte	.LVL1
 2459 0030 0D000000 		.4byte	.LVL3-1
 2460 0034 0100     		.2byte	0x1
 2461 0036 51       		.byte	0x51
 2462 0037 0D000000 		.4byte	.LVL3-1
 2463 003b C0000000 		.4byte	.LFE2
 2464 003f 0100     		.2byte	0x1
 2465 0041 57       		.byte	0x57
 2466 0042 00000000 		.4byte	0
 2467 0046 00000000 		.4byte	0
 2468              	.LLST2:
 2469 004a 0E000000 		.4byte	.LVL3
 2470 004e 16000000 		.4byte	.LVL5
 2471 0052 0100     		.2byte	0x1
 2472 0054 58       		.byte	0x58
 2473 0055 00000000 		.4byte	0
 2474 0059 00000000 		.4byte	0
 2475              	.LLST3:
 2476 005d 0E000000 		.4byte	.LVL3
 2477 0061 1E000000 		.4byte	.LVL6
 2478 0065 0100     		.2byte	0x1
 2479 0067 55       		.byte	0x55
 2480 0068 1E000000 		.4byte	.LVL6
 2481 006c C0000000 		.4byte	.LFE2
 2482 0070 0400     		.2byte	0x4
 2483 0072 F3       		.byte	0xf3
 2484 0073 01       		.uleb128 0x1
 2485 0074 50       		.byte	0x50
 2486 0075 9F       		.byte	0x9f
 2487 0076 00000000 		.4byte	0
 2488 007a 00000000 		.4byte	0
 2489              	.LLST4:
 2490 007e 10000000 		.4byte	.LVL4
 2491 0082 1E000000 		.4byte	.LVL6
 2492 0086 0100     		.2byte	0x1
 2493 0088 54       		.byte	0x54
 2494 0089 1E000000 		.4byte	.LVL6
 2495 008d 24000000 		.4byte	.LVL8
 2496 0091 0100     		.2byte	0x1
 2497 0093 55       		.byte	0x55
 2498 0094 24000000 		.4byte	.LVL8
 2499 0098 26000000 		.4byte	.LVL9
 2500 009c 0100     		.2byte	0x1
 2501 009e 54       		.byte	0x54
 2502 009f 26000000 		.4byte	.LVL9
 2503 00a3 66000000 		.4byte	.LVL11
 2504 00a7 0100     		.2byte	0x1
ARM GAS  C:\Users\jo\AppData\Local\Temp\ccRRz0eu.s 			page 45


 2505 00a9 55       		.byte	0x55
 2506 00aa 00000000 		.4byte	0
 2507 00ae 00000000 		.4byte	0
 2508              	.LLST5:
 2509 00b2 10000000 		.4byte	.LVL4
 2510 00b6 1E000000 		.4byte	.LVL6
 2511 00ba 0200     		.2byte	0x2
 2512 00bc 30       		.byte	0x30
 2513 00bd 9F       		.byte	0x9f
 2514 00be 1E000000 		.4byte	.LVL6
 2515 00c2 20000000 		.4byte	.LVL7
 2516 00c6 0100     		.2byte	0x1
 2517 00c8 54       		.byte	0x54
 2518 00c9 24000000 		.4byte	.LVL8
 2519 00cd B6000000 		.4byte	.LVL16
 2520 00d1 0100     		.2byte	0x1
 2521 00d3 54       		.byte	0x54
 2522 00d4 00000000 		.4byte	0
 2523 00d8 00000000 		.4byte	0
 2524              	.LLST6:
 2525 00dc 00000000 		.4byte	.LVL17
 2526 00e0 0C000000 		.4byte	.LVL18
 2527 00e4 0100     		.2byte	0x1
 2528 00e6 50       		.byte	0x50
 2529 00e7 0C000000 		.4byte	.LVL18
 2530 00eb 18000000 		.4byte	.LVL20
 2531 00ef 0100     		.2byte	0x1
 2532 00f1 54       		.byte	0x54
 2533 00f2 18000000 		.4byte	.LVL20
 2534 00f6 2E000000 		.4byte	.LVL22
 2535 00fa 0100     		.2byte	0x1
 2536 00fc 52       		.byte	0x52
 2537 00fd 2E000000 		.4byte	.LVL22
 2538 0101 24010000 		.4byte	.LVL50
 2539 0105 0200     		.2byte	0x2
 2540 0107 91       		.byte	0x91
 2541 0108 54       		.sleb128 -44
 2542 0109 24010000 		.4byte	.LVL50
 2543 010d 29010000 		.4byte	.LVL52-1
 2544 0111 0100     		.2byte	0x1
 2545 0113 52       		.byte	0x52
 2546 0114 29010000 		.4byte	.LVL52-1
 2547 0118 40010000 		.4byte	.LFE3
 2548 011c 0200     		.2byte	0x2
 2549 011e 91       		.byte	0x91
 2550 011f 54       		.sleb128 -44
 2551 0120 00000000 		.4byte	0
 2552 0124 00000000 		.4byte	0
 2553              	.LLST7:
 2554 0128 00000000 		.4byte	.LVL17
 2555 012c 13000000 		.4byte	.LVL19-1
 2556 0130 0100     		.2byte	0x1
 2557 0132 51       		.byte	0x51
 2558 0133 13000000 		.4byte	.LVL19-1
 2559 0137 2E000000 		.4byte	.LVL22
 2560 013b 0100     		.2byte	0x1
 2561 013d 55       		.byte	0x55
ARM GAS  C:\Users\jo\AppData\Local\Temp\ccRRz0eu.s 			page 46


 2562 013e 2E000000 		.4byte	.LVL22
 2563 0142 9C000000 		.4byte	.LVL37
 2564 0146 0200     		.2byte	0x2
 2565 0148 7D       		.byte	0x7d
 2566 0149 00       		.sleb128 0
 2567 014a 9C000000 		.4byte	.LVL37
 2568 014e A0000000 		.4byte	.LVL38
 2569 0152 0200     		.2byte	0x2
 2570 0154 91       		.byte	0x91
 2571 0155 50       		.sleb128 -48
 2572 0156 A0000000 		.4byte	.LVL38
 2573 015a C6000000 		.4byte	.LVL42
 2574 015e 0200     		.2byte	0x2
 2575 0160 7D       		.byte	0x7d
 2576 0161 00       		.sleb128 0
 2577 0162 C6000000 		.4byte	.LVL42
 2578 0166 CA000000 		.4byte	.LVL43
 2579 016a 0200     		.2byte	0x2
 2580 016c 91       		.byte	0x91
 2581 016d 50       		.sleb128 -48
 2582 016e CA000000 		.4byte	.LVL43
 2583 0172 CE000000 		.4byte	.LVL44
 2584 0176 0200     		.2byte	0x2
 2585 0178 7D       		.byte	0x7d
 2586 0179 00       		.sleb128 0
 2587 017a CE000000 		.4byte	.LVL44
 2588 017e D2000000 		.4byte	.LVL45
 2589 0182 0200     		.2byte	0x2
 2590 0184 91       		.byte	0x91
 2591 0185 50       		.sleb128 -48
 2592 0186 D2000000 		.4byte	.LVL45
 2593 018a 24010000 		.4byte	.LVL50
 2594 018e 0200     		.2byte	0x2
 2595 0190 7D       		.byte	0x7d
 2596 0191 00       		.sleb128 0
 2597 0192 24010000 		.4byte	.LVL50
 2598 0196 40010000 		.4byte	.LFE3
 2599 019a 0100     		.2byte	0x1
 2600 019c 55       		.byte	0x55
 2601 019d 00000000 		.4byte	0
 2602 01a1 00000000 		.4byte	0
 2603              	.LLST8:
 2604 01a5 1A000000 		.4byte	.LVL21
 2605 01a9 2E000000 		.4byte	.LVL22
 2606 01ad 0100     		.2byte	0x1
 2607 01af 50       		.byte	0x50
 2608 01b0 2E000000 		.4byte	.LVL22
 2609 01b4 24010000 		.4byte	.LVL50
 2610 01b8 0100     		.2byte	0x1
 2611 01ba 59       		.byte	0x59
 2612 01bb 24010000 		.4byte	.LVL50
 2613 01bf 26010000 		.4byte	.LVL51
 2614 01c3 0100     		.2byte	0x1
 2615 01c5 50       		.byte	0x50
 2616 01c6 26010000 		.4byte	.LVL51
 2617 01ca 40010000 		.4byte	.LFE3
 2618 01ce 0100     		.2byte	0x1
ARM GAS  C:\Users\jo\AppData\Local\Temp\ccRRz0eu.s 			page 47


 2619 01d0 59       		.byte	0x59
 2620 01d1 00000000 		.4byte	0
 2621 01d5 00000000 		.4byte	0
 2622              	.LLST9:
 2623 01d9 1A000000 		.4byte	.LVL21
 2624 01dd 2E000000 		.4byte	.LVL22
 2625 01e1 0200     		.2byte	0x2
 2626 01e3 30       		.byte	0x30
 2627 01e4 9F       		.byte	0x9f
 2628 01e5 2E000000 		.4byte	.LVL22
 2629 01e9 68000000 		.4byte	.LVL30
 2630 01ed 0100     		.2byte	0x1
 2631 01ef 5A       		.byte	0x5a
 2632 01f0 6A000000 		.4byte	.LVL31
 2633 01f4 6E000000 		.4byte	.LVL33
 2634 01f8 0100     		.2byte	0x1
 2635 01fa 5A       		.byte	0x5a
 2636 01fb A0000000 		.4byte	.LVL38
 2637 01ff C2000000 		.4byte	.LVL41
 2638 0203 0100     		.2byte	0x1
 2639 0205 5A       		.byte	0x5a
 2640 0206 D2000000 		.4byte	.LVL45
 2641 020a 1E010000 		.4byte	.LVL49
 2642 020e 0100     		.2byte	0x1
 2643 0210 5A       		.byte	0x5a
 2644 0211 24010000 		.4byte	.LVL50
 2645 0215 40010000 		.4byte	.LFE3
 2646 0219 0200     		.2byte	0x2
 2647 021b 30       		.byte	0x30
 2648 021c 9F       		.byte	0x9f
 2649 021d 00000000 		.4byte	0
 2650 0221 00000000 		.4byte	0
 2651              	.LLST10:
 2652 0225 1A000000 		.4byte	.LVL21
 2653 0229 5A000000 		.4byte	.LVL27
 2654 022d 0100     		.2byte	0x1
 2655 022f 54       		.byte	0x54
 2656 0230 5A000000 		.4byte	.LVL27
 2657 0234 60000000 		.4byte	.LVL29
 2658 0238 0100     		.2byte	0x1
 2659 023a 55       		.byte	0x55
 2660 023b 60000000 		.4byte	.LVL29
 2661 023f 6E000000 		.4byte	.LVL33
 2662 0243 0100     		.2byte	0x1
 2663 0245 54       		.byte	0x54
 2664 0246 6E000000 		.4byte	.LVL33
 2665 024a A0000000 		.4byte	.LVL38
 2666 024e 0100     		.2byte	0x1
 2667 0250 57       		.byte	0x57
 2668 0251 A0000000 		.4byte	.LVL38
 2669 0255 B0000000 		.4byte	.LVL39
 2670 0259 0100     		.2byte	0x1
 2671 025b 55       		.byte	0x55
 2672 025c B0000000 		.4byte	.LVL39
 2673 0260 BB000000 		.4byte	.LVL40-1
 2674 0264 0100     		.2byte	0x1
 2675 0266 50       		.byte	0x50
ARM GAS  C:\Users\jo\AppData\Local\Temp\ccRRz0eu.s 			page 48


 2676 0267 BB000000 		.4byte	.LVL40-1
 2677 026b D2000000 		.4byte	.LVL45
 2678 026f 0100     		.2byte	0x1
 2679 0271 57       		.byte	0x57
 2680 0272 D2000000 		.4byte	.LVL45
 2681 0276 DA000000 		.4byte	.LVL46
 2682 027a 0100     		.2byte	0x1
 2683 027c 54       		.byte	0x54
 2684 027d DA000000 		.4byte	.LVL46
 2685 0281 24010000 		.4byte	.LVL50
 2686 0285 0100     		.2byte	0x1
 2687 0287 57       		.byte	0x57
 2688 0288 24010000 		.4byte	.LVL50
 2689 028c 2A010000 		.4byte	.LVL52
 2690 0290 0100     		.2byte	0x1
 2691 0292 54       		.byte	0x54
 2692 0293 2A010000 		.4byte	.LVL52
 2693 0297 37010000 		.4byte	.LVL53-1
 2694 029b 0100     		.2byte	0x1
 2695 029d 50       		.byte	0x50
 2696 029e 37010000 		.4byte	.LVL53-1
 2697 02a2 40010000 		.4byte	.LFE3
 2698 02a6 0100     		.2byte	0x1
 2699 02a8 57       		.byte	0x57
 2700 02a9 00000000 		.4byte	0
 2701 02ad 00000000 		.4byte	0
 2702              	.LLST11:
 2703 02b1 1A000000 		.4byte	.LVL21
 2704 02b5 58000000 		.4byte	.LVL26
 2705 02b9 0200     		.2byte	0x2
 2706 02bb 30       		.byte	0x30
 2707 02bc 9F       		.byte	0x9f
 2708 02bd 58000000 		.4byte	.LVL26
 2709 02c1 5E000000 		.4byte	.LVL28
 2710 02c5 0100     		.2byte	0x1
 2711 02c7 54       		.byte	0x54
 2712 02c8 60000000 		.4byte	.LVL29
 2713 02cc 6E000000 		.4byte	.LVL33
 2714 02d0 0200     		.2byte	0x2
 2715 02d2 30       		.byte	0x30
 2716 02d3 9F       		.byte	0x9f
 2717 02d4 A0000000 		.4byte	.LVL38
 2718 02d8 C2000000 		.4byte	.LVL41
 2719 02dc 0100     		.2byte	0x1
 2720 02de 54       		.byte	0x54
 2721 02df D2000000 		.4byte	.LVL45
 2722 02e3 DA000000 		.4byte	.LVL46
 2723 02e7 0200     		.2byte	0x2
 2724 02e9 30       		.byte	0x30
 2725 02ea 9F       		.byte	0x9f
 2726 02eb DA000000 		.4byte	.LVL46
 2727 02ef 1E010000 		.4byte	.LVL49
 2728 02f3 0100     		.2byte	0x1
 2729 02f5 54       		.byte	0x54
 2730 02f6 24010000 		.4byte	.LVL50
 2731 02fa 40010000 		.4byte	.LFE3
 2732 02fe 0200     		.2byte	0x2
ARM GAS  C:\Users\jo\AppData\Local\Temp\ccRRz0eu.s 			page 49


 2733 0300 30       		.byte	0x30
 2734 0301 9F       		.byte	0x9f
 2735 0302 00000000 		.4byte	0
 2736 0306 00000000 		.4byte	0
 2737              	.LLST12:
 2738 030a 1A000000 		.4byte	.LVL21
 2739 030e 2E000000 		.4byte	.LVL22
 2740 0312 0200     		.2byte	0x2
 2741 0314 30       		.byte	0x30
 2742 0315 9F       		.byte	0x9f
 2743 0316 56000000 		.4byte	.LVL25
 2744 031a 58000000 		.4byte	.LVL26
 2745 031e 0100     		.2byte	0x1
 2746 0320 54       		.byte	0x54
 2747 0321 24010000 		.4byte	.LVL50
 2748 0325 40010000 		.4byte	.LFE3
 2749 0329 0200     		.2byte	0x2
 2750 032b 30       		.byte	0x30
 2751 032c 9F       		.byte	0x9f
 2752 032d 00000000 		.4byte	0
 2753 0331 00000000 		.4byte	0
 2754              	.LLST13:
 2755 0335 1A000000 		.4byte	.LVL21
 2756 0339 2E000000 		.4byte	.LVL22
 2757 033d 0200     		.2byte	0x2
 2758 033f 30       		.byte	0x30
 2759 0340 9F       		.byte	0x9f
 2760 0341 2E000000 		.4byte	.LVL22
 2761 0345 6C000000 		.4byte	.LVL32
 2762 0349 0100     		.2byte	0x1
 2763 034b 5B       		.byte	0x5b
 2764 034c A0000000 		.4byte	.LVL38
 2765 0350 C2000000 		.4byte	.LVL41
 2766 0354 0100     		.2byte	0x1
 2767 0356 5B       		.byte	0x5b
 2768 0357 D2000000 		.4byte	.LVL45
 2769 035b 1E010000 		.4byte	.LVL49
 2770 035f 0100     		.2byte	0x1
 2771 0361 5B       		.byte	0x5b
 2772 0362 24010000 		.4byte	.LVL50
 2773 0366 40010000 		.4byte	.LFE3
 2774 036a 0200     		.2byte	0x2
 2775 036c 30       		.byte	0x30
 2776 036d 9F       		.byte	0x9f
 2777 036e 00000000 		.4byte	0
 2778 0372 00000000 		.4byte	0
 2779              	.LLST14:
 2780 0376 00000000 		.4byte	.LVL54
 2781 037a 00000000 		.4byte	.LVL54
 2782 037e 0100     		.2byte	0x1
 2783 0380 51       		.byte	0x51
 2784 0381 00000000 		.4byte	.LVL54
 2785 0385 04000000 		.4byte	.LVL55
 2786 0389 0D00     		.2byte	0xd
 2787 038b 71       		.byte	0x71
 2788 038c 00       		.sleb128 0
 2789 038d 12       		.byte	0x12
ARM GAS  C:\Users\jo\AppData\Local\Temp\ccRRz0eu.s 			page 50


 2790 038e 30       		.byte	0x30
 2791 038f 16       		.byte	0x16
 2792 0390 14       		.byte	0x14
 2793 0391 2B       		.byte	0x2b
 2794 0392 28       		.byte	0x28
 2795 0393 0100     		.2byte	0x1
 2796 0395 16       		.byte	0x16
 2797 0396 13       		.byte	0x13
 2798 0397 9F       		.byte	0x9f
 2799 0398 04000000 		.4byte	.LVL55
 2800 039c 08000000 		.4byte	.LFE4
 2801 03a0 0100     		.2byte	0x1
 2802 03a2 51       		.byte	0x51
 2803 03a3 00000000 		.4byte	0
 2804 03a7 00000000 		.4byte	0
 2805              	.LLST15:
 2806 03ab 00000000 		.4byte	.LVL56
 2807 03af 00000000 		.4byte	.LVL56
 2808 03b3 0100     		.2byte	0x1
 2809 03b5 51       		.byte	0x51
 2810 03b6 00000000 		.4byte	.LVL56
 2811 03ba 04000000 		.4byte	.LVL57
 2812 03be 0D00     		.2byte	0xd
 2813 03c0 71       		.byte	0x71
 2814 03c1 00       		.sleb128 0
 2815 03c2 12       		.byte	0x12
 2816 03c3 30       		.byte	0x30
 2817 03c4 16       		.byte	0x16
 2818 03c5 14       		.byte	0x14
 2819 03c6 2B       		.byte	0x2b
 2820 03c7 28       		.byte	0x28
 2821 03c8 0100     		.2byte	0x1
 2822 03ca 16       		.byte	0x16
 2823 03cb 13       		.byte	0x13
 2824 03cc 9F       		.byte	0x9f
 2825 03cd 04000000 		.4byte	.LVL57
 2826 03d1 08000000 		.4byte	.LFE5
 2827 03d5 0100     		.2byte	0x1
 2828 03d7 51       		.byte	0x51
 2829 03d8 00000000 		.4byte	0
 2830 03dc 00000000 		.4byte	0
 2831              	.LLST16:
 2832 03e0 00000000 		.4byte	.LVL58
 2833 03e4 06000000 		.4byte	.LVL60
 2834 03e8 0100     		.2byte	0x1
 2835 03ea 50       		.byte	0x50
 2836 03eb 06000000 		.4byte	.LVL60
 2837 03ef 26000000 		.4byte	.LFE6
 2838 03f3 0400     		.2byte	0x4
 2839 03f5 F3       		.byte	0xf3
 2840 03f6 01       		.uleb128 0x1
 2841 03f7 50       		.byte	0x50
 2842 03f8 9F       		.byte	0x9f
 2843 03f9 00000000 		.4byte	0
 2844 03fd 00000000 		.4byte	0
 2845              	.LLST17:
 2846 0401 04000000 		.4byte	.LVL59
ARM GAS  C:\Users\jo\AppData\Local\Temp\ccRRz0eu.s 			page 51


 2847 0405 0A000000 		.4byte	.LVL61
 2848 0409 0100     		.2byte	0x1
 2849 040b 54       		.byte	0x54
 2850 040c 0A000000 		.4byte	.LVL61
 2851 0410 24000000 		.4byte	.LVL66
 2852 0414 0100     		.2byte	0x1
 2853 0416 55       		.byte	0x55
 2854 0417 24000000 		.4byte	.LVL66
 2855 041b 26000000 		.4byte	.LFE6
 2856 041f 0100     		.2byte	0x1
 2857 0421 54       		.byte	0x54
 2858 0422 00000000 		.4byte	0
 2859 0426 00000000 		.4byte	0
 2860              	.LLST18:
 2861 042a 06000000 		.4byte	.LVL60
 2862 042e 20000000 		.4byte	.LVL65
 2863 0432 0100     		.2byte	0x1
 2864 0434 54       		.byte	0x54
 2865 0435 00000000 		.4byte	0
 2866 0439 00000000 		.4byte	0
 2867              		.section	.debug_aranges,"",%progbits
 2868 0000 44000000 		.4byte	0x44
 2869 0004 0200     		.2byte	0x2
 2870 0006 00000000 		.4byte	.Ldebug_info0
 2871 000a 04       		.byte	0x4
 2872 000b 00       		.byte	0
 2873 000c 0000     		.2byte	0
 2874 000e 0000     		.2byte	0
 2875 0010 00000000 		.4byte	.LFB1
 2876 0014 40000000 		.4byte	.LFE1-.LFB1
 2877 0018 00000000 		.4byte	.LFB2
 2878 001c C0000000 		.4byte	.LFE2-.LFB2
 2879 0020 00000000 		.4byte	.LFB3
 2880 0024 40010000 		.4byte	.LFE3-.LFB3
 2881 0028 00000000 		.4byte	.LFB4
 2882 002c 08000000 		.4byte	.LFE4-.LFB4
 2883 0030 00000000 		.4byte	.LFB5
 2884 0034 08000000 		.4byte	.LFE5-.LFB5
 2885 0038 00000000 		.4byte	.LFB6
 2886 003c 26000000 		.4byte	.LFE6-.LFB6
 2887 0040 00000000 		.4byte	0
 2888 0044 00000000 		.4byte	0
 2889              		.section	.debug_ranges,"",%progbits
 2890              	.Ldebug_ranges0:
 2891 0000 00000000 		.4byte	.LFB1
 2892 0004 40000000 		.4byte	.LFE1
 2893 0008 00000000 		.4byte	.LFB2
 2894 000c C0000000 		.4byte	.LFE2
 2895 0010 00000000 		.4byte	.LFB3
 2896 0014 40010000 		.4byte	.LFE3
 2897 0018 00000000 		.4byte	.LFB4
 2898 001c 08000000 		.4byte	.LFE4
 2899 0020 00000000 		.4byte	.LFB5
 2900 0024 08000000 		.4byte	.LFE5
 2901 0028 00000000 		.4byte	.LFB6
 2902 002c 26000000 		.4byte	.LFE6
 2903 0030 00000000 		.4byte	0
ARM GAS  C:\Users\jo\AppData\Local\Temp\ccRRz0eu.s 			page 52


 2904 0034 00000000 		.4byte	0
 2905              		.section	.debug_line,"",%progbits
 2906              	.Ldebug_line0:
 2907 0000 75030000 		.section	.debug_str,"MS",%progbits,1
 2907      02007102 
 2907      00000201 
 2907      FB0E0D00 
 2907      01010101 
 2908              	.LASF45:
 2909 0000 76335F65 		.ascii	"v3_ext\000"
 2909      787400
 2910              	.LASF51:
 2911 0007 6578745F 		.ascii	"ext_key_usage\000"
 2911      6B65795F 
 2911      75736167 
 2911      6500
 2912              	.LASF48:
 2913 0015 63615F69 		.ascii	"ca_istrue\000"
 2913      73747275 
 2913      6500
 2914              	.LASF44:
 2915 001f 7375626A 		.ascii	"subject_id\000"
 2915      6563745F 
 2915      696400
 2916              	.LASF91:
 2917 002a 474E5520 		.ascii	"GNU C 4.9.3 20141119 (release) [ARM/embedded-4_9-br"
 2917      4320342E 
 2917      392E3320 
 2917      32303134 
 2917      31313139 
 2918 005d 616E6368 		.ascii	"anch revision 218278] -mcpu=cortex-m4 -mno-thumb-in"
 2918      20726576 
 2918      6973696F 
 2918      6E203231 
 2918      38323738 
 2919 0090 74657277 		.ascii	"terwork -mthumb -ggdb -O2 -fomit-frame-pointer -fal"
 2919      6F726B20 
 2919      2D6D7468 
 2919      756D6220 
 2919      2D676764 
 2920 00c3 69676E2D 		.ascii	"ign-functions=16 -ffunction-sections -fdata-section"
 2920      66756E63 
 2920      74696F6E 
 2920      733D3136 
 2920      202D6666 
 2921 00f6 73202D66 		.ascii	"s -fno-common\000"
 2921      6E6F2D63 
 2921      6F6D6D6F 
 2921      6E00
 2922              	.LASF0:
 2923 0104 756E7369 		.ascii	"unsigned int\000"
 2923      676E6564 
 2923      20696E74 
 2923      00
 2924              	.LASF22:
 2925 0111 6E657874 		.ascii	"next\000"
 2925      00
ARM GAS  C:\Users\jo\AppData\Local\Temp\ccRRz0eu.s 			page 53


 2926              	.LASF33:
 2927 0116 76657273 		.ascii	"version\000"
 2927      696F6E00 
 2928              	.LASF39:
 2929 011e 7375626A 		.ascii	"subject\000"
 2929      65637400 
 2930              	.LASF77:
 2931 0126 73736C5F 		.ascii	"ssl_cache_set\000"
 2931      63616368 
 2931      655F7365 
 2931      7400
 2932              	.LASF43:
 2933 0134 69737375 		.ascii	"issuer_id\000"
 2933      65725F69 
 2933      6400
 2934              	.LASF15:
 2935 013e 745F7569 		.ascii	"t_uint\000"
 2935      6E7400
 2936              	.LASF80:
 2937 0145 73736C5F 		.ascii	"ssl_cache_init\000"
 2937      63616368 
 2937      655F696E 
 2937      697400
 2938              	.LASF14:
 2939 0154 75696E74 		.ascii	"uint32_t\000"
 2939      33325F74 
 2939      00
 2940              	.LASF41:
 2941 015d 76616C69 		.ascii	"valid_to\000"
 2941      645F746F 
 2941      00
 2942              	.LASF86:
 2943 0166 6D616C6C 		.ascii	"malloc\000"
 2943      6F6300
 2944              	.LASF79:
 2945 016d 636F756E 		.ascii	"count\000"
 2945      7400
 2946              	.LASF95:
 2947 0173 73736C5F 		.ascii	"ssl_session_free\000"
 2947      73657373 
 2947      696F6E5F 
 2947      66726565 
 2947      00
 2948              	.LASF56:
 2949 0184 73736C5F 		.ascii	"ssl_session\000"
 2949      73657373 
 2949      696F6E00 
 2950              	.LASF49:
 2951 0190 6D61785F 		.ascii	"max_pathlen\000"
 2951      70617468 
 2951      6C656E00 
 2952              	.LASF10:
 2953 019c 6C6F6E67 		.ascii	"long long unsigned int\000"
 2953      206C6F6E 
 2953      6720756E 
 2953      7369676E 
 2953      65642069 
ARM GAS  C:\Users\jo\AppData\Local\Temp\ccRRz0eu.s 			page 54


 2954              	.LASF24:
 2955 01b3 78353039 		.ascii	"x509_buf\000"
 2955      5F627566 
 2955      00
 2956              	.LASF50:
 2957 01bc 6B65795F 		.ascii	"key_usage\000"
 2957      75736167 
 2957      6500
 2958              	.LASF84:
 2959 01c6 74696D65 		.ascii	"time\000"
 2959      00
 2960              	.LASF25:
 2961 01cb 5F783530 		.ascii	"_x509_name\000"
 2961      395F6E61 
 2961      6D6500
 2962              	.LASF70:
 2963 01d6 5F73736C 		.ascii	"_ssl_cache_entry\000"
 2963      5F636163 
 2963      68655F65 
 2963      6E747279 
 2963      00
 2964              	.LASF47:
 2965 01e7 6578745F 		.ascii	"ext_types\000"
 2965      74797065 
 2965      7300
 2966              	.LASF59:
 2967 01f1 63697068 		.ascii	"ciphersuite\000"
 2967      65727375 
 2967      69746500 
 2968              	.LASF35:
 2969 01fd 7369675F 		.ascii	"sig_oid1\000"
 2969      6F696431 
 2969      00
 2970              	.LASF53:
 2971 0206 7369675F 		.ascii	"sig_oid2\000"
 2971      6F696432 
 2971      00
 2972              	.LASF6:
 2973 020f 73697A65 		.ascii	"size_t\000"
 2973      5F7400
 2974              	.LASF76:
 2975 0216 73736C5F 		.ascii	"ssl_cache_get\000"
 2975      63616368 
 2975      655F6765 
 2975      7400
 2976              	.LASF89:
 2977 0224 66726565 		.ascii	"free\000"
 2977      00
 2978              	.LASF30:
 2979 0229 686F7572 		.ascii	"hour\000"
 2979      00
 2980              	.LASF93:
 2981 022e 433A5C55 		.ascii	"C:\\Users\\jo\\Documents\\GitHub\\ChibiOS\\demos\\S"
 2981      73657273 
 2981      5C6A6F5C 
 2981      446F6375 
 2981      6D656E74 
ARM GAS  C:\Users\jo\AppData\Local\Temp\ccRRz0eu.s 			page 55


 2982 025a 544D3332 		.ascii	"TM32\\RT-STM32F407-DISCOVERY-uHttp\000"
 2982      5C52542D 
 2982      53544D33 
 2982      32463430 
 2982      372D4449 
 2983              	.LASF12:
 2984 027c 63686172 		.ascii	"char\000"
 2984      00
 2985              	.LASF46:
 2986 0281 7375626A 		.ascii	"subject_alt_names\000"
 2986      6563745F 
 2986      616C745F 
 2986      6E616D65 
 2986      7300
 2987              	.LASF65:
 2988 0293 5F73736C 		.ascii	"_ssl_cache_context\000"
 2988      5F636163 
 2988      68655F63 
 2988      6F6E7465 
 2988      787400
 2989              	.LASF74:
 2990 02a6 64617461 		.ascii	"data\000"
 2990      00
 2991              	.LASF78:
 2992 02ab 6F6C6465 		.ascii	"oldest\000"
 2992      737400
 2993              	.LASF32:
 2994 02b2 5F783530 		.ascii	"_x509_cert\000"
 2994      395F6365 
 2994      727400
 2995              	.LASF13:
 2996 02bd 74696D65 		.ascii	"time_t\000"
 2996      5F7400
 2997              	.LASF38:
 2998 02c4 69737375 		.ascii	"issuer\000"
 2998      657200
 2999              	.LASF87:
 3000 02cb 78353039 		.ascii	"x509parse_crt\000"
 3000      70617273 
 3000      655F6372 
 3000      7400
 3001              	.LASF52:
 3002 02d9 6E735F63 		.ascii	"ns_cert_type\000"
 3002      6572745F 
 3002      74797065 
 3002      00
 3003              	.LASF9:
 3004 02e6 6C6F6E67 		.ascii	"long long int\000"
 3004      206C6F6E 
 3004      6720696E 
 3004      7400
 3005              	.LASF68:
 3006 02f4 6D61785F 		.ascii	"max_entries\000"
 3006      656E7472 
 3006      69657300 
 3007              	.LASF28:
 3008 0300 5F783530 		.ascii	"_x509_time\000"
ARM GAS  C:\Users\jo\AppData\Local\Temp\ccRRz0eu.s 			page 56


 3008      395F7469 
 3008      6D6500
 3009              	.LASF16:
 3010 030b 70616464 		.ascii	"padding\000"
 3010      696E6700 
 3011              	.LASF21:
 3012 0313 5F61736E 		.ascii	"_asn1_sequence\000"
 3012      315F7365 
 3012      7175656E 
 3012      636500
 3013              	.LASF88:
 3014 0322 6D656D73 		.ascii	"memset\000"
 3014      657400
 3015              	.LASF37:
 3016 0329 7375626A 		.ascii	"subject_raw\000"
 3016      6563745F 
 3016      72617700 
 3017              	.LASF81:
 3018 0335 73736C5F 		.ascii	"ssl_cache_set_timeout\000"
 3018      63616368 
 3018      655F7365 
 3018      745F7469 
 3018      6D656F75 
 3019              	.LASF58:
 3020 034b 73746172 		.ascii	"start\000"
 3020      7400
 3021              	.LASF73:
 3022 0351 63616368 		.ascii	"cache\000"
 3022      6500
 3023              	.LASF92:
 3024 0357 2E2E2F2E 		.ascii	"../../../os/ext/PolarSSL/library/ssl_cache.c\000"
 3024      2E2F2E2E 
 3024      2F6F732F 
 3024      6578742F 
 3024      506F6C61 
 3025              	.LASF55:
 3026 0384 78353039 		.ascii	"x509_cert\000"
 3026      5F636572 
 3026      7400
 3027              	.LASF72:
 3028 038e 73657373 		.ascii	"session\000"
 3028      696F6E00 
 3029              	.LASF3:
 3030 0396 73686F72 		.ascii	"short int\000"
 3030      7420696E 
 3030      7400
 3031              	.LASF69:
 3032 03a0 73736C5F 		.ascii	"ssl_cache_entry\000"
 3032      63616368 
 3032      655F656E 
 3032      74727900 
 3033              	.LASF40:
 3034 03b0 76616C69 		.ascii	"valid_from\000"
 3034      645F6672 
 3034      6F6D00
 3035              	.LASF5:
 3036 03bb 6C6F6E67 		.ascii	"long int\000"
ARM GAS  C:\Users\jo\AppData\Local\Temp\ccRRz0eu.s 			page 57


 3036      20696E74 
 3036      00
 3037              	.LASF61:
 3038 03c4 6C656E67 		.ascii	"length\000"
 3038      746800
 3039              	.LASF18:
 3040 03cb 7273615F 		.ascii	"rsa_context\000"
 3040      636F6E74 
 3040      65787400 
 3041              	.LASF31:
 3042 03d7 78353039 		.ascii	"x509_time\000"
 3042      5F74696D 
 3042      6500
 3043              	.LASF83:
 3044 03e1 73736C5F 		.ascii	"ssl_cache_free\000"
 3044      63616368 
 3044      655F6672 
 3044      656500
 3045              	.LASF20:
 3046 03f0 5F61736E 		.ascii	"_asn1_buf\000"
 3046      315F6275 
 3046      6600
 3047              	.LASF94:
 3048 03fa 73736C5F 		.ascii	"ssl_default_ciphersuites\000"
 3048      64656661 
 3048      756C745F 
 3048      63697068 
 3048      65727375 
 3049              	.LASF85:
 3050 0413 6D656D63 		.ascii	"memcmp\000"
 3050      6D7000
 3051              	.LASF26:
 3052 041a 78353039 		.ascii	"x509_name\000"
 3052      5F6E616D 
 3052      6500
 3053              	.LASF23:
 3054 0424 61736E31 		.ascii	"asn1_sequence\000"
 3054      5F736571 
 3054      75656E63 
 3054      6500
 3055              	.LASF36:
 3056 0432 69737375 		.ascii	"issuer_raw\000"
 3056      65725F72 
 3056      617700
 3057              	.LASF82:
 3058 043d 73736C5F 		.ascii	"ssl_cache_set_max_entries\000"
 3058      63616368 
 3058      655F7365 
 3058      745F6D61 
 3058      785F656E 
 3059              	.LASF17:
 3060 0457 68617368 		.ascii	"hash_id\000"
 3060      5F696400 
 3061              	.LASF11:
 3062 045f 73697A65 		.ascii	"sizetype\000"
 3062      74797065 
 3062      00
ARM GAS  C:\Users\jo\AppData\Local\Temp\ccRRz0eu.s 			page 58


 3063              	.LASF8:
 3064 0468 6C6F6E67 		.ascii	"long unsigned int\000"
 3064      20756E73 
 3064      69676E65 
 3064      6420696E 
 3064      7400
 3065              	.LASF62:
 3066 047a 6D617374 		.ascii	"master\000"
 3066      657200
 3067              	.LASF63:
 3068 0481 70656572 		.ascii	"peer_cert\000"
 3068      5F636572 
 3068      7400
 3069              	.LASF29:
 3070 048b 79656172 		.ascii	"year\000"
 3070      00
 3071              	.LASF34:
 3072 0490 73657269 		.ascii	"serial\000"
 3072      616C00
 3073              	.LASF54:
 3074 0497 7369675F 		.ascii	"sig_alg\000"
 3074      616C6700 
 3075              	.LASF75:
 3076 049f 656E7472 		.ascii	"entry\000"
 3076      7900
 3077              	.LASF2:
 3078 04a5 756E7369 		.ascii	"unsigned char\000"
 3078      676E6564 
 3078      20636861 
 3078      7200
 3079              	.LASF7:
 3080 04b3 5F5F7569 		.ascii	"__uint32_t\000"
 3080      6E743332 
 3080      5F7400
 3081              	.LASF42:
 3082 04be 706B5F6F 		.ascii	"pk_oid\000"
 3082      696400
 3083              	.LASF67:
 3084 04c5 74696D65 		.ascii	"timeout\000"
 3084      6F757400 
 3085              	.LASF19:
 3086 04cd 61736E31 		.ascii	"asn1_buf\000"
 3086      5F627566 
 3086      00
 3087              	.LASF57:
 3088 04d6 5F73736C 		.ascii	"_ssl_session\000"
 3088      5F736573 
 3088      73696F6E 
 3088      00
 3089              	.LASF71:
 3090 04e3 74696D65 		.ascii	"timestamp\000"
 3090      7374616D 
 3090      7000
 3091              	.LASF60:
 3092 04ed 636F6D70 		.ascii	"compression\000"
 3092      72657373 
 3092      696F6E00 
ARM GAS  C:\Users\jo\AppData\Local\Temp\ccRRz0eu.s 			page 59


 3093              	.LASF1:
 3094 04f9 7369676E 		.ascii	"signed char\000"
 3094      65642063 
 3094      68617200 
 3095              	.LASF4:
 3096 0505 73686F72 		.ascii	"short unsigned int\000"
 3096      7420756E 
 3096      7369676E 
 3096      65642069 
 3096      6E7400
 3097              	.LASF66:
 3098 0518 63686169 		.ascii	"chain\000"
 3098      6E00
 3099              	.LASF90:
 3100 051e 6D656D63 		.ascii	"memcpy\000"
 3100      707900
 3101              	.LASF64:
 3102 0525 73736C5F 		.ascii	"ssl_cache_context\000"
 3102      63616368 
 3102      655F636F 
 3102      6E746578 
 3102      7400
 3103              	.LASF27:
 3104 0537 78353039 		.ascii	"x509_sequence\000"
 3104      5F736571 
 3104      75656E63 
 3104      6500
 3105              		.ident	"GCC: (GNU Tools for ARM Embedded Processors) 4.9.3 20141119 (release) [ARM/embedded-4_9-br
ARM GAS  C:\Users\jo\AppData\Local\Temp\ccRRz0eu.s 			page 60


DEFINED SYMBOLS
                            *ABS*:00000000 ssl_cache.c
C:\Users\jo\AppData\Local\Temp\ccRRz0eu.s:19     .text.ssl_cache_init:00000000 $t
C:\Users\jo\AppData\Local\Temp\ccRRz0eu.s:25     .text.ssl_cache_init:00000000 ssl_cache_init
C:\Users\jo\AppData\Local\Temp\ccRRz0eu.s:63     .text.ssl_cache_init:0000003c $d
C:\Users\jo\AppData\Local\Temp\ccRRz0eu.s:68     .text.ssl_cache_get:00000000 $t
C:\Users\jo\AppData\Local\Temp\ccRRz0eu.s:74     .text.ssl_cache_get:00000000 ssl_cache_get
C:\Users\jo\AppData\Local\Temp\ccRRz0eu.s:218    .text.ssl_cache_set:00000000 $t
C:\Users\jo\AppData\Local\Temp\ccRRz0eu.s:224    .text.ssl_cache_set:00000000 ssl_cache_set
C:\Users\jo\AppData\Local\Temp\ccRRz0eu.s:479    .text.ssl_cache_set_timeout:00000000 $t
C:\Users\jo\AppData\Local\Temp\ccRRz0eu.s:485    .text.ssl_cache_set_timeout:00000000 ssl_cache_set_timeout
C:\Users\jo\AppData\Local\Temp\ccRRz0eu.s:502    .text.ssl_cache_set_max_entries:00000000 $t
C:\Users\jo\AppData\Local\Temp\ccRRz0eu.s:508    .text.ssl_cache_set_max_entries:00000000 ssl_cache_set_max_entries
C:\Users\jo\AppData\Local\Temp\ccRRz0eu.s:525    .text.ssl_cache_free:00000000 $t
C:\Users\jo\AppData\Local\Temp\ccRRz0eu.s:531    .text.ssl_cache_free:00000000 ssl_cache_free
                     .debug_frame:00000010 $d

UNDEFINED SYMBOLS
time
memcmp
malloc
memset
x509parse_crt
free
memcpy
ssl_session_free
