ARM GAS  C:\Users\jo\AppData\Local\Temp\ccCLWXIb.s 			page 1


   1              		.syntax unified
   2              		.cpu cortex-m4
   3              		.fpu softvfp
   4              		.eabi_attribute 20, 1
   5              		.eabi_attribute 21, 1
   6              		.eabi_attribute 23, 3
   7              		.eabi_attribute 24, 1
   8              		.eabi_attribute 25, 1
   9              		.eabi_attribute 26, 1
  10              		.eabi_attribute 30, 2
  11              		.eabi_attribute 34, 1
  12              		.eabi_attribute 18, 4
  13              		.thumb
  14              		.file	"st.c"
  15              		.text
  16              	.Ltext0:
  17              		.cfi_sections	.debug_frame
  18              		.section	.text.stInit,"ax",%progbits
  19              		.align	2
  20              		.p2align 4,,15
  21              		.global	stInit
  22              		.thumb
  23              		.thumb_func
  24              		.type	stInit, %function
  25              	stInit:
  26              	.LFB255:
  27              		.file 1 "../../../os/hal/src/st.c"
  28              		.loc 1 63 0
  29              		.cfi_startproc
  30              		@ args = 0, pretend = 0, frame = 0
  31              		@ frame_needed = 0, uses_anonymous_args = 0
  32              		@ link register save eliminated.
  33              		.loc 1 65 0
  34 0000 FFF7FEBF 		b	st_lld_init
  35              	.LVL0:
  36              		.cfi_endproc
  37              	.LFE255:
  38              		.size	stInit, .-stInit
  39 0004 AFF30080 		.section	.text.stStartAlarm,"ax",%progbits
  39      AFF30080 
  39      AFF30080 
  40              		.align	2
  41              		.p2align 4,,15
  42              		.global	stStartAlarm
  43              		.thumb
  44              		.thumb_func
  45              		.type	stStartAlarm, %function
  46              	stStartAlarm:
  47              	.LFB256:
  48              		.loc 1 80 0
  49              		.cfi_startproc
  50              		@ args = 0, pretend = 0, frame = 0
  51              		@ frame_needed = 0, uses_anonymous_args = 0
  52              	.LVL1:
  53              	.LBB16:
  54              	.LBB17:
  55              		.file 2 "../../../os/hal/ports/STM32/LLD/TIMv1/st_lld.h"
ARM GAS  C:\Users\jo\AppData\Local\Temp\ccCLWXIb.s 			page 2


  56              		.loc 2 192 0
  57 0000 4FF08043 		mov	r3, #1073741824
  58              	.LBE17:
  59              	.LBE16:
  60              		.loc 1 80 0
  61 0004 10B5     		push	{r4, lr}
  62              		.cfi_def_cfa_offset 8
  63              		.cfi_offset 4, -8
  64              		.cfi_offset 14, -4
  65              	.LBB19:
  66              	.LBB18:
  67              		.loc 2 192 0
  68 0006 DB68     		ldr	r3, [r3, #12]
  69              	.LBE18:
  70              	.LBE19:
  71              		.loc 1 82 0
  72 0008 9B07     		lsls	r3, r3, #30
  73              		.loc 1 80 0
  74 000a 0446     		mov	r4, r0
  75              		.loc 1 82 0
  76 000c 06D5     		bpl	.L3
  77              		.loc 1 82 0 is_stmt 0 discriminator 1
  78 000e 0748     		ldr	r0, .L9
  79              	.LVL2:
  80 0010 FFF7FEFF 		bl	puts
  81              	.LVL3:
  82              	@ 82 "../../../os/hal/src/st.c" 1
  83 0014 00BE     		BKPT #0
  84              	
  85              	@ 0 "" 2
  86              		.thumb
  87 0016 0648     		ldr	r0, .L9+4
  88 0018 FFF7FEFF 		bl	chSysHalt
  89              	.LVL4:
  90              	.L3:
  91              	.LBB20:
  92              	.LBB21:
  93              		.loc 2 142 0 is_stmt 1
  94 001c 4FF08043 		mov	r3, #1073741824
  95              		.loc 2 143 0
  96 0020 0021     		movs	r1, #0
  97              		.loc 2 144 0
  98 0022 0222     		movs	r2, #2
  99              		.loc 2 142 0
 100 0024 5C63     		str	r4, [r3, #52]
 101              		.loc 2 143 0
 102 0026 1961     		str	r1, [r3, #16]
 103              		.loc 2 144 0
 104 0028 DA60     		str	r2, [r3, #12]
 105 002a 10BD     		pop	{r4, pc}
 106              	.LVL5:
 107              	.L10:
 108              		.align	2
 109              	.L9:
 110 002c 00000000 		.word	.LC0
 111 0030 00000000 		.word	.LANCHOR0
 112              	.LBE21:
ARM GAS  C:\Users\jo\AppData\Local\Temp\ccCLWXIb.s 			page 3


 113              	.LBE20:
 114              		.cfi_endproc
 115              	.LFE256:
 116              		.size	stStartAlarm, .-stStartAlarm
 117 0034 AFF30080 		.section	.text.stStopAlarm,"ax",%progbits
 117      AFF30080 
 117      AFF30080 
 118              		.align	2
 119              		.p2align 4,,15
 120              		.global	stStopAlarm
 121              		.thumb
 122              		.thumb_func
 123              		.type	stStopAlarm, %function
 124              	stStopAlarm:
 125              	.LFB257:
 126              		.loc 1 94 0
 127              		.cfi_startproc
 128              		@ args = 0, pretend = 0, frame = 0
 129              		@ frame_needed = 0, uses_anonymous_args = 0
 130              		@ link register save eliminated.
 131              	.LBB22:
 132              	.LBB23:
 133              		.loc 2 154 0
 134 0000 4FF08043 		mov	r3, #1073741824
 135 0004 0022     		movs	r2, #0
 136 0006 DA60     		str	r2, [r3, #12]
 137 0008 7047     		bx	lr
 138              	.LBE23:
 139              	.LBE22:
 140              		.cfi_endproc
 141              	.LFE257:
 142              		.size	stStopAlarm, .-stStopAlarm
 143 000a 00BFAFF3 		.section	.text.stSetAlarm,"ax",%progbits
 143      0080
 144              		.align	2
 145              		.p2align 4,,15
 146              		.global	stSetAlarm
 147              		.thumb
 148              		.thumb_func
 149              		.type	stSetAlarm, %function
 150              	stSetAlarm:
 151              	.LFB258:
 152              		.loc 1 108 0
 153              		.cfi_startproc
 154              		@ args = 0, pretend = 0, frame = 0
 155              		@ frame_needed = 0, uses_anonymous_args = 0
 156              	.LVL6:
 157              	.LBB24:
 158              	.LBB25:
 159              		.loc 2 192 0
 160 0000 4FF08043 		mov	r3, #1073741824
 161              	.LBE25:
 162              	.LBE24:
 163              		.loc 1 108 0
 164 0004 10B5     		push	{r4, lr}
 165              		.cfi_def_cfa_offset 8
 166              		.cfi_offset 4, -8
ARM GAS  C:\Users\jo\AppData\Local\Temp\ccCLWXIb.s 			page 4


 167              		.cfi_offset 14, -4
 168              	.LBB27:
 169              	.LBB26:
 170              		.loc 2 192 0
 171 0006 DB68     		ldr	r3, [r3, #12]
 172              	.LBE26:
 173              	.LBE27:
 174              		.loc 1 110 0
 175 0008 9B07     		lsls	r3, r3, #30
 176              		.loc 1 108 0
 177 000a 0446     		mov	r4, r0
 178              		.loc 1 110 0
 179 000c 06D4     		bmi	.L13
 180              		.loc 1 110 0 is_stmt 0 discriminator 1
 181 000e 0548     		ldr	r0, .L15
 182              	.LVL7:
 183 0010 FFF7FEFF 		bl	puts
 184              	.LVL8:
 185              	@ 110 "../../../os/hal/src/st.c" 1
 186 0014 00BE     		BKPT #0
 187              	
 188              	@ 0 "" 2
 189              		.thumb
 190 0016 0448     		ldr	r0, .L15+4
 191 0018 FFF7FEFF 		bl	chSysHalt
 192              	.LVL9:
 193              	.L13:
 194              	.LBB28:
 195              	.LBB29:
 196              		.loc 2 166 0 is_stmt 1
 197 001c 4FF08043 		mov	r3, #1073741824
 198 0020 5C63     		str	r4, [r3, #52]
 199 0022 10BD     		pop	{r4, pc}
 200              	.LVL10:
 201              	.L16:
 202              		.align	2
 203              	.L15:
 204 0024 10000000 		.word	.LC1
 205 0028 00000000 		.word	.LANCHOR1
 206              	.LBE29:
 207              	.LBE28:
 208              		.cfi_endproc
 209              	.LFE258:
 210              		.size	stSetAlarm, .-stSetAlarm
 211 002c AFF30080 		.section	.text.stGetAlarm,"ax",%progbits
 212              		.align	2
 213              		.p2align 4,,15
 214              		.global	stGetAlarm
 215              		.thumb
 216              		.thumb_func
 217              		.type	stGetAlarm, %function
 218              	stGetAlarm:
 219              	.LFB259:
 220              		.loc 1 124 0
 221              		.cfi_startproc
 222              		@ args = 0, pretend = 0, frame = 0
 223              		@ frame_needed = 0, uses_anonymous_args = 0
ARM GAS  C:\Users\jo\AppData\Local\Temp\ccCLWXIb.s 			page 5


 224 0000 08B5     		push	{r3, lr}
 225              		.cfi_def_cfa_offset 8
 226              		.cfi_offset 3, -8
 227              		.cfi_offset 14, -4
 228              	.LBB30:
 229              	.LBB31:
 230              		.loc 2 192 0
 231 0002 4FF08043 		mov	r3, #1073741824
 232 0006 DB68     		ldr	r3, [r3, #12]
 233              	.LBE31:
 234              	.LBE30:
 235              		.loc 1 126 0
 236 0008 9B07     		lsls	r3, r3, #30
 237 000a 06D4     		bmi	.L18
 238              		.loc 1 126 0 is_stmt 0 discriminator 1
 239 000c 0548     		ldr	r0, .L20
 240 000e FFF7FEFF 		bl	puts
 241              	.LVL11:
 242              	@ 126 "../../../os/hal/src/st.c" 1
 243 0012 00BE     		BKPT #0
 244              	
 245              	@ 0 "" 2
 246              		.thumb
 247 0014 0448     		ldr	r0, .L20+4
 248 0016 FFF7FEFF 		bl	chSysHalt
 249              	.LVL12:
 250              	.L18:
 251              	.LBB32:
 252              	.LBB33:
 253              		.loc 2 178 0 is_stmt 1
 254 001a 4FF08043 		mov	r3, #1073741824
 255 001e 586B     		ldr	r0, [r3, #52]
 256              	.LBE33:
 257              	.LBE32:
 258              		.loc 1 129 0
 259 0020 08BD     		pop	{r3, pc}
 260              	.L21:
 261 0022 00BF     		.align	2
 262              	.L20:
 263 0024 10000000 		.word	.LC1
 264 0028 00000000 		.word	.LANCHOR2
 265              		.cfi_endproc
 266              	.LFE259:
 267              		.size	stGetAlarm, .-stGetAlarm
 268 002c AFF30080 		.section	.rodata.str1.4,"aMS",%progbits,1
 269              		.align	2
 270              	.LC0:
 271 0000 616C7265 		.ascii	"already active\000"
 271      61647920 
 271      61637469 
 271      766500
 272 000f 00       		.space	1
 273              	.LC1:
 274 0010 6E6F7420 		.ascii	"not active\000"
 274      61637469 
 274      766500
 275 001b 00       		.section	.rodata.__func__.8189,"a",%progbits
ARM GAS  C:\Users\jo\AppData\Local\Temp\ccCLWXIb.s 			page 6


 276              		.align	2
 277              		.set	.LANCHOR0,. + 0
 278              		.type	__func__.8189, %object
 279              		.size	__func__.8189, 13
 280              	__func__.8189:
 281 0000 73745374 		.ascii	"stStartAlarm\000"
 281      61727441 
 281      6C61726D 
 281      00
 282 000d 000000   		.section	.rodata.__func__.8196,"a",%progbits
 283              		.align	2
 284              		.set	.LANCHOR1,. + 0
 285              		.type	__func__.8196, %object
 286              		.size	__func__.8196, 11
 287              	__func__.8196:
 288 0000 73745365 		.ascii	"stSetAlarm\000"
 288      74416C61 
 288      726D00
 289 000b 00       		.section	.rodata.__func__.8200,"a",%progbits
 290              		.align	2
 291              		.set	.LANCHOR2,. + 0
 292              		.type	__func__.8200, %object
 293              		.size	__func__.8200, 11
 294              	__func__.8200:
 295 0000 73744765 		.ascii	"stGetAlarm\000"
 295      74416C61 
 295      726D00
 296 000b 00       		.text
 297              	.Letext0:
 298              		.file 3 "c:\\program files\\gnu tools arm embedded\\4.9 2014q4\\arm-none-eabi\\include\\machine\\_
 299              		.file 4 "c:\\program files\\gnu tools arm embedded\\4.9 2014q4\\arm-none-eabi\\include\\stdint.h"
 300              		.file 5 "../../../os/rt/ports/ARMCMx/compilers/GCC/chtypes.h"
 301              		.file 6 "../../../os/rt/include/chsystypes.h"
 302              		.file 7 "../../../os/rt/include/chschd.h"
 303              		.file 8 "../../../os/rt/ports/ARMCMx/chcore.h"
 304              		.file 9 "../../../os/rt/ports/ARMCMx/chcore_v7m.h"
 305              		.file 10 "../../../os/hal/ports/STM32/LLD/TIMv1/stm32_tim.h"
 306              		.file 11 "../../../os/rt/include/chdebug.h"
 307              		.file 12 "../../../os/rt/include/chtm.h"
 308              		.file 13 "../../../os/rt/include/chstats.h"
 309              		.file 14 "../../../os/rt/include/chmtx.h"
 310              		.file 15 "../../../os/ext/CMSIS/include/core_cm4.h"
 311              		.file 16 "<built-in>"
 312              		.file 17 "../../../os/rt/include/chsys.h"