ARM GAS  C:\Users\jo\AppData\Local\Temp\ccCLWXIb.s 			page 1


   1              		.syntax unified
   2              		.cpu cortex-m4
   3              		.fpu softvfp
   4              		.eabi_attribute 20, 1
   5              		.eabi_attribute 21, 1
   6              		.eabi_attribute 23, 3
   7              		.eabi_attribute 24, 1
   8              		.eabi_attribute 25, 1
   9              		.eabi_attribute 26, 1
  10              		.eabi_attribute 30, 2
  11              		.eabi_attribute 34, 1
  12              		.eabi_attribute 18, 4
  13              		.thumb
  14              		.file	"st.c"
  15              		.text
  16              	.Ltext0:
  17              		.cfi_sections	.debug_frame
  18              		.section	.text.stInit,"ax",%progbits
  19              		.align	2
  20              		.p2align 4,,15
  21              		.global	stInit
  22              		.thumb
  23              		.thumb_func
  24              		.type	stInit, %function
  25              	stInit:
  26              	.LFB255:
  27              		.file 1 "../../../os/hal/src/st.c"
  28              		.loc 1 63 0
  29              		.cfi_startproc
  30              		@ args = 0, pretend = 0, frame = 0
  31              		@ frame_needed = 0, uses_anonymous_args = 0
  32              		@ link register save eliminated.
  33              		.loc 1 65 0
  34 0000 FFF7FEBF 		b	st_lld_init
  35              	.LVL0:
  36              		.cfi_endproc
  37              	.LFE255:
  38              		.size	stInit, .-stInit
  39 0004 AFF30080 		.section	.text.stStartAlarm,"ax",%progbits
  39      AFF30080 
  39      AFF30080 
  40              		.align	2
  41              		.p2align 4,,15
  42              		.global	stStartAlarm
  43              		.thumb
  44              		.thumb_func
  45              		.type	stStartAlarm, %function
  46              	stStartAlarm:
  47              	.LFB256:
  48              		.loc 1 80 0
  49              		.cfi_startproc
  50              		@ args = 0, pretend = 0, frame = 0
  51              		@ frame_needed = 0, uses_anonymous_args = 0
  52              	.LVL1:
  53              	.LBB16:
  54              	.LBB17:
  55              		.file 2 "../../../os/hal/ports/STM32/LLD/TIMv1/st_lld.h"
ARM GAS  C:\Users\jo\AppData\Local\Temp\ccCLWXIb.s 			page 2


  56              		.loc 2 192 0
  57 0000 4FF08043 		mov	r3, #1073741824
  58              	.LBE17:
  59              	.LBE16:
  60              		.loc 1 80 0
  61 0004 10B5     		push	{r4, lr}
  62              		.cfi_def_cfa_offset 8
  63              		.cfi_offset 4, -8
  64              		.cfi_offset 14, -4
  65              	.LBB19:
  66              	.LBB18:
  67              		.loc 2 192 0
  68 0006 DB68     		ldr	r3, [r3, #12]
  69              	.LBE18:
  70              	.LBE19:
  71              		.loc 1 82 0
  72 0008 9B07     		lsls	r3, r3, #30
  73              		.loc 1 80 0
  74 000a 0446     		mov	r4, r0
  75              		.loc 1 82 0
  76 000c 06D5     		bpl	.L3
  77              		.loc 1 82 0 is_stmt 0 discriminator 1
  78 000e 0748     		ldr	r0, .L9
  79              	.LVL2:
  80 0010 FFF7FEFF 		bl	puts
  81              	.LVL3:
  82              	@ 82 "../../../os/hal/src/st.c" 1
  83 0014 00BE     		BKPT #0
  84              	
  85              	@ 0 "" 2
  86              		.thumb
  87 0016 0648     		ldr	r0, .L9+4
  88 0018 FFF7FEFF 		bl	chSysHalt
  89              	.LVL4:
  90              	.L3:
  91              	.LBB20:
  92              	.LBB21:
  93              		.loc 2 142 0 is_stmt 1
  94 001c 4FF08043 		mov	r3, #1073741824
  95              		.loc 2 143 0
  96 0020 0021     		movs	r1, #0
  97              		.loc 2 144 0
  98 0022 0222     		movs	r2, #2
  99              		.loc 2 142 0
 100 0024 5C63     		str	r4, [r3, #52]
 101              		.loc 2 143 0
 102 0026 1961     		str	r1, [r3, #16]
 103              		.loc 2 144 0
 104 0028 DA60     		str	r2, [r3, #12]
 105 002a 10BD     		pop	{r4, pc}
 106              	.LVL5:
 107              	.L10:
 108              		.align	2
 109              	.L9:
 110 002c 00000000 		.word	.LC0
 111 0030 00000000 		.word	.LANCHOR0
 112              	.LBE21:
ARM GAS  C:\Users\jo\AppData\Local\Temp\ccCLWXIb.s 			page 3


 113              	.LBE20:
 114              		.cfi_endproc
 115              	.LFE256:
 116              		.size	stStartAlarm, .-stStartAlarm
 117 0034 AFF30080 		.section	.text.stStopAlarm,"ax",%progbits
 117      AFF30080 
 117      AFF30080 
 118              		.align	2
 119              		.p2align 4,,15
 120              		.global	stStopAlarm
 121              		.thumb
 122              		.thumb_func
 123              		.type	stStopAlarm, %function
 124              	stStopAlarm:
 125              	.LFB257:
 126              		.loc 1 94 0
 127              		.cfi_startproc
 128              		@ args = 0, pretend = 0, frame = 0
 129              		@ frame_needed = 0, uses_anonymous_args = 0
 130              		@ link register save eliminated.
 131              	.LBB22:
 132              	.LBB23:
 133              		.loc 2 154 0
 134 0000 4FF08043 		mov	r3, #1073741824
 135 0004 0022     		movs	r2, #0
 136 0006 DA60     		str	r2, [r3, #12]
 137 0008 7047     		bx	lr
 138              	.LBE23:
 139              	.LBE22:
 140              		.cfi_endproc
 141              	.LFE257:
 142              		.size	stStopAlarm, .-stStopAlarm
 143 000a 00BFAFF3 		.section	.text.stSetAlarm,"ax",%progbits
 143      0080
 144              		.align	2
 145              		.p2align 4,,15
 146              		.global	stSetAlarm
 147              		.thumb
 148              		.thumb_func
 149              		.type	stSetAlarm, %function
 150              	stSetAlarm:
 151              	.LFB258:
 152              		.loc 1 108 0
 153              		.cfi_startproc
 154              		@ args = 0, pretend = 0, frame = 0
 155              		@ frame_needed = 0, uses_anonymous_args = 0
 156              	.LVL6:
 157              	.LBB24:
 158              	.LBB25:
 159              		.loc 2 192 0
 160 0000 4FF08043 		mov	r3, #1073741824
 161              	.LBE25:
 162              	.LBE24:
 163              		.loc 1 108 0
 164 0004 10B5     		push	{r4, lr}
 165              		.cfi_def_cfa_offset 8
 166              		.cfi_offset 4, -8
ARM GAS  C:\Users\jo\AppData\Local\Temp\ccCLWXIb.s 			page 4


 167              		.cfi_offset 14, -4
 168              	.LBB27:
 169              	.LBB26:
 170              		.loc 2 192 0
 171 0006 DB68     		ldr	r3, [r3, #12]
 172              	.LBE26:
 173              	.LBE27:
 174              		.loc 1 110 0
 175 0008 9B07     		lsls	r3, r3, #30
 176              		.loc 1 108 0
 177 000a 0446     		mov	r4, r0
 178              		.loc 1 110 0
 179 000c 06D4     		bmi	.L13
 180              		.loc 1 110 0 is_stmt 0 discriminator 1
 181 000e 0548     		ldr	r0, .L15
 182              	.LVL7:
 183 0010 FFF7FEFF 		bl	puts
 184              	.LVL8:
 185              	@ 110 "../../../os/hal/src/st.c" 1
 186 0014 00BE     		BKPT #0
 187              	
 188              	@ 0 "" 2
 189              		.thumb
 190 0016 0448     		ldr	r0, .L15+4
 191 0018 FFF7FEFF 		bl	chSysHalt
 192              	.LVL9:
 193              	.L13:
 194              	.LBB28:
 195              	.LBB29:
 196              		.loc 2 166 0 is_stmt 1
 197 001c 4FF08043 		mov	r3, #1073741824
 198 0020 5C63     		str	r4, [r3, #52]
 199 0022 10BD     		pop	{r4, pc}
 200              	.LVL10:
 201              	.L16:
 202              		.align	2
 203              	.L15:
 204 0024 10000000 		.word	.LC1
 205 0028 00000000 		.word	.LANCHOR1
 206              	.LBE29:
 207              	.LBE28:
 208              		.cfi_endproc
 209              	.LFE258:
 210              		.size	stSetAlarm, .-stSetAlarm
 211 002c AFF30080 		.section	.text.stGetAlarm,"ax",%progbits
 212              		.align	2
 213              		.p2align 4,,15
 214              		.global	stGetAlarm
 215              		.thumb
 216              		.thumb_func
 217              		.type	stGetAlarm, %function
 218              	stGetAlarm:
 219              	.LFB259:
 220              		.loc 1 124 0
 221              		.cfi_startproc
 222              		@ args = 0, pretend = 0, frame = 0
 223              		@ frame_needed = 0, uses_anonymous_args = 0
ARM GAS  C:\Users\jo\AppData\Local\Temp\ccCLWXIb.s 			page 5


 224 0000 08B5     		push	{r3, lr}
 225              		.cfi_def_cfa_offset 8
 226              		.cfi_offset 3, -8
 227              		.cfi_offset 14, -4
 228              	.LBB30:
 229              	.LBB31:
 230              		.loc 2 192 0
 231 0002 4FF08043 		mov	r3, #1073741824
 232 0006 DB68     		ldr	r3, [r3, #12]
 233              	.LBE31:
 234              	.LBE30:
 235              		.loc 1 126 0
 236 0008 9B07     		lsls	r3, r3, #30
 237 000a 06D4     		bmi	.L18
 238              		.loc 1 126 0 is_stmt 0 discriminator 1
 239 000c 0548     		ldr	r0, .L20
 240 000e FFF7FEFF 		bl	puts
 241              	.LVL11:
 242              	@ 126 "../../../os/hal/src/st.c" 1
 243 0012 00BE     		BKPT #0
 244              	
 245              	@ 0 "" 2
 246              		.thumb
 247 0014 0448     		ldr	r0, .L20+4
 248 0016 FFF7FEFF 		bl	chSysHalt
 249              	.LVL12:
 250              	.L18:
 251              	.LBB32:
 252              	.LBB33:
 253              		.loc 2 178 0 is_stmt 1
 254 001a 4FF08043 		mov	r3, #1073741824
 255 001e 586B     		ldr	r0, [r3, #52]
 256              	.LBE33:
 257              	.LBE32:
 258              		.loc 1 129 0
 259 0020 08BD     		pop	{r3, pc}
 260              	.L21:
 261 0022 00BF     		.align	2
 262              	.L20:
 263 0024 10000000 		.word	.LC1
 264 0028 00000000 		.word	.LANCHOR2
 265              		.cfi_endproc
 266              	.LFE259:
 267              		.size	stGetAlarm, .-stGetAlarm
 268 002c AFF30080 		.section	.rodata.str1.4,"aMS",%progbits,1
 269              		.align	2
 270              	.LC0:
 271 0000 616C7265 		.ascii	"already active\000"
 271      61647920 
 271      61637469 
 271      766500
 272 000f 00       		.space	1
 273              	.LC1:
 274 0010 6E6F7420 		.ascii	"not active\000"
 274      61637469 
 274      766500
 275 001b 00       		.section	.rodata.__func__.8189,"a",%progbits
ARM GAS  C:\Users\jo\AppData\Local\Temp\ccCLWXIb.s 			page 6


 276              		.align	2
 277              		.set	.LANCHOR0,. + 0
 278              		.type	__func__.8189, %object
 279              		.size	__func__.8189, 13
 280              	__func__.8189:
 281 0000 73745374 		.ascii	"stStartAlarm\000"
 281      61727441 
 281      6C61726D 
 281      00
 282 000d 000000   		.section	.rodata.__func__.8196,"a",%progbits
 283              		.align	2
 284              		.set	.LANCHOR1,. + 0
 285              		.type	__func__.8196, %object
 286              		.size	__func__.8196, 11
 287              	__func__.8196:
 288 0000 73745365 		.ascii	"stSetAlarm\000"
 288      74416C61 
 288      726D00
 289 000b 00       		.section	.rodata.__func__.8200,"a",%progbits
 290              		.align	2
 291              		.set	.LANCHOR2,. + 0
 292              		.type	__func__.8200, %object
 293              		.size	__func__.8200, 11
 294              	__func__.8200:
 295 0000 73744765 		.ascii	"stGetAlarm\000"
 295      74416C61 
 295      726D00
 296 000b 00       		.text
 297              	.Letext0:
 298              		.file 3 "c:\\program files\\gnu tools arm embedded\\4.9 2014q4\\arm-none-eabi\\include\\machine\\_
 299              		.file 4 "c:\\program files\\gnu tools arm embedded\\4.9 2014q4\\arm-none-eabi\\include\\stdint.h"
 300              		.file 5 "../../../os/rt/ports/ARMCMx/compilers/GCC/chtypes.h"
 301              		.file 6 "../../../os/rt/include/chsystypes.h"
 302              		.file 7 "../../../os/rt/include/chschd.h"
 303              		.file 8 "../../../os/rt/ports/ARMCMx/chcore.h"
 304              		.file 9 "../../../os/rt/ports/ARMCMx/chcore_v7m.h"
 305              		.file 10 "../../../os/hal/ports/STM32/LLD/TIMv1/stm32_tim.h"
 306              		.file 11 "../../../os/rt/include/chdebug.h"
 307              		.file 12 "../../../os/rt/include/chtm.h"
 308              		.file 13 "../../../os/rt/include/chstats.h"
 309              		.file 14 "../../../os/rt/include/chmtx.h"
 310              		.file 15 "../../../os/ext/CMSIS/include/core_cm4.h"
 311              		.file 16 "<built-in>"
 312              		.file 17 "../../../os/rt/include/chsys.h"
 313              		.section	.debug_info,"",%progbits
 314              	.Ldebug_info0:
 315 0000 240B0000 		.4byte	0xb24
 316 0004 0400     		.2byte	0x4
 317 0006 00000000 		.4byte	.Ldebug_abbrev0
 318 000a 04       		.byte	0x4
 319 000b 01       		.uleb128 0x1
 320 000c 50030000 		.4byte	.LASF143
 321 0010 01       		.byte	0x1
 322 0011 91020000 		.4byte	.LASF144
 323 0015 0F010000 		.4byte	.LASF145
 324 0019 30000000 		.4byte	.Ldebug_ranges0+0x30
 325 001d 00000000 		.4byte	0
ARM GAS  C:\Users\jo\AppData\Local\Temp\ccCLWXIb.s 			page 7


 326 0021 00000000 		.4byte	.Ldebug_line0
 327 0025 02       		.uleb128 0x2
 328 0026 04       		.byte	0x4
 329 0027 05       		.byte	0x5
 330 0028 696E7400 		.ascii	"int\000"
 331 002c 03       		.uleb128 0x3
 332 002d 04       		.byte	0x4
 333 002e 07       		.byte	0x7
 334 002f 7C020000 		.4byte	.LASF0
 335 0033 03       		.uleb128 0x3
 336 0034 01       		.byte	0x1
 337 0035 06       		.byte	0x6
 338 0036 6F010000 		.4byte	.LASF1
 339 003a 04       		.uleb128 0x4
 340 003b 36000000 		.4byte	.LASF5
 341 003f 03       		.byte	0x3
 342 0040 1D       		.byte	0x1d
 343 0041 45000000 		.4byte	0x45
 344 0045 03       		.uleb128 0x3
 345 0046 01       		.byte	0x1
 346 0047 08       		.byte	0x8
 347 0048 15050000 		.4byte	.LASF2
 348 004c 03       		.uleb128 0x3
 349 004d 02       		.byte	0x2
 350 004e 05       		.byte	0x5
 351 004f 2D050000 		.4byte	.LASF3
 352 0053 03       		.uleb128 0x3
 353 0054 02       		.byte	0x2
 354 0055 07       		.byte	0x7
 355 0056 DE010000 		.4byte	.LASF4
 356 005a 04       		.uleb128 0x4
 357 005b 28030000 		.4byte	.LASF6
 358 005f 03       		.byte	0x3
 359 0060 3F       		.byte	0x3f
 360 0061 65000000 		.4byte	0x65
 361 0065 03       		.uleb128 0x3
 362 0066 04       		.byte	0x4
 363 0067 05       		.byte	0x5
 364 0068 9C010000 		.4byte	.LASF7
 365 006c 04       		.uleb128 0x4
 366 006d 24060000 		.4byte	.LASF8
 367 0071 03       		.byte	0x3
 368 0072 41       		.byte	0x41
 369 0073 77000000 		.4byte	0x77
 370 0077 03       		.uleb128 0x3
 371 0078 04       		.byte	0x4
 372 0079 07       		.byte	0x7
 373 007a C9050000 		.4byte	.LASF9
 374 007e 03       		.uleb128 0x3
 375 007f 08       		.byte	0x8
 376 0080 05       		.byte	0x5
 377 0081 C8010000 		.4byte	.LASF10
 378 0085 04       		.uleb128 0x4
 379 0086 B1040000 		.4byte	.LASF11
 380 008a 03       		.byte	0x3
 381 008b 5B       		.byte	0x5b
 382 008c 90000000 		.4byte	0x90
ARM GAS  C:\Users\jo\AppData\Local\Temp\ccCLWXIb.s 			page 8


 383 0090 03       		.uleb128 0x3
 384 0091 08       		.byte	0x8
 385 0092 07       		.byte	0x7
 386 0093 85000000 		.4byte	.LASF12
 387 0097 04       		.uleb128 0x4
 388 0098 54050000 		.4byte	.LASF13
 389 009c 04       		.byte	0x4
 390 009d 15       		.byte	0x15
 391 009e 3A000000 		.4byte	0x3a
 392 00a2 04       		.uleb128 0x4
 393 00a3 0D050000 		.4byte	.LASF14
 394 00a7 04       		.byte	0x4
 395 00a8 2C       		.byte	0x2c
 396 00a9 5A000000 		.4byte	0x5a
 397 00ad 04       		.uleb128 0x4
 398 00ae 9F050000 		.4byte	.LASF15
 399 00b2 04       		.byte	0x4
 400 00b3 2D       		.byte	0x2d
 401 00b4 6C000000 		.4byte	0x6c
 402 00b8 04       		.uleb128 0x4
 403 00b9 20000000 		.4byte	.LASF16
 404 00bd 04       		.byte	0x4
 405 00be 39       		.byte	0x39
 406 00bf 85000000 		.4byte	0x85
 407 00c3 05       		.uleb128 0x5
 408 00c4 A2000000 		.4byte	0xa2
 409 00c8 05       		.uleb128 0x5
 410 00c9 AD000000 		.4byte	0xad
 411 00cd 04       		.uleb128 0x4
 412 00ce 5B060000 		.4byte	.LASF17
 413 00d2 05       		.byte	0x5
 414 00d3 45       		.byte	0x45
 415 00d4 AD000000 		.4byte	0xad
 416 00d8 04       		.uleb128 0x4
 417 00d9 FF000000 		.4byte	.LASF18
 418 00dd 05       		.byte	0x5
 419 00de 46       		.byte	0x46
 420 00df B8000000 		.4byte	0xb8
 421 00e3 04       		.uleb128 0x4
 422 00e4 D4060000 		.4byte	.LASF19
 423 00e8 05       		.byte	0x5
 424 00e9 48       		.byte	0x48
 425 00ea 97000000 		.4byte	0x97
 426 00ee 04       		.uleb128 0x4
 427 00ef A5010000 		.4byte	.LASF20
 428 00f3 05       		.byte	0x5
 429 00f4 49       		.byte	0x49
 430 00f5 97000000 		.4byte	0x97
 431 00f9 04       		.uleb128 0x4
 432 00fa C7040000 		.4byte	.LASF21
 433 00fe 05       		.byte	0x5
 434 00ff 4A       		.byte	0x4a
 435 0100 97000000 		.4byte	0x97
 436 0104 04       		.uleb128 0x4
 437 0105 F0040000 		.4byte	.LASF22
 438 0109 05       		.byte	0x5
 439 010a 4C       		.byte	0x4c
ARM GAS  C:\Users\jo\AppData\Local\Temp\ccCLWXIb.s 			page 9


 440 010b AD000000 		.4byte	0xad
 441 010f 04       		.uleb128 0x4
 442 0110 D9020000 		.4byte	.LASF23
 443 0114 05       		.byte	0x5
 444 0115 4D       		.byte	0x4d
 445 0116 A2000000 		.4byte	0xa2
 446 011a 04       		.uleb128 0x4
 447 011b 1C030000 		.4byte	.LASF24
 448 011f 05       		.byte	0x5
 449 0120 4F       		.byte	0x4f
 450 0121 AD000000 		.4byte	0xad
 451 0125 04       		.uleb128 0x4
 452 0126 6B020000 		.4byte	.LASF25
 453 012a 05       		.byte	0x5
 454 012b 51       		.byte	0x51
 455 012c A2000000 		.4byte	0xa2
 456 0130 04       		.uleb128 0x4
 457 0131 E4020000 		.4byte	.LASF26
 458 0135 05       		.byte	0x5
 459 0136 52       		.byte	0x52
 460 0137 AD000000 		.4byte	0xad
 461 013b 04       		.uleb128 0x4
 462 013c 06060000 		.4byte	.LASF27
 463 0140 06       		.byte	0x6
 464 0141 33       		.byte	0x33
 465 0142 AD000000 		.4byte	0xad
 466 0146 04       		.uleb128 0x4
 467 0147 F1050000 		.4byte	.LASF28
 468 014b 06       		.byte	0x6
 469 014c 3F       		.byte	0x3f
 470 014d 51010000 		.4byte	0x151
 471 0151 06       		.uleb128 0x6
 472 0152 CF020000 		.4byte	.LASF49
 473 0156 60       		.byte	0x60
 474 0157 07       		.byte	0x7
 475 0158 BE       		.byte	0xbe
 476 0159 57020000 		.4byte	0x257
 477 015d 07       		.uleb128 0x7
 478 015e 4D050000 		.4byte	.LASF29
 479 0162 07       		.byte	0x7
 480 0163 BF       		.byte	0xbf
 481 0164 E1060000 		.4byte	0x6e1
 482 0168 00       		.byte	0
 483 0169 07       		.uleb128 0x7
 484 016a E9040000 		.4byte	.LASF30
 485 016e 07       		.byte	0x7
 486 016f C1       		.byte	0xc1
 487 0170 E1060000 		.4byte	0x6e1
 488 0174 04       		.byte	0x4
 489 0175 07       		.uleb128 0x7
 490 0176 08010000 		.4byte	.LASF31
 491 017a 07       		.byte	0x7
 492 017b C3       		.byte	0xc3
 493 017c 04010000 		.4byte	0x104
 494 0180 08       		.byte	0x8
 495 0181 07       		.uleb128 0x7
 496 0182 1F070000 		.4byte	.LASF32
ARM GAS  C:\Users\jo\AppData\Local\Temp\ccCLWXIb.s 			page 10


 497 0186 07       		.byte	0x7
 498 0187 C4       		.byte	0xc4
 499 0188 DA040000 		.4byte	0x4da
 500 018c 0C       		.byte	0xc
 501 018d 07       		.uleb128 0x7
 502 018e D6010000 		.4byte	.LASF33
 503 0192 07       		.byte	0x7
 504 0193 C6       		.byte	0xc6
 505 0194 E1060000 		.4byte	0x6e1
 506 0198 10       		.byte	0x10
 507 0199 07       		.uleb128 0x7
 508 019a 74040000 		.4byte	.LASF34
 509 019e 07       		.byte	0x7
 510 019f C7       		.byte	0xc7
 511 01a0 E1060000 		.4byte	0x6e1
 512 01a4 14       		.byte	0x14
 513 01a5 07       		.uleb128 0x7
 514 01a6 BE060000 		.4byte	.LASF35
 515 01aa 07       		.byte	0x7
 516 01ab CE       		.byte	0xce
 517 01ac 9D060000 		.4byte	0x69d
 518 01b0 18       		.byte	0x18
 519 01b1 07       		.uleb128 0x7
 520 01b2 71020000 		.4byte	.LASF36
 521 01b6 07       		.byte	0x7
 522 01b7 D4       		.byte	0xd4
 523 01b8 2B080000 		.4byte	0x82b
 524 01bc 1C       		.byte	0x1c
 525 01bd 07       		.uleb128 0x7
 526 01be 37050000 		.4byte	.LASF37
 527 01c2 07       		.byte	0x7
 528 01c3 D9       		.byte	0xd9
 529 01c4 EE000000 		.4byte	0xee
 530 01c8 20       		.byte	0x20
 531 01c9 07       		.uleb128 0x7
 532 01ca E9060000 		.4byte	.LASF38
 533 01ce 07       		.byte	0x7
 534 01cf DD       		.byte	0xdd
 535 01d0 E3000000 		.4byte	0xe3
 536 01d4 21       		.byte	0x21
 537 01d5 07       		.uleb128 0x7
 538 01d6 8C060000 		.4byte	.LASF39
 539 01da 07       		.byte	0x7
 540 01db E2       		.byte	0xe2
 541 01dc F9000000 		.4byte	0xf9
 542 01e0 22       		.byte	0x22
 543 01e1 08       		.uleb128 0x8
 544 01e2 705F7500 		.ascii	"p_u\000"
 545 01e6 07       		.byte	0x7
 546 01e7 1401     		.2byte	0x114
 547 01e9 F3070000 		.4byte	0x7f3
 548 01ed 24       		.byte	0x24
 549 01ee 09       		.uleb128 0x9
 550 01ef 2F040000 		.4byte	.LASF40
 551 01f3 07       		.byte	0x7
 552 01f4 1901     		.2byte	0x119
 553 01f6 57020000 		.4byte	0x257
ARM GAS  C:\Users\jo\AppData\Local\Temp\ccCLWXIb.s 			page 11


 554 01fa 28       		.byte	0x28
 555 01fb 09       		.uleb128 0x9
 556 01fc AA020000 		.4byte	.LASF41
 557 0200 07       		.byte	0x7
 558 0201 1F01     		.2byte	0x11f
 559 0203 7B020000 		.4byte	0x27b
 560 0207 2C       		.byte	0x2c
 561 0208 09       		.uleb128 0x9
 562 0209 55060000 		.4byte	.LASF42
 563 020d 07       		.byte	0x7
 564 020e 2301     		.2byte	0x123
 565 0210 0F010000 		.4byte	0x10f
 566 0214 34       		.byte	0x34
 567 0215 09       		.uleb128 0x9
 568 0216 94050000 		.4byte	.LASF43
 569 021a 07       		.byte	0x7
 570 021b 2901     		.2byte	0x129
 571 021d 1A010000 		.4byte	0x11a
 572 0221 38       		.byte	0x38
 573 0222 09       		.uleb128 0x9
 574 0223 23050000 		.4byte	.LASF44
 575 0227 07       		.byte	0x7
 576 0228 3001     		.2byte	0x130
 577 022a 62080000 		.4byte	0x862
 578 022e 3C       		.byte	0x3c
 579 022f 09       		.uleb128 0x9
 580 0230 10060000 		.4byte	.LASF45
 581 0234 07       		.byte	0x7
 582 0235 3401     		.2byte	0x134
 583 0237 04010000 		.4byte	0x104
 584 023b 40       		.byte	0x40
 585 023c 09       		.uleb128 0x9
 586 023d 18020000 		.4byte	.LASF46
 587 0241 07       		.byte	0x7
 588 0242 3A01     		.2byte	0x13a
 589 0244 2E030000 		.4byte	0x32e
 590 0248 44       		.byte	0x44
 591 0249 09       		.uleb128 0x9
 592 024a 65050000 		.4byte	.LASF47
 593 024e 07       		.byte	0x7
 594 024f 4001     		.2byte	0x140
 595 0251 A4070000 		.4byte	0x7a4
 596 0255 48       		.byte	0x48
 597 0256 00       		.byte	0
 598 0257 04       		.uleb128 0x4
 599 0258 C5060000 		.4byte	.LASF48
 600 025c 06       		.byte	0x6
 601 025d 44       		.byte	0x44
 602 025e 62020000 		.4byte	0x262
 603 0262 06       		.uleb128 0x6
 604 0263 B9050000 		.4byte	.LASF50
 605 0267 04       		.byte	0x4
 606 0268 07       		.byte	0x7
 607 0269 AC       		.byte	0xac
 608 026a 7B020000 		.4byte	0x27b
 609 026e 07       		.uleb128 0x7
 610 026f 4D050000 		.4byte	.LASF29
ARM GAS  C:\Users\jo\AppData\Local\Temp\ccCLWXIb.s 			page 12


 611 0273 07       		.byte	0x7
 612 0274 AD       		.byte	0xad
 613 0275 E1060000 		.4byte	0x6e1
 614 0279 00       		.byte	0
 615 027a 00       		.byte	0
 616 027b 04       		.uleb128 0x4
 617 027c 7C060000 		.4byte	.LASF51
 618 0280 06       		.byte	0x6
 619 0281 4B       		.byte	0x4b
 620 0282 86020000 		.4byte	0x286
 621 0286 06       		.uleb128 0x6
 622 0287 4C000000 		.4byte	.LASF52
 623 028b 08       		.byte	0x8
 624 028c 07       		.byte	0x7
 625 028d B3       		.byte	0xb3
 626 028e AB020000 		.4byte	0x2ab
 627 0292 07       		.uleb128 0x7
 628 0293 4D050000 		.4byte	.LASF29
 629 0297 07       		.byte	0x7
 630 0298 B4       		.byte	0xb4
 631 0299 E1060000 		.4byte	0x6e1
 632 029d 00       		.byte	0
 633 029e 07       		.uleb128 0x7
 634 029f E9040000 		.4byte	.LASF30
 635 02a3 07       		.byte	0x7
 636 02a4 B5       		.byte	0xb5
 637 02a5 E1060000 		.4byte	0x6e1
 638 02a9 04       		.byte	0x4
 639 02aa 00       		.byte	0
 640 02ab 04       		.uleb128 0x4
 641 02ac 07000000 		.4byte	.LASF53
 642 02b0 06       		.byte	0x6
 643 02b1 52       		.byte	0x52
 644 02b2 B6020000 		.4byte	0x2b6
 645 02b6 0A       		.uleb128 0xa
 646 02b7 0E030000 		.4byte	.LASF54
 647 02bb 1C       		.byte	0x1c
 648 02bc 07       		.byte	0x7
 649 02bd 7201     		.2byte	0x172
 650 02bf 12030000 		.4byte	0x312
 651 02c3 09       		.uleb128 0x9
 652 02c4 A8050000 		.4byte	.LASF55
 653 02c8 07       		.byte	0x7
 654 02c9 7301     		.2byte	0x173
 655 02cb 7B020000 		.4byte	0x27b
 656 02cf 00       		.byte	0
 657 02d0 09       		.uleb128 0x9
 658 02d1 3F050000 		.4byte	.LASF56
 659 02d5 07       		.byte	0x7
 660 02d6 7401     		.2byte	0x174
 661 02d8 04010000 		.4byte	0x104
 662 02dc 08       		.byte	0x8
 663 02dd 09       		.uleb128 0x9
 664 02de 83040000 		.4byte	.LASF57
 665 02e2 07       		.byte	0x7
 666 02e3 7601     		.2byte	0x176
 667 02e5 DA040000 		.4byte	0x4da
ARM GAS  C:\Users\jo\AppData\Local\Temp\ccCLWXIb.s 			page 13


 668 02e9 0C       		.byte	0xc
 669 02ea 09       		.uleb128 0x9
 670 02eb 10020000 		.4byte	.LASF58
 671 02ef 07       		.byte	0x7
 672 02f0 7901     		.2byte	0x179
 673 02f2 E1060000 		.4byte	0x6e1
 674 02f6 10       		.byte	0x10
 675 02f7 09       		.uleb128 0x9
 676 02f8 A9040000 		.4byte	.LASF59
 677 02fc 07       		.byte	0x7
 678 02fd 7A01     		.2byte	0x17a
 679 02ff E1060000 		.4byte	0x6e1
 680 0303 14       		.byte	0x14
 681 0304 09       		.uleb128 0x9
 682 0305 9F040000 		.4byte	.LASF60
 683 0309 07       		.byte	0x7
 684 030a 7D01     		.2byte	0x17d
 685 030c E1060000 		.4byte	0x6e1
 686 0310 18       		.byte	0x18
 687 0311 00       		.byte	0
 688 0312 04       		.uleb128 0x4
 689 0313 1B060000 		.4byte	.LASF61
 690 0317 06       		.byte	0x6
 691 0318 57       		.byte	0x57
 692 0319 1D030000 		.4byte	0x31d
 693 031d 0B       		.uleb128 0xb
 694 031e 04       		.byte	0x4
 695 031f 23030000 		.4byte	0x323
 696 0323 0C       		.uleb128 0xc
 697 0324 2E030000 		.4byte	0x32e
 698 0328 0D       		.uleb128 0xd
 699 0329 2E030000 		.4byte	0x32e
 700 032d 00       		.byte	0
 701 032e 0E       		.uleb128 0xe
 702 032f 04       		.byte	0x4
 703 0330 04       		.uleb128 0x4
 704 0331 D9040000 		.4byte	.LASF62
 705 0335 06       		.byte	0x6
 706 0336 5C       		.byte	0x5c
 707 0337 3B030000 		.4byte	0x33b
 708 033b 0A       		.uleb128 0xa
 709 033c 6D050000 		.4byte	.LASF63
 710 0340 14       		.byte	0x14
 711 0341 07       		.byte	0x7
 712 0342 4D01     		.2byte	0x14d
 713 0344 8A030000 		.4byte	0x38a
 714 0348 09       		.uleb128 0x9
 715 0349 89020000 		.4byte	.LASF64
 716 034d 07       		.byte	0x7
 717 034e 4E01     		.2byte	0x14e
 718 0350 68080000 		.4byte	0x868
 719 0354 00       		.byte	0
 720 0355 09       		.uleb128 0x9
 721 0356 29020000 		.4byte	.LASF65
 722 035a 07       		.byte	0x7
 723 035b 4F01     		.2byte	0x14f
 724 035d 68080000 		.4byte	0x868
ARM GAS  C:\Users\jo\AppData\Local\Temp\ccCLWXIb.s 			page 14


 725 0361 04       		.byte	0x4
 726 0362 09       		.uleb128 0x9
 727 0363 B0050000 		.4byte	.LASF66
 728 0367 07       		.byte	0x7
 729 0368 5001     		.2byte	0x150
 730 036a 3B010000 		.4byte	0x13b
 731 036e 08       		.byte	0x8
 732 036f 09       		.uleb128 0x9
 733 0370 25070000 		.4byte	.LASF67
 734 0374 07       		.byte	0x7
 735 0375 5101     		.2byte	0x151
 736 0377 12030000 		.4byte	0x312
 737 037b 0C       		.byte	0xc
 738 037c 09       		.uleb128 0x9
 739 037d 75060000 		.4byte	.LASF68
 740 0381 07       		.byte	0x7
 741 0382 5301     		.2byte	0x153
 742 0384 2E030000 		.4byte	0x32e
 743 0388 10       		.byte	0x10
 744 0389 00       		.byte	0
 745 038a 04       		.uleb128 0x4
 746 038b CB000000 		.4byte	.LASF69
 747 038f 06       		.byte	0x6
 748 0390 61       		.byte	0x61
 749 0391 95030000 		.4byte	0x395
 750 0395 0A       		.uleb128 0xa
 751 0396 42040000 		.4byte	.LASF70
 752 039a 10       		.byte	0x10
 753 039b 07       		.byte	0x7
 754 039c 5D01     		.2byte	0x15d
 755 039e D7030000 		.4byte	0x3d7
 756 03a2 09       		.uleb128 0x9
 757 03a3 89020000 		.4byte	.LASF64
 758 03a7 07       		.byte	0x7
 759 03a8 5E01     		.2byte	0x15e
 760 03aa 68080000 		.4byte	0x868
 761 03ae 00       		.byte	0
 762 03af 09       		.uleb128 0x9
 763 03b0 29020000 		.4byte	.LASF65
 764 03b4 07       		.byte	0x7
 765 03b5 6001     		.2byte	0x160
 766 03b7 68080000 		.4byte	0x868
 767 03bb 04       		.byte	0x4
 768 03bc 09       		.uleb128 0x9
 769 03bd B0050000 		.4byte	.LASF66
 770 03c1 07       		.byte	0x7
 771 03c2 6201     		.2byte	0x162
 772 03c4 3B010000 		.4byte	0x13b
 773 03c8 08       		.byte	0x8
 774 03c9 09       		.uleb128 0x9
 775 03ca 68040000 		.4byte	.LASF71
 776 03ce 07       		.byte	0x7
 777 03cf 6A01     		.2byte	0x16a
 778 03d1 3B010000 		.4byte	0x13b
 779 03d5 0C       		.byte	0xc
 780 03d6 00       		.byte	0
 781 03d7 04       		.uleb128 0x4
ARM GAS  C:\Users\jo\AppData\Local\Temp\ccCLWXIb.s 			page 15


 782 03d8 5D000000 		.4byte	.LASF72
 783 03dc 06       		.byte	0x6
 784 03dd 66       		.byte	0x66
 785 03de E2030000 		.4byte	0x3e2
 786 03e2 0F       		.uleb128 0xf
 787 03e3 3B020000 		.4byte	.LASF73
 788 03e7 1404     		.2byte	0x414
 789 03e9 07       		.byte	0x7
 790 03ea 8401     		.2byte	0x184
 791 03ec 25040000 		.4byte	0x425
 792 03f0 09       		.uleb128 0x9
 793 03f1 2F060000 		.4byte	.LASF74
 794 03f5 07       		.byte	0x7
 795 03f6 8C01     		.2byte	0x18c
 796 03f8 6E080000 		.4byte	0x86e
 797 03fc 00       		.byte	0
 798 03fd 09       		.uleb128 0x9
 799 03fe 93060000 		.4byte	.LASF75
 800 0402 07       		.byte	0x7
 801 0403 9101     		.2byte	0x191
 802 0405 25010000 		.4byte	0x125
 803 0409 04       		.byte	0x4
 804 040a 09       		.uleb128 0x9
 805 040b 53020000 		.4byte	.LASF76
 806 040f 07       		.byte	0x7
 807 0410 9501     		.2byte	0x195
 808 0412 25010000 		.4byte	0x125
 809 0416 08       		.byte	0x8
 810 0417 09       		.uleb128 0x9
 811 0418 DC060000 		.4byte	.LASF77
 812 041c 07       		.byte	0x7
 813 041d 9B01     		.2byte	0x19b
 814 041f 36070000 		.4byte	0x736
 815 0423 0C       		.byte	0xc
 816 0424 00       		.byte	0
 817 0425 04       		.uleb128 0x4
 818 0426 EB020000 		.4byte	.LASF78
 819 042a 06       		.byte	0x6
 820 042b 6B       		.byte	0x6b
 821 042c 30040000 		.4byte	0x430
 822 0430 0F       		.uleb128 0xf
 823 0431 92010000 		.4byte	.LASF79
 824 0435 D805     		.2byte	0x5d8
 825 0437 07       		.byte	0x7
 826 0438 A401     		.2byte	0x1a4
 827 043a 9D040000 		.4byte	0x49d
 828 043e 09       		.uleb128 0x9
 829 043f 9B060000 		.4byte	.LASF80
 830 0443 07       		.byte	0x7
 831 0444 A801     		.2byte	0x1a8
 832 0446 AB020000 		.4byte	0x2ab
 833 044a 00       		.byte	0
 834 044b 09       		.uleb128 0x9
 835 044c 8B010000 		.4byte	.LASF81
 836 0450 07       		.byte	0x7
 837 0451 AC01     		.2byte	0x1ac
 838 0453 8A030000 		.4byte	0x38a
ARM GAS  C:\Users\jo\AppData\Local\Temp\ccCLWXIb.s 			page 16


 839 0457 1C       		.byte	0x1c
 840 0458 08       		.uleb128 0x8
 841 0459 64626700 		.ascii	"dbg\000"
 842 045d 07       		.byte	0x7
 843 045e B001     		.2byte	0x1b0
 844 0460 D7030000 		.4byte	0x3d7
 845 0464 2C       		.byte	0x2c
 846 0465 10       		.uleb128 0x10
 847 0466 C0000000 		.4byte	.LASF82
 848 046a 07       		.byte	0x7
 849 046b B401     		.2byte	0x1b4
 850 046d 46010000 		.4byte	0x146
 851 0471 4004     		.2byte	0x440
 852 0473 11       		.uleb128 0x11
 853 0474 746D00   		.ascii	"tm\000"
 854 0477 07       		.byte	0x7
 855 0478 B901     		.2byte	0x1b9
 856 047a 56070000 		.4byte	0x756
 857 047e A004     		.2byte	0x4a0
 858 0480 10       		.uleb128 0x10
 859 0481 29000000 		.4byte	.LASF83
 860 0485 07       		.byte	0x7
 861 0486 BF01     		.2byte	0x1bf
 862 0488 E8070000 		.4byte	0x7e8
 863 048c A804     		.2byte	0x4a8
 864 048e 10       		.uleb128 0x10
 865 048f 5C020000 		.4byte	.LASF84
 866 0493 07       		.byte	0x7
 867 0494 C501     		.2byte	0x1c5
 868 0496 73080000 		.4byte	0x873
 869 049a E004     		.2byte	0x4e0
 870 049c 00       		.byte	0
 871 049d 03       		.uleb128 0x3
 872 049e 04       		.byte	0x4
 873 049f 07       		.byte	0x7
 874 04a0 39040000 		.4byte	.LASF85
 875 04a4 12       		.uleb128 0x12
 876 04a5 AD000000 		.4byte	0xad
 877 04a9 B4040000 		.4byte	0x4b4
 878 04ad 13       		.uleb128 0x13
 879 04ae 9D040000 		.4byte	0x49d
 880 04b2 01       		.byte	0x1
 881 04b3 00       		.byte	0
 882 04b4 12       		.uleb128 0x12
 883 04b5 AD000000 		.4byte	0xad
 884 04b9 C4040000 		.4byte	0x4c4
 885 04bd 13       		.uleb128 0x13
 886 04be 9D040000 		.4byte	0x49d
 887 04c2 03       		.byte	0x3
 888 04c3 00       		.byte	0
 889 04c4 04       		.uleb128 0x4
 890 04c5 20020000 		.4byte	.LASF86
 891 04c9 08       		.byte	0x8
 892 04ca 85       		.byte	0x85
 893 04cb 2E030000 		.4byte	0x32e
 894 04cf 04       		.uleb128 0x4
 895 04d0 45030000 		.4byte	.LASF87
ARM GAS  C:\Users\jo\AppData\Local\Temp\ccCLWXIb.s 			page 17


 896 04d4 08       		.byte	0x8
 897 04d5 8D       		.byte	0x8d
 898 04d6 B8000000 		.4byte	0xb8
 899 04da 06       		.uleb128 0x6
 900 04db 4D060000 		.4byte	.LASF88
 901 04df 04       		.byte	0x4
 902 04e0 08       		.byte	0x8
 903 04e1 A9       		.byte	0xa9
 904 04e2 F3040000 		.4byte	0x4f3
 905 04e6 14       		.uleb128 0x14
 906 04e7 72313300 		.ascii	"r13\000"
 907 04eb 08       		.byte	0x8
 908 04ec AA       		.byte	0xaa
 909 04ed 6E050000 		.4byte	0x56e
 910 04f1 00       		.byte	0
 911 04f2 00       		.byte	0
 912 04f3 06       		.uleb128 0x6
 913 04f4 40000000 		.4byte	.LASF89
 914 04f8 24       		.byte	0x24
 915 04f9 09       		.byte	0x9
 916 04fa F4       		.byte	0xf4
 917 04fb 6E050000 		.4byte	0x56e
 918 04ff 08       		.uleb128 0x8
 919 0500 723400   		.ascii	"r4\000"
 920 0503 09       		.byte	0x9
 921 0504 0701     		.2byte	0x107
 922 0506 C4040000 		.4byte	0x4c4
 923 050a 00       		.byte	0
 924 050b 08       		.uleb128 0x8
 925 050c 723500   		.ascii	"r5\000"
 926 050f 09       		.byte	0x9
 927 0510 0801     		.2byte	0x108
 928 0512 C4040000 		.4byte	0x4c4
 929 0516 04       		.byte	0x4
 930 0517 08       		.uleb128 0x8
 931 0518 723600   		.ascii	"r6\000"
 932 051b 09       		.byte	0x9
 933 051c 0901     		.2byte	0x109
 934 051e C4040000 		.4byte	0x4c4
 935 0522 08       		.byte	0x8
 936 0523 08       		.uleb128 0x8
 937 0524 723700   		.ascii	"r7\000"
 938 0527 09       		.byte	0x9
 939 0528 0A01     		.2byte	0x10a
 940 052a C4040000 		.4byte	0x4c4
 941 052e 0C       		.byte	0xc
 942 052f 08       		.uleb128 0x8
 943 0530 723800   		.ascii	"r8\000"
 944 0533 09       		.byte	0x9
 945 0534 0B01     		.2byte	0x10b
 946 0536 C4040000 		.4byte	0x4c4
 947 053a 10       		.byte	0x10
 948 053b 08       		.uleb128 0x8
 949 053c 723900   		.ascii	"r9\000"
 950 053f 09       		.byte	0x9
 951 0540 0C01     		.2byte	0x10c
 952 0542 C4040000 		.4byte	0x4c4
ARM GAS  C:\Users\jo\AppData\Local\Temp\ccCLWXIb.s 			page 18


 953 0546 14       		.byte	0x14
 954 0547 08       		.uleb128 0x8
 955 0548 72313000 		.ascii	"r10\000"
 956 054c 09       		.byte	0x9
 957 054d 0D01     		.2byte	0x10d
 958 054f C4040000 		.4byte	0x4c4
 959 0553 18       		.byte	0x18
 960 0554 08       		.uleb128 0x8
 961 0555 72313100 		.ascii	"r11\000"
 962 0559 09       		.byte	0x9
 963 055a 0E01     		.2byte	0x10e
 964 055c C4040000 		.4byte	0x4c4
 965 0560 1C       		.byte	0x1c
 966 0561 08       		.uleb128 0x8
 967 0562 6C7200   		.ascii	"lr\000"
 968 0565 09       		.byte	0x9
 969 0566 0F01     		.2byte	0x10f
 970 0568 C4040000 		.4byte	0x4c4
 971 056c 20       		.byte	0x20
 972 056d 00       		.byte	0
 973 056e 0B       		.uleb128 0xb
 974 056f 04       		.byte	0x4
 975 0570 F3040000 		.4byte	0x4f3
 976 0574 15       		.uleb128 0x15
 977 0575 60       		.byte	0x60
 978 0576 0A       		.byte	0xa
 979 0577 9E01     		.2byte	0x19e
 980 0579 80060000 		.4byte	0x680
 981 057d 08       		.uleb128 0x8
 982 057e 43523100 		.ascii	"CR1\000"
 983 0582 0A       		.byte	0xa
 984 0583 9F01     		.2byte	0x19f
 985 0585 C8000000 		.4byte	0xc8
 986 0589 00       		.byte	0
 987 058a 08       		.uleb128 0x8
 988 058b 43523200 		.ascii	"CR2\000"
 989 058f 0A       		.byte	0xa
 990 0590 A001     		.2byte	0x1a0
 991 0592 C8000000 		.4byte	0xc8
 992 0596 04       		.byte	0x4
 993 0597 09       		.uleb128 0x9
 994 0598 BB020000 		.4byte	.LASF90
 995 059c 0A       		.byte	0xa
 996 059d A101     		.2byte	0x1a1
 997 059f C8000000 		.4byte	0xc8
 998 05a3 08       		.byte	0x8
 999 05a4 09       		.uleb128 0x9
 1000 05a5 14000000 		.4byte	.LASF91
 1001 05a9 0A       		.byte	0xa
 1002 05aa A201     		.2byte	0x1a2
 1003 05ac C8000000 		.4byte	0xc8
 1004 05b0 0C       		.byte	0xc
 1005 05b1 08       		.uleb128 0x8
 1006 05b2 535200   		.ascii	"SR\000"
 1007 05b5 0A       		.byte	0xa
 1008 05b6 A301     		.2byte	0x1a3
 1009 05b8 C8000000 		.4byte	0xc8
ARM GAS  C:\Users\jo\AppData\Local\Temp\ccCLWXIb.s 			page 19


 1010 05bc 10       		.byte	0x10
 1011 05bd 08       		.uleb128 0x8
 1012 05be 45475200 		.ascii	"EGR\000"
 1013 05c2 0A       		.byte	0xa
 1014 05c3 A401     		.2byte	0x1a4
 1015 05c5 C8000000 		.4byte	0xc8
 1016 05c9 14       		.byte	0x14
 1017 05ca 09       		.uleb128 0x9
 1018 05cb 5D010000 		.4byte	.LASF92
 1019 05cf 0A       		.byte	0xa
 1020 05d0 A501     		.2byte	0x1a5
 1021 05d2 C8000000 		.4byte	0xc8
 1022 05d6 18       		.byte	0x18
 1023 05d7 09       		.uleb128 0x9
 1024 05d8 63010000 		.4byte	.LASF93
 1025 05dc 0A       		.byte	0xa
 1026 05dd A601     		.2byte	0x1a6
 1027 05df C8000000 		.4byte	0xc8
 1028 05e3 1C       		.byte	0x1c
 1029 05e4 09       		.uleb128 0x9
 1030 05e5 BD010000 		.4byte	.LASF94
 1031 05e9 0A       		.byte	0xa
 1032 05ea A701     		.2byte	0x1a7
 1033 05ec C8000000 		.4byte	0xc8
 1034 05f0 20       		.byte	0x20
 1035 05f1 08       		.uleb128 0x8
 1036 05f2 434E5400 		.ascii	"CNT\000"
 1037 05f6 0A       		.byte	0xa
 1038 05f7 A801     		.2byte	0x1a8
 1039 05f9 C8000000 		.4byte	0xc8
 1040 05fd 24       		.byte	0x24
 1041 05fe 08       		.uleb128 0x8
 1042 05ff 50534300 		.ascii	"PSC\000"
 1043 0603 0A       		.byte	0xa
 1044 0604 A901     		.2byte	0x1a9
 1045 0606 C8000000 		.4byte	0xc8
 1046 060a 28       		.byte	0x28
 1047 060b 08       		.uleb128 0x8
 1048 060c 41525200 		.ascii	"ARR\000"
 1049 0610 0A       		.byte	0xa
 1050 0611 AA01     		.2byte	0x1aa
 1051 0613 C8000000 		.4byte	0xc8
 1052 0617 2C       		.byte	0x2c
 1053 0618 08       		.uleb128 0x8
 1054 0619 52435200 		.ascii	"RCR\000"
 1055 061d 0A       		.byte	0xa
 1056 061e AB01     		.2byte	0x1ab
 1057 0620 C8000000 		.4byte	0xc8
 1058 0624 30       		.byte	0x30
 1059 0625 08       		.uleb128 0x8
 1060 0626 43435200 		.ascii	"CCR\000"
 1061 062a 0A       		.byte	0xa
 1062 062b AC01     		.2byte	0x1ac
 1063 062d 80060000 		.4byte	0x680
 1064 0631 34       		.byte	0x34
 1065 0632 09       		.uleb128 0x9
 1066 0633 FA000000 		.4byte	.LASF95
ARM GAS  C:\Users\jo\AppData\Local\Temp\ccCLWXIb.s 			page 20


 1067 0637 0A       		.byte	0xa
 1068 0638 AD01     		.2byte	0x1ad
 1069 063a C8000000 		.4byte	0xc8
 1070 063e 44       		.byte	0x44
 1071 063f 08       		.uleb128 0x8
 1072 0640 44435200 		.ascii	"DCR\000"
 1073 0644 0A       		.byte	0xa
 1074 0645 AE01     		.2byte	0x1ae
 1075 0647 C8000000 		.4byte	0xc8
 1076 064b 48       		.byte	0x48
 1077 064c 09       		.uleb128 0x9
 1078 064d EC050000 		.4byte	.LASF96
 1079 0651 0A       		.byte	0xa
 1080 0652 AF01     		.2byte	0x1af
 1081 0654 C8000000 		.4byte	0xc8
 1082 0658 4C       		.byte	0x4c
 1083 0659 08       		.uleb128 0x8
 1084 065a 4F5200   		.ascii	"OR\000"
 1085 065d 0A       		.byte	0xa
 1086 065e B001     		.2byte	0x1b0
 1087 0660 C8000000 		.4byte	0xc8
 1088 0664 50       		.byte	0x50
 1089 0665 09       		.uleb128 0x9
 1090 0666 69010000 		.4byte	.LASF97
 1091 066a 0A       		.byte	0xa
 1092 066b B101     		.2byte	0x1b1
 1093 066d C8000000 		.4byte	0xc8
 1094 0671 54       		.byte	0x54
 1095 0672 09       		.uleb128 0x9
 1096 0673 8F050000 		.4byte	.LASF98
 1097 0677 0A       		.byte	0xa
 1098 0678 B201     		.2byte	0x1b2
 1099 067a 85060000 		.4byte	0x685
 1100 067e 58       		.byte	0x58
 1101 067f 00       		.byte	0
 1102 0680 05       		.uleb128 0x5
 1103 0681 B4040000 		.4byte	0x4b4
 1104 0685 05       		.uleb128 0x5
 1105 0686 A4040000 		.4byte	0x4a4
 1106 068a 16       		.uleb128 0x16
 1107 068b F7020000 		.4byte	.LASF99
 1108 068f 0A       		.byte	0xa
 1109 0690 B301     		.2byte	0x1b3
 1110 0692 74050000 		.4byte	0x574
 1111 0696 03       		.uleb128 0x3
 1112 0697 01       		.byte	0x1
 1113 0698 08       		.byte	0x8
 1114 0699 E7050000 		.4byte	.LASF100
 1115 069d 0B       		.uleb128 0xb
 1116 069e 04       		.byte	0x4
 1117 069f A3060000 		.4byte	0x6a3
 1118 06a3 17       		.uleb128 0x17
 1119 06a4 96060000 		.4byte	0x696
 1120 06a8 18       		.uleb128 0x18
 1121 06a9 10       		.byte	0x10
 1122 06aa 0B       		.byte	0xb
 1123 06ab 57       		.byte	0x57
ARM GAS  C:\Users\jo\AppData\Local\Temp\ccCLWXIb.s 			page 21


 1124 06ac E1060000 		.4byte	0x6e1
 1125 06b0 07       		.uleb128 0x7
 1126 06b1 7B010000 		.4byte	.LASF101
 1127 06b5 0B       		.byte	0xb
 1128 06b6 5B       		.byte	0x5b
 1129 06b7 3B010000 		.4byte	0x13b
 1130 06bb 00       		.byte	0
 1131 06bc 07       		.uleb128 0x7
 1132 06bd C2010000 		.4byte	.LASF102
 1133 06c1 0B       		.byte	0xb
 1134 06c2 5F       		.byte	0x5f
 1135 06c3 E1060000 		.4byte	0x6e1
 1136 06c7 04       		.byte	0x4
 1137 06c8 07       		.uleb128 0x7
 1138 06c9 15070000 		.4byte	.LASF103
 1139 06cd 0B       		.byte	0xb
 1140 06ce 63       		.byte	0x63
 1141 06cf 2E030000 		.4byte	0x32e
 1142 06d3 08       		.byte	0x8
 1143 06d4 07       		.uleb128 0x7
 1144 06d5 AE000000 		.4byte	.LASF104
 1145 06d9 0B       		.byte	0xb
 1146 06da 67       		.byte	0x67
 1147 06db 97000000 		.4byte	0x97
 1148 06df 0C       		.byte	0xc
 1149 06e0 00       		.byte	0
 1150 06e1 0B       		.uleb128 0xb
 1151 06e2 04       		.byte	0x4
 1152 06e3 46010000 		.4byte	0x146
 1153 06e7 04       		.uleb128 0x4
 1154 06e8 59040000 		.4byte	.LASF105
 1155 06ec 0B       		.byte	0xb
 1156 06ed 68       		.byte	0x68
 1157 06ee A8060000 		.4byte	0x6a8
 1158 06f2 19       		.uleb128 0x19
 1159 06f3 0804     		.2byte	0x408
 1160 06f5 0B       		.byte	0xb
 1161 06f6 6D       		.byte	0x6d
 1162 06f7 20070000 		.4byte	0x720
 1163 06fb 07       		.uleb128 0x7
 1164 06fc 08020000 		.4byte	.LASF106
 1165 0700 0B       		.byte	0xb
 1166 0701 71       		.byte	0x71
 1167 0702 2C000000 		.4byte	0x2c
 1168 0706 00       		.byte	0
 1169 0707 07       		.uleb128 0x7
 1170 0708 00000000 		.4byte	.LASF107
 1171 070c 0B       		.byte	0xb
 1172 070d 75       		.byte	0x75
 1173 070e 20070000 		.4byte	0x720
 1174 0712 04       		.byte	0x4
 1175 0713 07       		.uleb128 0x7
 1176 0714 CF040000 		.4byte	.LASF108
 1177 0718 0B       		.byte	0xb
 1178 0719 79       		.byte	0x79
 1179 071a 26070000 		.4byte	0x726
 1180 071e 08       		.byte	0x8
ARM GAS  C:\Users\jo\AppData\Local\Temp\ccCLWXIb.s 			page 22


 1181 071f 00       		.byte	0
 1182 0720 0B       		.uleb128 0xb
 1183 0721 04       		.byte	0x4
 1184 0722 E7060000 		.4byte	0x6e7
 1185 0726 12       		.uleb128 0x12
 1186 0727 E7060000 		.4byte	0x6e7
 1187 072b 36070000 		.4byte	0x736
 1188 072f 13       		.uleb128 0x13
 1189 0730 9D040000 		.4byte	0x49d
 1190 0734 3F       		.byte	0x3f
 1191 0735 00       		.byte	0
 1192 0736 04       		.uleb128 0x4
 1193 0737 9C000000 		.4byte	.LASF109
 1194 073b 0B       		.byte	0xb
 1195 073c 7A       		.byte	0x7a
 1196 073d F2060000 		.4byte	0x6f2
 1197 0741 18       		.uleb128 0x18
 1198 0742 04       		.byte	0x4
 1199 0743 0C       		.byte	0xc
 1200 0744 38       		.byte	0x38
 1201 0745 56070000 		.4byte	0x756
 1202 0749 07       		.uleb128 0x7
 1203 074a 39060000 		.4byte	.LASF110
 1204 074e 0C       		.byte	0xc
 1205 074f 3C       		.byte	0x3c
 1206 0750 CD000000 		.4byte	0xcd
 1207 0754 00       		.byte	0
 1208 0755 00       		.byte	0
 1209 0756 04       		.uleb128 0x4
 1210 0757 89040000 		.4byte	.LASF111
 1211 075b 0C       		.byte	0xc
 1212 075c 3D       		.byte	0x3d
 1213 075d 41070000 		.4byte	0x741
 1214 0761 18       		.uleb128 0x18
 1215 0762 18       		.byte	0x18
 1216 0763 0C       		.byte	0xc
 1217 0764 48       		.byte	0x48
 1218 0765 A4070000 		.4byte	0x7a4
 1219 0769 07       		.uleb128 0x7
 1220 076a FA050000 		.4byte	.LASF112
 1221 076e 0C       		.byte	0xc
 1222 076f 49       		.byte	0x49
 1223 0770 CD000000 		.4byte	0xcd
 1224 0774 00       		.byte	0
 1225 0775 07       		.uleb128 0x7
 1226 0776 6C000000 		.4byte	.LASF113
 1227 077a 0C       		.byte	0xc
 1228 077b 4A       		.byte	0x4a
 1229 077c CD000000 		.4byte	0xcd
 1230 0780 04       		.byte	0x4
 1231 0781 07       		.uleb128 0x7
 1232 0782 DF020000 		.4byte	.LASF114
 1233 0786 0C       		.byte	0xc
 1234 0787 4B       		.byte	0x4b
 1235 0788 CD000000 		.4byte	0xcd
 1236 078c 08       		.byte	0x8
 1237 078d 14       		.uleb128 0x14
ARM GAS  C:\Users\jo\AppData\Local\Temp\ccCLWXIb.s 			page 23


 1238 078e 6E00     		.ascii	"n\000"
 1239 0790 0C       		.byte	0xc
 1240 0791 4C       		.byte	0x4c
 1241 0792 30010000 		.4byte	0x130
 1242 0796 0C       		.byte	0xc
 1243 0797 07       		.uleb128 0x7
 1244 0798 BC040000 		.4byte	.LASF115
 1245 079c 0C       		.byte	0xc
 1246 079d 4D       		.byte	0x4d
 1247 079e D8000000 		.4byte	0xd8
 1248 07a2 10       		.byte	0x10
 1249 07a3 00       		.byte	0
 1250 07a4 04       		.uleb128 0x4
 1251 07a5 72000000 		.4byte	.LASF116
 1252 07a9 0C       		.byte	0xc
 1253 07aa 4E       		.byte	0x4e
 1254 07ab 61070000 		.4byte	0x761
 1255 07af 18       		.uleb128 0x18
 1256 07b0 38       		.byte	0x38
 1257 07b1 0D       		.byte	0xd
 1258 07b2 38       		.byte	0x38
 1259 07b3 E8070000 		.4byte	0x7e8
 1260 07b7 07       		.uleb128 0x7
 1261 07b8 B5020000 		.4byte	.LASF117
 1262 07bc 0D       		.byte	0xd
 1263 07bd 39       		.byte	0x39
 1264 07be 30010000 		.4byte	0x130
 1265 07c2 00       		.byte	0
 1266 07c3 07       		.uleb128 0x7
 1267 07c4 FE040000 		.4byte	.LASF118
 1268 07c8 0D       		.byte	0xd
 1269 07c9 3A       		.byte	0x3a
 1270 07ca 30010000 		.4byte	0x130
 1271 07ce 04       		.byte	0x4
 1272 07cf 07       		.uleb128 0x7
 1273 07d0 02070000 		.4byte	.LASF119
 1274 07d4 0D       		.byte	0xd
 1275 07d5 3B       		.byte	0x3b
 1276 07d6 A4070000 		.4byte	0x7a4
 1277 07da 08       		.byte	0x8
 1278 07db 07       		.uleb128 0x7
 1279 07dc 03030000 		.4byte	.LASF120
 1280 07e0 0D       		.byte	0xd
 1281 07e1 3D       		.byte	0x3d
 1282 07e2 A4070000 		.4byte	0x7a4
 1283 07e6 20       		.byte	0x20
 1284 07e7 00       		.byte	0
 1285 07e8 04       		.uleb128 0x4
 1286 07e9 C0020000 		.4byte	.LASF121
 1287 07ed 0D       		.byte	0xd
 1288 07ee 3F       		.byte	0x3f
 1289 07ef AF070000 		.4byte	0x7af
 1290 07f3 1A       		.uleb128 0x1a
 1291 07f4 04       		.byte	0x4
 1292 07f5 07       		.byte	0x7
 1293 07f6 F6       		.byte	0xf6
 1294 07f7 2B080000 		.4byte	0x82b
ARM GAS  C:\Users\jo\AppData\Local\Temp\ccCLWXIb.s 			page 24


 1295 07fb 1B       		.uleb128 0x1b
 1296 07fc 19000000 		.4byte	.LASF122
 1297 0800 07       		.byte	0x7
 1298 0801 FD       		.byte	0xfd
 1299 0802 0F010000 		.4byte	0x10f
 1300 0806 1C       		.uleb128 0x1c
 1301 0807 B7000000 		.4byte	.LASF123
 1302 080b 07       		.byte	0x7
 1303 080c 0401     		.2byte	0x104
 1304 080e 0F010000 		.4byte	0x10f
 1305 0812 1C       		.uleb128 0x1c
 1306 0813 B7060000 		.4byte	.LASF124
 1307 0817 07       		.byte	0x7
 1308 0818 0B01     		.2byte	0x10b
 1309 081a 2E030000 		.4byte	0x32e
 1310 081e 1C       		.uleb128 0x1c
 1311 081f 46050000 		.4byte	.LASF125
 1312 0823 07       		.byte	0x7
 1313 0824 1201     		.2byte	0x112
 1314 0826 1A010000 		.4byte	0x11a
 1315 082a 00       		.byte	0
 1316 082b 0B       		.uleb128 0xb
 1317 082c 04       		.byte	0x4
 1318 082d CF040000 		.4byte	0x4cf
 1319 0831 06       		.uleb128 0x6
 1320 0832 F8040000 		.4byte	.LASF126
 1321 0836 10       		.byte	0x10
 1322 0837 0E       		.byte	0xe
 1323 0838 39       		.byte	0x39
 1324 0839 62080000 		.4byte	0x862
 1325 083d 07       		.uleb128 0x7
 1326 083e 83010000 		.4byte	.LASF127
 1327 0842 0E       		.byte	0xe
 1328 0843 3A       		.byte	0x3a
 1329 0844 7B020000 		.4byte	0x27b
 1330 0848 00       		.byte	0
 1331 0849 07       		.uleb128 0x7
 1332 084a 0D070000 		.4byte	.LASF128
 1333 084e 0E       		.byte	0xe
 1334 084f 3C       		.byte	0x3c
 1335 0850 E1060000 		.4byte	0x6e1
 1336 0854 08       		.byte	0x8
 1337 0855 07       		.uleb128 0x7
 1338 0856 FF050000 		.4byte	.LASF129
 1339 085a 0E       		.byte	0xe
 1340 085b 3E       		.byte	0x3e
 1341 085c 8E080000 		.4byte	0x88e
 1342 0860 0C       		.byte	0xc
 1343 0861 00       		.byte	0
 1344 0862 0B       		.uleb128 0xb
 1345 0863 04       		.byte	0x4
 1346 0864 31080000 		.4byte	0x831
 1347 0868 0B       		.uleb128 0xb
 1348 0869 04       		.byte	0x4
 1349 086a 30030000 		.4byte	0x330
 1350 086e 05       		.uleb128 0x5
 1351 086f 9D060000 		.4byte	0x69d
ARM GAS  C:\Users\jo\AppData\Local\Temp\ccCLWXIb.s 			page 25


 1352 0873 12       		.uleb128 0x12
 1353 0874 CF040000 		.4byte	0x4cf
 1354 0878 83080000 		.4byte	0x883
 1355 087c 13       		.uleb128 0x13
 1356 087d 9D040000 		.4byte	0x49d
 1357 0881 1E       		.byte	0x1e
 1358 0882 00       		.byte	0
 1359 0883 04       		.uleb128 0x4
 1360 0884 4B020000 		.4byte	.LASF130
 1361 0888 0E       		.byte	0xe
 1362 0889 34       		.byte	0x34
 1363 088a 31080000 		.4byte	0x831
 1364 088e 0B       		.uleb128 0xb
 1365 088f 04       		.byte	0x4
 1366 0890 83080000 		.4byte	0x883
 1367 0894 03       		.uleb128 0x3
 1368 0895 01       		.byte	0x1
 1369 0896 02       		.byte	0x2
 1370 0897 07050000 		.4byte	.LASF131
 1371 089b 1D       		.uleb128 0x1d
 1372 089c F1010000 		.4byte	.LASF135
 1373 08a0 02       		.byte	0x2
 1374 08a1 BE       		.byte	0xbe
 1375 08a2 94080000 		.4byte	0x894
 1376 08a6 03       		.byte	0x3
 1377 08a7 1E       		.uleb128 0x1e
 1378 08a8 32030000 		.4byte	.LASF132
 1379 08ac 02       		.byte	0x2
 1380 08ad 8C       		.byte	0x8c
 1381 08ae 03       		.byte	0x3
 1382 08af BF080000 		.4byte	0x8bf
 1383 08b3 1F       		.uleb128 0x1f
 1384 08b4 9A040000 		.4byte	.LASF134
 1385 08b8 02       		.byte	0x2
 1386 08b9 8C       		.byte	0x8c
 1387 08ba 3B010000 		.4byte	0x13b
 1388 08be 00       		.byte	0
 1389 08bf 20       		.uleb128 0x20
 1390 08c0 63060000 		.4byte	.LASF146
 1391 08c4 02       		.byte	0x2
 1392 08c5 98       		.byte	0x98
 1393 08c6 03       		.byte	0x3
 1394 08c7 1E       		.uleb128 0x1e
 1395 08c8 F1060000 		.4byte	.LASF133
 1396 08cc 02       		.byte	0x2
 1397 08cd A4       		.byte	0xa4
 1398 08ce 03       		.byte	0x3
 1399 08cf DF080000 		.4byte	0x8df
 1400 08d3 1F       		.uleb128 0x1f
 1401 08d4 9A040000 		.4byte	.LASF134
 1402 08d8 02       		.byte	0x2
 1403 08d9 A4       		.byte	0xa4
 1404 08da 3B010000 		.4byte	0x13b
 1405 08de 00       		.byte	0
 1406 08df 1D       		.uleb128 0x1d
 1407 08e0 7E050000 		.4byte	.LASF136
 1408 08e4 02       		.byte	0x2
ARM GAS  C:\Users\jo\AppData\Local\Temp\ccCLWXIb.s 			page 26


 1409 08e5 B0       		.byte	0xb0
 1410 08e6 3B010000 		.4byte	0x13b
 1411 08ea 03       		.byte	0x3
 1412 08eb 21       		.uleb128 0x21
 1413 08ec 7C040000 		.4byte	.LASF137
 1414 08f0 01       		.byte	0x1
 1415 08f1 3F       		.byte	0x3f
 1416 08f2 00000000 		.4byte	.LFB255
 1417 08f6 04000000 		.4byte	.LFE255-.LFB255
 1418 08fa 01       		.uleb128 0x1
 1419 08fb 9C       		.byte	0x9c
 1420 08fc 0A090000 		.4byte	0x90a
 1421 0900 22       		.uleb128 0x22
 1422 0901 04000000 		.4byte	.LVL0
 1423 0905 FA0A0000 		.4byte	0xafa
 1424 0909 00       		.byte	0
 1425 090a 21       		.uleb128 0x21
 1426 090b 40060000 		.4byte	.LASF138
 1427 090f 01       		.byte	0x1
 1428 0910 50       		.byte	0x50
 1429 0911 00000000 		.4byte	.LFB256
 1430 0915 34000000 		.4byte	.LFE256-.LFB256
 1431 0919 01       		.uleb128 0x1
 1432 091a 9C       		.byte	0x9c
 1433 091b 94090000 		.4byte	0x994
 1434 091f 23       		.uleb128 0x23
 1435 0920 9A040000 		.4byte	.LASF134
 1436 0924 01       		.byte	0x1
 1437 0925 50       		.byte	0x50
 1438 0926 3B010000 		.4byte	0x13b
 1439 092a 00000000 		.4byte	.LLST0
 1440 092e 24       		.uleb128 0x24
 1441 092f 5C050000 		.4byte	.LASF141
 1442 0933 A4090000 		.4byte	0x9a4
 1443 0937 05       		.uleb128 0x5
 1444 0938 03       		.byte	0x3
 1445 0939 00000000 		.4byte	__func__.8189
 1446 093d 25       		.uleb128 0x25
 1447 093e 9B080000 		.4byte	0x89b
 1448 0942 00000000 		.4byte	.LBB16
 1449 0946 00000000 		.4byte	.Ldebug_ranges0+0
 1450 094a 01       		.byte	0x1
 1451 094b 52       		.byte	0x52
 1452 094c 26       		.uleb128 0x26
 1453 094d A7080000 		.4byte	0x8a7
 1454 0951 1C000000 		.4byte	.LBB20
 1455 0955 18000000 		.4byte	.LBE20-.LBB20
 1456 0959 01       		.byte	0x1
 1457 095a 54       		.byte	0x54
 1458 095b 69090000 		.4byte	0x969
 1459 095f 27       		.uleb128 0x27
 1460 0960 B3080000 		.4byte	0x8b3
 1461 0964 2C000000 		.4byte	.LLST1
 1462 0968 00       		.byte	0
 1463 0969 28       		.uleb128 0x28
 1464 096a 14000000 		.4byte	.LVL3
 1465 096e 010B0000 		.4byte	0xb01
ARM GAS  C:\Users\jo\AppData\Local\Temp\ccCLWXIb.s 			page 27


 1466 0972 80090000 		.4byte	0x980
 1467 0976 29       		.uleb128 0x29
 1468 0977 01       		.uleb128 0x1
 1469 0978 50       		.byte	0x50
 1470 0979 05       		.uleb128 0x5
 1471 097a 03       		.byte	0x3
 1472 097b 00000000 		.4byte	.LC0
 1473 097f 00       		.byte	0
 1474 0980 2A       		.uleb128 0x2a
 1475 0981 1C000000 		.4byte	.LVL4
 1476 0985 1A0B0000 		.4byte	0xb1a
 1477 0989 29       		.uleb128 0x29
 1478 098a 01       		.uleb128 0x1
 1479 098b 50       		.byte	0x50
 1480 098c 05       		.uleb128 0x5
 1481 098d 03       		.byte	0x3
 1482 098e 00000000 		.4byte	.LANCHOR0
 1483 0992 00       		.byte	0
 1484 0993 00       		.byte	0
 1485 0994 12       		.uleb128 0x12
 1486 0995 96060000 		.4byte	0x696
 1487 0999 A4090000 		.4byte	0x9a4
 1488 099d 13       		.uleb128 0x13
 1489 099e 9D040000 		.4byte	0x49d
 1490 09a2 0C       		.byte	0xc
 1491 09a3 00       		.byte	0
 1492 09a4 17       		.uleb128 0x17
 1493 09a5 94090000 		.4byte	0x994
 1494 09a9 21       		.uleb128 0x21
 1495 09aa DB050000 		.4byte	.LASF139
 1496 09ae 01       		.byte	0x1
 1497 09af 5E       		.byte	0x5e
 1498 09b0 00000000 		.4byte	.LFB257
 1499 09b4 0A000000 		.4byte	.LFE257-.LFB257
 1500 09b8 01       		.uleb128 0x1
 1501 09b9 9C       		.byte	0x9c
 1502 09ba CE090000 		.4byte	0x9ce
 1503 09be 2B       		.uleb128 0x2b
 1504 09bf BF080000 		.4byte	0x8bf
 1505 09c3 00000000 		.4byte	.LBB22
 1506 09c7 0A000000 		.4byte	.LBE22-.LBB22
 1507 09cb 01       		.byte	0x1
 1508 09cc 60       		.byte	0x60
 1509 09cd 00       		.byte	0
 1510 09ce 21       		.uleb128 0x21
 1511 09cf A1060000 		.4byte	.LASF140
 1512 09d3 01       		.byte	0x1
 1513 09d4 6C       		.byte	0x6c
 1514 09d5 00000000 		.4byte	.LFB258
 1515 09d9 2C000000 		.4byte	.LFE258-.LFB258
 1516 09dd 01       		.uleb128 0x1
 1517 09de 9C       		.byte	0x9c
 1518 09df 580A0000 		.4byte	0xa58
 1519 09e3 23       		.uleb128 0x23
 1520 09e4 9A040000 		.4byte	.LASF134
 1521 09e8 01       		.byte	0x1
 1522 09e9 6C       		.byte	0x6c
ARM GAS  C:\Users\jo\AppData\Local\Temp\ccCLWXIb.s 			page 28


 1523 09ea 3B010000 		.4byte	0x13b
 1524 09ee 4D000000 		.4byte	.LLST2
 1525 09f2 24       		.uleb128 0x24
 1526 09f3 5C050000 		.4byte	.LASF141
 1527 09f7 680A0000 		.4byte	0xa68
 1528 09fb 05       		.uleb128 0x5
 1529 09fc 03       		.byte	0x3
 1530 09fd 00000000 		.4byte	__func__.8196
 1531 0a01 25       		.uleb128 0x25
 1532 0a02 9B080000 		.4byte	0x89b
 1533 0a06 00000000 		.4byte	.LBB24
 1534 0a0a 18000000 		.4byte	.Ldebug_ranges0+0x18
 1535 0a0e 01       		.byte	0x1
 1536 0a0f 6E       		.byte	0x6e
 1537 0a10 26       		.uleb128 0x26
 1538 0a11 C7080000 		.4byte	0x8c7
 1539 0a15 1C000000 		.4byte	.LBB28
 1540 0a19 10000000 		.4byte	.LBE28-.LBB28
 1541 0a1d 01       		.byte	0x1
 1542 0a1e 70       		.byte	0x70
 1543 0a1f 2D0A0000 		.4byte	0xa2d
 1544 0a23 27       		.uleb128 0x27
 1545 0a24 D3080000 		.4byte	0x8d3
 1546 0a28 77000000 		.4byte	.LLST3
 1547 0a2c 00       		.byte	0
 1548 0a2d 28       		.uleb128 0x28
 1549 0a2e 14000000 		.4byte	.LVL8
 1550 0a32 010B0000 		.4byte	0xb01
 1551 0a36 440A0000 		.4byte	0xa44
 1552 0a3a 29       		.uleb128 0x29
 1553 0a3b 01       		.uleb128 0x1
 1554 0a3c 50       		.byte	0x50
 1555 0a3d 05       		.uleb128 0x5
 1556 0a3e 03       		.byte	0x3
 1557 0a3f 10000000 		.4byte	.LC1
 1558 0a43 00       		.byte	0
 1559 0a44 2A       		.uleb128 0x2a
 1560 0a45 1C000000 		.4byte	.LVL9
 1561 0a49 1A0B0000 		.4byte	0xb1a
 1562 0a4d 29       		.uleb128 0x29
 1563 0a4e 01       		.uleb128 0x1
 1564 0a4f 50       		.byte	0x50
 1565 0a50 05       		.uleb128 0x5
 1566 0a51 03       		.byte	0x3
 1567 0a52 00000000 		.4byte	.LANCHOR1
 1568 0a56 00       		.byte	0
 1569 0a57 00       		.byte	0
 1570 0a58 12       		.uleb128 0x12
 1571 0a59 96060000 		.4byte	0x696
 1572 0a5d 680A0000 		.4byte	0xa68
 1573 0a61 13       		.uleb128 0x13
 1574 0a62 9D040000 		.4byte	0x49d
 1575 0a66 0A       		.byte	0xa
 1576 0a67 00       		.byte	0
 1577 0a68 17       		.uleb128 0x17
 1578 0a69 580A0000 		.4byte	0xa58
 1579 0a6d 2C       		.uleb128 0x2c
ARM GAS  C:\Users\jo\AppData\Local\Temp\ccCLWXIb.s 			page 29


 1580 0a6e AC060000 		.4byte	.LASF147
 1581 0a72 01       		.byte	0x1
 1582 0a73 7C       		.byte	0x7c
 1583 0a74 3B010000 		.4byte	0x13b
 1584 0a78 00000000 		.4byte	.LFB259
 1585 0a7c 2C000000 		.4byte	.LFE259-.LFB259
 1586 0a80 01       		.uleb128 0x1
 1587 0a81 9C       		.byte	0x9c
 1588 0a82 DE0A0000 		.4byte	0xade
 1589 0a86 24       		.uleb128 0x24
 1590 0a87 5C050000 		.4byte	.LASF141
 1591 0a8b DE0A0000 		.4byte	0xade
 1592 0a8f 05       		.uleb128 0x5
 1593 0a90 03       		.byte	0x3
 1594 0a91 00000000 		.4byte	__func__.8200
 1595 0a95 2B       		.uleb128 0x2b
 1596 0a96 9B080000 		.4byte	0x89b
 1597 0a9a 02000000 		.4byte	.LBB30
 1598 0a9e 06000000 		.4byte	.LBE30-.LBB30
 1599 0aa2 01       		.byte	0x1
 1600 0aa3 7E       		.byte	0x7e
 1601 0aa4 2B       		.uleb128 0x2b
 1602 0aa5 DF080000 		.4byte	0x8df
 1603 0aa9 1A000000 		.4byte	.LBB32
 1604 0aad 06000000 		.4byte	.LBE32-.LBB32
 1605 0ab1 01       		.byte	0x1
 1606 0ab2 80       		.byte	0x80
 1607 0ab3 28       		.uleb128 0x28
 1608 0ab4 12000000 		.4byte	.LVL11
 1609 0ab8 010B0000 		.4byte	0xb01
 1610 0abc CA0A0000 		.4byte	0xaca
 1611 0ac0 29       		.uleb128 0x29
 1612 0ac1 01       		.uleb128 0x1
 1613 0ac2 50       		.byte	0x50
 1614 0ac3 05       		.uleb128 0x5
 1615 0ac4 03       		.byte	0x3
 1616 0ac5 10000000 		.4byte	.LC1
 1617 0ac9 00       		.byte	0
 1618 0aca 2A       		.uleb128 0x2a
 1619 0acb 1A000000 		.4byte	.LVL12
 1620 0acf 1A0B0000 		.4byte	0xb1a
 1621 0ad3 29       		.uleb128 0x29
 1622 0ad4 01       		.uleb128 0x1
 1623 0ad5 50       		.byte	0x50
 1624 0ad6 05       		.uleb128 0x5
 1625 0ad7 03       		.byte	0x3
 1626 0ad8 00000000 		.4byte	.LANCHOR2
 1627 0adc 00       		.byte	0
 1628 0add 00       		.byte	0
 1629 0ade 17       		.uleb128 0x17
 1630 0adf 580A0000 		.4byte	0xa58
 1631 0ae3 2D       		.uleb128 0x2d
 1632 0ae4 E1000000 		.4byte	.LASF142
 1633 0ae8 0F       		.byte	0xf
 1634 0ae9 A706     		.2byte	0x6a7
 1635 0aeb C3000000 		.4byte	0xc3
 1636 0aef 2E       		.uleb128 0x2e
ARM GAS  C:\Users\jo\AppData\Local\Temp\ccCLWXIb.s 			page 30


 1637 0af0 636800   		.ascii	"ch\000"
 1638 0af3 07       		.byte	0x7
 1639 0af4 EB01     		.2byte	0x1eb
 1640 0af6 25040000 		.4byte	0x425
 1641 0afa 2F       		.uleb128 0x2f
 1642 0afb EE000000 		.4byte	.LASF148
 1643 0aff 02       		.byte	0x2
 1644 0b00 6E       		.byte	0x6e
 1645 0b01 30       		.uleb128 0x30
 1646 0b02 AE010000 		.4byte	.LASF149
 1647 0b06 10       		.byte	0x10
 1648 0b07 00       		.byte	0
 1649 0b08 2A040000 		.4byte	.LASF150
 1650 0b0c 25000000 		.4byte	0x25
 1651 0b10 1A0B0000 		.4byte	0xb1a
 1652 0b14 0D       		.uleb128 0xd
 1653 0b15 9D060000 		.4byte	0x69d
 1654 0b19 00       		.byte	0
 1655 0b1a 31       		.uleb128 0x31
 1656 0b1b 31020000 		.4byte	.LASF151
 1657 0b1f 11       		.byte	0x11
 1658 0b20 E6       		.byte	0xe6
 1659 0b21 0D       		.uleb128 0xd
 1660 0b22 9D060000 		.4byte	0x69d
 1661 0b26 00       		.byte	0
 1662 0b27 00       		.byte	0
 1663              		.section	.debug_abbrev,"",%progbits
 1664              	.Ldebug_abbrev0:
 1665 0000 01       		.uleb128 0x1
 1666 0001 11       		.uleb128 0x11
 1667 0002 01       		.byte	0x1
 1668 0003 25       		.uleb128 0x25
 1669 0004 0E       		.uleb128 0xe
 1670 0005 13       		.uleb128 0x13
 1671 0006 0B       		.uleb128 0xb
 1672 0007 03       		.uleb128 0x3
 1673 0008 0E       		.uleb128 0xe
 1674 0009 1B       		.uleb128 0x1b
 1675 000a 0E       		.uleb128 0xe
 1676 000b 55       		.uleb128 0x55
 1677 000c 17       		.uleb128 0x17
 1678 000d 11       		.uleb128 0x11
 1679 000e 01       		.uleb128 0x1
 1680 000f 10       		.uleb128 0x10
 1681 0010 17       		.uleb128 0x17
 1682 0011 00       		.byte	0
 1683 0012 00       		.byte	0
 1684 0013 02       		.uleb128 0x2
 1685 0014 24       		.uleb128 0x24
 1686 0015 00       		.byte	0
 1687 0016 0B       		.uleb128 0xb
 1688 0017 0B       		.uleb128 0xb
 1689 0018 3E       		.uleb128 0x3e
 1690 0019 0B       		.uleb128 0xb
 1691 001a 03       		.uleb128 0x3
 1692 001b 08       		.uleb128 0x8
 1693 001c 00       		.byte	0
ARM GAS  C:\Users\jo\AppData\Local\Temp\ccCLWXIb.s 			page 31


 1694 001d 00       		.byte	0
 1695 001e 03       		.uleb128 0x3
 1696 001f 24       		.uleb128 0x24
 1697 0020 00       		.byte	0
 1698 0021 0B       		.uleb128 0xb
 1699 0022 0B       		.uleb128 0xb
 1700 0023 3E       		.uleb128 0x3e
 1701 0024 0B       		.uleb128 0xb
 1702 0025 03       		.uleb128 0x3
 1703 0026 0E       		.uleb128 0xe
 1704 0027 00       		.byte	0
 1705 0028 00       		.byte	0
 1706 0029 04       		.uleb128 0x4
 1707 002a 16       		.uleb128 0x16
 1708 002b 00       		.byte	0
 1709 002c 03       		.uleb128 0x3
 1710 002d 0E       		.uleb128 0xe
 1711 002e 3A       		.uleb128 0x3a
 1712 002f 0B       		.uleb128 0xb
 1713 0030 3B       		.uleb128 0x3b
 1714 0031 0B       		.uleb128 0xb
 1715 0032 49       		.uleb128 0x49
 1716 0033 13       		.uleb128 0x13
 1717 0034 00       		.byte	0
 1718 0035 00       		.byte	0
 1719 0036 05       		.uleb128 0x5
 1720 0037 35       		.uleb128 0x35
 1721 0038 00       		.byte	0
 1722 0039 49       		.uleb128 0x49
 1723 003a 13       		.uleb128 0x13
 1724 003b 00       		.byte	0
 1725 003c 00       		.byte	0
 1726 003d 06       		.uleb128 0x6
 1727 003e 13       		.uleb128 0x13
 1728 003f 01       		.byte	0x1
 1729 0040 03       		.uleb128 0x3
 1730 0041 0E       		.uleb128 0xe
 1731 0042 0B       		.uleb128 0xb
 1732 0043 0B       		.uleb128 0xb
 1733 0044 3A       		.uleb128 0x3a
 1734 0045 0B       		.uleb128 0xb
 1735 0046 3B       		.uleb128 0x3b
 1736 0047 0B       		.uleb128 0xb
 1737 0048 01       		.uleb128 0x1
 1738 0049 13       		.uleb128 0x13
 1739 004a 00       		.byte	0
 1740 004b 00       		.byte	0
 1741 004c 07       		.uleb128 0x7
 1742 004d 0D       		.uleb128 0xd
 1743 004e 00       		.byte	0
 1744 004f 03       		.uleb128 0x3
 1745 0050 0E       		.uleb128 0xe
 1746 0051 3A       		.uleb128 0x3a
 1747 0052 0B       		.uleb128 0xb
 1748 0053 3B       		.uleb128 0x3b
 1749 0054 0B       		.uleb128 0xb
 1750 0055 49       		.uleb128 0x49
ARM GAS  C:\Users\jo\AppData\Local\Temp\ccCLWXIb.s 			page 32


 1751 0056 13       		.uleb128 0x13
 1752 0057 38       		.uleb128 0x38
 1753 0058 0B       		.uleb128 0xb
 1754 0059 00       		.byte	0
 1755 005a 00       		.byte	0
 1756 005b 08       		.uleb128 0x8
 1757 005c 0D       		.uleb128 0xd
 1758 005d 00       		.byte	0
 1759 005e 03       		.uleb128 0x3
 1760 005f 08       		.uleb128 0x8
 1761 0060 3A       		.uleb128 0x3a
 1762 0061 0B       		.uleb128 0xb
 1763 0062 3B       		.uleb128 0x3b
 1764 0063 05       		.uleb128 0x5
 1765 0064 49       		.uleb128 0x49
 1766 0065 13       		.uleb128 0x13
 1767 0066 38       		.uleb128 0x38
 1768 0067 0B       		.uleb128 0xb
 1769 0068 00       		.byte	0
 1770 0069 00       		.byte	0
 1771 006a 09       		.uleb128 0x9
 1772 006b 0D       		.uleb128 0xd
 1773 006c 00       		.byte	0
 1774 006d 03       		.uleb128 0x3
 1775 006e 0E       		.uleb128 0xe
 1776 006f 3A       		.uleb128 0x3a
 1777 0070 0B       		.uleb128 0xb
 1778 0071 3B       		.uleb128 0x3b
 1779 0072 05       		.uleb128 0x5
 1780 0073 49       		.uleb128 0x49
 1781 0074 13       		.uleb128 0x13
 1782 0075 38       		.uleb128 0x38
 1783 0076 0B       		.uleb128 0xb
 1784 0077 00       		.byte	0
 1785 0078 00       		.byte	0
 1786 0079 0A       		.uleb128 0xa
 1787 007a 13       		.uleb128 0x13
 1788 007b 01       		.byte	0x1
 1789 007c 03       		.uleb128 0x3
 1790 007d 0E       		.uleb128 0xe
 1791 007e 0B       		.uleb128 0xb
 1792 007f 0B       		.uleb128 0xb
 1793 0080 3A       		.uleb128 0x3a
 1794 0081 0B       		.uleb128 0xb
 1795 0082 3B       		.uleb128 0x3b
 1796 0083 05       		.uleb128 0x5
 1797 0084 01       		.uleb128 0x1
 1798 0085 13       		.uleb128 0x13
 1799 0086 00       		.byte	0
 1800 0087 00       		.byte	0
 1801 0088 0B       		.uleb128 0xb
 1802 0089 0F       		.uleb128 0xf
 1803 008a 00       		.byte	0
 1804 008b 0B       		.uleb128 0xb
 1805 008c 0B       		.uleb128 0xb
 1806 008d 49       		.uleb128 0x49
 1807 008e 13       		.uleb128 0x13
ARM GAS  C:\Users\jo\AppData\Local\Temp\ccCLWXIb.s 			page 33


 1808 008f 00       		.byte	0
 1809 0090 00       		.byte	0
 1810 0091 0C       		.uleb128 0xc
 1811 0092 15       		.uleb128 0x15
 1812 0093 01       		.byte	0x1
 1813 0094 27       		.uleb128 0x27
 1814 0095 19       		.uleb128 0x19
 1815 0096 01       		.uleb128 0x1
 1816 0097 13       		.uleb128 0x13
 1817 0098 00       		.byte	0
 1818 0099 00       		.byte	0
 1819 009a 0D       		.uleb128 0xd
 1820 009b 05       		.uleb128 0x5
 1821 009c 00       		.byte	0
 1822 009d 49       		.uleb128 0x49
 1823 009e 13       		.uleb128 0x13
 1824 009f 00       		.byte	0
 1825 00a0 00       		.byte	0
 1826 00a1 0E       		.uleb128 0xe
 1827 00a2 0F       		.uleb128 0xf
 1828 00a3 00       		.byte	0
 1829 00a4 0B       		.uleb128 0xb
 1830 00a5 0B       		.uleb128 0xb
 1831 00a6 00       		.byte	0
 1832 00a7 00       		.byte	0
 1833 00a8 0F       		.uleb128 0xf
 1834 00a9 13       		.uleb128 0x13
 1835 00aa 01       		.byte	0x1
 1836 00ab 03       		.uleb128 0x3
 1837 00ac 0E       		.uleb128 0xe
 1838 00ad 0B       		.uleb128 0xb
 1839 00ae 05       		.uleb128 0x5
 1840 00af 3A       		.uleb128 0x3a
 1841 00b0 0B       		.uleb128 0xb
 1842 00b1 3B       		.uleb128 0x3b
 1843 00b2 05       		.uleb128 0x5
 1844 00b3 01       		.uleb128 0x1
 1845 00b4 13       		.uleb128 0x13
 1846 00b5 00       		.byte	0
 1847 00b6 00       		.byte	0
 1848 00b7 10       		.uleb128 0x10
 1849 00b8 0D       		.uleb128 0xd
 1850 00b9 00       		.byte	0
 1851 00ba 03       		.uleb128 0x3
 1852 00bb 0E       		.uleb128 0xe
 1853 00bc 3A       		.uleb128 0x3a
 1854 00bd 0B       		.uleb128 0xb
 1855 00be 3B       		.uleb128 0x3b
 1856 00bf 05       		.uleb128 0x5
 1857 00c0 49       		.uleb128 0x49
 1858 00c1 13       		.uleb128 0x13
 1859 00c2 38       		.uleb128 0x38
 1860 00c3 05       		.uleb128 0x5
 1861 00c4 00       		.byte	0
 1862 00c5 00       		.byte	0
 1863 00c6 11       		.uleb128 0x11
 1864 00c7 0D       		.uleb128 0xd
ARM GAS  C:\Users\jo\AppData\Local\Temp\ccCLWXIb.s 			page 34


 1865 00c8 00       		.byte	0
 1866 00c9 03       		.uleb128 0x3
 1867 00ca 08       		.uleb128 0x8
 1868 00cb 3A       		.uleb128 0x3a
 1869 00cc 0B       		.uleb128 0xb
 1870 00cd 3B       		.uleb128 0x3b
 1871 00ce 05       		.uleb128 0x5
 1872 00cf 49       		.uleb128 0x49
 1873 00d0 13       		.uleb128 0x13
 1874 00d1 38       		.uleb128 0x38
 1875 00d2 05       		.uleb128 0x5
 1876 00d3 00       		.byte	0
 1877 00d4 00       		.byte	0
 1878 00d5 12       		.uleb128 0x12
 1879 00d6 01       		.uleb128 0x1
 1880 00d7 01       		.byte	0x1
 1881 00d8 49       		.uleb128 0x49
 1882 00d9 13       		.uleb128 0x13
 1883 00da 01       		.uleb128 0x1
 1884 00db 13       		.uleb128 0x13
 1885 00dc 00       		.byte	0
 1886 00dd 00       		.byte	0
 1887 00de 13       		.uleb128 0x13
 1888 00df 21       		.uleb128 0x21
 1889 00e0 00       		.byte	0
 1890 00e1 49       		.uleb128 0x49
 1891 00e2 13       		.uleb128 0x13
 1892 00e3 2F       		.uleb128 0x2f
 1893 00e4 0B       		.uleb128 0xb
 1894 00e5 00       		.byte	0
 1895 00e6 00       		.byte	0
 1896 00e7 14       		.uleb128 0x14
 1897 00e8 0D       		.uleb128 0xd
 1898 00e9 00       		.byte	0
 1899 00ea 03       		.uleb128 0x3
 1900 00eb 08       		.uleb128 0x8
 1901 00ec 3A       		.uleb128 0x3a
 1902 00ed 0B       		.uleb128 0xb
 1903 00ee 3B       		.uleb128 0x3b
 1904 00ef 0B       		.uleb128 0xb
 1905 00f0 49       		.uleb128 0x49
 1906 00f1 13       		.uleb128 0x13
 1907 00f2 38       		.uleb128 0x38
 1908 00f3 0B       		.uleb128 0xb
 1909 00f4 00       		.byte	0
 1910 00f5 00       		.byte	0
 1911 00f6 15       		.uleb128 0x15
 1912 00f7 13       		.uleb128 0x13
 1913 00f8 01       		.byte	0x1
 1914 00f9 0B       		.uleb128 0xb
 1915 00fa 0B       		.uleb128 0xb
 1916 00fb 3A       		.uleb128 0x3a
 1917 00fc 0B       		.uleb128 0xb
 1918 00fd 3B       		.uleb128 0x3b
 1919 00fe 05       		.uleb128 0x5
 1920 00ff 01       		.uleb128 0x1
 1921 0100 13       		.uleb128 0x13
ARM GAS  C:\Users\jo\AppData\Local\Temp\ccCLWXIb.s 			page 35


 1922 0101 00       		.byte	0
 1923 0102 00       		.byte	0
 1924 0103 16       		.uleb128 0x16
 1925 0104 16       		.uleb128 0x16
 1926 0105 00       		.byte	0
 1927 0106 03       		.uleb128 0x3
 1928 0107 0E       		.uleb128 0xe
 1929 0108 3A       		.uleb128 0x3a
 1930 0109 0B       		.uleb128 0xb
 1931 010a 3B       		.uleb128 0x3b
 1932 010b 05       		.uleb128 0x5
 1933 010c 49       		.uleb128 0x49
 1934 010d 13       		.uleb128 0x13
 1935 010e 00       		.byte	0
 1936 010f 00       		.byte	0
 1937 0110 17       		.uleb128 0x17
 1938 0111 26       		.uleb128 0x26
 1939 0112 00       		.byte	0
 1940 0113 49       		.uleb128 0x49
 1941 0114 13       		.uleb128 0x13
 1942 0115 00       		.byte	0
 1943 0116 00       		.byte	0
 1944 0117 18       		.uleb128 0x18
 1945 0118 13       		.uleb128 0x13
 1946 0119 01       		.byte	0x1
 1947 011a 0B       		.uleb128 0xb
 1948 011b 0B       		.uleb128 0xb
 1949 011c 3A       		.uleb128 0x3a
 1950 011d 0B       		.uleb128 0xb
 1951 011e 3B       		.uleb128 0x3b
 1952 011f 0B       		.uleb128 0xb
 1953 0120 01       		.uleb128 0x1
 1954 0121 13       		.uleb128 0x13
 1955 0122 00       		.byte	0
 1956 0123 00       		.byte	0
 1957 0124 19       		.uleb128 0x19
 1958 0125 13       		.uleb128 0x13
 1959 0126 01       		.byte	0x1
 1960 0127 0B       		.uleb128 0xb
 1961 0128 05       		.uleb128 0x5
 1962 0129 3A       		.uleb128 0x3a
 1963 012a 0B       		.uleb128 0xb
 1964 012b 3B       		.uleb128 0x3b
 1965 012c 0B       		.uleb128 0xb
 1966 012d 01       		.uleb128 0x1
 1967 012e 13       		.uleb128 0x13
 1968 012f 00       		.byte	0
 1969 0130 00       		.byte	0
 1970 0131 1A       		.uleb128 0x1a
 1971 0132 17       		.uleb128 0x17
 1972 0133 01       		.byte	0x1
 1973 0134 0B       		.uleb128 0xb
 1974 0135 0B       		.uleb128 0xb
 1975 0136 3A       		.uleb128 0x3a
 1976 0137 0B       		.uleb128 0xb
 1977 0138 3B       		.uleb128 0x3b
 1978 0139 0B       		.uleb128 0xb
ARM GAS  C:\Users\jo\AppData\Local\Temp\ccCLWXIb.s 			page 36


 1979 013a 01       		.uleb128 0x1
 1980 013b 13       		.uleb128 0x13
 1981 013c 00       		.byte	0
 1982 013d 00       		.byte	0
 1983 013e 1B       		.uleb128 0x1b
 1984 013f 0D       		.uleb128 0xd
 1985 0140 00       		.byte	0
 1986 0141 03       		.uleb128 0x3
 1987 0142 0E       		.uleb128 0xe
 1988 0143 3A       		.uleb128 0x3a
 1989 0144 0B       		.uleb128 0xb
 1990 0145 3B       		.uleb128 0x3b
 1991 0146 0B       		.uleb128 0xb
 1992 0147 49       		.uleb128 0x49
 1993 0148 13       		.uleb128 0x13
 1994 0149 00       		.byte	0
 1995 014a 00       		.byte	0
 1996 014b 1C       		.uleb128 0x1c
 1997 014c 0D       		.uleb128 0xd
 1998 014d 00       		.byte	0
 1999 014e 03       		.uleb128 0x3
 2000 014f 0E       		.uleb128 0xe
 2001 0150 3A       		.uleb128 0x3a
 2002 0151 0B       		.uleb128 0xb
 2003 0152 3B       		.uleb128 0x3b
 2004 0153 05       		.uleb128 0x5
 2005 0154 49       		.uleb128 0x49
 2006 0155 13       		.uleb128 0x13
 2007 0156 00       		.byte	0
 2008 0157 00       		.byte	0
 2009 0158 1D       		.uleb128 0x1d
 2010 0159 2E       		.uleb128 0x2e
 2011 015a 00       		.byte	0
 2012 015b 03       		.uleb128 0x3
 2013 015c 0E       		.uleb128 0xe
 2014 015d 3A       		.uleb128 0x3a
 2015 015e 0B       		.uleb128 0xb
 2016 015f 3B       		.uleb128 0x3b
 2017 0160 0B       		.uleb128 0xb
 2018 0161 27       		.uleb128 0x27
 2019 0162 19       		.uleb128 0x19
 2020 0163 49       		.uleb128 0x49
 2021 0164 13       		.uleb128 0x13
 2022 0165 20       		.uleb128 0x20
 2023 0166 0B       		.uleb128 0xb
 2024 0167 00       		.byte	0
 2025 0168 00       		.byte	0
 2026 0169 1E       		.uleb128 0x1e
 2027 016a 2E       		.uleb128 0x2e
 2028 016b 01       		.byte	0x1
 2029 016c 03       		.uleb128 0x3
 2030 016d 0E       		.uleb128 0xe
 2031 016e 3A       		.uleb128 0x3a
 2032 016f 0B       		.uleb128 0xb
 2033 0170 3B       		.uleb128 0x3b
 2034 0171 0B       		.uleb128 0xb
 2035 0172 27       		.uleb128 0x27
ARM GAS  C:\Users\jo\AppData\Local\Temp\ccCLWXIb.s 			page 37


 2036 0173 19       		.uleb128 0x19
 2037 0174 20       		.uleb128 0x20
 2038 0175 0B       		.uleb128 0xb
 2039 0176 01       		.uleb128 0x1
 2040 0177 13       		.uleb128 0x13
 2041 0178 00       		.byte	0
 2042 0179 00       		.byte	0
 2043 017a 1F       		.uleb128 0x1f
 2044 017b 05       		.uleb128 0x5
 2045 017c 00       		.byte	0
 2046 017d 03       		.uleb128 0x3
 2047 017e 0E       		.uleb128 0xe
 2048 017f 3A       		.uleb128 0x3a
 2049 0180 0B       		.uleb128 0xb
 2050 0181 3B       		.uleb128 0x3b
 2051 0182 0B       		.uleb128 0xb
 2052 0183 49       		.uleb128 0x49
 2053 0184 13       		.uleb128 0x13
 2054 0185 00       		.byte	0
 2055 0186 00       		.byte	0
 2056 0187 20       		.uleb128 0x20
 2057 0188 2E       		.uleb128 0x2e
 2058 0189 00       		.byte	0
 2059 018a 03       		.uleb128 0x3
 2060 018b 0E       		.uleb128 0xe
 2061 018c 3A       		.uleb128 0x3a
 2062 018d 0B       		.uleb128 0xb
 2063 018e 3B       		.uleb128 0x3b
 2064 018f 0B       		.uleb128 0xb
 2065 0190 27       		.uleb128 0x27
 2066 0191 19       		.uleb128 0x19
 2067 0192 20       		.uleb128 0x20
 2068 0193 0B       		.uleb128 0xb
 2069 0194 00       		.byte	0
 2070 0195 00       		.byte	0
 2071 0196 21       		.uleb128 0x21
 2072 0197 2E       		.uleb128 0x2e
 2073 0198 01       		.byte	0x1
 2074 0199 3F       		.uleb128 0x3f
 2075 019a 19       		.uleb128 0x19
 2076 019b 03       		.uleb128 0x3
 2077 019c 0E       		.uleb128 0xe
 2078 019d 3A       		.uleb128 0x3a
 2079 019e 0B       		.uleb128 0xb
 2080 019f 3B       		.uleb128 0x3b
 2081 01a0 0B       		.uleb128 0xb
 2082 01a1 27       		.uleb128 0x27
 2083 01a2 19       		.uleb128 0x19
 2084 01a3 11       		.uleb128 0x11
 2085 01a4 01       		.uleb128 0x1
 2086 01a5 12       		.uleb128 0x12
 2087 01a6 06       		.uleb128 0x6
 2088 01a7 40       		.uleb128 0x40
 2089 01a8 18       		.uleb128 0x18
 2090 01a9 9742     		.uleb128 0x2117
 2091 01ab 19       		.uleb128 0x19
 2092 01ac 01       		.uleb128 0x1
ARM GAS  C:\Users\jo\AppData\Local\Temp\ccCLWXIb.s 			page 38


 2093 01ad 13       		.uleb128 0x13
 2094 01ae 00       		.byte	0
 2095 01af 00       		.byte	0
 2096 01b0 22       		.uleb128 0x22
 2097 01b1 898201   		.uleb128 0x4109
 2098 01b4 00       		.byte	0
 2099 01b5 11       		.uleb128 0x11
 2100 01b6 01       		.uleb128 0x1
 2101 01b7 9542     		.uleb128 0x2115
 2102 01b9 19       		.uleb128 0x19
 2103 01ba 31       		.uleb128 0x31
 2104 01bb 13       		.uleb128 0x13
 2105 01bc 00       		.byte	0
 2106 01bd 00       		.byte	0
 2107 01be 23       		.uleb128 0x23
 2108 01bf 05       		.uleb128 0x5
 2109 01c0 00       		.byte	0
 2110 01c1 03       		.uleb128 0x3
 2111 01c2 0E       		.uleb128 0xe
 2112 01c3 3A       		.uleb128 0x3a
 2113 01c4 0B       		.uleb128 0xb
 2114 01c5 3B       		.uleb128 0x3b
 2115 01c6 0B       		.uleb128 0xb
 2116 01c7 49       		.uleb128 0x49
 2117 01c8 13       		.uleb128 0x13
 2118 01c9 02       		.uleb128 0x2
 2119 01ca 17       		.uleb128 0x17
 2120 01cb 00       		.byte	0
 2121 01cc 00       		.byte	0
 2122 01cd 24       		.uleb128 0x24
 2123 01ce 34       		.uleb128 0x34
 2124 01cf 00       		.byte	0
 2125 01d0 03       		.uleb128 0x3
 2126 01d1 0E       		.uleb128 0xe
 2127 01d2 49       		.uleb128 0x49
 2128 01d3 13       		.uleb128 0x13
 2129 01d4 34       		.uleb128 0x34
 2130 01d5 19       		.uleb128 0x19
 2131 01d6 02       		.uleb128 0x2
 2132 01d7 18       		.uleb128 0x18
 2133 01d8 00       		.byte	0
 2134 01d9 00       		.byte	0
 2135 01da 25       		.uleb128 0x25
 2136 01db 1D       		.uleb128 0x1d
 2137 01dc 00       		.byte	0
 2138 01dd 31       		.uleb128 0x31
 2139 01de 13       		.uleb128 0x13
 2140 01df 52       		.uleb128 0x52
 2141 01e0 01       		.uleb128 0x1
 2142 01e1 55       		.uleb128 0x55
 2143 01e2 17       		.uleb128 0x17
 2144 01e3 58       		.uleb128 0x58
 2145 01e4 0B       		.uleb128 0xb
 2146 01e5 59       		.uleb128 0x59
 2147 01e6 0B       		.uleb128 0xb
 2148 01e7 00       		.byte	0
 2149 01e8 00       		.byte	0
ARM GAS  C:\Users\jo\AppData\Local\Temp\ccCLWXIb.s 			page 39


 2150 01e9 26       		.uleb128 0x26
 2151 01ea 1D       		.uleb128 0x1d
 2152 01eb 01       		.byte	0x1
 2153 01ec 31       		.uleb128 0x31
 2154 01ed 13       		.uleb128 0x13
 2155 01ee 11       		.uleb128 0x11
 2156 01ef 01       		.uleb128 0x1
 2157 01f0 12       		.uleb128 0x12
 2158 01f1 06       		.uleb128 0x6
 2159 01f2 58       		.uleb128 0x58
 2160 01f3 0B       		.uleb128 0xb
 2161 01f4 59       		.uleb128 0x59
 2162 01f5 0B       		.uleb128 0xb
 2163 01f6 01       		.uleb128 0x1
 2164 01f7 13       		.uleb128 0x13
 2165 01f8 00       		.byte	0
 2166 01f9 00       		.byte	0
 2167 01fa 27       		.uleb128 0x27
 2168 01fb 05       		.uleb128 0x5
 2169 01fc 00       		.byte	0
 2170 01fd 31       		.uleb128 0x31
 2171 01fe 13       		.uleb128 0x13
 2172 01ff 02       		.uleb128 0x2
 2173 0200 17       		.uleb128 0x17
 2174 0201 00       		.byte	0
 2175 0202 00       		.byte	0
 2176 0203 28       		.uleb128 0x28
 2177 0204 898201   		.uleb128 0x4109
 2178 0207 01       		.byte	0x1
 2179 0208 11       		.uleb128 0x11
 2180 0209 01       		.uleb128 0x1
 2181 020a 31       		.uleb128 0x31
 2182 020b 13       		.uleb128 0x13
 2183 020c 01       		.uleb128 0x1
 2184 020d 13       		.uleb128 0x13
 2185 020e 00       		.byte	0
 2186 020f 00       		.byte	0
 2187 0210 29       		.uleb128 0x29
 2188 0211 8A8201   		.uleb128 0x410a
 2189 0214 00       		.byte	0
 2190 0215 02       		.uleb128 0x2
 2191 0216 18       		.uleb128 0x18
 2192 0217 9142     		.uleb128 0x2111
 2193 0219 18       		.uleb128 0x18
 2194 021a 00       		.byte	0
 2195 021b 00       		.byte	0
 2196 021c 2A       		.uleb128 0x2a
 2197 021d 898201   		.uleb128 0x4109
 2198 0220 01       		.byte	0x1
 2199 0221 11       		.uleb128 0x11
 2200 0222 01       		.uleb128 0x1
 2201 0223 31       		.uleb128 0x31
 2202 0224 13       		.uleb128 0x13
 2203 0225 00       		.byte	0
 2204 0226 00       		.byte	0
 2205 0227 2B       		.uleb128 0x2b
 2206 0228 1D       		.uleb128 0x1d
ARM GAS  C:\Users\jo\AppData\Local\Temp\ccCLWXIb.s 			page 40


 2207 0229 00       		.byte	0
 2208 022a 31       		.uleb128 0x31
 2209 022b 13       		.uleb128 0x13
 2210 022c 11       		.uleb128 0x11
 2211 022d 01       		.uleb128 0x1
 2212 022e 12       		.uleb128 0x12
 2213 022f 06       		.uleb128 0x6
 2214 0230 58       		.uleb128 0x58
 2215 0231 0B       		.uleb128 0xb
 2216 0232 59       		.uleb128 0x59
 2217 0233 0B       		.uleb128 0xb
 2218 0234 00       		.byte	0
 2219 0235 00       		.byte	0
 2220 0236 2C       		.uleb128 0x2c
 2221 0237 2E       		.uleb128 0x2e
 2222 0238 01       		.byte	0x1
 2223 0239 3F       		.uleb128 0x3f
 2224 023a 19       		.uleb128 0x19
 2225 023b 03       		.uleb128 0x3
 2226 023c 0E       		.uleb128 0xe
 2227 023d 3A       		.uleb128 0x3a
 2228 023e 0B       		.uleb128 0xb
 2229 023f 3B       		.uleb128 0x3b
 2230 0240 0B       		.uleb128 0xb
 2231 0241 27       		.uleb128 0x27
 2232 0242 19       		.uleb128 0x19
 2233 0243 49       		.uleb128 0x49
 2234 0244 13       		.uleb128 0x13
 2235 0245 11       		.uleb128 0x11
 2236 0246 01       		.uleb128 0x1
 2237 0247 12       		.uleb128 0x12
 2238 0248 06       		.uleb128 0x6
 2239 0249 40       		.uleb128 0x40
 2240 024a 18       		.uleb128 0x18
 2241 024b 9742     		.uleb128 0x2117
 2242 024d 19       		.uleb128 0x19
 2243 024e 01       		.uleb128 0x1
 2244 024f 13       		.uleb128 0x13
 2245 0250 00       		.byte	0
 2246 0251 00       		.byte	0
 2247 0252 2D       		.uleb128 0x2d
 2248 0253 34       		.uleb128 0x34
 2249 0254 00       		.byte	0
 2250 0255 03       		.uleb128 0x3
 2251 0256 0E       		.uleb128 0xe
 2252 0257 3A       		.uleb128 0x3a
 2253 0258 0B       		.uleb128 0xb
 2254 0259 3B       		.uleb128 0x3b
 2255 025a 05       		.uleb128 0x5
 2256 025b 49       		.uleb128 0x49
 2257 025c 13       		.uleb128 0x13
 2258 025d 3F       		.uleb128 0x3f
 2259 025e 19       		.uleb128 0x19
 2260 025f 3C       		.uleb128 0x3c
 2261 0260 19       		.uleb128 0x19
 2262 0261 00       		.byte	0
 2263 0262 00       		.byte	0
ARM GAS  C:\Users\jo\AppData\Local\Temp\ccCLWXIb.s 			page 41


 2264 0263 2E       		.uleb128 0x2e
 2265 0264 34       		.uleb128 0x34
 2266 0265 00       		.byte	0
 2267 0266 03       		.uleb128 0x3
 2268 0267 08       		.uleb128 0x8
 2269 0268 3A       		.uleb128 0x3a
 2270 0269 0B       		.uleb128 0xb
 2271 026a 3B       		.uleb128 0x3b
 2272 026b 05       		.uleb128 0x5
 2273 026c 49       		.uleb128 0x49
 2274 026d 13       		.uleb128 0x13
 2275 026e 3F       		.uleb128 0x3f
 2276 026f 19       		.uleb128 0x19
 2277 0270 3C       		.uleb128 0x3c
 2278 0271 19       		.uleb128 0x19
 2279 0272 00       		.byte	0
 2280 0273 00       		.byte	0
 2281 0274 2F       		.uleb128 0x2f
 2282 0275 2E       		.uleb128 0x2e
 2283 0276 00       		.byte	0
 2284 0277 3F       		.uleb128 0x3f
 2285 0278 19       		.uleb128 0x19
 2286 0279 03       		.uleb128 0x3
 2287 027a 0E       		.uleb128 0xe
 2288 027b 3A       		.uleb128 0x3a
 2289 027c 0B       		.uleb128 0xb
 2290 027d 3B       		.uleb128 0x3b
 2291 027e 0B       		.uleb128 0xb
 2292 027f 27       		.uleb128 0x27
 2293 0280 19       		.uleb128 0x19
 2294 0281 3C       		.uleb128 0x3c
 2295 0282 19       		.uleb128 0x19
 2296 0283 00       		.byte	0
 2297 0284 00       		.byte	0
 2298 0285 30       		.uleb128 0x30
 2299 0286 2E       		.uleb128 0x2e
 2300 0287 01       		.byte	0x1
 2301 0288 3F       		.uleb128 0x3f
 2302 0289 19       		.uleb128 0x19
 2303 028a 03       		.uleb128 0x3
 2304 028b 0E       		.uleb128 0xe
 2305 028c 3A       		.uleb128 0x3a
 2306 028d 0B       		.uleb128 0xb
 2307 028e 3B       		.uleb128 0x3b
 2308 028f 0B       		.uleb128 0xb
 2309 0290 6E       		.uleb128 0x6e
 2310 0291 0E       		.uleb128 0xe
 2311 0292 27       		.uleb128 0x27
 2312 0293 19       		.uleb128 0x19
 2313 0294 49       		.uleb128 0x49
 2314 0295 13       		.uleb128 0x13
 2315 0296 3C       		.uleb128 0x3c
 2316 0297 19       		.uleb128 0x19
 2317 0298 01       		.uleb128 0x1
 2318 0299 13       		.uleb128 0x13
 2319 029a 00       		.byte	0
 2320 029b 00       		.byte	0
ARM GAS  C:\Users\jo\AppData\Local\Temp\ccCLWXIb.s 			page 42


 2321 029c 31       		.uleb128 0x31
 2322 029d 2E       		.uleb128 0x2e
 2323 029e 01       		.byte	0x1
 2324 029f 3F       		.uleb128 0x3f
 2325 02a0 19       		.uleb128 0x19
 2326 02a1 03       		.uleb128 0x3
 2327 02a2 0E       		.uleb128 0xe
 2328 02a3 3A       		.uleb128 0x3a
 2329 02a4 0B       		.uleb128 0xb
 2330 02a5 3B       		.uleb128 0x3b
 2331 02a6 0B       		.uleb128 0xb
 2332 02a7 27       		.uleb128 0x27
 2333 02a8 19       		.uleb128 0x19
 2334 02a9 3C       		.uleb128 0x3c
 2335 02aa 19       		.uleb128 0x19
 2336 02ab 00       		.byte	0
 2337 02ac 00       		.byte	0
 2338 02ad 00       		.byte	0
 2339              		.section	.debug_loc,"",%progbits
 2340              	.Ldebug_loc0:
 2341              	.LLST0:
 2342 0000 00000000 		.4byte	.LVL1
 2343 0004 10000000 		.4byte	.LVL2
 2344 0008 0100     		.2byte	0x1
 2345 000a 50       		.byte	0x50
 2346 000b 10000000 		.4byte	.LVL2
 2347 000f 2C000000 		.4byte	.LVL5
 2348 0013 0100     		.2byte	0x1
 2349 0015 54       		.byte	0x54
 2350 0016 2C000000 		.4byte	.LVL5
 2351 001a 34000000 		.4byte	.LFE256
 2352 001e 0400     		.2byte	0x4
 2353 0020 F3       		.byte	0xf3
 2354 0021 01       		.uleb128 0x1
 2355 0022 50       		.byte	0x50
 2356 0023 9F       		.byte	0x9f
 2357 0024 00000000 		.4byte	0
 2358 0028 00000000 		.4byte	0
 2359              	.LLST1:
 2360 002c 1C000000 		.4byte	.LVL4
 2361 0030 2C000000 		.4byte	.LVL5
 2362 0034 0100     		.2byte	0x1
 2363 0036 54       		.byte	0x54
 2364 0037 2C000000 		.4byte	.LVL5
 2365 003b 34000000 		.4byte	.LFE256
 2366 003f 0400     		.2byte	0x4
 2367 0041 F3       		.byte	0xf3
 2368 0042 01       		.uleb128 0x1
 2369 0043 50       		.byte	0x50
 2370 0044 9F       		.byte	0x9f
 2371 0045 00000000 		.4byte	0
 2372 0049 00000000 		.4byte	0
 2373              	.LLST2:
 2374 004d 00000000 		.4byte	.LVL6
 2375 0051 10000000 		.4byte	.LVL7
 2376 0055 0100     		.2byte	0x1
 2377 0057 50       		.byte	0x50
ARM GAS  C:\Users\jo\AppData\Local\Temp\ccCLWXIb.s 			page 43


 2378 0058 10000000 		.4byte	.LVL7
 2379 005c 24000000 		.4byte	.LVL10
 2380 0060 0100     		.2byte	0x1
 2381 0062 54       		.byte	0x54
 2382 0063 24000000 		.4byte	.LVL10
 2383 0067 2C000000 		.4byte	.LFE258
 2384 006b 0200     		.2byte	0x2
 2385 006d 73       		.byte	0x73
 2386 006e 34       		.sleb128 52
 2387 006f 00000000 		.4byte	0
 2388 0073 00000000 		.4byte	0
 2389              	.LLST3:
 2390 0077 1C000000 		.4byte	.LVL9
 2391 007b 24000000 		.4byte	.LVL10
 2392 007f 0100     		.2byte	0x1
 2393 0081 54       		.byte	0x54
 2394 0082 24000000 		.4byte	.LVL10
 2395 0086 2C000000 		.4byte	.LFE258
 2396 008a 0200     		.2byte	0x2
 2397 008c 73       		.byte	0x73
 2398 008d 34       		.sleb128 52
 2399 008e 00000000 		.4byte	0
 2400 0092 00000000 		.4byte	0
 2401              		.section	.debug_aranges,"",%progbits
 2402 0000 3C000000 		.4byte	0x3c
 2403 0004 0200     		.2byte	0x2
 2404 0006 00000000 		.4byte	.Ldebug_info0
 2405 000a 04       		.byte	0x4
 2406 000b 00       		.byte	0
 2407 000c 0000     		.2byte	0
 2408 000e 0000     		.2byte	0
 2409 0010 00000000 		.4byte	.LFB255
 2410 0014 04000000 		.4byte	.LFE255-.LFB255
 2411 0018 00000000 		.4byte	.LFB256
 2412 001c 34000000 		.4byte	.LFE256-.LFB256
 2413 0020 00000000 		.4byte	.LFB257
 2414 0024 0A000000 		.4byte	.LFE257-.LFB257
 2415 0028 00000000 		.4byte	.LFB258
 2416 002c 2C000000 		.4byte	.LFE258-.LFB258
 2417 0030 00000000 		.4byte	.LFB259
 2418 0034 2C000000 		.4byte	.LFE259-.LFB259
 2419 0038 00000000 		.4byte	0
 2420 003c 00000000 		.4byte	0
 2421              		.section	.debug_ranges,"",%progbits
 2422              	.Ldebug_ranges0:
 2423 0000 00000000 		.4byte	.LBB16
 2424 0004 04000000 		.4byte	.LBE16
 2425 0008 06000000 		.4byte	.LBB19
 2426 000c 08000000 		.4byte	.LBE19
 2427 0010 00000000 		.4byte	0
 2428 0014 00000000 		.4byte	0
 2429 0018 00000000 		.4byte	.LBB24
 2430 001c 04000000 		.4byte	.LBE24
 2431 0020 06000000 		.4byte	.LBB27
 2432 0024 08000000 		.4byte	.LBE27
 2433 0028 00000000 		.4byte	0
 2434 002c 00000000 		.4byte	0
ARM GAS  C:\Users\jo\AppData\Local\Temp\ccCLWXIb.s 			page 44


 2435 0030 00000000 		.4byte	.LFB255
 2436 0034 04000000 		.4byte	.LFE255
 2437 0038 00000000 		.4byte	.LFB256
 2438 003c 34000000 		.4byte	.LFE256
 2439 0040 00000000 		.4byte	.LFB257
 2440 0044 0A000000 		.4byte	.LFE257
 2441 0048 00000000 		.4byte	.LFB258
 2442 004c 2C000000 		.4byte	.LFE258
 2443 0050 00000000 		.4byte	.LFB259
 2444 0054 2C000000 		.4byte	.LFE259
 2445 0058 00000000 		.4byte	0
 2446 005c 00000000 		.4byte	0
 2447              		.section	.debug_line,"",%progbits
 2448              	.Ldebug_line0:
 2449 0000 09030000 		.section	.debug_str,"MS",%progbits,1
 2449      02004002 
 2449      00000201 
 2449      FB0E0D00 
 2449      01010101 
 2450              	.LASF107:
 2451 0000 74625F70 		.ascii	"tb_ptr\000"
 2451      747200
 2452              	.LASF53:
 2453 0007 72656164 		.ascii	"ready_list_t\000"
 2453      795F6C69 
 2453      73745F74 
 2453      00
 2454              	.LASF91:
 2455 0014 44494552 		.ascii	"DIER\000"
 2455      00
 2456              	.LASF122:
 2457 0019 7264796D 		.ascii	"rdymsg\000"
 2457      736700
 2458              	.LASF16:
 2459 0020 75696E74 		.ascii	"uint64_t\000"
 2459      36345F74 
 2459      00
 2460              	.LASF83:
 2461 0029 6B65726E 		.ascii	"kernel_stats\000"
 2461      656C5F73 
 2461      74617473 
 2461      00
 2462              	.LASF5:
 2463 0036 5F5F7569 		.ascii	"__uint8_t\000"
 2463      6E74385F 
 2463      7400
 2464              	.LASF89:
 2465 0040 706F7274 		.ascii	"port_intctx\000"
 2465      5F696E74 
 2465      63747800 
 2466              	.LASF52:
 2467 004c 63685F74 		.ascii	"ch_threads_queue\000"
 2467      68726561 
 2467      64735F71 
 2467      75657565 
 2467      00
 2468              	.LASF72:
ARM GAS  C:\Users\jo\AppData\Local\Temp\ccCLWXIb.s 			page 45


 2469 005d 73797374 		.ascii	"system_debug_t\000"
 2469      656D5F64 
 2469      65627567 
 2469      5F7400
 2470              	.LASF113:
 2471 006c 776F7273 		.ascii	"worst\000"
 2471      7400
 2472              	.LASF116:
 2473 0072 74696D65 		.ascii	"time_measurement_t\000"
 2473      5F6D6561 
 2473      73757265 
 2473      6D656E74 
 2473      5F7400
 2474              	.LASF12:
 2475 0085 6C6F6E67 		.ascii	"long long unsigned int\000"
 2475      206C6F6E 
 2475      6720756E 
 2475      7369676E 
 2475      65642069 
 2476              	.LASF109:
 2477 009c 63685F74 		.ascii	"ch_trace_buffer_t\000"
 2477      72616365 
 2477      5F627566 
 2477      6665725F 
 2477      7400
 2478              	.LASF104:
 2479 00ae 73655F73 		.ascii	"se_state\000"
 2479      74617465 
 2479      00
 2480              	.LASF123:
 2481 00b7 65786974 		.ascii	"exitcode\000"
 2481      636F6465 
 2481      00
 2482              	.LASF82:
 2483 00c0 6D61696E 		.ascii	"mainthread\000"
 2483      74687265 
 2483      616400
 2484              	.LASF69:
 2485 00cb 76697274 		.ascii	"virtual_timers_list_t\000"
 2485      75616C5F 
 2485      74696D65 
 2485      72735F6C 
 2485      6973745F 
 2486              	.LASF142:
 2487 00e1 49544D5F 		.ascii	"ITM_RxBuffer\000"
 2487      52784275 
 2487      66666572 
 2487      00
 2488              	.LASF148:
 2489 00ee 73745F6C 		.ascii	"st_lld_init\000"
 2489      6C645F69 
 2489      6E697400 
 2490              	.LASF95:
 2491 00fa 42445452 		.ascii	"BDTR\000"
 2491      00
 2492              	.LASF18:
 2493 00ff 72747469 		.ascii	"rttime_t\000"
ARM GAS  C:\Users\jo\AppData\Local\Temp\ccCLWXIb.s 			page 46


 2493      6D655F74 
 2493      00
 2494              	.LASF31:
 2495 0108 705F7072 		.ascii	"p_prio\000"
 2495      696F00
 2496              	.LASF145:
 2497 010f 433A5C55 		.ascii	"C:\\Users\\jo\\Documents\\GitHub\\ChibiOS\\demos\\S"
 2497      73657273 
 2497      5C6A6F5C 
 2497      446F6375 
 2497      6D656E74 
 2498 013b 544D3332 		.ascii	"TM32\\RT-STM32F407-DISCOVERY-uHttp\000"
 2498      5C52542D 
 2498      53544D33 
 2498      32463430 
 2498      372D4449 
 2499              	.LASF92:
 2500 015d 43434D52 		.ascii	"CCMR1\000"
 2500      3100
 2501              	.LASF93:
 2502 0163 43434D52 		.ascii	"CCMR2\000"
 2502      3200
 2503              	.LASF97:
 2504 0169 43434D52 		.ascii	"CCMR3\000"
 2504      3300
 2505              	.LASF1:
 2506 016f 7369676E 		.ascii	"signed char\000"
 2506      65642063 
 2506      68617200 
 2507              	.LASF101:
 2508 017b 73655F74 		.ascii	"se_time\000"
 2508      696D6500 
 2509              	.LASF127:
 2510 0183 6D5F7175 		.ascii	"m_queue\000"
 2510      65756500 
 2511              	.LASF81:
 2512 018b 76746C69 		.ascii	"vtlist\000"
 2512      737400
 2513              	.LASF79:
 2514 0192 63685F73 		.ascii	"ch_system\000"
 2514      79737465 
 2514      6D00
 2515              	.LASF7:
 2516 019c 6C6F6E67 		.ascii	"long int\000"
 2516      20696E74 
 2516      00
 2517              	.LASF20:
 2518 01a5 74737461 		.ascii	"tstate_t\000"
 2518      74655F74 
 2518      00
 2519              	.LASF149:
 2520 01ae 5F5F6275 		.ascii	"__builtin_puts\000"
 2520      696C7469 
 2520      6E5F7075 
 2520      747300
 2521              	.LASF94:
 2522 01bd 43434552 		.ascii	"CCER\000"
ARM GAS  C:\Users\jo\AppData\Local\Temp\ccCLWXIb.s 			page 47


 2522      00
 2523              	.LASF102:
 2524 01c2 73655F74 		.ascii	"se_tp\000"
 2524      7000
 2525              	.LASF10:
 2526 01c8 6C6F6E67 		.ascii	"long long int\000"
 2526      206C6F6E 
 2526      6720696E 
 2526      7400
 2527              	.LASF33:
 2528 01d6 705F6E65 		.ascii	"p_newer\000"
 2528      77657200 
 2529              	.LASF4:
 2530 01de 73686F72 		.ascii	"short unsigned int\000"
 2530      7420756E 
 2530      7369676E 
 2530      65642069 
 2530      6E7400
 2531              	.LASF135:
 2532 01f1 73745F6C 		.ascii	"st_lld_is_alarm_active\000"
 2532      6C645F69 
 2532      735F616C 
 2532      61726D5F 
 2532      61637469 
 2533              	.LASF106:
 2534 0208 74625F73 		.ascii	"tb_size\000"
 2534      697A6500 
 2535              	.LASF58:
 2536 0210 725F6E65 		.ascii	"r_newer\000"
 2536      77657200 
 2537              	.LASF46:
 2538 0218 705F6D70 		.ascii	"p_mpool\000"
 2538      6F6F6C00 
 2539              	.LASF86:
 2540 0220 72656761 		.ascii	"regarm_t\000"
 2540      726D5F74 
 2540      00
 2541              	.LASF65:
 2542 0229 76745F70 		.ascii	"vt_prev\000"
 2542      72657600 
 2543              	.LASF151:
 2544 0231 63685379 		.ascii	"chSysHalt\000"
 2544      7348616C 
 2544      7400
 2545              	.LASF73:
 2546 023b 63685F73 		.ascii	"ch_system_debug\000"
 2546      79737465 
 2546      6D5F6465 
 2546      62756700 
 2547              	.LASF130:
 2548 024b 6D757465 		.ascii	"mutex_t\000"
 2548      785F7400 
 2549              	.LASF76:
 2550 0253 6C6F636B 		.ascii	"lock_cnt\000"
 2550      5F636E74 
 2550      00
 2551              	.LASF84:
ARM GAS  C:\Users\jo\AppData\Local\Temp\ccCLWXIb.s 			page 48


 2552 025c 69646C65 		.ascii	"idle_thread_wa\000"
 2552      5F746872 
 2552      6561645F 
 2552      776100
 2553              	.LASF25:
 2554 026b 636E745F 		.ascii	"cnt_t\000"
 2554      7400
 2555              	.LASF36:
 2556 0271 705F7374 		.ascii	"p_stklimit\000"
 2556      6B6C696D 
 2556      697400
 2557              	.LASF0:
 2558 027c 756E7369 		.ascii	"unsigned int\000"
 2558      676E6564 
 2558      20696E74 
 2558      00
 2559              	.LASF64:
 2560 0289 76745F6E 		.ascii	"vt_next\000"
 2560      65787400 
 2561              	.LASF144:
 2562 0291 2E2E2F2E 		.ascii	"../../../os/hal/src/st.c\000"
 2562      2E2F2E2E 
 2562      2F6F732F 
 2562      68616C2F 
 2562      7372632F 
 2563              	.LASF41:
 2564 02aa 705F6D73 		.ascii	"p_msgqueue\000"
 2564      67717565 
 2564      756500
 2565              	.LASF117:
 2566 02b5 6E5F6972 		.ascii	"n_irq\000"
 2566      7100
 2567              	.LASF90:
 2568 02bb 534D4352 		.ascii	"SMCR\000"
 2568      00
 2569              	.LASF121:
 2570 02c0 6B65726E 		.ascii	"kernel_stats_t\000"
 2570      656C5F73 
 2570      74617473 
 2570      5F7400
 2571              	.LASF49:
 2572 02cf 63685F74 		.ascii	"ch_thread\000"
 2572      68726561 
 2572      6400
 2573              	.LASF23:
 2574 02d9 6D73675F 		.ascii	"msg_t\000"
 2574      7400
 2575              	.LASF114:
 2576 02df 6C617374 		.ascii	"last\000"
 2576      00
 2577              	.LASF26:
 2578 02e4 75636E74 		.ascii	"ucnt_t\000"
 2578      5F7400
 2579              	.LASF78:
 2580 02eb 63685F73 		.ascii	"ch_system_t\000"
 2580      79737465 
 2580      6D5F7400 
ARM GAS  C:\Users\jo\AppData\Local\Temp\ccCLWXIb.s 			page 49


 2581              	.LASF99:
 2582 02f7 73746D33 		.ascii	"stm32_tim_t\000"
 2582      325F7469 
 2582      6D5F7400 
 2583              	.LASF120:
 2584 0303 6D5F6372 		.ascii	"m_crit_isr\000"
 2584      69745F69 
 2584      737200
 2585              	.LASF54:
 2586 030e 63685F72 		.ascii	"ch_ready_list\000"
 2586      65616479 
 2586      5F6C6973 
 2586      7400
 2587              	.LASF24:
 2588 031c 6576656E 		.ascii	"eventmask_t\000"
 2588      746D6173 
 2588      6B5F7400 
 2589              	.LASF6:
 2590 0328 5F5F696E 		.ascii	"__int32_t\000"
 2590      7433325F 
 2590      7400
 2591              	.LASF132:
 2592 0332 73745F6C 		.ascii	"st_lld_start_alarm\000"
 2592      6C645F73 
 2592      74617274 
 2592      5F616C61 
 2592      726D00
 2593              	.LASF87:
 2594 0345 73746B61 		.ascii	"stkalign_t\000"
 2594      6C69676E 
 2594      5F7400
 2595              	.LASF143:
 2596 0350 474E5520 		.ascii	"GNU C 4.9.3 20141119 (release) [ARM/embedded-4_9-br"
 2596      4320342E 
 2596      392E3320 
 2596      32303134 
 2596      31313139 
 2597 0383 616E6368 		.ascii	"anch revision 218278] -mcpu=cortex-m4 -mno-thumb-in"
 2597      20726576 
 2597      6973696F 
 2597      6E203231 
 2597      38323738 
 2598 03b6 74657277 		.ascii	"terwork -mthumb -ggdb -O2 -fomit-frame-pointer -fal"
 2598      6F726B20 
 2598      2D6D7468 
 2598      756D6220 
 2598      2D676764 
 2599 03e9 69676E2D 		.ascii	"ign-functions=16 -ffunction-sections -fdata-section"
 2599      66756E63 
 2599      74696F6E 
 2599      733D3136 
 2599      202D6666 
 2600 041c 73202D66 		.ascii	"s -fno-common\000"
 2600      6E6F2D63 
 2600      6F6D6D6F 
 2600      6E00
 2601              	.LASF150:
ARM GAS  C:\Users\jo\AppData\Local\Temp\ccCLWXIb.s 			page 50


 2602 042a 70757473 		.ascii	"puts\000"
 2602      00
 2603              	.LASF40:
 2604 042f 705F7761 		.ascii	"p_waiting\000"
 2604      6974696E 
 2604      6700
 2605              	.LASF85:
 2606 0439 73697A65 		.ascii	"sizetype\000"
 2606      74797065 
 2606      00
 2607              	.LASF70:
 2608 0442 63685F76 		.ascii	"ch_virtual_timers_list\000"
 2608      69727475 
 2608      616C5F74 
 2608      696D6572 
 2608      735F6C69 
 2609              	.LASF105:
 2610 0459 63685F73 		.ascii	"ch_swc_event_t\000"
 2610      77635F65 
 2610      76656E74 
 2610      5F7400
 2611              	.LASF71:
 2612 0468 76745F6C 		.ascii	"vt_lasttime\000"
 2612      61737474 
 2612      696D6500 
 2613              	.LASF34:
 2614 0474 705F6F6C 		.ascii	"p_older\000"
 2614      64657200 
 2615              	.LASF137:
 2616 047c 7374496E 		.ascii	"stInit\000"
 2616      697400
 2617              	.LASF57:
 2618 0483 725F6374 		.ascii	"r_ctx\000"
 2618      7800
 2619              	.LASF111:
 2620 0489 746D5F63 		.ascii	"tm_calibration_t\000"
 2620      616C6962 
 2620      72617469 
 2620      6F6E5F74 
 2620      00
 2621              	.LASF134:
 2622 049a 74696D65 		.ascii	"time\000"
 2622      00
 2623              	.LASF60:
 2624 049f 725F6375 		.ascii	"r_current\000"
 2624      7272656E 
 2624      7400
 2625              	.LASF59:
 2626 04a9 725F6F6C 		.ascii	"r_older\000"
 2626      64657200 
 2627              	.LASF11:
 2628 04b1 5F5F7569 		.ascii	"__uint64_t\000"
 2628      6E743634 
 2628      5F7400
 2629              	.LASF115:
 2630 04bc 63756D75 		.ascii	"cumulative\000"
 2630      6C617469 
ARM GAS  C:\Users\jo\AppData\Local\Temp\ccCLWXIb.s 			page 51


 2630      766500
 2631              	.LASF21:
 2632 04c7 74726566 		.ascii	"trefs_t\000"
 2632      735F7400 
 2633              	.LASF108:
 2634 04cf 74625F62 		.ascii	"tb_buffer\000"
 2634      75666665 
 2634      7200
 2635              	.LASF62:
 2636 04d9 76697274 		.ascii	"virtual_timer_t\000"
 2636      75616C5F 
 2636      74696D65 
 2636      725F7400 
 2637              	.LASF30:
 2638 04e9 705F7072 		.ascii	"p_prev\000"
 2638      657600
 2639              	.LASF22:
 2640 04f0 74707269 		.ascii	"tprio_t\000"
 2640      6F5F7400 
 2641              	.LASF126:
 2642 04f8 6D757465 		.ascii	"mutex\000"
 2642      7800
 2643              	.LASF118:
 2644 04fe 6E5F6374 		.ascii	"n_ctxswc\000"
 2644      78737763 
 2644      00
 2645              	.LASF131:
 2646 0507 5F426F6F 		.ascii	"_Bool\000"
 2646      6C00
 2647              	.LASF14:
 2648 050d 696E7433 		.ascii	"int32_t\000"
 2648      325F7400 
 2649              	.LASF2:
 2650 0515 756E7369 		.ascii	"unsigned char\000"
 2650      676E6564 
 2650      20636861 
 2650      7200
 2651              	.LASF44:
 2652 0523 705F6D74 		.ascii	"p_mtxlist\000"
 2652      786C6973 
 2652      7400
 2653              	.LASF3:
 2654 052d 73686F72 		.ascii	"short int\000"
 2654      7420696E 
 2654      7400
 2655              	.LASF37:
 2656 0537 705F7374 		.ascii	"p_state\000"
 2656      61746500 
 2657              	.LASF56:
 2658 053f 725F7072 		.ascii	"r_prio\000"
 2658      696F00
 2659              	.LASF125:
 2660 0546 65776D61 		.ascii	"ewmask\000"
 2660      736B00
 2661              	.LASF29:
 2662 054d 705F6E65 		.ascii	"p_next\000"
 2662      787400
ARM GAS  C:\Users\jo\AppData\Local\Temp\ccCLWXIb.s 			page 52


 2663              	.LASF13:
 2664 0554 75696E74 		.ascii	"uint8_t\000"
 2664      385F7400 
 2665              	.LASF141:
 2666 055c 5F5F6675 		.ascii	"__func__\000"
 2666      6E635F5F 
 2666      00
 2667              	.LASF47:
 2668 0565 705F7374 		.ascii	"p_stats\000"
 2668      61747300 
 2669              	.LASF63:
 2670 056d 63685F76 		.ascii	"ch_virtual_timer\000"
 2670      69727475 
 2670      616C5F74 
 2670      696D6572 
 2670      00
 2671              	.LASF136:
 2672 057e 73745F6C 		.ascii	"st_lld_get_alarm\000"
 2672      6C645F67 
 2672      65745F61 
 2672      6C61726D 
 2672      00
 2673              	.LASF98:
 2674 058f 43435852 		.ascii	"CCXR\000"
 2674      00
 2675              	.LASF43:
 2676 0594 705F6570 		.ascii	"p_epending\000"
 2676      656E6469 
 2676      6E6700
 2677              	.LASF15:
 2678 059f 75696E74 		.ascii	"uint32_t\000"
 2678      33325F74 
 2678      00
 2679              	.LASF55:
 2680 05a8 725F7175 		.ascii	"r_queue\000"
 2680      65756500 
 2681              	.LASF66:
 2682 05b0 76745F64 		.ascii	"vt_delta\000"
 2682      656C7461 
 2682      00
 2683              	.LASF50:
 2684 05b9 63685F74 		.ascii	"ch_threads_list\000"
 2684      68726561 
 2684      64735F6C 
 2684      69737400 
 2685              	.LASF9:
 2686 05c9 6C6F6E67 		.ascii	"long unsigned int\000"
 2686      20756E73 
 2686      69676E65 
 2686      6420696E 
 2686      7400
 2687              	.LASF139:
 2688 05db 73745374 		.ascii	"stStopAlarm\000"
 2688      6F70416C 
 2688      61726D00 
 2689              	.LASF100:
 2690 05e7 63686172 		.ascii	"char\000"
ARM GAS  C:\Users\jo\AppData\Local\Temp\ccCLWXIb.s 			page 53


 2690      00
 2691              	.LASF96:
 2692 05ec 444D4152 		.ascii	"DMAR\000"
 2692      00
 2693              	.LASF28:
 2694 05f1 74687265 		.ascii	"thread_t\000"
 2694      61645F74 
 2694      00
 2695              	.LASF112:
 2696 05fa 62657374 		.ascii	"best\000"
 2696      00
 2697              	.LASF129:
 2698 05ff 6D5F6E65 		.ascii	"m_next\000"
 2698      787400
 2699              	.LASF27:
 2700 0606 73797374 		.ascii	"systime_t\000"
 2700      696D655F 
 2700      7400
 2701              	.LASF45:
 2702 0610 705F7265 		.ascii	"p_realprio\000"
 2702      616C7072 
 2702      696F00
 2703              	.LASF61:
 2704 061b 76746675 		.ascii	"vtfunc_t\000"
 2704      6E635F74 
 2704      00
 2705              	.LASF8:
 2706 0624 5F5F7569 		.ascii	"__uint32_t\000"
 2706      6E743332 
 2706      5F7400
 2707              	.LASF74:
 2708 062f 70616E69 		.ascii	"panic_msg\000"
 2708      635F6D73 
 2708      6700
 2709              	.LASF110:
 2710 0639 6F666673 		.ascii	"offset\000"
 2710      657400
 2711              	.LASF138:
 2712 0640 73745374 		.ascii	"stStartAlarm\000"
 2712      61727441 
 2712      6C61726D 
 2712      00
 2713              	.LASF88:
 2714 064d 636F6E74 		.ascii	"context\000"
 2714      65787400 
 2715              	.LASF42:
 2716 0655 705F6D73 		.ascii	"p_msg\000"
 2716      6700
 2717              	.LASF17:
 2718 065b 7274636E 		.ascii	"rtcnt_t\000"
 2718      745F7400 
 2719              	.LASF146:
 2720 0663 73745F6C 		.ascii	"st_lld_stop_alarm\000"
 2720      6C645F73 
 2720      746F705F 
 2720      616C6172 
 2720      6D00
ARM GAS  C:\Users\jo\AppData\Local\Temp\ccCLWXIb.s 			page 54


 2721              	.LASF68:
 2722 0675 76745F70 		.ascii	"vt_par\000"
 2722      617200
 2723              	.LASF51:
 2724 067c 74687265 		.ascii	"threads_queue_t\000"
 2724      6164735F 
 2724      71756575 
 2724      655F7400 
 2725              	.LASF39:
 2726 068c 705F7265 		.ascii	"p_refs\000"
 2726      667300
 2727              	.LASF75:
 2728 0693 6973725F 		.ascii	"isr_cnt\000"
 2728      636E7400 
 2729              	.LASF80:
 2730 069b 726C6973 		.ascii	"rlist\000"
 2730      7400
 2731              	.LASF140:
 2732 06a1 73745365 		.ascii	"stSetAlarm\000"
 2732      74416C61 
 2732      726D00
 2733              	.LASF147:
 2734 06ac 73744765 		.ascii	"stGetAlarm\000"
 2734      74416C61 
 2734      726D00
 2735              	.LASF124:
 2736 06b7 77746F62 		.ascii	"wtobjp\000"
 2736      6A7000
 2737              	.LASF35:
 2738 06be 705F6E61 		.ascii	"p_name\000"
 2738      6D6500
 2739              	.LASF48:
 2740 06c5 74687265 		.ascii	"threads_list_t\000"
 2740      6164735F 
 2740      6C697374 
 2740      5F7400
 2741              	.LASF19:
 2742 06d4 746D6F64 		.ascii	"tmode_t\000"
 2742      655F7400 
 2743              	.LASF77:
 2744 06dc 74726163 		.ascii	"trace_buffer\000"
 2744      655F6275 
 2744      66666572 
 2744      00
 2745              	.LASF38:
 2746 06e9 705F666C 		.ascii	"p_flags\000"
 2746      61677300 
 2747              	.LASF133:
 2748 06f1 73745F6C 		.ascii	"st_lld_set_alarm\000"
 2748      6C645F73 
 2748      65745F61 
 2748      6C61726D 
 2748      00
 2749              	.LASF119:
 2750 0702 6D5F6372 		.ascii	"m_crit_thd\000"
 2750      69745F74 
 2750      686400
ARM GAS  C:\Users\jo\AppData\Local\Temp\ccCLWXIb.s 			page 55


 2751              	.LASF128:
 2752 070d 6D5F6F77 		.ascii	"m_owner\000"
 2752      6E657200 
 2753              	.LASF103:
 2754 0715 73655F77 		.ascii	"se_wtobjp\000"
 2754      746F626A 
 2754      7000
 2755              	.LASF32:
 2756 071f 705F6374 		.ascii	"p_ctx\000"
 2756      7800
 2757              	.LASF67:
 2758 0725 76745F66 		.ascii	"vt_func\000"
 2758      756E6300 
 2759              		.ident	"GCC: (GNU Tools for ARM Embedded Processors) 4.9.3 20141119 (release) [ARM/embedded-4_9-br
ARM GAS  C:\Users\jo\AppData\Local\Temp\ccCLWXIb.s 			page 56


DEFINED SYMBOLS
                            *ABS*:00000000 st.c
C:\Users\jo\AppData\Local\Temp\ccCLWXIb.s:19     .text.stInit:00000000 $t
C:\Users\jo\AppData\Local\Temp\ccCLWXIb.s:25     .text.stInit:00000000 stInit
C:\Users\jo\AppData\Local\Temp\ccCLWXIb.s:40     .text.stStartAlarm:00000000 $t
C:\Users\jo\AppData\Local\Temp\ccCLWXIb.s:46     .text.stStartAlarm:00000000 stStartAlarm
C:\Users\jo\AppData\Local\Temp\ccCLWXIb.s:110    .text.stStartAlarm:0000002c $d
C:\Users\jo\AppData\Local\Temp\ccCLWXIb.s:118    .text.stStopAlarm:00000000 $t
C:\Users\jo\AppData\Local\Temp\ccCLWXIb.s:124    .text.stStopAlarm:00000000 stStopAlarm
C:\Users\jo\AppData\Local\Temp\ccCLWXIb.s:144    .text.stSetAlarm:00000000 $t
C:\Users\jo\AppData\Local\Temp\ccCLWXIb.s:150    .text.stSetAlarm:00000000 stSetAlarm
C:\Users\jo\AppData\Local\Temp\ccCLWXIb.s:204    .text.stSetAlarm:00000024 $d
C:\Users\jo\AppData\Local\Temp\ccCLWXIb.s:212    .text.stGetAlarm:00000000 $t
C:\Users\jo\AppData\Local\Temp\ccCLWXIb.s:218    .text.stGetAlarm:00000000 stGetAlarm
C:\Users\jo\AppData\Local\Temp\ccCLWXIb.s:263    .text.stGetAlarm:00000024 $d
C:\Users\jo\AppData\Local\Temp\ccCLWXIb.s:269    .rodata.str1.4:00000000 $d
C:\Users\jo\AppData\Local\Temp\ccCLWXIb.s:276    .rodata.__func__.8189:00000000 $d
C:\Users\jo\AppData\Local\Temp\ccCLWXIb.s:280    .rodata.__func__.8189:00000000 __func__.8189
C:\Users\jo\AppData\Local\Temp\ccCLWXIb.s:283    .rodata.__func__.8196:00000000 $d
C:\Users\jo\AppData\Local\Temp\ccCLWXIb.s:287    .rodata.__func__.8196:00000000 __func__.8196
C:\Users\jo\AppData\Local\Temp\ccCLWXIb.s:290    .rodata.__func__.8200:00000000 $d
C:\Users\jo\AppData\Local\Temp\ccCLWXIb.s:294    .rodata.__func__.8200:00000000 __func__.8200
                     .debug_frame:00000010 $d
C:\Users\jo\AppData\Local\Temp\ccCLWXIb.s:117    .text.stStartAlarm:00000034 $t
C:\Users\jo\AppData\Local\Temp\ccCLWXIb.s:211    .text.stSetAlarm:0000002c $t
C:\Users\jo\AppData\Local\Temp\ccCLWXIb.s:268    .text.stGetAlarm:0000002c $t

UNDEFINED SYMBOLS
st_lld_init
puts
chSysHalt
