ARM GAS  C:\Users\jo\AppData\Local\Temp\ccvUvowh.s 			page 1


   1              		.syntax unified
   2              		.cpu cortex-m4
   3              		.fpu softvfp
   4              		.eabi_attribute 20, 1
   5              		.eabi_attribute 21, 1
   6              		.eabi_attribute 23, 3
   7              		.eabi_attribute 24, 1
   8              		.eabi_attribute 25, 1
   9              		.eabi_attribute 26, 1
  10              		.eabi_attribute 30, 2
  11              		.eabi_attribute 34, 1
  12              		.eabi_attribute 18, 4
  13              		.thumb
  14              		.file	"st_lld.c"
  15              		.text
  16              	.Ltext0:
  17              		.cfi_sections	.debug_frame
  18              		.section	.text.VectorB0,"ax",%progbits
  19              		.align	2
  20              		.p2align 4,,15
  21              		.global	VectorB0
  22              		.thumb
  23              		.thumb_func
  24              		.type	VectorB0, %function
  25              	VectorB0:
  26              	.LFB255:
  27              		.file 1 "../../../os/hal/ports/STM32/LLD/TIMv1/st_lld.c"
  28              		.loc 1 153 0
  29              		.cfi_startproc
  30              		@ args = 0, pretend = 0, frame = 0
  31              		@ frame_needed = 0, uses_anonymous_args = 0
  32 0000 10B5     		push	{r4, lr}
  33              		.cfi_def_cfa_offset 8
  34              		.cfi_offset 4, -8
  35              		.cfi_offset 14, -4
  36              		.loc 1 155 0
  37 0002 FFF7FEFF 		bl	_stats_increase_irq
  38              	.LVL0:
  39 0006 FFF7FEFF 		bl	_dbg_check_enter_isr
  40              	.LVL1:
  41              		.loc 1 157 0
  42 000a 4FF08043 		mov	r3, #1073741824
  43 000e 0024     		movs	r4, #0
  44 0010 1C61     		str	r4, [r3, #16]
  45              	.LVL2:
  46              	.LBB54:
  47              	.LBB55:
  48              	.LBB56:
  49              	.LBB57:
  50              	.LBB58:
  51              	.LBB59:
  52              	.LBB60:
  53              		.file 2 "../../../os/ext/CMSIS/include/core_cmFunc.h"
  54              		.loc 2 546 0
  55 0012 2023     		movs	r3, #32
  56              	@ 546 "../../../os/ext/CMSIS/include/core_cmFunc.h" 1
  57 0014 83F31188 		MSR basepri, r3
ARM GAS  C:\Users\jo\AppData\Local\Temp\ccvUvowh.s 			page 2


  58              	@ 0 "" 2
  59              		.thumb
  60              	.LBE60:
  61              	.LBE59:
  62              	.LBE58:
  63              	.LBE57:
  64              		.file 3 "../../../os/rt/include/chsys.h"
  65              		.loc 3 339 0
  66 0018 FFF7FEFF 		bl	_stats_start_measure_crit_isr
  67              	.LVL3:
  68              		.loc 3 340 0
  69 001c FFF7FEFF 		bl	_dbg_check_lock_from_isr
  70              	.LVL4:
  71              	.LBE56:
  72              	.LBE55:
  73              	.LBE54:
  74              	.LBB61:
  75              	.LBB62:
  76              		.file 4 "../../../os/hal/osal/rt/osal.h"
  77              		.loc 4 517 0
  78 0020 FFF7FEFF 		bl	chSysTimerHandlerI
  79              	.LVL5:
  80              	.LBE62:
  81              	.LBE61:
  82              	.LBB63:
  83              	.LBB64:
  84              	.LBB65:
  85              		.loc 3 358 0
  86 0024 FFF7FEFF 		bl	_dbg_check_unlock_from_isr
  87              	.LVL6:
  88              		.loc 3 359 0
  89 0028 FFF7FEFF 		bl	_stats_stop_measure_crit_isr
  90              	.LVL7:
  91              	.LBB66:
  92              	.LBB67:
  93              	.LBB68:
  94              	.LBB69:
  95              		.loc 2 546 0
  96              	@ 546 "../../../os/ext/CMSIS/include/core_cmFunc.h" 1
  97 002c 84F31188 		MSR basepri, r4
  98              	@ 0 "" 2
  99              		.thumb
 100              	.LBE69:
 101              	.LBE68:
 102              	.LBE67:
 103              	.LBE66:
 104              	.LBE65:
 105              	.LBE64:
 106              	.LBE63:
 107              		.loc 1 163 0
 108 0030 FFF7FEFF 		bl	_dbg_check_leave_isr
 109              	.LVL8:
 110              		.loc 1 164 0
 111 0034 BDE81040 		pop	{r4, lr}
 112              		.cfi_restore 14
 113              		.cfi_restore 4
 114              		.cfi_def_cfa_offset 0
ARM GAS  C:\Users\jo\AppData\Local\Temp\ccvUvowh.s 			page 3


 115              		.loc 1 163 0
 116 0038 FFF7FEBF 		b	_port_irq_epilogue
 117              	.LVL9:
 118              		.cfi_endproc
 119              	.LFE255:
 120              		.size	VectorB0, .-VectorB0
 121 003c AFF30080 		.section	.text.st_lld_init,"ax",%progbits
 122              		.align	2
 123              		.p2align 4,,15
 124              		.global	st_lld_init
 125              		.thumb
 126              		.thumb_func
 127              		.type	st_lld_init, %function
 128              	st_lld_init:
 129              	.LFB256:
 130              		.loc 1 176 0
 131              		.cfi_startproc
 132              		@ args = 0, pretend = 0, frame = 0
 133              		@ frame_needed = 0, uses_anonymous_args = 0
 134              		@ link register save eliminated.
 135 0000 70B4     		push	{r4, r5, r6}
 136              		.cfi_def_cfa_offset 12
 137              		.cfi_offset 4, -12
 138              		.cfi_offset 5, -8
 139              		.cfi_offset 6, -4
 140              		.loc 1 182 0
 141 0002 0D48     		ldr	r0, .L5
 142 0004 016C     		ldr	r1, [r0, #64]
 143              		.loc 1 185 0
 144 0006 4FF08043 		mov	r3, #1073741824
 145              		.loc 1 187 0
 146 000a 0022     		movs	r2, #0
 147              		.loc 1 191 0
 148 000c 0124     		movs	r4, #1
 149              		.loc 1 182 0
 150 000e 41F00101 		orr	r1, r1, #1
 151              		.loc 1 185 0
 152 0012 41F64B56 		movw	r6, #7499
 153              		.loc 1 186 0
 154 0016 4FF0FF35 		mov	r5, #-1
 155              		.loc 1 182 0
 156 001a 0164     		str	r1, [r0, #64]
 157              		.loc 1 185 0
 158 001c 9E62     		str	r6, [r3, #40]
 159              		.loc 1 195 0
 160 001e 1C20     		movs	r0, #28
 161              		.loc 1 186 0
 162 0020 DD62     		str	r5, [r3, #44]
 163              		.loc 1 195 0
 164 0022 0821     		movs	r1, #8
 165              		.loc 1 187 0
 166 0024 9A61     		str	r2, [r3, #24]
 167              		.loc 1 188 0
 168 0026 5A63     		str	r2, [r3, #52]
 169              		.loc 1 189 0
 170 0028 DA60     		str	r2, [r3, #12]
 171              		.loc 1 190 0
ARM GAS  C:\Users\jo\AppData\Local\Temp\ccvUvowh.s 			page 4


 172 002a 5A60     		str	r2, [r3, #4]
 173              		.loc 1 191 0
 174 002c 5C61     		str	r4, [r3, #20]
 175              		.loc 1 192 0
 176 002e 1C60     		str	r4, [r3]
 177              		.loc 1 210 0
 178 0030 70BC     		pop	{r4, r5, r6}
 179              		.cfi_restore 6
 180              		.cfi_restore 5
 181              		.cfi_restore 4
 182              		.cfi_def_cfa_offset 0
 183              		.loc 1 195 0
 184 0032 FFF7FEBF 		b	nvicEnableVector
 185              	.LVL10:
 186              	.L6:
 187 0036 00BF     		.align	2
 188              	.L5:
 189 0038 00380240 		.word	1073887232
 190              		.cfi_endproc
 191              	.LFE256:
 192              		.size	st_lld_init, .-st_lld_init
 193 003c AFF30080 		.text
 194              	.Letext0:
 195              		.file 5 "c:\\program files\\gnu tools arm embedded\\4.9 2014q4\\arm-none-eabi\\include\\machine\\_
 196              		.file 6 "c:\\program files\\gnu tools arm embedded\\4.9 2014q4\\arm-none-eabi\\include\\stdint.h"
 197              		.file 7 "../../../os/rt/ports/ARMCMx/compilers/GCC/chtypes.h"
 198              		.file 8 "../../../os/rt/include/chsystypes.h"
 199              		.file 9 "../../../os/rt/include/chschd.h"
 200              		.file 10 "../../../os/ext/CMSIS/ST/stm32f407xx.h"
 201              		.file 11 "../../../os/rt/ports/ARMCMx/chcore.h"
 202              		.file 12 "../../../os/rt/ports/ARMCMx/chcore_v7m.h"
 203              		.file 13 "../../../os/hal/ports/STM32/LLD/TIMv1/stm32_tim.h"
 204              		.file 14 "../../../os/rt/include/chdebug.h"
 205              		.file 15 "../../../os/rt/include/chtm.h"
 206              		.file 16 "../../../os/rt/include/chstats.h"
 207              		.file 17 "../../../os/rt/include/chmtx.h"
 208              		.file 18 "../../../os/ext/CMSIS/include/core_cm4.h"
 209              		.file 19 "../../../os/hal/ports/common/ARMCMx/nvic.h"