ARM GAS  C:\Users\jo\AppData\Local\Temp\ccRoOONZ.s 			page 1


   1              		.syntax unified
   2              		.cpu cortex-m4
   3              		.fpu softvfp
   4              		.eabi_attribute 20, 1
   5              		.eabi_attribute 21, 1
   6              		.eabi_attribute 23, 3
   7              		.eabi_attribute 24, 1
   8              		.eabi_attribute 25, 1
   9              		.eabi_attribute 26, 1
  10              		.eabi_attribute 30, 2
  11              		.eabi_attribute 34, 1
  12              		.eabi_attribute 18, 4
  13              		.thumb
  14              		.file	"stats.c"
  15              		.text
  16              	.Ltext0:
  17              		.cfi_sections	.debug_frame
  18              		.section	.text.chprintf.constprop.0,"ax",%progbits
  19              		.align	2
  20              		.p2align 4,,15
  21              		.thumb
  22              		.thumb_func
  23              		.type	chprintf.constprop.0, %function
  24              	chprintf.constprop.0:
  25              	.LFB260:
  26              		.file 1 "../../../os/hal/lib/streams/chprintf.h"
  27              		.loc 1 69 0
  28              		.cfi_startproc
  29              		@ args = 4, pretend = 12, frame = 8
  30              		@ frame_needed = 0, uses_anonymous_args = 1
  31              	.LVL0:
  32 0000 0EB4     		push	{r1, r2, r3}
  33              		.cfi_def_cfa_offset 12
  34              		.cfi_offset 1, -12
  35              		.cfi_offset 2, -8
  36              		.cfi_offset 3, -4
  37 0002 00B5     		push	{lr}
  38              		.cfi_def_cfa_offset 16
  39              		.cfi_offset 14, -16
  40 0004 82B0     		sub	sp, sp, #8
  41              		.cfi_def_cfa_offset 24
  42              		.loc 1 69 0
  43 0006 03AA     		add	r2, sp, #12
  44              		.loc 1 74 0
  45 0008 0548     		ldr	r0, .L3
  46              	.LVL1:
  47              		.loc 1 69 0
  48 000a 52F8041B 		ldr	r1, [r2], #4
  49              		.loc 1 73 0
  50 000e 0192     		str	r2, [sp, #4]
  51              		.loc 1 74 0
  52 0010 FFF7FEFF 		bl	chvprintf
  53              	.LVL2:
  54              		.loc 1 78 0
  55 0014 02B0     		add	sp, sp, #8
  56              		.cfi_def_cfa_offset 16
  57              		@ sp needed
ARM GAS  C:\Users\jo\AppData\Local\Temp\ccRoOONZ.s 			page 2


  58 0016 5DF804EB 		ldr	lr, [sp], #4
  59              		.cfi_restore 14
  60              		.cfi_def_cfa_offset 12
  61 001a 03B0     		add	sp, sp, #12
  62              		.cfi_restore 3
  63              		.cfi_restore 2
  64              		.cfi_restore 1
  65              		.cfi_def_cfa_offset 0
  66 001c 7047     		bx	lr
  67              	.L4:
  68 001e 00BF     		.align	2
  69              	.L3:
  70 0020 00000000 		.word	itm_port
  71              		.cfi_endproc
  72              	.LFE260:
  73              		.size	chprintf.constprop.0, .-chprintf.constprop.0
  74 0024 AFF30080 		.section	.text.stats_init,"ax",%progbits
  74      AFF30080 
  74      AFF30080 
  75              		.align	2
  76              		.p2align 4,,15
  77              		.global	stats_init
  78              		.thumb
  79              		.thumb_func
  80              		.type	stats_init, %function
  81              	stats_init:
  82              	.LFB256:
  83              		.file 2 "../../../os/ext/lwip-1.4.1/src/core/stats.c"
  84              		.loc 2 52 0
  85              		.cfi_startproc
  86              		@ args = 0, pretend = 0, frame = 0
  87              		@ frame_needed = 0, uses_anonymous_args = 0
  88              		@ link register save eliminated.
  89 0000 7047     		bx	lr
  90              		.cfi_endproc
  91              	.LFE256:
  92              		.size	stats_init, .-stats_init
  93 0002 00BFAFF3 		.section	.text.stats_display_proto,"ax",%progbits
  93      0080AFF3 
  93      0080AFF3 
  93      0080
  94              		.align	2
  95              		.p2align 4,,15
  96              		.global	stats_display_proto
  97              		.thumb
  98              		.thumb_func
  99              		.type	stats_display_proto, %function
 100              	stats_display_proto:
 101              	.LFB257:
 102              		.loc 2 73 0
 103              		.cfi_startproc
 104              		@ args = 0, pretend = 0, frame = 0
 105              		@ frame_needed = 0, uses_anonymous_args = 0
 106              	.LVL3:
 107              		.loc 2 73 0
 108 0000 38B5     		push	{r3, r4, r5, lr}
 109              		.cfi_def_cfa_offset 16
ARM GAS  C:\Users\jo\AppData\Local\Temp\ccRoOONZ.s 			page 3


 110              		.cfi_offset 3, -16
 111              		.cfi_offset 4, -12
 112              		.cfi_offset 5, -8
 113              		.cfi_offset 14, -4
 114              		.loc 2 74 0
 115 0002 224C     		ldr	r4, .L8
 116              		.loc 2 73 0
 117 0004 0546     		mov	r5, r0
 118 0006 0A46     		mov	r2, r1
 119              		.loc 2 74 0
 120 0008 2046     		mov	r0, r4
 121              	.LVL4:
 122 000a 2149     		ldr	r1, .L8+4
 123              	.LVL5:
 124 000c FFF7FEFF 		bl	chprintf.constprop.0
 125              	.LVL6:
 126              		.loc 2 75 0
 127 0010 2A88     		ldrh	r2, [r5]
 128 0012 2049     		ldr	r1, .L8+8
 129 0014 2046     		mov	r0, r4
 130 0016 FFF7FEFF 		bl	chprintf.constprop.0
 131              	.LVL7:
 132              		.loc 2 76 0
 133 001a 6A88     		ldrh	r2, [r5, #2]
 134 001c 1E49     		ldr	r1, .L8+12
 135 001e 2046     		mov	r0, r4
 136 0020 FFF7FEFF 		bl	chprintf.constprop.0
 137              	.LVL8:
 138              		.loc 2 77 0
 139 0024 AA88     		ldrh	r2, [r5, #4]
 140 0026 1D49     		ldr	r1, .L8+16
 141 0028 2046     		mov	r0, r4
 142 002a FFF7FEFF 		bl	chprintf.constprop.0
 143              	.LVL9:
 144              		.loc 2 78 0
 145 002e EA88     		ldrh	r2, [r5, #6]
 146 0030 1B49     		ldr	r1, .L8+20
 147 0032 2046     		mov	r0, r4
 148 0034 FFF7FEFF 		bl	chprintf.constprop.0
 149              	.LVL10:
 150              		.loc 2 79 0
 151 0038 2A89     		ldrh	r2, [r5, #8]
 152 003a 1A49     		ldr	r1, .L8+24
 153 003c 2046     		mov	r0, r4
 154 003e FFF7FEFF 		bl	chprintf.constprop.0
 155              	.LVL11:
 156              		.loc 2 80 0
 157 0042 6A89     		ldrh	r2, [r5, #10]
 158 0044 1849     		ldr	r1, .L8+28
 159 0046 2046     		mov	r0, r4
 160 0048 FFF7FEFF 		bl	chprintf.constprop.0
 161              	.LVL12:
 162              		.loc 2 81 0
 163 004c AA89     		ldrh	r2, [r5, #12]
 164 004e 1749     		ldr	r1, .L8+32
 165 0050 2046     		mov	r0, r4
 166 0052 FFF7FEFF 		bl	chprintf.constprop.0
ARM GAS  C:\Users\jo\AppData\Local\Temp\ccRoOONZ.s 			page 4


 167              	.LVL13:
 168              		.loc 2 82 0
 169 0056 EA89     		ldrh	r2, [r5, #14]
 170 0058 1549     		ldr	r1, .L8+36
 171 005a 2046     		mov	r0, r4
 172 005c FFF7FEFF 		bl	chprintf.constprop.0
 173              	.LVL14:
 174              		.loc 2 83 0
 175 0060 2A8A     		ldrh	r2, [r5, #16]
 176 0062 1449     		ldr	r1, .L8+40
 177 0064 2046     		mov	r0, r4
 178 0066 FFF7FEFF 		bl	chprintf.constprop.0
 179              	.LVL15:
 180              		.loc 2 84 0
 181 006a 6A8A     		ldrh	r2, [r5, #18]
 182 006c 1249     		ldr	r1, .L8+44
 183 006e 2046     		mov	r0, r4
 184 0070 FFF7FEFF 		bl	chprintf.constprop.0
 185              	.LVL16:
 186              		.loc 2 85 0
 187 0074 AA8A     		ldrh	r2, [r5, #20]
 188 0076 1149     		ldr	r1, .L8+48
 189 0078 2046     		mov	r0, r4
 190 007a FFF7FEFF 		bl	chprintf.constprop.0
 191              	.LVL17:
 192              		.loc 2 86 0
 193 007e 2046     		mov	r0, r4
 194 0080 EA8A     		ldrh	r2, [r5, #22]
 195 0082 0F49     		ldr	r1, .L8+52
 196              		.loc 2 87 0
 197 0084 BDE83840 		pop	{r3, r4, r5, lr}
 198              		.cfi_restore 14
 199              		.cfi_restore 5
 200              		.cfi_restore 4
 201              		.cfi_restore 3
 202              		.cfi_def_cfa_offset 0
 203              	.LVL18:
 204              		.loc 2 86 0
 205 0088 FFF7FEBF 		b	chprintf.constprop.0
 206              	.LVL19:
 207              	.L9:
 208              		.align	2
 209              	.L8:
 210 008c 00000000 		.word	itm_port
 211 0090 00000000 		.word	.LC0
 212 0094 08000000 		.word	.LC1
 213 0098 14000000 		.word	.LC2
 214 009c 20000000 		.word	.LC3
 215 00a0 2C000000 		.word	.LC4
 216 00a4 38000000 		.word	.LC5
 217 00a8 48000000 		.word	.LC6
 218 00ac 58000000 		.word	.LC7
 219 00b0 68000000 		.word	.LC8
 220 00b4 74000000 		.word	.LC9
 221 00b8 84000000 		.word	.LC10
 222 00bc 94000000 		.word	.LC11
 223 00c0 A0000000 		.word	.LC12
ARM GAS  C:\Users\jo\AppData\Local\Temp\ccRoOONZ.s 			page 5


 224              		.cfi_endproc
 225              	.LFE257:
 226              		.size	stats_display_proto, .-stats_display_proto
 227 00c4 AFF30080 		.section	.text.stats_display_sys,"ax",%progbits
 227      AFF30080 
 227      AFF30080 
 228              		.align	2
 229              		.p2align 4,,15
 230              		.global	stats_display_sys
 231              		.thumb
 232              		.thumb_func
 233              		.type	stats_display_sys, %function
 234              	stats_display_sys:
 235              	.LFB258:
 236              		.loc 2 140 0
 237              		.cfi_startproc
 238              		@ args = 0, pretend = 0, frame = 0
 239              		@ frame_needed = 0, uses_anonymous_args = 0
 240              	.LVL20:
 241 0000 38B5     		push	{r3, r4, r5, lr}
 242              		.cfi_def_cfa_offset 16
 243              		.cfi_offset 3, -16
 244              		.cfi_offset 4, -12
 245              		.cfi_offset 5, -8
 246              		.cfi_offset 14, -4
 247              		.loc 2 141 0
 248 0002 1A4C     		ldr	r4, .L12
 249 0004 1A49     		ldr	r1, .L12+4
 250              		.loc 2 140 0
 251 0006 0546     		mov	r5, r0
 252              		.loc 2 141 0
 253 0008 2046     		mov	r0, r4
 254              	.LVL21:
 255 000a FFF7FEFF 		bl	chprintf.constprop.0
 256              	.LVL22:
 257              		.loc 2 142 0
 258 000e 2A88     		ldrh	r2, [r5]
 259 0010 1849     		ldr	r1, .L12+8
 260 0012 2046     		mov	r0, r4
 261 0014 FFF7FEFF 		bl	chprintf.constprop.0
 262              	.LVL23:
 263              		.loc 2 143 0
 264 0018 6A88     		ldrh	r2, [r5, #2]
 265 001a 1749     		ldr	r1, .L12+12
 266 001c 2046     		mov	r0, r4
 267 001e FFF7FEFF 		bl	chprintf.constprop.0
 268              	.LVL24:
 269              		.loc 2 144 0
 270 0022 AA88     		ldrh	r2, [r5, #4]
 271 0024 1549     		ldr	r1, .L12+16
 272 0026 2046     		mov	r0, r4
 273 0028 FFF7FEFF 		bl	chprintf.constprop.0
 274              	.LVL25:
 275              		.loc 2 145 0
 276 002c EA88     		ldrh	r2, [r5, #6]
 277 002e 1449     		ldr	r1, .L12+20
 278 0030 2046     		mov	r0, r4
ARM GAS  C:\Users\jo\AppData\Local\Temp\ccRoOONZ.s 			page 6


 279 0032 FFF7FEFF 		bl	chprintf.constprop.0
 280              	.LVL26:
 281              		.loc 2 146 0
 282 0036 2A89     		ldrh	r2, [r5, #8]
 283 0038 1249     		ldr	r1, .L12+24
 284 003a 2046     		mov	r0, r4
 285 003c FFF7FEFF 		bl	chprintf.constprop.0
 286              	.LVL27:
 287              		.loc 2 147 0
 288 0040 6A89     		ldrh	r2, [r5, #10]
 289 0042 1149     		ldr	r1, .L12+28
 290 0044 2046     		mov	r0, r4
 291 0046 FFF7FEFF 		bl	chprintf.constprop.0
 292              	.LVL28:
 293              		.loc 2 148 0
 294 004a AA89     		ldrh	r2, [r5, #12]
 295 004c 0F49     		ldr	r1, .L12+32
 296 004e 2046     		mov	r0, r4
 297 0050 FFF7FEFF 		bl	chprintf.constprop.0
 298              	.LVL29:
 299              		.loc 2 149 0
 300 0054 EA89     		ldrh	r2, [r5, #14]
 301 0056 0E49     		ldr	r1, .L12+36
 302 0058 2046     		mov	r0, r4
 303 005a FFF7FEFF 		bl	chprintf.constprop.0
 304              	.LVL30:
 305              		.loc 2 150 0
 306 005e 2046     		mov	r0, r4
 307 0060 2A8A     		ldrh	r2, [r5, #16]
 308 0062 0C49     		ldr	r1, .L12+40
 309              		.loc 2 151 0
 310 0064 BDE83840 		pop	{r3, r4, r5, lr}
 311              		.cfi_restore 14
 312              		.cfi_restore 5
 313              		.cfi_restore 4
 314              		.cfi_restore 3
 315              		.cfi_def_cfa_offset 0
 316              	.LVL31:
 317              		.loc 2 150 0
 318 0068 FFF7FEBF 		b	chprintf.constprop.0
 319              	.LVL32:
 320              	.L13:
 321              		.align	2
 322              	.L12:
 323 006c 00000000 		.word	itm_port
 324 0070 B0000000 		.word	.LC13
 325 0074 B8000000 		.word	.LC14
 326 0078 C8000000 		.word	.LC15
 327 007c D8000000 		.word	.LC16
 328 0080 E8000000 		.word	.LC17
 329 0084 FC000000 		.word	.LC18
 330 0088 10010000 		.word	.LC19
 331 008c 24010000 		.word	.LC20
 332 0090 38010000 		.word	.LC21
 333 0094 4C010000 		.word	.LC22
 334              		.cfi_endproc
 335              	.LFE258:
ARM GAS  C:\Users\jo\AppData\Local\Temp\ccRoOONZ.s 			page 7


 336              		.size	stats_display_sys, .-stats_display_sys
 337 0098 AFF30080 		.section	.text.stats_display,"ax",%progbits
 337      AFF30080 
 338              		.align	2
 339              		.p2align 4,,15
 340              		.global	stats_display
 341              		.thumb
 342              		.thumb_func
 343              		.type	stats_display, %function
 344              	stats_display:
 345              	.LFB259:
 346              		.loc 2 156 0
 347              		.cfi_startproc
 348              		@ args = 0, pretend = 0, frame = 0
 349              		@ frame_needed = 0, uses_anonymous_args = 0
 350 0000 10B5     		push	{r4, lr}
 351              		.cfi_def_cfa_offset 8
 352              		.cfi_offset 4, -8
 353              		.cfi_offset 14, -4
 354              		.loc 2 159 0
 355 0002 144C     		ldr	r4, .L16
 356 0004 1449     		ldr	r1, .L16+4
 357 0006 2046     		mov	r0, r4
 358 0008 FFF7FEFF 		bl	stats_display_proto
 359              	.LVL33:
 360              		.loc 2 160 0
 361 000c 04F11800 		add	r0, r4, #24
 362 0010 1249     		ldr	r1, .L16+8
 363 0012 FFF7FEFF 		bl	stats_display_proto
 364              	.LVL34:
 365              		.loc 2 161 0
 366 0016 04F13000 		add	r0, r4, #48
 367 001a 1149     		ldr	r1, .L16+12
 368 001c FFF7FEFF 		bl	stats_display_proto
 369              	.LVL35:
 370              		.loc 2 162 0
 371 0020 04F14800 		add	r0, r4, #72
 372 0024 0F49     		ldr	r1, .L16+16
 373 0026 FFF7FEFF 		bl	stats_display_proto
 374              	.LVL36:
 375              		.loc 2 164 0
 376 002a 04F16000 		add	r0, r4, #96
 377 002e 0E49     		ldr	r1, .L16+20
 378 0030 FFF7FEFF 		bl	stats_display_proto
 379              	.LVL37:
 380              		.loc 2 165 0
 381 0034 04F17800 		add	r0, r4, #120
 382 0038 0C49     		ldr	r1, .L16+24
 383 003a FFF7FEFF 		bl	stats_display_proto
 384              	.LVL38:
 385              		.loc 2 166 0
 386 003e 04F19000 		add	r0, r4, #144
 387 0042 0B49     		ldr	r1, .L16+28
 388 0044 FFF7FEFF 		bl	stats_display_proto
 389              	.LVL39:
 390              		.loc 2 171 0
 391 0048 04F1A800 		add	r0, r4, #168
ARM GAS  C:\Users\jo\AppData\Local\Temp\ccRoOONZ.s 			page 8


 392              		.loc 2 172 0
 393 004c BDE81040 		pop	{r4, lr}
 394              		.cfi_restore 14
 395              		.cfi_restore 4
 396              		.cfi_def_cfa_offset 0
 397              		.loc 2 171 0
 398 0050 FFF7FEBF 		b	stats_display_sys
 399              	.LVL40:
 400              	.L17:
 401              		.align	2
 402              	.L16:
 403 0054 00000000 		.word	.LANCHOR0
 404 0058 60010000 		.word	.LC23
 405 005c 68010000 		.word	.LC24
 406 0060 70010000 		.word	.LC25
 407 0064 78010000 		.word	.LC26
 408 0068 7C010000 		.word	.LC27
 409 006c 84010000 		.word	.LC28
 410 0070 88010000 		.word	.LC29
 411              		.cfi_endproc
 412              	.LFE259:
 413              		.size	stats_display, .-stats_display
 414              		.global	lwip_stats
 415 0074 AFF30080 		.section	.rodata.str1.4,"aMS",%progbits,1
 415      AFF30080 
 415      AFF30080 
 416              		.align	2
 417              	.LC0:
 418 0000 0A25730A 		.ascii	"\012%s\012\011\000"
 418      0900
 419 0006 0000     		.space	2
 420              	.LC1:
 421 0008 786D6974 		.ascii	"xmit: %u\012\011\000"
 421      3A202575 
 421      0A0900
 422 0013 00       		.space	1
 423              	.LC2:
 424 0014 72656376 		.ascii	"recv: %u\012\011\000"
 424      3A202575 
 424      0A0900
 425 001f 00       		.space	1
 426              	.LC3:
 427 0020 66773A20 		.ascii	"fw: %u\012\011\000"
 427      25750A09 
 427      00
 428 0029 000000   		.space	3
 429              	.LC4:
 430 002c 64726F70 		.ascii	"drop: %u\012\011\000"
 430      3A202575 
 430      0A0900
 431 0037 00       		.space	1
 432              	.LC5:
 433 0038 63686B65 		.ascii	"chkerr: %u\012\011\000"
 433      72723A20 
 433      25750A09 
 433      00
 434 0045 000000   		.space	3
ARM GAS  C:\Users\jo\AppData\Local\Temp\ccRoOONZ.s 			page 9


 435              	.LC6:
 436 0048 6C656E65 		.ascii	"lenerr: %u\012\011\000"
 436      72723A20 
 436      25750A09 
 436      00
 437 0055 000000   		.space	3
 438              	.LC7:
 439 0058 6D656D65 		.ascii	"memerr: %u\012\011\000"
 439      72723A20 
 439      25750A09 
 439      00
 440 0065 000000   		.space	3
 441              	.LC8:
 442 0068 72746572 		.ascii	"rterr: %u\012\011\000"
 442      723A2025 
 442      750A0900 
 443              	.LC9:
 444 0074 70726F74 		.ascii	"proterr: %u\012\011\000"
 444      6572723A 
 444      2025750A 
 444      0900
 445 0082 0000     		.space	2
 446              	.LC10:
 447 0084 6F707465 		.ascii	"opterr: %u\012\011\000"
 447      72723A20 
 447      25750A09 
 447      00
 448 0091 000000   		.space	3
 449              	.LC11:
 450 0094 6572723A 		.ascii	"err: %u\012\011\000"
 450      2025750A 
 450      0900
 451 009e 0000     		.space	2
 452              	.LC12:
 453 00a0 63616368 		.ascii	"cachehit: %u\012\000"
 453      65686974 
 453      3A202575 
 453      0A00
 454 00ae 0000     		.space	2
 455              	.LC13:
 456 00b0 0A535953 		.ascii	"\012SYS\012\011\000"
 456      0A0900
 457 00b7 00       		.space	1
 458              	.LC14:
 459 00b8 73656D2E 		.ascii	"sem.used:  %u\012\011\000"
 459      75736564 
 459      3A202025 
 459      750A0900 
 460              	.LC15:
 461 00c8 73656D2E 		.ascii	"sem.max:   %u\012\011\000"
 461      6D61783A 
 461      20202025 
 461      750A0900 
 462              	.LC16:
 463 00d8 73656D2E 		.ascii	"sem.err:   %u\012\011\000"
 463      6572723A 
 463      20202025 
ARM GAS  C:\Users\jo\AppData\Local\Temp\ccRoOONZ.s 			page 10


 463      750A0900 
 464              	.LC17:
 465 00e8 6D757465 		.ascii	"mutex.used: %u\012\011\000"
 465      782E7573 
 465      65643A20 
 465      25750A09 
 465      00
 466 00f9 000000   		.space	3
 467              	.LC18:
 468 00fc 6D757465 		.ascii	"mutex.max:  %u\012\011\000"
 468      782E6D61 
 468      783A2020 
 468      25750A09 
 468      00
 469 010d 000000   		.space	3
 470              	.LC19:
 471 0110 6D757465 		.ascii	"mutex.err:  %u\012\011\000"
 471      782E6572 
 471      723A2020 
 471      25750A09 
 471      00
 472 0121 000000   		.space	3
 473              	.LC20:
 474 0124 6D626F78 		.ascii	"mbox.used:  %u\012\011\000"
 474      2E757365 
 474      643A2020 
 474      25750A09 
 474      00
 475 0135 000000   		.space	3
 476              	.LC21:
 477 0138 6D626F78 		.ascii	"mbox.max:   %u\012\011\000"
 477      2E6D6178 
 477      3A202020 
 477      25750A09 
 477      00
 478 0149 000000   		.space	3
 479              	.LC22:
 480 014c 6D626F78 		.ascii	"mbox.err:   %u\012\011\000"
 480      2E657272 
 480      3A202020 
 480      25750A09 
 480      00
 481 015d 000000   		.space	3
 482              	.LC23:
 483 0160 4C494E4B 		.ascii	"LINK\000"
 483      00
 484 0165 000000   		.space	3
 485              	.LC24:
 486 0168 45544841 		.ascii	"ETHARP\000"
 486      525000
 487 016f 00       		.space	1
 488              	.LC25:
 489 0170 49505F46 		.ascii	"IP_FRAG\000"
 489      52414700 
 490              	.LC26:
 491 0178 495000   		.ascii	"IP\000"
 492 017b 00       		.space	1
ARM GAS  C:\Users\jo\AppData\Local\Temp\ccRoOONZ.s 			page 11


 493              	.LC27:
 494 017c 49434D50 		.ascii	"ICMP\000"
 494      00
 495 0181 000000   		.space	3
 496              	.LC28:
 497 0184 55445000 		.ascii	"UDP\000"
 498              	.LC29:
 499 0188 54435000 		.ascii	"TCP\000"
 500              		.section	.bss.lwip_stats,"aw",%nobits
 501              		.align	2
 502              		.set	.LANCHOR0,. + 0
 503              		.type	lwip_stats, %object
 504              		.size	lwip_stats, 186
 505              	lwip_stats:
 506 0000 00000000 		.space	186
 506      00000000 
 506      00000000 
 506      00000000 
 506      00000000 
 507 00ba 0000     		.text
 508              	.Letext0:
 509              		.file 3 "c:\\program files\\gnu tools arm embedded\\4.9 2014q4\\lib\\gcc\\arm-none-eabi\\4.9.3\\in
 510              		.file 4 "c:\\program files\\gnu tools arm embedded\\4.9 2014q4\\arm-none-eabi\\include\\machine\\_
 511              		.file 5 "c:\\program files\\gnu tools arm embedded\\4.9 2014q4\\arm-none-eabi\\include\\stdint.h"
 512              		.file 6 "../../../os/rt/ports/ARMCMx/compilers/GCC/chtypes.h"
 513              		.file 7 "../../../os/rt/include/chsystypes.h"
 514              		.file 8 "../../../os/rt/include/chschd.h"
 515              		.file 9 "../../../os/rt/ports/ARMCMx/chcore.h"
 516              		.file 10 "../../../os/rt/ports/ARMCMx/chcore_v7m.h"
 517              		.file 11 "c:\\program files\\gnu tools arm embedded\\4.9 2014q4\\lib\\gcc\\arm-none-eabi\\4.9.3\\i
 518              		.file 12 "<built-in>"
 519              		.file 13 "../../../os/rt/include/chdebug.h"
 520              		.file 14 "../../../os/rt/include/chtm.h"
 521              		.file 15 "../../../os/rt/include/chstats.h"
 522              		.file 16 "../../../os/rt/include/chmtx.h"
 523              		.file 17 "../../../os/rt/include/chstreams.h"
 524              		.file 18 "./ITM_trace.h"
 525              		.file 19 "../../../os/various/lwip_bindings/arch/cc.h"
 526              		.file 20 "../../../os/ext/lwip-1.4.1/src/include/lwip/stats.h"
 527              		.file 21 "../../../os/ext/CMSIS/include/core_cm4.h"
 528              		.file 22 "../../../os/ext/lwip-1.4.1/src/include/lwip/memp.h"