ARM GAS  C:\Users\jo\AppData\Local\Temp\ccRoOONZ.s 			page 1


   1              		.syntax unified
   2              		.cpu cortex-m4
   3              		.fpu softvfp
   4              		.eabi_attribute 20, 1
   5              		.eabi_attribute 21, 1
   6              		.eabi_attribute 23, 3
   7              		.eabi_attribute 24, 1
   8              		.eabi_attribute 25, 1
   9              		.eabi_attribute 26, 1
  10              		.eabi_attribute 30, 2
  11              		.eabi_attribute 34, 1
  12              		.eabi_attribute 18, 4
  13              		.thumb
  14              		.file	"stats.c"
  15              		.text
  16              	.Ltext0:
  17              		.cfi_sections	.debug_frame
  18              		.section	.text.chprintf.constprop.0,"ax",%progbits
  19              		.align	2
  20              		.p2align 4,,15
  21              		.thumb
  22              		.thumb_func
  23              		.type	chprintf.constprop.0, %function
  24              	chprintf.constprop.0:
  25              	.LFB260:
  26              		.file 1 "../../../os/hal/lib/streams/chprintf.h"
  27              		.loc 1 69 0
  28              		.cfi_startproc
  29              		@ args = 4, pretend = 12, frame = 8
  30              		@ frame_needed = 0, uses_anonymous_args = 1
  31              	.LVL0:
  32 0000 0EB4     		push	{r1, r2, r3}
  33              		.cfi_def_cfa_offset 12
  34              		.cfi_offset 1, -12
  35              		.cfi_offset 2, -8
  36              		.cfi_offset 3, -4
  37 0002 00B5     		push	{lr}
  38              		.cfi_def_cfa_offset 16
  39              		.cfi_offset 14, -16
  40 0004 82B0     		sub	sp, sp, #8
  41              		.cfi_def_cfa_offset 24
  42              		.loc 1 69 0
  43 0006 03AA     		add	r2, sp, #12
  44              		.loc 1 74 0
  45 0008 0548     		ldr	r0, .L3
  46              	.LVL1:
  47              		.loc 1 69 0
  48 000a 52F8041B 		ldr	r1, [r2], #4
  49              		.loc 1 73 0
  50 000e 0192     		str	r2, [sp, #4]
  51              		.loc 1 74 0
  52 0010 FFF7FEFF 		bl	chvprintf
  53              	.LVL2:
  54              		.loc 1 78 0
  55 0014 02B0     		add	sp, sp, #8
  56              		.cfi_def_cfa_offset 16
  57              		@ sp needed
ARM GAS  C:\Users\jo\AppData\Local\Temp\ccRoOONZ.s 			page 2


  58 0016 5DF804EB 		ldr	lr, [sp], #4
  59              		.cfi_restore 14
  60              		.cfi_def_cfa_offset 12
  61 001a 03B0     		add	sp, sp, #12
  62              		.cfi_restore 3
  63              		.cfi_restore 2
  64              		.cfi_restore 1
  65              		.cfi_def_cfa_offset 0
  66 001c 7047     		bx	lr
  67              	.L4:
  68 001e 00BF     		.align	2
  69              	.L3:
  70 0020 00000000 		.word	itm_port
  71              		.cfi_endproc
  72              	.LFE260:
  73              		.size	chprintf.constprop.0, .-chprintf.constprop.0
  74 0024 AFF30080 		.section	.text.stats_init,"ax",%progbits
  74      AFF30080 
  74      AFF30080 
  75              		.align	2
  76              		.p2align 4,,15
  77              		.global	stats_init
  78              		.thumb
  79              		.thumb_func
  80              		.type	stats_init, %function
  81              	stats_init:
  82              	.LFB256:
  83              		.file 2 "../../../os/ext/lwip-1.4.1/src/core/stats.c"
  84              		.loc 2 52 0
  85              		.cfi_startproc
  86              		@ args = 0, pretend = 0, frame = 0
  87              		@ frame_needed = 0, uses_anonymous_args = 0
  88              		@ link register save eliminated.
  89 0000 7047     		bx	lr
  90              		.cfi_endproc
  91              	.LFE256:
  92              		.size	stats_init, .-stats_init
  93 0002 00BFAFF3 		.section	.text.stats_display_proto,"ax",%progbits
  93      0080AFF3 
  93      0080AFF3 
  93      0080
  94              		.align	2
  95              		.p2align 4,,15
  96              		.global	stats_display_proto
  97              		.thumb
  98              		.thumb_func
  99              		.type	stats_display_proto, %function
 100              	stats_display_proto:
 101              	.LFB257:
 102              		.loc 2 73 0
 103              		.cfi_startproc
 104              		@ args = 0, pretend = 0, frame = 0
 105              		@ frame_needed = 0, uses_anonymous_args = 0
 106              	.LVL3:
 107              		.loc 2 73 0
 108 0000 38B5     		push	{r3, r4, r5, lr}
 109              		.cfi_def_cfa_offset 16
ARM GAS  C:\Users\jo\AppData\Local\Temp\ccRoOONZ.s 			page 3


 110              		.cfi_offset 3, -16
 111              		.cfi_offset 4, -12
 112              		.cfi_offset 5, -8
 113              		.cfi_offset 14, -4
 114              		.loc 2 74 0
 115 0002 224C     		ldr	r4, .L8
 116              		.loc 2 73 0
 117 0004 0546     		mov	r5, r0
 118 0006 0A46     		mov	r2, r1
 119              		.loc 2 74 0
 120 0008 2046     		mov	r0, r4
 121              	.LVL4:
 122 000a 2149     		ldr	r1, .L8+4
 123              	.LVL5:
 124 000c FFF7FEFF 		bl	chprintf.constprop.0
 125              	.LVL6:
 126              		.loc 2 75 0
 127 0010 2A88     		ldrh	r2, [r5]
 128 0012 2049     		ldr	r1, .L8+8
 129 0014 2046     		mov	r0, r4
 130 0016 FFF7FEFF 		bl	chprintf.constprop.0
 131              	.LVL7:
 132              		.loc 2 76 0
 133 001a 6A88     		ldrh	r2, [r5, #2]
 134 001c 1E49     		ldr	r1, .L8+12
 135 001e 2046     		mov	r0, r4
 136 0020 FFF7FEFF 		bl	chprintf.constprop.0
 137              	.LVL8:
 138              		.loc 2 77 0
 139 0024 AA88     		ldrh	r2, [r5, #4]
 140 0026 1D49     		ldr	r1, .L8+16
 141 0028 2046     		mov	r0, r4
 142 002a FFF7FEFF 		bl	chprintf.constprop.0
 143              	.LVL9:
 144              		.loc 2 78 0
 145 002e EA88     		ldrh	r2, [r5, #6]
 146 0030 1B49     		ldr	r1, .L8+20
 147 0032 2046     		mov	r0, r4
 148 0034 FFF7FEFF 		bl	chprintf.constprop.0
 149              	.LVL10:
 150              		.loc 2 79 0
 151 0038 2A89     		ldrh	r2, [r5, #8]
 152 003a 1A49     		ldr	r1, .L8+24
 153 003c 2046     		mov	r0, r4
 154 003e FFF7FEFF 		bl	chprintf.constprop.0
 155              	.LVL11:
 156              		.loc 2 80 0
 157 0042 6A89     		ldrh	r2, [r5, #10]
 158 0044 1849     		ldr	r1, .L8+28
 159 0046 2046     		mov	r0, r4
 160 0048 FFF7FEFF 		bl	chprintf.constprop.0
 161              	.LVL12:
 162              		.loc 2 81 0
 163 004c AA89     		ldrh	r2, [r5, #12]
 164 004e 1749     		ldr	r1, .L8+32
 165 0050 2046     		mov	r0, r4
 166 0052 FFF7FEFF 		bl	chprintf.constprop.0
ARM GAS  C:\Users\jo\AppData\Local\Temp\ccRoOONZ.s 			page 4


 167              	.LVL13:
 168              		.loc 2 82 0
 169 0056 EA89     		ldrh	r2, [r5, #14]
 170 0058 1549     		ldr	r1, .L8+36
 171 005a 2046     		mov	r0, r4
 172 005c FFF7FEFF 		bl	chprintf.constprop.0
 173              	.LVL14:
 174              		.loc 2 83 0
 175 0060 2A8A     		ldrh	r2, [r5, #16]
 176 0062 1449     		ldr	r1, .L8+40
 177 0064 2046     		mov	r0, r4
 178 0066 FFF7FEFF 		bl	chprintf.constprop.0
 179              	.LVL15:
 180              		.loc 2 84 0
 181 006a 6A8A     		ldrh	r2, [r5, #18]
 182 006c 1249     		ldr	r1, .L8+44
 183 006e 2046     		mov	r0, r4
 184 0070 FFF7FEFF 		bl	chprintf.constprop.0
 185              	.LVL16:
 186              		.loc 2 85 0
 187 0074 AA8A     		ldrh	r2, [r5, #20]
 188 0076 1149     		ldr	r1, .L8+48
 189 0078 2046     		mov	r0, r4
 190 007a FFF7FEFF 		bl	chprintf.constprop.0
 191              	.LVL17:
 192              		.loc 2 86 0
 193 007e 2046     		mov	r0, r4
 194 0080 EA8A     		ldrh	r2, [r5, #22]
 195 0082 0F49     		ldr	r1, .L8+52
 196              		.loc 2 87 0
 197 0084 BDE83840 		pop	{r3, r4, r5, lr}
 198              		.cfi_restore 14
 199              		.cfi_restore 5
 200              		.cfi_restore 4
 201              		.cfi_restore 3
 202              		.cfi_def_cfa_offset 0
 203              	.LVL18:
 204              		.loc 2 86 0
 205 0088 FFF7FEBF 		b	chprintf.constprop.0
 206              	.LVL19:
 207              	.L9:
 208              		.align	2
 209              	.L8:
 210 008c 00000000 		.word	itm_port
 211 0090 00000000 		.word	.LC0
 212 0094 08000000 		.word	.LC1
 213 0098 14000000 		.word	.LC2
 214 009c 20000000 		.word	.LC3
 215 00a0 2C000000 		.word	.LC4
 216 00a4 38000000 		.word	.LC5
 217 00a8 48000000 		.word	.LC6
 218 00ac 58000000 		.word	.LC7
 219 00b0 68000000 		.word	.LC8
 220 00b4 74000000 		.word	.LC9
 221 00b8 84000000 		.word	.LC10
 222 00bc 94000000 		.word	.LC11
 223 00c0 A0000000 		.word	.LC12
ARM GAS  C:\Users\jo\AppData\Local\Temp\ccRoOONZ.s 			page 5


 224              		.cfi_endproc
 225              	.LFE257:
 226              		.size	stats_display_proto, .-stats_display_proto
 227 00c4 AFF30080 		.section	.text.stats_display_sys,"ax",%progbits
 227      AFF30080 
 227      AFF30080 
 228              		.align	2
 229              		.p2align 4,,15
 230              		.global	stats_display_sys
 231              		.thumb
 232              		.thumb_func
 233              		.type	stats_display_sys, %function
 234              	stats_display_sys:
 235              	.LFB258:
 236              		.loc 2 140 0
 237              		.cfi_startproc
 238              		@ args = 0, pretend = 0, frame = 0
 239              		@ frame_needed = 0, uses_anonymous_args = 0
 240              	.LVL20:
 241 0000 38B5     		push	{r3, r4, r5, lr}
 242              		.cfi_def_cfa_offset 16
 243              		.cfi_offset 3, -16
 244              		.cfi_offset 4, -12
 245              		.cfi_offset 5, -8
 246              		.cfi_offset 14, -4
 247              		.loc 2 141 0
 248 0002 1A4C     		ldr	r4, .L12
 249 0004 1A49     		ldr	r1, .L12+4
 250              		.loc 2 140 0
 251 0006 0546     		mov	r5, r0
 252              		.loc 2 141 0
 253 0008 2046     		mov	r0, r4
 254              	.LVL21:
 255 000a FFF7FEFF 		bl	chprintf.constprop.0
 256              	.LVL22:
 257              		.loc 2 142 0
 258 000e 2A88     		ldrh	r2, [r5]
 259 0010 1849     		ldr	r1, .L12+8
 260 0012 2046     		mov	r0, r4
 261 0014 FFF7FEFF 		bl	chprintf.constprop.0
 262              	.LVL23:
 263              		.loc 2 143 0
 264 0018 6A88     		ldrh	r2, [r5, #2]
 265 001a 1749     		ldr	r1, .L12+12
 266 001c 2046     		mov	r0, r4
 267 001e FFF7FEFF 		bl	chprintf.constprop.0
 268              	.LVL24:
 269              		.loc 2 144 0
 270 0022 AA88     		ldrh	r2, [r5, #4]
 271 0024 1549     		ldr	r1, .L12+16
 272 0026 2046     		mov	r0, r4
 273 0028 FFF7FEFF 		bl	chprintf.constprop.0
 274              	.LVL25:
 275              		.loc 2 145 0
 276 002c EA88     		ldrh	r2, [r5, #6]
 277 002e 1449     		ldr	r1, .L12+20
 278 0030 2046     		mov	r0, r4
ARM GAS  C:\Users\jo\AppData\Local\Temp\ccRoOONZ.s 			page 6


 279 0032 FFF7FEFF 		bl	chprintf.constprop.0
 280              	.LVL26:
 281              		.loc 2 146 0
 282 0036 2A89     		ldrh	r2, [r5, #8]
 283 0038 1249     		ldr	r1, .L12+24
 284 003a 2046     		mov	r0, r4
 285 003c FFF7FEFF 		bl	chprintf.constprop.0
 286              	.LVL27:
 287              		.loc 2 147 0
 288 0040 6A89     		ldrh	r2, [r5, #10]
 289 0042 1149     		ldr	r1, .L12+28
 290 0044 2046     		mov	r0, r4
 291 0046 FFF7FEFF 		bl	chprintf.constprop.0
 292              	.LVL28:
 293              		.loc 2 148 0
 294 004a AA89     		ldrh	r2, [r5, #12]
 295 004c 0F49     		ldr	r1, .L12+32
 296 004e 2046     		mov	r0, r4
 297 0050 FFF7FEFF 		bl	chprintf.constprop.0
 298              	.LVL29:
 299              		.loc 2 149 0
 300 0054 EA89     		ldrh	r2, [r5, #14]
 301 0056 0E49     		ldr	r1, .L12+36
 302 0058 2046     		mov	r0, r4
 303 005a FFF7FEFF 		bl	chprintf.constprop.0
 304              	.LVL30:
 305              		.loc 2 150 0
 306 005e 2046     		mov	r0, r4
 307 0060 2A8A     		ldrh	r2, [r5, #16]
 308 0062 0C49     		ldr	r1, .L12+40
 309              		.loc 2 151 0
 310 0064 BDE83840 		pop	{r3, r4, r5, lr}
 311              		.cfi_restore 14
 312              		.cfi_restore 5
 313              		.cfi_restore 4
 314              		.cfi_restore 3
 315              		.cfi_def_cfa_offset 0
 316              	.LVL31:
 317              		.loc 2 150 0
 318 0068 FFF7FEBF 		b	chprintf.constprop.0
 319              	.LVL32:
 320              	.L13:
 321              		.align	2
 322              	.L12:
 323 006c 00000000 		.word	itm_port
 324 0070 B0000000 		.word	.LC13
 325 0074 B8000000 		.word	.LC14
 326 0078 C8000000 		.word	.LC15
 327 007c D8000000 		.word	.LC16
 328 0080 E8000000 		.word	.LC17
 329 0084 FC000000 		.word	.LC18
 330 0088 10010000 		.word	.LC19
 331 008c 24010000 		.word	.LC20
 332 0090 38010000 		.word	.LC21
 333 0094 4C010000 		.word	.LC22
 334              		.cfi_endproc
 335              	.LFE258:
ARM GAS  C:\Users\jo\AppData\Local\Temp\ccRoOONZ.s 			page 7


 336              		.size	stats_display_sys, .-stats_display_sys
 337 0098 AFF30080 		.section	.text.stats_display,"ax",%progbits
 337      AFF30080 
 338              		.align	2
 339              		.p2align 4,,15
 340              		.global	stats_display
 341              		.thumb
 342              		.thumb_func
 343              		.type	stats_display, %function
 344              	stats_display:
 345              	.LFB259:
 346              		.loc 2 156 0
 347              		.cfi_startproc
 348              		@ args = 0, pretend = 0, frame = 0
 349              		@ frame_needed = 0, uses_anonymous_args = 0
 350 0000 10B5     		push	{r4, lr}
 351              		.cfi_def_cfa_offset 8
 352              		.cfi_offset 4, -8
 353              		.cfi_offset 14, -4
 354              		.loc 2 159 0
 355 0002 144C     		ldr	r4, .L16
 356 0004 1449     		ldr	r1, .L16+4
 357 0006 2046     		mov	r0, r4
 358 0008 FFF7FEFF 		bl	stats_display_proto
 359              	.LVL33:
 360              		.loc 2 160 0
 361 000c 04F11800 		add	r0, r4, #24
 362 0010 1249     		ldr	r1, .L16+8
 363 0012 FFF7FEFF 		bl	stats_display_proto
 364              	.LVL34:
 365              		.loc 2 161 0
 366 0016 04F13000 		add	r0, r4, #48
 367 001a 1149     		ldr	r1, .L16+12
 368 001c FFF7FEFF 		bl	stats_display_proto
 369              	.LVL35:
 370              		.loc 2 162 0
 371 0020 04F14800 		add	r0, r4, #72
 372 0024 0F49     		ldr	r1, .L16+16
 373 0026 FFF7FEFF 		bl	stats_display_proto
 374              	.LVL36:
 375              		.loc 2 164 0
 376 002a 04F16000 		add	r0, r4, #96
 377 002e 0E49     		ldr	r1, .L16+20
 378 0030 FFF7FEFF 		bl	stats_display_proto
 379              	.LVL37:
 380              		.loc 2 165 0
 381 0034 04F17800 		add	r0, r4, #120
 382 0038 0C49     		ldr	r1, .L16+24
 383 003a FFF7FEFF 		bl	stats_display_proto
 384              	.LVL38:
 385              		.loc 2 166 0
 386 003e 04F19000 		add	r0, r4, #144
 387 0042 0B49     		ldr	r1, .L16+28
 388 0044 FFF7FEFF 		bl	stats_display_proto
 389              	.LVL39:
 390              		.loc 2 171 0
 391 0048 04F1A800 		add	r0, r4, #168
ARM GAS  C:\Users\jo\AppData\Local\Temp\ccRoOONZ.s 			page 8


 392              		.loc 2 172 0
 393 004c BDE81040 		pop	{r4, lr}
 394              		.cfi_restore 14
 395              		.cfi_restore 4
 396              		.cfi_def_cfa_offset 0
 397              		.loc 2 171 0
 398 0050 FFF7FEBF 		b	stats_display_sys
 399              	.LVL40:
 400              	.L17:
 401              		.align	2
 402              	.L16:
 403 0054 00000000 		.word	.LANCHOR0
 404 0058 60010000 		.word	.LC23
 405 005c 68010000 		.word	.LC24
 406 0060 70010000 		.word	.LC25
 407 0064 78010000 		.word	.LC26
 408 0068 7C010000 		.word	.LC27
 409 006c 84010000 		.word	.LC28
 410 0070 88010000 		.word	.LC29
 411              		.cfi_endproc
 412              	.LFE259:
 413              		.size	stats_display, .-stats_display
 414              		.global	lwip_stats
 415 0074 AFF30080 		.section	.rodata.str1.4,"aMS",%progbits,1
 415      AFF30080 
 415      AFF30080 
 416              		.align	2
 417              	.LC0:
 418 0000 0A25730A 		.ascii	"\012%s\012\011\000"
 418      0900
 419 0006 0000     		.space	2
 420              	.LC1:
 421 0008 786D6974 		.ascii	"xmit: %u\012\011\000"
 421      3A202575 
 421      0A0900
 422 0013 00       		.space	1
 423              	.LC2:
 424 0014 72656376 		.ascii	"recv: %u\012\011\000"
 424      3A202575 
 424      0A0900
 425 001f 00       		.space	1
 426              	.LC3:
 427 0020 66773A20 		.ascii	"fw: %u\012\011\000"
 427      25750A09 
 427      00
 428 0029 000000   		.space	3
 429              	.LC4:
 430 002c 64726F70 		.ascii	"drop: %u\012\011\000"
 430      3A202575 
 430      0A0900
 431 0037 00       		.space	1
 432              	.LC5:
 433 0038 63686B65 		.ascii	"chkerr: %u\012\011\000"
 433      72723A20 
 433      25750A09 
 433      00
 434 0045 000000   		.space	3
ARM GAS  C:\Users\jo\AppData\Local\Temp\ccRoOONZ.s 			page 9


 435              	.LC6:
 436 0048 6C656E65 		.ascii	"lenerr: %u\012\011\000"
 436      72723A20 
 436      25750A09 
 436      00
 437 0055 000000   		.space	3
 438              	.LC7:
 439 0058 6D656D65 		.ascii	"memerr: %u\012\011\000"
 439      72723A20 
 439      25750A09 
 439      00
 440 0065 000000   		.space	3
 441              	.LC8:
 442 0068 72746572 		.ascii	"rterr: %u\012\011\000"
 442      723A2025 
 442      750A0900 
 443              	.LC9:
 444 0074 70726F74 		.ascii	"proterr: %u\012\011\000"
 444      6572723A 
 444      2025750A 
 444      0900
 445 0082 0000     		.space	2
 446              	.LC10:
 447 0084 6F707465 		.ascii	"opterr: %u\012\011\000"
 447      72723A20 
 447      25750A09 
 447      00
 448 0091 000000   		.space	3
 449              	.LC11:
 450 0094 6572723A 		.ascii	"err: %u\012\011\000"
 450      2025750A 
 450      0900
 451 009e 0000     		.space	2
 452              	.LC12:
 453 00a0 63616368 		.ascii	"cachehit: %u\012\000"
 453      65686974 
 453      3A202575 
 453      0A00
 454 00ae 0000     		.space	2
 455              	.LC13:
 456 00b0 0A535953 		.ascii	"\012SYS\012\011\000"
 456      0A0900
 457 00b7 00       		.space	1
 458              	.LC14:
 459 00b8 73656D2E 		.ascii	"sem.used:  %u\012\011\000"
 459      75736564 
 459      3A202025 
 459      750A0900 
 460              	.LC15:
 461 00c8 73656D2E 		.ascii	"sem.max:   %u\012\011\000"
 461      6D61783A 
 461      20202025 
 461      750A0900 
 462              	.LC16:
 463 00d8 73656D2E 		.ascii	"sem.err:   %u\012\011\000"
 463      6572723A 
 463      20202025 
ARM GAS  C:\Users\jo\AppData\Local\Temp\ccRoOONZ.s 			page 10


 463      750A0900 
 464              	.LC17:
 465 00e8 6D757465 		.ascii	"mutex.used: %u\012\011\000"
 465      782E7573 
 465      65643A20 
 465      25750A09 
 465      00
 466 00f9 000000   		.space	3
 467              	.LC18:
 468 00fc 6D757465 		.ascii	"mutex.max:  %u\012\011\000"
 468      782E6D61 
 468      783A2020 
 468      25750A09 
 468      00
 469 010d 000000   		.space	3
 470              	.LC19:
 471 0110 6D757465 		.ascii	"mutex.err:  %u\012\011\000"
 471      782E6572 
 471      723A2020 
 471      25750A09 
 471      00
 472 0121 000000   		.space	3
 473              	.LC20:
 474 0124 6D626F78 		.ascii	"mbox.used:  %u\012\011\000"
 474      2E757365 
 474      643A2020 
 474      25750A09 
 474      00
 475 0135 000000   		.space	3
 476              	.LC21:
 477 0138 6D626F78 		.ascii	"mbox.max:   %u\012\011\000"
 477      2E6D6178 
 477      3A202020 
 477      25750A09 
 477      00
 478 0149 000000   		.space	3
 479              	.LC22:
 480 014c 6D626F78 		.ascii	"mbox.err:   %u\012\011\000"
 480      2E657272 
 480      3A202020 
 480      25750A09 
 480      00
 481 015d 000000   		.space	3
 482              	.LC23:
 483 0160 4C494E4B 		.ascii	"LINK\000"
 483      00
 484 0165 000000   		.space	3
 485              	.LC24:
 486 0168 45544841 		.ascii	"ETHARP\000"
 486      525000
 487 016f 00       		.space	1
 488              	.LC25:
 489 0170 49505F46 		.ascii	"IP_FRAG\000"
 489      52414700 
 490              	.LC26:
 491 0178 495000   		.ascii	"IP\000"
 492 017b 00       		.space	1
ARM GAS  C:\Users\jo\AppData\Local\Temp\ccRoOONZ.s 			page 11


 493              	.LC27:
 494 017c 49434D50 		.ascii	"ICMP\000"
 494      00
 495 0181 000000   		.space	3
 496              	.LC28:
 497 0184 55445000 		.ascii	"UDP\000"
 498              	.LC29:
 499 0188 54435000 		.ascii	"TCP\000"
 500              		.section	.bss.lwip_stats,"aw",%nobits
 501              		.align	2
 502              		.set	.LANCHOR0,. + 0
 503              		.type	lwip_stats, %object
 504              		.size	lwip_stats, 186
 505              	lwip_stats:
 506 0000 00000000 		.space	186
 506      00000000 
 506      00000000 
 506      00000000 
 506      00000000 
 507 00ba 0000     		.text
 508              	.Letext0:
 509              		.file 3 "c:\\program files\\gnu tools arm embedded\\4.9 2014q4\\lib\\gcc\\arm-none-eabi\\4.9.3\\in
 510              		.file 4 "c:\\program files\\gnu tools arm embedded\\4.9 2014q4\\arm-none-eabi\\include\\machine\\_
 511              		.file 5 "c:\\program files\\gnu tools arm embedded\\4.9 2014q4\\arm-none-eabi\\include\\stdint.h"
 512              		.file 6 "../../../os/rt/ports/ARMCMx/compilers/GCC/chtypes.h"
 513              		.file 7 "../../../os/rt/include/chsystypes.h"
 514              		.file 8 "../../../os/rt/include/chschd.h"
 515              		.file 9 "../../../os/rt/ports/ARMCMx/chcore.h"
 516              		.file 10 "../../../os/rt/ports/ARMCMx/chcore_v7m.h"
 517              		.file 11 "c:\\program files\\gnu tools arm embedded\\4.9 2014q4\\lib\\gcc\\arm-none-eabi\\4.9.3\\i
 518              		.file 12 "<built-in>"
 519              		.file 13 "../../../os/rt/include/chdebug.h"
 520              		.file 14 "../../../os/rt/include/chtm.h"
 521              		.file 15 "../../../os/rt/include/chstats.h"
 522              		.file 16 "../../../os/rt/include/chmtx.h"
 523              		.file 17 "../../../os/rt/include/chstreams.h"
 524              		.file 18 "./ITM_trace.h"
 525              		.file 19 "../../../os/various/lwip_bindings/arch/cc.h"
 526              		.file 20 "../../../os/ext/lwip-1.4.1/src/include/lwip/stats.h"
 527              		.file 21 "../../../os/ext/CMSIS/include/core_cm4.h"
 528              		.file 22 "../../../os/ext/lwip-1.4.1/src/include/lwip/memp.h"
 529              		.section	.debug_info,"",%progbits
 530              	.Ldebug_info0:
 531 0000 D30F0000 		.4byte	0xfd3
 532 0004 0400     		.2byte	0x4
 533 0006 00000000 		.4byte	.Ldebug_abbrev0
 534 000a 04       		.byte	0x4
 535 000b 01       		.uleb128 0x1
 536 000c DC030000 		.4byte	.LASF183
 537 0010 01       		.byte	0x1
 538 0011 23070000 		.4byte	.LASF184
 539 0015 1F010000 		.4byte	.LASF185
 540 0019 00000000 		.4byte	.Ldebug_ranges0+0
 541 001d 00000000 		.4byte	0
 542 0021 00000000 		.4byte	.Ldebug_line0
 543 0025 02       		.uleb128 0x2
 544 0026 04       		.byte	0x4
ARM GAS  C:\Users\jo\AppData\Local\Temp\ccRoOONZ.s 			page 12


 545 0027 05       		.byte	0x5
 546 0028 696E7400 		.ascii	"int\000"
 547 002c 03       		.uleb128 0x3
 548 002d 1D000000 		.4byte	.LASF2
 549 0031 03       		.byte	0x3
 550 0032 D4       		.byte	0xd4
 551 0033 37000000 		.4byte	0x37
 552 0037 04       		.uleb128 0x4
 553 0038 04       		.byte	0x4
 554 0039 07       		.byte	0x7
 555 003a CA020000 		.4byte	.LASF0
 556 003e 04       		.uleb128 0x4
 557 003f 01       		.byte	0x1
 558 0040 06       		.byte	0x6
 559 0041 83010000 		.4byte	.LASF1
 560 0045 03       		.uleb128 0x3
 561 0046 40000000 		.4byte	.LASF3
 562 004a 04       		.byte	0x4
 563 004b 1D       		.byte	0x1d
 564 004c 50000000 		.4byte	0x50
 565 0050 04       		.uleb128 0x4
 566 0051 01       		.byte	0x1
 567 0052 08       		.byte	0x8
 568 0053 1B060000 		.4byte	.LASF4
 569 0057 03       		.uleb128 0x3
 570 0058 51020000 		.4byte	.LASF5
 571 005c 04       		.byte	0x4
 572 005d 29       		.byte	0x29
 573 005e 62000000 		.4byte	0x62
 574 0062 04       		.uleb128 0x4
 575 0063 02       		.byte	0x2
 576 0064 05       		.byte	0x5
 577 0065 48060000 		.4byte	.LASF6
 578 0069 03       		.uleb128 0x3
 579 006a 65070000 		.4byte	.LASF7
 580 006e 04       		.byte	0x4
 581 006f 2B       		.byte	0x2b
 582 0070 74000000 		.4byte	0x74
 583 0074 04       		.uleb128 0x4
 584 0075 02       		.byte	0x2
 585 0076 07       		.byte	0x7
 586 0077 1F030000 		.4byte	.LASF8
 587 007b 03       		.uleb128 0x3
 588 007c AB030000 		.4byte	.LASF9
 589 0080 04       		.byte	0x4
 590 0081 3F       		.byte	0x3f
 591 0082 86000000 		.4byte	0x86
 592 0086 04       		.uleb128 0x4
 593 0087 04       		.byte	0x4
 594 0088 05       		.byte	0x5
 595 0089 C9010000 		.4byte	.LASF10
 596 008d 03       		.uleb128 0x3
 597 008e BD070000 		.4byte	.LASF11
 598 0092 04       		.byte	0x4
 599 0093 41       		.byte	0x41
 600 0094 98000000 		.4byte	0x98
 601 0098 04       		.uleb128 0x4
ARM GAS  C:\Users\jo\AppData\Local\Temp\ccRoOONZ.s 			page 13


 602 0099 04       		.byte	0x4
 603 009a 07       		.byte	0x7
 604 009b 8F010000 		.4byte	.LASF12
 605 009f 04       		.uleb128 0x4
 606 00a0 08       		.byte	0x8
 607 00a1 05       		.byte	0x5
 608 00a2 75010000 		.4byte	.LASF13
 609 00a6 03       		.uleb128 0x3
 610 00a7 91050000 		.4byte	.LASF14
 611 00ab 04       		.byte	0x4
 612 00ac 5B       		.byte	0x5b
 613 00ad B1000000 		.4byte	0xb1
 614 00b1 04       		.uleb128 0x4
 615 00b2 08       		.byte	0x8
 616 00b3 07       		.byte	0x7
 617 00b4 8D000000 		.4byte	.LASF15
 618 00b8 03       		.uleb128 0x3
 619 00b9 39080000 		.4byte	.LASF16
 620 00bd 05       		.byte	0x5
 621 00be 15       		.byte	0x15
 622 00bf 45000000 		.4byte	0x45
 623 00c3 03       		.uleb128 0x3
 624 00c4 6D010000 		.4byte	.LASF17
 625 00c8 05       		.byte	0x5
 626 00c9 20       		.byte	0x20
 627 00ca 57000000 		.4byte	0x57
 628 00ce 03       		.uleb128 0x3
 629 00cf F9010000 		.4byte	.LASF18
 630 00d3 05       		.byte	0x5
 631 00d4 21       		.byte	0x21
 632 00d5 69000000 		.4byte	0x69
 633 00d9 03       		.uleb128 0x3
 634 00da 13060000 		.4byte	.LASF19
 635 00de 05       		.byte	0x5
 636 00df 2C       		.byte	0x2c
 637 00e0 7B000000 		.4byte	0x7b
 638 00e4 03       		.uleb128 0x3
 639 00e5 FB070000 		.4byte	.LASF20
 640 00e9 05       		.byte	0x5
 641 00ea 2D       		.byte	0x2d
 642 00eb 8D000000 		.4byte	0x8d
 643 00ef 03       		.uleb128 0x3
 644 00f0 2F000000 		.4byte	.LASF21
 645 00f4 05       		.byte	0x5
 646 00f5 39       		.byte	0x39
 647 00f6 A6000000 		.4byte	0xa6
 648 00fa 05       		.uleb128 0x5
 649 00fb D9000000 		.4byte	0xd9
 650 00ff 03       		.uleb128 0x3
 651 0100 E6070000 		.4byte	.LASF22
 652 0104 06       		.byte	0x6
 653 0105 45       		.byte	0x45
 654 0106 E4000000 		.4byte	0xe4
 655 010a 03       		.uleb128 0x3
 656 010b 08010000 		.4byte	.LASF23
 657 010f 06       		.byte	0x6
 658 0110 46       		.byte	0x46
ARM GAS  C:\Users\jo\AppData\Local\Temp\ccRoOONZ.s 			page 14


 659 0111 EF000000 		.4byte	0xef
 660 0115 03       		.uleb128 0x3
 661 0116 7E030000 		.4byte	.LASF24
 662 011a 06       		.byte	0x6
 663 011b 48       		.byte	0x48
 664 011c B8000000 		.4byte	0xb8
 665 0120 03       		.uleb128 0x3
 666 0121 D2010000 		.4byte	.LASF25
 667 0125 06       		.byte	0x6
 668 0126 49       		.byte	0x49
 669 0127 B8000000 		.4byte	0xb8
 670 012b 03       		.uleb128 0x3
 671 012c 00000000 		.4byte	.LASF26
 672 0130 06       		.byte	0x6
 673 0131 4A       		.byte	0x4a
 674 0132 B8000000 		.4byte	0xb8
 675 0136 03       		.uleb128 0x3
 676 0137 EF050000 		.4byte	.LASF27
 677 013b 06       		.byte	0x6
 678 013c 4C       		.byte	0x4c
 679 013d E4000000 		.4byte	0xe4
 680 0141 03       		.uleb128 0x3
 681 0142 60030000 		.4byte	.LASF28
 682 0146 06       		.byte	0x6
 683 0147 4D       		.byte	0x4d
 684 0148 D9000000 		.4byte	0xd9
 685 014c 03       		.uleb128 0x3
 686 014d 9F030000 		.4byte	.LASF29
 687 0151 06       		.byte	0x6
 688 0152 4F       		.byte	0x4f
 689 0153 E4000000 		.4byte	0xe4
 690 0157 03       		.uleb128 0x3
 691 0158 B1020000 		.4byte	.LASF30
 692 015c 06       		.byte	0x6
 693 015d 51       		.byte	0x51
 694 015e D9000000 		.4byte	0xd9
 695 0162 03       		.uleb128 0x3
 696 0163 6B030000 		.4byte	.LASF31
 697 0167 06       		.byte	0x6
 698 0168 52       		.byte	0x52
 699 0169 E4000000 		.4byte	0xe4
 700 016d 03       		.uleb128 0x3
 701 016e 9F070000 		.4byte	.LASF32
 702 0172 07       		.byte	0x7
 703 0173 33       		.byte	0x33
 704 0174 E4000000 		.4byte	0xe4
 705 0178 03       		.uleb128 0x3
 706 0179 8A070000 		.4byte	.LASF33
 707 017d 07       		.byte	0x7
 708 017e 3F       		.byte	0x3f
 709 017f 83010000 		.4byte	0x183
 710 0183 06       		.uleb128 0x6
 711 0184 41030000 		.4byte	.LASF54
 712 0188 60       		.byte	0x60
 713 0189 08       		.byte	0x8
 714 018a BE       		.byte	0xbe
 715 018b 89020000 		.4byte	0x289
ARM GAS  C:\Users\jo\AppData\Local\Temp\ccRoOONZ.s 			page 15


 716 018f 07       		.uleb128 0x7
 717 0190 6D060000 		.4byte	.LASF34
 718 0194 08       		.byte	0x8
 719 0195 BF       		.byte	0xbf
 720 0196 F3050000 		.4byte	0x5f3
 721 019a 00       		.byte	0
 722 019b 07       		.uleb128 0x7
 723 019c E8050000 		.4byte	.LASF35
 724 01a0 08       		.byte	0x8
 725 01a1 C1       		.byte	0xc1
 726 01a2 F3050000 		.4byte	0x5f3
 727 01a6 04       		.byte	0x4
 728 01a7 07       		.uleb128 0x7
 729 01a8 18010000 		.4byte	.LASF36
 730 01ac 08       		.byte	0x8
 731 01ad C3       		.byte	0xc3
 732 01ae 36010000 		.4byte	0x136
 733 01b2 08       		.byte	0x8
 734 01b3 07       		.uleb128 0x7
 735 01b4 A2080000 		.4byte	.LASF37
 736 01b8 08       		.byte	0x8
 737 01b9 C4       		.byte	0xc4
 738 01ba EC040000 		.4byte	0x4ec
 739 01be 0C       		.byte	0xc
 740 01bf 07       		.uleb128 0x7
 741 01c0 0F020000 		.4byte	.LASF38
 742 01c4 08       		.byte	0x8
 743 01c5 C6       		.byte	0xc6
 744 01c6 F3050000 		.4byte	0x5f3
 745 01ca 10       		.byte	0x10
 746 01cb 07       		.uleb128 0x7
 747 01cc 3D050000 		.4byte	.LASF39
 748 01d0 08       		.byte	0x8
 749 01d1 C7       		.byte	0xc7
 750 01d2 F3050000 		.4byte	0x5f3
 751 01d6 14       		.byte	0x14
 752 01d7 07       		.uleb128 0x7
 753 01d8 FD050000 		.4byte	.LASF40
 754 01dc 08       		.byte	0x8
 755 01dd CE       		.byte	0xce
 756 01de AF050000 		.4byte	0x5af
 757 01e2 18       		.byte	0x18
 758 01e3 07       		.uleb128 0x7
 759 01e4 BF020000 		.4byte	.LASF41
 760 01e8 08       		.byte	0x8
 761 01e9 D4       		.byte	0xd4
 762 01ea 3D070000 		.4byte	0x73d
 763 01ee 1C       		.byte	0x1c
 764 01ef 07       		.uleb128 0x7
 765 01f0 52060000 		.4byte	.LASF42
 766 01f4 08       		.byte	0x8
 767 01f5 D9       		.byte	0xd9
 768 01f6 20010000 		.4byte	0x120
 769 01fa 20       		.byte	0x20
 770 01fb 07       		.uleb128 0x7
 771 01fc 7A060000 		.4byte	.LASF43
 772 0200 08       		.byte	0x8
ARM GAS  C:\Users\jo\AppData\Local\Temp\ccRoOONZ.s 			page 16


 773 0201 DD       		.byte	0xdd
 774 0202 15010000 		.4byte	0x115
 775 0206 21       		.byte	0x21
 776 0207 07       		.uleb128 0x7
 777 0208 E5010000 		.4byte	.LASF44
 778 020c 08       		.byte	0x8
 779 020d E2       		.byte	0xe2
 780 020e 2B010000 		.4byte	0x12b
 781 0212 22       		.byte	0x22
 782 0213 08       		.uleb128 0x8
 783 0214 705F7500 		.ascii	"p_u\000"
 784 0218 08       		.byte	0x8
 785 0219 1401     		.2byte	0x114
 786 021b 05070000 		.4byte	0x705
 787 021f 24       		.byte	0x24
 788 0220 09       		.uleb128 0x9
 789 0221 C5040000 		.4byte	.LASF45
 790 0225 08       		.byte	0x8
 791 0226 1901     		.2byte	0x119
 792 0228 89020000 		.4byte	0x289
 793 022c 28       		.byte	0x28
 794 022d 09       		.uleb128 0x9
 795 022e E9020000 		.4byte	.LASF46
 796 0232 08       		.byte	0x8
 797 0233 1F01     		.2byte	0x11f
 798 0235 AD020000 		.4byte	0x2ad
 799 0239 2C       		.byte	0x2c
 800 023a 09       		.uleb128 0x9
 801 023b 7F080000 		.4byte	.LASF47
 802 023f 08       		.byte	0x8
 803 0240 2301     		.2byte	0x123
 804 0242 41010000 		.4byte	0x141
 805 0246 34       		.byte	0x34
 806 0247 09       		.uleb128 0x9
 807 0248 BB060000 		.4byte	.LASF48
 808 024c 08       		.byte	0x8
 809 024d 2901     		.2byte	0x129
 810 024f 4C010000 		.4byte	0x14c
 811 0253 38       		.byte	0x38
 812 0254 09       		.uleb128 0x9
 813 0255 3E060000 		.4byte	.LASF49
 814 0259 08       		.byte	0x8
 815 025a 3001     		.2byte	0x130
 816 025c 74070000 		.4byte	0x774
 817 0260 3C       		.byte	0x3c
 818 0261 09       		.uleb128 0x9
 819 0262 A9070000 		.4byte	.LASF50
 820 0266 08       		.byte	0x8
 821 0267 3401     		.2byte	0x134
 822 0269 36010000 		.4byte	0x136
 823 026d 40       		.byte	0x40
 824 026e 09       		.uleb128 0x9
 825 026f A1010000 		.4byte	.LASF51
 826 0273 08       		.byte	0x8
 827 0274 3A01     		.2byte	0x13a
 828 0276 60030000 		.4byte	0x360
 829 027a 44       		.byte	0x44
ARM GAS  C:\Users\jo\AppData\Local\Temp\ccRoOONZ.s 			page 17


 830 027b 09       		.uleb128 0x9
 831 027c 82060000 		.4byte	.LASF52
 832 0280 08       		.byte	0x8
 833 0281 4001     		.2byte	0x140
 834 0283 B6060000 		.4byte	0x6b6
 835 0287 48       		.byte	0x48
 836 0288 00       		.byte	0
 837 0289 03       		.uleb128 0x3
 838 028a 57080000 		.4byte	.LASF53
 839 028e 07       		.byte	0x7
 840 028f 44       		.byte	0x44
 841 0290 94020000 		.4byte	0x294
 842 0294 06       		.uleb128 0x6
 843 0295 00070000 		.4byte	.LASF55
 844 0299 04       		.byte	0x4
 845 029a 08       		.byte	0x8
 846 029b AC       		.byte	0xac
 847 029c AD020000 		.4byte	0x2ad
 848 02a0 07       		.uleb128 0x7
 849 02a1 6D060000 		.4byte	.LASF34
 850 02a5 08       		.byte	0x8
 851 02a6 AD       		.byte	0xad
 852 02a7 F3050000 		.4byte	0x5f3
 853 02ab 00       		.byte	0
 854 02ac 00       		.byte	0
 855 02ad 03       		.uleb128 0x3
 856 02ae 0D080000 		.4byte	.LASF56
 857 02b2 07       		.byte	0x7
 858 02b3 4B       		.byte	0x4b
 859 02b4 B8020000 		.4byte	0x2b8
 860 02b8 06       		.uleb128 0x6
 861 02b9 B0080000 		.4byte	.LASF57
 862 02bd 08       		.byte	0x8
 863 02be 08       		.byte	0x8
 864 02bf B3       		.byte	0xb3
 865 02c0 DD020000 		.4byte	0x2dd
 866 02c4 07       		.uleb128 0x7
 867 02c5 6D060000 		.4byte	.LASF34
 868 02c9 08       		.byte	0x8
 869 02ca B4       		.byte	0xb4
 870 02cb F3050000 		.4byte	0x5f3
 871 02cf 00       		.byte	0
 872 02d0 07       		.uleb128 0x7
 873 02d1 E8050000 		.4byte	.LASF35
 874 02d5 08       		.byte	0x8
 875 02d6 B5       		.byte	0xb5
 876 02d7 F3050000 		.4byte	0x5f3
 877 02db 04       		.byte	0x4
 878 02dc 00       		.byte	0
 879 02dd 03       		.uleb128 0x3
 880 02de 08000000 		.4byte	.LASF58
 881 02e2 07       		.byte	0x7
 882 02e3 52       		.byte	0x52
 883 02e4 E8020000 		.4byte	0x2e8
 884 02e8 0A       		.uleb128 0xa
 885 02e9 91030000 		.4byte	.LASF59
 886 02ed 1C       		.byte	0x1c
ARM GAS  C:\Users\jo\AppData\Local\Temp\ccRoOONZ.s 			page 18


 887 02ee 08       		.byte	0x8
 888 02ef 7201     		.2byte	0x172
 889 02f1 44030000 		.4byte	0x344
 890 02f5 09       		.uleb128 0x9
 891 02f6 EF060000 		.4byte	.LASF60
 892 02fa 08       		.byte	0x8
 893 02fb 7301     		.2byte	0x173
 894 02fd AD020000 		.4byte	0x2ad
 895 0301 00       		.byte	0
 896 0302 09       		.uleb128 0x9
 897 0303 5A060000 		.4byte	.LASF61
 898 0307 08       		.byte	0x8
 899 0308 7401     		.2byte	0x174
 900 030a 36010000 		.4byte	0x136
 901 030e 08       		.byte	0x8
 902 030f 09       		.uleb128 0x9
 903 0310 45050000 		.4byte	.LASF62
 904 0314 08       		.byte	0x8
 905 0315 7601     		.2byte	0x176
 906 0317 EC040000 		.4byte	0x4ec
 907 031b 0C       		.byte	0xc
 908 031c 09       		.uleb128 0x9
 909 031d 1F020000 		.4byte	.LASF63
 910 0321 08       		.byte	0x8
 911 0322 7901     		.2byte	0x179
 912 0324 F3050000 		.4byte	0x5f3
 913 0328 10       		.byte	0x10
 914 0329 09       		.uleb128 0x9
 915 032a 7D050000 		.4byte	.LASF64
 916 032e 08       		.byte	0x8
 917 032f 7A01     		.2byte	0x17a
 918 0331 F3050000 		.4byte	0x5f3
 919 0335 14       		.byte	0x14
 920 0336 09       		.uleb128 0x9
 921 0337 73050000 		.4byte	.LASF65
 922 033b 08       		.byte	0x8
 923 033c 7D01     		.2byte	0x17d
 924 033e F3050000 		.4byte	0x5f3
 925 0342 18       		.byte	0x18
 926 0343 00       		.byte	0
 927 0344 03       		.uleb128 0x3
 928 0345 B4070000 		.4byte	.LASF66
 929 0349 07       		.byte	0x7
 930 034a 57       		.byte	0x57
 931 034b 4F030000 		.4byte	0x34f
 932 034f 0B       		.uleb128 0xb
 933 0350 04       		.byte	0x4
 934 0351 55030000 		.4byte	0x355
 935 0355 0C       		.uleb128 0xc
 936 0356 60030000 		.4byte	0x360
 937 035a 0D       		.uleb128 0xd
 938 035b 60030000 		.4byte	0x360
 939 035f 00       		.byte	0
 940 0360 0E       		.uleb128 0xe
 941 0361 04       		.byte	0x4
 942 0362 03       		.uleb128 0x3
 943 0363 D8050000 		.4byte	.LASF67
ARM GAS  C:\Users\jo\AppData\Local\Temp\ccRoOONZ.s 			page 19


 944 0367 07       		.byte	0x7
 945 0368 5C       		.byte	0x5c
 946 0369 6D030000 		.4byte	0x36d
 947 036d 0A       		.uleb128 0xa
 948 036e 9B060000 		.4byte	.LASF68
 949 0372 14       		.byte	0x14
 950 0373 08       		.byte	0x8
 951 0374 4D01     		.2byte	0x14d
 952 0376 BC030000 		.4byte	0x3bc
 953 037a 09       		.uleb128 0x9
 954 037b D7020000 		.4byte	.LASF69
 955 037f 08       		.byte	0x8
 956 0380 4E01     		.2byte	0x14e
 957 0382 7A070000 		.4byte	0x77a
 958 0386 00       		.byte	0
 959 0387 09       		.uleb128 0x9
 960 0388 44020000 		.4byte	.LASF70
 961 038c 08       		.byte	0x8
 962 038d 4F01     		.2byte	0x14f
 963 038f 7A070000 		.4byte	0x77a
 964 0393 04       		.byte	0x4
 965 0394 09       		.uleb128 0x9
 966 0395 F7060000 		.4byte	.LASF71
 967 0399 08       		.byte	0x8
 968 039a 5001     		.2byte	0x150
 969 039c 6D010000 		.4byte	0x16d
 970 03a0 08       		.byte	0x8
 971 03a1 09       		.uleb128 0x9
 972 03a2 A8080000 		.4byte	.LASF72
 973 03a6 08       		.byte	0x8
 974 03a7 5101     		.2byte	0x151
 975 03a9 44030000 		.4byte	0x344
 976 03ad 0C       		.byte	0xc
 977 03ae 09       		.uleb128 0x9
 978 03af EE070000 		.4byte	.LASF73
 979 03b3 08       		.byte	0x8
 980 03b4 5301     		.2byte	0x153
 981 03b6 60030000 		.4byte	0x360
 982 03ba 10       		.byte	0x10
 983 03bb 00       		.byte	0
 984 03bc 03       		.uleb128 0x3
 985 03bd E9000000 		.4byte	.LASF74
 986 03c1 07       		.byte	0x7
 987 03c2 61       		.byte	0x61
 988 03c3 C7030000 		.4byte	0x3c7
 989 03c7 0A       		.uleb128 0xa
 990 03c8 D8040000 		.4byte	.LASF75
 991 03cc 10       		.byte	0x10
 992 03cd 08       		.byte	0x8
 993 03ce 5D01     		.2byte	0x15d
 994 03d0 09040000 		.4byte	0x409
 995 03d4 09       		.uleb128 0x9
 996 03d5 D7020000 		.4byte	.LASF69
 997 03d9 08       		.byte	0x8
 998 03da 5E01     		.2byte	0x15e
 999 03dc 7A070000 		.4byte	0x77a
 1000 03e0 00       		.byte	0
ARM GAS  C:\Users\jo\AppData\Local\Temp\ccRoOONZ.s 			page 20


 1001 03e1 09       		.uleb128 0x9
 1002 03e2 44020000 		.4byte	.LASF70
 1003 03e6 08       		.byte	0x8
 1004 03e7 6001     		.2byte	0x160
 1005 03e9 7A070000 		.4byte	0x77a
 1006 03ed 04       		.byte	0x4
 1007 03ee 09       		.uleb128 0x9
 1008 03ef F7060000 		.4byte	.LASF71
 1009 03f3 08       		.byte	0x8
 1010 03f4 6201     		.2byte	0x162
 1011 03f6 6D010000 		.4byte	0x16d
 1012 03fa 08       		.byte	0x8
 1013 03fb 09       		.uleb128 0x9
 1014 03fc 14050000 		.4byte	.LASF76
 1015 0400 08       		.byte	0x8
 1016 0401 6A01     		.2byte	0x16a
 1017 0403 6D010000 		.4byte	0x16d
 1018 0407 0C       		.byte	0xc
 1019 0408 00       		.byte	0
 1020 0409 03       		.uleb128 0x3
 1021 040a 5E000000 		.4byte	.LASF77
 1022 040e 07       		.byte	0x7
 1023 040f 66       		.byte	0x66
 1024 0410 14040000 		.4byte	0x414
 1025 0414 0F       		.uleb128 0xf
 1026 0415 5B020000 		.4byte	.LASF78
 1027 0419 1404     		.2byte	0x414
 1028 041b 08       		.byte	0x8
 1029 041c 8401     		.2byte	0x184
 1030 041e 57040000 		.4byte	0x457
 1031 0422 09       		.uleb128 0x9
 1032 0423 C8070000 		.4byte	.LASF79
 1033 0427 08       		.byte	0x8
 1034 0428 8C01     		.2byte	0x18c
 1035 042a 80070000 		.4byte	0x780
 1036 042e 00       		.byte	0
 1037 042f 09       		.uleb128 0x9
 1038 0430 2B080000 		.4byte	.LASF80
 1039 0434 08       		.byte	0x8
 1040 0435 9101     		.2byte	0x191
 1041 0437 57010000 		.4byte	0x157
 1042 043b 04       		.byte	0x4
 1043 043c 09       		.uleb128 0x9
 1044 043d 6A050000 		.4byte	.LASF81
 1045 0441 08       		.byte	0x8
 1046 0442 9501     		.2byte	0x195
 1047 0444 57010000 		.4byte	0x157
 1048 0448 08       		.byte	0x8
 1049 0449 09       		.uleb128 0x9
 1050 044a 66080000 		.4byte	.LASF82
 1051 044e 08       		.byte	0x8
 1052 044f 9B01     		.2byte	0x19b
 1053 0451 48060000 		.4byte	0x648
 1054 0455 0C       		.byte	0xc
 1055 0456 00       		.byte	0
 1056 0457 03       		.uleb128 0x3
 1057 0458 72030000 		.4byte	.LASF83
ARM GAS  C:\Users\jo\AppData\Local\Temp\ccRoOONZ.s 			page 21


 1058 045c 07       		.byte	0x7
 1059 045d 6B       		.byte	0x6b
 1060 045e 62040000 		.4byte	0x462
 1061 0462 0F       		.uleb128 0xf
 1062 0463 BF010000 		.4byte	.LASF84
 1063 0467 D805     		.2byte	0x5d8
 1064 0469 08       		.byte	0x8
 1065 046a A401     		.2byte	0x1a4
 1066 046c CF040000 		.4byte	0x4cf
 1067 0470 09       		.uleb128 0x9
 1068 0471 33080000 		.4byte	.LASF85
 1069 0475 08       		.byte	0x8
 1070 0476 A801     		.2byte	0x1a8
 1071 0478 DD020000 		.4byte	0x2dd
 1072 047c 00       		.byte	0
 1073 047d 09       		.uleb128 0x9
 1074 047e A9010000 		.4byte	.LASF86
 1075 0482 08       		.byte	0x8
 1076 0483 AC01     		.2byte	0x1ac
 1077 0485 BC030000 		.4byte	0x3bc
 1078 0489 1C       		.byte	0x1c
 1079 048a 08       		.uleb128 0x8
 1080 048b 64626700 		.ascii	"dbg\000"
 1081 048f 08       		.byte	0x8
 1082 0490 B001     		.2byte	0x1b0
 1083 0492 09040000 		.4byte	0x409
 1084 0496 2C       		.byte	0x2c
 1085 0497 10       		.uleb128 0x10
 1086 0498 8A060000 		.4byte	.LASF87
 1087 049c 08       		.byte	0x8
 1088 049d B401     		.2byte	0x1b4
 1089 049f 78010000 		.4byte	0x178
 1090 04a3 4004     		.2byte	0x440
 1091 04a5 11       		.uleb128 0x11
 1092 04a6 746D00   		.ascii	"tm\000"
 1093 04a9 08       		.byte	0x8
 1094 04aa B901     		.2byte	0x1b9
 1095 04ac 68060000 		.4byte	0x668
 1096 04b0 A004     		.2byte	0x4a0
 1097 04b2 10       		.uleb128 0x10
 1098 04b3 B7050000 		.4byte	.LASF88
 1099 04b7 08       		.byte	0x8
 1100 04b8 BF01     		.2byte	0x1bf
 1101 04ba FA060000 		.4byte	0x6fa
 1102 04be A804     		.2byte	0x4a8
 1103 04c0 10       		.uleb128 0x10
 1104 04c1 A2020000 		.4byte	.LASF89
 1105 04c5 08       		.byte	0x8
 1106 04c6 C501     		.2byte	0x1c5
 1107 04c8 85070000 		.4byte	0x785
 1108 04cc E004     		.2byte	0x4e0
 1109 04ce 00       		.byte	0
 1110 04cf 04       		.uleb128 0x4
 1111 04d0 04       		.byte	0x4
 1112 04d1 07       		.byte	0x7
 1113 04d2 CF040000 		.4byte	.LASF90
 1114 04d6 03       		.uleb128 0x3
ARM GAS  C:\Users\jo\AppData\Local\Temp\ccRoOONZ.s 			page 22


 1115 04d7 3B020000 		.4byte	.LASF91
 1116 04db 09       		.byte	0x9
 1117 04dc 85       		.byte	0x85
 1118 04dd 60030000 		.4byte	0x360
 1119 04e1 03       		.uleb128 0x3
 1120 04e2 D1030000 		.4byte	.LASF92
 1121 04e6 09       		.byte	0x9
 1122 04e7 8D       		.byte	0x8d
 1123 04e8 EF000000 		.4byte	0xef
 1124 04ec 06       		.uleb128 0x6
 1125 04ed DE070000 		.4byte	.LASF93
 1126 04f1 04       		.byte	0x4
 1127 04f2 09       		.byte	0x9
 1128 04f3 A9       		.byte	0xa9
 1129 04f4 05050000 		.4byte	0x505
 1130 04f8 12       		.uleb128 0x12
 1131 04f9 72313300 		.ascii	"r13\000"
 1132 04fd 09       		.byte	0x9
 1133 04fe AA       		.byte	0xaa
 1134 04ff 80050000 		.4byte	0x580
 1135 0503 00       		.byte	0
 1136 0504 00       		.byte	0
 1137 0505 06       		.uleb128 0x6
 1138 0506 4A000000 		.4byte	.LASF94
 1139 050a 24       		.byte	0x24
 1140 050b 0A       		.byte	0xa
 1141 050c F4       		.byte	0xf4
 1142 050d 80050000 		.4byte	0x580
 1143 0511 08       		.uleb128 0x8
 1144 0512 723400   		.ascii	"r4\000"
 1145 0515 0A       		.byte	0xa
 1146 0516 0701     		.2byte	0x107
 1147 0518 D6040000 		.4byte	0x4d6
 1148 051c 00       		.byte	0
 1149 051d 08       		.uleb128 0x8
 1150 051e 723500   		.ascii	"r5\000"
 1151 0521 0A       		.byte	0xa
 1152 0522 0801     		.2byte	0x108
 1153 0524 D6040000 		.4byte	0x4d6
 1154 0528 04       		.byte	0x4
 1155 0529 08       		.uleb128 0x8
 1156 052a 723600   		.ascii	"r6\000"
 1157 052d 0A       		.byte	0xa
 1158 052e 0901     		.2byte	0x109
 1159 0530 D6040000 		.4byte	0x4d6
 1160 0534 08       		.byte	0x8
 1161 0535 08       		.uleb128 0x8
 1162 0536 723700   		.ascii	"r7\000"
 1163 0539 0A       		.byte	0xa
 1164 053a 0A01     		.2byte	0x10a
 1165 053c D6040000 		.4byte	0x4d6
 1166 0540 0C       		.byte	0xc
 1167 0541 08       		.uleb128 0x8
 1168 0542 723800   		.ascii	"r8\000"
 1169 0545 0A       		.byte	0xa
 1170 0546 0B01     		.2byte	0x10b
 1171 0548 D6040000 		.4byte	0x4d6
ARM GAS  C:\Users\jo\AppData\Local\Temp\ccRoOONZ.s 			page 23


 1172 054c 10       		.byte	0x10
 1173 054d 08       		.uleb128 0x8
 1174 054e 723900   		.ascii	"r9\000"
 1175 0551 0A       		.byte	0xa
 1176 0552 0C01     		.2byte	0x10c
 1177 0554 D6040000 		.4byte	0x4d6
 1178 0558 14       		.byte	0x14
 1179 0559 08       		.uleb128 0x8
 1180 055a 72313000 		.ascii	"r10\000"
 1181 055e 0A       		.byte	0xa
 1182 055f 0D01     		.2byte	0x10d
 1183 0561 D6040000 		.4byte	0x4d6
 1184 0565 18       		.byte	0x18
 1185 0566 08       		.uleb128 0x8
 1186 0567 72313100 		.ascii	"r11\000"
 1187 056b 0A       		.byte	0xa
 1188 056c 0E01     		.2byte	0x10e
 1189 056e D6040000 		.4byte	0x4d6
 1190 0572 1C       		.byte	0x1c
 1191 0573 08       		.uleb128 0x8
 1192 0574 6C7200   		.ascii	"lr\000"
 1193 0577 0A       		.byte	0xa
 1194 0578 0F01     		.2byte	0x10f
 1195 057a D6040000 		.4byte	0x4d6
 1196 057e 20       		.byte	0x20
 1197 057f 00       		.byte	0
 1198 0580 0B       		.uleb128 0xb
 1199 0581 04       		.byte	0x4
 1200 0582 05050000 		.4byte	0x505
 1201 0586 03       		.uleb128 0x3
 1202 0587 F6040000 		.4byte	.LASF95
 1203 058b 0B       		.byte	0xb
 1204 058c 28       		.byte	0x28
 1205 058d 91050000 		.4byte	0x591
 1206 0591 06       		.uleb128 0x6
 1207 0592 DB010000 		.4byte	.LASF96
 1208 0596 04       		.byte	0x4
 1209 0597 0C       		.byte	0xc
 1210 0598 00       		.byte	0
 1211 0599 A8050000 		.4byte	0x5a8
 1212 059d 13       		.uleb128 0x13
 1213 059e D9070000 		.4byte	.LASF119
 1214 05a2 60030000 		.4byte	0x360
 1215 05a6 00       		.byte	0
 1216 05a7 00       		.byte	0
 1217 05a8 04       		.uleb128 0x4
 1218 05a9 01       		.byte	0x1
 1219 05aa 08       		.byte	0x8
 1220 05ab 54070000 		.4byte	.LASF97
 1221 05af 0B       		.uleb128 0xb
 1222 05b0 04       		.byte	0x4
 1223 05b1 B5050000 		.4byte	0x5b5
 1224 05b5 14       		.uleb128 0x14
 1225 05b6 A8050000 		.4byte	0x5a8
 1226 05ba 15       		.uleb128 0x15
 1227 05bb 10       		.byte	0x10
 1228 05bc 0D       		.byte	0xd
ARM GAS  C:\Users\jo\AppData\Local\Temp\ccRoOONZ.s 			page 24


 1229 05bd 57       		.byte	0x57
 1230 05be F3050000 		.4byte	0x5f3
 1231 05c2 07       		.uleb128 0x7
 1232 05c3 15000000 		.4byte	.LASF98
 1233 05c7 0D       		.byte	0xd
 1234 05c8 5B       		.byte	0x5b
 1235 05c9 6D010000 		.4byte	0x16d
 1236 05cd 00       		.byte	0
 1237 05ce 07       		.uleb128 0x7
 1238 05cf EC010000 		.4byte	.LASF99
 1239 05d3 0D       		.byte	0xd
 1240 05d4 5F       		.byte	0x5f
 1241 05d5 F3050000 		.4byte	0x5f3
 1242 05d9 04       		.byte	0x4
 1243 05da 07       		.uleb128 0x7
 1244 05db 98080000 		.4byte	.LASF100
 1245 05df 0D       		.byte	0xd
 1246 05e0 63       		.byte	0x63
 1247 05e1 60030000 		.4byte	0x360
 1248 05e5 08       		.byte	0x8
 1249 05e6 07       		.uleb128 0x7
 1250 05e7 B4000000 		.4byte	.LASF101
 1251 05eb 0D       		.byte	0xd
 1252 05ec 67       		.byte	0x67
 1253 05ed B8000000 		.4byte	0xb8
 1254 05f1 0C       		.byte	0xc
 1255 05f2 00       		.byte	0
 1256 05f3 0B       		.uleb128 0xb
 1257 05f4 04       		.byte	0x4
 1258 05f5 78010000 		.4byte	0x178
 1259 05f9 03       		.uleb128 0x3
 1260 05fa 05050000 		.4byte	.LASF102
 1261 05fe 0D       		.byte	0xd
 1262 05ff 68       		.byte	0x68
 1263 0600 BA050000 		.4byte	0x5ba
 1264 0604 16       		.uleb128 0x16
 1265 0605 0804     		.2byte	0x408
 1266 0607 0D       		.byte	0xd
 1267 0608 6D       		.byte	0x6d
 1268 0609 32060000 		.4byte	0x632
 1269 060d 07       		.uleb128 0x7
 1270 060e 17020000 		.4byte	.LASF103
 1271 0612 0D       		.byte	0xd
 1272 0613 71       		.byte	0x71
 1273 0614 37000000 		.4byte	0x37
 1274 0618 00       		.byte	0
 1275 0619 07       		.uleb128 0x7
 1276 061a EF040000 		.4byte	.LASF104
 1277 061e 0D       		.byte	0xd
 1278 061f 75       		.byte	0x75
 1279 0620 32060000 		.4byte	0x632
 1280 0624 04       		.byte	0x4
 1281 0625 07       		.uleb128 0x7
 1282 0626 CE050000 		.4byte	.LASF105
 1283 062a 0D       		.byte	0xd
 1284 062b 79       		.byte	0x79
 1285 062c 38060000 		.4byte	0x638
ARM GAS  C:\Users\jo\AppData\Local\Temp\ccRoOONZ.s 			page 25


 1286 0630 08       		.byte	0x8
 1287 0631 00       		.byte	0
 1288 0632 0B       		.uleb128 0xb
 1289 0633 04       		.byte	0x4
 1290 0634 F9050000 		.4byte	0x5f9
 1291 0638 17       		.uleb128 0x17
 1292 0639 F9050000 		.4byte	0x5f9
 1293 063d 48060000 		.4byte	0x648
 1294 0641 18       		.uleb128 0x18
 1295 0642 CF040000 		.4byte	0x4cf
 1296 0646 3F       		.byte	0x3f
 1297 0647 00       		.byte	0
 1298 0648 03       		.uleb128 0x3
 1299 0649 2B050000 		.4byte	.LASF106
 1300 064d 0D       		.byte	0xd
 1301 064e 7A       		.byte	0x7a
 1302 064f 04060000 		.4byte	0x604
 1303 0653 15       		.uleb128 0x15
 1304 0654 04       		.byte	0x4
 1305 0655 0E       		.byte	0xe
 1306 0656 38       		.byte	0x38
 1307 0657 68060000 		.4byte	0x668
 1308 065b 07       		.uleb128 0x7
 1309 065c D2070000 		.4byte	.LASF107
 1310 0660 0E       		.byte	0xe
 1311 0661 3C       		.byte	0x3c
 1312 0662 FF000000 		.4byte	0xff
 1313 0666 00       		.byte	0
 1314 0667 00       		.byte	0
 1315 0668 03       		.uleb128 0x3
 1316 0669 4B050000 		.4byte	.LASF108
 1317 066d 0E       		.byte	0xe
 1318 066e 3D       		.byte	0x3d
 1319 066f 53060000 		.4byte	0x653
 1320 0673 15       		.uleb128 0x15
 1321 0674 18       		.byte	0x18
 1322 0675 0E       		.byte	0xe
 1323 0676 48       		.byte	0x48
 1324 0677 B6060000 		.4byte	0x6b6
 1325 067b 07       		.uleb128 0x7
 1326 067c 93070000 		.4byte	.LASF109
 1327 0680 0E       		.byte	0xe
 1328 0681 49       		.byte	0x49
 1329 0682 FF000000 		.4byte	0xff
 1330 0686 00       		.byte	0
 1331 0687 07       		.uleb128 0x7
 1332 0688 6D000000 		.4byte	.LASF110
 1333 068c 0E       		.byte	0xe
 1334 068d 4A       		.byte	0x4a
 1335 068e FF000000 		.4byte	0xff
 1336 0692 04       		.byte	0x4
 1337 0693 07       		.uleb128 0x7
 1338 0694 66030000 		.4byte	.LASF111
 1339 0698 0E       		.byte	0xe
 1340 0699 4B       		.byte	0x4b
 1341 069a FF000000 		.4byte	0xff
 1342 069e 08       		.byte	0x8
ARM GAS  C:\Users\jo\AppData\Local\Temp\ccRoOONZ.s 			page 26


 1343 069f 12       		.uleb128 0x12
 1344 06a0 6E00     		.ascii	"n\000"
 1345 06a2 0E       		.byte	0xe
 1346 06a3 4C       		.byte	0x4c
 1347 06a4 62010000 		.4byte	0x162
 1348 06a8 0C       		.byte	0xc
 1349 06a9 07       		.uleb128 0x7
 1350 06aa 9C050000 		.4byte	.LASF112
 1351 06ae 0E       		.byte	0xe
 1352 06af 4D       		.byte	0x4d
 1353 06b0 0A010000 		.4byte	0x10a
 1354 06b4 10       		.byte	0x10
 1355 06b5 00       		.byte	0
 1356 06b6 03       		.uleb128 0x3
 1357 06b7 73000000 		.4byte	.LASF113
 1358 06bb 0E       		.byte	0xe
 1359 06bc 4E       		.byte	0x4e
 1360 06bd 73060000 		.4byte	0x673
 1361 06c1 15       		.uleb128 0x15
 1362 06c2 38       		.byte	0x38
 1363 06c3 0F       		.byte	0xf
 1364 06c4 38       		.byte	0x38
 1365 06c5 FA060000 		.4byte	0x6fa
 1366 06c9 07       		.uleb128 0x7
 1367 06ca 07030000 		.4byte	.LASF114
 1368 06ce 0F       		.byte	0xf
 1369 06cf 39       		.byte	0x39
 1370 06d0 62010000 		.4byte	0x162
 1371 06d4 00       		.byte	0
 1372 06d5 07       		.uleb128 0x7
 1373 06d6 04060000 		.4byte	.LASF115
 1374 06da 0F       		.byte	0xf
 1375 06db 3A       		.byte	0x3a
 1376 06dc 62010000 		.4byte	0x162
 1377 06e0 04       		.byte	0x4
 1378 06e1 07       		.uleb128 0x7
 1379 06e2 85080000 		.4byte	.LASF116
 1380 06e6 0F       		.byte	0xf
 1381 06e7 3B       		.byte	0x3b
 1382 06e8 B6060000 		.4byte	0x6b6
 1383 06ec 08       		.byte	0x8
 1384 06ed 07       		.uleb128 0x7
 1385 06ee 86030000 		.4byte	.LASF117
 1386 06f2 0F       		.byte	0xf
 1387 06f3 3D       		.byte	0x3d
 1388 06f4 B6060000 		.4byte	0x6b6
 1389 06f8 20       		.byte	0x20
 1390 06f9 00       		.byte	0
 1391 06fa 03       		.uleb128 0x3
 1392 06fb 32030000 		.4byte	.LASF118
 1393 06ff 0F       		.byte	0xf
 1394 0700 3F       		.byte	0x3f
 1395 0701 C1060000 		.4byte	0x6c1
 1396 0705 19       		.uleb128 0x19
 1397 0706 04       		.byte	0x4
 1398 0707 08       		.byte	0x8
 1399 0708 F6       		.byte	0xf6
ARM GAS  C:\Users\jo\AppData\Local\Temp\ccRoOONZ.s 			page 27


 1400 0709 3D070000 		.4byte	0x73d
 1401 070d 1A       		.uleb128 0x1a
 1402 070e 1D080000 		.4byte	.LASF120
 1403 0712 08       		.byte	0x8
 1404 0713 FD       		.byte	0xfd
 1405 0714 41010000 		.4byte	0x141
 1406 0718 1B       		.uleb128 0x1b
 1407 0719 BD000000 		.4byte	.LASF121
 1408 071d 08       		.byte	0x8
 1409 071e 0401     		.2byte	0x104
 1410 0720 41010000 		.4byte	0x141
 1411 0724 1B       		.uleb128 0x1b
 1412 0725 50080000 		.4byte	.LASF122
 1413 0729 08       		.byte	0x8
 1414 072a 0B01     		.2byte	0x10b
 1415 072c 60030000 		.4byte	0x360
 1416 0730 1B       		.uleb128 0x1b
 1417 0731 66060000 		.4byte	.LASF123
 1418 0735 08       		.byte	0x8
 1419 0736 1201     		.2byte	0x112
 1420 0738 4C010000 		.4byte	0x14c
 1421 073c 00       		.byte	0
 1422 073d 0B       		.uleb128 0xb
 1423 073e 04       		.byte	0x4
 1424 073f E1040000 		.4byte	0x4e1
 1425 0743 06       		.uleb128 0x6
 1426 0744 F7050000 		.4byte	.LASF124
 1427 0748 10       		.byte	0x10
 1428 0749 10       		.byte	0x10
 1429 074a 39       		.byte	0x39
 1430 074b 74070000 		.4byte	0x774
 1431 074f 07       		.uleb128 0x7
 1432 0750 29060000 		.4byte	.LASF125
 1433 0754 10       		.byte	0x10
 1434 0755 3A       		.byte	0x3a
 1435 0756 AD020000 		.4byte	0x2ad
 1436 075a 00       		.byte	0
 1437 075b 07       		.uleb128 0x7
 1438 075c 90080000 		.4byte	.LASF126
 1439 0760 10       		.byte	0x10
 1440 0761 3C       		.byte	0x3c
 1441 0762 F3050000 		.4byte	0x5f3
 1442 0766 08       		.byte	0x8
 1443 0767 07       		.uleb128 0x7
 1444 0768 98070000 		.4byte	.LASF127
 1445 076c 10       		.byte	0x10
 1446 076d 3E       		.byte	0x3e
 1447 076e B5070000 		.4byte	0x7b5
 1448 0772 0C       		.byte	0xc
 1449 0773 00       		.byte	0
 1450 0774 0B       		.uleb128 0xb
 1451 0775 04       		.byte	0x4
 1452 0776 43070000 		.4byte	0x743
 1453 077a 0B       		.uleb128 0xb
 1454 077b 04       		.byte	0x4
 1455 077c 62030000 		.4byte	0x362
 1456 0780 05       		.uleb128 0x5
ARM GAS  C:\Users\jo\AppData\Local\Temp\ccRoOONZ.s 			page 28


 1457 0781 AF050000 		.4byte	0x5af
 1458 0785 17       		.uleb128 0x17
 1459 0786 E1040000 		.4byte	0x4e1
 1460 078a 95070000 		.4byte	0x795
 1461 078e 18       		.uleb128 0x18
 1462 078f CF040000 		.4byte	0x4cf
 1463 0793 1E       		.byte	0x1e
 1464 0794 00       		.byte	0
 1465 0795 0B       		.uleb128 0xb
 1466 0796 04       		.byte	0x4
 1467 0797 9B070000 		.4byte	0x79b
 1468 079b 1C       		.uleb128 0x1c
 1469 079c 41010000 		.4byte	0x141
 1470 07a0 AA070000 		.4byte	0x7aa
 1471 07a4 0D       		.uleb128 0xd
 1472 07a5 60030000 		.4byte	0x360
 1473 07a9 00       		.byte	0
 1474 07aa 03       		.uleb128 0x3
 1475 07ab 71020000 		.4byte	.LASF128
 1476 07af 10       		.byte	0x10
 1477 07b0 34       		.byte	0x34
 1478 07b1 43070000 		.4byte	0x743
 1479 07b5 0B       		.uleb128 0xb
 1480 07b6 04       		.byte	0x4
 1481 07b7 AA070000 		.4byte	0x7aa
 1482 07bb 0B       		.uleb128 0xb
 1483 07bc 04       		.byte	0x4
 1484 07bd B8000000 		.4byte	0xb8
 1485 07c1 06       		.uleb128 0x6
 1486 07c2 D7060000 		.4byte	.LASF129
 1487 07c6 10       		.byte	0x10
 1488 07c7 11       		.byte	0x11
 1489 07c8 40       		.byte	0x40
 1490 07c9 FE070000 		.4byte	0x7fe
 1491 07cd 07       		.uleb128 0x7
 1492 07ce B6040000 		.4byte	.LASF130
 1493 07d2 11       		.byte	0x11
 1494 07d3 41       		.byte	0x41
 1495 07d4 22080000 		.4byte	0x822
 1496 07d8 00       		.byte	0
 1497 07d9 07       		.uleb128 0x7
 1498 07da 4F070000 		.4byte	.LASF131
 1499 07de 11       		.byte	0x11
 1500 07df 41       		.byte	0x41
 1501 07e0 41080000 		.4byte	0x841
 1502 07e4 04       		.byte	0x4
 1503 07e5 12       		.uleb128 0x12
 1504 07e6 70757400 		.ascii	"put\000"
 1505 07ea 11       		.byte	0x11
 1506 07eb 41       		.byte	0x41
 1507 07ec 5B080000 		.4byte	0x85b
 1508 07f0 08       		.byte	0x8
 1509 07f1 12       		.uleb128 0x12
 1510 07f2 67657400 		.ascii	"get\000"
 1511 07f6 11       		.byte	0x11
 1512 07f7 41       		.byte	0x41
 1513 07f8 95070000 		.4byte	0x795
ARM GAS  C:\Users\jo\AppData\Local\Temp\ccRoOONZ.s 			page 29


 1514 07fc 0C       		.byte	0xc
 1515 07fd 00       		.byte	0
 1516 07fe 1C       		.uleb128 0x1c
 1517 07ff 2C000000 		.4byte	0x2c
 1518 0803 17080000 		.4byte	0x817
 1519 0807 0D       		.uleb128 0xd
 1520 0808 60030000 		.4byte	0x360
 1521 080c 0D       		.uleb128 0xd
 1522 080d 17080000 		.4byte	0x817
 1523 0811 0D       		.uleb128 0xd
 1524 0812 2C000000 		.4byte	0x2c
 1525 0816 00       		.byte	0
 1526 0817 0B       		.uleb128 0xb
 1527 0818 04       		.byte	0x4
 1528 0819 1D080000 		.4byte	0x81d
 1529 081d 14       		.uleb128 0x14
 1530 081e B8000000 		.4byte	0xb8
 1531 0822 0B       		.uleb128 0xb
 1532 0823 04       		.byte	0x4
 1533 0824 FE070000 		.4byte	0x7fe
 1534 0828 1C       		.uleb128 0x1c
 1535 0829 2C000000 		.4byte	0x2c
 1536 082d 41080000 		.4byte	0x841
 1537 0831 0D       		.uleb128 0xd
 1538 0832 60030000 		.4byte	0x360
 1539 0836 0D       		.uleb128 0xd
 1540 0837 BB070000 		.4byte	0x7bb
 1541 083b 0D       		.uleb128 0xd
 1542 083c 2C000000 		.4byte	0x2c
 1543 0840 00       		.byte	0
 1544 0841 0B       		.uleb128 0xb
 1545 0842 04       		.byte	0x4
 1546 0843 28080000 		.4byte	0x828
 1547 0847 1C       		.uleb128 0x1c
 1548 0848 41010000 		.4byte	0x141
 1549 084c 5B080000 		.4byte	0x85b
 1550 0850 0D       		.uleb128 0xd
 1551 0851 60030000 		.4byte	0x360
 1552 0855 0D       		.uleb128 0xd
 1553 0856 B8000000 		.4byte	0xb8
 1554 085a 00       		.byte	0
 1555 085b 0B       		.uleb128 0xb
 1556 085c 04       		.byte	0x4
 1557 085d 47080000 		.4byte	0x847
 1558 0861 15       		.uleb128 0x15
 1559 0862 04       		.byte	0x4
 1560 0863 11       		.byte	0x11
 1561 0864 49       		.byte	0x49
 1562 0865 76080000 		.4byte	0x876
 1563 0869 12       		.uleb128 0x12
 1564 086a 766D7400 		.ascii	"vmt\000"
 1565 086e 11       		.byte	0x11
 1566 086f 4B       		.byte	0x4b
 1567 0870 76080000 		.4byte	0x876
 1568 0874 00       		.byte	0
 1569 0875 00       		.byte	0
 1570 0876 0B       		.uleb128 0xb
ARM GAS  C:\Users\jo\AppData\Local\Temp\ccRoOONZ.s 			page 30


 1571 0877 04       		.byte	0x4
 1572 0878 7C080000 		.4byte	0x87c
 1573 087c 14       		.uleb128 0x14
 1574 087d C1070000 		.4byte	0x7c1
 1575 0881 03       		.uleb128 0x3
 1576 0882 8D020000 		.4byte	.LASF132
 1577 0886 11       		.byte	0x11
 1578 0887 4D       		.byte	0x4d
 1579 0888 61080000 		.4byte	0x861
 1580 088c 04       		.uleb128 0x4
 1581 088d 01       		.byte	0x1
 1582 088e 02       		.byte	0x2
 1583 088f 0D060000 		.4byte	.LASF133
 1584 0893 06       		.uleb128 0x6
 1585 0894 70070000 		.4byte	.LASF134
 1586 0898 10       		.byte	0x10
 1587 0899 12       		.byte	0x12
 1588 089a 2E       		.byte	0x2e
 1589 089b D0080000 		.4byte	0x8d0
 1590 089f 07       		.uleb128 0x7
 1591 08a0 B6040000 		.4byte	.LASF130
 1592 08a4 12       		.byte	0x12
 1593 08a5 2F       		.byte	0x2f
 1594 08a6 22080000 		.4byte	0x822
 1595 08aa 00       		.byte	0
 1596 08ab 07       		.uleb128 0x7
 1597 08ac 4F070000 		.4byte	.LASF131
 1598 08b0 12       		.byte	0x12
 1599 08b1 2F       		.byte	0x2f
 1600 08b2 41080000 		.4byte	0x841
 1601 08b6 04       		.byte	0x4
 1602 08b7 12       		.uleb128 0x12
 1603 08b8 70757400 		.ascii	"put\000"
 1604 08bc 12       		.byte	0x12
 1605 08bd 2F       		.byte	0x2f
 1606 08be 5B080000 		.4byte	0x85b
 1607 08c2 08       		.byte	0x8
 1608 08c3 12       		.uleb128 0x12
 1609 08c4 67657400 		.ascii	"get\000"
 1610 08c8 12       		.byte	0x12
 1611 08c9 2F       		.byte	0x2f
 1612 08ca 95070000 		.4byte	0x795
 1613 08ce 0C       		.byte	0xc
 1614 08cf 00       		.byte	0
 1615 08d0 15       		.uleb128 0x15
 1616 08d1 04       		.byte	0x4
 1617 08d2 12       		.byte	0x12
 1618 08d3 39       		.byte	0x39
 1619 08d4 E5080000 		.4byte	0x8e5
 1620 08d8 12       		.uleb128 0x12
 1621 08d9 766D7400 		.ascii	"vmt\000"
 1622 08dd 12       		.byte	0x12
 1623 08de 3B       		.byte	0x3b
 1624 08df E5080000 		.4byte	0x8e5
 1625 08e3 00       		.byte	0
 1626 08e4 00       		.byte	0
 1627 08e5 0B       		.uleb128 0xb
ARM GAS  C:\Users\jo\AppData\Local\Temp\ccRoOONZ.s 			page 31


 1628 08e6 04       		.byte	0x4
 1629 08e7 EB080000 		.4byte	0x8eb
 1630 08eb 14       		.uleb128 0x14
 1631 08ec 93080000 		.4byte	0x893
 1632 08f0 03       		.uleb128 0x3
 1633 08f1 C4050000 		.4byte	.LASF135
 1634 08f5 12       		.byte	0x12
 1635 08f6 3D       		.byte	0x3d
 1636 08f7 D0080000 		.4byte	0x8d0
 1637 08fb 03       		.uleb128 0x3
 1638 08fc 56000000 		.4byte	.LASF136
 1639 0900 0B       		.byte	0xb
 1640 0901 62       		.byte	0x62
 1641 0902 86050000 		.4byte	0x586
 1642 0906 03       		.uleb128 0x3
 1643 0907 F5070000 		.4byte	.LASF137
 1644 090b 13       		.byte	0x13
 1645 090c 3F       		.byte	0x3f
 1646 090d CE000000 		.4byte	0xce
 1647 0911 03       		.uleb128 0x3
 1648 0912 6B020000 		.4byte	.LASF138
 1649 0916 13       		.byte	0x13
 1650 0917 40       		.byte	0x40
 1651 0918 C3000000 		.4byte	0xc3
 1652 091c 03       		.uleb128 0x3
 1653 091d 74060000 		.4byte	.LASF139
 1654 0921 13       		.byte	0x13
 1655 0922 41       		.byte	0x41
 1656 0923 E4000000 		.4byte	0xe4
 1657 0927 1D       		.uleb128 0x1d
 1658 0928 01       		.byte	0x1
 1659 0929 16       		.byte	0x16
 1660 092a 2B       		.byte	0x2b
 1661 092b 84090000 		.4byte	0x984
 1662 092f 1E       		.uleb128 0x1e
 1663 0930 02020000 		.4byte	.LASF140
 1664 0934 00       		.sleb128 0
 1665 0935 1E       		.uleb128 0x1e
 1666 0936 0D030000 		.4byte	.LASF141
 1667 093a 01       		.sleb128 1
 1668 093b 1E       		.uleb128 0x1e
 1669 093c 27020000 		.4byte	.LASF142
 1670 0940 02       		.sleb128 2
 1671 0941 1E       		.uleb128 0x1e
 1672 0942 DC000000 		.4byte	.LASF143
 1673 0946 03       		.sleb128 3
 1674 0947 1E       		.uleb128 0x1e
 1675 0948 B0010000 		.4byte	.LASF144
 1676 094c 04       		.sleb128 4
 1677 094d 1E       		.uleb128 0x1e
 1678 094e AC060000 		.4byte	.LASF145
 1679 0952 05       		.sleb128 5
 1680 0953 1E       		.uleb128 0x1e
 1681 0954 59070000 		.4byte	.LASF146
 1682 0958 06       		.sleb128 6
 1683 0959 1E       		.uleb128 0x1e
 1684 095a 7D070000 		.4byte	.LASF147
ARM GAS  C:\Users\jo\AppData\Local\Temp\ccRoOONZ.s 			page 32


 1685 095e 07       		.sleb128 7
 1686 095f 1E       		.uleb128 0x1e
 1687 0960 10070000 		.4byte	.LASF148
 1688 0964 08       		.sleb128 8
 1689 0965 1E       		.uleb128 0x1e
 1690 0966 4B030000 		.4byte	.LASF149
 1691 096a 09       		.sleb128 9
 1692 096b 1E       		.uleb128 0x1e
 1693 096c C6060000 		.4byte	.LASF150
 1694 0970 0A       		.sleb128 10
 1695 0971 1E       		.uleb128 0x1e
 1696 0972 DF020000 		.4byte	.LASF151
 1697 0976 0B       		.sleb128 11
 1698 0977 1E       		.uleb128 0x1e
 1699 0978 C6000000 		.4byte	.LASF152
 1700 097c 0C       		.sleb128 12
 1701 097d 1E       		.uleb128 0x1e
 1702 097e BC040000 		.4byte	.LASF153
 1703 0982 0D       		.sleb128 13
 1704 0983 00       		.byte	0
 1705 0984 06       		.uleb128 0x6
 1706 0985 73080000 		.4byte	.LASF154
 1707 0989 18       		.byte	0x18
 1708 098a 14       		.byte	0x14
 1709 098b 3A       		.byte	0x3a
 1710 098c 200A0000 		.4byte	0xa20
 1711 0990 07       		.uleb128 0x7
 1712 0991 4B080000 		.4byte	.LASF155
 1713 0995 14       		.byte	0x14
 1714 0996 3B       		.byte	0x3b
 1715 0997 06090000 		.4byte	0x906
 1716 099b 00       		.byte	0
 1717 099c 07       		.uleb128 0x7
 1718 099d F4020000 		.4byte	.LASF156
 1719 09a1 14       		.byte	0x14
 1720 09a2 3C       		.byte	0x3c
 1721 09a3 06090000 		.4byte	0x906
 1722 09a7 02       		.byte	0x2
 1723 09a8 12       		.uleb128 0x12
 1724 09a9 667700   		.ascii	"fw\000"
 1725 09ac 14       		.byte	0x14
 1726 09ad 3D       		.byte	0x3d
 1727 09ae 06090000 		.4byte	0x906
 1728 09b2 04       		.byte	0x4
 1729 09b3 07       		.uleb128 0x7
 1730 09b4 61060000 		.4byte	.LASF157
 1731 09b8 14       		.byte	0x14
 1732 09b9 3E       		.byte	0x3e
 1733 09ba 06090000 		.4byte	0x906
 1734 09be 06       		.byte	0x6
 1735 09bf 07       		.uleb128 0x7
 1736 09c0 86000000 		.4byte	.LASF158
 1737 09c4 14       		.byte	0x14
 1738 09c5 3F       		.byte	0x3f
 1739 09c6 06090000 		.4byte	0x906
 1740 09ca 08       		.byte	0x8
 1741 09cb 07       		.uleb128 0x7
ARM GAS  C:\Users\jo\AppData\Local\Temp\ccRoOONZ.s 			page 33


 1742 09cc 24080000 		.4byte	.LASF159
 1743 09d0 14       		.byte	0x14
 1744 09d1 40       		.byte	0x40
 1745 09d2 06090000 		.4byte	0x906
 1746 09d6 0A       		.byte	0xa
 1747 09d7 07       		.uleb128 0x7
 1748 09d8 D5000000 		.4byte	.LASF160
 1749 09dc 14       		.byte	0x14
 1750 09dd 41       		.byte	0x41
 1751 09de 06090000 		.4byte	0x906
 1752 09e2 0C       		.byte	0xc
 1753 09e3 07       		.uleb128 0x7
 1754 09e4 B1050000 		.4byte	.LASF161
 1755 09e8 14       		.byte	0x14
 1756 09e9 42       		.byte	0x42
 1757 09ea 06090000 		.4byte	0x906
 1758 09ee 0E       		.byte	0xe
 1759 09ef 07       		.uleb128 0x7
 1760 09f0 B7020000 		.4byte	.LASF162
 1761 09f4 14       		.byte	0x14
 1762 09f5 43       		.byte	0x43
 1763 09f6 06090000 		.4byte	0x906
 1764 09fa 10       		.byte	0x10
 1765 09fb 07       		.uleb128 0x7
 1766 09fc 11010000 		.4byte	.LASF163
 1767 0a00 14       		.byte	0x14
 1768 0a01 44       		.byte	0x44
 1769 0a02 06090000 		.4byte	0x906
 1770 0a06 12       		.byte	0x12
 1771 0a07 12       		.uleb128 0x12
 1772 0a08 65727200 		.ascii	"err\000"
 1773 0a0c 14       		.byte	0x14
 1774 0a0d 45       		.byte	0x45
 1775 0a0e 06090000 		.4byte	0x906
 1776 0a12 14       		.byte	0x14
 1777 0a13 07       		.uleb128 0x7
 1778 0a14 FF000000 		.4byte	.LASF164
 1779 0a18 14       		.byte	0x14
 1780 0a19 46       		.byte	0x46
 1781 0a1a 06090000 		.4byte	0x906
 1782 0a1e 16       		.byte	0x16
 1783 0a1f 00       		.byte	0
 1784 0a20 06       		.uleb128 0x6
 1785 0a21 5C050000 		.4byte	.LASF165
 1786 0a25 06       		.byte	0x6
 1787 0a26 14       		.byte	0x14
 1788 0a27 65       		.byte	0x65
 1789 0a28 510A0000 		.4byte	0xa51
 1790 0a2c 07       		.uleb128 0x7
 1791 0a2d A7050000 		.4byte	.LASF166
 1792 0a31 14       		.byte	0x14
 1793 0a32 66       		.byte	0x66
 1794 0a33 06090000 		.4byte	0x906
 1795 0a37 00       		.byte	0
 1796 0a38 12       		.uleb128 0x12
 1797 0a39 6D617800 		.ascii	"max\000"
 1798 0a3d 14       		.byte	0x14
ARM GAS  C:\Users\jo\AppData\Local\Temp\ccRoOONZ.s 			page 34


 1799 0a3e 67       		.byte	0x67
 1800 0a3f 06090000 		.4byte	0x906
 1801 0a43 02       		.byte	0x2
 1802 0a44 12       		.uleb128 0x12
 1803 0a45 65727200 		.ascii	"err\000"
 1804 0a49 14       		.byte	0x14
 1805 0a4a 68       		.byte	0x68
 1806 0a4b 06090000 		.4byte	0x906
 1807 0a4f 04       		.byte	0x4
 1808 0a50 00       		.byte	0
 1809 0a51 06       		.uleb128 0x6
 1810 0a52 B5030000 		.4byte	.LASF167
 1811 0a56 12       		.byte	0x12
 1812 0a57 14       		.byte	0x14
 1813 0a58 6B       		.byte	0x6b
 1814 0a59 820A0000 		.4byte	0xa82
 1815 0a5d 12       		.uleb128 0x12
 1816 0a5e 73656D00 		.ascii	"sem\000"
 1817 0a62 14       		.byte	0x14
 1818 0a63 6C       		.byte	0x6c
 1819 0a64 200A0000 		.4byte	0xa20
 1820 0a68 00       		.byte	0
 1821 0a69 07       		.uleb128 0x7
 1822 0a6a F7050000 		.4byte	.LASF124
 1823 0a6e 14       		.byte	0x14
 1824 0a6f 6D       		.byte	0x6d
 1825 0a70 200A0000 		.4byte	0xa20
 1826 0a74 06       		.byte	0x6
 1827 0a75 07       		.uleb128 0x7
 1828 0a76 AC050000 		.4byte	.LASF168
 1829 0a7a 14       		.byte	0x14
 1830 0a7b 6E       		.byte	0x6e
 1831 0a7c 200A0000 		.4byte	0xa20
 1832 0a80 0C       		.byte	0xc
 1833 0a81 00       		.byte	0
 1834 0a82 06       		.uleb128 0x6
 1835 0a83 85050000 		.4byte	.LASF169
 1836 0a87 BA       		.byte	0xba
 1837 0a88 14       		.byte	0x14
 1838 0a89 71       		.byte	0x71
 1839 0a8a EE0A0000 		.4byte	0xaee
 1840 0a8e 07       		.uleb128 0x7
 1841 0a8f 4C020000 		.4byte	.LASF170
 1842 0a93 14       		.byte	0x14
 1843 0a94 73       		.byte	0x73
 1844 0a95 84090000 		.4byte	0x984
 1845 0a99 00       		.byte	0
 1846 0a9a 07       		.uleb128 0x7
 1847 0a9b F2010000 		.4byte	.LASF171
 1848 0a9f 14       		.byte	0x14
 1849 0aa0 76       		.byte	0x76
 1850 0aa1 84090000 		.4byte	0x984
 1851 0aa5 18       		.byte	0x18
 1852 0aa6 07       		.uleb128 0x7
 1853 0aa7 38000000 		.4byte	.LASF172
 1854 0aab 14       		.byte	0x14
 1855 0aac 79       		.byte	0x79
ARM GAS  C:\Users\jo\AppData\Local\Temp\ccRoOONZ.s 			page 35


 1856 0aad 84090000 		.4byte	0x984
 1857 0ab1 30       		.byte	0x30
 1858 0ab2 12       		.uleb128 0x12
 1859 0ab3 697000   		.ascii	"ip\000"
 1860 0ab6 14       		.byte	0x14
 1861 0ab7 7C       		.byte	0x7c
 1862 0ab8 84090000 		.4byte	0x984
 1863 0abc 48       		.byte	0x48
 1864 0abd 07       		.uleb128 0x7
 1865 0abe 8C050000 		.4byte	.LASF173
 1866 0ac2 14       		.byte	0x14
 1867 0ac3 7F       		.byte	0x7f
 1868 0ac4 84090000 		.4byte	0x984
 1869 0ac8 60       		.byte	0x60
 1870 0ac9 12       		.uleb128 0x12
 1871 0aca 75647000 		.ascii	"udp\000"
 1872 0ace 14       		.byte	0x14
 1873 0acf 85       		.byte	0x85
 1874 0ad0 84090000 		.4byte	0x984
 1875 0ad4 78       		.byte	0x78
 1876 0ad5 12       		.uleb128 0x12
 1877 0ad6 74637000 		.ascii	"tcp\000"
 1878 0ada 14       		.byte	0x14
 1879 0adb 88       		.byte	0x88
 1880 0adc 84090000 		.4byte	0x984
 1881 0ae0 90       		.byte	0x90
 1882 0ae1 12       		.uleb128 0x12
 1883 0ae2 73797300 		.ascii	"sys\000"
 1884 0ae6 14       		.byte	0x14
 1885 0ae7 91       		.byte	0x91
 1886 0ae8 510A0000 		.4byte	0xa51
 1887 0aec A8       		.byte	0xa8
 1888 0aed 00       		.byte	0
 1889 0aee 1F       		.uleb128 0x1f
 1890 0aef C1080000 		.4byte	.LASF186
 1891 0af3 01       		.byte	0x1
 1892 0af4 45       		.byte	0x45
 1893 0af5 25000000 		.4byte	0x25
 1894 0af9 03       		.byte	0x3
 1895 0afa 2B0B0000 		.4byte	0xb2b
 1896 0afe 20       		.uleb128 0x20
 1897 0aff 63687000 		.ascii	"chp\000"
 1898 0b03 01       		.byte	0x1
 1899 0b04 45       		.byte	0x45
 1900 0b05 2B0B0000 		.4byte	0xb2b
 1901 0b09 20       		.uleb128 0x20
 1902 0b0a 666D7400 		.ascii	"fmt\000"
 1903 0b0e 01       		.byte	0x1
 1904 0b0f 45       		.byte	0x45
 1905 0b10 AF050000 		.4byte	0x5af
 1906 0b14 21       		.uleb128 0x21
 1907 0b15 22       		.uleb128 0x22
 1908 0b16 617000   		.ascii	"ap\000"
 1909 0b19 01       		.byte	0x1
 1910 0b1a 46       		.byte	0x46
 1911 0b1b FB080000 		.4byte	0x8fb
 1912 0b1f 23       		.uleb128 0x23
ARM GAS  C:\Users\jo\AppData\Local\Temp\ccRoOONZ.s 			page 36


 1913 0b20 A4000000 		.4byte	.LASF174
 1914 0b24 01       		.byte	0x1
 1915 0b25 47       		.byte	0x47
 1916 0b26 25000000 		.4byte	0x25
 1917 0b2a 00       		.byte	0
 1918 0b2b 0B       		.uleb128 0xb
 1919 0b2c 04       		.byte	0x4
 1920 0b2d 81080000 		.4byte	0x881
 1921 0b31 24       		.uleb128 0x24
 1922 0b32 EE0A0000 		.4byte	0xaee
 1923 0b36 00000000 		.4byte	.LFB260
 1924 0b3a 24000000 		.4byte	.LFE260-.LFB260
 1925 0b3e 01       		.uleb128 0x1
 1926 0b3f 9C       		.byte	0x9c
 1927 0b40 820B0000 		.4byte	0xb82
 1928 0b44 25       		.uleb128 0x25
 1929 0b45 FE0A0000 		.4byte	0xafe
 1930 0b49 00000000 		.4byte	.LLST0
 1931 0b4d 26       		.uleb128 0x26
 1932 0b4e 090B0000 		.4byte	0xb09
 1933 0b52 02       		.uleb128 0x2
 1934 0b53 91       		.byte	0x91
 1935 0b54 74       		.sleb128 -12
 1936 0b55 21       		.uleb128 0x21
 1937 0b56 27       		.uleb128 0x27
 1938 0b57 150B0000 		.4byte	0xb15
 1939 0b5b 02       		.uleb128 0x2
 1940 0b5c 91       		.byte	0x91
 1941 0b5d 6C       		.sleb128 -20
 1942 0b5e 27       		.uleb128 0x27
 1943 0b5f 1F0B0000 		.4byte	0xb1f
 1944 0b63 01       		.uleb128 0x1
 1945 0b64 50       		.byte	0x50
 1946 0b65 28       		.uleb128 0x28
 1947 0b66 FE0A0000 		.4byte	0xafe
 1948 0b6a 29       		.uleb128 0x29
 1949 0b6b 14000000 		.4byte	.LVL2
 1950 0b6f BB0F0000 		.4byte	0xfbb
 1951 0b73 2A       		.uleb128 0x2a
 1952 0b74 01       		.uleb128 0x1
 1953 0b75 52       		.byte	0x52
 1954 0b76 02       		.uleb128 0x2
 1955 0b77 91       		.byte	0x91
 1956 0b78 60       		.sleb128 -32
 1957 0b79 2A       		.uleb128 0x2a
 1958 0b7a 01       		.uleb128 0x1
 1959 0b7b 51       		.byte	0x51
 1960 0b7c 03       		.uleb128 0x3
 1961 0b7d 91       		.byte	0x91
 1962 0b7e 5C       		.sleb128 -36
 1963 0b7f 06       		.byte	0x6
 1964 0b80 00       		.byte	0
 1965 0b81 00       		.byte	0
 1966 0b82 2B       		.uleb128 0x2b
 1967 0b83 20050000 		.4byte	.LASF187
 1968 0b87 02       		.byte	0x2
 1969 0b88 33       		.byte	0x33
ARM GAS  C:\Users\jo\AppData\Local\Temp\ccRoOONZ.s 			page 37


 1970 0b89 00000000 		.4byte	.LFB256
 1971 0b8d 02000000 		.4byte	.LFE256-.LFB256
 1972 0b91 01       		.uleb128 0x1
 1973 0b92 9C       		.byte	0x9c
 1974 0b93 2C       		.uleb128 0x2c
 1975 0b94 79020000 		.4byte	.LASF177
 1976 0b98 02       		.byte	0x2
 1977 0b99 48       		.byte	0x48
 1978 0b9a 00000000 		.4byte	.LFB257
 1979 0b9e C4000000 		.4byte	.LFE257-.LFB257
 1980 0ba2 01       		.uleb128 0x1
 1981 0ba3 9C       		.byte	0x9c
 1982 0ba4 3D0D0000 		.4byte	0xd3d
 1983 0ba8 2D       		.uleb128 0x2d
 1984 0ba9 95060000 		.4byte	.LASF175
 1985 0bad 02       		.byte	0x2
 1986 0bae 48       		.byte	0x48
 1987 0baf 3D0D0000 		.4byte	0xd3d
 1988 0bb3 21000000 		.4byte	.LLST1
 1989 0bb7 2D       		.uleb128 0x2d
 1990 0bb8 1A030000 		.4byte	.LASF176
 1991 0bbc 02       		.byte	0x2
 1992 0bbd 48       		.byte	0x48
 1993 0bbe AF050000 		.4byte	0x5af
 1994 0bc2 4D000000 		.4byte	.LLST2
 1995 0bc6 2E       		.uleb128 0x2e
 1996 0bc7 10000000 		.4byte	.LVL6
 1997 0bcb 310B0000 		.4byte	0xb31
 1998 0bcf EA0B0000 		.4byte	0xbea
 1999 0bd3 2A       		.uleb128 0x2a
 2000 0bd4 01       		.uleb128 0x1
 2001 0bd5 52       		.byte	0x52
 2002 0bd6 03       		.uleb128 0x3
 2003 0bd7 F3       		.byte	0xf3
 2004 0bd8 01       		.uleb128 0x1
 2005 0bd9 51       		.byte	0x51
 2006 0bda 2A       		.uleb128 0x2a
 2007 0bdb 01       		.uleb128 0x1
 2008 0bdc 51       		.byte	0x51
 2009 0bdd 05       		.uleb128 0x5
 2010 0bde 03       		.byte	0x3
 2011 0bdf 00000000 		.4byte	.LC0
 2012 0be3 2A       		.uleb128 0x2a
 2013 0be4 01       		.uleb128 0x1
 2014 0be5 50       		.byte	0x50
 2015 0be6 02       		.uleb128 0x2
 2016 0be7 74       		.byte	0x74
 2017 0be8 00       		.sleb128 0
 2018 0be9 00       		.byte	0
 2019 0bea 2E       		.uleb128 0x2e
 2020 0beb 1A000000 		.4byte	.LVL7
 2021 0bef 310B0000 		.4byte	0xb31
 2022 0bf3 070C0000 		.4byte	0xc07
 2023 0bf7 2A       		.uleb128 0x2a
 2024 0bf8 01       		.uleb128 0x1
 2025 0bf9 51       		.byte	0x51
 2026 0bfa 05       		.uleb128 0x5
ARM GAS  C:\Users\jo\AppData\Local\Temp\ccRoOONZ.s 			page 38


 2027 0bfb 03       		.byte	0x3
 2028 0bfc 08000000 		.4byte	.LC1
 2029 0c00 2A       		.uleb128 0x2a
 2030 0c01 01       		.uleb128 0x1
 2031 0c02 50       		.byte	0x50
 2032 0c03 02       		.uleb128 0x2
 2033 0c04 74       		.byte	0x74
 2034 0c05 00       		.sleb128 0
 2035 0c06 00       		.byte	0
 2036 0c07 2E       		.uleb128 0x2e
 2037 0c08 24000000 		.4byte	.LVL8
 2038 0c0c 310B0000 		.4byte	0xb31
 2039 0c10 240C0000 		.4byte	0xc24
 2040 0c14 2A       		.uleb128 0x2a
 2041 0c15 01       		.uleb128 0x1
 2042 0c16 51       		.byte	0x51
 2043 0c17 05       		.uleb128 0x5
 2044 0c18 03       		.byte	0x3
 2045 0c19 14000000 		.4byte	.LC2
 2046 0c1d 2A       		.uleb128 0x2a
 2047 0c1e 01       		.uleb128 0x1
 2048 0c1f 50       		.byte	0x50
 2049 0c20 02       		.uleb128 0x2
 2050 0c21 74       		.byte	0x74
 2051 0c22 00       		.sleb128 0
 2052 0c23 00       		.byte	0
 2053 0c24 2E       		.uleb128 0x2e
 2054 0c25 2E000000 		.4byte	.LVL9
 2055 0c29 310B0000 		.4byte	0xb31
 2056 0c2d 410C0000 		.4byte	0xc41
 2057 0c31 2A       		.uleb128 0x2a
 2058 0c32 01       		.uleb128 0x1
 2059 0c33 51       		.byte	0x51
 2060 0c34 05       		.uleb128 0x5
 2061 0c35 03       		.byte	0x3
 2062 0c36 20000000 		.4byte	.LC3
 2063 0c3a 2A       		.uleb128 0x2a
 2064 0c3b 01       		.uleb128 0x1
 2065 0c3c 50       		.byte	0x50
 2066 0c3d 02       		.uleb128 0x2
 2067 0c3e 74       		.byte	0x74
 2068 0c3f 00       		.sleb128 0
 2069 0c40 00       		.byte	0
 2070 0c41 2E       		.uleb128 0x2e
 2071 0c42 38000000 		.4byte	.LVL10
 2072 0c46 310B0000 		.4byte	0xb31
 2073 0c4a 5E0C0000 		.4byte	0xc5e
 2074 0c4e 2A       		.uleb128 0x2a
 2075 0c4f 01       		.uleb128 0x1
 2076 0c50 51       		.byte	0x51
 2077 0c51 05       		.uleb128 0x5
 2078 0c52 03       		.byte	0x3
 2079 0c53 2C000000 		.4byte	.LC4
 2080 0c57 2A       		.uleb128 0x2a
 2081 0c58 01       		.uleb128 0x1
 2082 0c59 50       		.byte	0x50
 2083 0c5a 02       		.uleb128 0x2
ARM GAS  C:\Users\jo\AppData\Local\Temp\ccRoOONZ.s 			page 39


 2084 0c5b 74       		.byte	0x74
 2085 0c5c 00       		.sleb128 0
 2086 0c5d 00       		.byte	0
 2087 0c5e 2E       		.uleb128 0x2e
 2088 0c5f 42000000 		.4byte	.LVL11
 2089 0c63 310B0000 		.4byte	0xb31
 2090 0c67 7B0C0000 		.4byte	0xc7b
 2091 0c6b 2A       		.uleb128 0x2a
 2092 0c6c 01       		.uleb128 0x1
 2093 0c6d 51       		.byte	0x51
 2094 0c6e 05       		.uleb128 0x5
 2095 0c6f 03       		.byte	0x3
 2096 0c70 38000000 		.4byte	.LC5
 2097 0c74 2A       		.uleb128 0x2a
 2098 0c75 01       		.uleb128 0x1
 2099 0c76 50       		.byte	0x50
 2100 0c77 02       		.uleb128 0x2
 2101 0c78 74       		.byte	0x74
 2102 0c79 00       		.sleb128 0
 2103 0c7a 00       		.byte	0
 2104 0c7b 2E       		.uleb128 0x2e
 2105 0c7c 4C000000 		.4byte	.LVL12
 2106 0c80 310B0000 		.4byte	0xb31
 2107 0c84 980C0000 		.4byte	0xc98
 2108 0c88 2A       		.uleb128 0x2a
 2109 0c89 01       		.uleb128 0x1
 2110 0c8a 51       		.byte	0x51
 2111 0c8b 05       		.uleb128 0x5
 2112 0c8c 03       		.byte	0x3
 2113 0c8d 48000000 		.4byte	.LC6
 2114 0c91 2A       		.uleb128 0x2a
 2115 0c92 01       		.uleb128 0x1
 2116 0c93 50       		.byte	0x50
 2117 0c94 02       		.uleb128 0x2
 2118 0c95 74       		.byte	0x74
 2119 0c96 00       		.sleb128 0
 2120 0c97 00       		.byte	0
 2121 0c98 2E       		.uleb128 0x2e
 2122 0c99 56000000 		.4byte	.LVL13
 2123 0c9d 310B0000 		.4byte	0xb31
 2124 0ca1 B50C0000 		.4byte	0xcb5
 2125 0ca5 2A       		.uleb128 0x2a
 2126 0ca6 01       		.uleb128 0x1
 2127 0ca7 51       		.byte	0x51
 2128 0ca8 05       		.uleb128 0x5
 2129 0ca9 03       		.byte	0x3
 2130 0caa 58000000 		.4byte	.LC7
 2131 0cae 2A       		.uleb128 0x2a
 2132 0caf 01       		.uleb128 0x1
 2133 0cb0 50       		.byte	0x50
 2134 0cb1 02       		.uleb128 0x2
 2135 0cb2 74       		.byte	0x74
 2136 0cb3 00       		.sleb128 0
 2137 0cb4 00       		.byte	0
 2138 0cb5 2E       		.uleb128 0x2e
 2139 0cb6 60000000 		.4byte	.LVL14
 2140 0cba 310B0000 		.4byte	0xb31
ARM GAS  C:\Users\jo\AppData\Local\Temp\ccRoOONZ.s 			page 40


 2141 0cbe D20C0000 		.4byte	0xcd2
 2142 0cc2 2A       		.uleb128 0x2a
 2143 0cc3 01       		.uleb128 0x1
 2144 0cc4 51       		.byte	0x51
 2145 0cc5 05       		.uleb128 0x5
 2146 0cc6 03       		.byte	0x3
 2147 0cc7 68000000 		.4byte	.LC8
 2148 0ccb 2A       		.uleb128 0x2a
 2149 0ccc 01       		.uleb128 0x1
 2150 0ccd 50       		.byte	0x50
 2151 0cce 02       		.uleb128 0x2
 2152 0ccf 74       		.byte	0x74
 2153 0cd0 00       		.sleb128 0
 2154 0cd1 00       		.byte	0
 2155 0cd2 2E       		.uleb128 0x2e
 2156 0cd3 6A000000 		.4byte	.LVL15
 2157 0cd7 310B0000 		.4byte	0xb31
 2158 0cdb EF0C0000 		.4byte	0xcef
 2159 0cdf 2A       		.uleb128 0x2a
 2160 0ce0 01       		.uleb128 0x1
 2161 0ce1 51       		.byte	0x51
 2162 0ce2 05       		.uleb128 0x5
 2163 0ce3 03       		.byte	0x3
 2164 0ce4 74000000 		.4byte	.LC9
 2165 0ce8 2A       		.uleb128 0x2a
 2166 0ce9 01       		.uleb128 0x1
 2167 0cea 50       		.byte	0x50
 2168 0ceb 02       		.uleb128 0x2
 2169 0cec 74       		.byte	0x74
 2170 0ced 00       		.sleb128 0
 2171 0cee 00       		.byte	0
 2172 0cef 2E       		.uleb128 0x2e
 2173 0cf0 74000000 		.4byte	.LVL16
 2174 0cf4 310B0000 		.4byte	0xb31
 2175 0cf8 0C0D0000 		.4byte	0xd0c
 2176 0cfc 2A       		.uleb128 0x2a
 2177 0cfd 01       		.uleb128 0x1
 2178 0cfe 51       		.byte	0x51
 2179 0cff 05       		.uleb128 0x5
 2180 0d00 03       		.byte	0x3
 2181 0d01 84000000 		.4byte	.LC10
 2182 0d05 2A       		.uleb128 0x2a
 2183 0d06 01       		.uleb128 0x1
 2184 0d07 50       		.byte	0x50
 2185 0d08 02       		.uleb128 0x2
 2186 0d09 74       		.byte	0x74
 2187 0d0a 00       		.sleb128 0
 2188 0d0b 00       		.byte	0
 2189 0d0c 2E       		.uleb128 0x2e
 2190 0d0d 7E000000 		.4byte	.LVL17
 2191 0d11 310B0000 		.4byte	0xb31
 2192 0d15 290D0000 		.4byte	0xd29
 2193 0d19 2A       		.uleb128 0x2a
 2194 0d1a 01       		.uleb128 0x1
 2195 0d1b 51       		.byte	0x51
 2196 0d1c 05       		.uleb128 0x5
 2197 0d1d 03       		.byte	0x3
ARM GAS  C:\Users\jo\AppData\Local\Temp\ccRoOONZ.s 			page 41


 2198 0d1e 94000000 		.4byte	.LC11
 2199 0d22 2A       		.uleb128 0x2a
 2200 0d23 01       		.uleb128 0x1
 2201 0d24 50       		.byte	0x50
 2202 0d25 02       		.uleb128 0x2
 2203 0d26 74       		.byte	0x74
 2204 0d27 00       		.sleb128 0
 2205 0d28 00       		.byte	0
 2206 0d29 2F       		.uleb128 0x2f
 2207 0d2a 8C000000 		.4byte	.LVL19
 2208 0d2e 310B0000 		.4byte	0xb31
 2209 0d32 2A       		.uleb128 0x2a
 2210 0d33 01       		.uleb128 0x1
 2211 0d34 51       		.byte	0x51
 2212 0d35 05       		.uleb128 0x5
 2213 0d36 03       		.byte	0x3
 2214 0d37 A0000000 		.4byte	.LC12
 2215 0d3b 00       		.byte	0
 2216 0d3c 00       		.byte	0
 2217 0d3d 0B       		.uleb128 0xb
 2218 0d3e 04       		.byte	0x4
 2219 0d3f 84090000 		.4byte	0x984
 2220 0d43 2C       		.uleb128 0x2c
 2221 0d44 BF030000 		.4byte	.LASF178
 2222 0d48 02       		.byte	0x2
 2223 0d49 8B       		.byte	0x8b
 2224 0d4a 00000000 		.4byte	.LFB258
 2225 0d4e 98000000 		.4byte	.LFE258-.LFB258
 2226 0d52 01       		.uleb128 0x1
 2227 0d53 9C       		.byte	0x9c
 2228 0d54 800E0000 		.4byte	0xe80
 2229 0d58 30       		.uleb128 0x30
 2230 0d59 73797300 		.ascii	"sys\000"
 2231 0d5d 02       		.byte	0x2
 2232 0d5e 8B       		.byte	0x8b
 2233 0d5f 800E0000 		.4byte	0xe80
 2234 0d63 79000000 		.4byte	.LLST3
 2235 0d67 2E       		.uleb128 0x2e
 2236 0d68 0E000000 		.4byte	.LVL22
 2237 0d6c 310B0000 		.4byte	0xb31
 2238 0d70 840D0000 		.4byte	0xd84
 2239 0d74 2A       		.uleb128 0x2a
 2240 0d75 01       		.uleb128 0x1
 2241 0d76 51       		.byte	0x51
 2242 0d77 05       		.uleb128 0x5
 2243 0d78 03       		.byte	0x3
 2244 0d79 B0000000 		.4byte	.LC13
 2245 0d7d 2A       		.uleb128 0x2a
 2246 0d7e 01       		.uleb128 0x1
 2247 0d7f 50       		.byte	0x50
 2248 0d80 02       		.uleb128 0x2
 2249 0d81 74       		.byte	0x74
 2250 0d82 00       		.sleb128 0
 2251 0d83 00       		.byte	0
 2252 0d84 2E       		.uleb128 0x2e
 2253 0d85 18000000 		.4byte	.LVL23
 2254 0d89 310B0000 		.4byte	0xb31
ARM GAS  C:\Users\jo\AppData\Local\Temp\ccRoOONZ.s 			page 42


 2255 0d8d A10D0000 		.4byte	0xda1
 2256 0d91 2A       		.uleb128 0x2a
 2257 0d92 01       		.uleb128 0x1
 2258 0d93 51       		.byte	0x51
 2259 0d94 05       		.uleb128 0x5
 2260 0d95 03       		.byte	0x3
 2261 0d96 B8000000 		.4byte	.LC14
 2262 0d9a 2A       		.uleb128 0x2a
 2263 0d9b 01       		.uleb128 0x1
 2264 0d9c 50       		.byte	0x50
 2265 0d9d 02       		.uleb128 0x2
 2266 0d9e 74       		.byte	0x74
 2267 0d9f 00       		.sleb128 0
 2268 0da0 00       		.byte	0
 2269 0da1 2E       		.uleb128 0x2e
 2270 0da2 22000000 		.4byte	.LVL24
 2271 0da6 310B0000 		.4byte	0xb31
 2272 0daa BE0D0000 		.4byte	0xdbe
 2273 0dae 2A       		.uleb128 0x2a
 2274 0daf 01       		.uleb128 0x1
 2275 0db0 51       		.byte	0x51
 2276 0db1 05       		.uleb128 0x5
 2277 0db2 03       		.byte	0x3
 2278 0db3 C8000000 		.4byte	.LC15
 2279 0db7 2A       		.uleb128 0x2a
 2280 0db8 01       		.uleb128 0x1
 2281 0db9 50       		.byte	0x50
 2282 0dba 02       		.uleb128 0x2
 2283 0dbb 74       		.byte	0x74
 2284 0dbc 00       		.sleb128 0
 2285 0dbd 00       		.byte	0
 2286 0dbe 2E       		.uleb128 0x2e
 2287 0dbf 2C000000 		.4byte	.LVL25
 2288 0dc3 310B0000 		.4byte	0xb31
 2289 0dc7 DB0D0000 		.4byte	0xddb
 2290 0dcb 2A       		.uleb128 0x2a
 2291 0dcc 01       		.uleb128 0x1
 2292 0dcd 51       		.byte	0x51
 2293 0dce 05       		.uleb128 0x5
 2294 0dcf 03       		.byte	0x3
 2295 0dd0 D8000000 		.4byte	.LC16
 2296 0dd4 2A       		.uleb128 0x2a
 2297 0dd5 01       		.uleb128 0x1
 2298 0dd6 50       		.byte	0x50
 2299 0dd7 02       		.uleb128 0x2
 2300 0dd8 74       		.byte	0x74
 2301 0dd9 00       		.sleb128 0
 2302 0dda 00       		.byte	0
 2303 0ddb 2E       		.uleb128 0x2e
 2304 0ddc 36000000 		.4byte	.LVL26
 2305 0de0 310B0000 		.4byte	0xb31
 2306 0de4 F80D0000 		.4byte	0xdf8
 2307 0de8 2A       		.uleb128 0x2a
 2308 0de9 01       		.uleb128 0x1
 2309 0dea 51       		.byte	0x51
 2310 0deb 05       		.uleb128 0x5
 2311 0dec 03       		.byte	0x3
ARM GAS  C:\Users\jo\AppData\Local\Temp\ccRoOONZ.s 			page 43


 2312 0ded E8000000 		.4byte	.LC17
 2313 0df1 2A       		.uleb128 0x2a
 2314 0df2 01       		.uleb128 0x1
 2315 0df3 50       		.byte	0x50
 2316 0df4 02       		.uleb128 0x2
 2317 0df5 74       		.byte	0x74
 2318 0df6 00       		.sleb128 0
 2319 0df7 00       		.byte	0
 2320 0df8 2E       		.uleb128 0x2e
 2321 0df9 40000000 		.4byte	.LVL27
 2322 0dfd 310B0000 		.4byte	0xb31
 2323 0e01 150E0000 		.4byte	0xe15
 2324 0e05 2A       		.uleb128 0x2a
 2325 0e06 01       		.uleb128 0x1
 2326 0e07 51       		.byte	0x51
 2327 0e08 05       		.uleb128 0x5
 2328 0e09 03       		.byte	0x3
 2329 0e0a FC000000 		.4byte	.LC18
 2330 0e0e 2A       		.uleb128 0x2a
 2331 0e0f 01       		.uleb128 0x1
 2332 0e10 50       		.byte	0x50
 2333 0e11 02       		.uleb128 0x2
 2334 0e12 74       		.byte	0x74
 2335 0e13 00       		.sleb128 0
 2336 0e14 00       		.byte	0
 2337 0e15 2E       		.uleb128 0x2e
 2338 0e16 4A000000 		.4byte	.LVL28
 2339 0e1a 310B0000 		.4byte	0xb31
 2340 0e1e 320E0000 		.4byte	0xe32
 2341 0e22 2A       		.uleb128 0x2a
 2342 0e23 01       		.uleb128 0x1
 2343 0e24 51       		.byte	0x51
 2344 0e25 05       		.uleb128 0x5
 2345 0e26 03       		.byte	0x3
 2346 0e27 10010000 		.4byte	.LC19
 2347 0e2b 2A       		.uleb128 0x2a
 2348 0e2c 01       		.uleb128 0x1
 2349 0e2d 50       		.byte	0x50
 2350 0e2e 02       		.uleb128 0x2
 2351 0e2f 74       		.byte	0x74
 2352 0e30 00       		.sleb128 0
 2353 0e31 00       		.byte	0
 2354 0e32 2E       		.uleb128 0x2e
 2355 0e33 54000000 		.4byte	.LVL29
 2356 0e37 310B0000 		.4byte	0xb31
 2357 0e3b 4F0E0000 		.4byte	0xe4f
 2358 0e3f 2A       		.uleb128 0x2a
 2359 0e40 01       		.uleb128 0x1
 2360 0e41 51       		.byte	0x51
 2361 0e42 05       		.uleb128 0x5
 2362 0e43 03       		.byte	0x3
 2363 0e44 24010000 		.4byte	.LC20
 2364 0e48 2A       		.uleb128 0x2a
 2365 0e49 01       		.uleb128 0x1
 2366 0e4a 50       		.byte	0x50
 2367 0e4b 02       		.uleb128 0x2
 2368 0e4c 74       		.byte	0x74
ARM GAS  C:\Users\jo\AppData\Local\Temp\ccRoOONZ.s 			page 44


 2369 0e4d 00       		.sleb128 0
 2370 0e4e 00       		.byte	0
 2371 0e4f 2E       		.uleb128 0x2e
 2372 0e50 5E000000 		.4byte	.LVL30
 2373 0e54 310B0000 		.4byte	0xb31
 2374 0e58 6C0E0000 		.4byte	0xe6c
 2375 0e5c 2A       		.uleb128 0x2a
 2376 0e5d 01       		.uleb128 0x1
 2377 0e5e 51       		.byte	0x51
 2378 0e5f 05       		.uleb128 0x5
 2379 0e60 03       		.byte	0x3
 2380 0e61 38010000 		.4byte	.LC21
 2381 0e65 2A       		.uleb128 0x2a
 2382 0e66 01       		.uleb128 0x1
 2383 0e67 50       		.byte	0x50
 2384 0e68 02       		.uleb128 0x2
 2385 0e69 74       		.byte	0x74
 2386 0e6a 00       		.sleb128 0
 2387 0e6b 00       		.byte	0
 2388 0e6c 2F       		.uleb128 0x2f
 2389 0e6d 6C000000 		.4byte	.LVL32
 2390 0e71 310B0000 		.4byte	0xb31
 2391 0e75 2A       		.uleb128 0x2a
 2392 0e76 01       		.uleb128 0x1
 2393 0e77 51       		.byte	0x51
 2394 0e78 05       		.uleb128 0x5
 2395 0e79 03       		.byte	0x3
 2396 0e7a 4C010000 		.4byte	.LC22
 2397 0e7e 00       		.byte	0
 2398 0e7f 00       		.byte	0
 2399 0e80 0B       		.uleb128 0xb
 2400 0e81 04       		.byte	0x4
 2401 0e82 510A0000 		.4byte	0xa51
 2402 0e86 2C       		.uleb128 0x2c
 2403 0e87 F9020000 		.4byte	.LASF179
 2404 0e8b 02       		.byte	0x2
 2405 0e8c 9B       		.byte	0x9b
 2406 0e8d 00000000 		.4byte	.LFB259
 2407 0e91 74000000 		.4byte	.LFE259-.LFB259
 2408 0e95 01       		.uleb128 0x1
 2409 0e96 9C       		.byte	0x9c
 2410 0e97 880F0000 		.4byte	0xf88
 2411 0e9b 31       		.uleb128 0x31
 2412 0e9c 6900     		.ascii	"i\000"
 2413 0e9e 02       		.byte	0x2
 2414 0e9f 9D       		.byte	0x9d
 2415 0ea0 11090000 		.4byte	0x911
 2416 0ea4 00       		.byte	0
 2417 0ea5 2E       		.uleb128 0x2e
 2418 0ea6 0C000000 		.4byte	.LVL33
 2419 0eaa 930B0000 		.4byte	0xb93
 2420 0eae C20E0000 		.4byte	0xec2
 2421 0eb2 2A       		.uleb128 0x2a
 2422 0eb3 01       		.uleb128 0x1
 2423 0eb4 51       		.byte	0x51
 2424 0eb5 05       		.uleb128 0x5
 2425 0eb6 03       		.byte	0x3
ARM GAS  C:\Users\jo\AppData\Local\Temp\ccRoOONZ.s 			page 45


 2426 0eb7 60010000 		.4byte	.LC23
 2427 0ebb 2A       		.uleb128 0x2a
 2428 0ebc 01       		.uleb128 0x1
 2429 0ebd 50       		.byte	0x50
 2430 0ebe 02       		.uleb128 0x2
 2431 0ebf 74       		.byte	0x74
 2432 0ec0 00       		.sleb128 0
 2433 0ec1 00       		.byte	0
 2434 0ec2 2E       		.uleb128 0x2e
 2435 0ec3 16000000 		.4byte	.LVL34
 2436 0ec7 930B0000 		.4byte	0xb93
 2437 0ecb DF0E0000 		.4byte	0xedf
 2438 0ecf 2A       		.uleb128 0x2a
 2439 0ed0 01       		.uleb128 0x1
 2440 0ed1 51       		.byte	0x51
 2441 0ed2 05       		.uleb128 0x5
 2442 0ed3 03       		.byte	0x3
 2443 0ed4 68010000 		.4byte	.LC24
 2444 0ed8 2A       		.uleb128 0x2a
 2445 0ed9 01       		.uleb128 0x1
 2446 0eda 50       		.byte	0x50
 2447 0edb 02       		.uleb128 0x2
 2448 0edc 74       		.byte	0x74
 2449 0edd 18       		.sleb128 24
 2450 0ede 00       		.byte	0
 2451 0edf 2E       		.uleb128 0x2e
 2452 0ee0 20000000 		.4byte	.LVL35
 2453 0ee4 930B0000 		.4byte	0xb93
 2454 0ee8 FC0E0000 		.4byte	0xefc
 2455 0eec 2A       		.uleb128 0x2a
 2456 0eed 01       		.uleb128 0x1
 2457 0eee 51       		.byte	0x51
 2458 0eef 05       		.uleb128 0x5
 2459 0ef0 03       		.byte	0x3
 2460 0ef1 70010000 		.4byte	.LC25
 2461 0ef5 2A       		.uleb128 0x2a
 2462 0ef6 01       		.uleb128 0x1
 2463 0ef7 50       		.byte	0x50
 2464 0ef8 02       		.uleb128 0x2
 2465 0ef9 74       		.byte	0x74
 2466 0efa 30       		.sleb128 48
 2467 0efb 00       		.byte	0
 2468 0efc 2E       		.uleb128 0x2e
 2469 0efd 2A000000 		.4byte	.LVL36
 2470 0f01 930B0000 		.4byte	0xb93
 2471 0f05 1A0F0000 		.4byte	0xf1a
 2472 0f09 2A       		.uleb128 0x2a
 2473 0f0a 01       		.uleb128 0x1
 2474 0f0b 51       		.byte	0x51
 2475 0f0c 05       		.uleb128 0x5
 2476 0f0d 03       		.byte	0x3
 2477 0f0e 78010000 		.4byte	.LC26
 2478 0f12 2A       		.uleb128 0x2a
 2479 0f13 01       		.uleb128 0x1
 2480 0f14 50       		.byte	0x50
 2481 0f15 03       		.uleb128 0x3
 2482 0f16 74       		.byte	0x74
ARM GAS  C:\Users\jo\AppData\Local\Temp\ccRoOONZ.s 			page 46


 2483 0f17 C800     		.sleb128 72
 2484 0f19 00       		.byte	0
 2485 0f1a 2E       		.uleb128 0x2e
 2486 0f1b 34000000 		.4byte	.LVL37
 2487 0f1f 930B0000 		.4byte	0xb93
 2488 0f23 380F0000 		.4byte	0xf38
 2489 0f27 2A       		.uleb128 0x2a
 2490 0f28 01       		.uleb128 0x1
 2491 0f29 51       		.byte	0x51
 2492 0f2a 05       		.uleb128 0x5
 2493 0f2b 03       		.byte	0x3
 2494 0f2c 7C010000 		.4byte	.LC27
 2495 0f30 2A       		.uleb128 0x2a
 2496 0f31 01       		.uleb128 0x1
 2497 0f32 50       		.byte	0x50
 2498 0f33 03       		.uleb128 0x3
 2499 0f34 74       		.byte	0x74
 2500 0f35 E000     		.sleb128 96
 2501 0f37 00       		.byte	0
 2502 0f38 2E       		.uleb128 0x2e
 2503 0f39 3E000000 		.4byte	.LVL38
 2504 0f3d 930B0000 		.4byte	0xb93
 2505 0f41 560F0000 		.4byte	0xf56
 2506 0f45 2A       		.uleb128 0x2a
 2507 0f46 01       		.uleb128 0x1
 2508 0f47 51       		.byte	0x51
 2509 0f48 05       		.uleb128 0x5
 2510 0f49 03       		.byte	0x3
 2511 0f4a 84010000 		.4byte	.LC28
 2512 0f4e 2A       		.uleb128 0x2a
 2513 0f4f 01       		.uleb128 0x1
 2514 0f50 50       		.byte	0x50
 2515 0f51 03       		.uleb128 0x3
 2516 0f52 74       		.byte	0x74
 2517 0f53 F800     		.sleb128 120
 2518 0f55 00       		.byte	0
 2519 0f56 2E       		.uleb128 0x2e
 2520 0f57 48000000 		.4byte	.LVL39
 2521 0f5b 930B0000 		.4byte	0xb93
 2522 0f5f 740F0000 		.4byte	0xf74
 2523 0f63 2A       		.uleb128 0x2a
 2524 0f64 01       		.uleb128 0x1
 2525 0f65 51       		.byte	0x51
 2526 0f66 05       		.uleb128 0x5
 2527 0f67 03       		.byte	0x3
 2528 0f68 88010000 		.4byte	.LC29
 2529 0f6c 2A       		.uleb128 0x2a
 2530 0f6d 01       		.uleb128 0x1
 2531 0f6e 50       		.byte	0x50
 2532 0f6f 03       		.uleb128 0x3
 2533 0f70 74       		.byte	0x74
 2534 0f71 9001     		.sleb128 144
 2535 0f73 00       		.byte	0
 2536 0f74 2F       		.uleb128 0x2f
 2537 0f75 54000000 		.4byte	.LVL40
 2538 0f79 430D0000 		.4byte	0xd43
 2539 0f7d 2A       		.uleb128 0x2a
ARM GAS  C:\Users\jo\AppData\Local\Temp\ccRoOONZ.s 			page 47


 2540 0f7e 01       		.uleb128 0x1
 2541 0f7f 50       		.byte	0x50
 2542 0f80 05       		.uleb128 0x5
 2543 0f81 03       		.byte	0x3
 2544 0f82 A8000000 		.4byte	.LANCHOR0+168
 2545 0f86 00       		.byte	0
 2546 0f87 00       		.byte	0
 2547 0f88 32       		.uleb128 0x32
 2548 0f89 31060000 		.4byte	.LASF180
 2549 0f8d 15       		.byte	0x15
 2550 0f8e A706     		.2byte	0x6a7
 2551 0f90 FA000000 		.4byte	0xfa
 2552 0f94 33       		.uleb128 0x33
 2553 0f95 636800   		.ascii	"ch\000"
 2554 0f98 08       		.byte	0x8
 2555 0f99 EB01     		.2byte	0x1eb
 2556 0f9b 57040000 		.4byte	0x457
 2557 0f9f 34       		.uleb128 0x34
 2558 0fa0 04080000 		.4byte	.LASF181
 2559 0fa4 13       		.byte	0x13
 2560 0fa5 3B       		.byte	0x3b
 2561 0fa6 F0080000 		.4byte	0x8f0
 2562 0faa 35       		.uleb128 0x35
 2563 0fab 24000000 		.4byte	.LASF182
 2564 0faf 02       		.byte	0x2
 2565 0fb0 31       		.byte	0x31
 2566 0fb1 820A0000 		.4byte	0xa82
 2567 0fb5 05       		.uleb128 0x5
 2568 0fb6 03       		.byte	0x3
 2569 0fb7 00000000 		.4byte	lwip_stats
 2570 0fbb 36       		.uleb128 0x36
 2571 0fbc 41080000 		.4byte	.LASF188
 2572 0fc0 01       		.byte	0x1
 2573 0fc1 28       		.byte	0x28
 2574 0fc2 25000000 		.4byte	0x25
 2575 0fc6 0D       		.uleb128 0xd
 2576 0fc7 2B0B0000 		.4byte	0xb2b
 2577 0fcb 0D       		.uleb128 0xd
 2578 0fcc AF050000 		.4byte	0x5af
 2579 0fd0 0D       		.uleb128 0xd
 2580 0fd1 FB080000 		.4byte	0x8fb
 2581 0fd5 00       		.byte	0
 2582 0fd6 00       		.byte	0
 2583              		.section	.debug_abbrev,"",%progbits
 2584              	.Ldebug_abbrev0:
 2585 0000 01       		.uleb128 0x1
 2586 0001 11       		.uleb128 0x11
 2587 0002 01       		.byte	0x1
 2588 0003 25       		.uleb128 0x25
 2589 0004 0E       		.uleb128 0xe
 2590 0005 13       		.uleb128 0x13
 2591 0006 0B       		.uleb128 0xb
 2592 0007 03       		.uleb128 0x3
 2593 0008 0E       		.uleb128 0xe
 2594 0009 1B       		.uleb128 0x1b
 2595 000a 0E       		.uleb128 0xe
 2596 000b 55       		.uleb128 0x55
ARM GAS  C:\Users\jo\AppData\Local\Temp\ccRoOONZ.s 			page 48


 2597 000c 17       		.uleb128 0x17
 2598 000d 11       		.uleb128 0x11
 2599 000e 01       		.uleb128 0x1
 2600 000f 10       		.uleb128 0x10
 2601 0010 17       		.uleb128 0x17
 2602 0011 00       		.byte	0
 2603 0012 00       		.byte	0
 2604 0013 02       		.uleb128 0x2
 2605 0014 24       		.uleb128 0x24
 2606 0015 00       		.byte	0
 2607 0016 0B       		.uleb128 0xb
 2608 0017 0B       		.uleb128 0xb
 2609 0018 3E       		.uleb128 0x3e
 2610 0019 0B       		.uleb128 0xb
 2611 001a 03       		.uleb128 0x3
 2612 001b 08       		.uleb128 0x8
 2613 001c 00       		.byte	0
 2614 001d 00       		.byte	0
 2615 001e 03       		.uleb128 0x3
 2616 001f 16       		.uleb128 0x16
 2617 0020 00       		.byte	0
 2618 0021 03       		.uleb128 0x3
 2619 0022 0E       		.uleb128 0xe
 2620 0023 3A       		.uleb128 0x3a
 2621 0024 0B       		.uleb128 0xb
 2622 0025 3B       		.uleb128 0x3b
 2623 0026 0B       		.uleb128 0xb
 2624 0027 49       		.uleb128 0x49
 2625 0028 13       		.uleb128 0x13
 2626 0029 00       		.byte	0
 2627 002a 00       		.byte	0
 2628 002b 04       		.uleb128 0x4
 2629 002c 24       		.uleb128 0x24
 2630 002d 00       		.byte	0
 2631 002e 0B       		.uleb128 0xb
 2632 002f 0B       		.uleb128 0xb
 2633 0030 3E       		.uleb128 0x3e
 2634 0031 0B       		.uleb128 0xb
 2635 0032 03       		.uleb128 0x3
 2636 0033 0E       		.uleb128 0xe
 2637 0034 00       		.byte	0
 2638 0035 00       		.byte	0
 2639 0036 05       		.uleb128 0x5
 2640 0037 35       		.uleb128 0x35
 2641 0038 00       		.byte	0
 2642 0039 49       		.uleb128 0x49
 2643 003a 13       		.uleb128 0x13
 2644 003b 00       		.byte	0
 2645 003c 00       		.byte	0
 2646 003d 06       		.uleb128 0x6
 2647 003e 13       		.uleb128 0x13
 2648 003f 01       		.byte	0x1
 2649 0040 03       		.uleb128 0x3
 2650 0041 0E       		.uleb128 0xe
 2651 0042 0B       		.uleb128 0xb
 2652 0043 0B       		.uleb128 0xb
 2653 0044 3A       		.uleb128 0x3a
ARM GAS  C:\Users\jo\AppData\Local\Temp\ccRoOONZ.s 			page 49


 2654 0045 0B       		.uleb128 0xb
 2655 0046 3B       		.uleb128 0x3b
 2656 0047 0B       		.uleb128 0xb
 2657 0048 01       		.uleb128 0x1
 2658 0049 13       		.uleb128 0x13
 2659 004a 00       		.byte	0
 2660 004b 00       		.byte	0
 2661 004c 07       		.uleb128 0x7
 2662 004d 0D       		.uleb128 0xd
 2663 004e 00       		.byte	0
 2664 004f 03       		.uleb128 0x3
 2665 0050 0E       		.uleb128 0xe
 2666 0051 3A       		.uleb128 0x3a
 2667 0052 0B       		.uleb128 0xb
 2668 0053 3B       		.uleb128 0x3b
 2669 0054 0B       		.uleb128 0xb
 2670 0055 49       		.uleb128 0x49
 2671 0056 13       		.uleb128 0x13
 2672 0057 38       		.uleb128 0x38
 2673 0058 0B       		.uleb128 0xb
 2674 0059 00       		.byte	0
 2675 005a 00       		.byte	0
 2676 005b 08       		.uleb128 0x8
 2677 005c 0D       		.uleb128 0xd
 2678 005d 00       		.byte	0
 2679 005e 03       		.uleb128 0x3
 2680 005f 08       		.uleb128 0x8
 2681 0060 3A       		.uleb128 0x3a
 2682 0061 0B       		.uleb128 0xb
 2683 0062 3B       		.uleb128 0x3b
 2684 0063 05       		.uleb128 0x5
 2685 0064 49       		.uleb128 0x49
 2686 0065 13       		.uleb128 0x13
 2687 0066 38       		.uleb128 0x38
 2688 0067 0B       		.uleb128 0xb
 2689 0068 00       		.byte	0
 2690 0069 00       		.byte	0
 2691 006a 09       		.uleb128 0x9
 2692 006b 0D       		.uleb128 0xd
 2693 006c 00       		.byte	0
 2694 006d 03       		.uleb128 0x3
 2695 006e 0E       		.uleb128 0xe
 2696 006f 3A       		.uleb128 0x3a
 2697 0070 0B       		.uleb128 0xb
 2698 0071 3B       		.uleb128 0x3b
 2699 0072 05       		.uleb128 0x5
 2700 0073 49       		.uleb128 0x49
 2701 0074 13       		.uleb128 0x13
 2702 0075 38       		.uleb128 0x38
 2703 0076 0B       		.uleb128 0xb
 2704 0077 00       		.byte	0
 2705 0078 00       		.byte	0
 2706 0079 0A       		.uleb128 0xa
 2707 007a 13       		.uleb128 0x13
 2708 007b 01       		.byte	0x1
 2709 007c 03       		.uleb128 0x3
 2710 007d 0E       		.uleb128 0xe
ARM GAS  C:\Users\jo\AppData\Local\Temp\ccRoOONZ.s 			page 50


 2711 007e 0B       		.uleb128 0xb
 2712 007f 0B       		.uleb128 0xb
 2713 0080 3A       		.uleb128 0x3a
 2714 0081 0B       		.uleb128 0xb
 2715 0082 3B       		.uleb128 0x3b
 2716 0083 05       		.uleb128 0x5
 2717 0084 01       		.uleb128 0x1
 2718 0085 13       		.uleb128 0x13
 2719 0086 00       		.byte	0
 2720 0087 00       		.byte	0
 2721 0088 0B       		.uleb128 0xb
 2722 0089 0F       		.uleb128 0xf
 2723 008a 00       		.byte	0
 2724 008b 0B       		.uleb128 0xb
 2725 008c 0B       		.uleb128 0xb
 2726 008d 49       		.uleb128 0x49
 2727 008e 13       		.uleb128 0x13
 2728 008f 00       		.byte	0
 2729 0090 00       		.byte	0
 2730 0091 0C       		.uleb128 0xc
 2731 0092 15       		.uleb128 0x15
 2732 0093 01       		.byte	0x1
 2733 0094 27       		.uleb128 0x27
 2734 0095 19       		.uleb128 0x19
 2735 0096 01       		.uleb128 0x1
 2736 0097 13       		.uleb128 0x13
 2737 0098 00       		.byte	0
 2738 0099 00       		.byte	0
 2739 009a 0D       		.uleb128 0xd
 2740 009b 05       		.uleb128 0x5
 2741 009c 00       		.byte	0
 2742 009d 49       		.uleb128 0x49
 2743 009e 13       		.uleb128 0x13
 2744 009f 00       		.byte	0
 2745 00a0 00       		.byte	0
 2746 00a1 0E       		.uleb128 0xe
 2747 00a2 0F       		.uleb128 0xf
 2748 00a3 00       		.byte	0
 2749 00a4 0B       		.uleb128 0xb
 2750 00a5 0B       		.uleb128 0xb
 2751 00a6 00       		.byte	0
 2752 00a7 00       		.byte	0
 2753 00a8 0F       		.uleb128 0xf
 2754 00a9 13       		.uleb128 0x13
 2755 00aa 01       		.byte	0x1
 2756 00ab 03       		.uleb128 0x3
 2757 00ac 0E       		.uleb128 0xe
 2758 00ad 0B       		.uleb128 0xb
 2759 00ae 05       		.uleb128 0x5
 2760 00af 3A       		.uleb128 0x3a
 2761 00b0 0B       		.uleb128 0xb
 2762 00b1 3B       		.uleb128 0x3b
 2763 00b2 05       		.uleb128 0x5
 2764 00b3 01       		.uleb128 0x1
 2765 00b4 13       		.uleb128 0x13
 2766 00b5 00       		.byte	0
 2767 00b6 00       		.byte	0
ARM GAS  C:\Users\jo\AppData\Local\Temp\ccRoOONZ.s 			page 51


 2768 00b7 10       		.uleb128 0x10
 2769 00b8 0D       		.uleb128 0xd
 2770 00b9 00       		.byte	0
 2771 00ba 03       		.uleb128 0x3
 2772 00bb 0E       		.uleb128 0xe
 2773 00bc 3A       		.uleb128 0x3a
 2774 00bd 0B       		.uleb128 0xb
 2775 00be 3B       		.uleb128 0x3b
 2776 00bf 05       		.uleb128 0x5
 2777 00c0 49       		.uleb128 0x49
 2778 00c1 13       		.uleb128 0x13
 2779 00c2 38       		.uleb128 0x38
 2780 00c3 05       		.uleb128 0x5
 2781 00c4 00       		.byte	0
 2782 00c5 00       		.byte	0
 2783 00c6 11       		.uleb128 0x11
 2784 00c7 0D       		.uleb128 0xd
 2785 00c8 00       		.byte	0
 2786 00c9 03       		.uleb128 0x3
 2787 00ca 08       		.uleb128 0x8
 2788 00cb 3A       		.uleb128 0x3a
 2789 00cc 0B       		.uleb128 0xb
 2790 00cd 3B       		.uleb128 0x3b
 2791 00ce 05       		.uleb128 0x5
 2792 00cf 49       		.uleb128 0x49
 2793 00d0 13       		.uleb128 0x13
 2794 00d1 38       		.uleb128 0x38
 2795 00d2 05       		.uleb128 0x5
 2796 00d3 00       		.byte	0
 2797 00d4 00       		.byte	0
 2798 00d5 12       		.uleb128 0x12
 2799 00d6 0D       		.uleb128 0xd
 2800 00d7 00       		.byte	0
 2801 00d8 03       		.uleb128 0x3
 2802 00d9 08       		.uleb128 0x8
 2803 00da 3A       		.uleb128 0x3a
 2804 00db 0B       		.uleb128 0xb
 2805 00dc 3B       		.uleb128 0x3b
 2806 00dd 0B       		.uleb128 0xb
 2807 00de 49       		.uleb128 0x49
 2808 00df 13       		.uleb128 0x13
 2809 00e0 38       		.uleb128 0x38
 2810 00e1 0B       		.uleb128 0xb
 2811 00e2 00       		.byte	0
 2812 00e3 00       		.byte	0
 2813 00e4 13       		.uleb128 0x13
 2814 00e5 0D       		.uleb128 0xd
 2815 00e6 00       		.byte	0
 2816 00e7 03       		.uleb128 0x3
 2817 00e8 0E       		.uleb128 0xe
 2818 00e9 49       		.uleb128 0x49
 2819 00ea 13       		.uleb128 0x13
 2820 00eb 38       		.uleb128 0x38
 2821 00ec 0B       		.uleb128 0xb
 2822 00ed 34       		.uleb128 0x34
 2823 00ee 19       		.uleb128 0x19
 2824 00ef 00       		.byte	0
ARM GAS  C:\Users\jo\AppData\Local\Temp\ccRoOONZ.s 			page 52


 2825 00f0 00       		.byte	0
 2826 00f1 14       		.uleb128 0x14
 2827 00f2 26       		.uleb128 0x26
 2828 00f3 00       		.byte	0
 2829 00f4 49       		.uleb128 0x49
 2830 00f5 13       		.uleb128 0x13
 2831 00f6 00       		.byte	0
 2832 00f7 00       		.byte	0
 2833 00f8 15       		.uleb128 0x15
 2834 00f9 13       		.uleb128 0x13
 2835 00fa 01       		.byte	0x1
 2836 00fb 0B       		.uleb128 0xb
 2837 00fc 0B       		.uleb128 0xb
 2838 00fd 3A       		.uleb128 0x3a
 2839 00fe 0B       		.uleb128 0xb
 2840 00ff 3B       		.uleb128 0x3b
 2841 0100 0B       		.uleb128 0xb
 2842 0101 01       		.uleb128 0x1
 2843 0102 13       		.uleb128 0x13
 2844 0103 00       		.byte	0
 2845 0104 00       		.byte	0
 2846 0105 16       		.uleb128 0x16
 2847 0106 13       		.uleb128 0x13
 2848 0107 01       		.byte	0x1
 2849 0108 0B       		.uleb128 0xb
 2850 0109 05       		.uleb128 0x5
 2851 010a 3A       		.uleb128 0x3a
 2852 010b 0B       		.uleb128 0xb
 2853 010c 3B       		.uleb128 0x3b
 2854 010d 0B       		.uleb128 0xb
 2855 010e 01       		.uleb128 0x1
 2856 010f 13       		.uleb128 0x13
 2857 0110 00       		.byte	0
 2858 0111 00       		.byte	0
 2859 0112 17       		.uleb128 0x17
 2860 0113 01       		.uleb128 0x1
 2861 0114 01       		.byte	0x1
 2862 0115 49       		.uleb128 0x49
 2863 0116 13       		.uleb128 0x13
 2864 0117 01       		.uleb128 0x1
 2865 0118 13       		.uleb128 0x13
 2866 0119 00       		.byte	0
 2867 011a 00       		.byte	0
 2868 011b 18       		.uleb128 0x18
 2869 011c 21       		.uleb128 0x21
 2870 011d 00       		.byte	0
 2871 011e 49       		.uleb128 0x49
 2872 011f 13       		.uleb128 0x13
 2873 0120 2F       		.uleb128 0x2f
 2874 0121 0B       		.uleb128 0xb
 2875 0122 00       		.byte	0
 2876 0123 00       		.byte	0
 2877 0124 19       		.uleb128 0x19
 2878 0125 17       		.uleb128 0x17
 2879 0126 01       		.byte	0x1
 2880 0127 0B       		.uleb128 0xb
 2881 0128 0B       		.uleb128 0xb
ARM GAS  C:\Users\jo\AppData\Local\Temp\ccRoOONZ.s 			page 53


 2882 0129 3A       		.uleb128 0x3a
 2883 012a 0B       		.uleb128 0xb
 2884 012b 3B       		.uleb128 0x3b
 2885 012c 0B       		.uleb128 0xb
 2886 012d 01       		.uleb128 0x1
 2887 012e 13       		.uleb128 0x13
 2888 012f 00       		.byte	0
 2889 0130 00       		.byte	0
 2890 0131 1A       		.uleb128 0x1a
 2891 0132 0D       		.uleb128 0xd
 2892 0133 00       		.byte	0
 2893 0134 03       		.uleb128 0x3
 2894 0135 0E       		.uleb128 0xe
 2895 0136 3A       		.uleb128 0x3a
 2896 0137 0B       		.uleb128 0xb
 2897 0138 3B       		.uleb128 0x3b
 2898 0139 0B       		.uleb128 0xb
 2899 013a 49       		.uleb128 0x49
 2900 013b 13       		.uleb128 0x13
 2901 013c 00       		.byte	0
 2902 013d 00       		.byte	0
 2903 013e 1B       		.uleb128 0x1b
 2904 013f 0D       		.uleb128 0xd
 2905 0140 00       		.byte	0
 2906 0141 03       		.uleb128 0x3
 2907 0142 0E       		.uleb128 0xe
 2908 0143 3A       		.uleb128 0x3a
 2909 0144 0B       		.uleb128 0xb
 2910 0145 3B       		.uleb128 0x3b
 2911 0146 05       		.uleb128 0x5
 2912 0147 49       		.uleb128 0x49
 2913 0148 13       		.uleb128 0x13
 2914 0149 00       		.byte	0
 2915 014a 00       		.byte	0
 2916 014b 1C       		.uleb128 0x1c
 2917 014c 15       		.uleb128 0x15
 2918 014d 01       		.byte	0x1
 2919 014e 27       		.uleb128 0x27
 2920 014f 19       		.uleb128 0x19
 2921 0150 49       		.uleb128 0x49
 2922 0151 13       		.uleb128 0x13
 2923 0152 01       		.uleb128 0x1
 2924 0153 13       		.uleb128 0x13
 2925 0154 00       		.byte	0
 2926 0155 00       		.byte	0
 2927 0156 1D       		.uleb128 0x1d
 2928 0157 04       		.uleb128 0x4
 2929 0158 01       		.byte	0x1
 2930 0159 0B       		.uleb128 0xb
 2931 015a 0B       		.uleb128 0xb
 2932 015b 3A       		.uleb128 0x3a
 2933 015c 0B       		.uleb128 0xb
 2934 015d 3B       		.uleb128 0x3b
 2935 015e 0B       		.uleb128 0xb
 2936 015f 01       		.uleb128 0x1
 2937 0160 13       		.uleb128 0x13
 2938 0161 00       		.byte	0
ARM GAS  C:\Users\jo\AppData\Local\Temp\ccRoOONZ.s 			page 54


 2939 0162 00       		.byte	0
 2940 0163 1E       		.uleb128 0x1e
 2941 0164 28       		.uleb128 0x28
 2942 0165 00       		.byte	0
 2943 0166 03       		.uleb128 0x3
 2944 0167 0E       		.uleb128 0xe
 2945 0168 1C       		.uleb128 0x1c
 2946 0169 0D       		.uleb128 0xd
 2947 016a 00       		.byte	0
 2948 016b 00       		.byte	0
 2949 016c 1F       		.uleb128 0x1f
 2950 016d 2E       		.uleb128 0x2e
 2951 016e 01       		.byte	0x1
 2952 016f 03       		.uleb128 0x3
 2953 0170 0E       		.uleb128 0xe
 2954 0171 3A       		.uleb128 0x3a
 2955 0172 0B       		.uleb128 0xb
 2956 0173 3B       		.uleb128 0x3b
 2957 0174 0B       		.uleb128 0xb
 2958 0175 27       		.uleb128 0x27
 2959 0176 19       		.uleb128 0x19
 2960 0177 49       		.uleb128 0x49
 2961 0178 13       		.uleb128 0x13
 2962 0179 20       		.uleb128 0x20
 2963 017a 0B       		.uleb128 0xb
 2964 017b 01       		.uleb128 0x1
 2965 017c 13       		.uleb128 0x13
 2966 017d 00       		.byte	0
 2967 017e 00       		.byte	0
 2968 017f 20       		.uleb128 0x20
 2969 0180 05       		.uleb128 0x5
 2970 0181 00       		.byte	0
 2971 0182 03       		.uleb128 0x3
 2972 0183 08       		.uleb128 0x8
 2973 0184 3A       		.uleb128 0x3a
 2974 0185 0B       		.uleb128 0xb
 2975 0186 3B       		.uleb128 0x3b
 2976 0187 0B       		.uleb128 0xb
 2977 0188 49       		.uleb128 0x49
 2978 0189 13       		.uleb128 0x13
 2979 018a 00       		.byte	0
 2980 018b 00       		.byte	0
 2981 018c 21       		.uleb128 0x21
 2982 018d 18       		.uleb128 0x18
 2983 018e 00       		.byte	0
 2984 018f 00       		.byte	0
 2985 0190 00       		.byte	0
 2986 0191 22       		.uleb128 0x22
 2987 0192 34       		.uleb128 0x34
 2988 0193 00       		.byte	0
 2989 0194 03       		.uleb128 0x3
 2990 0195 08       		.uleb128 0x8
 2991 0196 3A       		.uleb128 0x3a
 2992 0197 0B       		.uleb128 0xb
 2993 0198 3B       		.uleb128 0x3b
 2994 0199 0B       		.uleb128 0xb
 2995 019a 49       		.uleb128 0x49
ARM GAS  C:\Users\jo\AppData\Local\Temp\ccRoOONZ.s 			page 55


 2996 019b 13       		.uleb128 0x13
 2997 019c 00       		.byte	0
 2998 019d 00       		.byte	0
 2999 019e 23       		.uleb128 0x23
 3000 019f 34       		.uleb128 0x34
 3001 01a0 00       		.byte	0
 3002 01a1 03       		.uleb128 0x3
 3003 01a2 0E       		.uleb128 0xe
 3004 01a3 3A       		.uleb128 0x3a
 3005 01a4 0B       		.uleb128 0xb
 3006 01a5 3B       		.uleb128 0x3b
 3007 01a6 0B       		.uleb128 0xb
 3008 01a7 49       		.uleb128 0x49
 3009 01a8 13       		.uleb128 0x13
 3010 01a9 00       		.byte	0
 3011 01aa 00       		.byte	0
 3012 01ab 24       		.uleb128 0x24
 3013 01ac 2E       		.uleb128 0x2e
 3014 01ad 01       		.byte	0x1
 3015 01ae 31       		.uleb128 0x31
 3016 01af 13       		.uleb128 0x13
 3017 01b0 11       		.uleb128 0x11
 3018 01b1 01       		.uleb128 0x1
 3019 01b2 12       		.uleb128 0x12
 3020 01b3 06       		.uleb128 0x6
 3021 01b4 40       		.uleb128 0x40
 3022 01b5 18       		.uleb128 0x18
 3023 01b6 9742     		.uleb128 0x2117
 3024 01b8 19       		.uleb128 0x19
 3025 01b9 01       		.uleb128 0x1
 3026 01ba 13       		.uleb128 0x13
 3027 01bb 00       		.byte	0
 3028 01bc 00       		.byte	0
 3029 01bd 25       		.uleb128 0x25
 3030 01be 05       		.uleb128 0x5
 3031 01bf 00       		.byte	0
 3032 01c0 31       		.uleb128 0x31
 3033 01c1 13       		.uleb128 0x13
 3034 01c2 02       		.uleb128 0x2
 3035 01c3 17       		.uleb128 0x17
 3036 01c4 00       		.byte	0
 3037 01c5 00       		.byte	0
 3038 01c6 26       		.uleb128 0x26
 3039 01c7 05       		.uleb128 0x5
 3040 01c8 00       		.byte	0
 3041 01c9 31       		.uleb128 0x31
 3042 01ca 13       		.uleb128 0x13
 3043 01cb 02       		.uleb128 0x2
 3044 01cc 18       		.uleb128 0x18
 3045 01cd 00       		.byte	0
 3046 01ce 00       		.byte	0
 3047 01cf 27       		.uleb128 0x27
 3048 01d0 34       		.uleb128 0x34
 3049 01d1 00       		.byte	0
 3050 01d2 31       		.uleb128 0x31
 3051 01d3 13       		.uleb128 0x13
 3052 01d4 02       		.uleb128 0x2
ARM GAS  C:\Users\jo\AppData\Local\Temp\ccRoOONZ.s 			page 56


 3053 01d5 18       		.uleb128 0x18
 3054 01d6 00       		.byte	0
 3055 01d7 00       		.byte	0
 3056 01d8 28       		.uleb128 0x28
 3057 01d9 05       		.uleb128 0x5
 3058 01da 00       		.byte	0
 3059 01db 31       		.uleb128 0x31
 3060 01dc 13       		.uleb128 0x13
 3061 01dd 00       		.byte	0
 3062 01de 00       		.byte	0
 3063 01df 29       		.uleb128 0x29
 3064 01e0 898201   		.uleb128 0x4109
 3065 01e3 01       		.byte	0x1
 3066 01e4 11       		.uleb128 0x11
 3067 01e5 01       		.uleb128 0x1
 3068 01e6 31       		.uleb128 0x31
 3069 01e7 13       		.uleb128 0x13
 3070 01e8 00       		.byte	0
 3071 01e9 00       		.byte	0
 3072 01ea 2A       		.uleb128 0x2a
 3073 01eb 8A8201   		.uleb128 0x410a
 3074 01ee 00       		.byte	0
 3075 01ef 02       		.uleb128 0x2
 3076 01f0 18       		.uleb128 0x18
 3077 01f1 9142     		.uleb128 0x2111
 3078 01f3 18       		.uleb128 0x18
 3079 01f4 00       		.byte	0
 3080 01f5 00       		.byte	0
 3081 01f6 2B       		.uleb128 0x2b
 3082 01f7 2E       		.uleb128 0x2e
 3083 01f8 00       		.byte	0
 3084 01f9 3F       		.uleb128 0x3f
 3085 01fa 19       		.uleb128 0x19
 3086 01fb 03       		.uleb128 0x3
 3087 01fc 0E       		.uleb128 0xe
 3088 01fd 3A       		.uleb128 0x3a
 3089 01fe 0B       		.uleb128 0xb
 3090 01ff 3B       		.uleb128 0x3b
 3091 0200 0B       		.uleb128 0xb
 3092 0201 27       		.uleb128 0x27
 3093 0202 19       		.uleb128 0x19
 3094 0203 11       		.uleb128 0x11
 3095 0204 01       		.uleb128 0x1
 3096 0205 12       		.uleb128 0x12
 3097 0206 06       		.uleb128 0x6
 3098 0207 40       		.uleb128 0x40
 3099 0208 18       		.uleb128 0x18
 3100 0209 9742     		.uleb128 0x2117
 3101 020b 19       		.uleb128 0x19
 3102 020c 00       		.byte	0
 3103 020d 00       		.byte	0
 3104 020e 2C       		.uleb128 0x2c
 3105 020f 2E       		.uleb128 0x2e
 3106 0210 01       		.byte	0x1
 3107 0211 3F       		.uleb128 0x3f
 3108 0212 19       		.uleb128 0x19
 3109 0213 03       		.uleb128 0x3
ARM GAS  C:\Users\jo\AppData\Local\Temp\ccRoOONZ.s 			page 57


 3110 0214 0E       		.uleb128 0xe
 3111 0215 3A       		.uleb128 0x3a
 3112 0216 0B       		.uleb128 0xb
 3113 0217 3B       		.uleb128 0x3b
 3114 0218 0B       		.uleb128 0xb
 3115 0219 27       		.uleb128 0x27
 3116 021a 19       		.uleb128 0x19
 3117 021b 11       		.uleb128 0x11
 3118 021c 01       		.uleb128 0x1
 3119 021d 12       		.uleb128 0x12
 3120 021e 06       		.uleb128 0x6
 3121 021f 40       		.uleb128 0x40
 3122 0220 18       		.uleb128 0x18
 3123 0221 9742     		.uleb128 0x2117
 3124 0223 19       		.uleb128 0x19
 3125 0224 01       		.uleb128 0x1
 3126 0225 13       		.uleb128 0x13
 3127 0226 00       		.byte	0
 3128 0227 00       		.byte	0
 3129 0228 2D       		.uleb128 0x2d
 3130 0229 05       		.uleb128 0x5
 3131 022a 00       		.byte	0
 3132 022b 03       		.uleb128 0x3
 3133 022c 0E       		.uleb128 0xe
 3134 022d 3A       		.uleb128 0x3a
 3135 022e 0B       		.uleb128 0xb
 3136 022f 3B       		.uleb128 0x3b
 3137 0230 0B       		.uleb128 0xb
 3138 0231 49       		.uleb128 0x49
 3139 0232 13       		.uleb128 0x13
 3140 0233 02       		.uleb128 0x2
 3141 0234 17       		.uleb128 0x17
 3142 0235 00       		.byte	0
 3143 0236 00       		.byte	0
 3144 0237 2E       		.uleb128 0x2e
 3145 0238 898201   		.uleb128 0x4109
 3146 023b 01       		.byte	0x1
 3147 023c 11       		.uleb128 0x11
 3148 023d 01       		.uleb128 0x1
 3149 023e 31       		.uleb128 0x31
 3150 023f 13       		.uleb128 0x13
 3151 0240 01       		.uleb128 0x1
 3152 0241 13       		.uleb128 0x13
 3153 0242 00       		.byte	0
 3154 0243 00       		.byte	0
 3155 0244 2F       		.uleb128 0x2f
 3156 0245 898201   		.uleb128 0x4109
 3157 0248 01       		.byte	0x1
 3158 0249 11       		.uleb128 0x11
 3159 024a 01       		.uleb128 0x1
 3160 024b 9542     		.uleb128 0x2115
 3161 024d 19       		.uleb128 0x19
 3162 024e 31       		.uleb128 0x31
 3163 024f 13       		.uleb128 0x13
 3164 0250 00       		.byte	0
 3165 0251 00       		.byte	0
 3166 0252 30       		.uleb128 0x30
ARM GAS  C:\Users\jo\AppData\Local\Temp\ccRoOONZ.s 			page 58


 3167 0253 05       		.uleb128 0x5
 3168 0254 00       		.byte	0
 3169 0255 03       		.uleb128 0x3
 3170 0256 08       		.uleb128 0x8
 3171 0257 3A       		.uleb128 0x3a
 3172 0258 0B       		.uleb128 0xb
 3173 0259 3B       		.uleb128 0x3b
 3174 025a 0B       		.uleb128 0xb
 3175 025b 49       		.uleb128 0x49
 3176 025c 13       		.uleb128 0x13
 3177 025d 02       		.uleb128 0x2
 3178 025e 17       		.uleb128 0x17
 3179 025f 00       		.byte	0
 3180 0260 00       		.byte	0
 3181 0261 31       		.uleb128 0x31
 3182 0262 34       		.uleb128 0x34
 3183 0263 00       		.byte	0
 3184 0264 03       		.uleb128 0x3
 3185 0265 08       		.uleb128 0x8
 3186 0266 3A       		.uleb128 0x3a
 3187 0267 0B       		.uleb128 0xb
 3188 0268 3B       		.uleb128 0x3b
 3189 0269 0B       		.uleb128 0xb
 3190 026a 49       		.uleb128 0x49
 3191 026b 13       		.uleb128 0x13
 3192 026c 1C       		.uleb128 0x1c
 3193 026d 0B       		.uleb128 0xb
 3194 026e 00       		.byte	0
 3195 026f 00       		.byte	0
 3196 0270 32       		.uleb128 0x32
 3197 0271 34       		.uleb128 0x34
 3198 0272 00       		.byte	0
 3199 0273 03       		.uleb128 0x3
 3200 0274 0E       		.uleb128 0xe
 3201 0275 3A       		.uleb128 0x3a
 3202 0276 0B       		.uleb128 0xb
 3203 0277 3B       		.uleb128 0x3b
 3204 0278 05       		.uleb128 0x5
 3205 0279 49       		.uleb128 0x49
 3206 027a 13       		.uleb128 0x13
 3207 027b 3F       		.uleb128 0x3f
 3208 027c 19       		.uleb128 0x19
 3209 027d 3C       		.uleb128 0x3c
 3210 027e 19       		.uleb128 0x19
 3211 027f 00       		.byte	0
 3212 0280 00       		.byte	0
 3213 0281 33       		.uleb128 0x33
 3214 0282 34       		.uleb128 0x34
 3215 0283 00       		.byte	0
 3216 0284 03       		.uleb128 0x3
 3217 0285 08       		.uleb128 0x8
 3218 0286 3A       		.uleb128 0x3a
 3219 0287 0B       		.uleb128 0xb
 3220 0288 3B       		.uleb128 0x3b
 3221 0289 05       		.uleb128 0x5
 3222 028a 49       		.uleb128 0x49
 3223 028b 13       		.uleb128 0x13
ARM GAS  C:\Users\jo\AppData\Local\Temp\ccRoOONZ.s 			page 59


 3224 028c 3F       		.uleb128 0x3f
 3225 028d 19       		.uleb128 0x19
 3226 028e 3C       		.uleb128 0x3c
 3227 028f 19       		.uleb128 0x19
 3228 0290 00       		.byte	0
 3229 0291 00       		.byte	0
 3230 0292 34       		.uleb128 0x34
 3231 0293 34       		.uleb128 0x34
 3232 0294 00       		.byte	0
 3233 0295 03       		.uleb128 0x3
 3234 0296 0E       		.uleb128 0xe
 3235 0297 3A       		.uleb128 0x3a
 3236 0298 0B       		.uleb128 0xb
 3237 0299 3B       		.uleb128 0x3b
 3238 029a 0B       		.uleb128 0xb
 3239 029b 49       		.uleb128 0x49
 3240 029c 13       		.uleb128 0x13
 3241 029d 3F       		.uleb128 0x3f
 3242 029e 19       		.uleb128 0x19
 3243 029f 3C       		.uleb128 0x3c
 3244 02a0 19       		.uleb128 0x19
 3245 02a1 00       		.byte	0
 3246 02a2 00       		.byte	0
 3247 02a3 35       		.uleb128 0x35
 3248 02a4 34       		.uleb128 0x34
 3249 02a5 00       		.byte	0
 3250 02a6 03       		.uleb128 0x3
 3251 02a7 0E       		.uleb128 0xe
 3252 02a8 3A       		.uleb128 0x3a
 3253 02a9 0B       		.uleb128 0xb
 3254 02aa 3B       		.uleb128 0x3b
 3255 02ab 0B       		.uleb128 0xb
 3256 02ac 49       		.uleb128 0x49
 3257 02ad 13       		.uleb128 0x13
 3258 02ae 3F       		.uleb128 0x3f
 3259 02af 19       		.uleb128 0x19
 3260 02b0 02       		.uleb128 0x2
 3261 02b1 18       		.uleb128 0x18
 3262 02b2 00       		.byte	0
 3263 02b3 00       		.byte	0
 3264 02b4 36       		.uleb128 0x36
 3265 02b5 2E       		.uleb128 0x2e
 3266 02b6 01       		.byte	0x1
 3267 02b7 3F       		.uleb128 0x3f
 3268 02b8 19       		.uleb128 0x19
 3269 02b9 03       		.uleb128 0x3
 3270 02ba 0E       		.uleb128 0xe
 3271 02bb 3A       		.uleb128 0x3a
 3272 02bc 0B       		.uleb128 0xb
 3273 02bd 3B       		.uleb128 0x3b
 3274 02be 0B       		.uleb128 0xb
 3275 02bf 27       		.uleb128 0x27
 3276 02c0 19       		.uleb128 0x19
 3277 02c1 49       		.uleb128 0x49
 3278 02c2 13       		.uleb128 0x13
 3279 02c3 3C       		.uleb128 0x3c
 3280 02c4 19       		.uleb128 0x19
ARM GAS  C:\Users\jo\AppData\Local\Temp\ccRoOONZ.s 			page 60


 3281 02c5 00       		.byte	0
 3282 02c6 00       		.byte	0
 3283 02c7 00       		.byte	0
 3284              		.section	.debug_loc,"",%progbits
 3285              	.Ldebug_loc0:
 3286              	.LLST0:
 3287 0000 00000000 		.4byte	.LVL0
 3288 0004 0A000000 		.4byte	.LVL1
 3289 0008 0100     		.2byte	0x1
 3290 000a 50       		.byte	0x50
 3291 000b 0A000000 		.4byte	.LVL1
 3292 000f 24000000 		.4byte	.LFE260
 3293 0013 0400     		.2byte	0x4
 3294 0015 F3       		.byte	0xf3
 3295 0016 01       		.uleb128 0x1
 3296 0017 50       		.byte	0x50
 3297 0018 9F       		.byte	0x9f
 3298 0019 00000000 		.4byte	0
 3299 001d 00000000 		.4byte	0
 3300              	.LLST1:
 3301 0021 00000000 		.4byte	.LVL3
 3302 0025 0A000000 		.4byte	.LVL4
 3303 0029 0100     		.2byte	0x1
 3304 002b 50       		.byte	0x50
 3305 002c 0A000000 		.4byte	.LVL4
 3306 0030 88000000 		.4byte	.LVL18
 3307 0034 0100     		.2byte	0x1
 3308 0036 55       		.byte	0x55
 3309 0037 88000000 		.4byte	.LVL18
 3310 003b C4000000 		.4byte	.LFE257
 3311 003f 0400     		.2byte	0x4
 3312 0041 F3       		.byte	0xf3
 3313 0042 01       		.uleb128 0x1
 3314 0043 50       		.byte	0x50
 3315 0044 9F       		.byte	0x9f
 3316 0045 00000000 		.4byte	0
 3317 0049 00000000 		.4byte	0
 3318              	.LLST2:
 3319 004d 00000000 		.4byte	.LVL3
 3320 0051 0C000000 		.4byte	.LVL5
 3321 0055 0100     		.2byte	0x1
 3322 0057 51       		.byte	0x51
 3323 0058 0C000000 		.4byte	.LVL5
 3324 005c 0F000000 		.4byte	.LVL6-1
 3325 0060 0100     		.2byte	0x1
 3326 0062 52       		.byte	0x52
 3327 0063 0F000000 		.4byte	.LVL6-1
 3328 0067 C4000000 		.4byte	.LFE257
 3329 006b 0400     		.2byte	0x4
 3330 006d F3       		.byte	0xf3
 3331 006e 01       		.uleb128 0x1
 3332 006f 51       		.byte	0x51
 3333 0070 9F       		.byte	0x9f
 3334 0071 00000000 		.4byte	0
 3335 0075 00000000 		.4byte	0
 3336              	.LLST3:
 3337 0079 00000000 		.4byte	.LVL20
ARM GAS  C:\Users\jo\AppData\Local\Temp\ccRoOONZ.s 			page 61


 3338 007d 0A000000 		.4byte	.LVL21
 3339 0081 0100     		.2byte	0x1
 3340 0083 50       		.byte	0x50
 3341 0084 0A000000 		.4byte	.LVL21
 3342 0088 68000000 		.4byte	.LVL31
 3343 008c 0100     		.2byte	0x1
 3344 008e 55       		.byte	0x55
 3345 008f 68000000 		.4byte	.LVL31
 3346 0093 98000000 		.4byte	.LFE258
 3347 0097 0400     		.2byte	0x4
 3348 0099 F3       		.byte	0xf3
 3349 009a 01       		.uleb128 0x1
 3350 009b 50       		.byte	0x50
 3351 009c 9F       		.byte	0x9f
 3352 009d 00000000 		.4byte	0
 3353 00a1 00000000 		.4byte	0
 3354              		.section	.debug_aranges,"",%progbits
 3355 0000 3C000000 		.4byte	0x3c
 3356 0004 0200     		.2byte	0x2
 3357 0006 00000000 		.4byte	.Ldebug_info0
 3358 000a 04       		.byte	0x4
 3359 000b 00       		.byte	0
 3360 000c 0000     		.2byte	0
 3361 000e 0000     		.2byte	0
 3362 0010 00000000 		.4byte	.LFB260
 3363 0014 24000000 		.4byte	.LFE260-.LFB260
 3364 0018 00000000 		.4byte	.LFB256
 3365 001c 02000000 		.4byte	.LFE256-.LFB256
 3366 0020 00000000 		.4byte	.LFB257
 3367 0024 C4000000 		.4byte	.LFE257-.LFB257
 3368 0028 00000000 		.4byte	.LFB258
 3369 002c 98000000 		.4byte	.LFE258-.LFB258
 3370 0030 00000000 		.4byte	.LFB259
 3371 0034 74000000 		.4byte	.LFE259-.LFB259
 3372 0038 00000000 		.4byte	0
 3373 003c 00000000 		.4byte	0
 3374              		.section	.debug_ranges,"",%progbits
 3375              	.Ldebug_ranges0:
 3376 0000 00000000 		.4byte	.LFB260
 3377 0004 24000000 		.4byte	.LFE260
 3378 0008 00000000 		.4byte	.LFB256
 3379 000c 02000000 		.4byte	.LFE256
 3380 0010 00000000 		.4byte	.LFB257
 3381 0014 C4000000 		.4byte	.LFE257
 3382 0018 00000000 		.4byte	.LFB258
 3383 001c 98000000 		.4byte	.LFE258
 3384 0020 00000000 		.4byte	.LFB259
 3385 0024 74000000 		.4byte	.LFE259
 3386 0028 00000000 		.4byte	0
 3387 002c 00000000 		.4byte	0
 3388              		.section	.debug_line,"",%progbits
 3389              	.Ldebug_line0:
 3390 0000 BD030000 		.section	.debug_str,"MS",%progbits,1
 3390      02003003 
 3390      00000201 
 3390      FB0E0D00 
 3390      01010101 
ARM GAS  C:\Users\jo\AppData\Local\Temp\ccRoOONZ.s 			page 62


 3391              	.LASF26:
 3392 0000 74726566 		.ascii	"trefs_t\000"
 3392      735F7400 
 3393              	.LASF58:
 3394 0008 72656164 		.ascii	"ready_list_t\000"
 3394      795F6C69 
 3394      73745F74 
 3394      00
 3395              	.LASF98:
 3396 0015 73655F74 		.ascii	"se_time\000"
 3396      696D6500 
 3397              	.LASF2:
 3398 001d 73697A65 		.ascii	"size_t\000"
 3398      5F7400
 3399              	.LASF182:
 3400 0024 6C776970 		.ascii	"lwip_stats\000"
 3400      5F737461 
 3400      747300
 3401              	.LASF21:
 3402 002f 75696E74 		.ascii	"uint64_t\000"
 3402      36345F74 
 3402      00
 3403              	.LASF172:
 3404 0038 69705F66 		.ascii	"ip_frag\000"
 3404      72616700 
 3405              	.LASF3:
 3406 0040 5F5F7569 		.ascii	"__uint8_t\000"
 3406      6E74385F 
 3406      7400
 3407              	.LASF94:
 3408 004a 706F7274 		.ascii	"port_intctx\000"
 3408      5F696E74 
 3408      63747800 
 3409              	.LASF136:
 3410 0056 76615F6C 		.ascii	"va_list\000"
 3410      69737400 
 3411              	.LASF77:
 3412 005e 73797374 		.ascii	"system_debug_t\000"
 3412      656D5F64 
 3412      65627567 
 3412      5F7400
 3413              	.LASF110:
 3414 006d 776F7273 		.ascii	"worst\000"
 3414      7400
 3415              	.LASF113:
 3416 0073 74696D65 		.ascii	"time_measurement_t\000"
 3416      5F6D6561 
 3416      73757265 
 3416      6D656E74 
 3416      5F7400
 3417              	.LASF158:
 3418 0086 63686B65 		.ascii	"chkerr\000"
 3418      727200
 3419              	.LASF15:
 3420 008d 6C6F6E67 		.ascii	"long long unsigned int\000"
 3420      206C6F6E 
 3420      6720756E 
ARM GAS  C:\Users\jo\AppData\Local\Temp\ccRoOONZ.s 			page 63


 3420      7369676E 
 3420      65642069 
 3421              	.LASF174:
 3422 00a4 666F726D 		.ascii	"formatted_bytes\000"
 3422      61747465 
 3422      645F6279 
 3422      74657300 
 3423              	.LASF101:
 3424 00b4 73655F73 		.ascii	"se_state\000"
 3424      74617465 
 3424      00
 3425              	.LASF121:
 3426 00bd 65786974 		.ascii	"exitcode\000"
 3426      636F6465 
 3426      00
 3427              	.LASF152:
 3428 00c6 4D454D50 		.ascii	"MEMP_PBUF_POOL\000"
 3428      5F504255 
 3428      465F504F 
 3428      4F4C00
 3429              	.LASF160:
 3430 00d5 6D656D65 		.ascii	"memerr\000"
 3430      727200
 3431              	.LASF143:
 3432 00dc 4D454D50 		.ascii	"MEMP_TCP_SEG\000"
 3432      5F544350 
 3432      5F534547 
 3432      00
 3433              	.LASF74:
 3434 00e9 76697274 		.ascii	"virtual_timers_list_t\000"
 3434      75616C5F 
 3434      74696D65 
 3434      72735F6C 
 3434      6973745F 
 3435              	.LASF164:
 3436 00ff 63616368 		.ascii	"cachehit\000"
 3436      65686974 
 3436      00
 3437              	.LASF23:
 3438 0108 72747469 		.ascii	"rttime_t\000"
 3438      6D655F74 
 3438      00
 3439              	.LASF163:
 3440 0111 6F707465 		.ascii	"opterr\000"
 3440      727200
 3441              	.LASF36:
 3442 0118 705F7072 		.ascii	"p_prio\000"
 3442      696F00
 3443              	.LASF185:
 3444 011f 433A5C55 		.ascii	"C:\\Users\\jo\\Documents\\GitHub\\ChibiOS\\demos\\S"
 3444      73657273 
 3444      5C6A6F5C 
 3444      446F6375 
 3444      6D656E74 
 3445 014b 544D3332 		.ascii	"TM32\\RT-STM32F407-DISCOVERY-uHttp\000"
 3445      5C52542D 
 3445      53544D33 
ARM GAS  C:\Users\jo\AppData\Local\Temp\ccRoOONZ.s 			page 64


 3445      32463430 
 3445      372D4449 
 3446              	.LASF17:
 3447 016d 696E7431 		.ascii	"int16_t\000"
 3447      365F7400 
 3448              	.LASF13:
 3449 0175 6C6F6E67 		.ascii	"long long int\000"
 3449      206C6F6E 
 3449      6720696E 
 3449      7400
 3450              	.LASF1:
 3451 0183 7369676E 		.ascii	"signed char\000"
 3451      65642063 
 3451      68617200 
 3452              	.LASF12:
 3453 018f 6C6F6E67 		.ascii	"long unsigned int\000"
 3453      20756E73 
 3453      69676E65 
 3453      6420696E 
 3453      7400
 3454              	.LASF51:
 3455 01a1 705F6D70 		.ascii	"p_mpool\000"
 3455      6F6F6C00 
 3456              	.LASF86:
 3457 01a9 76746C69 		.ascii	"vtlist\000"
 3457      737400
 3458              	.LASF144:
 3459 01b0 4D454D50 		.ascii	"MEMP_REASSDATA\000"
 3459      5F524541 
 3459      53534441 
 3459      544100
 3460              	.LASF84:
 3461 01bf 63685F73 		.ascii	"ch_system\000"
 3461      79737465 
 3461      6D00
 3462              	.LASF10:
 3463 01c9 6C6F6E67 		.ascii	"long int\000"
 3463      20696E74 
 3463      00
 3464              	.LASF25:
 3465 01d2 74737461 		.ascii	"tstate_t\000"
 3465      74655F74 
 3465      00
 3466              	.LASF96:
 3467 01db 5F5F7661 		.ascii	"__va_list\000"
 3467      5F6C6973 
 3467      7400
 3468              	.LASF44:
 3469 01e5 705F7265 		.ascii	"p_refs\000"
 3469      667300
 3470              	.LASF99:
 3471 01ec 73655F74 		.ascii	"se_tp\000"
 3471      7000
 3472              	.LASF171:
 3473 01f2 65746861 		.ascii	"etharp\000"
 3473      727000
 3474              	.LASF18:
ARM GAS  C:\Users\jo\AppData\Local\Temp\ccRoOONZ.s 			page 65


 3475 01f9 75696E74 		.ascii	"uint16_t\000"
 3475      31365F74 
 3475      00
 3476              	.LASF140:
 3477 0202 4D454D50 		.ascii	"MEMP_UDP_PCB\000"
 3477      5F554450 
 3477      5F504342 
 3477      00
 3478              	.LASF38:
 3479 020f 705F6E65 		.ascii	"p_newer\000"
 3479      77657200 
 3480              	.LASF103:
 3481 0217 74625F73 		.ascii	"tb_size\000"
 3481      697A6500 
 3482              	.LASF63:
 3483 021f 725F6E65 		.ascii	"r_newer\000"
 3483      77657200 
 3484              	.LASF142:
 3485 0227 4D454D50 		.ascii	"MEMP_TCP_PCB_LISTEN\000"
 3485      5F544350 
 3485      5F504342 
 3485      5F4C4953 
 3485      54454E00 
 3486              	.LASF91:
 3487 023b 72656761 		.ascii	"regarm_t\000"
 3487      726D5F74 
 3487      00
 3488              	.LASF70:
 3489 0244 76745F70 		.ascii	"vt_prev\000"
 3489      72657600 
 3490              	.LASF170:
 3491 024c 6C696E6B 		.ascii	"link\000"
 3491      00
 3492              	.LASF5:
 3493 0251 5F5F696E 		.ascii	"__int16_t\000"
 3493      7431365F 
 3493      7400
 3494              	.LASF78:
 3495 025b 63685F73 		.ascii	"ch_system_debug\000"
 3495      79737465 
 3495      6D5F6465 
 3495      62756700 
 3496              	.LASF138:
 3497 026b 7331365F 		.ascii	"s16_t\000"
 3497      7400
 3498              	.LASF128:
 3499 0271 6D757465 		.ascii	"mutex_t\000"
 3499      785F7400 
 3500              	.LASF177:
 3501 0279 73746174 		.ascii	"stats_display_proto\000"
 3501      735F6469 
 3501      73706C61 
 3501      795F7072 
 3501      6F746F00 
 3502              	.LASF132:
 3503 028d 42617365 		.ascii	"BaseSequentialStream\000"
 3503      53657175 
ARM GAS  C:\Users\jo\AppData\Local\Temp\ccRoOONZ.s 			page 66


 3503      656E7469 
 3503      616C5374 
 3503      7265616D 
 3504              	.LASF89:
 3505 02a2 69646C65 		.ascii	"idle_thread_wa\000"
 3505      5F746872 
 3505      6561645F 
 3505      776100
 3506              	.LASF30:
 3507 02b1 636E745F 		.ascii	"cnt_t\000"
 3507      7400
 3508              	.LASF162:
 3509 02b7 70726F74 		.ascii	"proterr\000"
 3509      65727200 
 3510              	.LASF41:
 3511 02bf 705F7374 		.ascii	"p_stklimit\000"
 3511      6B6C696D 
 3511      697400
 3512              	.LASF0:
 3513 02ca 756E7369 		.ascii	"unsigned int\000"
 3513      676E6564 
 3513      20696E74 
 3513      00
 3514              	.LASF69:
 3515 02d7 76745F6E 		.ascii	"vt_next\000"
 3515      65787400 
 3516              	.LASF151:
 3517 02df 4D454D50 		.ascii	"MEMP_PBUF\000"
 3517      5F504255 
 3517      4600
 3518              	.LASF46:
 3519 02e9 705F6D73 		.ascii	"p_msgqueue\000"
 3519      67717565 
 3519      756500
 3520              	.LASF156:
 3521 02f4 72656376 		.ascii	"recv\000"
 3521      00
 3522              	.LASF179:
 3523 02f9 73746174 		.ascii	"stats_display\000"
 3523      735F6469 
 3523      73706C61 
 3523      7900
 3524              	.LASF114:
 3525 0307 6E5F6972 		.ascii	"n_irq\000"
 3525      7100
 3526              	.LASF141:
 3527 030d 4D454D50 		.ascii	"MEMP_TCP_PCB\000"
 3527      5F544350 
 3527      5F504342 
 3527      00
 3528              	.LASF176:
 3529 031a 6E616D65 		.ascii	"name\000"
 3529      00
 3530              	.LASF8:
 3531 031f 73686F72 		.ascii	"short unsigned int\000"
 3531      7420756E 
 3531      7369676E 
ARM GAS  C:\Users\jo\AppData\Local\Temp\ccRoOONZ.s 			page 67


 3531      65642069 
 3531      6E7400
 3532              	.LASF118:
 3533 0332 6B65726E 		.ascii	"kernel_stats_t\000"
 3533      656C5F73 
 3533      74617473 
 3533      5F7400
 3534              	.LASF54:
 3535 0341 63685F74 		.ascii	"ch_thread\000"
 3535      68726561 
 3535      6400
 3536              	.LASF149:
 3537 034b 4D454D50 		.ascii	"MEMP_TCPIP_MSG_INPKT\000"
 3537      5F544350 
 3537      49505F4D 
 3537      53475F49 
 3537      4E504B54 
 3538              	.LASF28:
 3539 0360 6D73675F 		.ascii	"msg_t\000"
 3539      7400
 3540              	.LASF111:
 3541 0366 6C617374 		.ascii	"last\000"
 3541      00
 3542              	.LASF31:
 3543 036b 75636E74 		.ascii	"ucnt_t\000"
 3543      5F7400
 3544              	.LASF83:
 3545 0372 63685F73 		.ascii	"ch_system_t\000"
 3545      79737465 
 3545      6D5F7400 
 3546              	.LASF24:
 3547 037e 746D6F64 		.ascii	"tmode_t\000"
 3547      655F7400 
 3548              	.LASF117:
 3549 0386 6D5F6372 		.ascii	"m_crit_isr\000"
 3549      69745F69 
 3549      737200
 3550              	.LASF59:
 3551 0391 63685F72 		.ascii	"ch_ready_list\000"
 3551      65616479 
 3551      5F6C6973 
 3551      7400
 3552              	.LASF29:
 3553 039f 6576656E 		.ascii	"eventmask_t\000"
 3553      746D6173 
 3553      6B5F7400 
 3554              	.LASF9:
 3555 03ab 5F5F696E 		.ascii	"__int32_t\000"
 3555      7433325F 
 3555      7400
 3556              	.LASF167:
 3557 03b5 73746174 		.ascii	"stats_sys\000"
 3557      735F7379 
 3557      7300
 3558              	.LASF178:
 3559 03bf 73746174 		.ascii	"stats_display_sys\000"
 3559      735F6469 
ARM GAS  C:\Users\jo\AppData\Local\Temp\ccRoOONZ.s 			page 68


 3559      73706C61 
 3559      795F7379 
 3559      7300
 3560              	.LASF92:
 3561 03d1 73746B61 		.ascii	"stkalign_t\000"
 3561      6C69676E 
 3561      5F7400
 3562              	.LASF183:
 3563 03dc 474E5520 		.ascii	"GNU C 4.9.3 20141119 (release) [ARM/embedded-4_9-br"
 3563      4320342E 
 3563      392E3320 
 3563      32303134 
 3563      31313139 
 3564 040f 616E6368 		.ascii	"anch revision 218278] -mcpu=cortex-m4 -mno-thumb-in"
 3564      20726576 
 3564      6973696F 
 3564      6E203231 
 3564      38323738 
 3565 0442 74657277 		.ascii	"terwork -mthumb -ggdb -O2 -fomit-frame-pointer -fal"
 3565      6F726B20 
 3565      2D6D7468 
 3565      756D6220 
 3565      2D676764 
 3566 0475 69676E2D 		.ascii	"ign-functions=16 -ffunction-sections -fdata-section"
 3566      66756E63 
 3566      74696F6E 
 3566      733D3136 
 3566      202D6666 
 3567 04a8 73202D66 		.ascii	"s -fno-common\000"
 3567      6E6F2D63 
 3567      6F6D6D6F 
 3567      6E00
 3568              	.LASF130:
 3569 04b6 77726974 		.ascii	"write\000"
 3569      6500
 3570              	.LASF153:
 3571 04bc 4D454D50 		.ascii	"MEMP_MAX\000"
 3571      5F4D4158 
 3571      00
 3572              	.LASF45:
 3573 04c5 705F7761 		.ascii	"p_waiting\000"
 3573      6974696E 
 3573      6700
 3574              	.LASF90:
 3575 04cf 73697A65 		.ascii	"sizetype\000"
 3575      74797065 
 3575      00
 3576              	.LASF75:
 3577 04d8 63685F76 		.ascii	"ch_virtual_timers_list\000"
 3577      69727475 
 3577      616C5F74 
 3577      696D6572 
 3577      735F6C69 
 3578              	.LASF104:
 3579 04ef 74625F70 		.ascii	"tb_ptr\000"
 3579      747200
 3580              	.LASF95:
ARM GAS  C:\Users\jo\AppData\Local\Temp\ccRoOONZ.s 			page 69


 3581 04f6 5F5F676E 		.ascii	"__gnuc_va_list\000"
 3581      75635F76 
 3581      615F6C69 
 3581      737400
 3582              	.LASF102:
 3583 0505 63685F73 		.ascii	"ch_swc_event_t\000"
 3583      77635F65 
 3583      76656E74 
 3583      5F7400
 3584              	.LASF76:
 3585 0514 76745F6C 		.ascii	"vt_lasttime\000"
 3585      61737474 
 3585      696D6500 
 3586              	.LASF187:
 3587 0520 73746174 		.ascii	"stats_init\000"
 3587      735F696E 
 3587      697400
 3588              	.LASF106:
 3589 052b 63685F74 		.ascii	"ch_trace_buffer_t\000"
 3589      72616365 
 3589      5F627566 
 3589      6665725F 
 3589      7400
 3590              	.LASF39:
 3591 053d 705F6F6C 		.ascii	"p_older\000"
 3591      64657200 
 3592              	.LASF62:
 3593 0545 725F6374 		.ascii	"r_ctx\000"
 3593      7800
 3594              	.LASF108:
 3595 054b 746D5F63 		.ascii	"tm_calibration_t\000"
 3595      616C6962 
 3595      72617469 
 3595      6F6E5F74 
 3595      00
 3596              	.LASF165:
 3597 055c 73746174 		.ascii	"stats_syselem\000"
 3597      735F7379 
 3597      73656C65 
 3597      6D00
 3598              	.LASF81:
 3599 056a 6C6F636B 		.ascii	"lock_cnt\000"
 3599      5F636E74 
 3599      00
 3600              	.LASF65:
 3601 0573 725F6375 		.ascii	"r_current\000"
 3601      7272656E 
 3601      7400
 3602              	.LASF64:
 3603 057d 725F6F6C 		.ascii	"r_older\000"
 3603      64657200 
 3604              	.LASF169:
 3605 0585 73746174 		.ascii	"stats_\000"
 3605      735F00
 3606              	.LASF173:
 3607 058c 69636D70 		.ascii	"icmp\000"
 3607      00
ARM GAS  C:\Users\jo\AppData\Local\Temp\ccRoOONZ.s 			page 70


 3608              	.LASF14:
 3609 0591 5F5F7569 		.ascii	"__uint64_t\000"
 3609      6E743634 
 3609      5F7400
 3610              	.LASF112:
 3611 059c 63756D75 		.ascii	"cumulative\000"
 3611      6C617469 
 3611      766500
 3612              	.LASF166:
 3613 05a7 75736564 		.ascii	"used\000"
 3613      00
 3614              	.LASF168:
 3615 05ac 6D626F78 		.ascii	"mbox\000"
 3615      00
 3616              	.LASF161:
 3617 05b1 72746572 		.ascii	"rterr\000"
 3617      7200
 3618              	.LASF88:
 3619 05b7 6B65726E 		.ascii	"kernel_stats\000"
 3619      656C5F73 
 3619      74617473 
 3619      00
 3620              	.LASF135:
 3621 05c4 49544D53 		.ascii	"ITMStream\000"
 3621      74726561 
 3621      6D00
 3622              	.LASF105:
 3623 05ce 74625F62 		.ascii	"tb_buffer\000"
 3623      75666665 
 3623      7200
 3624              	.LASF67:
 3625 05d8 76697274 		.ascii	"virtual_timer_t\000"
 3625      75616C5F 
 3625      74696D65 
 3625      725F7400 
 3626              	.LASF35:
 3627 05e8 705F7072 		.ascii	"p_prev\000"
 3627      657600
 3628              	.LASF27:
 3629 05ef 74707269 		.ascii	"tprio_t\000"
 3629      6F5F7400 
 3630              	.LASF124:
 3631 05f7 6D757465 		.ascii	"mutex\000"
 3631      7800
 3632              	.LASF40:
 3633 05fd 705F6E61 		.ascii	"p_name\000"
 3633      6D6500
 3634              	.LASF115:
 3635 0604 6E5F6374 		.ascii	"n_ctxswc\000"
 3635      78737763 
 3635      00
 3636              	.LASF133:
 3637 060d 5F426F6F 		.ascii	"_Bool\000"
 3637      6C00
 3638              	.LASF19:
 3639 0613 696E7433 		.ascii	"int32_t\000"
 3639      325F7400 
ARM GAS  C:\Users\jo\AppData\Local\Temp\ccRoOONZ.s 			page 71


 3640              	.LASF4:
 3641 061b 756E7369 		.ascii	"unsigned char\000"
 3641      676E6564 
 3641      20636861 
 3641      7200
 3642              	.LASF125:
 3643 0629 6D5F7175 		.ascii	"m_queue\000"
 3643      65756500 
 3644              	.LASF180:
 3645 0631 49544D5F 		.ascii	"ITM_RxBuffer\000"
 3645      52784275 
 3645      66666572 
 3645      00
 3646              	.LASF49:
 3647 063e 705F6D74 		.ascii	"p_mtxlist\000"
 3647      786C6973 
 3647      7400
 3648              	.LASF6:
 3649 0648 73686F72 		.ascii	"short int\000"
 3649      7420696E 
 3649      7400
 3650              	.LASF42:
 3651 0652 705F7374 		.ascii	"p_state\000"
 3651      61746500 
 3652              	.LASF61:
 3653 065a 725F7072 		.ascii	"r_prio\000"
 3653      696F00
 3654              	.LASF157:
 3655 0661 64726F70 		.ascii	"drop\000"
 3655      00
 3656              	.LASF123:
 3657 0666 65776D61 		.ascii	"ewmask\000"
 3657      736B00
 3658              	.LASF34:
 3659 066d 705F6E65 		.ascii	"p_next\000"
 3659      787400
 3660              	.LASF139:
 3661 0674 7533325F 		.ascii	"u32_t\000"
 3661      7400
 3662              	.LASF43:
 3663 067a 705F666C 		.ascii	"p_flags\000"
 3663      61677300 
 3664              	.LASF52:
 3665 0682 705F7374 		.ascii	"p_stats\000"
 3665      61747300 
 3666              	.LASF87:
 3667 068a 6D61696E 		.ascii	"mainthread\000"
 3667      74687265 
 3667      616400
 3668              	.LASF175:
 3669 0695 70726F74 		.ascii	"proto\000"
 3669      6F00
 3670              	.LASF68:
 3671 069b 63685F76 		.ascii	"ch_virtual_timer\000"
 3671      69727475 
 3671      616C5F74 
 3671      696D6572 
ARM GAS  C:\Users\jo\AppData\Local\Temp\ccRoOONZ.s 			page 72


 3671      00
 3672              	.LASF145:
 3673 06ac 4D454D50 		.ascii	"MEMP_FRAG_PBUF\000"
 3673      5F465241 
 3673      475F5042 
 3673      554600
 3674              	.LASF48:
 3675 06bb 705F6570 		.ascii	"p_epending\000"
 3675      656E6469 
 3675      6E6700
 3676              	.LASF150:
 3677 06c6 4D454D50 		.ascii	"MEMP_SYS_TIMEOUT\000"
 3677      5F535953 
 3677      5F54494D 
 3677      454F5554 
 3677      00
 3678              	.LASF129:
 3679 06d7 42617365 		.ascii	"BaseSequentialStreamVMT\000"
 3679      53657175 
 3679      656E7469 
 3679      616C5374 
 3679      7265616D 
 3680              	.LASF60:
 3681 06ef 725F7175 		.ascii	"r_queue\000"
 3681      65756500 
 3682              	.LASF71:
 3683 06f7 76745F64 		.ascii	"vt_delta\000"
 3683      656C7461 
 3683      00
 3684              	.LASF55:
 3685 0700 63685F74 		.ascii	"ch_threads_list\000"
 3685      68726561 
 3685      64735F6C 
 3685      69737400 
 3686              	.LASF148:
 3687 0710 4D454D50 		.ascii	"MEMP_TCPIP_MSG_API\000"
 3687      5F544350 
 3687      49505F4D 
 3687      53475F41 
 3687      504900
 3688              	.LASF184:
 3689 0723 2E2E2F2E 		.ascii	"../../../os/ext/lwip-1.4.1/src/core/stats.c\000"
 3689      2E2F2E2E 
 3689      2F6F732F 
 3689      6578742F 
 3689      6C776970 
 3690              	.LASF131:
 3691 074f 72656164 		.ascii	"read\000"
 3691      00
 3692              	.LASF97:
 3693 0754 63686172 		.ascii	"char\000"
 3693      00
 3694              	.LASF146:
 3695 0759 4D454D50 		.ascii	"MEMP_NETBUF\000"
 3695      5F4E4554 
 3695      42554600 
 3696              	.LASF7:
ARM GAS  C:\Users\jo\AppData\Local\Temp\ccRoOONZ.s 			page 73


 3697 0765 5F5F7569 		.ascii	"__uint16_t\000"
 3697      6E743136 
 3697      5F7400
 3698              	.LASF134:
 3699 0770 49544D53 		.ascii	"ITMStreamVMT\000"
 3699      74726561 
 3699      6D564D54 
 3699      00
 3700              	.LASF147:
 3701 077d 4D454D50 		.ascii	"MEMP_NETCONN\000"
 3701      5F4E4554 
 3701      434F4E4E 
 3701      00
 3702              	.LASF33:
 3703 078a 74687265 		.ascii	"thread_t\000"
 3703      61645F74 
 3703      00
 3704              	.LASF109:
 3705 0793 62657374 		.ascii	"best\000"
 3705      00
 3706              	.LASF127:
 3707 0798 6D5F6E65 		.ascii	"m_next\000"
 3707      787400
 3708              	.LASF32:
 3709 079f 73797374 		.ascii	"systime_t\000"
 3709      696D655F 
 3709      7400
 3710              	.LASF50:
 3711 07a9 705F7265 		.ascii	"p_realprio\000"
 3711      616C7072 
 3711      696F00
 3712              	.LASF66:
 3713 07b4 76746675 		.ascii	"vtfunc_t\000"
 3713      6E635F74 
 3713      00
 3714              	.LASF11:
 3715 07bd 5F5F7569 		.ascii	"__uint32_t\000"
 3715      6E743332 
 3715      5F7400
 3716              	.LASF79:
 3717 07c8 70616E69 		.ascii	"panic_msg\000"
 3717      635F6D73 
 3717      6700
 3718              	.LASF107:
 3719 07d2 6F666673 		.ascii	"offset\000"
 3719      657400
 3720              	.LASF119:
 3721 07d9 5F5F6170 		.ascii	"__ap\000"
 3721      00
 3722              	.LASF93:
 3723 07de 636F6E74 		.ascii	"context\000"
 3723      65787400 
 3724              	.LASF22:
 3725 07e6 7274636E 		.ascii	"rtcnt_t\000"
 3725      745F7400 
 3726              	.LASF73:
 3727 07ee 76745F70 		.ascii	"vt_par\000"
ARM GAS  C:\Users\jo\AppData\Local\Temp\ccRoOONZ.s 			page 74


 3727      617200
 3728              	.LASF137:
 3729 07f5 7531365F 		.ascii	"u16_t\000"
 3729      7400
 3730              	.LASF20:
 3731 07fb 75696E74 		.ascii	"uint32_t\000"
 3731      33325F74 
 3731      00
 3732              	.LASF181:
 3733 0804 69746D5F 		.ascii	"itm_port\000"
 3733      706F7274 
 3733      00
 3734              	.LASF56:
 3735 080d 74687265 		.ascii	"threads_queue_t\000"
 3735      6164735F 
 3735      71756575 
 3735      655F7400 
 3736              	.LASF120:
 3737 081d 7264796D 		.ascii	"rdymsg\000"
 3737      736700
 3738              	.LASF159:
 3739 0824 6C656E65 		.ascii	"lenerr\000"
 3739      727200
 3740              	.LASF80:
 3741 082b 6973725F 		.ascii	"isr_cnt\000"
 3741      636E7400 
 3742              	.LASF85:
 3743 0833 726C6973 		.ascii	"rlist\000"
 3743      7400
 3744              	.LASF16:
 3745 0839 75696E74 		.ascii	"uint8_t\000"
 3745      385F7400 
 3746              	.LASF188:
 3747 0841 63687670 		.ascii	"chvprintf\000"
 3747      72696E74 
 3747      6600
 3748              	.LASF155:
 3749 084b 786D6974 		.ascii	"xmit\000"
 3749      00
 3750              	.LASF122:
 3751 0850 77746F62 		.ascii	"wtobjp\000"
 3751      6A7000
 3752              	.LASF53:
 3753 0857 74687265 		.ascii	"threads_list_t\000"
 3753      6164735F 
 3753      6C697374 
 3753      5F7400
 3754              	.LASF82:
 3755 0866 74726163 		.ascii	"trace_buffer\000"
 3755      655F6275 
 3755      66666572 
 3755      00
 3756              	.LASF154:
 3757 0873 73746174 		.ascii	"stats_proto\000"
 3757      735F7072 
 3757      6F746F00 
 3758              	.LASF47:
ARM GAS  C:\Users\jo\AppData\Local\Temp\ccRoOONZ.s 			page 75


 3759 087f 705F6D73 		.ascii	"p_msg\000"
 3759      6700
 3760              	.LASF116:
 3761 0885 6D5F6372 		.ascii	"m_crit_thd\000"
 3761      69745F74 
 3761      686400
 3762              	.LASF126:
 3763 0890 6D5F6F77 		.ascii	"m_owner\000"
 3763      6E657200 
 3764              	.LASF100:
 3765 0898 73655F77 		.ascii	"se_wtobjp\000"
 3765      746F626A 
 3765      7000
 3766              	.LASF37:
 3767 08a2 705F6374 		.ascii	"p_ctx\000"
 3767      7800
 3768              	.LASF72:
 3769 08a8 76745F66 		.ascii	"vt_func\000"
 3769      756E6300 
 3770              	.LASF57:
 3771 08b0 63685F74 		.ascii	"ch_threads_queue\000"
 3771      68726561 
 3771      64735F71 
 3771      75657565 
 3771      00
 3772              	.LASF186:
 3773 08c1 63687072 		.ascii	"chprintf\000"
 3773      696E7466 
 3773      00
 3774              		.ident	"GCC: (GNU Tools for ARM Embedded Processors) 4.9.3 20141119 (release) [ARM/embedded-4_9-br
ARM GAS  C:\Users\jo\AppData\Local\Temp\ccRoOONZ.s 			page 76


DEFINED SYMBOLS
                            *ABS*:00000000 stats.c
C:\Users\jo\AppData\Local\Temp\ccRoOONZ.s:19     .text.chprintf.constprop.0:00000000 $t
C:\Users\jo\AppData\Local\Temp\ccRoOONZ.s:24     .text.chprintf.constprop.0:00000000 chprintf.constprop.0
C:\Users\jo\AppData\Local\Temp\ccRoOONZ.s:70     .text.chprintf.constprop.0:00000020 $d
C:\Users\jo\AppData\Local\Temp\ccRoOONZ.s:75     .text.stats_init:00000000 $t
C:\Users\jo\AppData\Local\Temp\ccRoOONZ.s:81     .text.stats_init:00000000 stats_init
C:\Users\jo\AppData\Local\Temp\ccRoOONZ.s:94     .text.stats_display_proto:00000000 $t
C:\Users\jo\AppData\Local\Temp\ccRoOONZ.s:100    .text.stats_display_proto:00000000 stats_display_proto
C:\Users\jo\AppData\Local\Temp\ccRoOONZ.s:210    .text.stats_display_proto:0000008c $d
C:\Users\jo\AppData\Local\Temp\ccRoOONZ.s:228    .text.stats_display_sys:00000000 $t
C:\Users\jo\AppData\Local\Temp\ccRoOONZ.s:234    .text.stats_display_sys:00000000 stats_display_sys
C:\Users\jo\AppData\Local\Temp\ccRoOONZ.s:323    .text.stats_display_sys:0000006c $d
C:\Users\jo\AppData\Local\Temp\ccRoOONZ.s:338    .text.stats_display:00000000 $t
C:\Users\jo\AppData\Local\Temp\ccRoOONZ.s:344    .text.stats_display:00000000 stats_display
C:\Users\jo\AppData\Local\Temp\ccRoOONZ.s:403    .text.stats_display:00000054 $d
C:\Users\jo\AppData\Local\Temp\ccRoOONZ.s:505    .bss.lwip_stats:00000000 lwip_stats
C:\Users\jo\AppData\Local\Temp\ccRoOONZ.s:416    .rodata.str1.4:00000000 $d
C:\Users\jo\AppData\Local\Temp\ccRoOONZ.s:501    .bss.lwip_stats:00000000 $d
                     .debug_frame:00000010 $d
C:\Users\jo\AppData\Local\Temp\ccRoOONZ.s:74     .text.chprintf.constprop.0:00000024 $t
C:\Users\jo\AppData\Local\Temp\ccRoOONZ.s:227    .text.stats_display_proto:000000c4 $t
C:\Users\jo\AppData\Local\Temp\ccRoOONZ.s:337    .text.stats_display_sys:00000098 $t
C:\Users\jo\AppData\Local\Temp\ccRoOONZ.s:415    .text.stats_display:00000074 $t

UNDEFINED SYMBOLS
chvprintf
itm_port
