ARM GAS  C:\Users\jo\AppData\Local\Temp\ccoLzcih.s 			page 1


   1              		.syntax unified
   2              		.cpu cortex-m4
   3              		.fpu softvfp
   4              		.eabi_attribute 20, 1
   5              		.eabi_attribute 21, 1
   6              		.eabi_attribute 23, 3
   7              		.eabi_attribute 24, 1
   8              		.eabi_attribute 25, 1
   9              		.eabi_attribute 26, 1
  10              		.eabi_attribute 30, 2
  11              		.eabi_attribute 34, 1
  12              		.eabi_attribute 18, 4
  13              		.thumb
  14              		.file	"sys.c"
  15              		.text
  16              	.Ltext0:
  17              		.cfi_sections	.debug_frame
  18              		.section	.text.sys_msleep,"ax",%progbits
  19              		.align	2
  20              		.p2align 4,,15
  21              		.global	sys_msleep
  22              		.thumb
  23              		.thumb_func
  24              		.type	sys_msleep, %function
  25              	sys_msleep:
  26              	.LFB256:
  27              		.file 1 "../../../os/ext/lwip-1.4.1/src/core/sys.c"
  28              		.loc 1 56 0
  29              		.cfi_startproc
  30              		@ args = 0, pretend = 0, frame = 8
  31              		@ frame_needed = 0, uses_anonymous_args = 0
  32              	.LVL0:
  33              		.loc 1 57 0
  34 0000 00B9     		cbnz	r0, .L10
  35 0002 7047     		bx	lr
  36              	.L10:
  37              		.loc 1 56 0
  38 0004 10B5     		push	{r4, lr}
  39              		.cfi_def_cfa_offset 8
  40              		.cfi_offset 4, -8
  41              		.cfi_offset 14, -4
  42 0006 82B0     		sub	sp, sp, #8
  43              		.cfi_def_cfa_offset 16
  44 0008 0446     		mov	r4, r0
  45              	.LBB2:
  46              		.loc 1 59 0
  47 000a 0021     		movs	r1, #0
  48 000c 01A8     		add	r0, sp, #4
  49              	.LVL1:
  50 000e FFF7FEFF 		bl	sys_sem_new
  51              	.LVL2:
  52              		.loc 1 60 0
  53 0012 08B1     		cbz	r0, .L11
  54              	.LBE2:
  55              		.loc 1 65 0
  56 0014 02B0     		add	sp, sp, #8
  57              		.cfi_remember_state
ARM GAS  C:\Users\jo\AppData\Local\Temp\ccoLzcih.s 			page 2


  58              		.cfi_def_cfa_offset 8
  59              		@ sp needed
  60 0016 10BD     		pop	{r4, pc}
  61              	.LVL3:
  62              	.L11:
  63              		.cfi_restore_state
  64              	.LBB3:
  65              		.loc 1 61 0
  66 0018 2146     		mov	r1, r4
  67 001a 01A8     		add	r0, sp, #4
  68              	.LVL4:
  69 001c FFF7FEFF 		bl	sys_arch_sem_wait
  70              	.LVL5:
  71              		.loc 1 62 0
  72 0020 01A8     		add	r0, sp, #4
  73 0022 FFF7FEFF 		bl	sys_sem_free
  74              	.LVL6:
  75              	.LBE3:
  76              		.loc 1 65 0
  77 0026 02B0     		add	sp, sp, #8
  78              		.cfi_def_cfa_offset 8
  79              		@ sp needed
  80 0028 10BD     		pop	{r4, pc}
  81              		.cfi_endproc
  82              	.LFE256:
  83              		.size	sys_msleep, .-sys_msleep
  84 002a 00BFAFF3 		.text
  84      0080
  85              	.Letext0:
  86              		.file 2 "c:\\program files\\gnu tools arm embedded\\4.9 2014q4\\arm-none-eabi\\include\\machine\\_
  87              		.file 3 "c:\\program files\\gnu tools arm embedded\\4.9 2014q4\\arm-none-eabi\\include\\stdint.h"
  88              		.file 4 "../../../os/rt/ports/ARMCMx/compilers/GCC/chtypes.h"
  89              		.file 5 "../../../os/rt/include/chsystypes.h"
  90              		.file 6 "../../../os/rt/include/chschd.h"
  91              		.file 7 "../../../os/rt/ports/ARMCMx/chcore.h"
  92              		.file 8 "../../../os/rt/ports/ARMCMx/chcore_v7m.h"
  93              		.file 9 "../../../os/rt/include/chdebug.h"
  94              		.file 10 "../../../os/rt/include/chtm.h"
  95              		.file 11 "../../../os/rt/include/chstats.h"
  96              		.file 12 "../../../os/rt/include/chmtx.h"
  97              		.file 13 "../../../os/rt/include/chsem.h"
  98              		.file 14 "../../../os/various/lwip_bindings/arch/cc.h"
  99              		.file 15 "../../../os/ext/lwip-1.4.1/src/include/lwip/err.h"
 100              		.file 16 "../../../os/various/lwip_bindings/arch/sys_arch.h"
 101              		.file 17 "../../../os/ext/lwip-1.4.1/src/include/lwip/sys.h"
 102              		.file 18 "../../../os/ext/CMSIS/include/core_cm4.h"