ARM GAS  C:\Users\jo\AppData\Local\Temp\ccoLzcih.s 			page 1


   1              		.syntax unified
   2              		.cpu cortex-m4
   3              		.fpu softvfp
   4              		.eabi_attribute 20, 1
   5              		.eabi_attribute 21, 1
   6              		.eabi_attribute 23, 3
   7              		.eabi_attribute 24, 1
   8              		.eabi_attribute 25, 1
   9              		.eabi_attribute 26, 1
  10              		.eabi_attribute 30, 2
  11              		.eabi_attribute 34, 1
  12              		.eabi_attribute 18, 4
  13              		.thumb
  14              		.file	"sys.c"
  15              		.text
  16              	.Ltext0:
  17              		.cfi_sections	.debug_frame
  18              		.section	.text.sys_msleep,"ax",%progbits
  19              		.align	2
  20              		.p2align 4,,15
  21              		.global	sys_msleep
  22              		.thumb
  23              		.thumb_func
  24              		.type	sys_msleep, %function
  25              	sys_msleep:
  26              	.LFB256:
  27              		.file 1 "../../../os/ext/lwip-1.4.1/src/core/sys.c"
  28              		.loc 1 56 0
  29              		.cfi_startproc
  30              		@ args = 0, pretend = 0, frame = 8
  31              		@ frame_needed = 0, uses_anonymous_args = 0
  32              	.LVL0:
  33              		.loc 1 57 0
  34 0000 00B9     		cbnz	r0, .L10
  35 0002 7047     		bx	lr
  36              	.L10:
  37              		.loc 1 56 0
  38 0004 10B5     		push	{r4, lr}
  39              		.cfi_def_cfa_offset 8
  40              		.cfi_offset 4, -8
  41              		.cfi_offset 14, -4
  42 0006 82B0     		sub	sp, sp, #8
  43              		.cfi_def_cfa_offset 16
  44 0008 0446     		mov	r4, r0
  45              	.LBB2:
  46              		.loc 1 59 0
  47 000a 0021     		movs	r1, #0
  48 000c 01A8     		add	r0, sp, #4
  49              	.LVL1:
  50 000e FFF7FEFF 		bl	sys_sem_new
  51              	.LVL2:
  52              		.loc 1 60 0
  53 0012 08B1     		cbz	r0, .L11
  54              	.LBE2:
  55              		.loc 1 65 0
  56 0014 02B0     		add	sp, sp, #8
  57              		.cfi_remember_state
ARM GAS  C:\Users\jo\AppData\Local\Temp\ccoLzcih.s 			page 2


  58              		.cfi_def_cfa_offset 8
  59              		@ sp needed
  60 0016 10BD     		pop	{r4, pc}
  61              	.LVL3:
  62              	.L11:
  63              		.cfi_restore_state
  64              	.LBB3:
  65              		.loc 1 61 0
  66 0018 2146     		mov	r1, r4
  67 001a 01A8     		add	r0, sp, #4
  68              	.LVL4:
  69 001c FFF7FEFF 		bl	sys_arch_sem_wait
  70              	.LVL5:
  71              		.loc 1 62 0
  72 0020 01A8     		add	r0, sp, #4
  73 0022 FFF7FEFF 		bl	sys_sem_free
  74              	.LVL6:
  75              	.LBE3:
  76              		.loc 1 65 0
  77 0026 02B0     		add	sp, sp, #8
  78              		.cfi_def_cfa_offset 8
  79              		@ sp needed
  80 0028 10BD     		pop	{r4, pc}
  81              		.cfi_endproc
  82              	.LFE256:
  83              		.size	sys_msleep, .-sys_msleep
  84 002a 00BFAFF3 		.text
  84      0080
  85              	.Letext0:
  86              		.file 2 "c:\\program files\\gnu tools arm embedded\\4.9 2014q4\\arm-none-eabi\\include\\machine\\_
  87              		.file 3 "c:\\program files\\gnu tools arm embedded\\4.9 2014q4\\arm-none-eabi\\include\\stdint.h"
  88              		.file 4 "../../../os/rt/ports/ARMCMx/compilers/GCC/chtypes.h"
  89              		.file 5 "../../../os/rt/include/chsystypes.h"
  90              		.file 6 "../../../os/rt/include/chschd.h"
  91              		.file 7 "../../../os/rt/ports/ARMCMx/chcore.h"
  92              		.file 8 "../../../os/rt/ports/ARMCMx/chcore_v7m.h"
  93              		.file 9 "../../../os/rt/include/chdebug.h"
  94              		.file 10 "../../../os/rt/include/chtm.h"
  95              		.file 11 "../../../os/rt/include/chstats.h"
  96              		.file 12 "../../../os/rt/include/chmtx.h"
  97              		.file 13 "../../../os/rt/include/chsem.h"
  98              		.file 14 "../../../os/various/lwip_bindings/arch/cc.h"
  99              		.file 15 "../../../os/ext/lwip-1.4.1/src/include/lwip/err.h"
 100              		.file 16 "../../../os/various/lwip_bindings/arch/sys_arch.h"
 101              		.file 17 "../../../os/ext/lwip-1.4.1/src/include/lwip/sys.h"
 102              		.file 18 "../../../os/ext/CMSIS/include/core_cm4.h"
 103              		.section	.debug_info,"",%progbits
 104              	.Ldebug_info0:
 105 0000 BC080000 		.4byte	0x8bc
 106 0004 0400     		.2byte	0x4
 107 0006 00000000 		.4byte	.Ldebug_abbrev0
 108 000a 04       		.byte	0x4
 109 000b 01       		.uleb128 0x1
 110 000c 1B030000 		.4byte	.LASF137
 111 0010 01       		.byte	0x1
 112 0011 3C050000 		.4byte	.LASF138
 113 0015 1F010000 		.4byte	.LASF139
ARM GAS  C:\Users\jo\AppData\Local\Temp\ccoLzcih.s 			page 3


 114 0019 18000000 		.4byte	.Ldebug_ranges0+0x18
 115 001d 00000000 		.4byte	0
 116 0021 00000000 		.4byte	.Ldebug_line0
 117 0025 02       		.uleb128 0x2
 118 0026 04       		.byte	0x4
 119 0027 05       		.byte	0x5
 120 0028 696E7400 		.ascii	"int\000"
 121 002c 03       		.uleb128 0x3
 122 002d 04       		.byte	0x4
 123 002e 07       		.byte	0x7
 124 002f 58020000 		.4byte	.LASF0
 125 0033 04       		.uleb128 0x4
 126 0034 F9000000 		.4byte	.LASF2
 127 0038 02       		.byte	0x2
 128 0039 1B       		.byte	0x1b
 129 003a 3E000000 		.4byte	0x3e
 130 003e 03       		.uleb128 0x3
 131 003f 01       		.byte	0x1
 132 0040 06       		.byte	0x6
 133 0041 85010000 		.4byte	.LASF1
 134 0045 04       		.uleb128 0x4
 135 0046 42000000 		.4byte	.LASF3
 136 004a 02       		.byte	0x2
 137 004b 1D       		.byte	0x1d
 138 004c 50000000 		.4byte	0x50
 139 0050 03       		.uleb128 0x3
 140 0051 01       		.byte	0x1
 141 0052 08       		.byte	0x8
 142 0053 ED040000 		.4byte	.LASF4
 143 0057 03       		.uleb128 0x3
 144 0058 02       		.byte	0x2
 145 0059 05       		.byte	0x5
 146 005a 05050000 		.4byte	.LASF5
 147 005e 03       		.uleb128 0x3
 148 005f 02       		.byte	0x2
 149 0060 07       		.byte	0x7
 150 0061 9A020000 		.4byte	.LASF6
 151 0065 04       		.uleb128 0x4
 152 0066 11030000 		.4byte	.LASF7
 153 006a 02       		.byte	0x2
 154 006b 3F       		.byte	0x3f
 155 006c 70000000 		.4byte	0x70
 156 0070 03       		.uleb128 0x3
 157 0071 04       		.byte	0x4
 158 0072 05       		.byte	0x5
 159 0073 AB010000 		.4byte	.LASF8
 160 0077 04       		.uleb128 0x4
 161 0078 FB050000 		.4byte	.LASF9
 162 007c 02       		.byte	0x2
 163 007d 41       		.byte	0x41
 164 007e 82000000 		.4byte	0x82
 165 0082 03       		.uleb128 0x3
 166 0083 04       		.byte	0x4
 167 0084 07       		.byte	0x7
 168 0085 B1050000 		.4byte	.LASF10
 169 0089 03       		.uleb128 0x3
 170 008a 08       		.byte	0x8
ARM GAS  C:\Users\jo\AppData\Local\Temp\ccoLzcih.s 			page 4


 171 008b 05       		.byte	0x5
 172 008c 77010000 		.4byte	.LASF11
 173 0090 04       		.uleb128 0x4
 174 0091 89040000 		.4byte	.LASF12
 175 0095 02       		.byte	0x2
 176 0096 5B       		.byte	0x5b
 177 0097 9B000000 		.4byte	0x9b
 178 009b 03       		.uleb128 0x3
 179 009c 08       		.byte	0x8
 180 009d 07       		.byte	0x7
 181 009e 91000000 		.4byte	.LASF13
 182 00a2 04       		.uleb128 0x4
 183 00a3 27060000 		.4byte	.LASF14
 184 00a7 03       		.byte	0x3
 185 00a8 14       		.byte	0x14
 186 00a9 33000000 		.4byte	0x33
 187 00ad 04       		.uleb128 0x4
 188 00ae 66060000 		.4byte	.LASF15
 189 00b2 03       		.byte	0x3
 190 00b3 15       		.byte	0x15
 191 00b4 45000000 		.4byte	0x45
 192 00b8 04       		.uleb128 0x4
 193 00b9 E5040000 		.4byte	.LASF16
 194 00bd 03       		.byte	0x3
 195 00be 2C       		.byte	0x2c
 196 00bf 65000000 		.4byte	0x65
 197 00c3 04       		.uleb128 0x4
 198 00c4 87050000 		.4byte	.LASF17
 199 00c8 03       		.byte	0x3
 200 00c9 2D       		.byte	0x2d
 201 00ca 77000000 		.4byte	0x77
 202 00ce 04       		.uleb128 0x4
 203 00cf 23000000 		.4byte	.LASF18
 204 00d3 03       		.byte	0x3
 205 00d4 39       		.byte	0x39
 206 00d5 90000000 		.4byte	0x90
 207 00d9 05       		.uleb128 0x5
 208 00da B8000000 		.4byte	0xb8
 209 00de 04       		.uleb128 0x4
 210 00df 1F060000 		.4byte	.LASF19
 211 00e3 04       		.byte	0x4
 212 00e4 45       		.byte	0x45
 213 00e5 C3000000 		.4byte	0xc3
 214 00e9 04       		.uleb128 0x4
 215 00ea 0F010000 		.4byte	.LASF20
 216 00ee 04       		.byte	0x4
 217 00ef 46       		.byte	0x46
 218 00f0 CE000000 		.4byte	0xce
 219 00f4 04       		.uleb128 0x4
 220 00f5 E4020000 		.4byte	.LASF21
 221 00f9 04       		.byte	0x4
 222 00fa 48       		.byte	0x48
 223 00fb AD000000 		.4byte	0xad
 224 00ff 04       		.uleb128 0x4
 225 0100 B4010000 		.4byte	.LASF22
 226 0104 04       		.byte	0x4
 227 0105 49       		.byte	0x49
ARM GAS  C:\Users\jo\AppData\Local\Temp\ccoLzcih.s 			page 5


 228 0106 AD000000 		.4byte	0xad
 229 010a 04       		.uleb128 0x4
 230 010b 9F040000 		.4byte	.LASF23
 231 010f 04       		.byte	0x4
 232 0110 4A       		.byte	0x4a
 233 0111 AD000000 		.4byte	0xad
 234 0115 04       		.uleb128 0x4
 235 0116 C8040000 		.4byte	.LASF24
 236 011a 04       		.byte	0x4
 237 011b 4C       		.byte	0x4c
 238 011c C3000000 		.4byte	0xc3
 239 0120 04       		.uleb128 0x4
 240 0121 C6020000 		.4byte	.LASF25
 241 0125 04       		.byte	0x4
 242 0126 4D       		.byte	0x4d
 243 0127 B8000000 		.4byte	0xb8
 244 012b 04       		.uleb128 0x4
 245 012c 05030000 		.4byte	.LASF26
 246 0130 04       		.byte	0x4
 247 0131 4F       		.byte	0x4f
 248 0132 C3000000 		.4byte	0xc3
 249 0136 04       		.uleb128 0x4
 250 0137 47020000 		.4byte	.LASF27
 251 013b 04       		.byte	0x4
 252 013c 51       		.byte	0x51
 253 013d B8000000 		.4byte	0xb8
 254 0141 04       		.uleb128 0x4
 255 0142 D1020000 		.4byte	.LASF28
 256 0146 04       		.byte	0x4
 257 0147 52       		.byte	0x52
 258 0148 C3000000 		.4byte	0xc3
 259 014c 04       		.uleb128 0x4
 260 014d DD050000 		.4byte	.LASF29
 261 0151 05       		.byte	0x5
 262 0152 33       		.byte	0x33
 263 0153 C3000000 		.4byte	0xc3
 264 0157 04       		.uleb128 0x4
 265 0158 C8050000 		.4byte	.LASF30
 266 015c 05       		.byte	0x5
 267 015d 3F       		.byte	0x3f
 268 015e 62010000 		.4byte	0x162
 269 0162 06       		.uleb128 0x6
 270 0163 BC020000 		.4byte	.LASF51
 271 0167 60       		.byte	0x60
 272 0168 06       		.byte	0x6
 273 0169 BE       		.byte	0xbe
 274 016a 68020000 		.4byte	0x268
 275 016e 07       		.uleb128 0x7
 276 016f 25050000 		.4byte	.LASF31
 277 0173 06       		.byte	0x6
 278 0174 BF       		.byte	0xbf
 279 0175 B0050000 		.4byte	0x5b0
 280 0179 00       		.byte	0
 281 017a 07       		.uleb128 0x7
 282 017b C1040000 		.4byte	.LASF32
 283 017f 06       		.byte	0x6
 284 0180 C1       		.byte	0xc1
ARM GAS  C:\Users\jo\AppData\Local\Temp\ccoLzcih.s 			page 6


 285 0181 B0050000 		.4byte	0x5b0
 286 0185 04       		.byte	0x4
 287 0186 07       		.uleb128 0x7
 288 0187 18010000 		.4byte	.LASF33
 289 018b 06       		.byte	0x6
 290 018c C3       		.byte	0xc3
 291 018d 15010000 		.4byte	0x115
 292 0191 08       		.byte	0x8
 293 0192 07       		.uleb128 0x7
 294 0193 BB060000 		.4byte	.LASF34
 295 0197 06       		.byte	0x6
 296 0198 C4       		.byte	0xc4
 297 0199 CB040000 		.4byte	0x4cb
 298 019d 0C       		.byte	0xc
 299 019e 07       		.uleb128 0x7
 300 019f CD010000 		.4byte	.LASF35
 301 01a3 06       		.byte	0x6
 302 01a4 C6       		.byte	0xc6
 303 01a5 B0050000 		.4byte	0x5b0
 304 01a9 10       		.byte	0x10
 305 01aa 07       		.uleb128 0x7
 306 01ab 58040000 		.4byte	.LASF36
 307 01af 06       		.byte	0x6
 308 01b0 C7       		.byte	0xc7
 309 01b1 B0050000 		.4byte	0x5b0
 310 01b5 14       		.byte	0x14
 311 01b6 07       		.uleb128 0x7
 312 01b7 75060000 		.4byte	.LASF37
 313 01bb 06       		.byte	0x6
 314 01bc CE       		.byte	0xce
 315 01bd 6C050000 		.4byte	0x56c
 316 01c1 18       		.byte	0x18
 317 01c2 07       		.uleb128 0x7
 318 01c3 4D020000 		.4byte	.LASF38
 319 01c7 06       		.byte	0x6
 320 01c8 D4       		.byte	0xd4
 321 01c9 FA060000 		.4byte	0x6fa
 322 01cd 1C       		.byte	0x1c
 323 01ce 07       		.uleb128 0x7
 324 01cf 0F050000 		.4byte	.LASF39
 325 01d3 06       		.byte	0x6
 326 01d4 D9       		.byte	0xd9
 327 01d5 FF000000 		.4byte	0xff
 328 01d9 20       		.byte	0x20
 329 01da 07       		.uleb128 0x7
 330 01db 2C050000 		.4byte	.LASF40
 331 01df 06       		.byte	0x6
 332 01e0 DD       		.byte	0xdd
 333 01e1 F4000000 		.4byte	0xf4
 334 01e5 21       		.byte	0x21
 335 01e6 07       		.uleb128 0x7
 336 01e7 51060000 		.4byte	.LASF41
 337 01eb 06       		.byte	0x6
 338 01ec E2       		.byte	0xe2
 339 01ed 0A010000 		.4byte	0x10a
 340 01f1 22       		.byte	0x22
 341 01f2 08       		.uleb128 0x8
ARM GAS  C:\Users\jo\AppData\Local\Temp\ccoLzcih.s 			page 7


 342 01f3 705F7500 		.ascii	"p_u\000"
 343 01f7 06       		.byte	0x6
 344 01f8 1401     		.2byte	0x114
 345 01fa C2060000 		.4byte	0x6c2
 346 01fe 24       		.byte	0x24
 347 01ff 09       		.uleb128 0x9
 348 0200 0D040000 		.4byte	.LASF42
 349 0204 06       		.byte	0x6
 350 0205 1901     		.2byte	0x119
 351 0207 68020000 		.4byte	0x268
 352 020b 28       		.byte	0x28
 353 020c 09       		.uleb128 0x9
 354 020d 7D020000 		.4byte	.LASF43
 355 0211 06       		.byte	0x6
 356 0212 1F01     		.2byte	0x11f
 357 0214 8C020000 		.4byte	0x28c
 358 0218 2C       		.byte	0x2c
 359 0219 09       		.uleb128 0x9
 360 021a 98060000 		.4byte	.LASF44
 361 021e 06       		.byte	0x6
 362 021f 2301     		.2byte	0x123
 363 0221 20010000 		.4byte	0x120
 364 0225 34       		.byte	0x34
 365 0226 09       		.uleb128 0x9
 366 0227 7C050000 		.4byte	.LASF45
 367 022b 06       		.byte	0x6
 368 022c 2901     		.2byte	0x129
 369 022e 2B010000 		.4byte	0x12b
 370 0232 38       		.byte	0x38
 371 0233 09       		.uleb128 0x9
 372 0234 FB040000 		.4byte	.LASF46
 373 0238 06       		.byte	0x6
 374 0239 3001     		.2byte	0x130
 375 023b 31070000 		.4byte	0x731
 376 023f 3C       		.byte	0x3c
 377 0240 09       		.uleb128 0x9
 378 0241 E7050000 		.4byte	.LASF47
 379 0245 06       		.byte	0x6
 380 0246 3401     		.2byte	0x134
 381 0248 15010000 		.4byte	0x115
 382 024c 40       		.byte	0x40
 383 024d 09       		.uleb128 0x9
 384 024e 91010000 		.4byte	.LASF48
 385 0252 06       		.byte	0x6
 386 0253 3A01     		.2byte	0x13a
 387 0255 3F030000 		.4byte	0x33f
 388 0259 44       		.byte	0x44
 389 025a 09       		.uleb128 0x9
 390 025b 34050000 		.4byte	.LASF49
 391 025f 06       		.byte	0x6
 392 0260 4001     		.2byte	0x140
 393 0262 73060000 		.4byte	0x673
 394 0266 48       		.byte	0x48
 395 0267 00       		.byte	0
 396 0268 04       		.uleb128 0x4
 397 0269 7C060000 		.4byte	.LASF50
 398 026d 05       		.byte	0x5
ARM GAS  C:\Users\jo\AppData\Local\Temp\ccoLzcih.s 			page 8


 399 026e 44       		.byte	0x44
 400 026f 73020000 		.4byte	0x273
 401 0273 06       		.uleb128 0x6
 402 0274 A1050000 		.4byte	.LASF52
 403 0278 04       		.byte	0x4
 404 0279 06       		.byte	0x6
 405 027a AC       		.byte	0xac
 406 027b 8C020000 		.4byte	0x28c
 407 027f 07       		.uleb128 0x7
 408 0280 25050000 		.4byte	.LASF31
 409 0284 06       		.byte	0x6
 410 0285 AD       		.byte	0xad
 411 0286 B0050000 		.4byte	0x5b0
 412 028a 00       		.byte	0
 413 028b 00       		.byte	0
 414 028c 04       		.uleb128 0x4
 415 028d 41060000 		.4byte	.LASF53
 416 0291 05       		.byte	0x5
 417 0292 4B       		.byte	0x4b
 418 0293 97020000 		.4byte	0x297
 419 0297 06       		.uleb128 0x6
 420 0298 58000000 		.4byte	.LASF54
 421 029c 08       		.byte	0x8
 422 029d 06       		.byte	0x6
 423 029e B3       		.byte	0xb3
 424 029f BC020000 		.4byte	0x2bc
 425 02a3 07       		.uleb128 0x7
 426 02a4 25050000 		.4byte	.LASF31
 427 02a8 06       		.byte	0x6
 428 02a9 B4       		.byte	0xb4
 429 02aa B0050000 		.4byte	0x5b0
 430 02ae 00       		.byte	0
 431 02af 07       		.uleb128 0x7
 432 02b0 C1040000 		.4byte	.LASF32
 433 02b4 06       		.byte	0x6
 434 02b5 B5       		.byte	0xb5
 435 02b6 B0050000 		.4byte	0x5b0
 436 02ba 04       		.byte	0x4
 437 02bb 00       		.byte	0
 438 02bc 04       		.uleb128 0x4
 439 02bd 07000000 		.4byte	.LASF55
 440 02c1 05       		.byte	0x5
 441 02c2 52       		.byte	0x52
 442 02c3 C7020000 		.4byte	0x2c7
 443 02c7 0A       		.uleb128 0xa
 444 02c8 F7020000 		.4byte	.LASF56
 445 02cc 1C       		.byte	0x1c
 446 02cd 06       		.byte	0x6
 447 02ce 7201     		.2byte	0x172
 448 02d0 23030000 		.4byte	0x323
 449 02d4 09       		.uleb128 0x9
 450 02d5 90050000 		.4byte	.LASF57
 451 02d9 06       		.byte	0x6
 452 02da 7301     		.2byte	0x173
 453 02dc 8C020000 		.4byte	0x28c
 454 02e0 00       		.byte	0
 455 02e1 09       		.uleb128 0x9
ARM GAS  C:\Users\jo\AppData\Local\Temp\ccoLzcih.s 			page 9


 456 02e2 17050000 		.4byte	.LASF58
 457 02e6 06       		.byte	0x6
 458 02e7 7401     		.2byte	0x174
 459 02e9 15010000 		.4byte	0x115
 460 02ed 08       		.byte	0x8
 461 02ee 09       		.uleb128 0x9
 462 02ef 60040000 		.4byte	.LASF59
 463 02f3 06       		.byte	0x6
 464 02f4 7601     		.2byte	0x176
 465 02f6 CB040000 		.4byte	0x4cb
 466 02fa 0C       		.byte	0xc
 467 02fb 09       		.uleb128 0x9
 468 02fc F7010000 		.4byte	.LASF60
 469 0300 06       		.byte	0x6
 470 0301 7901     		.2byte	0x179
 471 0303 B0050000 		.4byte	0x5b0
 472 0307 10       		.byte	0x10
 473 0308 09       		.uleb128 0x9
 474 0309 81040000 		.4byte	.LASF61
 475 030d 06       		.byte	0x6
 476 030e 7A01     		.2byte	0x17a
 477 0310 B0050000 		.4byte	0x5b0
 478 0314 14       		.byte	0x14
 479 0315 09       		.uleb128 0x9
 480 0316 77040000 		.4byte	.LASF62
 481 031a 06       		.byte	0x6
 482 031b 7D01     		.2byte	0x17d
 483 031d B0050000 		.4byte	0x5b0
 484 0321 18       		.byte	0x18
 485 0322 00       		.byte	0
 486 0323 04       		.uleb128 0x4
 487 0324 F2050000 		.4byte	.LASF63
 488 0328 05       		.byte	0x5
 489 0329 57       		.byte	0x57
 490 032a 2E030000 		.4byte	0x32e
 491 032e 0B       		.uleb128 0xb
 492 032f 04       		.byte	0x4
 493 0330 34030000 		.4byte	0x334
 494 0334 0C       		.uleb128 0xc
 495 0335 3F030000 		.4byte	0x33f
 496 0339 0D       		.uleb128 0xd
 497 033a 3F030000 		.4byte	0x33f
 498 033e 00       		.byte	0
 499 033f 0E       		.uleb128 0xe
 500 0340 04       		.byte	0x4
 501 0341 04       		.uleb128 0x4
 502 0342 B1040000 		.4byte	.LASF64
 503 0346 05       		.byte	0x5
 504 0347 5C       		.byte	0x5c
 505 0348 4C030000 		.4byte	0x34c
 506 034c 0A       		.uleb128 0xa
 507 034d 66050000 		.4byte	.LASF65
 508 0351 14       		.byte	0x14
 509 0352 06       		.byte	0x6
 510 0353 4D01     		.2byte	0x14d
 511 0355 9B030000 		.4byte	0x39b
 512 0359 09       		.uleb128 0x9
ARM GAS  C:\Users\jo\AppData\Local\Temp\ccoLzcih.s 			page 10


 513 035a 6A020000 		.4byte	.LASF66
 514 035e 06       		.byte	0x6
 515 035f 4E01     		.2byte	0x14e
 516 0361 37070000 		.4byte	0x737
 517 0365 00       		.byte	0
 518 0366 09       		.uleb128 0x9
 519 0367 08020000 		.4byte	.LASF67
 520 036b 06       		.byte	0x6
 521 036c 4F01     		.2byte	0x14f
 522 036e 37070000 		.4byte	0x737
 523 0372 04       		.byte	0x4
 524 0373 09       		.uleb128 0x9
 525 0374 98050000 		.4byte	.LASF68
 526 0378 06       		.byte	0x6
 527 0379 5001     		.2byte	0x150
 528 037b 4C010000 		.4byte	0x14c
 529 037f 08       		.byte	0x8
 530 0380 09       		.uleb128 0x9
 531 0381 C1060000 		.4byte	.LASF69
 532 0385 06       		.byte	0x6
 533 0386 5101     		.2byte	0x151
 534 0388 23030000 		.4byte	0x323
 535 038c 0C       		.byte	0xc
 536 038d 09       		.uleb128 0x9
 537 038e 2E060000 		.4byte	.LASF70
 538 0392 06       		.byte	0x6
 539 0393 5301     		.2byte	0x153
 540 0395 3F030000 		.4byte	0x33f
 541 0399 10       		.byte	0x10
 542 039a 00       		.byte	0
 543 039b 04       		.uleb128 0x4
 544 039c E3000000 		.4byte	.LASF71
 545 03a0 05       		.byte	0x5
 546 03a1 61       		.byte	0x61
 547 03a2 A6030000 		.4byte	0x3a6
 548 03a6 0A       		.uleb128 0xa
 549 03a7 26040000 		.4byte	.LASF72
 550 03ab 10       		.byte	0x10
 551 03ac 06       		.byte	0x6
 552 03ad 5D01     		.2byte	0x15d
 553 03af E8030000 		.4byte	0x3e8
 554 03b3 09       		.uleb128 0x9
 555 03b4 6A020000 		.4byte	.LASF66
 556 03b8 06       		.byte	0x6
 557 03b9 5E01     		.2byte	0x15e
 558 03bb 37070000 		.4byte	0x737
 559 03bf 00       		.byte	0
 560 03c0 09       		.uleb128 0x9
 561 03c1 08020000 		.4byte	.LASF67
 562 03c5 06       		.byte	0x6
 563 03c6 6001     		.2byte	0x160
 564 03c8 37070000 		.4byte	0x737
 565 03cc 04       		.byte	0x4
 566 03cd 09       		.uleb128 0x9
 567 03ce 98050000 		.4byte	.LASF68
 568 03d2 06       		.byte	0x6
 569 03d3 6201     		.2byte	0x162
ARM GAS  C:\Users\jo\AppData\Local\Temp\ccoLzcih.s 			page 11


 570 03d5 4C010000 		.4byte	0x14c
 571 03d9 08       		.byte	0x8
 572 03da 09       		.uleb128 0x9
 573 03db 4C040000 		.4byte	.LASF73
 574 03df 06       		.byte	0x6
 575 03e0 6A01     		.2byte	0x16a
 576 03e2 4C010000 		.4byte	0x14c
 577 03e6 0C       		.byte	0xc
 578 03e7 00       		.byte	0
 579 03e8 04       		.uleb128 0x4
 580 03e9 69000000 		.4byte	.LASF74
 581 03ed 05       		.byte	0x5
 582 03ee 66       		.byte	0x66
 583 03ef F3030000 		.4byte	0x3f3
 584 03f3 0F       		.uleb128 0xf
 585 03f4 17020000 		.4byte	.LASF75
 586 03f8 1404     		.2byte	0x414
 587 03fa 06       		.byte	0x6
 588 03fb 8401     		.2byte	0x184
 589 03fd 36040000 		.4byte	0x436
 590 0401 09       		.uleb128 0x9
 591 0402 06060000 		.4byte	.LASF76
 592 0406 06       		.byte	0x6
 593 0407 8C01     		.2byte	0x18c
 594 0409 3D070000 		.4byte	0x73d
 595 040d 00       		.byte	0
 596 040e 09       		.uleb128 0x9
 597 040f 58060000 		.4byte	.LASF77
 598 0413 06       		.byte	0x6
 599 0414 9101     		.2byte	0x191
 600 0416 36010000 		.4byte	0x136
 601 041a 04       		.byte	0x4
 602 041b 09       		.uleb128 0x9
 603 041c 2F020000 		.4byte	.LASF78
 604 0420 06       		.byte	0x6
 605 0421 9501     		.2byte	0x195
 606 0423 36010000 		.4byte	0x136
 607 0427 08       		.byte	0x8
 608 0428 09       		.uleb128 0x9
 609 0429 8B060000 		.4byte	.LASF79
 610 042d 06       		.byte	0x6
 611 042e 9B01     		.2byte	0x19b
 612 0430 05060000 		.4byte	0x605
 613 0434 0C       		.byte	0xc
 614 0435 00       		.byte	0
 615 0436 04       		.uleb128 0x4
 616 0437 D8020000 		.4byte	.LASF80
 617 043b 05       		.byte	0x5
 618 043c 6B       		.byte	0x6b
 619 043d 41040000 		.4byte	0x441
 620 0441 0F       		.uleb128 0xf
 621 0442 A1010000 		.4byte	.LASF81
 622 0446 D805     		.2byte	0x5d8
 623 0448 06       		.byte	0x6
 624 0449 A401     		.2byte	0x1a4
 625 044b AE040000 		.4byte	0x4ae
 626 044f 09       		.uleb128 0x9
ARM GAS  C:\Users\jo\AppData\Local\Temp\ccoLzcih.s 			page 12


 627 0450 60060000 		.4byte	.LASF82
 628 0454 06       		.byte	0x6
 629 0455 A801     		.2byte	0x1a8
 630 0457 BC020000 		.4byte	0x2bc
 631 045b 00       		.byte	0
 632 045c 09       		.uleb128 0x9
 633 045d 10020000 		.4byte	.LASF83
 634 0461 06       		.byte	0x6
 635 0462 AC01     		.2byte	0x1ac
 636 0464 9B030000 		.4byte	0x39b
 637 0468 1C       		.byte	0x1c
 638 0469 08       		.uleb128 0x8
 639 046a 64626700 		.ascii	"dbg\000"
 640 046e 06       		.byte	0x6
 641 046f B001     		.2byte	0x1b0
 642 0471 E8030000 		.4byte	0x3e8
 643 0475 2C       		.byte	0x2c
 644 0476 10       		.uleb128 0x10
 645 0477 D8000000 		.4byte	.LASF84
 646 047b 06       		.byte	0x6
 647 047c B401     		.2byte	0x1b4
 648 047e 57010000 		.4byte	0x157
 649 0482 4004     		.2byte	0x440
 650 0484 11       		.uleb128 0x11
 651 0485 746D00   		.ascii	"tm\000"
 652 0488 06       		.byte	0x6
 653 0489 B901     		.2byte	0x1b9
 654 048b 25060000 		.4byte	0x625
 655 048f A004     		.2byte	0x4a0
 656 0491 10       		.uleb128 0x10
 657 0492 2C000000 		.4byte	.LASF85
 658 0496 06       		.byte	0x6
 659 0497 BF01     		.2byte	0x1bf
 660 0499 B7060000 		.4byte	0x6b7
 661 049d A804     		.2byte	0x4a8
 662 049f 10       		.uleb128 0x10
 663 04a0 38020000 		.4byte	.LASF86
 664 04a4 06       		.byte	0x6
 665 04a5 C501     		.2byte	0x1c5
 666 04a7 42070000 		.4byte	0x742
 667 04ab E004     		.2byte	0x4e0
 668 04ad 00       		.byte	0
 669 04ae 03       		.uleb128 0x3
 670 04af 04       		.byte	0x4
 671 04b0 07       		.byte	0x7
 672 04b1 1D040000 		.4byte	.LASF87
 673 04b5 04       		.uleb128 0x4
 674 04b6 FF010000 		.4byte	.LASF88
 675 04ba 07       		.byte	0x7
 676 04bb 85       		.byte	0x85
 677 04bc 3F030000 		.4byte	0x33f
 678 04c0 04       		.uleb128 0x4
 679 04c1 F5030000 		.4byte	.LASF89
 680 04c5 07       		.byte	0x7
 681 04c6 8D       		.byte	0x8d
 682 04c7 CE000000 		.4byte	0xce
 683 04cb 06       		.uleb128 0x6
ARM GAS  C:\Users\jo\AppData\Local\Temp\ccoLzcih.s 			page 13


 684 04cc 17060000 		.4byte	.LASF90
 685 04d0 04       		.byte	0x4
 686 04d1 07       		.byte	0x7
 687 04d2 A9       		.byte	0xa9
 688 04d3 E4040000 		.4byte	0x4e4
 689 04d7 12       		.uleb128 0x12
 690 04d8 72313300 		.ascii	"r13\000"
 691 04dc 07       		.byte	0x7
 692 04dd AA       		.byte	0xaa
 693 04de 5F050000 		.4byte	0x55f
 694 04e2 00       		.byte	0
 695 04e3 00       		.byte	0
 696 04e4 06       		.uleb128 0x6
 697 04e5 4C000000 		.4byte	.LASF91
 698 04e9 24       		.byte	0x24
 699 04ea 08       		.byte	0x8
 700 04eb F4       		.byte	0xf4
 701 04ec 5F050000 		.4byte	0x55f
 702 04f0 08       		.uleb128 0x8
 703 04f1 723400   		.ascii	"r4\000"
 704 04f4 08       		.byte	0x8
 705 04f5 0701     		.2byte	0x107
 706 04f7 B5040000 		.4byte	0x4b5
 707 04fb 00       		.byte	0
 708 04fc 08       		.uleb128 0x8
 709 04fd 723500   		.ascii	"r5\000"
 710 0500 08       		.byte	0x8
 711 0501 0801     		.2byte	0x108
 712 0503 B5040000 		.4byte	0x4b5
 713 0507 04       		.byte	0x4
 714 0508 08       		.uleb128 0x8
 715 0509 723600   		.ascii	"r6\000"
 716 050c 08       		.byte	0x8
 717 050d 0901     		.2byte	0x109
 718 050f B5040000 		.4byte	0x4b5
 719 0513 08       		.byte	0x8
 720 0514 08       		.uleb128 0x8
 721 0515 723700   		.ascii	"r7\000"
 722 0518 08       		.byte	0x8
 723 0519 0A01     		.2byte	0x10a
 724 051b B5040000 		.4byte	0x4b5
 725 051f 0C       		.byte	0xc
 726 0520 08       		.uleb128 0x8
 727 0521 723800   		.ascii	"r8\000"
 728 0524 08       		.byte	0x8
 729 0525 0B01     		.2byte	0x10b
 730 0527 B5040000 		.4byte	0x4b5
 731 052b 10       		.byte	0x10
 732 052c 08       		.uleb128 0x8
 733 052d 723900   		.ascii	"r9\000"
 734 0530 08       		.byte	0x8
 735 0531 0C01     		.2byte	0x10c
 736 0533 B5040000 		.4byte	0x4b5
 737 0537 14       		.byte	0x14
 738 0538 08       		.uleb128 0x8
 739 0539 72313000 		.ascii	"r10\000"
 740 053d 08       		.byte	0x8
ARM GAS  C:\Users\jo\AppData\Local\Temp\ccoLzcih.s 			page 14


 741 053e 0D01     		.2byte	0x10d
 742 0540 B5040000 		.4byte	0x4b5
 743 0544 18       		.byte	0x18
 744 0545 08       		.uleb128 0x8
 745 0546 72313100 		.ascii	"r11\000"
 746 054a 08       		.byte	0x8
 747 054b 0E01     		.2byte	0x10e
 748 054d B5040000 		.4byte	0x4b5
 749 0551 1C       		.byte	0x1c
 750 0552 08       		.uleb128 0x8
 751 0553 6C7200   		.ascii	"lr\000"
 752 0556 08       		.byte	0x8
 753 0557 0F01     		.2byte	0x10f
 754 0559 B5040000 		.4byte	0x4b5
 755 055d 20       		.byte	0x20
 756 055e 00       		.byte	0
 757 055f 0B       		.uleb128 0xb
 758 0560 04       		.byte	0x4
 759 0561 E4040000 		.4byte	0x4e4
 760 0565 03       		.uleb128 0x3
 761 0566 01       		.byte	0x1
 762 0567 08       		.byte	0x8
 763 0568 C3050000 		.4byte	.LASF92
 764 056c 0B       		.uleb128 0xb
 765 056d 04       		.byte	0x4
 766 056e 72050000 		.4byte	0x572
 767 0572 13       		.uleb128 0x13
 768 0573 65050000 		.4byte	0x565
 769 0577 14       		.uleb128 0x14
 770 0578 10       		.byte	0x10
 771 0579 09       		.byte	0x9
 772 057a 57       		.byte	0x57
 773 057b B0050000 		.4byte	0x5b0
 774 057f 07       		.uleb128 0x7
 775 0580 14000000 		.4byte	.LASF93
 776 0584 09       		.byte	0x9
 777 0585 5B       		.byte	0x5b
 778 0586 4C010000 		.4byte	0x14c
 779 058a 00       		.byte	0
 780 058b 07       		.uleb128 0x7
 781 058c BD010000 		.4byte	.LASF94
 782 0590 09       		.byte	0x9
 783 0591 5F       		.byte	0x5f
 784 0592 B0050000 		.4byte	0x5b0
 785 0596 04       		.byte	0x4
 786 0597 07       		.uleb128 0x7
 787 0598 B1060000 		.4byte	.LASF95
 788 059c 09       		.byte	0x9
 789 059d 63       		.byte	0x63
 790 059e 3F030000 		.4byte	0x33f
 791 05a2 08       		.byte	0x8
 792 05a3 07       		.uleb128 0x7
 793 05a4 BA000000 		.4byte	.LASF96
 794 05a8 09       		.byte	0x9
 795 05a9 67       		.byte	0x67
 796 05aa AD000000 		.4byte	0xad
 797 05ae 0C       		.byte	0xc
ARM GAS  C:\Users\jo\AppData\Local\Temp\ccoLzcih.s 			page 15


 798 05af 00       		.byte	0
 799 05b0 0B       		.uleb128 0xb
 800 05b1 04       		.byte	0x4
 801 05b2 57010000 		.4byte	0x157
 802 05b6 04       		.uleb128 0x4
 803 05b7 3D040000 		.4byte	.LASF97
 804 05bb 09       		.byte	0x9
 805 05bc 68       		.byte	0x68
 806 05bd 77050000 		.4byte	0x577
 807 05c1 15       		.uleb128 0x15
 808 05c2 0804     		.2byte	0x408
 809 05c4 09       		.byte	0x9
 810 05c5 6D       		.byte	0x6d
 811 05c6 EF050000 		.4byte	0x5ef
 812 05ca 07       		.uleb128 0x7
 813 05cb EF010000 		.4byte	.LASF98
 814 05cf 09       		.byte	0x9
 815 05d0 71       		.byte	0x71
 816 05d1 2C000000 		.4byte	0x2c
 817 05d5 00       		.byte	0
 818 05d6 07       		.uleb128 0x7
 819 05d7 00000000 		.4byte	.LASF99
 820 05db 09       		.byte	0x9
 821 05dc 75       		.byte	0x75
 822 05dd EF050000 		.4byte	0x5ef
 823 05e1 04       		.byte	0x4
 824 05e2 07       		.uleb128 0x7
 825 05e3 A7040000 		.4byte	.LASF100
 826 05e7 09       		.byte	0x9
 827 05e8 79       		.byte	0x79
 828 05e9 F5050000 		.4byte	0x5f5
 829 05ed 08       		.byte	0x8
 830 05ee 00       		.byte	0
 831 05ef 0B       		.uleb128 0xb
 832 05f0 04       		.byte	0x4
 833 05f1 B6050000 		.4byte	0x5b6
 834 05f5 16       		.uleb128 0x16
 835 05f6 B6050000 		.4byte	0x5b6
 836 05fa 05060000 		.4byte	0x605
 837 05fe 17       		.uleb128 0x17
 838 05ff AE040000 		.4byte	0x4ae
 839 0603 3F       		.byte	0x3f
 840 0604 00       		.byte	0
 841 0605 04       		.uleb128 0x4
 842 0606 A8000000 		.4byte	.LASF101
 843 060a 09       		.byte	0x9
 844 060b 7A       		.byte	0x7a
 845 060c C1050000 		.4byte	0x5c1
 846 0610 14       		.uleb128 0x14
 847 0611 04       		.byte	0x4
 848 0612 0A       		.byte	0xa
 849 0613 38       		.byte	0x38
 850 0614 25060000 		.4byte	0x625
 851 0618 07       		.uleb128 0x7
 852 0619 10060000 		.4byte	.LASF102
 853 061d 0A       		.byte	0xa
 854 061e 3C       		.byte	0x3c
ARM GAS  C:\Users\jo\AppData\Local\Temp\ccoLzcih.s 			page 16


 855 061f DE000000 		.4byte	0xde
 856 0623 00       		.byte	0
 857 0624 00       		.byte	0
 858 0625 04       		.uleb128 0x4
 859 0626 66040000 		.4byte	.LASF103
 860 062a 0A       		.byte	0xa
 861 062b 3D       		.byte	0x3d
 862 062c 10060000 		.4byte	0x610
 863 0630 14       		.uleb128 0x14
 864 0631 18       		.byte	0x18
 865 0632 0A       		.byte	0xa
 866 0633 48       		.byte	0x48
 867 0634 73060000 		.4byte	0x673
 868 0638 07       		.uleb128 0x7
 869 0639 D1050000 		.4byte	.LASF104
 870 063d 0A       		.byte	0xa
 871 063e 49       		.byte	0x49
 872 063f DE000000 		.4byte	0xde
 873 0643 00       		.byte	0
 874 0644 07       		.uleb128 0x7
 875 0645 78000000 		.4byte	.LASF105
 876 0649 0A       		.byte	0xa
 877 064a 4A       		.byte	0x4a
 878 064b DE000000 		.4byte	0xde
 879 064f 04       		.byte	0x4
 880 0650 07       		.uleb128 0x7
 881 0651 CC020000 		.4byte	.LASF106
 882 0655 0A       		.byte	0xa
 883 0656 4B       		.byte	0x4b
 884 0657 DE000000 		.4byte	0xde
 885 065b 08       		.byte	0x8
 886 065c 12       		.uleb128 0x12
 887 065d 6E00     		.ascii	"n\000"
 888 065f 0A       		.byte	0xa
 889 0660 4C       		.byte	0x4c
 890 0661 41010000 		.4byte	0x141
 891 0665 0C       		.byte	0xc
 892 0666 07       		.uleb128 0x7
 893 0667 94040000 		.4byte	.LASF107
 894 066b 0A       		.byte	0xa
 895 066c 4D       		.byte	0x4d
 896 066d E9000000 		.4byte	0xe9
 897 0671 10       		.byte	0x10
 898 0672 00       		.byte	0
 899 0673 04       		.uleb128 0x4
 900 0674 7E000000 		.4byte	.LASF108
 901 0678 0A       		.byte	0xa
 902 0679 4E       		.byte	0x4e
 903 067a 30060000 		.4byte	0x630
 904 067e 14       		.uleb128 0x14
 905 067f 38       		.byte	0x38
 906 0680 0B       		.byte	0xb
 907 0681 38       		.byte	0x38
 908 0682 B7060000 		.4byte	0x6b7
 909 0686 07       		.uleb128 0x7
 910 0687 8E020000 		.4byte	.LASF109
 911 068b 0B       		.byte	0xb
ARM GAS  C:\Users\jo\AppData\Local\Temp\ccoLzcih.s 			page 17


 912 068c 39       		.byte	0x39
 913 068d 41010000 		.4byte	0x141
 914 0691 00       		.byte	0
 915 0692 07       		.uleb128 0x7
 916 0693 D6040000 		.4byte	.LASF110
 917 0697 0B       		.byte	0xb
 918 0698 3A       		.byte	0x3a
 919 0699 41010000 		.4byte	0x141
 920 069d 04       		.byte	0x4
 921 069e 07       		.uleb128 0x7
 922 069f 9E060000 		.4byte	.LASF111
 923 06a3 0B       		.byte	0xb
 924 06a4 3B       		.byte	0x3b
 925 06a5 73060000 		.4byte	0x673
 926 06a9 08       		.byte	0x8
 927 06aa 07       		.uleb128 0x7
 928 06ab EC020000 		.4byte	.LASF112
 929 06af 0B       		.byte	0xb
 930 06b0 3D       		.byte	0x3d
 931 06b1 73060000 		.4byte	0x673
 932 06b5 20       		.byte	0x20
 933 06b6 00       		.byte	0
 934 06b7 04       		.uleb128 0x4
 935 06b8 AD020000 		.4byte	.LASF113
 936 06bc 0B       		.byte	0xb
 937 06bd 3F       		.byte	0x3f
 938 06be 7E060000 		.4byte	0x67e
 939 06c2 18       		.uleb128 0x18
 940 06c3 04       		.byte	0x4
 941 06c4 06       		.byte	0x6
 942 06c5 F6       		.byte	0xf6
 943 06c6 FA060000 		.4byte	0x6fa
 944 06ca 19       		.uleb128 0x19
 945 06cb 1C000000 		.4byte	.LASF114
 946 06cf 06       		.byte	0x6
 947 06d0 FD       		.byte	0xfd
 948 06d1 20010000 		.4byte	0x120
 949 06d5 1A       		.uleb128 0x1a
 950 06d6 CF000000 		.4byte	.LASF115
 951 06da 06       		.byte	0x6
 952 06db 0401     		.2byte	0x104
 953 06dd 20010000 		.4byte	0x120
 954 06e1 1A       		.uleb128 0x1a
 955 06e2 6E060000 		.4byte	.LASF116
 956 06e6 06       		.byte	0x6
 957 06e7 0B01     		.2byte	0x10b
 958 06e9 3F030000 		.4byte	0x33f
 959 06ed 1A       		.uleb128 0x1a
 960 06ee 1E050000 		.4byte	.LASF117
 961 06f2 06       		.byte	0x6
 962 06f3 1201     		.2byte	0x112
 963 06f5 2B010000 		.4byte	0x12b
 964 06f9 00       		.byte	0
 965 06fa 0B       		.uleb128 0xb
 966 06fb 04       		.byte	0x4
 967 06fc C0040000 		.4byte	0x4c0
 968 0700 06       		.uleb128 0x6
ARM GAS  C:\Users\jo\AppData\Local\Temp\ccoLzcih.s 			page 18


 969 0701 D0040000 		.4byte	.LASF118
 970 0705 10       		.byte	0x10
 971 0706 0C       		.byte	0xc
 972 0707 39       		.byte	0x39
 973 0708 31070000 		.4byte	0x731
 974 070c 07       		.uleb128 0x7
 975 070d 99010000 		.4byte	.LASF119
 976 0711 0C       		.byte	0xc
 977 0712 3A       		.byte	0x3a
 978 0713 8C020000 		.4byte	0x28c
 979 0717 00       		.byte	0
 980 0718 07       		.uleb128 0x7
 981 0719 A9060000 		.4byte	.LASF120
 982 071d 0C       		.byte	0xc
 983 071e 3C       		.byte	0x3c
 984 071f B0050000 		.4byte	0x5b0
 985 0723 08       		.byte	0x8
 986 0724 07       		.uleb128 0x7
 987 0725 D6050000 		.4byte	.LASF121
 988 0729 0C       		.byte	0xc
 989 072a 3E       		.byte	0x3e
 990 072b 8D070000 		.4byte	0x78d
 991 072f 0C       		.byte	0xc
 992 0730 00       		.byte	0
 993 0731 0B       		.uleb128 0xb
 994 0732 04       		.byte	0x4
 995 0733 00070000 		.4byte	0x700
 996 0737 0B       		.uleb128 0xb
 997 0738 04       		.byte	0x4
 998 0739 41030000 		.4byte	0x341
 999 073d 05       		.uleb128 0x5
 1000 073e 6C050000 		.4byte	0x56c
 1001 0742 16       		.uleb128 0x16
 1002 0743 C0040000 		.4byte	0x4c0
 1003 0747 52070000 		.4byte	0x752
 1004 074b 17       		.uleb128 0x17
 1005 074c AE040000 		.4byte	0x4ae
 1006 0750 1E       		.byte	0x1e
 1007 0751 00       		.byte	0
 1008 0752 06       		.uleb128 0x6
 1009 0753 C3010000 		.4byte	.LASF122
 1010 0757 0C       		.byte	0xc
 1011 0758 0D       		.byte	0xd
 1012 0759 34       		.byte	0x34
 1013 075a 77070000 		.4byte	0x777
 1014 075e 07       		.uleb128 0x7
 1015 075f D5010000 		.4byte	.LASF123
 1016 0763 0D       		.byte	0xd
 1017 0764 35       		.byte	0x35
 1018 0765 8C020000 		.4byte	0x28c
 1019 0769 00       		.byte	0
 1020 076a 07       		.uleb128 0x7
 1021 076b 94020000 		.4byte	.LASF124
 1022 076f 0D       		.byte	0xd
 1023 0770 37       		.byte	0x37
 1024 0771 36010000 		.4byte	0x136
 1025 0775 08       		.byte	0x8
ARM GAS  C:\Users\jo\AppData\Local\Temp\ccoLzcih.s 			page 19


 1026 0776 00       		.byte	0
 1027 0777 04       		.uleb128 0x4
 1028 0778 C3000000 		.4byte	.LASF125
 1029 077c 0D       		.byte	0xd
 1030 077d 38       		.byte	0x38
 1031 077e 52070000 		.4byte	0x752
 1032 0782 04       		.uleb128 0x4
 1033 0783 27020000 		.4byte	.LASF126
 1034 0787 0C       		.byte	0xc
 1035 0788 34       		.byte	0x34
 1036 0789 00070000 		.4byte	0x700
 1037 078d 0B       		.uleb128 0xb
 1038 078e 04       		.byte	0x4
 1039 078f 82070000 		.4byte	0x782
 1040 0793 03       		.uleb128 0x3
 1041 0794 01       		.byte	0x1
 1042 0795 02       		.byte	0x2
 1043 0796 DF040000 		.4byte	.LASF127
 1044 079a 04       		.uleb128 0x4
 1045 079b 65020000 		.4byte	.LASF128
 1046 079f 0E       		.byte	0xe
 1047 07a0 3D       		.byte	0x3d
 1048 07a1 AD000000 		.4byte	0xad
 1049 07a5 04       		.uleb128 0x4
 1050 07a6 77050000 		.4byte	.LASF129
 1051 07aa 0E       		.byte	0xe
 1052 07ab 3E       		.byte	0x3e
 1053 07ac A2000000 		.4byte	0xa2
 1054 07b0 04       		.uleb128 0x4
 1055 07b1 88020000 		.4byte	.LASF130
 1056 07b5 0E       		.byte	0xe
 1057 07b6 41       		.byte	0x41
 1058 07b7 C3000000 		.4byte	0xc3
 1059 07bb 04       		.uleb128 0x4
 1060 07bc 17040000 		.4byte	.LASF131
 1061 07c0 0F       		.byte	0xf
 1062 07c1 2F       		.byte	0x2f
 1063 07c2 A5070000 		.4byte	0x7a5
 1064 07c6 04       		.uleb128 0x4
 1065 07c7 6D010000 		.4byte	.LASF132
 1066 07cb 10       		.byte	0x10
 1067 07cc 38       		.byte	0x38
 1068 07cd D1070000 		.4byte	0x7d1
 1069 07d1 0B       		.uleb128 0xb
 1070 07d2 04       		.byte	0x4
 1071 07d3 77070000 		.4byte	0x777
 1072 07d7 1B       		.uleb128 0x1b
 1073 07d8 72020000 		.4byte	.LASF140
 1074 07dc 01       		.byte	0x1
 1075 07dd 37       		.byte	0x37
 1076 07de 00000000 		.4byte	.LFB256
 1077 07e2 2A000000 		.4byte	.LFE256-.LFB256
 1078 07e6 01       		.uleb128 0x1
 1079 07e7 9C       		.byte	0x9c
 1080 07e8 61080000 		.4byte	0x861
 1081 07ec 1C       		.uleb128 0x1c
 1082 07ed 6D7300   		.ascii	"ms\000"
ARM GAS  C:\Users\jo\AppData\Local\Temp\ccoLzcih.s 			page 20


 1083 07f0 01       		.byte	0x1
 1084 07f1 37       		.byte	0x37
 1085 07f2 B0070000 		.4byte	0x7b0
 1086 07f6 00000000 		.4byte	.LLST0
 1087 07fa 1D       		.uleb128 0x1d
 1088 07fb 00000000 		.4byte	.Ldebug_ranges0+0
 1089 07ff 1E       		.uleb128 0x1e
 1090 0800 39000000 		.4byte	.LASF133
 1091 0804 01       		.byte	0x1
 1092 0805 3A       		.byte	0x3a
 1093 0806 C6070000 		.4byte	0x7c6
 1094 080a 02       		.uleb128 0x2
 1095 080b 91       		.byte	0x91
 1096 080c 74       		.sleb128 -12
 1097 080d 1F       		.uleb128 0x1f
 1098 080e 65727200 		.ascii	"err\000"
 1099 0812 01       		.byte	0x1
 1100 0813 3B       		.byte	0x3b
 1101 0814 BB070000 		.4byte	0x7bb
 1102 0818 1E000000 		.4byte	.LLST1
 1103 081c 20       		.uleb128 0x20
 1104 081d 12000000 		.4byte	.LVL2
 1105 0821 78080000 		.4byte	0x878
 1106 0825 35080000 		.4byte	0x835
 1107 0829 21       		.uleb128 0x21
 1108 082a 01       		.uleb128 0x1
 1109 082b 51       		.byte	0x51
 1110 082c 01       		.uleb128 0x1
 1111 082d 30       		.byte	0x30
 1112 082e 21       		.uleb128 0x21
 1113 082f 01       		.uleb128 0x1
 1114 0830 50       		.byte	0x50
 1115 0831 02       		.uleb128 0x2
 1116 0832 91       		.byte	0x91
 1117 0833 74       		.sleb128 -12
 1118 0834 00       		.byte	0
 1119 0835 20       		.uleb128 0x20
 1120 0836 20000000 		.4byte	.LVL5
 1121 083a 98080000 		.4byte	0x898
 1122 083e 4F080000 		.4byte	0x84f
 1123 0842 21       		.uleb128 0x21
 1124 0843 01       		.uleb128 0x1
 1125 0844 51       		.byte	0x51
 1126 0845 02       		.uleb128 0x2
 1127 0846 74       		.byte	0x74
 1128 0847 00       		.sleb128 0
 1129 0848 21       		.uleb128 0x21
 1130 0849 01       		.uleb128 0x1
 1131 084a 50       		.byte	0x50
 1132 084b 02       		.uleb128 0x2
 1133 084c 91       		.byte	0x91
 1134 084d 74       		.sleb128 -12
 1135 084e 00       		.byte	0
 1136 084f 22       		.uleb128 0x22
 1137 0850 26000000 		.4byte	.LVL6
 1138 0854 B2080000 		.4byte	0x8b2
 1139 0858 21       		.uleb128 0x21
ARM GAS  C:\Users\jo\AppData\Local\Temp\ccoLzcih.s 			page 21


 1140 0859 01       		.uleb128 0x1
 1141 085a 50       		.byte	0x50
 1142 085b 02       		.uleb128 0x2
 1143 085c 91       		.byte	0x91
 1144 085d 74       		.sleb128 -12
 1145 085e 00       		.byte	0
 1146 085f 00       		.byte	0
 1147 0860 00       		.byte	0
 1148 0861 23       		.uleb128 0x23
 1149 0862 02010000 		.4byte	.LASF134
 1150 0866 12       		.byte	0x12
 1151 0867 A706     		.2byte	0x6a7
 1152 0869 D9000000 		.4byte	0xd9
 1153 086d 24       		.uleb128 0x24
 1154 086e 636800   		.ascii	"ch\000"
 1155 0871 06       		.byte	0x6
 1156 0872 EB01     		.2byte	0x1eb
 1157 0874 36040000 		.4byte	0x436
 1158 0878 25       		.uleb128 0x25
 1159 0879 35060000 		.4byte	.LASF135
 1160 087d 11       		.byte	0x11
 1161 087e 8B       		.byte	0x8b
 1162 087f BB070000 		.4byte	0x7bb
 1163 0883 92080000 		.4byte	0x892
 1164 0887 0D       		.uleb128 0xd
 1165 0888 92080000 		.4byte	0x892
 1166 088c 0D       		.uleb128 0xd
 1167 088d 9A070000 		.4byte	0x79a
 1168 0891 00       		.byte	0
 1169 0892 0B       		.uleb128 0xb
 1170 0893 04       		.byte	0x4
 1171 0894 C6070000 		.4byte	0x7c6
 1172 0898 25       		.uleb128 0x25
 1173 0899 DD010000 		.4byte	.LASF136
 1174 089d 11       		.byte	0x11
 1175 089e 94       		.byte	0x94
 1176 089f B0070000 		.4byte	0x7b0
 1177 08a3 B2080000 		.4byte	0x8b2
 1178 08a7 0D       		.uleb128 0xd
 1179 08a8 92080000 		.4byte	0x892
 1180 08ac 0D       		.uleb128 0xd
 1181 08ad B0070000 		.4byte	0x7b0
 1182 08b1 00       		.byte	0
 1183 08b2 26       		.uleb128 0x26
 1184 08b3 00040000 		.4byte	.LASF141
 1185 08b7 11       		.byte	0x11
 1186 08b8 97       		.byte	0x97
 1187 08b9 0D       		.uleb128 0xd
 1188 08ba 92080000 		.4byte	0x892
 1189 08be 00       		.byte	0
 1190 08bf 00       		.byte	0
 1191              		.section	.debug_abbrev,"",%progbits
 1192              	.Ldebug_abbrev0:
 1193 0000 01       		.uleb128 0x1
 1194 0001 11       		.uleb128 0x11
 1195 0002 01       		.byte	0x1
 1196 0003 25       		.uleb128 0x25
ARM GAS  C:\Users\jo\AppData\Local\Temp\ccoLzcih.s 			page 22


 1197 0004 0E       		.uleb128 0xe
 1198 0005 13       		.uleb128 0x13
 1199 0006 0B       		.uleb128 0xb
 1200 0007 03       		.uleb128 0x3
 1201 0008 0E       		.uleb128 0xe
 1202 0009 1B       		.uleb128 0x1b
 1203 000a 0E       		.uleb128 0xe
 1204 000b 55       		.uleb128 0x55
 1205 000c 17       		.uleb128 0x17
 1206 000d 11       		.uleb128 0x11
 1207 000e 01       		.uleb128 0x1
 1208 000f 10       		.uleb128 0x10
 1209 0010 17       		.uleb128 0x17
 1210 0011 00       		.byte	0
 1211 0012 00       		.byte	0
 1212 0013 02       		.uleb128 0x2
 1213 0014 24       		.uleb128 0x24
 1214 0015 00       		.byte	0
 1215 0016 0B       		.uleb128 0xb
 1216 0017 0B       		.uleb128 0xb
 1217 0018 3E       		.uleb128 0x3e
 1218 0019 0B       		.uleb128 0xb
 1219 001a 03       		.uleb128 0x3
 1220 001b 08       		.uleb128 0x8
 1221 001c 00       		.byte	0
 1222 001d 00       		.byte	0
 1223 001e 03       		.uleb128 0x3
 1224 001f 24       		.uleb128 0x24
 1225 0020 00       		.byte	0
 1226 0021 0B       		.uleb128 0xb
 1227 0022 0B       		.uleb128 0xb
 1228 0023 3E       		.uleb128 0x3e
 1229 0024 0B       		.uleb128 0xb
 1230 0025 03       		.uleb128 0x3
 1231 0026 0E       		.uleb128 0xe
 1232 0027 00       		.byte	0
 1233 0028 00       		.byte	0
 1234 0029 04       		.uleb128 0x4
 1235 002a 16       		.uleb128 0x16
 1236 002b 00       		.byte	0
 1237 002c 03       		.uleb128 0x3
 1238 002d 0E       		.uleb128 0xe
 1239 002e 3A       		.uleb128 0x3a
 1240 002f 0B       		.uleb128 0xb
 1241 0030 3B       		.uleb128 0x3b
 1242 0031 0B       		.uleb128 0xb
 1243 0032 49       		.uleb128 0x49
 1244 0033 13       		.uleb128 0x13
 1245 0034 00       		.byte	0
 1246 0035 00       		.byte	0
 1247 0036 05       		.uleb128 0x5
 1248 0037 35       		.uleb128 0x35
 1249 0038 00       		.byte	0
 1250 0039 49       		.uleb128 0x49
 1251 003a 13       		.uleb128 0x13
 1252 003b 00       		.byte	0
 1253 003c 00       		.byte	0
ARM GAS  C:\Users\jo\AppData\Local\Temp\ccoLzcih.s 			page 23


 1254 003d 06       		.uleb128 0x6
 1255 003e 13       		.uleb128 0x13
 1256 003f 01       		.byte	0x1
 1257 0040 03       		.uleb128 0x3
 1258 0041 0E       		.uleb128 0xe
 1259 0042 0B       		.uleb128 0xb
 1260 0043 0B       		.uleb128 0xb
 1261 0044 3A       		.uleb128 0x3a
 1262 0045 0B       		.uleb128 0xb
 1263 0046 3B       		.uleb128 0x3b
 1264 0047 0B       		.uleb128 0xb
 1265 0048 01       		.uleb128 0x1
 1266 0049 13       		.uleb128 0x13
 1267 004a 00       		.byte	0
 1268 004b 00       		.byte	0
 1269 004c 07       		.uleb128 0x7
 1270 004d 0D       		.uleb128 0xd
 1271 004e 00       		.byte	0
 1272 004f 03       		.uleb128 0x3
 1273 0050 0E       		.uleb128 0xe
 1274 0051 3A       		.uleb128 0x3a
 1275 0052 0B       		.uleb128 0xb
 1276 0053 3B       		.uleb128 0x3b
 1277 0054 0B       		.uleb128 0xb
 1278 0055 49       		.uleb128 0x49
 1279 0056 13       		.uleb128 0x13
 1280 0057 38       		.uleb128 0x38
 1281 0058 0B       		.uleb128 0xb
 1282 0059 00       		.byte	0
 1283 005a 00       		.byte	0
 1284 005b 08       		.uleb128 0x8
 1285 005c 0D       		.uleb128 0xd
 1286 005d 00       		.byte	0
 1287 005e 03       		.uleb128 0x3
 1288 005f 08       		.uleb128 0x8
 1289 0060 3A       		.uleb128 0x3a
 1290 0061 0B       		.uleb128 0xb
 1291 0062 3B       		.uleb128 0x3b
 1292 0063 05       		.uleb128 0x5
 1293 0064 49       		.uleb128 0x49
 1294 0065 13       		.uleb128 0x13
 1295 0066 38       		.uleb128 0x38
 1296 0067 0B       		.uleb128 0xb
 1297 0068 00       		.byte	0
 1298 0069 00       		.byte	0
 1299 006a 09       		.uleb128 0x9
 1300 006b 0D       		.uleb128 0xd
 1301 006c 00       		.byte	0
 1302 006d 03       		.uleb128 0x3
 1303 006e 0E       		.uleb128 0xe
 1304 006f 3A       		.uleb128 0x3a
 1305 0070 0B       		.uleb128 0xb
 1306 0071 3B       		.uleb128 0x3b
 1307 0072 05       		.uleb128 0x5
 1308 0073 49       		.uleb128 0x49
 1309 0074 13       		.uleb128 0x13
 1310 0075 38       		.uleb128 0x38
ARM GAS  C:\Users\jo\AppData\Local\Temp\ccoLzcih.s 			page 24


 1311 0076 0B       		.uleb128 0xb
 1312 0077 00       		.byte	0
 1313 0078 00       		.byte	0
 1314 0079 0A       		.uleb128 0xa
 1315 007a 13       		.uleb128 0x13
 1316 007b 01       		.byte	0x1
 1317 007c 03       		.uleb128 0x3
 1318 007d 0E       		.uleb128 0xe
 1319 007e 0B       		.uleb128 0xb
 1320 007f 0B       		.uleb128 0xb
 1321 0080 3A       		.uleb128 0x3a
 1322 0081 0B       		.uleb128 0xb
 1323 0082 3B       		.uleb128 0x3b
 1324 0083 05       		.uleb128 0x5
 1325 0084 01       		.uleb128 0x1
 1326 0085 13       		.uleb128 0x13
 1327 0086 00       		.byte	0
 1328 0087 00       		.byte	0
 1329 0088 0B       		.uleb128 0xb
 1330 0089 0F       		.uleb128 0xf
 1331 008a 00       		.byte	0
 1332 008b 0B       		.uleb128 0xb
 1333 008c 0B       		.uleb128 0xb
 1334 008d 49       		.uleb128 0x49
 1335 008e 13       		.uleb128 0x13
 1336 008f 00       		.byte	0
 1337 0090 00       		.byte	0
 1338 0091 0C       		.uleb128 0xc
 1339 0092 15       		.uleb128 0x15
 1340 0093 01       		.byte	0x1
 1341 0094 27       		.uleb128 0x27
 1342 0095 19       		.uleb128 0x19
 1343 0096 01       		.uleb128 0x1
 1344 0097 13       		.uleb128 0x13
 1345 0098 00       		.byte	0
 1346 0099 00       		.byte	0
 1347 009a 0D       		.uleb128 0xd
 1348 009b 05       		.uleb128 0x5
 1349 009c 00       		.byte	0
 1350 009d 49       		.uleb128 0x49
 1351 009e 13       		.uleb128 0x13
 1352 009f 00       		.byte	0
 1353 00a0 00       		.byte	0
 1354 00a1 0E       		.uleb128 0xe
 1355 00a2 0F       		.uleb128 0xf
 1356 00a3 00       		.byte	0
 1357 00a4 0B       		.uleb128 0xb
 1358 00a5 0B       		.uleb128 0xb
 1359 00a6 00       		.byte	0
 1360 00a7 00       		.byte	0
 1361 00a8 0F       		.uleb128 0xf
 1362 00a9 13       		.uleb128 0x13
 1363 00aa 01       		.byte	0x1
 1364 00ab 03       		.uleb128 0x3
 1365 00ac 0E       		.uleb128 0xe
 1366 00ad 0B       		.uleb128 0xb
 1367 00ae 05       		.uleb128 0x5
ARM GAS  C:\Users\jo\AppData\Local\Temp\ccoLzcih.s 			page 25


 1368 00af 3A       		.uleb128 0x3a
 1369 00b0 0B       		.uleb128 0xb
 1370 00b1 3B       		.uleb128 0x3b
 1371 00b2 05       		.uleb128 0x5
 1372 00b3 01       		.uleb128 0x1
 1373 00b4 13       		.uleb128 0x13
 1374 00b5 00       		.byte	0
 1375 00b6 00       		.byte	0
 1376 00b7 10       		.uleb128 0x10
 1377 00b8 0D       		.uleb128 0xd
 1378 00b9 00       		.byte	0
 1379 00ba 03       		.uleb128 0x3
 1380 00bb 0E       		.uleb128 0xe
 1381 00bc 3A       		.uleb128 0x3a
 1382 00bd 0B       		.uleb128 0xb
 1383 00be 3B       		.uleb128 0x3b
 1384 00bf 05       		.uleb128 0x5
 1385 00c0 49       		.uleb128 0x49
 1386 00c1 13       		.uleb128 0x13
 1387 00c2 38       		.uleb128 0x38
 1388 00c3 05       		.uleb128 0x5
 1389 00c4 00       		.byte	0
 1390 00c5 00       		.byte	0
 1391 00c6 11       		.uleb128 0x11
 1392 00c7 0D       		.uleb128 0xd
 1393 00c8 00       		.byte	0
 1394 00c9 03       		.uleb128 0x3
 1395 00ca 08       		.uleb128 0x8
 1396 00cb 3A       		.uleb128 0x3a
 1397 00cc 0B       		.uleb128 0xb
 1398 00cd 3B       		.uleb128 0x3b
 1399 00ce 05       		.uleb128 0x5
 1400 00cf 49       		.uleb128 0x49
 1401 00d0 13       		.uleb128 0x13
 1402 00d1 38       		.uleb128 0x38
 1403 00d2 05       		.uleb128 0x5
 1404 00d3 00       		.byte	0
 1405 00d4 00       		.byte	0
 1406 00d5 12       		.uleb128 0x12
 1407 00d6 0D       		.uleb128 0xd
 1408 00d7 00       		.byte	0
 1409 00d8 03       		.uleb128 0x3
 1410 00d9 08       		.uleb128 0x8
 1411 00da 3A       		.uleb128 0x3a
 1412 00db 0B       		.uleb128 0xb
 1413 00dc 3B       		.uleb128 0x3b
 1414 00dd 0B       		.uleb128 0xb
 1415 00de 49       		.uleb128 0x49
 1416 00df 13       		.uleb128 0x13
 1417 00e0 38       		.uleb128 0x38
 1418 00e1 0B       		.uleb128 0xb
 1419 00e2 00       		.byte	0
 1420 00e3 00       		.byte	0
 1421 00e4 13       		.uleb128 0x13
 1422 00e5 26       		.uleb128 0x26
 1423 00e6 00       		.byte	0
 1424 00e7 49       		.uleb128 0x49
ARM GAS  C:\Users\jo\AppData\Local\Temp\ccoLzcih.s 			page 26


 1425 00e8 13       		.uleb128 0x13
 1426 00e9 00       		.byte	0
 1427 00ea 00       		.byte	0
 1428 00eb 14       		.uleb128 0x14
 1429 00ec 13       		.uleb128 0x13
 1430 00ed 01       		.byte	0x1
 1431 00ee 0B       		.uleb128 0xb
 1432 00ef 0B       		.uleb128 0xb
 1433 00f0 3A       		.uleb128 0x3a
 1434 00f1 0B       		.uleb128 0xb
 1435 00f2 3B       		.uleb128 0x3b
 1436 00f3 0B       		.uleb128 0xb
 1437 00f4 01       		.uleb128 0x1
 1438 00f5 13       		.uleb128 0x13
 1439 00f6 00       		.byte	0
 1440 00f7 00       		.byte	0
 1441 00f8 15       		.uleb128 0x15
 1442 00f9 13       		.uleb128 0x13
 1443 00fa 01       		.byte	0x1
 1444 00fb 0B       		.uleb128 0xb
 1445 00fc 05       		.uleb128 0x5
 1446 00fd 3A       		.uleb128 0x3a
 1447 00fe 0B       		.uleb128 0xb
 1448 00ff 3B       		.uleb128 0x3b
 1449 0100 0B       		.uleb128 0xb
 1450 0101 01       		.uleb128 0x1
 1451 0102 13       		.uleb128 0x13
 1452 0103 00       		.byte	0
 1453 0104 00       		.byte	0
 1454 0105 16       		.uleb128 0x16
 1455 0106 01       		.uleb128 0x1
 1456 0107 01       		.byte	0x1
 1457 0108 49       		.uleb128 0x49
 1458 0109 13       		.uleb128 0x13
 1459 010a 01       		.uleb128 0x1
 1460 010b 13       		.uleb128 0x13
 1461 010c 00       		.byte	0
 1462 010d 00       		.byte	0
 1463 010e 17       		.uleb128 0x17
 1464 010f 21       		.uleb128 0x21
 1465 0110 00       		.byte	0
 1466 0111 49       		.uleb128 0x49
 1467 0112 13       		.uleb128 0x13
 1468 0113 2F       		.uleb128 0x2f
 1469 0114 0B       		.uleb128 0xb
 1470 0115 00       		.byte	0
 1471 0116 00       		.byte	0
 1472 0117 18       		.uleb128 0x18
 1473 0118 17       		.uleb128 0x17
 1474 0119 01       		.byte	0x1
 1475 011a 0B       		.uleb128 0xb
 1476 011b 0B       		.uleb128 0xb
 1477 011c 3A       		.uleb128 0x3a
 1478 011d 0B       		.uleb128 0xb
 1479 011e 3B       		.uleb128 0x3b
 1480 011f 0B       		.uleb128 0xb
 1481 0120 01       		.uleb128 0x1
ARM GAS  C:\Users\jo\AppData\Local\Temp\ccoLzcih.s 			page 27


 1482 0121 13       		.uleb128 0x13
 1483 0122 00       		.byte	0
 1484 0123 00       		.byte	0
 1485 0124 19       		.uleb128 0x19
 1486 0125 0D       		.uleb128 0xd
 1487 0126 00       		.byte	0
 1488 0127 03       		.uleb128 0x3
 1489 0128 0E       		.uleb128 0xe
 1490 0129 3A       		.uleb128 0x3a
 1491 012a 0B       		.uleb128 0xb
 1492 012b 3B       		.uleb128 0x3b
 1493 012c 0B       		.uleb128 0xb
 1494 012d 49       		.uleb128 0x49
 1495 012e 13       		.uleb128 0x13
 1496 012f 00       		.byte	0
 1497 0130 00       		.byte	0
 1498 0131 1A       		.uleb128 0x1a
 1499 0132 0D       		.uleb128 0xd
 1500 0133 00       		.byte	0
 1501 0134 03       		.uleb128 0x3
 1502 0135 0E       		.uleb128 0xe
 1503 0136 3A       		.uleb128 0x3a
 1504 0137 0B       		.uleb128 0xb
 1505 0138 3B       		.uleb128 0x3b
 1506 0139 05       		.uleb128 0x5
 1507 013a 49       		.uleb128 0x49
 1508 013b 13       		.uleb128 0x13
 1509 013c 00       		.byte	0
 1510 013d 00       		.byte	0
 1511 013e 1B       		.uleb128 0x1b
 1512 013f 2E       		.uleb128 0x2e
 1513 0140 01       		.byte	0x1
 1514 0141 3F       		.uleb128 0x3f
 1515 0142 19       		.uleb128 0x19
 1516 0143 03       		.uleb128 0x3
 1517 0144 0E       		.uleb128 0xe
 1518 0145 3A       		.uleb128 0x3a
 1519 0146 0B       		.uleb128 0xb
 1520 0147 3B       		.uleb128 0x3b
 1521 0148 0B       		.uleb128 0xb
 1522 0149 27       		.uleb128 0x27
 1523 014a 19       		.uleb128 0x19
 1524 014b 11       		.uleb128 0x11
 1525 014c 01       		.uleb128 0x1
 1526 014d 12       		.uleb128 0x12
 1527 014e 06       		.uleb128 0x6
 1528 014f 40       		.uleb128 0x40
 1529 0150 18       		.uleb128 0x18
 1530 0151 9742     		.uleb128 0x2117
 1531 0153 19       		.uleb128 0x19
 1532 0154 01       		.uleb128 0x1
 1533 0155 13       		.uleb128 0x13
 1534 0156 00       		.byte	0
 1535 0157 00       		.byte	0
 1536 0158 1C       		.uleb128 0x1c
 1537 0159 05       		.uleb128 0x5
 1538 015a 00       		.byte	0
ARM GAS  C:\Users\jo\AppData\Local\Temp\ccoLzcih.s 			page 28


 1539 015b 03       		.uleb128 0x3
 1540 015c 08       		.uleb128 0x8
 1541 015d 3A       		.uleb128 0x3a
 1542 015e 0B       		.uleb128 0xb
 1543 015f 3B       		.uleb128 0x3b
 1544 0160 0B       		.uleb128 0xb
 1545 0161 49       		.uleb128 0x49
 1546 0162 13       		.uleb128 0x13
 1547 0163 02       		.uleb128 0x2
 1548 0164 17       		.uleb128 0x17
 1549 0165 00       		.byte	0
 1550 0166 00       		.byte	0
 1551 0167 1D       		.uleb128 0x1d
 1552 0168 0B       		.uleb128 0xb
 1553 0169 01       		.byte	0x1
 1554 016a 55       		.uleb128 0x55
 1555 016b 17       		.uleb128 0x17
 1556 016c 00       		.byte	0
 1557 016d 00       		.byte	0
 1558 016e 1E       		.uleb128 0x1e
 1559 016f 34       		.uleb128 0x34
 1560 0170 00       		.byte	0
 1561 0171 03       		.uleb128 0x3
 1562 0172 0E       		.uleb128 0xe
 1563 0173 3A       		.uleb128 0x3a
 1564 0174 0B       		.uleb128 0xb
 1565 0175 3B       		.uleb128 0x3b
 1566 0176 0B       		.uleb128 0xb
 1567 0177 49       		.uleb128 0x49
 1568 0178 13       		.uleb128 0x13
 1569 0179 02       		.uleb128 0x2
 1570 017a 18       		.uleb128 0x18
 1571 017b 00       		.byte	0
 1572 017c 00       		.byte	0
 1573 017d 1F       		.uleb128 0x1f
 1574 017e 34       		.uleb128 0x34
 1575 017f 00       		.byte	0
 1576 0180 03       		.uleb128 0x3
 1577 0181 08       		.uleb128 0x8
 1578 0182 3A       		.uleb128 0x3a
 1579 0183 0B       		.uleb128 0xb
 1580 0184 3B       		.uleb128 0x3b
 1581 0185 0B       		.uleb128 0xb
 1582 0186 49       		.uleb128 0x49
 1583 0187 13       		.uleb128 0x13
 1584 0188 02       		.uleb128 0x2
 1585 0189 17       		.uleb128 0x17
 1586 018a 00       		.byte	0
 1587 018b 00       		.byte	0
 1588 018c 20       		.uleb128 0x20
 1589 018d 898201   		.uleb128 0x4109
 1590 0190 01       		.byte	0x1
 1591 0191 11       		.uleb128 0x11
 1592 0192 01       		.uleb128 0x1
 1593 0193 31       		.uleb128 0x31
 1594 0194 13       		.uleb128 0x13
 1595 0195 01       		.uleb128 0x1
ARM GAS  C:\Users\jo\AppData\Local\Temp\ccoLzcih.s 			page 29


 1596 0196 13       		.uleb128 0x13
 1597 0197 00       		.byte	0
 1598 0198 00       		.byte	0
 1599 0199 21       		.uleb128 0x21
 1600 019a 8A8201   		.uleb128 0x410a
 1601 019d 00       		.byte	0
 1602 019e 02       		.uleb128 0x2
 1603 019f 18       		.uleb128 0x18
 1604 01a0 9142     		.uleb128 0x2111
 1605 01a2 18       		.uleb128 0x18
 1606 01a3 00       		.byte	0
 1607 01a4 00       		.byte	0
 1608 01a5 22       		.uleb128 0x22
 1609 01a6 898201   		.uleb128 0x4109
 1610 01a9 01       		.byte	0x1
 1611 01aa 11       		.uleb128 0x11
 1612 01ab 01       		.uleb128 0x1
 1613 01ac 31       		.uleb128 0x31
 1614 01ad 13       		.uleb128 0x13
 1615 01ae 00       		.byte	0
 1616 01af 00       		.byte	0
 1617 01b0 23       		.uleb128 0x23
 1618 01b1 34       		.uleb128 0x34
 1619 01b2 00       		.byte	0
 1620 01b3 03       		.uleb128 0x3
 1621 01b4 0E       		.uleb128 0xe
 1622 01b5 3A       		.uleb128 0x3a
 1623 01b6 0B       		.uleb128 0xb
 1624 01b7 3B       		.uleb128 0x3b
 1625 01b8 05       		.uleb128 0x5
 1626 01b9 49       		.uleb128 0x49
 1627 01ba 13       		.uleb128 0x13
 1628 01bb 3F       		.uleb128 0x3f
 1629 01bc 19       		.uleb128 0x19
 1630 01bd 3C       		.uleb128 0x3c
 1631 01be 19       		.uleb128 0x19
 1632 01bf 00       		.byte	0
 1633 01c0 00       		.byte	0
 1634 01c1 24       		.uleb128 0x24
 1635 01c2 34       		.uleb128 0x34
 1636 01c3 00       		.byte	0
 1637 01c4 03       		.uleb128 0x3
 1638 01c5 08       		.uleb128 0x8
 1639 01c6 3A       		.uleb128 0x3a
 1640 01c7 0B       		.uleb128 0xb
 1641 01c8 3B       		.uleb128 0x3b
 1642 01c9 05       		.uleb128 0x5
 1643 01ca 49       		.uleb128 0x49
 1644 01cb 13       		.uleb128 0x13
 1645 01cc 3F       		.uleb128 0x3f
 1646 01cd 19       		.uleb128 0x19
 1647 01ce 3C       		.uleb128 0x3c
 1648 01cf 19       		.uleb128 0x19
 1649 01d0 00       		.byte	0
 1650 01d1 00       		.byte	0
 1651 01d2 25       		.uleb128 0x25
 1652 01d3 2E       		.uleb128 0x2e
ARM GAS  C:\Users\jo\AppData\Local\Temp\ccoLzcih.s 			page 30


 1653 01d4 01       		.byte	0x1
 1654 01d5 3F       		.uleb128 0x3f
 1655 01d6 19       		.uleb128 0x19
 1656 01d7 03       		.uleb128 0x3
 1657 01d8 0E       		.uleb128 0xe
 1658 01d9 3A       		.uleb128 0x3a
 1659 01da 0B       		.uleb128 0xb
 1660 01db 3B       		.uleb128 0x3b
 1661 01dc 0B       		.uleb128 0xb
 1662 01dd 27       		.uleb128 0x27
 1663 01de 19       		.uleb128 0x19
 1664 01df 49       		.uleb128 0x49
 1665 01e0 13       		.uleb128 0x13
 1666 01e1 3C       		.uleb128 0x3c
 1667 01e2 19       		.uleb128 0x19
 1668 01e3 01       		.uleb128 0x1
 1669 01e4 13       		.uleb128 0x13
 1670 01e5 00       		.byte	0
 1671 01e6 00       		.byte	0
 1672 01e7 26       		.uleb128 0x26
 1673 01e8 2E       		.uleb128 0x2e
 1674 01e9 01       		.byte	0x1
 1675 01ea 3F       		.uleb128 0x3f
 1676 01eb 19       		.uleb128 0x19
 1677 01ec 03       		.uleb128 0x3
 1678 01ed 0E       		.uleb128 0xe
 1679 01ee 3A       		.uleb128 0x3a
 1680 01ef 0B       		.uleb128 0xb
 1681 01f0 3B       		.uleb128 0x3b
 1682 01f1 0B       		.uleb128 0xb
 1683 01f2 27       		.uleb128 0x27
 1684 01f3 19       		.uleb128 0x19
 1685 01f4 3C       		.uleb128 0x3c
 1686 01f5 19       		.uleb128 0x19
 1687 01f6 00       		.byte	0
 1688 01f7 00       		.byte	0
 1689 01f8 00       		.byte	0
 1690              		.section	.debug_loc,"",%progbits
 1691              	.Ldebug_loc0:
 1692              	.LLST0:
 1693 0000 00000000 		.4byte	.LVL0
 1694 0004 0E000000 		.4byte	.LVL1
 1695 0008 0100     		.2byte	0x1
 1696 000a 50       		.byte	0x50
 1697 000b 0E000000 		.4byte	.LVL1
 1698 000f 2A000000 		.4byte	.LFE256
 1699 0013 0100     		.2byte	0x1
 1700 0015 54       		.byte	0x54
 1701 0016 00000000 		.4byte	0
 1702 001a 00000000 		.4byte	0
 1703              	.LLST1:
 1704 001e 12000000 		.4byte	.LVL2
 1705 0022 1C000000 		.4byte	.LVL4
 1706 0026 0100     		.2byte	0x1
 1707 0028 50       		.byte	0x50
 1708 0029 00000000 		.4byte	0
 1709 002d 00000000 		.4byte	0
ARM GAS  C:\Users\jo\AppData\Local\Temp\ccoLzcih.s 			page 31


 1710              		.section	.debug_aranges,"",%progbits
 1711 0000 1C000000 		.4byte	0x1c
 1712 0004 0200     		.2byte	0x2
 1713 0006 00000000 		.4byte	.Ldebug_info0
 1714 000a 04       		.byte	0x4
 1715 000b 00       		.byte	0
 1716 000c 0000     		.2byte	0
 1717 000e 0000     		.2byte	0
 1718 0010 00000000 		.4byte	.LFB256
 1719 0014 2A000000 		.4byte	.LFE256-.LFB256
 1720 0018 00000000 		.4byte	0
 1721 001c 00000000 		.4byte	0
 1722              		.section	.debug_ranges,"",%progbits
 1723              	.Ldebug_ranges0:
 1724 0000 0A000000 		.4byte	.LBB2
 1725 0004 14000000 		.4byte	.LBE2
 1726 0008 18000000 		.4byte	.LBB3
 1727 000c 26000000 		.4byte	.LBE3
 1728 0010 00000000 		.4byte	0
 1729 0014 00000000 		.4byte	0
 1730 0018 00000000 		.4byte	.LFB256
 1731 001c 2A000000 		.4byte	.LFE256
 1732 0020 00000000 		.4byte	0
 1733 0024 00000000 		.4byte	0
 1734              		.section	.debug_line,"",%progbits
 1735              	.Ldebug_line0:
 1736 0000 9A020000 		.section	.debug_str,"MS",%progbits,1
 1736      02007D02 
 1736      00000201 
 1736      FB0E0D00 
 1736      01010101 
 1737              	.LASF99:
 1738 0000 74625F70 		.ascii	"tb_ptr\000"
 1738      747200
 1739              	.LASF55:
 1740 0007 72656164 		.ascii	"ready_list_t\000"
 1740      795F6C69 
 1740      73745F74 
 1740      00
 1741              	.LASF93:
 1742 0014 73655F74 		.ascii	"se_time\000"
 1742      696D6500 
 1743              	.LASF114:
 1744 001c 7264796D 		.ascii	"rdymsg\000"
 1744      736700
 1745              	.LASF18:
 1746 0023 75696E74 		.ascii	"uint64_t\000"
 1746      36345F74 
 1746      00
 1747              	.LASF85:
 1748 002c 6B65726E 		.ascii	"kernel_stats\000"
 1748      656C5F73 
 1748      74617473 
 1748      00
 1749              	.LASF133:
 1750 0039 64656C61 		.ascii	"delaysem\000"
 1750      7973656D 
ARM GAS  C:\Users\jo\AppData\Local\Temp\ccoLzcih.s 			page 32


 1750      00
 1751              	.LASF3:
 1752 0042 5F5F7569 		.ascii	"__uint8_t\000"
 1752      6E74385F 
 1752      7400
 1753              	.LASF91:
 1754 004c 706F7274 		.ascii	"port_intctx\000"
 1754      5F696E74 
 1754      63747800 
 1755              	.LASF54:
 1756 0058 63685F74 		.ascii	"ch_threads_queue\000"
 1756      68726561 
 1756      64735F71 
 1756      75657565 
 1756      00
 1757              	.LASF74:
 1758 0069 73797374 		.ascii	"system_debug_t\000"
 1758      656D5F64 
 1758      65627567 
 1758      5F7400
 1759              	.LASF105:
 1760 0078 776F7273 		.ascii	"worst\000"
 1760      7400
 1761              	.LASF108:
 1762 007e 74696D65 		.ascii	"time_measurement_t\000"
 1762      5F6D6561 
 1762      73757265 
 1762      6D656E74 
 1762      5F7400
 1763              	.LASF13:
 1764 0091 6C6F6E67 		.ascii	"long long unsigned int\000"
 1764      206C6F6E 
 1764      6720756E 
 1764      7369676E 
 1764      65642069 
 1765              	.LASF101:
 1766 00a8 63685F74 		.ascii	"ch_trace_buffer_t\000"
 1766      72616365 
 1766      5F627566 
 1766      6665725F 
 1766      7400
 1767              	.LASF96:
 1768 00ba 73655F73 		.ascii	"se_state\000"
 1768      74617465 
 1768      00
 1769              	.LASF125:
 1770 00c3 73656D61 		.ascii	"semaphore_t\000"
 1770      70686F72 
 1770      655F7400 
 1771              	.LASF115:
 1772 00cf 65786974 		.ascii	"exitcode\000"
 1772      636F6465 
 1772      00
 1773              	.LASF84:
 1774 00d8 6D61696E 		.ascii	"mainthread\000"
 1774      74687265 
 1774      616400
ARM GAS  C:\Users\jo\AppData\Local\Temp\ccoLzcih.s 			page 33


 1775              	.LASF71:
 1776 00e3 76697274 		.ascii	"virtual_timers_list_t\000"
 1776      75616C5F 
 1776      74696D65 
 1776      72735F6C 
 1776      6973745F 
 1777              	.LASF2:
 1778 00f9 5F5F696E 		.ascii	"__int8_t\000"
 1778      74385F74 
 1778      00
 1779              	.LASF134:
 1780 0102 49544D5F 		.ascii	"ITM_RxBuffer\000"
 1780      52784275 
 1780      66666572 
 1780      00
 1781              	.LASF20:
 1782 010f 72747469 		.ascii	"rttime_t\000"
 1782      6D655F74 
 1782      00
 1783              	.LASF33:
 1784 0118 705F7072 		.ascii	"p_prio\000"
 1784      696F00
 1785              	.LASF139:
 1786 011f 433A5C55 		.ascii	"C:\\Users\\jo\\Documents\\GitHub\\ChibiOS\\demos\\S"
 1786      73657273 
 1786      5C6A6F5C 
 1786      446F6375 
 1786      6D656E74 
 1787 014b 544D3332 		.ascii	"TM32\\RT-STM32F407-DISCOVERY-uHttp\000"
 1787      5C52542D 
 1787      53544D33 
 1787      32463430 
 1787      372D4449 
 1788              	.LASF132:
 1789 016d 7379735F 		.ascii	"sys_sem_t\000"
 1789      73656D5F 
 1789      7400
 1790              	.LASF11:
 1791 0177 6C6F6E67 		.ascii	"long long int\000"
 1791      206C6F6E 
 1791      6720696E 
 1791      7400
 1792              	.LASF1:
 1793 0185 7369676E 		.ascii	"signed char\000"
 1793      65642063 
 1793      68617200 
 1794              	.LASF48:
 1795 0191 705F6D70 		.ascii	"p_mpool\000"
 1795      6F6F6C00 
 1796              	.LASF119:
 1797 0199 6D5F7175 		.ascii	"m_queue\000"
 1797      65756500 
 1798              	.LASF81:
 1799 01a1 63685F73 		.ascii	"ch_system\000"
 1799      79737465 
 1799      6D00
 1800              	.LASF8:
ARM GAS  C:\Users\jo\AppData\Local\Temp\ccoLzcih.s 			page 34


 1801 01ab 6C6F6E67 		.ascii	"long int\000"
 1801      20696E74 
 1801      00
 1802              	.LASF22:
 1803 01b4 74737461 		.ascii	"tstate_t\000"
 1803      74655F74 
 1803      00
 1804              	.LASF94:
 1805 01bd 73655F74 		.ascii	"se_tp\000"
 1805      7000
 1806              	.LASF122:
 1807 01c3 73656D61 		.ascii	"semaphore\000"
 1807      70686F72 
 1807      6500
 1808              	.LASF35:
 1809 01cd 705F6E65 		.ascii	"p_newer\000"
 1809      77657200 
 1810              	.LASF123:
 1811 01d5 735F7175 		.ascii	"s_queue\000"
 1811      65756500 
 1812              	.LASF136:
 1813 01dd 7379735F 		.ascii	"sys_arch_sem_wait\000"
 1813      61726368 
 1813      5F73656D 
 1813      5F776169 
 1813      7400
 1814              	.LASF98:
 1815 01ef 74625F73 		.ascii	"tb_size\000"
 1815      697A6500 
 1816              	.LASF60:
 1817 01f7 725F6E65 		.ascii	"r_newer\000"
 1817      77657200 
 1818              	.LASF88:
 1819 01ff 72656761 		.ascii	"regarm_t\000"
 1819      726D5F74 
 1819      00
 1820              	.LASF67:
 1821 0208 76745F70 		.ascii	"vt_prev\000"
 1821      72657600 
 1822              	.LASF83:
 1823 0210 76746C69 		.ascii	"vtlist\000"
 1823      737400
 1824              	.LASF75:
 1825 0217 63685F73 		.ascii	"ch_system_debug\000"
 1825      79737465 
 1825      6D5F6465 
 1825      62756700 
 1826              	.LASF126:
 1827 0227 6D757465 		.ascii	"mutex_t\000"
 1827      785F7400 
 1828              	.LASF78:
 1829 022f 6C6F636B 		.ascii	"lock_cnt\000"
 1829      5F636E74 
 1829      00
 1830              	.LASF86:
 1831 0238 69646C65 		.ascii	"idle_thread_wa\000"
 1831      5F746872 
ARM GAS  C:\Users\jo\AppData\Local\Temp\ccoLzcih.s 			page 35


 1831      6561645F 
 1831      776100
 1832              	.LASF27:
 1833 0247 636E745F 		.ascii	"cnt_t\000"
 1833      7400
 1834              	.LASF38:
 1835 024d 705F7374 		.ascii	"p_stklimit\000"
 1835      6B6C696D 
 1835      697400
 1836              	.LASF0:
 1837 0258 756E7369 		.ascii	"unsigned int\000"
 1837      676E6564 
 1837      20696E74 
 1837      00
 1838              	.LASF128:
 1839 0265 75385F74 		.ascii	"u8_t\000"
 1839      00
 1840              	.LASF66:
 1841 026a 76745F6E 		.ascii	"vt_next\000"
 1841      65787400 
 1842              	.LASF140:
 1843 0272 7379735F 		.ascii	"sys_msleep\000"
 1843      6D736C65 
 1843      657000
 1844              	.LASF43:
 1845 027d 705F6D73 		.ascii	"p_msgqueue\000"
 1845      67717565 
 1845      756500
 1846              	.LASF130:
 1847 0288 7533325F 		.ascii	"u32_t\000"
 1847      7400
 1848              	.LASF109:
 1849 028e 6E5F6972 		.ascii	"n_irq\000"
 1849      7100
 1850              	.LASF124:
 1851 0294 735F636E 		.ascii	"s_cnt\000"
 1851      7400
 1852              	.LASF6:
 1853 029a 73686F72 		.ascii	"short unsigned int\000"
 1853      7420756E 
 1853      7369676E 
 1853      65642069 
 1853      6E7400
 1854              	.LASF113:
 1855 02ad 6B65726E 		.ascii	"kernel_stats_t\000"
 1855      656C5F73 
 1855      74617473 
 1855      5F7400
 1856              	.LASF51:
 1857 02bc 63685F74 		.ascii	"ch_thread\000"
 1857      68726561 
 1857      6400
 1858              	.LASF25:
 1859 02c6 6D73675F 		.ascii	"msg_t\000"
 1859      7400
 1860              	.LASF106:
 1861 02cc 6C617374 		.ascii	"last\000"
ARM GAS  C:\Users\jo\AppData\Local\Temp\ccoLzcih.s 			page 36


 1861      00
 1862              	.LASF28:
 1863 02d1 75636E74 		.ascii	"ucnt_t\000"
 1863      5F7400
 1864              	.LASF80:
 1865 02d8 63685F73 		.ascii	"ch_system_t\000"
 1865      79737465 
 1865      6D5F7400 
 1866              	.LASF21:
 1867 02e4 746D6F64 		.ascii	"tmode_t\000"
 1867      655F7400 
 1868              	.LASF112:
 1869 02ec 6D5F6372 		.ascii	"m_crit_isr\000"
 1869      69745F69 
 1869      737200
 1870              	.LASF56:
 1871 02f7 63685F72 		.ascii	"ch_ready_list\000"
 1871      65616479 
 1871      5F6C6973 
 1871      7400
 1872              	.LASF26:
 1873 0305 6576656E 		.ascii	"eventmask_t\000"
 1873      746D6173 
 1873      6B5F7400 
 1874              	.LASF7:
 1875 0311 5F5F696E 		.ascii	"__int32_t\000"
 1875      7433325F 
 1875      7400
 1876              	.LASF137:
 1877 031b 474E5520 		.ascii	"GNU C 4.9.3 20141119 (release) [ARM/embedded-4_9-br"
 1877      4320342E 
 1877      392E3320 
 1877      32303134 
 1877      31313139 
 1878 034e 616E6368 		.ascii	"anch revision 218278] -mcpu=cortex-m4 -mno-thumb-in"
 1878      20726576 
 1878      6973696F 
 1878      6E203231 
 1878      38323738 
 1879 0381 74657277 		.ascii	"terwork -mthumb -ggdb -O2 -fomit-frame-pointer -fal"
 1879      6F726B20 
 1879      2D6D7468 
 1879      756D6220 
 1879      2D676764 
 1880 03b4 69676E2D 		.ascii	"ign-functions=16 -ffunction-sections -fdata-section"
 1880      66756E63 
 1880      74696F6E 
 1880      733D3136 
 1880      202D6666 
 1881 03e7 73202D66 		.ascii	"s -fno-common\000"
 1881      6E6F2D63 
 1881      6F6D6D6F 
 1881      6E00
 1882              	.LASF89:
 1883 03f5 73746B61 		.ascii	"stkalign_t\000"
 1883      6C69676E 
 1883      5F7400
ARM GAS  C:\Users\jo\AppData\Local\Temp\ccoLzcih.s 			page 37


 1884              	.LASF141:
 1885 0400 7379735F 		.ascii	"sys_sem_free\000"
 1885      73656D5F 
 1885      66726565 
 1885      00
 1886              	.LASF42:
 1887 040d 705F7761 		.ascii	"p_waiting\000"
 1887      6974696E 
 1887      6700
 1888              	.LASF131:
 1889 0417 6572725F 		.ascii	"err_t\000"
 1889      7400
 1890              	.LASF87:
 1891 041d 73697A65 		.ascii	"sizetype\000"
 1891      74797065 
 1891      00
 1892              	.LASF72:
 1893 0426 63685F76 		.ascii	"ch_virtual_timers_list\000"
 1893      69727475 
 1893      616C5F74 
 1893      696D6572 
 1893      735F6C69 
 1894              	.LASF97:
 1895 043d 63685F73 		.ascii	"ch_swc_event_t\000"
 1895      77635F65 
 1895      76656E74 
 1895      5F7400
 1896              	.LASF73:
 1897 044c 76745F6C 		.ascii	"vt_lasttime\000"
 1897      61737474 
 1897      696D6500 
 1898              	.LASF36:
 1899 0458 705F6F6C 		.ascii	"p_older\000"
 1899      64657200 
 1900              	.LASF59:
 1901 0460 725F6374 		.ascii	"r_ctx\000"
 1901      7800
 1902              	.LASF103:
 1903 0466 746D5F63 		.ascii	"tm_calibration_t\000"
 1903      616C6962 
 1903      72617469 
 1903      6F6E5F74 
 1903      00
 1904              	.LASF62:
 1905 0477 725F6375 		.ascii	"r_current\000"
 1905      7272656E 
 1905      7400
 1906              	.LASF61:
 1907 0481 725F6F6C 		.ascii	"r_older\000"
 1907      64657200 
 1908              	.LASF12:
 1909 0489 5F5F7569 		.ascii	"__uint64_t\000"
 1909      6E743634 
 1909      5F7400
 1910              	.LASF107:
 1911 0494 63756D75 		.ascii	"cumulative\000"
 1911      6C617469 
ARM GAS  C:\Users\jo\AppData\Local\Temp\ccoLzcih.s 			page 38


 1911      766500
 1912              	.LASF23:
 1913 049f 74726566 		.ascii	"trefs_t\000"
 1913      735F7400 
 1914              	.LASF100:
 1915 04a7 74625F62 		.ascii	"tb_buffer\000"
 1915      75666665 
 1915      7200
 1916              	.LASF64:
 1917 04b1 76697274 		.ascii	"virtual_timer_t\000"
 1917      75616C5F 
 1917      74696D65 
 1917      725F7400 
 1918              	.LASF32:
 1919 04c1 705F7072 		.ascii	"p_prev\000"
 1919      657600
 1920              	.LASF24:
 1921 04c8 74707269 		.ascii	"tprio_t\000"
 1921      6F5F7400 
 1922              	.LASF118:
 1923 04d0 6D757465 		.ascii	"mutex\000"
 1923      7800
 1924              	.LASF110:
 1925 04d6 6E5F6374 		.ascii	"n_ctxswc\000"
 1925      78737763 
 1925      00
 1926              	.LASF127:
 1927 04df 5F426F6F 		.ascii	"_Bool\000"
 1927      6C00
 1928              	.LASF16:
 1929 04e5 696E7433 		.ascii	"int32_t\000"
 1929      325F7400 
 1930              	.LASF4:
 1931 04ed 756E7369 		.ascii	"unsigned char\000"
 1931      676E6564 
 1931      20636861 
 1931      7200
 1932              	.LASF46:
 1933 04fb 705F6D74 		.ascii	"p_mtxlist\000"
 1933      786C6973 
 1933      7400
 1934              	.LASF5:
 1935 0505 73686F72 		.ascii	"short int\000"
 1935      7420696E 
 1935      7400
 1936              	.LASF39:
 1937 050f 705F7374 		.ascii	"p_state\000"
 1937      61746500 
 1938              	.LASF58:
 1939 0517 725F7072 		.ascii	"r_prio\000"
 1939      696F00
 1940              	.LASF117:
 1941 051e 65776D61 		.ascii	"ewmask\000"
 1941      736B00
 1942              	.LASF31:
 1943 0525 705F6E65 		.ascii	"p_next\000"
 1943      787400
ARM GAS  C:\Users\jo\AppData\Local\Temp\ccoLzcih.s 			page 39


 1944              	.LASF40:
 1945 052c 705F666C 		.ascii	"p_flags\000"
 1945      61677300 
 1946              	.LASF49:
 1947 0534 705F7374 		.ascii	"p_stats\000"
 1947      61747300 
 1948              	.LASF138:
 1949 053c 2E2E2F2E 		.ascii	"../../../os/ext/lwip-1.4.1/src/core/sys.c\000"
 1949      2E2F2E2E 
 1949      2F6F732F 
 1949      6578742F 
 1949      6C776970 
 1950              	.LASF65:
 1951 0566 63685F76 		.ascii	"ch_virtual_timer\000"
 1951      69727475 
 1951      616C5F74 
 1951      696D6572 
 1951      00
 1952              	.LASF129:
 1953 0577 73385F74 		.ascii	"s8_t\000"
 1953      00
 1954              	.LASF45:
 1955 057c 705F6570 		.ascii	"p_epending\000"
 1955      656E6469 
 1955      6E6700
 1956              	.LASF17:
 1957 0587 75696E74 		.ascii	"uint32_t\000"
 1957      33325F74 
 1957      00
 1958              	.LASF57:
 1959 0590 725F7175 		.ascii	"r_queue\000"
 1959      65756500 
 1960              	.LASF68:
 1961 0598 76745F64 		.ascii	"vt_delta\000"
 1961      656C7461 
 1961      00
 1962              	.LASF52:
 1963 05a1 63685F74 		.ascii	"ch_threads_list\000"
 1963      68726561 
 1963      64735F6C 
 1963      69737400 
 1964              	.LASF10:
 1965 05b1 6C6F6E67 		.ascii	"long unsigned int\000"
 1965      20756E73 
 1965      69676E65 
 1965      6420696E 
 1965      7400
 1966              	.LASF92:
 1967 05c3 63686172 		.ascii	"char\000"
 1967      00
 1968              	.LASF30:
 1969 05c8 74687265 		.ascii	"thread_t\000"
 1969      61645F74 
 1969      00
 1970              	.LASF104:
 1971 05d1 62657374 		.ascii	"best\000"
 1971      00
ARM GAS  C:\Users\jo\AppData\Local\Temp\ccoLzcih.s 			page 40


 1972              	.LASF121:
 1973 05d6 6D5F6E65 		.ascii	"m_next\000"
 1973      787400
 1974              	.LASF29:
 1975 05dd 73797374 		.ascii	"systime_t\000"
 1975      696D655F 
 1975      7400
 1976              	.LASF47:
 1977 05e7 705F7265 		.ascii	"p_realprio\000"
 1977      616C7072 
 1977      696F00
 1978              	.LASF63:
 1979 05f2 76746675 		.ascii	"vtfunc_t\000"
 1979      6E635F74 
 1979      00
 1980              	.LASF9:
 1981 05fb 5F5F7569 		.ascii	"__uint32_t\000"
 1981      6E743332 
 1981      5F7400
 1982              	.LASF76:
 1983 0606 70616E69 		.ascii	"panic_msg\000"
 1983      635F6D73 
 1983      6700
 1984              	.LASF102:
 1985 0610 6F666673 		.ascii	"offset\000"
 1985      657400
 1986              	.LASF90:
 1987 0617 636F6E74 		.ascii	"context\000"
 1987      65787400 
 1988              	.LASF19:
 1989 061f 7274636E 		.ascii	"rtcnt_t\000"
 1989      745F7400 
 1990              	.LASF14:
 1991 0627 696E7438 		.ascii	"int8_t\000"
 1991      5F7400
 1992              	.LASF70:
 1993 062e 76745F70 		.ascii	"vt_par\000"
 1993      617200
 1994              	.LASF135:
 1995 0635 7379735F 		.ascii	"sys_sem_new\000"
 1995      73656D5F 
 1995      6E657700 
 1996              	.LASF53:
 1997 0641 74687265 		.ascii	"threads_queue_t\000"
 1997      6164735F 
 1997      71756575 
 1997      655F7400 
 1998              	.LASF41:
 1999 0651 705F7265 		.ascii	"p_refs\000"
 1999      667300
 2000              	.LASF77:
 2001 0658 6973725F 		.ascii	"isr_cnt\000"
 2001      636E7400 
 2002              	.LASF82:
 2003 0660 726C6973 		.ascii	"rlist\000"
 2003      7400
 2004              	.LASF15:
ARM GAS  C:\Users\jo\AppData\Local\Temp\ccoLzcih.s 			page 41


 2005 0666 75696E74 		.ascii	"uint8_t\000"
 2005      385F7400 
 2006              	.LASF116:
 2007 066e 77746F62 		.ascii	"wtobjp\000"
 2007      6A7000
 2008              	.LASF37:
 2009 0675 705F6E61 		.ascii	"p_name\000"
 2009      6D6500
 2010              	.LASF50:
 2011 067c 74687265 		.ascii	"threads_list_t\000"
 2011      6164735F 
 2011      6C697374 
 2011      5F7400
 2012              	.LASF79:
 2013 068b 74726163 		.ascii	"trace_buffer\000"
 2013      655F6275 
 2013      66666572 
 2013      00
 2014              	.LASF44:
 2015 0698 705F6D73 		.ascii	"p_msg\000"
 2015      6700
 2016              	.LASF111:
 2017 069e 6D5F6372 		.ascii	"m_crit_thd\000"
 2017      69745F74 
 2017      686400
 2018              	.LASF120:
 2019 06a9 6D5F6F77 		.ascii	"m_owner\000"
 2019      6E657200 
 2020              	.LASF95:
 2021 06b1 73655F77 		.ascii	"se_wtobjp\000"
 2021      746F626A 
 2021      7000
 2022              	.LASF34:
 2023 06bb 705F6374 		.ascii	"p_ctx\000"
 2023      7800
 2024              	.LASF69:
 2025 06c1 76745F66 		.ascii	"vt_func\000"
 2025      756E6300 
 2026              		.ident	"GCC: (GNU Tools for ARM Embedded Processors) 4.9.3 20141119 (release) [ARM/embedded-4_9-br
ARM GAS  C:\Users\jo\AppData\Local\Temp\ccoLzcih.s 			page 42


DEFINED SYMBOLS
                            *ABS*:00000000 sys.c
C:\Users\jo\AppData\Local\Temp\ccoLzcih.s:19     .text.sys_msleep:00000000 $t
C:\Users\jo\AppData\Local\Temp\ccoLzcih.s:25     .text.sys_msleep:00000000 sys_msleep
                     .debug_frame:00000010 $d

UNDEFINED SYMBOLS
sys_sem_new
sys_arch_sem_wait
sys_sem_free
