ARM GAS  C:\Users\jo\AppData\Local\Temp\ccWh6EGj.s 			page 1


   1              		.syntax unified
   2              		.cpu cortex-m4
   3              		.fpu softvfp
   4              		.eabi_attribute 20, 1
   5              		.eabi_attribute 21, 1
   6              		.eabi_attribute 23, 3
   7              		.eabi_attribute 24, 1
   8              		.eabi_attribute 25, 1
   9              		.eabi_attribute 26, 1
  10              		.eabi_attribute 30, 2
  11              		.eabi_attribute 34, 1
  12              		.eabi_attribute 18, 4
  13              		.thumb
  14              		.file	"sys_arch.c"
  15              		.text
  16              	.Ltext0:
  17              		.cfi_sections	.debug_frame
  18              		.section	.text.sys_init,"ax",%progbits
  19              		.align	2
  20              		.p2align 4,,15
  21              		.global	sys_init
  22              		.thumb
  23              		.thumb_func
  24              		.type	sys_init, %function
  25              	sys_init:
  26              	.LFB256:
  27              		.file 1 "../../../os/various/lwip_bindings/arch/sys_arch.c"
  28              		.loc 1 63 0
  29              		.cfi_startproc
  30              		@ args = 0, pretend = 0, frame = 0
  31              		@ frame_needed = 0, uses_anonymous_args = 0
  32              		@ link register save eliminated.
  33 0000 7047     		bx	lr
  34              		.cfi_endproc
  35              	.LFE256:
  36              		.size	sys_init, .-sys_init
  37 0002 00BFAFF3 		.section	.text.sys_sem_new,"ax",%progbits
  37      0080AFF3 
  37      0080AFF3 
  37      0080
  38              		.align	2
  39              		.p2align 4,,15
  40              		.global	sys_sem_new
  41              		.thumb
  42              		.thumb_func
  43              		.type	sys_sem_new, %function
  44              	sys_sem_new:
  45              	.LFB257:
  46              		.loc 1 67 0
  47              		.cfi_startproc
  48              		@ args = 0, pretend = 0, frame = 0
  49              		@ frame_needed = 0, uses_anonymous_args = 0
  50              	.LVL0:
  51              		.loc 1 67 0
  52 0000 38B5     		push	{r3, r4, r5, lr}
  53              		.cfi_def_cfa_offset 16
  54              		.cfi_offset 3, -16
ARM GAS  C:\Users\jo\AppData\Local\Temp\ccWh6EGj.s 			page 2


  55              		.cfi_offset 4, -12
  56              		.cfi_offset 5, -8
  57              		.cfi_offset 14, -4
  58              		.loc 1 67 0
  59 0002 0446     		mov	r4, r0
  60 0004 0D46     		mov	r5, r1
  61              		.loc 1 69 0
  62 0006 0020     		movs	r0, #0
  63              	.LVL1:
  64 0008 0C21     		movs	r1, #12
  65              	.LVL2:
  66 000a FFF7FEFF 		bl	chHeapAlloc
  67              	.LVL3:
  68 000e 2060     		str	r0, [r4]
  69              		.loc 1 70 0
  70 0010 90B1     		cbz	r0, .L8
  71              		.loc 1 75 0
  72 0012 2946     		mov	r1, r5
  73 0014 FFF7FEFF 		bl	chSemObjectInit
  74              	.LVL4:
  75              		.loc 1 76 0
  76 0018 0B4A     		ldr	r2, .L9
  77 001a B2F8A830 		ldrh	r3, [r2, #168]
  78 001e B2F8AA10 		ldrh	r1, [r2, #170]
  79 0022 0133     		adds	r3, r3, #1
  80 0024 9BB2     		uxth	r3, r3
  81 0026 9942     		cmp	r1, r3
  82 0028 A2F8A830 		strh	r3, [r2, #168]	@ movhi
  83 002c 38BF     		it	cc
  84 002e A2F8AA30 		strhcc	r3, [r2, #170]	@ movhi
  85              		.loc 1 77 0
  86 0032 0020     		movs	r0, #0
  87              	.L4:
  88              		.loc 1 79 0
  89 0034 40B2     		sxtb	r0, r0
  90 0036 38BD     		pop	{r3, r4, r5, pc}
  91              	.LVL5:
  92              	.L8:
  93              		.loc 1 71 0
  94 0038 034A     		ldr	r2, .L9
  95 003a B2F8AC30 		ldrh	r3, [r2, #172]
  96 003e 0133     		adds	r3, r3, #1
  97 0040 A2F8AC30 		strh	r3, [r2, #172]	@ movhi
  98              		.loc 1 72 0
  99 0044 FF20     		movs	r0, #255
 100 0046 F5E7     		b	.L4
 101              	.L10:
 102              		.align	2
 103              	.L9:
 104 0048 00000000 		.word	lwip_stats
 105              		.cfi_endproc
 106              	.LFE257:
 107              		.size	sys_sem_new, .-sys_sem_new
 108 004c AFF30080 		.section	.text.sys_sem_free,"ax",%progbits
 109              		.align	2
 110              		.p2align 4,,15
 111              		.global	sys_sem_free
ARM GAS  C:\Users\jo\AppData\Local\Temp\ccWh6EGj.s 			page 3


 112              		.thumb
 113              		.thumb_func
 114              		.type	sys_sem_free, %function
 115              	sys_sem_free:
 116              	.LFB258:
 117              		.loc 1 81 0
 118              		.cfi_startproc
 119              		@ args = 0, pretend = 0, frame = 0
 120              		@ frame_needed = 0, uses_anonymous_args = 0
 121              	.LVL6:
 122 0000 10B5     		push	{r4, lr}
 123              		.cfi_def_cfa_offset 8
 124              		.cfi_offset 4, -8
 125              		.cfi_offset 14, -4
 126              		.loc 1 81 0
 127 0002 0446     		mov	r4, r0
 128              		.loc 1 83 0
 129 0004 0068     		ldr	r0, [r0]
 130              	.LVL7:
 131 0006 FFF7FEFF 		bl	chHeapFree
 132              	.LVL8:
 133              		.loc 1 85 0
 134 000a 044A     		ldr	r2, .L13
 135 000c B2F8A830 		ldrh	r3, [r2, #168]
 136              		.loc 1 84 0
 137 0010 0021     		movs	r1, #0
 138              		.loc 1 85 0
 139 0012 013B     		subs	r3, r3, #1
 140              		.loc 1 84 0
 141 0014 2160     		str	r1, [r4]
 142              		.loc 1 85 0
 143 0016 A2F8A830 		strh	r3, [r2, #168]	@ movhi
 144 001a 10BD     		pop	{r4, pc}
 145              	.LVL9:
 146              	.L14:
 147              		.align	2
 148              	.L13:
 149 001c 00000000 		.word	lwip_stats
 150              		.cfi_endproc
 151              	.LFE258:
 152              		.size	sys_sem_free, .-sys_sem_free
 153              		.section	.text.sys_sem_signal,"ax",%progbits
 154              		.align	2
 155              		.p2align 4,,15
 156              		.global	sys_sem_signal
 157              		.thumb
 158              		.thumb_func
 159              		.type	sys_sem_signal, %function
 160              	sys_sem_signal:
 161              	.LFB259:
 162              		.loc 1 88 0
 163              		.cfi_startproc
 164              		@ args = 0, pretend = 0, frame = 0
 165              		@ frame_needed = 0, uses_anonymous_args = 0
 166              		@ link register save eliminated.
 167              	.LVL10:
 168              		.loc 1 90 0
ARM GAS  C:\Users\jo\AppData\Local\Temp\ccWh6EGj.s 			page 4


 169 0000 0068     		ldr	r0, [r0]
 170              	.LVL11:
 171 0002 FFF7FEBF 		b	chSemSignal
 172              	.LVL12:
 173              		.cfi_endproc
 174              	.LFE259:
 175              		.size	sys_sem_signal, .-sys_sem_signal
 176 0006 00BFAFF3 		.section	.text.sys_sem_signal_S,"ax",%progbits
 176      0080AFF3 
 176      0080
 177              		.align	2
 178              		.p2align 4,,15
 179              		.global	sys_sem_signal_S
 180              		.thumb
 181              		.thumb_func
 182              		.type	sys_sem_signal_S, %function
 183              	sys_sem_signal_S:
 184              	.LFB260:
 185              		.loc 1 95 0
 186              		.cfi_startproc
 187              		@ args = 0, pretend = 0, frame = 0
 188              		@ frame_needed = 0, uses_anonymous_args = 0
 189              	.LVL13:
 190 0000 08B5     		push	{r3, lr}
 191              		.cfi_def_cfa_offset 8
 192              		.cfi_offset 3, -8
 193              		.cfi_offset 14, -4
 194              		.loc 1 97 0
 195 0002 0068     		ldr	r0, [r0]
 196              	.LVL14:
 197 0004 FFF7FEFF 		bl	chSemSignalI
 198              	.LVL15:
 199              		.loc 1 99 0
 200 0008 BDE80840 		pop	{r3, lr}
 201              		.cfi_restore 14
 202              		.cfi_restore 3
 203              		.cfi_def_cfa_offset 0
 204              		.loc 1 98 0
 205 000c FFF7FEBF 		b	chSchRescheduleS
 206              	.LVL16:
 207              		.cfi_endproc
 208              	.LFE260:
 209              		.size	sys_sem_signal_S, .-sys_sem_signal_S
 210              		.section	.text.sys_arch_sem_wait,"ax",%progbits
 211              		.align	2
 212              		.p2align 4,,15
 213              		.global	sys_arch_sem_wait
 214              		.thumb
 215              		.thumb_func
 216              		.type	sys_arch_sem_wait, %function
 217              	sys_arch_sem_wait:
 218              	.LFB261:
 219              		.loc 1 101 0
 220              		.cfi_startproc
 221              		@ args = 0, pretend = 0, frame = 0
 222              		@ frame_needed = 0, uses_anonymous_args = 0
 223              	.LVL17:
ARM GAS  C:\Users\jo\AppData\Local\Temp\ccWh6EGj.s 			page 5


 224 0000 70B5     		push	{r4, r5, r6, lr}
 225              		.cfi_def_cfa_offset 16
 226              		.cfi_offset 4, -16
 227              		.cfi_offset 5, -12
 228              		.cfi_offset 6, -8
 229              		.cfi_offset 14, -4
 230              	.LBB125:
 231              	.LBB126:
 232              	.LBB127:
 233              	.LBB128:
 234              	.LBB129:
 235              	.LBB130:
 236              		.file 2 "../../../os/ext/CMSIS/include/core_cmFunc.h"
 237              		.loc 2 546 0
 238 0002 2023     		movs	r3, #32
 239              	.LBE130:
 240              	.LBE129:
 241              	.LBE128:
 242              	.LBE127:
 243              	.LBE126:
 244              	.LBE125:
 245              		.loc 1 101 0
 246 0004 0646     		mov	r6, r0
 247 0006 0C46     		mov	r4, r1
 248              	.LBB138:
 249              	.LBB136:
 250              	.LBB134:
 251              	.LBB133:
 252              	.LBB132:
 253              	.LBB131:
 254              		.loc 2 546 0
 255              	@ 546 "../../../os/ext/CMSIS/include/core_cmFunc.h" 1
 256 0008 83F31188 		MSR basepri, r3
 257              	@ 0 "" 2
 258              		.thumb
 259              	.LBE131:
 260              	.LBE132:
 261              	.LBE133:
 262              		.file 3 "../../../os/rt/include/chsys.h"
 263              		.loc 3 300 0
 264 000c FFF7FEFF 		bl	_stats_start_measure_crit_thd
 265              	.LVL18:
 266              	.LBE134:
 267              	.LBE136:
 268              	.LBE138:
 269              	.LBB139:
 270              	.LBB140:
 271              	.LBB141:
 272              	.LBB142:
 273              	.LBB143:
 274              		.file 4 "../../../os/hal/ports/STM32/LLD/TIMv1/st_lld.h"
 275              		.loc 4 128 0
 276 0010 4FF08045 		mov	r5, #1073741824
 277              	.LBE143:
 278              	.LBE142:
 279              	.LBE141:
 280              	.LBE140:
ARM GAS  C:\Users\jo\AppData\Local\Temp\ccWh6EGj.s 			page 6


 281              	.LBE139:
 282              	.LBB148:
 283              	.LBB137:
 284              	.LBB135:
 285              		.loc 3 301 0
 286 0014 FFF7FEFF 		bl	_dbg_check_lock
 287              	.LVL19:
 288              	.LBE135:
 289              	.LBE137:
 290              	.LBE148:
 291              		.loc 1 105 0
 292 0018 002C     		cmp	r4, #0
 293              	.LVL20:
 294              		.loc 1 107 0
 295 001a 14BF     		ite	ne
 296 001c 2146     		movne	r1, r4
 297 001e 4FF0FF31 		moveq	r1, #-1
 298 0022 3068     		ldr	r0, [r6]
 299              	.LBB149:
 300              	.LBB147:
 301              	.LBB146:
 302              	.LBB145:
 303              	.LBB144:
 304              		.loc 4 128 0
 305 0024 6C6A     		ldr	r4, [r5, #36]
 306              	.LVL21:
 307              	.LBE144:
 308              	.LBE145:
 309              	.LBE146:
 310              	.LBE147:
 311              	.LBE149:
 312              		.loc 1 107 0
 313 0026 FFF7FEFF 		bl	chSemWaitTimeoutS
 314              	.LVL22:
 315 002a C0B1     		cbz	r0, .L25
 316              		.loc 1 108 0
 317 002c 4FF0FF34 		mov	r4, #-1
 318              	.L20:
 319              	.LVL23:
 320              	.LBB150:
 321              	.LBB151:
 322              	.LBB152:
 323              		.loc 3 311 0
 324 0030 FFF7FEFF 		bl	_dbg_check_unlock
 325              	.LVL24:
 326              		.loc 3 312 0
 327 0034 FFF7FEFF 		bl	_stats_stop_measure_crit_thd
 328              	.LVL25:
 329              		.loc 3 318 0
 330 0038 0A4B     		ldr	r3, .L26
 331 003a 9A69     		ldr	r2, [r3, #24]
 332 003c 1B68     		ldr	r3, [r3]
 333 003e 9268     		ldr	r2, [r2, #8]
 334 0040 9B68     		ldr	r3, [r3, #8]
 335 0042 9A42     		cmp	r2, r3
 336 0044 06D2     		bcs	.L21
 337 0046 0848     		ldr	r0, .L26+4
ARM GAS  C:\Users\jo\AppData\Local\Temp\ccWh6EGj.s 			page 7


 338 0048 FFF7FEFF 		bl	puts
 339              	.LVL26:
 340              	@ 318 "../../../os/rt/include/chsys.h" 1
 341 004c 00BE     		BKPT #0
 342              	
 343              	@ 0 "" 2
 344              		.thumb
 345 004e 0748     		ldr	r0, .L26+8
 346 0050 FFF7FEFF 		bl	chSysHalt
 347              	.LVL27:
 348              	.L21:
 349              	.LBB153:
 350              	.LBB154:
 351              	.LBB155:
 352              		.loc 2 546 0
 353 0054 0023     		movs	r3, #0
 354              	@ 546 "../../../os/ext/CMSIS/include/core_cmFunc.h" 1
 355 0056 83F31188 		MSR basepri, r3
 356              	@ 0 "" 2
 357              		.thumb
 358              	.LBE155:
 359              	.LBE154:
 360              	.LBE153:
 361              	.LBE152:
 362              	.LBE151:
 363              	.LBE150:
 364              		.loc 1 113 0
 365 005a 2046     		mov	r0, r4
 366 005c 70BD     		pop	{r4, r5, r6, pc}
 367              	.LVL28:
 368              	.L25:
 369              	.LBB156:
 370              	.LBB157:
 371              	.LBB158:
 372              	.LBB159:
 373              	.LBB160:
 374              		.loc 4 128 0
 375 005e 6B6A     		ldr	r3, [r5, #36]
 376              	.LBE160:
 377              	.LBE159:
 378              	.LBE158:
 379              	.LBE157:
 380              	.LBE156:
 381              		.loc 1 110 0
 382 0060 1C1B     		subs	r4, r3, r4
 383              	.LVL29:
 384 0062 E5E7     		b	.L20
 385              	.L27:
 386              		.align	2
 387              	.L26:
 388 0064 00000000 		.word	ch
 389 0068 00000000 		.word	.LC0
 390 006c 00000000 		.word	.LANCHOR0
 391              		.cfi_endproc
 392              	.LFE261:
 393              		.size	sys_arch_sem_wait, .-sys_arch_sem_wait
 394              		.section	.text.sys_sem_valid,"ax",%progbits
ARM GAS  C:\Users\jo\AppData\Local\Temp\ccWh6EGj.s 			page 8


 395              		.align	2
 396              		.p2align 4,,15
 397              		.global	sys_sem_valid
 398              		.thumb
 399              		.thumb_func
 400              		.type	sys_sem_valid, %function
 401              	sys_sem_valid:
 402              	.LFB262:
 403              		.loc 1 115 0
 404              		.cfi_startproc
 405              		@ args = 0, pretend = 0, frame = 0
 406              		@ frame_needed = 0, uses_anonymous_args = 0
 407              		@ link register save eliminated.
 408              	.LVL30:
 409              		.loc 1 116 0
 410 0000 0068     		ldr	r0, [r0]
 411              	.LVL31:
 412              		.loc 1 117 0
 413 0002 0030     		adds	r0, r0, #0
 414 0004 18BF     		it	ne
 415 0006 0120     		movne	r0, #1
 416 0008 7047     		bx	lr
 417              		.cfi_endproc
 418              	.LFE262:
 419              		.size	sys_sem_valid, .-sys_sem_valid
 420 000a 00BFAFF3 		.section	.text.sys_sem_set_invalid,"ax",%progbits
 420      0080
 421              		.align	2
 422              		.p2align 4,,15
 423              		.global	sys_sem_set_invalid
 424              		.thumb
 425              		.thumb_func
 426              		.type	sys_sem_set_invalid, %function
 427              	sys_sem_set_invalid:
 428              	.LFB263:
 429              		.loc 1 121 0
 430              		.cfi_startproc
 431              		@ args = 0, pretend = 0, frame = 0
 432              		@ frame_needed = 0, uses_anonymous_args = 0
 433              		@ link register save eliminated.
 434              	.LVL32:
 435              		.loc 1 122 0
 436 0000 0023     		movs	r3, #0
 437 0002 0360     		str	r3, [r0]
 438 0004 7047     		bx	lr
 439              		.cfi_endproc
 440              	.LFE263:
 441              		.size	sys_sem_set_invalid, .-sys_sem_set_invalid
 442 0006 00BFAFF3 		.section	.text.sys_mbox_new,"ax",%progbits
 442      0080AFF3 
 442      0080
 443              		.align	2
 444              		.p2align 4,,15
 445              		.global	sys_mbox_new
 446              		.thumb
 447              		.thumb_func
 448              		.type	sys_mbox_new, %function
ARM GAS  C:\Users\jo\AppData\Local\Temp\ccWh6EGj.s 			page 9


 449              	sys_mbox_new:
 450              	.LFB264:
 451              		.loc 1 125 0
 452              		.cfi_startproc
 453              		@ args = 0, pretend = 0, frame = 0
 454              		@ frame_needed = 0, uses_anonymous_args = 0
 455              	.LVL33:
 456 0000 38B5     		push	{r3, r4, r5, lr}
 457              		.cfi_def_cfa_offset 16
 458              		.cfi_offset 3, -16
 459              		.cfi_offset 4, -12
 460              		.cfi_offset 5, -8
 461              		.cfi_offset 14, -4
 462              		.loc 1 125 0
 463 0002 0C46     		mov	r4, r1
 464              		.loc 1 127 0
 465 0004 0A31     		adds	r1, r1, #10
 466              	.LVL34:
 467              		.loc 1 125 0
 468 0006 0546     		mov	r5, r0
 469              		.loc 1 127 0
 470 0008 8900     		lsls	r1, r1, #2
 471 000a 0020     		movs	r0, #0
 472              	.LVL35:
 473 000c FFF7FEFF 		bl	chHeapAlloc
 474              	.LVL36:
 475 0010 0146     		mov	r1, r0
 476 0012 2860     		str	r0, [r5]
 477              		.loc 1 128 0
 478 0014 60B1     		cbz	r0, .L34
 479              		.loc 1 133 0
 480 0016 2246     		mov	r2, r4
 481 0018 2831     		adds	r1, r1, #40
 482 001a FFF7FEFF 		bl	chMBObjectInit
 483              	.LVL37:
 484              		.loc 1 134 0
 485 001e 084A     		ldr	r2, .L35
 486 0020 B2F8B430 		ldrh	r3, [r2, #180]
 487 0024 0133     		adds	r3, r3, #1
 488 0026 A2F8B430 		strh	r3, [r2, #180]	@ movhi
 489              		.loc 1 135 0
 490 002a 0020     		movs	r0, #0
 491              	.L32:
 492              		.loc 1 137 0
 493 002c 40B2     		sxtb	r0, r0
 494 002e 38BD     		pop	{r3, r4, r5, pc}
 495              	.LVL38:
 496              	.L34:
 497              		.loc 1 129 0
 498 0030 034A     		ldr	r2, .L35
 499 0032 B2F8B830 		ldrh	r3, [r2, #184]
 500 0036 0133     		adds	r3, r3, #1
 501 0038 A2F8B830 		strh	r3, [r2, #184]	@ movhi
 502              		.loc 1 130 0
 503 003c FF20     		movs	r0, #255
 504 003e F5E7     		b	.L32
 505              	.L36:
ARM GAS  C:\Users\jo\AppData\Local\Temp\ccWh6EGj.s 			page 10


 506              		.align	2
 507              	.L35:
 508 0040 00000000 		.word	lwip_stats
 509              		.cfi_endproc
 510              	.LFE264:
 511              		.size	sys_mbox_new, .-sys_mbox_new
 512 0044 AFF30080 		.section	.text.sys_mbox_free,"ax",%progbits
 512      AFF30080 
 512      AFF30080 
 513              		.align	2
 514              		.p2align 4,,15
 515              		.global	sys_mbox_free
 516              		.thumb
 517              		.thumb_func
 518              		.type	sys_mbox_free, %function
 519              	sys_mbox_free:
 520              	.LFB265:
 521              		.loc 1 139 0
 522              		.cfi_startproc
 523              		@ args = 0, pretend = 0, frame = 0
 524              		@ frame_needed = 0, uses_anonymous_args = 0
 525              	.LVL39:
 526 0000 38B5     		push	{r3, r4, r5, lr}
 527              		.cfi_def_cfa_offset 16
 528              		.cfi_offset 3, -16
 529              		.cfi_offset 4, -12
 530              		.cfi_offset 5, -8
 531              		.cfi_offset 14, -4
 532              		.loc 1 139 0
 533 0002 0446     		mov	r4, r0
 534              	.LBB178:
 535              	.LBB179:
 536              	.LBB180:
 537              	.LBB181:
 538              	.LBB182:
 539              	.LBB183:
 540              		.loc 2 546 0
 541 0004 2023     		movs	r3, #32
 542              	@ 546 "../../../os/ext/CMSIS/include/core_cmFunc.h" 1
 543 0006 83F31188 		MSR basepri, r3
 544              	@ 0 "" 2
 545              		.thumb
 546              	.LBE183:
 547              	.LBE182:
 548              	.LBE181:
 549              		.loc 3 300 0
 550 000a FFF7FEFF 		bl	_stats_start_measure_crit_thd
 551              	.LVL40:
 552              		.loc 3 301 0
 553 000e FFF7FEFF 		bl	_dbg_check_lock
 554              	.LVL41:
 555              	.LBE180:
 556              	.LBE179:
 557              	.LBE178:
 558              		.loc 1 143 0
 559 0012 2568     		ldr	r5, [r4]
 560              	.LVL42:
ARM GAS  C:\Users\jo\AppData\Local\Temp\ccWh6EGj.s 			page 11


 561              	.LBB184:
 562              	.LBB185:
 563              		.file 5 "../../../os/rt/include/chmboxes.h"
 564              		.loc 5 176 0
 565 0014 FFF7FEFF 		bl	chDbgCheckClassI
 566              	.LVL43:
 567              	.LBB186:
 568              	.LBB187:
 569              		.file 6 "../../../os/rt/include/chsem.h"
 570              		.loc 6 151 0
 571 0018 FFF7FEFF 		bl	chDbgCheckClassI
 572              	.LVL44:
 573              		.loc 6 153 0
 574 001c AD69     		ldr	r5, [r5, #24]
 575              	.LVL45:
 576              	.LBE187:
 577              	.LBE186:
 578              	.LBE185:
 579              	.LBE184:
 580              	.LBB188:
 581              	.LBB189:
 582              	.LBB190:
 583              		.loc 3 311 0
 584 001e FFF7FEFF 		bl	_dbg_check_unlock
 585              	.LVL46:
 586              		.loc 3 312 0
 587 0022 FFF7FEFF 		bl	_stats_stop_measure_crit_thd
 588              	.LVL47:
 589              		.loc 3 318 0
 590 0026 144B     		ldr	r3, .L44
 591 0028 9A69     		ldr	r2, [r3, #24]
 592 002a 1B68     		ldr	r3, [r3]
 593 002c 9268     		ldr	r2, [r2, #8]
 594 002e 9B68     		ldr	r3, [r3, #8]
 595 0030 9A42     		cmp	r2, r3
 596 0032 06D2     		bcs	.L38
 597 0034 1148     		ldr	r0, .L44+4
 598 0036 FFF7FEFF 		bl	puts
 599              	.LVL48:
 600              	@ 318 "../../../os/rt/include/chsys.h" 1
 601 003a 00BE     		BKPT #0
 602              	
 603              	@ 0 "" 2
 604              		.thumb
 605 003c 1048     		ldr	r0, .L44+8
 606 003e FFF7FEFF 		bl	chSysHalt
 607              	.LVL49:
 608              	.L38:
 609              	.LBB191:
 610              	.LBB192:
 611              	.LBB193:
 612              		.loc 2 546 0
 613 0042 0023     		movs	r3, #0
 614              	@ 546 "../../../os/ext/CMSIS/include/core_cmFunc.h" 1
 615 0044 83F31188 		MSR basepri, r3
 616              	@ 0 "" 2
 617              		.thumb
ARM GAS  C:\Users\jo\AppData\Local\Temp\ccWh6EGj.s 			page 12


 618              	.LBE193:
 619              	.LBE192:
 620              	.LBE191:
 621              	.LBE190:
 622              	.LBE189:
 623              	.LBE188:
 624              		.loc 1 146 0
 625 0048 5DB9     		cbnz	r5, .L42
 626 004a 0E4D     		ldr	r5, .L44+12
 627              	.L39:
 628              		.loc 1 153 0
 629 004c 2068     		ldr	r0, [r4]
 630 004e FFF7FEFF 		bl	chHeapFree
 631              	.LVL50:
 632              		.loc 1 155 0
 633 0052 B5F8B430 		ldrh	r3, [r5, #180]
 634              		.loc 1 154 0
 635 0056 0022     		movs	r2, #0
 636              		.loc 1 155 0
 637 0058 013B     		subs	r3, r3, #1
 638              		.loc 1 154 0
 639 005a 2260     		str	r2, [r4]
 640              		.loc 1 155 0
 641 005c A5F8B430 		strh	r3, [r5, #180]	@ movhi
 642 0060 38BD     		pop	{r3, r4, r5, pc}
 643              	.LVL51:
 644              	.L42:
 645              		.loc 1 150 0
 646 0062 084D     		ldr	r5, .L44+12
 647              		.loc 1 151 0
 648 0064 2068     		ldr	r0, [r4]
 649              		.loc 1 150 0
 650 0066 B5F8B830 		ldrh	r3, [r5, #184]
 651 006a 0133     		adds	r3, r3, #1
 652 006c A5F8B830 		strh	r3, [r5, #184]	@ movhi
 653              		.loc 1 151 0
 654 0070 FFF7FEFF 		bl	chMBReset
 655              	.LVL52:
 656 0074 EAE7     		b	.L39
 657              	.L45:
 658 0076 00BF     		.align	2
 659              	.L44:
 660 0078 00000000 		.word	ch
 661 007c 00000000 		.word	.LC0
 662 0080 00000000 		.word	.LANCHOR0
 663 0084 00000000 		.word	lwip_stats
 664              		.cfi_endproc
 665              	.LFE265:
 666              		.size	sys_mbox_free, .-sys_mbox_free
 667 0088 AFF30080 		.section	.text.sys_mbox_post,"ax",%progbits
 667      AFF30080 
 668              		.align	2
 669              		.p2align 4,,15
 670              		.global	sys_mbox_post
 671              		.thumb
 672              		.thumb_func
 673              		.type	sys_mbox_post, %function
ARM GAS  C:\Users\jo\AppData\Local\Temp\ccWh6EGj.s 			page 13


 674              	sys_mbox_post:
 675              	.LFB266:
 676              		.loc 1 158 0
 677              		.cfi_startproc
 678              		@ args = 0, pretend = 0, frame = 0
 679              		@ frame_needed = 0, uses_anonymous_args = 0
 680              		@ link register save eliminated.
 681              	.LVL53:
 682              		.loc 1 160 0
 683 0000 0068     		ldr	r0, [r0]
 684              	.LVL54:
 685 0002 4FF0FF32 		mov	r2, #-1
 686 0006 FFF7FEBF 		b	chMBPost
 687              	.LVL55:
 688              		.cfi_endproc
 689              	.LFE266:
 690              		.size	sys_mbox_post, .-sys_mbox_post
 691              		.section	.text.sys_mbox_trypost,"ax",%progbits
 692              		.align	2
 693              		.p2align 4,,15
 694              		.global	sys_mbox_trypost
 695              		.thumb
 696              		.thumb_func
 697              		.type	sys_mbox_trypost, %function
 698              	sys_mbox_trypost:
 699              	.LFB267:
 700              		.loc 1 163 0
 701              		.cfi_startproc
 702              		@ args = 0, pretend = 0, frame = 0
 703              		@ frame_needed = 0, uses_anonymous_args = 0
 704              	.LVL56:
 705 0000 08B5     		push	{r3, lr}
 706              		.cfi_def_cfa_offset 8
 707              		.cfi_offset 3, -8
 708              		.cfi_offset 14, -4
 709              		.loc 1 165 0
 710 0002 0068     		ldr	r0, [r0]
 711              	.LVL57:
 712 0004 0022     		movs	r2, #0
 713 0006 FFF7FEFF 		bl	chMBPost
 714              	.LVL58:
 715 000a 0130     		adds	r0, r0, #1
 716              		.loc 1 169 0
 717 000c 18BF     		it	ne
 718 000e 0020     		movne	r0, #0
 719              		.loc 1 165 0
 720 0010 01D0     		beq	.L51
 721              	.L48:
 722              		.loc 1 170 0
 723 0012 40B2     		sxtb	r0, r0
 724 0014 08BD     		pop	{r3, pc}
 725              	.L51:
 726              		.loc 1 166 0
 727 0016 044A     		ldr	r2, .L52
 728 0018 B2F8B830 		ldrh	r3, [r2, #184]
 729 001c 0133     		adds	r3, r3, #1
 730 001e A2F8B830 		strh	r3, [r2, #184]	@ movhi
ARM GAS  C:\Users\jo\AppData\Local\Temp\ccWh6EGj.s 			page 14


 731              		.loc 1 167 0
 732 0022 FF20     		movs	r0, #255
 733 0024 F5E7     		b	.L48
 734              	.L53:
 735 0026 00BF     		.align	2
 736              	.L52:
 737 0028 00000000 		.word	lwip_stats
 738              		.cfi_endproc
 739              	.LFE267:
 740              		.size	sys_mbox_trypost, .-sys_mbox_trypost
 741 002c AFF30080 		.section	.text.sys_arch_mbox_fetch,"ax",%progbits
 742              		.align	2
 743              		.p2align 4,,15
 744              		.global	sys_arch_mbox_fetch
 745              		.thumb
 746              		.thumb_func
 747              		.type	sys_arch_mbox_fetch, %function
 748              	sys_arch_mbox_fetch:
 749              	.LFB268:
 750              		.loc 1 172 0
 751              		.cfi_startproc
 752              		@ args = 0, pretend = 0, frame = 0
 753              		@ frame_needed = 0, uses_anonymous_args = 0
 754              	.LVL59:
 755 0000 F8B5     		push	{r3, r4, r5, r6, r7, lr}
 756              		.cfi_def_cfa_offset 24
 757              		.cfi_offset 3, -24
 758              		.cfi_offset 4, -20
 759              		.cfi_offset 5, -16
 760              		.cfi_offset 6, -12
 761              		.cfi_offset 7, -8
 762              		.cfi_offset 14, -4
 763              		.loc 1 172 0
 764 0002 0746     		mov	r7, r0
 765 0004 0E46     		mov	r6, r1
 766 0006 1446     		mov	r4, r2
 767              	.LBB217:
 768              	.LBB218:
 769              	.LBB219:
 770              	.LBB220:
 771              	.LBB221:
 772              	.LBB222:
 773              		.loc 2 546 0
 774 0008 2023     		movs	r3, #32
 775              	@ 546 "../../../os/ext/CMSIS/include/core_cmFunc.h" 1
 776 000a 83F31188 		MSR basepri, r3
 777              	@ 0 "" 2
 778              		.thumb
 779              	.LBE222:
 780              	.LBE221:
 781              	.LBE220:
 782              		.loc 3 300 0
 783 000e FFF7FEFF 		bl	_stats_start_measure_crit_thd
 784              	.LVL60:
 785              	.LBE219:
 786              	.LBE218:
 787              	.LBE217:
ARM GAS  C:\Users\jo\AppData\Local\Temp\ccWh6EGj.s 			page 15


 788              	.LBB225:
 789              	.LBB226:
 790              	.LBB227:
 791              	.LBB228:
 792              	.LBB229:
 793              		.loc 4 128 0
 794 0012 4FF08045 		mov	r5, #1073741824
 795              	.LBE229:
 796              	.LBE228:
 797              	.LBE227:
 798              	.LBE226:
 799              	.LBE225:
 800              	.LBB234:
 801              	.LBB224:
 802              	.LBB223:
 803              		.loc 3 301 0
 804 0016 FFF7FEFF 		bl	_dbg_check_lock
 805              	.LVL61:
 806              	.LBE223:
 807              	.LBE224:
 808              	.LBE234:
 809              		.loc 1 176 0
 810 001a 002C     		cmp	r4, #0
 811              	.LVL62:
 812              		.loc 1 178 0
 813 001c 14BF     		ite	ne
 814 001e 2246     		movne	r2, r4
 815 0020 4FF0FF32 		moveq	r2, #-1
 816 0024 3868     		ldr	r0, [r7]
 817              	.LBB235:
 818              	.LBB233:
 819              	.LBB232:
 820              	.LBB231:
 821              	.LBB230:
 822              		.loc 4 128 0
 823 0026 6C6A     		ldr	r4, [r5, #36]
 824              	.LVL63:
 825              	.LBE230:
 826              	.LBE231:
 827              	.LBE232:
 828              	.LBE233:
 829              	.LBE235:
 830              		.loc 1 178 0
 831 0028 3146     		mov	r1, r6
 832 002a FFF7FEFF 		bl	chMBFetchS
 833              	.LVL64:
 834 002e C0B1     		cbz	r0, .L61
 835              		.loc 1 179 0
 836 0030 4FF0FF34 		mov	r4, #-1
 837              	.L56:
 838              	.LVL65:
 839              	.LBB236:
 840              	.LBB237:
 841              	.LBB238:
 842              		.loc 3 311 0
 843 0034 FFF7FEFF 		bl	_dbg_check_unlock
 844              	.LVL66:
ARM GAS  C:\Users\jo\AppData\Local\Temp\ccWh6EGj.s 			page 16


 845              		.loc 3 312 0
 846 0038 FFF7FEFF 		bl	_stats_stop_measure_crit_thd
 847              	.LVL67:
 848              		.loc 3 318 0
 849 003c 0A4B     		ldr	r3, .L62
 850 003e 9A69     		ldr	r2, [r3, #24]
 851 0040 1B68     		ldr	r3, [r3]
 852 0042 9268     		ldr	r2, [r2, #8]
 853 0044 9B68     		ldr	r3, [r3, #8]
 854 0046 9A42     		cmp	r2, r3
 855 0048 06D2     		bcs	.L57
 856 004a 0848     		ldr	r0, .L62+4
 857 004c FFF7FEFF 		bl	puts
 858              	.LVL68:
 859              	@ 318 "../../../os/rt/include/chsys.h" 1
 860 0050 00BE     		BKPT #0
 861              	
 862              	@ 0 "" 2
 863              		.thumb
 864 0052 0748     		ldr	r0, .L62+8
 865 0054 FFF7FEFF 		bl	chSysHalt
 866              	.LVL69:
 867              	.L57:
 868              	.LBB239:
 869              	.LBB240:
 870              	.LBB241:
 871              		.loc 2 546 0
 872 0058 0023     		movs	r3, #0
 873              	@ 546 "../../../os/ext/CMSIS/include/core_cmFunc.h" 1
 874 005a 83F31188 		MSR basepri, r3
 875              	@ 0 "" 2
 876              		.thumb
 877              	.LBE241:
 878              	.LBE240:
 879              	.LBE239:
 880              	.LBE238:
 881              	.LBE237:
 882              	.LBE236:
 883              		.loc 1 184 0
 884 005e 2046     		mov	r0, r4
 885 0060 F8BD     		pop	{r3, r4, r5, r6, r7, pc}
 886              	.LVL70:
 887              	.L61:
 888              	.LBB242:
 889              	.LBB243:
 890              	.LBB244:
 891              	.LBB245:
 892              	.LBB246:
 893              		.loc 4 128 0
 894 0062 6B6A     		ldr	r3, [r5, #36]
 895              	.LBE246:
 896              	.LBE245:
 897              	.LBE244:
 898              	.LBE243:
 899              	.LBE242:
 900              		.loc 1 181 0
 901 0064 1C1B     		subs	r4, r3, r4
ARM GAS  C:\Users\jo\AppData\Local\Temp\ccWh6EGj.s 			page 17


 902              	.LVL71:
 903 0066 E5E7     		b	.L56
 904              	.L63:
 905              		.align	2
 906              	.L62:
 907 0068 00000000 		.word	ch
 908 006c 00000000 		.word	.LC0
 909 0070 00000000 		.word	.LANCHOR0
 910              		.cfi_endproc
 911              	.LFE268:
 912              		.size	sys_arch_mbox_fetch, .-sys_arch_mbox_fetch
 913 0074 AFF30080 		.section	.text.sys_arch_mbox_tryfetch,"ax",%progbits
 913      AFF30080 
 913      AFF30080 
 914              		.align	2
 915              		.p2align 4,,15
 916              		.global	sys_arch_mbox_tryfetch
 917              		.thumb
 918              		.thumb_func
 919              		.type	sys_arch_mbox_tryfetch, %function
 920              	sys_arch_mbox_tryfetch:
 921              	.LFB269:
 922              		.loc 1 186 0
 923              		.cfi_startproc
 924              		@ args = 0, pretend = 0, frame = 0
 925              		@ frame_needed = 0, uses_anonymous_args = 0
 926              	.LVL72:
 927 0000 08B5     		push	{r3, lr}
 928              		.cfi_def_cfa_offset 8
 929              		.cfi_offset 3, -8
 930              		.cfi_offset 14, -4
 931              		.loc 1 188 0
 932 0002 0022     		movs	r2, #0
 933 0004 0068     		ldr	r0, [r0]
 934              	.LVL73:
 935 0006 FFF7FEFF 		bl	chMBFetch
 936              	.LVL74:
 937              		.loc 1 191 0
 938 000a 0130     		adds	r0, r0, #1
 939 000c 4FF0FF30 		mov	r0, #-1
 940 0010 18BF     		it	ne
 941 0012 0020     		movne	r0, #0
 942 0014 08BD     		pop	{r3, pc}
 943              		.cfi_endproc
 944              	.LFE269:
 945              		.size	sys_arch_mbox_tryfetch, .-sys_arch_mbox_tryfetch
 946 0016 00BFAFF3 		.section	.text.sys_mbox_valid,"ax",%progbits
 946      0080AFF3 
 946      0080
 947              		.align	2
 948              		.p2align 4,,15
 949              		.global	sys_mbox_valid
 950              		.thumb
 951              		.thumb_func
 952              		.type	sys_mbox_valid, %function
 953              	sys_mbox_valid:
 954              	.LFB270:
ARM GAS  C:\Users\jo\AppData\Local\Temp\ccWh6EGj.s 			page 18


 955              		.loc 1 193 0
 956              		.cfi_startproc
 957              		@ args = 0, pretend = 0, frame = 0
 958              		@ frame_needed = 0, uses_anonymous_args = 0
 959              		@ link register save eliminated.
 960              	.LVL75:
 961              		.loc 1 194 0
 962 0000 0068     		ldr	r0, [r0]
 963              	.LVL76:
 964              		.loc 1 195 0
 965 0002 0030     		adds	r0, r0, #0
 966 0004 18BF     		it	ne
 967 0006 0120     		movne	r0, #1
 968 0008 7047     		bx	lr
 969              		.cfi_endproc
 970              	.LFE270:
 971              		.size	sys_mbox_valid, .-sys_mbox_valid
 972 000a 00BFAFF3 		.section	.text.sys_mbox_set_invalid,"ax",%progbits
 972      0080
 973              		.align	2
 974              		.p2align 4,,15
 975              		.global	sys_mbox_set_invalid
 976              		.thumb
 977              		.thumb_func
 978              		.type	sys_mbox_set_invalid, %function
 979              	sys_mbox_set_invalid:
 980              	.LFB271:
 981              		.loc 1 199 0
 982              		.cfi_startproc
 983              		@ args = 0, pretend = 0, frame = 0
 984              		@ frame_needed = 0, uses_anonymous_args = 0
 985              		@ link register save eliminated.
 986              	.LVL77:
 987              		.loc 1 200 0
 988 0000 0023     		movs	r3, #0
 989 0002 0360     		str	r3, [r0]
 990 0004 7047     		bx	lr
 991              		.cfi_endproc
 992              	.LFE271:
 993              		.size	sys_mbox_set_invalid, .-sys_mbox_set_invalid
 994 0006 00BFAFF3 		.section	.text.sys_thread_new,"ax",%progbits
 994      0080AFF3 
 994      0080
 995              		.align	2
 996              		.p2align 4,,15
 997              		.global	sys_thread_new
 998              		.thumb
 999              		.thumb_func
 1000              		.type	sys_thread_new, %function
 1001              	sys_thread_new:
 1002              	.LFB272:
 1003              		.loc 1 204 0
 1004              		.cfi_startproc
 1005              		@ args = 4, pretend = 0, frame = 0
 1006              		@ frame_needed = 0, uses_anonymous_args = 0
 1007              	.LVL78:
 1008              		.loc 1 210 0
ARM GAS  C:\Users\jo\AppData\Local\Temp\ccWh6EGj.s 			page 19


 1009 0000 E333     		adds	r3, r3, #227
 1010              	.LVL79:
 1011              		.loc 1 204 0
 1012 0002 2DE9F041 		push	{r4, r5, r6, r7, r8, lr}
 1013              		.cfi_def_cfa_offset 24
 1014              		.cfi_offset 4, -24
 1015              		.cfi_offset 5, -20
 1016              		.cfi_offset 6, -16
 1017              		.cfi_offset 7, -12
 1018              		.cfi_offset 8, -8
 1019              		.cfi_offset 14, -4
 1020              		.loc 1 210 0
 1021 0006 43F00704 		orr	r4, r3, #7
 1022 000a 0134     		adds	r4, r4, #1
 1023              	.LVL80:
 1024              		.loc 1 211 0
 1025 000c 2046     		mov	r0, r4
 1026              	.LVL81:
 1027              		.loc 1 204 0
 1028 000e 0D46     		mov	r5, r1
 1029 0010 1746     		mov	r7, r2
 1030 0012 069E     		ldr	r6, [sp, #24]
 1031              		.loc 1 211 0
 1032 0014 FFF7FEFF 		bl	chCoreAlloc
 1033              	.LVL82:
 1034              		.loc 1 212 0
 1035 0018 38B1     		cbz	r0, .L69
 1036              		.loc 1 214 0
 1037 001a 0697     		str	r7, [sp, #24]
 1038 001c 2146     		mov	r1, r4
 1039 001e 3246     		mov	r2, r6
 1040 0020 2B46     		mov	r3, r5
 1041              		.loc 1 215 0
 1042 0022 BDE8F041 		pop	{r4, r5, r6, r7, r8, lr}
 1043              		.cfi_remember_state
 1044              		.cfi_restore 14
 1045              		.cfi_restore 8
 1046              		.cfi_restore 7
 1047              		.cfi_restore 6
 1048              		.cfi_restore 5
 1049              		.cfi_restore 4
 1050              		.cfi_def_cfa_offset 0
 1051              	.LVL83:
 1052              		.loc 1 214 0
 1053 0026 FFF7FEBF 		b	chThdCreateStatic
 1054              	.LVL84:
 1055              	.L69:
 1056              		.cfi_restore_state
 1057              		.loc 1 215 0
 1058 002a BDE8F081 		pop	{r4, r5, r6, r7, r8, pc}
 1059              		.cfi_endproc
 1060              	.LFE272:
 1061              		.size	sys_thread_new, .-sys_thread_new
 1062 002e 00BF     		.section	.text.sys_arch_protect,"ax",%progbits
 1063              		.align	2
 1064              		.p2align 4,,15
 1065              		.global	sys_arch_protect
ARM GAS  C:\Users\jo\AppData\Local\Temp\ccWh6EGj.s 			page 20


 1066              		.thumb
 1067              		.thumb_func
 1068              		.type	sys_arch_protect, %function
 1069              	sys_arch_protect:
 1070              	.LFB273:
 1071              		.loc 1 217 0
 1072              		.cfi_startproc
 1073              		@ args = 0, pretend = 0, frame = 0
 1074              		@ frame_needed = 0, uses_anonymous_args = 0
 1075              	.LVL85:
 1076 0000 08B5     		push	{r3, lr}
 1077              		.cfi_def_cfa_offset 8
 1078              		.cfi_offset 3, -8
 1079              		.cfi_offset 14, -4
 1080              	.LBB247:
 1081              	.LBB248:
 1082              	.LBB249:
 1083              	.LBB250:
 1084              	.LBB251:
 1085              	.LBB252:
 1086              		.loc 2 546 0
 1087 0002 2023     		movs	r3, #32
 1088              	@ 546 "../../../os/ext/CMSIS/include/core_cmFunc.h" 1
 1089 0004 83F31188 		MSR basepri, r3
 1090              	@ 0 "" 2
 1091              		.thumb
 1092              	.LBE252:
 1093              	.LBE251:
 1094              	.LBE250:
 1095              		.loc 3 300 0
 1096 0008 FFF7FEFF 		bl	_stats_start_measure_crit_thd
 1097              	.LVL86:
 1098              		.loc 3 301 0
 1099 000c FFF7FEFF 		bl	_dbg_check_lock
 1100              	.LVL87:
 1101              	.LBE249:
 1102              	.LBE248:
 1103              	.LBE247:
 1104              		.loc 1 221 0
 1105 0010 0020     		movs	r0, #0
 1106 0012 08BD     		pop	{r3, pc}
 1107              		.cfi_endproc
 1108              	.LFE273:
 1109              		.size	sys_arch_protect, .-sys_arch_protect
 1110 0014 AFF30080 		.section	.text.sys_arch_unprotect,"ax",%progbits
 1110      AFF30080 
 1110      AFF30080 
 1111              		.align	2
 1112              		.p2align 4,,15
 1113              		.global	sys_arch_unprotect
 1114              		.thumb
 1115              		.thumb_func
 1116              		.type	sys_arch_unprotect, %function
 1117              	sys_arch_unprotect:
 1118              	.LFB274:
 1119              		.loc 1 223 0
 1120              		.cfi_startproc
ARM GAS  C:\Users\jo\AppData\Local\Temp\ccWh6EGj.s 			page 21


 1121              		@ args = 0, pretend = 0, frame = 0
 1122              		@ frame_needed = 0, uses_anonymous_args = 0
 1123              	.LVL88:
 1124 0000 08B5     		push	{r3, lr}
 1125              		.cfi_def_cfa_offset 8
 1126              		.cfi_offset 3, -8
 1127              		.cfi_offset 14, -4
 1128              	.LBB260:
 1129              	.LBB261:
 1130              	.LBB262:
 1131              		.loc 3 311 0
 1132 0002 FFF7FEFF 		bl	_dbg_check_unlock
 1133              	.LVL89:
 1134              		.loc 3 312 0
 1135 0006 FFF7FEFF 		bl	_stats_stop_measure_crit_thd
 1136              	.LVL90:
 1137              		.loc 3 318 0
 1138 000a 094B     		ldr	r3, .L76
 1139 000c 9A69     		ldr	r2, [r3, #24]
 1140 000e 1B68     		ldr	r3, [r3]
 1141 0010 9268     		ldr	r2, [r2, #8]
 1142 0012 9B68     		ldr	r3, [r3, #8]
 1143 0014 9A42     		cmp	r2, r3
 1144 0016 06D2     		bcs	.L74
 1145 0018 0648     		ldr	r0, .L76+4
 1146 001a FFF7FEFF 		bl	puts
 1147              	.LVL91:
 1148              	@ 318 "../../../os/rt/include/chsys.h" 1
 1149 001e 00BE     		BKPT #0
 1150              	
 1151              	@ 0 "" 2
 1152              		.thumb
 1153 0020 0548     		ldr	r0, .L76+8
 1154 0022 FFF7FEFF 		bl	chSysHalt
 1155              	.LVL92:
 1156              	.L74:
 1157              	.LBB263:
 1158              	.LBB264:
 1159              	.LBB265:
 1160              		.loc 2 546 0
 1161 0026 0023     		movs	r3, #0
 1162              	@ 546 "../../../os/ext/CMSIS/include/core_cmFunc.h" 1
 1163 0028 83F31188 		MSR basepri, r3
 1164              	@ 0 "" 2
 1165              		.thumb
 1166 002c 08BD     		pop	{r3, pc}
 1167              	.L77:
 1168 002e 00BF     		.align	2
 1169              	.L76:
 1170 0030 00000000 		.word	ch
 1171 0034 00000000 		.word	.LC0
 1172 0038 00000000 		.word	.LANCHOR0
 1173              	.LBE265:
 1174              	.LBE264:
 1175              	.LBE263:
 1176              	.LBE262:
 1177              	.LBE261:
ARM GAS  C:\Users\jo\AppData\Local\Temp\ccWh6EGj.s 			page 22


 1178              	.LBE260:
 1179              		.cfi_endproc
 1180              	.LFE274:
 1181              		.size	sys_arch_unprotect, .-sys_arch_unprotect
 1182 003c AFF30080 		.section	.text.sys_now,"ax",%progbits
 1183              		.align	2
 1184              		.p2align 4,,15
 1185              		.global	sys_now
 1186              		.thumb
 1187              		.thumb_func
 1188              		.type	sys_now, %function
 1189              	sys_now:
 1190              	.LFB275:
 1191              		.loc 1 229 0
 1192              		.cfi_startproc
 1193              		@ args = 0, pretend = 0, frame = 0
 1194              		@ frame_needed = 0, uses_anonymous_args = 0
 1195              		@ link register save eliminated.
 1196              	.LBB266:
 1197              	.LBB267:
 1198              	.LBB268:
 1199              	.LBB269:
 1200              	.LBB270:
 1201              		.loc 4 128 0
 1202 0000 4FF08042 		mov	r2, #1073741824
 1203              	.LBE270:
 1204              	.LBE269:
 1205              	.LBE268:
 1206              	.LBE267:
 1207              	.LBE266:
 1208              		.loc 1 234 0
 1209 0004 034B     		ldr	r3, .L79
 1210              	.LBB275:
 1211              	.LBB274:
 1212              	.LBB273:
 1213              	.LBB272:
 1214              	.LBB271:
 1215              		.loc 4 128 0
 1216 0006 506A     		ldr	r0, [r2, #36]
 1217              	.LBE271:
 1218              	.LBE272:
 1219              	.LBE273:
 1220              	.LBE274:
 1221              	.LBE275:
 1222              		.loc 1 234 0
 1223 0008 0138     		subs	r0, r0, #1
 1224 000a A3FB0030 		umull	r3, r0, r3, r0
 1225 000e C008     		lsrs	r0, r0, #3
 1226              		.loc 1 240 0
 1227 0010 0130     		adds	r0, r0, #1
 1228 0012 7047     		bx	lr
 1229              	.L80:
 1230              		.align	2
 1231              	.L79:
 1232 0014 CDCCCCCC 		.word	-858993459
 1233              		.cfi_endproc
 1234              	.LFE275:
ARM GAS  C:\Users\jo\AppData\Local\Temp\ccWh6EGj.s 			page 23


 1235              		.size	sys_now, .-sys_now
 1236 0018 AFF30080 		.section	.rodata.str1.4,"aMS",%progbits,1
 1236      AFF30080 
 1237              		.align	2
 1238              	.LC0:
 1239 0000 7072696F 		.ascii	"priority violation, missing reschedule\000"
 1239      72697479 
 1239      2076696F 
 1239      6C617469 
 1239      6F6E2C20 
 1240 0027 00       		.section	.rodata.__func__.6751,"a",%progbits
 1241              		.align	2
 1242              		.set	.LANCHOR0,. + 0
 1243              		.type	__func__.6751, %object
 1244              		.size	__func__.6751, 12
 1245              	__func__.6751:
 1246 0000 63685379 		.ascii	"chSysUnlock\000"
 1246      73556E6C 
 1246      6F636B00 
 1247              		.text
 1248              	.Letext0:
 1249              		.file 7 "c:\\program files\\gnu tools arm embedded\\4.9 2014q4\\lib\\gcc\\arm-none-eabi\\4.9.3\\in
 1250              		.file 8 "c:\\program files\\gnu tools arm embedded\\4.9 2014q4\\arm-none-eabi\\include\\machine\\_
 1251              		.file 9 "c:\\program files\\gnu tools arm embedded\\4.9 2014q4\\arm-none-eabi\\include\\stdint.h"
 1252              		.file 10 "../../../os/rt/ports/ARMCMx/compilers/GCC/chtypes.h"
 1253              		.file 11 "../../../os/rt/include/chsystypes.h"
 1254              		.file 12 "../../../os/rt/include/chschd.h"
 1255              		.file 13 "../../../os/rt/ports/ARMCMx/chcore.h"
 1256              		.file 14 "../../../os/rt/ports/ARMCMx/chcore_v7m.h"
 1257              		.file 15 "../../../os/hal/ports/STM32/LLD/TIMv1/stm32_tim.h"
 1258              		.file 16 "../../../os/rt/include/chdebug.h"
 1259              		.file 17 "../../../os/rt/include/chtm.h"
 1260              		.file 18 "../../../os/rt/include/chstats.h"
 1261              		.file 19 "../../../os/rt/include/chmtx.h"
 1262              		.file 20 "../../../os/rt/include/chthreads.h"
 1263              		.file 21 "../../../os/rt/include/chmemcore.h"
 1264              		.file 22 "../../../os/rt/include/chheap.h"
 1265              		.file 23 "../../../os/various/lwip_bindings/arch/cc.h"
 1266              		.file 24 "../../../os/ext/lwip-1.4.1/src/include/lwip/err.h"
 1267              		.file 25 "../../../os/various/lwip_bindings/arch/sys_arch.h"
 1268              		.file 26 "../../../os/ext/lwip-1.4.1/src/include/lwip/sys.h"
 1269              		.file 27 "../../../os/ext/lwip-1.4.1/src/include/lwip/stats.h"
 1270              		.file 28 "../../../os/rt/ports/ARMCMx/chcore_timer.h"
 1271              		.file 29 "../../../os/rt/include/chvt.h"
 1272              		.file 30 "../../../os/hal/osal/rt/osal.h"
 1273              		.file 31 "../../../os/ext/CMSIS/include/core_cm4.h"
 1274              		.file 32 "<built-in>"