ARM GAS  C:\Users\jo\AppData\Local\Temp\cc67lm3z.s 			page 1


   1              		.syntax unified
   2              		.cpu cortex-m4
   3              		.fpu softvfp
   4              		.eabi_attribute 20, 1
   5              		.eabi_attribute 21, 1
   6              		.eabi_attribute 23, 3
   7              		.eabi_attribute 24, 1
   8              		.eabi_attribute 25, 1
   9              		.eabi_attribute 26, 1
  10              		.eabi_attribute 30, 2
  11              		.eabi_attribute 34, 1
  12              		.eabi_attribute 18, 4
  13              		.thumb
  14              		.file	"tcp.c"
  15              		.text
  16              	.Ltext0:
  17              		.cfi_sections	.debug_frame
  18              		.section	.text.tcp_accept_null,"ax",%progbits
  19              		.align	2
  20              		.p2align 4,,15
  21              		.thumb
  22              		.thumb_func
  23              		.type	tcp_accept_null, %function
  24              	tcp_accept_null:
  25              	.LFB264:
  26              		.file 1 "../../../os/ext/lwip-1.4.1/src/core/tcp.c"
  27              		.loc 1 495 0
  28              		.cfi_startproc
  29              		@ args = 0, pretend = 0, frame = 0
  30              		@ frame_needed = 0, uses_anonymous_args = 0
  31              		@ link register save eliminated.
  32              	.LVL0:
  33              		.loc 1 501 0
  34 0000 6FF00900 		mvn	r0, #9
  35              	.LVL1:
  36 0004 7047     		bx	lr
  37              		.cfi_endproc
  38              	.LFE264:
  39              		.size	tcp_accept_null, .-tcp_accept_null
  40 0006 00BFAFF3 		.section	.text.tcp_new_port,"ax",%progbits
  40      0080AFF3 
  40      0080
  41              		.align	2
  42              		.p2align 4,,15
  43              		.thumb
  44              		.thumb_func
  45              		.type	tcp_new_port, %function
  46              	tcp_new_port:
  47              	.LFB268:
  48              		.loc 1 648 0
  49              		.cfi_startproc
  50              		@ args = 0, pretend = 0, frame = 0
  51              		@ frame_needed = 0, uses_anonymous_args = 0
  52              		@ link register save eliminated.
  53              	.LVL2:
  54 0000 F0B4     		push	{r4, r5, r6, r7}
  55              		.cfi_def_cfa_offset 16
ARM GAS  C:\Users\jo\AppData\Local\Temp\cc67lm3z.s 			page 2


  56              		.cfi_offset 4, -16
  57              		.cfi_offset 5, -12
  58              		.cfi_offset 6, -8
  59              		.cfi_offset 7, -4
  60 0002 124E     		ldr	r6, .L22
  61 0004 124F     		ldr	r7, .L22+4
  62 0006 3088     		ldrh	r0, [r6]
  63              		.loc 1 648 0
  64 0008 4FF48044 		mov	r4, #16384
  65              		.loc 1 654 0
  66 000c 4FF6FF75 		movw	r5, #65535
  67              	.LVL3:
  68              	.L3:
  69 0010 A842     		cmp	r0, r5
  70 0012 18BF     		it	ne
  71 0014 0130     		addne	r0, r0, #1
  72 0016 0F49     		ldr	r1, .L22+8
  73 0018 14BF     		ite	ne
  74 001a 80B2     		uxthne	r0, r0
  75 001c 4FF44040 		moveq	r0, #49152
  76              	.LVL4:
  77              	.L12:
  78              		.loc 1 659 0
  79 0020 51F8043B 		ldr	r3, [r1], #4
  80 0024 1B68     		ldr	r3, [r3]
  81              	.LVL5:
  82 0026 13B9     		cbnz	r3, .L20
  83 0028 0BE0     		b	.L5
  84              	.L9:
  85              		.loc 1 659 0 is_stmt 0 discriminator 2
  86 002a DB68     		ldr	r3, [r3, #12]
  87              	.LVL6:
  88 002c 4BB1     		cbz	r3, .L5
  89              	.L20:
  90              		.loc 1 660 0 is_stmt 1
  91 002e 5A8B     		ldrh	r2, [r3, #26]
  92 0030 8242     		cmp	r2, r0
  93 0032 FAD1     		bne	.L9
  94              	.LVL7:
  95 0034 013C     		subs	r4, r4, #1
  96              	.LVL8:
  97 0036 A4B2     		uxth	r4, r4
  98              		.loc 1 661 0
  99 0038 002C     		cmp	r4, #0
 100 003a E9D1     		bne	.L3
 101 003c 3080     		strh	r0, [r6]	@ movhi
 102              		.loc 1 662 0
 103 003e 2046     		mov	r0, r4
 104 0040 02E0     		b	.L10
 105              	.LVL9:
 106              	.L5:
 107              		.loc 1 658 0 discriminator 2
 108 0042 B942     		cmp	r1, r7
 109 0044 ECD1     		bne	.L12
 110 0046 3080     		strh	r0, [r6]	@ movhi
 111              	.LVL10:
 112              	.L10:
ARM GAS  C:\Users\jo\AppData\Local\Temp\cc67lm3z.s 			page 3


 113              		.loc 1 669 0
 114 0048 F0BC     		pop	{r4, r5, r6, r7}
 115              		.cfi_restore 7
 116              		.cfi_restore 6
 117              		.cfi_restore 5
 118              		.cfi_restore 4
 119              		.cfi_def_cfa_offset 0
 120 004a 7047     		bx	lr
 121              	.L23:
 122              		.align	2
 123              	.L22:
 124 004c 00000000 		.word	.LANCHOR0
 125 0050 10000000 		.word	.LANCHOR1+16
 126 0054 00000000 		.word	.LANCHOR1
 127              		.cfi_endproc
 128              	.LFE268:
 129              		.size	tcp_new_port, .-tcp_new_port
 130 0058 AFF30080 		.section	.text.chprintf.constprop.4,"ax",%progbits
 130      AFF30080 
 131              		.align	2
 132              		.p2align 4,,15
 133              		.thumb
 134              		.thumb_func
 135              		.type	chprintf.constprop.4, %function
 136              	chprintf.constprop.4:
 137              	.LFB297:
 138              		.file 2 "../../../os/hal/lib/streams/chprintf.h"
 139              		.loc 2 69 0
 140              		.cfi_startproc
 141              		@ args = 4, pretend = 12, frame = 8
 142              		@ frame_needed = 0, uses_anonymous_args = 1
 143              	.LVL11:
 144 0000 0EB4     		push	{r1, r2, r3}
 145              		.cfi_def_cfa_offset 12
 146              		.cfi_offset 1, -12
 147              		.cfi_offset 2, -8
 148              		.cfi_offset 3, -4
 149 0002 00B5     		push	{lr}
 150              		.cfi_def_cfa_offset 16
 151              		.cfi_offset 14, -16
 152 0004 82B0     		sub	sp, sp, #8
 153              		.cfi_def_cfa_offset 24
 154              		.loc 2 73 0
 155 0006 04AB     		add	r3, sp, #16
 156              		.loc 2 74 0
 157 0008 1A46     		mov	r2, r3
 158 000a 0549     		ldr	r1, .L26
 159 000c 0548     		ldr	r0, .L26+4
 160              	.LVL12:
 161              		.loc 2 73 0
 162 000e 0193     		str	r3, [sp, #4]
 163              		.loc 2 74 0
 164 0010 FFF7FEFF 		bl	chvprintf
 165              	.LVL13:
 166              		.loc 2 78 0
 167 0014 02B0     		add	sp, sp, #8
 168              		.cfi_def_cfa_offset 16
ARM GAS  C:\Users\jo\AppData\Local\Temp\cc67lm3z.s 			page 4


 169              		@ sp needed
 170 0016 5DF804EB 		ldr	lr, [sp], #4
 171              		.cfi_restore 14
 172              		.cfi_def_cfa_offset 12
 173 001a 03B0     		add	sp, sp, #12
 174              		.cfi_restore 3
 175              		.cfi_restore 2
 176              		.cfi_restore 1
 177              		.cfi_def_cfa_offset 0
 178 001c 7047     		bx	lr
 179              	.L27:
 180 001e 00BF     		.align	2
 181              	.L26:
 182 0020 00000000 		.word	.LC0
 183 0024 00000000 		.word	itm_port
 184              		.cfi_endproc
 185              	.LFE297:
 186              		.size	chprintf.constprop.4, .-chprintf.constprop.4
 187 0028 AFF30080 		.section	.text.tcp_init,"ax",%progbits
 187      AFF30080 
 188              		.align	2
 189              		.p2align 4,,15
 190              		.global	tcp_init
 191              		.thumb
 192              		.thumb_func
 193              		.type	tcp_init, %function
 194              	tcp_init:
 195              	.LFB256:
 196              		.loc 1 131 0
 197              		.cfi_startproc
 198              		@ args = 0, pretend = 0, frame = 0
 199              		@ frame_needed = 0, uses_anonymous_args = 0
 200              		@ link register save eliminated.
 201 0000 7047     		bx	lr
 202              		.cfi_endproc
 203              	.LFE256:
 204              		.size	tcp_init, .-tcp_init
 205 0002 00BFAFF3 		.section	.text.tcp_bind,"ax",%progbits
 205      0080AFF3 
 205      0080AFF3 
 205      0080
 206              		.align	2
 207              		.p2align 4,,15
 208              		.global	tcp_bind
 209              		.thumb
 210              		.thumb_func
 211              		.type	tcp_bind, %function
 212              	tcp_bind:
 213              	.LFB263:
 214              		.loc 1 434 0
 215              		.cfi_startproc
 216              		@ args = 0, pretend = 0, frame = 0
 217              		@ frame_needed = 0, uses_anonymous_args = 0
 218              	.LVL14:
 219              		.loc 1 434 0
 220 0000 F0B5     		push	{r4, r5, r6, r7, lr}
 221              		.cfi_def_cfa_offset 20
ARM GAS  C:\Users\jo\AppData\Local\Temp\cc67lm3z.s 			page 5


 222              		.cfi_offset 4, -20
 223              		.cfi_offset 5, -16
 224              		.cfi_offset 6, -12
 225              		.cfi_offset 7, -8
 226              		.cfi_offset 14, -4
 227              		.loc 1 439 0
 228 0002 037E     		ldrb	r3, [r0, #24]	@ zero_extendqisi2
 229              		.loc 1 434 0
 230 0004 83B0     		sub	sp, sp, #12
 231              		.cfi_def_cfa_offset 32
 232              		.loc 1 434 0
 233 0006 0646     		mov	r6, r0
 234              		.loc 1 439 0
 235 0008 002B     		cmp	r3, #0
 236 000a 31D1     		bne	.L55
 237 000c 0D46     		mov	r5, r1
 238              		.loc 1 452 0
 239 000e 42B3     		cbz	r2, .L56
 240              	.LVL15:
 241              	.L32:
 242 0010 1E49     		ldr	r1, .L57
 243 0012 01F11007 		add	r7, r1, #16
 244              	.LVL16:
 245              	.L36:
 246              		.loc 1 461 0
 247 0016 51F8043B 		ldr	r3, [r1], #4
 248 001a 1B68     		ldr	r3, [r3]
 249              	.LVL17:
 250 001c 13B9     		cbnz	r3, .L35
 251 001e 0FE0     		b	.L33
 252              	.L34:
 253              		.loc 1 461 0 is_stmt 0 discriminator 2
 254 0020 DB68     		ldr	r3, [r3, #12]
 255              	.LVL18:
 256 0022 6BB1     		cbz	r3, .L33
 257              	.L35:
 258              		.loc 1 462 0 is_stmt 1
 259 0024 5C8B     		ldrh	r4, [r3, #26]
 260 0026 9442     		cmp	r4, r2
 261 0028 FAD1     		bne	.L34
 262              		.loc 1 471 0
 263 002a 1868     		ldr	r0, [r3]
 264 002c 20B1     		cbz	r0, .L42
 265              		.loc 1 471 0 is_stmt 0 discriminator 2
 266 002e 1DB1     		cbz	r5, .L42
 267              		.loc 1 472 0 is_stmt 1
 268 0030 2C68     		ldr	r4, [r5]
 269 0032 0CB1     		cbz	r4, .L42
 270              		.loc 1 472 0 is_stmt 0 discriminator 1
 271 0034 A042     		cmp	r0, r4
 272 0036 F3D1     		bne	.L34
 273              	.L42:
 274              		.loc 1 474 0 is_stmt 1
 275 0038 F820     		movs	r0, #248
 276              	.LVL19:
 277              	.L31:
 278              		.loc 1 488 0
ARM GAS  C:\Users\jo\AppData\Local\Temp\cc67lm3z.s 			page 6


 279 003a 40B2     		sxtb	r0, r0
 280 003c 03B0     		add	sp, sp, #12
 281              		.cfi_remember_state
 282              		.cfi_def_cfa_offset 20
 283              		@ sp needed
 284 003e F0BD     		pop	{r4, r5, r6, r7, pc}
 285              	.LVL20:
 286              	.L33:
 287              		.cfi_restore_state
 288              		.loc 1 460 0 discriminator 2
 289 0040 B942     		cmp	r1, r7
 290 0042 E8D1     		bne	.L36
 291              		.loc 1 481 0
 292 0044 15B1     		cbz	r5, .L37
 293              		.loc 1 481 0 is_stmt 0 discriminator 1
 294 0046 2B68     		ldr	r3, [r5]
 295              	.LVL21:
 296 0048 03B1     		cbz	r3, .L37
 297              		.loc 1 482 0 is_stmt 1
 298 004a 3360     		str	r3, [r6]
 299              	.L37:
 300              		.loc 1 485 0
 301 004c 104B     		ldr	r3, .L57+4
 302              		.loc 1 484 0
 303 004e 7283     		strh	r2, [r6, #26]	@ movhi
 304              		.loc 1 485 0
 305 0050 1A68     		ldr	r2, [r3]
 306              	.LVL22:
 307 0052 F260     		str	r2, [r6, #12]
 308 0054 1E60     		str	r6, [r3]
 309 0056 FFF7FEFF 		bl	tcp_timer_needed
 310              	.LVL23:
 311              		.loc 1 487 0
 312 005a 0020     		movs	r0, #0
 313              		.loc 1 488 0
 314 005c 40B2     		sxtb	r0, r0
 315 005e 03B0     		add	sp, sp, #12
 316              		.cfi_remember_state
 317              		.cfi_def_cfa_offset 20
 318              		@ sp needed
 319 0060 F0BD     		pop	{r4, r5, r6, r7, pc}
 320              	.LVL24:
 321              	.L56:
 322              		.cfi_restore_state
 323              		.loc 1 453 0
 324 0062 FFF7FEFF 		bl	tcp_new_port
 325              	.LVL25:
 326              		.loc 1 454 0
 327 0066 0246     		mov	r2, r0
 328 0068 0028     		cmp	r0, #0
 329 006a D1D1     		bne	.L32
 330              		.loc 1 455 0
 331 006c FE20     		movs	r0, #254
 332              	.LVL26:
 333 006e E4E7     		b	.L31
 334              	.LVL27:
 335              	.L55:
ARM GAS  C:\Users\jo\AppData\Local\Temp\cc67lm3z.s 			page 7


 336              		.loc 1 439 0 discriminator 1
 337 0070 084B     		ldr	r3, .L57+8
 338 0072 0093     		str	r3, [sp]
 339 0074 0849     		ldr	r1, .L57+12
 340              	.LVL28:
 341 0076 094A     		ldr	r2, .L57+16
 342              	.LVL29:
 343 0078 0948     		ldr	r0, .L57+20
 344              	.LVL30:
 345 007a 40F2B713 		movw	r3, #439
 346 007e FFF7FEFF 		bl	chprintf.constprop.4
 347              	.LVL31:
 348              	.LBB94:
 349              	.LBB95:
 350              		.file 3 "../../../os/hal/osal/rt/osal.h"
 351              		.loc 3 414 0 discriminator 1
 352 0082 0648     		ldr	r0, .L57+16
 353 0084 FFF7FEFF 		bl	chSysHalt
 354              	.LVL32:
 355              	.LBE95:
 356              	.LBE94:
 357              		.loc 1 439 0 discriminator 1
 358 0088 FA20     		movs	r0, #250
 359 008a D6E7     		b	.L31
 360              	.L58:
 361              		.align	2
 362              	.L57:
 363 008c 00000000 		.word	.LANCHOR1
 364 0090 00000000 		.word	.LANCHOR2
 365 0094 50000000 		.word	.LC2
 366 0098 00000000 		.word	.LC0
 367 009c 28000000 		.word	.LC1
 368 00a0 00000000 		.word	itm_port
 369              		.cfi_endproc
 370              	.LFE263:
 371              		.size	tcp_bind, .-tcp_bind
 372 00a4 AFF30080 		.section	.text.tcp_listen_with_backlog,"ax",%progbits
 372      AFF30080 
 372      AFF30080 
 373              		.align	2
 374              		.p2align 4,,15
 375              		.global	tcp_listen_with_backlog
 376              		.thumb
 377              		.thumb_func
 378              		.type	tcp_listen_with_backlog, %function
 379              	tcp_listen_with_backlog:
 380              	.LFB265:
 381              		.loc 1 520 0
 382              		.cfi_startproc
 383              		@ args = 0, pretend = 0, frame = 0
 384              		@ frame_needed = 0, uses_anonymous_args = 0
 385              	.LVL33:
 386 0000 F0B5     		push	{r4, r5, r6, r7, lr}
 387              		.cfi_def_cfa_offset 20
 388              		.cfi_offset 4, -20
 389              		.cfi_offset 5, -16
 390              		.cfi_offset 6, -12
ARM GAS  C:\Users\jo\AppData\Local\Temp\cc67lm3z.s 			page 8


 391              		.cfi_offset 7, -8
 392              		.cfi_offset 14, -4
 393              		.loc 1 524 0
 394 0002 037E     		ldrb	r3, [r0, #24]	@ zero_extendqisi2
 395              		.loc 1 520 0
 396 0004 83B0     		sub	sp, sp, #12
 397              		.cfi_def_cfa_offset 32
 398              		.loc 1 520 0
 399 0006 0546     		mov	r5, r0
 400              		.loc 1 524 0
 401 0008 002B     		cmp	r3, #0
 402 000a 45D1     		bne	.L77
 403              		.loc 1 545 0
 404 000c 294B     		ldr	r3, .L81
 405 000e 9888     		ldrh	r0, [r3, #4]
 406              	.LVL34:
 407 0010 FFF7FEFF 		bl	malloc
 408              	.LVL35:
 409              		.loc 1 546 0
 410 0014 0446     		mov	r4, r0
 411 0016 0028     		cmp	r0, #0
 412 0018 34D0     		beq	.L61
 413              		.loc 1 554 0
 414 001a 2B7A     		ldrb	r3, [r5, #8]	@ zero_extendqisi2
 415              		.loc 1 550 0
 416 001c 6A8B     		ldrh	r2, [r5, #26]
 417              		.loc 1 549 0
 418 001e 2E69     		ldr	r6, [r5, #16]
 419              		.loc 1 552 0
 420 0020 95F819E0 		ldrb	lr, [r5, #25]	@ zero_extendqisi2
 421              		.loc 1 555 0
 422 0024 AF7A     		ldrb	r7, [r5, #10]	@ zero_extendqisi2
 423              		.loc 1 556 0
 424 0026 687A     		ldrb	r0, [r5, #9]	@ zero_extendqisi2
 425              	.LVL36:
 426              		.loc 1 557 0
 427 0028 2968     		ldr	r1, [r5]
 428              		.loc 1 550 0
 429 002a 6283     		strh	r2, [r4, #26]	@ movhi
 430              		.loc 1 554 0
 431 002c 43F00203 		orr	r3, r3, #2
 432              		.loc 1 551 0
 433 0030 4FF0010C 		mov	ip, #1
 434              		.loc 1 554 0
 435 0034 2372     		strb	r3, [r4, #8]
 436              		.loc 1 549 0
 437 0036 2661     		str	r6, [r4, #16]
 438              		.loc 1 551 0
 439 0038 84F818C0 		strb	ip, [r4, #24]
 440              		.loc 1 552 0
 441 003c 84F819E0 		strb	lr, [r4, #25]
 442              		.loc 1 555 0
 443 0040 A772     		strb	r7, [r4, #10]
 444              		.loc 1 556 0
 445 0042 6072     		strb	r0, [r4, #9]
 446              		.loc 1 557 0
 447 0044 2160     		str	r1, [r4]
ARM GAS  C:\Users\jo\AppData\Local\Temp\cc67lm3z.s 			page 9


 448              		.loc 1 558 0
 449 0046 8AB1     		cbz	r2, .L62
 450              		.loc 1 559 0
 451 0048 1B4B     		ldr	r3, .L81+4
 452 004a 1A68     		ldr	r2, [r3]
 453 004c AA42     		cmp	r2, r5
 454 004e 20D0     		beq	.L78
 455              		.loc 1 559 0 is_stmt 0 discriminator 2
 456 0050 1A49     		ldr	r1, .L81+8
 457 0052 0A60     		str	r2, [r1]
 458 0054 52B1     		cbz	r2, .L62
 459              		.loc 1 559 0
 460 0056 D368     		ldr	r3, [r2, #12]
 461 0058 AB42     		cmp	r3, r5
 462 005a 17D0     		beq	.L66
 463              		.loc 1 559 0 discriminator 6
 464 005c 2BB1     		cbz	r3, .L79
 465              	.L69:
 466              		.loc 1 559 0 discriminator 9
 467 005e DA68     		ldr	r2, [r3, #12]
 468 0060 AA42     		cmp	r2, r5
 469 0062 11D0     		beq	.L80
 470 0064 1346     		mov	r3, r2
 471              		.loc 1 559 0
 472 0066 002B     		cmp	r3, #0
 473 0068 F9D1     		bne	.L69
 474              	.L79:
 475 006a 0B60     		str	r3, [r1]
 476              	.L62:
 477              		.loc 1 561 0 is_stmt 1
 478 006c 2846     		mov	r0, r5
 479 006e FFF7FEFF 		bl	free
 480              	.LVL37:
 481              		.loc 1 569 0
 482 0072 134B     		ldr	r3, .L81+12
 483              		.loc 1 563 0
 484 0074 134A     		ldr	r2, .L81+16
 485              		.loc 1 569 0
 486 0076 1968     		ldr	r1, [r3]
 487 0078 E160     		str	r1, [r4, #12]
 488              		.loc 1 563 0
 489 007a 6261     		str	r2, [r4, #20]
 490              		.loc 1 569 0
 491 007c 1C60     		str	r4, [r3]
 492 007e FFF7FEFF 		bl	tcp_timer_needed
 493              	.LVL38:
 494              		.loc 1 570 0
 495 0082 2046     		mov	r0, r4
 496              	.LVL39:
 497              	.L61:
 498              		.loc 1 571 0
 499 0084 03B0     		add	sp, sp, #12
 500              		.cfi_remember_state
 501              		.cfi_def_cfa_offset 20
 502              		@ sp needed
 503 0086 F0BD     		pop	{r4, r5, r6, r7, pc}
 504              	.LVL40:
ARM GAS  C:\Users\jo\AppData\Local\Temp\cc67lm3z.s 			page 10


 505              	.L80:
 506              		.cfi_restore_state
 507 0088 1A46     		mov	r2, r3
 508 008a 0B60     		str	r3, [r1]
 509              	.L66:
 510              		.loc 1 559 0 discriminator 5
 511 008c EB68     		ldr	r3, [r5, #12]
 512 008e D360     		str	r3, [r2, #12]
 513 0090 ECE7     		b	.L62
 514              	.L78:
 515              		.loc 1 559 0 is_stmt 0 discriminator 1
 516 0092 EA68     		ldr	r2, [r5, #12]
 517 0094 1A60     		str	r2, [r3]
 518 0096 E9E7     		b	.L62
 519              	.LVL41:
 520              	.L77:
 521              		.loc 1 524 0 is_stmt 1 discriminator 1
 522 0098 0B4B     		ldr	r3, .L81+20
 523 009a 0093     		str	r3, [sp]
 524 009c 0B49     		ldr	r1, .L81+24
 525              	.LVL42:
 526 009e 0C4A     		ldr	r2, .L81+28
 527 00a0 0C48     		ldr	r0, .L81+32
 528              	.LVL43:
 529 00a2 4FF40373 		mov	r3, #524
 530 00a6 FFF7FEFF 		bl	chprintf.constprop.4
 531              	.LVL44:
 532              	.LBB96:
 533              	.LBB97:
 534              		.loc 3 414 0 discriminator 1
 535 00aa 0948     		ldr	r0, .L81+28
 536 00ac FFF7FEFF 		bl	chSysHalt
 537              	.LVL45:
 538              	.LBE97:
 539              	.LBE96:
 540              		.loc 1 524 0 discriminator 1
 541 00b0 0020     		movs	r0, #0
 542 00b2 E7E7     		b	.L61
 543              	.L82:
 544              		.align	2
 545              	.L81:
 546 00b4 00000000 		.word	memp_sizes
 547 00b8 00000000 		.word	.LANCHOR2
 548 00bc 00000000 		.word	.LANCHOR3
 549 00c0 00000000 		.word	.LANCHOR4
 550 00c4 00000000 		.word	tcp_accept_null
 551 00c8 50000000 		.word	.LC2
 552 00cc 00000000 		.word	.LC0
 553 00d0 7C000000 		.word	.LC3
 554 00d4 00000000 		.word	itm_port
 555              		.cfi_endproc
 556              	.LFE265:
 557              		.size	tcp_listen_with_backlog, .-tcp_listen_with_backlog
 558 00d8 AFF30080 		.section	.text.tcp_update_rcv_ann_wnd,"ax",%progbits
 558      AFF30080 
 559              		.align	2
 560              		.p2align 4,,15
ARM GAS  C:\Users\jo\AppData\Local\Temp\cc67lm3z.s 			page 11


 561              		.global	tcp_update_rcv_ann_wnd
 562              		.thumb
 563              		.thumb_func
 564              		.type	tcp_update_rcv_ann_wnd, %function
 565              	tcp_update_rcv_ann_wnd:
 566              	.LFB266:
 567              		.loc 1 580 0
 568              		.cfi_startproc
 569              		@ args = 0, pretend = 0, frame = 0
 570              		@ frame_needed = 0, uses_anonymous_args = 0
 571              	.LVL46:
 572 0000 70B5     		push	{r4, r5, r6, lr}
 573              		.cfi_def_cfa_offset 16
 574              		.cfi_offset 4, -16
 575              		.cfi_offset 5, -12
 576              		.cfi_offset 6, -8
 577              		.cfi_offset 14, -4
 578              		.loc 1 583 0
 579 0002 016B     		ldr	r1, [r0, #48]
 580              		.loc 1 581 0
 581 0004 848D     		ldrh	r4, [r0, #44]
 582              		.loc 1 583 0
 583 0006 C28E     		ldrh	r2, [r0, #54]
 584              		.loc 1 581 0
 585 0008 856A     		ldr	r5, [r0, #40]
 586              	.LVL47:
 587              		.loc 1 583 0
 588 000a 40F66836 		movw	r6, #2920
 589              		.loc 1 580 0
 590 000e 0346     		mov	r3, r0
 591 0010 601A     		subs	r0, r4, r1
 592              	.LVL48:
 593              		.loc 1 583 0
 594 0012 B242     		cmp	r2, r6
 595 0014 2844     		add	r0, r0, r5
 596 0016 94BF     		ite	ls
 597 0018 821A     		subls	r2, r0, r2
 598 001a 821B     		subhi	r2, r0, r6
 599 001c 002A     		cmp	r2, #0
 600              		.loc 1 580 0
 601 001e 82B0     		sub	sp, sp, #8
 602              		.cfi_def_cfa_offset 24
 603              		.loc 1 583 0
 604 0020 02DB     		blt	.L85
 605              		.loc 1 585 0
 606 0022 DC85     		strh	r4, [r3, #46]	@ movhi
 607              		.loc 1 600 0
 608 0024 02B0     		add	sp, sp, #8
 609              		.cfi_remember_state
 610              		.cfi_def_cfa_offset 16
 611              		@ sp needed
 612 0026 70BD     		pop	{r4, r5, r6, pc}
 613              	.LVL49:
 614              	.L85:
 615              		.cfi_restore_state
 616              		.loc 1 588 0
 617 0028 6A1A     		subs	r2, r5, r1
ARM GAS  C:\Users\jo\AppData\Local\Temp\cc67lm3z.s 			page 12


 618 002a 002A     		cmp	r2, #0
 619 002c 03DD     		ble	.L87
 620              		.loc 1 591 0
 621 002e 0020     		movs	r0, #0
 622 0030 D885     		strh	r0, [r3, #46]	@ movhi
 623              		.loc 1 600 0
 624 0032 02B0     		add	sp, sp, #8
 625              		.cfi_remember_state
 626              		.cfi_def_cfa_offset 16
 627              		@ sp needed
 628 0034 70BD     		pop	{r4, r5, r6, pc}
 629              	.LVL50:
 630              	.L87:
 631              		.cfi_restore_state
 632              	.LBB98:
 633              		.loc 1 594 0
 634 0036 4D1B     		subs	r5, r1, r5
 635              	.LVL51:
 636              		.loc 1 595 0
 637 0038 B5F5803F 		cmp	r5, #65536
 638 003c 1C46     		mov	r4, r3
 639              	.LVL52:
 640 003e 03D2     		bcs	.L91
 641              	.LVL53:
 642              	.L88:
 643              	.LBE98:
 644              		.loc 1 598 0
 645 0040 0020     		movs	r0, #0
 646              	.LBB101:
 647              		.loc 1 596 0
 648 0042 E585     		strh	r5, [r4, #46]	@ movhi
 649              	.LBE101:
 650              		.loc 1 600 0
 651 0044 02B0     		add	sp, sp, #8
 652              		.cfi_remember_state
 653              		.cfi_def_cfa_offset 16
 654              		@ sp needed
 655 0046 70BD     		pop	{r4, r5, r6, pc}
 656              	.LVL54:
 657              	.L91:
 658              		.cfi_restore_state
 659              	.LBB102:
 660              		.loc 1 595 0 discriminator 1
 661 0048 064B     		ldr	r3, .L92
 662              	.LVL55:
 663 004a 0093     		str	r3, [sp]
 664              	.LVL56:
 665 004c 0649     		ldr	r1, .L92+4
 666 004e 074A     		ldr	r2, .L92+8
 667 0050 0748     		ldr	r0, .L92+12
 668 0052 40F25323 		movw	r3, #595
 669 0056 FFF7FEFF 		bl	chprintf.constprop.4
 670              	.LVL57:
 671              	.LBB99:
 672              	.LBB100:
 673              		.loc 3 414 0 discriminator 1
 674 005a 0448     		ldr	r0, .L92+8
ARM GAS  C:\Users\jo\AppData\Local\Temp\cc67lm3z.s 			page 13


 675 005c FFF7FEFF 		bl	chSysHalt
 676              	.LVL58:
 677 0060 EEE7     		b	.L88
 678              	.L93:
 679 0062 00BF     		.align	2
 680              	.L92:
 681 0064 50000000 		.word	.LC2
 682 0068 00000000 		.word	.LC0
 683 006c A0000000 		.word	.LC4
 684 0070 00000000 		.word	itm_port
 685              	.LBE100:
 686              	.LBE99:
 687              	.LBE102:
 688              		.cfi_endproc
 689              	.LFE266:
 690              		.size	tcp_update_rcv_ann_wnd, .-tcp_update_rcv_ann_wnd
 691 0074 AFF30080 		.section	.text.tcp_recved,"ax",%progbits
 691      AFF30080 
 691      AFF30080 
 692              		.align	2
 693              		.p2align 4,,15
 694              		.global	tcp_recved
 695              		.thumb
 696              		.thumb_func
 697              		.type	tcp_recved, %function
 698              	tcp_recved:
 699              	.LFB267:
 700              		.loc 1 612 0
 701              		.cfi_startproc
 702              		@ args = 0, pretend = 0, frame = 0
 703              		@ frame_needed = 0, uses_anonymous_args = 0
 704              	.LVL59:
 705 0000 30B5     		push	{r4, r5, lr}
 706              		.cfi_def_cfa_offset 12
 707              		.cfi_offset 4, -12
 708              		.cfi_offset 5, -8
 709              		.cfi_offset 14, -4
 710              		.loc 1 616 0
 711 0002 037E     		ldrb	r3, [r0, #24]	@ zero_extendqisi2
 712 0004 012B     		cmp	r3, #1
 713              		.loc 1 612 0
 714 0006 83B0     		sub	sp, sp, #12
 715              		.cfi_def_cfa_offset 24
 716              		.loc 1 612 0
 717 0008 0546     		mov	r5, r0
 718 000a 0C46     		mov	r4, r1
 719              		.loc 1 616 0
 720 000c 2ED0     		beq	.L101
 721              	.LVL60:
 722              	.L95:
 723              		.loc 1 618 0
 724 000e AA8D     		ldrh	r2, [r5, #44]
 725 0010 C2F57F43 		rsb	r3, r2, #65280
 726 0014 FF33     		adds	r3, r3, #255
 727 0016 9C42     		cmp	r4, r3
 728 0018 1ADC     		bgt	.L102
 729              	.L96:
ARM GAS  C:\Users\jo\AppData\Local\Temp\cc67lm3z.s 			page 14


 730              		.loc 1 621 0
 731 001a 1444     		add	r4, r4, r2
 732              		.loc 1 622 0
 733 001c 41F2D063 		movw	r3, #5840
 734              		.loc 1 621 0
 735 0020 A4B2     		uxth	r4, r4
 736              		.loc 1 622 0
 737 0022 9C42     		cmp	r4, r3
 738              		.loc 1 623 0
 739 0024 8CBF     		ite	hi
 740 0026 AB85     		strhhi	r3, [r5, #44]	@ movhi
 741              		.loc 1 621 0
 742 0028 AC85     		strhls	r4, [r5, #44]	@ movhi
 743              		.loc 1 626 0
 744 002a 2846     		mov	r0, r5
 745 002c FFF7FEFF 		bl	tcp_update_rcv_ann_wnd
 746              	.LVL61:
 747              		.loc 1 632 0
 748 0030 40F2B353 		movw	r3, #1459
 749 0034 9842     		cmp	r0, r3
 750 0036 01DC     		bgt	.L103
 751              		.loc 1 639 0
 752 0038 03B0     		add	sp, sp, #12
 753              		.cfi_remember_state
 754              		.cfi_def_cfa_offset 12
 755              		@ sp needed
 756 003a 30BD     		pop	{r4, r5, pc}
 757              	.LVL62:
 758              	.L103:
 759              		.cfi_restore_state
 760              	.LBB113:
 761              	.LBB114:
 762              		.loc 1 633 0
 763 003c AB7F     		ldrb	r3, [r5, #30]	@ zero_extendqisi2
 764              		.loc 1 634 0
 765 003e 2846     		mov	r0, r5
 766              	.LVL63:
 767              		.loc 1 633 0
 768 0040 43F00203 		orr	r3, r3, #2
 769 0044 AB77     		strb	r3, [r5, #30]
 770              	.LBE114:
 771              	.LBE113:
 772              		.loc 1 639 0
 773 0046 03B0     		add	sp, sp, #12
 774              		.cfi_remember_state
 775              		.cfi_def_cfa_offset 12
 776              		@ sp needed
 777 0048 BDE83040 		pop	{r4, r5, lr}
 778              		.cfi_restore 14
 779              		.cfi_restore 5
 780              		.cfi_restore 4
 781              		.cfi_def_cfa_offset 0
 782              	.LVL64:
 783              	.LBB116:
 784              	.LBB115:
 785              		.loc 1 634 0
 786 004c FFF7FEBF 		b	tcp_output
ARM GAS  C:\Users\jo\AppData\Local\Temp\cc67lm3z.s 			page 15


 787              	.LVL65:
 788              	.L102:
 789              		.cfi_restore_state
 790              	.LBE115:
 791              	.LBE116:
 792              		.loc 1 618 0 discriminator 1
 793 0050 0D4B     		ldr	r3, .L104
 794 0052 0E4A     		ldr	r2, .L104+4
 795 0054 0093     		str	r3, [sp]
 796 0056 0E49     		ldr	r1, .L104+8
 797 0058 0E48     		ldr	r0, .L104+12
 798 005a 40F26B23 		movw	r3, #619
 799 005e FFF7FEFF 		bl	chprintf.constprop.4
 800              	.LVL66:
 801              	.LBB117:
 802              	.LBB118:
 803              		.loc 3 414 0 discriminator 1
 804 0062 0A48     		ldr	r0, .L104+4
 805 0064 FFF7FEFF 		bl	chSysHalt
 806              	.LVL67:
 807 0068 AA8D     		ldrh	r2, [r5, #44]
 808 006a D6E7     		b	.L96
 809              	.LVL68:
 810              	.L101:
 811              	.LBE118:
 812              	.LBE117:
 813              		.loc 1 616 0 discriminator 1
 814 006c 064B     		ldr	r3, .L104
 815 006e 0093     		str	r3, [sp]
 816 0070 0749     		ldr	r1, .L104+8
 817              	.LVL69:
 818 0072 094A     		ldr	r2, .L104+16
 819 0074 0748     		ldr	r0, .L104+12
 820              	.LVL70:
 821 0076 40F26923 		movw	r3, #617
 822 007a FFF7FEFF 		bl	chprintf.constprop.4
 823              	.LVL71:
 824              	.LBB119:
 825              	.LBB120:
 826              		.loc 3 414 0 discriminator 1
 827 007e 0648     		ldr	r0, .L104+16
 828 0080 FFF7FEFF 		bl	chSysHalt
 829              	.LVL72:
 830 0084 C3E7     		b	.L95
 831              	.L105:
 832 0086 00BF     		.align	2
 833              	.L104:
 834 0088 50000000 		.word	.LC2
 835 008c E4000000 		.word	.LC6
 836 0090 00000000 		.word	.LC0
 837 0094 00000000 		.word	itm_port
 838 0098 BC000000 		.word	.LC5
 839              	.LBE120:
 840              	.LBE119:
 841              		.cfi_endproc
 842              	.LFE267:
 843              		.size	tcp_recved, .-tcp_recved
ARM GAS  C:\Users\jo\AppData\Local\Temp\cc67lm3z.s 			page 16


 844 009c AFF30080 		.section	.text.tcp_seg_free,"ax",%progbits
 845              		.align	2
 846              		.p2align 4,,15
 847              		.global	tcp_seg_free
 848              		.thumb
 849              		.thumb_func
 850              		.type	tcp_seg_free, %function
 851              	tcp_seg_free:
 852              	.LFB274:
 853              		.loc 1 1144 0
 854              		.cfi_startproc
 855              		@ args = 0, pretend = 0, frame = 0
 856              		@ frame_needed = 0, uses_anonymous_args = 0
 857              	.LVL73:
 858              		.loc 1 1145 0
 859 0000 50B1     		cbz	r0, .L113
 860              		.loc 1 1144 0
 861 0002 10B5     		push	{r4, lr}
 862              		.cfi_def_cfa_offset 8
 863              		.cfi_offset 4, -8
 864              		.cfi_offset 14, -4
 865 0004 0446     		mov	r4, r0
 866              		.loc 1 1146 0
 867 0006 4068     		ldr	r0, [r0, #4]
 868              	.LVL74:
 869 0008 08B1     		cbz	r0, .L108
 870              		.loc 1 1147 0
 871 000a FFF7FEFF 		bl	pbuf_free
 872              	.LVL75:
 873              	.L108:
 874              		.loc 1 1152 0
 875 000e 2046     		mov	r0, r4
 876              		.loc 1 1154 0
 877 0010 BDE81040 		pop	{r4, lr}
 878              		.cfi_restore 14
 879              		.cfi_restore 4
 880              		.cfi_def_cfa_offset 0
 881              	.LVL76:
 882              		.loc 1 1152 0
 883 0014 FFF7FEBF 		b	free
 884              	.LVL77:
 885              	.L113:
 886 0018 7047     		bx	lr
 887              		.cfi_endproc
 888              	.LFE274:
 889              		.size	tcp_seg_free, .-tcp_seg_free
 890 001a 00BFAFF3 		.section	.text.tcp_segs_free,"ax",%progbits
 890      0080
 891              		.align	2
 892              		.p2align 4,,15
 893              		.global	tcp_segs_free
 894              		.thumb
 895              		.thumb_func
 896              		.type	tcp_segs_free, %function
 897              	tcp_segs_free:
 898              	.LFB273:
 899              		.loc 1 1129 0
ARM GAS  C:\Users\jo\AppData\Local\Temp\cc67lm3z.s 			page 17


 900              		.cfi_startproc
 901              		@ args = 0, pretend = 0, frame = 0
 902              		@ frame_needed = 0, uses_anonymous_args = 0
 903              	.LVL78:
 904              		.loc 1 1130 0
 905 0000 38B1     		cbz	r0, .L120
 906              		.loc 1 1129 0
 907 0002 10B5     		push	{r4, lr}
 908              		.cfi_def_cfa_offset 8
 909              		.cfi_offset 4, -8
 910              		.cfi_offset 14, -4
 911              	.L116:
 912              	.LBB121:
 913              		.loc 1 1131 0
 914 0004 0468     		ldr	r4, [r0]
 915              	.LVL79:
 916              		.loc 1 1132 0
 917 0006 FFF7FEFF 		bl	tcp_seg_free
 918              	.LVL80:
 919              	.LBE121:
 920              		.loc 1 1130 0
 921 000a 2046     		mov	r0, r4
 922 000c 002C     		cmp	r4, #0
 923 000e F9D1     		bne	.L116
 924 0010 10BD     		pop	{r4, pc}
 925              	.LVL81:
 926              	.L120:
 927              		.cfi_def_cfa_offset 0
 928              		.cfi_restore 4
 929              		.cfi_restore 14
 930 0012 7047     		bx	lr
 931              		.cfi_endproc
 932              	.LFE273:
 933              		.size	tcp_segs_free, .-tcp_segs_free
 934 0014 AFF30080 		.section	.text.tcp_setprio,"ax",%progbits
 934      AFF30080 
 934      AFF30080 
 935              		.align	2
 936              		.p2align 4,,15
 937              		.global	tcp_setprio
 938              		.thumb
 939              		.thumb_func
 940              		.type	tcp_setprio, %function
 941              	tcp_setprio:
 942              	.LFB275:
 943              		.loc 1 1164 0
 944              		.cfi_startproc
 945              		@ args = 0, pretend = 0, frame = 0
 946              		@ frame_needed = 0, uses_anonymous_args = 0
 947              		@ link register save eliminated.
 948              	.LVL82:
 949              		.loc 1 1165 0
 950 0000 4176     		strb	r1, [r0, #25]
 951 0002 7047     		bx	lr
 952              		.cfi_endproc
 953              	.LFE275:
 954              		.size	tcp_setprio, .-tcp_setprio
ARM GAS  C:\Users\jo\AppData\Local\Temp\cc67lm3z.s 			page 18


 955 0004 AFF30080 		.section	.text.tcp_seg_copy,"ax",%progbits
 955      AFF30080 
 955      AFF30080 
 956              		.align	2
 957              		.p2align 4,,15
 958              		.global	tcp_seg_copy
 959              		.thumb
 960              		.thumb_func
 961              		.type	tcp_seg_copy, %function
 962              	tcp_seg_copy:
 963              	.LFB276:
 964              		.loc 1 1178 0
 965              		.cfi_startproc
 966              		@ args = 0, pretend = 0, frame = 0
 967              		@ frame_needed = 0, uses_anonymous_args = 0
 968              	.LVL83:
 969              		.loc 1 1181 0
 970 0000 0A4B     		ldr	r3, .L128
 971              		.loc 1 1178 0
 972 0002 70B5     		push	{r4, r5, r6, lr}
 973              		.cfi_def_cfa_offset 16
 974              		.cfi_offset 4, -16
 975              		.cfi_offset 5, -12
 976              		.cfi_offset 6, -8
 977              		.cfi_offset 14, -4
 978              		.loc 1 1178 0
 979 0004 0546     		mov	r5, r0
 980              		.loc 1 1181 0
 981 0006 D888     		ldrh	r0, [r3, #6]
 982              	.LVL84:
 983 0008 FFF7FEFF 		bl	malloc
 984              	.LVL85:
 985              		.loc 1 1182 0
 986 000c 0646     		mov	r6, r0
 987 000e 50B1     		cbz	r0, .L123
 988              		.loc 1 1185 0
 989 0010 2868     		ldr	r0, [r5]	@ unaligned
 990              	.LVL86:
 991 0012 6968     		ldr	r1, [r5, #4]	@ unaligned
 992 0014 AA68     		ldr	r2, [r5, #8]	@ unaligned
 993 0016 EB68     		ldr	r3, [r5, #12]	@ unaligned
 994 0018 3446     		mov	r4, r6
 995 001a 0FC4     		stmia	r4!, {r0, r1, r2, r3}
 996 001c 2869     		ldr	r0, [r5, #16]	@ unaligned
 997 001e 2060     		str	r0, [r4]	@ unaligned
 998              		.loc 1 1186 0
 999 0020 7068     		ldr	r0, [r6, #4]
 1000 0022 FFF7FEFF 		bl	pbuf_ref
 1001              	.LVL87:
 1002              	.L123:
 1003              		.loc 1 1188 0
 1004 0026 3046     		mov	r0, r6
 1005 0028 70BD     		pop	{r4, r5, r6, pc}
 1006              	.LVL88:
 1007              	.L129:
 1008 002a 00BF     		.align	2
 1009              	.L128:
ARM GAS  C:\Users\jo\AppData\Local\Temp\cc67lm3z.s 			page 19


 1010 002c 00000000 		.word	memp_sizes
 1011              		.cfi_endproc
 1012              	.LFE276:
 1013              		.size	tcp_seg_copy, .-tcp_seg_copy
 1014              		.section	.text.tcp_arg,"ax",%progbits
 1015              		.align	2
 1016              		.p2align 4,,15
 1017              		.global	tcp_arg
 1018              		.thumb
 1019              		.thumb_func
 1020              		.type	tcp_arg, %function
 1021              	tcp_arg:
 1022              	.LFB282:
 1023              		.loc 1 1377 0
 1024              		.cfi_startproc
 1025              		@ args = 0, pretend = 0, frame = 0
 1026              		@ frame_needed = 0, uses_anonymous_args = 0
 1027              		@ link register save eliminated.
 1028              	.LVL89:
 1029              		.loc 1 1380 0
 1030 0000 0161     		str	r1, [r0, #16]
 1031 0002 7047     		bx	lr
 1032              		.cfi_endproc
 1033              	.LFE282:
 1034              		.size	tcp_arg, .-tcp_arg
 1035 0004 AFF30080 		.section	.text.tcp_recv,"ax",%progbits
 1035      AFF30080 
 1035      AFF30080 
 1036              		.align	2
 1037              		.p2align 4,,15
 1038              		.global	tcp_recv
 1039              		.thumb
 1040              		.thumb_func
 1041              		.type	tcp_recv, %function
 1042              	tcp_recv:
 1043              	.LFB283:
 1044              		.loc 1 1393 0
 1045              		.cfi_startproc
 1046              		@ args = 0, pretend = 0, frame = 0
 1047              		@ frame_needed = 0, uses_anonymous_args = 0
 1048              	.LVL90:
 1049 0000 30B5     		push	{r4, r5, lr}
 1050              		.cfi_def_cfa_offset 12
 1051              		.cfi_offset 4, -12
 1052              		.cfi_offset 5, -8
 1053              		.cfi_offset 14, -4
 1054              		.loc 1 1394 0
 1055 0002 037E     		ldrb	r3, [r0, #24]	@ zero_extendqisi2
 1056 0004 012B     		cmp	r3, #1
 1057              		.loc 1 1393 0
 1058 0006 83B0     		sub	sp, sp, #12
 1059              		.cfi_def_cfa_offset 24
 1060              		.loc 1 1393 0
 1061 0008 0446     		mov	r4, r0
 1062 000a 0D46     		mov	r5, r1
 1063              		.loc 1 1394 0
 1064 000c 03D0     		beq	.L134
ARM GAS  C:\Users\jo\AppData\Local\Temp\cc67lm3z.s 			page 20


 1065              		.loc 1 1395 0
 1066 000e C4F88050 		str	r5, [r4, #128]
 1067              		.loc 1 1396 0
 1068 0012 03B0     		add	sp, sp, #12
 1069              		.cfi_remember_state
 1070              		.cfi_def_cfa_offset 12
 1071              		@ sp needed
 1072 0014 30BD     		pop	{r4, r5, pc}
 1073              	.L134:
 1074              		.cfi_restore_state
 1075              		.loc 1 1394 0 discriminator 1
 1076 0016 084B     		ldr	r3, .L135
 1077 0018 0093     		str	r3, [sp]
 1078 001a 0849     		ldr	r1, .L135+4
 1079              	.LVL91:
 1080 001c 084A     		ldr	r2, .L135+8
 1081 001e 0948     		ldr	r0, .L135+12
 1082              	.LVL92:
 1083 0020 40F27253 		movw	r3, #1394
 1084 0024 FFF7FEFF 		bl	chprintf.constprop.4
 1085              	.LVL93:
 1086              	.LBB122:
 1087              	.LBB123:
 1088              		.loc 3 414 0 discriminator 1
 1089 0028 0548     		ldr	r0, .L135+8
 1090 002a FFF7FEFF 		bl	chSysHalt
 1091              	.LVL94:
 1092              	.LBE123:
 1093              	.LBE122:
 1094              		.loc 1 1395 0 discriminator 1
 1095 002e C4F88050 		str	r5, [r4, #128]
 1096              		.loc 1 1396 0 discriminator 1
 1097 0032 03B0     		add	sp, sp, #12
 1098              		.cfi_def_cfa_offset 12
 1099              		@ sp needed
 1100 0034 30BD     		pop	{r4, r5, pc}
 1101              	.LVL95:
 1102              	.L136:
 1103 0036 00BF     		.align	2
 1104              	.L135:
 1105 0038 50000000 		.word	.LC2
 1106 003c 00000000 		.word	.LC0
 1107 0040 08010000 		.word	.LC7
 1108 0044 00000000 		.word	itm_port
 1109              		.cfi_endproc
 1110              	.LFE283:
 1111              		.size	tcp_recv, .-tcp_recv
 1112 0048 AFF30080 		.section	.text.tcp_sent,"ax",%progbits
 1112      AFF30080 
 1113              		.align	2
 1114              		.p2align 4,,15
 1115              		.global	tcp_sent
 1116              		.thumb
 1117              		.thumb_func
 1118              		.type	tcp_sent, %function
 1119              	tcp_sent:
 1120              	.LFB284:
ARM GAS  C:\Users\jo\AppData\Local\Temp\cc67lm3z.s 			page 21


 1121              		.loc 1 1407 0
 1122              		.cfi_startproc
 1123              		@ args = 0, pretend = 0, frame = 0
 1124              		@ frame_needed = 0, uses_anonymous_args = 0
 1125              	.LVL96:
 1126 0000 30B5     		push	{r4, r5, lr}
 1127              		.cfi_def_cfa_offset 12
 1128              		.cfi_offset 4, -12
 1129              		.cfi_offset 5, -8
 1130              		.cfi_offset 14, -4
 1131              		.loc 1 1408 0
 1132 0002 037E     		ldrb	r3, [r0, #24]	@ zero_extendqisi2
 1133 0004 012B     		cmp	r3, #1
 1134              		.loc 1 1407 0
 1135 0006 83B0     		sub	sp, sp, #12
 1136              		.cfi_def_cfa_offset 24
 1137              		.loc 1 1407 0
 1138 0008 0446     		mov	r4, r0
 1139 000a 0D46     		mov	r5, r1
 1140              		.loc 1 1408 0
 1141 000c 02D0     		beq	.L140
 1142              		.loc 1 1409 0
 1143 000e E567     		str	r5, [r4, #124]
 1144              		.loc 1 1410 0
 1145 0010 03B0     		add	sp, sp, #12
 1146              		.cfi_remember_state
 1147              		.cfi_def_cfa_offset 12
 1148              		@ sp needed
 1149 0012 30BD     		pop	{r4, r5, pc}
 1150              	.L140:
 1151              		.cfi_restore_state
 1152              		.loc 1 1408 0 discriminator 1
 1153 0014 074B     		ldr	r3, .L141
 1154 0016 0093     		str	r3, [sp]
 1155 0018 0749     		ldr	r1, .L141+4
 1156              	.LVL97:
 1157 001a 084A     		ldr	r2, .L141+8
 1158 001c 0848     		ldr	r0, .L141+12
 1159              	.LVL98:
 1160 001e 4FF4B063 		mov	r3, #1408
 1161 0022 FFF7FEFF 		bl	chprintf.constprop.4
 1162              	.LVL99:
 1163              	.LBB124:
 1164              	.LBB125:
 1165              		.loc 3 414 0 discriminator 1
 1166 0026 0548     		ldr	r0, .L141+8
 1167 0028 FFF7FEFF 		bl	chSysHalt
 1168              	.LVL100:
 1169              	.LBE125:
 1170              	.LBE124:
 1171              		.loc 1 1409 0 discriminator 1
 1172 002c E567     		str	r5, [r4, #124]
 1173              		.loc 1 1410 0 discriminator 1
 1174 002e 03B0     		add	sp, sp, #12
 1175              		.cfi_def_cfa_offset 12
 1176              		@ sp needed
 1177 0030 30BD     		pop	{r4, r5, pc}
ARM GAS  C:\Users\jo\AppData\Local\Temp\cc67lm3z.s 			page 22


 1178              	.LVL101:
 1179              	.L142:
 1180 0032 00BF     		.align	2
 1181              	.L141:
 1182 0034 50000000 		.word	.LC2
 1183 0038 00000000 		.word	.LC0
 1184 003c 30010000 		.word	.LC8
 1185 0040 00000000 		.word	itm_port
 1186              		.cfi_endproc
 1187              	.LFE284:
 1188              		.size	tcp_sent, .-tcp_sent
 1189 0044 AFF30080 		.section	.text.tcp_err,"ax",%progbits
 1189      AFF30080 
 1189      AFF30080 
 1190              		.align	2
 1191              		.p2align 4,,15
 1192              		.global	tcp_err
 1193              		.thumb
 1194              		.thumb_func
 1195              		.type	tcp_err, %function
 1196              	tcp_err:
 1197              	.LFB285:
 1198              		.loc 1 1422 0
 1199              		.cfi_startproc
 1200              		@ args = 0, pretend = 0, frame = 0
 1201              		@ frame_needed = 0, uses_anonymous_args = 0
 1202              	.LVL102:
 1203 0000 30B5     		push	{r4, r5, lr}
 1204              		.cfi_def_cfa_offset 12
 1205              		.cfi_offset 4, -12
 1206              		.cfi_offset 5, -8
 1207              		.cfi_offset 14, -4
 1208              		.loc 1 1423 0
 1209 0002 037E     		ldrb	r3, [r0, #24]	@ zero_extendqisi2
 1210 0004 012B     		cmp	r3, #1
 1211              		.loc 1 1422 0
 1212 0006 83B0     		sub	sp, sp, #12
 1213              		.cfi_def_cfa_offset 24
 1214              		.loc 1 1422 0
 1215 0008 0446     		mov	r4, r0
 1216 000a 0D46     		mov	r5, r1
 1217              		.loc 1 1423 0
 1218 000c 03D0     		beq	.L146
 1219              		.loc 1 1424 0
 1220 000e C4F88C50 		str	r5, [r4, #140]
 1221              		.loc 1 1425 0
 1222 0012 03B0     		add	sp, sp, #12
 1223              		.cfi_remember_state
 1224              		.cfi_def_cfa_offset 12
 1225              		@ sp needed
 1226 0014 30BD     		pop	{r4, r5, pc}
 1227              	.L146:
 1228              		.cfi_restore_state
 1229              		.loc 1 1423 0 discriminator 1
 1230 0016 084B     		ldr	r3, .L147
 1231 0018 0093     		str	r3, [sp]
 1232 001a 0849     		ldr	r1, .L147+4
ARM GAS  C:\Users\jo\AppData\Local\Temp\cc67lm3z.s 			page 23


 1233              	.LVL103:
 1234 001c 084A     		ldr	r2, .L147+8
 1235 001e 0948     		ldr	r0, .L147+12
 1236              	.LVL104:
 1237 0020 40F28F53 		movw	r3, #1423
 1238 0024 FFF7FEFF 		bl	chprintf.constprop.4
 1239              	.LVL105:
 1240              	.LBB126:
 1241              	.LBB127:
 1242              		.loc 3 414 0 discriminator 1
 1243 0028 0548     		ldr	r0, .L147+8
 1244 002a FFF7FEFF 		bl	chSysHalt
 1245              	.LVL106:
 1246              	.LBE127:
 1247              	.LBE126:
 1248              		.loc 1 1424 0 discriminator 1
 1249 002e C4F88C50 		str	r5, [r4, #140]
 1250              		.loc 1 1425 0 discriminator 1
 1251 0032 03B0     		add	sp, sp, #12
 1252              		.cfi_def_cfa_offset 12
 1253              		@ sp needed
 1254 0034 30BD     		pop	{r4, r5, pc}
 1255              	.LVL107:
 1256              	.L148:
 1257 0036 00BF     		.align	2
 1258              	.L147:
 1259 0038 50000000 		.word	.LC2
 1260 003c 00000000 		.word	.LC0
 1261 0040 58010000 		.word	.LC9
 1262 0044 00000000 		.word	itm_port
 1263              		.cfi_endproc
 1264              	.LFE285:
 1265              		.size	tcp_err, .-tcp_err
 1266 0048 AFF30080 		.section	.text.tcp_accept,"ax",%progbits
 1266      AFF30080 
 1267              		.align	2
 1268              		.p2align 4,,15
 1269              		.global	tcp_accept
 1270              		.thumb
 1271              		.thumb_func
 1272              		.type	tcp_accept, %function
 1273              	tcp_accept:
 1274              	.LFB286:
 1275              		.loc 1 1437 0
 1276              		.cfi_startproc
 1277              		@ args = 0, pretend = 0, frame = 0
 1278              		@ frame_needed = 0, uses_anonymous_args = 0
 1279              		@ link register save eliminated.
 1280              	.LVL108:
 1281              		.loc 1 1440 0
 1282 0000 4161     		str	r1, [r0, #20]
 1283 0002 7047     		bx	lr
 1284              		.cfi_endproc
 1285              	.LFE286:
 1286              		.size	tcp_accept, .-tcp_accept
 1287 0004 AFF30080 		.section	.text.tcp_poll,"ax",%progbits
 1287      AFF30080 
ARM GAS  C:\Users\jo\AppData\Local\Temp\cc67lm3z.s 			page 24


 1287      AFF30080 
 1288              		.align	2
 1289              		.p2align 4,,15
 1290              		.global	tcp_poll
 1291              		.thumb
 1292              		.thumb_func
 1293              		.type	tcp_poll, %function
 1294              	tcp_poll:
 1295              	.LFB287:
 1296              		.loc 1 1453 0
 1297              		.cfi_startproc
 1298              		@ args = 0, pretend = 0, frame = 0
 1299              		@ frame_needed = 0, uses_anonymous_args = 0
 1300              	.LVL109:
 1301 0000 70B5     		push	{r4, r5, r6, lr}
 1302              		.cfi_def_cfa_offset 16
 1303              		.cfi_offset 4, -16
 1304              		.cfi_offset 5, -12
 1305              		.cfi_offset 6, -8
 1306              		.cfi_offset 14, -4
 1307              		.loc 1 1454 0
 1308 0002 037E     		ldrb	r3, [r0, #24]	@ zero_extendqisi2
 1309 0004 012B     		cmp	r3, #1
 1310              		.loc 1 1453 0
 1311 0006 82B0     		sub	sp, sp, #8
 1312              		.cfi_def_cfa_offset 24
 1313              		.loc 1 1453 0
 1314 0008 0446     		mov	r4, r0
 1315 000a 0E46     		mov	r6, r1
 1316 000c 1546     		mov	r5, r2
 1317              		.loc 1 1454 0
 1318 000e 05D0     		beq	.L153
 1319              		.loc 1 1456 0
 1320 0010 C4F88860 		str	r6, [r4, #136]
 1321              		.loc 1 1460 0
 1322 0014 84F82050 		strb	r5, [r4, #32]
 1323              		.loc 1 1461 0
 1324 0018 02B0     		add	sp, sp, #8
 1325              		.cfi_remember_state
 1326              		.cfi_def_cfa_offset 16
 1327              		@ sp needed
 1328 001a 70BD     		pop	{r4, r5, r6, pc}
 1329              	.L153:
 1330              		.cfi_restore_state
 1331              		.loc 1 1454 0 discriminator 1
 1332 001c 084B     		ldr	r3, .L154
 1333 001e 0093     		str	r3, [sp]
 1334 0020 0849     		ldr	r1, .L154+4
 1335              	.LVL110:
 1336 0022 094A     		ldr	r2, .L154+8
 1337              	.LVL111:
 1338 0024 0948     		ldr	r0, .L154+12
 1339              	.LVL112:
 1340 0026 40F2AE53 		movw	r3, #1454
 1341 002a FFF7FEFF 		bl	chprintf.constprop.4
 1342              	.LVL113:
 1343              	.LBB128:
ARM GAS  C:\Users\jo\AppData\Local\Temp\cc67lm3z.s 			page 25


 1344              	.LBB129:
 1345              		.loc 3 414 0 discriminator 1
 1346 002e 0648     		ldr	r0, .L154+8
 1347 0030 FFF7FEFF 		bl	chSysHalt
 1348              	.LVL114:
 1349              	.LBE129:
 1350              	.LBE128:
 1351              		.loc 1 1456 0 discriminator 1
 1352 0034 C4F88860 		str	r6, [r4, #136]
 1353              		.loc 1 1460 0 discriminator 1
 1354 0038 84F82050 		strb	r5, [r4, #32]
 1355              		.loc 1 1461 0 discriminator 1
 1356 003c 02B0     		add	sp, sp, #8
 1357              		.cfi_def_cfa_offset 16
 1358              		@ sp needed
 1359 003e 70BD     		pop	{r4, r5, r6, pc}
 1360              	.LVL115:
 1361              	.L155:
 1362              		.align	2
 1363              	.L154:
 1364 0040 50000000 		.word	.LC2
 1365 0044 00000000 		.word	.LC0
 1366 0048 80010000 		.word	.LC10
 1367 004c 00000000 		.word	itm_port
 1368              		.cfi_endproc
 1369              	.LFE287:
 1370              		.size	tcp_poll, .-tcp_poll
 1371              		.section	.text.tcp_pcb_purge,"ax",%progbits
 1372              		.align	2
 1373              		.p2align 4,,15
 1374              		.global	tcp_pcb_purge
 1375              		.thumb
 1376              		.thumb_func
 1377              		.type	tcp_pcb_purge, %function
 1378              	tcp_pcb_purge:
 1379              	.LFB288:
 1380              		.loc 1 1471 0
 1381              		.cfi_startproc
 1382              		@ args = 0, pretend = 0, frame = 0
 1383              		@ frame_needed = 0, uses_anonymous_args = 0
 1384              	.LVL116:
 1385 0000 38B5     		push	{r3, r4, r5, lr}
 1386              		.cfi_def_cfa_offset 16
 1387              		.cfi_offset 3, -16
 1388              		.cfi_offset 4, -12
 1389              		.cfi_offset 5, -8
 1390              		.cfi_offset 14, -4
 1391              		.loc 1 1472 0
 1392 0002 037E     		ldrb	r3, [r0, #24]	@ zero_extendqisi2
 1393 0004 012B     		cmp	r3, #1
 1394 0006 2BD9     		bls	.L156
 1395              		.loc 1 1472 0 is_stmt 0 discriminator 1
 1396 0008 0A2B     		cmp	r3, #10
 1397 000a 29D0     		beq	.L156
 1398              	.LVL117:
 1399 000c 0546     		mov	r5, r0
 1400              	.LBB141:
ARM GAS  C:\Users\jo\AppData\Local\Temp\cc67lm3z.s 			page 26


 1401              	.LBB142:
 1402              		.loc 1 1499 0 is_stmt 1
 1403 000e 806F     		ldr	r0, [r0, #120]
 1404              	.LVL118:
 1405 0010 18B1     		cbz	r0, .L158
 1406              		.loc 1 1501 0
 1407 0012 FFF7FEFF 		bl	pbuf_free
 1408              	.LVL119:
 1409              		.loc 1 1502 0
 1410 0016 0023     		movs	r3, #0
 1411 0018 AB67     		str	r3, [r5, #120]
 1412              	.L158:
 1413              		.loc 1 1514 0
 1414 001a 686F     		ldr	r0, [r5, #116]
 1415              	.LVL120:
 1416              	.LBB143:
 1417              	.LBB144:
 1418              		.loc 1 1130 0
 1419 001c 28B1     		cbz	r0, .L163
 1420              	.L162:
 1421              	.LBB145:
 1422              		.loc 1 1131 0
 1423 001e 0468     		ldr	r4, [r0]
 1424              	.LVL121:
 1425              		.loc 1 1132 0
 1426 0020 FFF7FEFF 		bl	tcp_seg_free
 1427              	.LVL122:
 1428              	.LBE145:
 1429              		.loc 1 1130 0
 1430 0024 2046     		mov	r0, r4
 1431 0026 002C     		cmp	r4, #0
 1432 0028 F9D1     		bne	.L162
 1433              	.LVL123:
 1434              	.L163:
 1435              	.LBE144:
 1436              	.LBE143:
 1437              		.loc 1 1522 0
 1438 002a E86E     		ldr	r0, [r5, #108]
 1439              	.LVL124:
 1440              		.loc 1 1515 0
 1441 002c 0022     		movs	r2, #0
 1442              		.loc 1 1520 0
 1443 002e 4FF6FF73 		movw	r3, #65535
 1444              		.loc 1 1515 0
 1445 0032 6A67     		str	r2, [r5, #116]
 1446              		.loc 1 1520 0
 1447 0034 AB86     		strh	r3, [r5, #52]	@ movhi
 1448              	.LBB146:
 1449              	.LBB147:
 1450              		.loc 1 1130 0
 1451 0036 28B1     		cbz	r0, .L161
 1452              	.L166:
 1453              	.LBB148:
 1454              		.loc 1 1131 0
 1455 0038 0468     		ldr	r4, [r0]
 1456              	.LVL125:
 1457              		.loc 1 1132 0
ARM GAS  C:\Users\jo\AppData\Local\Temp\cc67lm3z.s 			page 27


 1458 003a FFF7FEFF 		bl	tcp_seg_free
 1459              	.LVL126:
 1460              	.LBE148:
 1461              		.loc 1 1130 0
 1462 003e 2046     		mov	r0, r4
 1463 0040 002C     		cmp	r4, #0
 1464 0042 F9D1     		bne	.L166
 1465              	.LVL127:
 1466              	.L161:
 1467              	.LBE147:
 1468              	.LBE146:
 1469              		.loc 1 1523 0
 1470 0044 286F     		ldr	r0, [r5, #112]
 1471              	.LVL128:
 1472              	.LBB149:
 1473              	.LBB150:
 1474              		.loc 1 1130 0
 1475 0046 28B1     		cbz	r0, .L165
 1476              	.L167:
 1477              	.LBB151:
 1478              		.loc 1 1131 0
 1479 0048 0468     		ldr	r4, [r0]
 1480              	.LVL129:
 1481              		.loc 1 1132 0
 1482 004a FFF7FEFF 		bl	tcp_seg_free
 1483              	.LVL130:
 1484              	.LBE151:
 1485              		.loc 1 1130 0
 1486 004e 2046     		mov	r0, r4
 1487 0050 002C     		cmp	r4, #0
 1488 0052 F9D1     		bne	.L167
 1489              	.LVL131:
 1490              	.L165:
 1491              	.LBE150:
 1492              	.LBE149:
 1493              		.loc 1 1524 0
 1494 0054 0023     		movs	r3, #0
 1495 0056 EB66     		str	r3, [r5, #108]
 1496 0058 2B67     		str	r3, [r5, #112]
 1497              		.loc 1 1526 0
 1498 005a A5F86A30 		strh	r3, [r5, #106]	@ movhi
 1499 005e 38BD     		pop	{r3, r4, r5, pc}
 1500              	.LVL132:
 1501              	.L156:
 1502 0060 38BD     		pop	{r3, r4, r5, pc}
 1503              	.LBE142:
 1504              	.LBE141:
 1505              		.cfi_endproc
 1506              	.LFE288:
 1507              		.size	tcp_pcb_purge, .-tcp_pcb_purge
 1508 0062 00BFAFF3 		.section	.text.tcp_slowtmr,"ax",%progbits
 1508      0080AFF3 
 1508      0080AFF3 
 1508      0080
 1509              		.align	2
 1510              		.p2align 4,,15
 1511              		.global	tcp_slowtmr
ARM GAS  C:\Users\jo\AppData\Local\Temp\cc67lm3z.s 			page 28


 1512              		.thumb
 1513              		.thumb_func
 1514              		.type	tcp_slowtmr, %function
 1515              	tcp_slowtmr:
 1516              	.LFB270:
 1517              		.loc 1 789 0
 1518              		.cfi_startproc
 1519              		@ args = 0, pretend = 0, frame = 8
 1520              		@ frame_needed = 0, uses_anonymous_args = 0
 1521              	.LVL133:
 1522 0000 2DE9F04F 		push	{r4, r5, r6, r7, r8, r9, r10, fp, lr}
 1523              		.cfi_def_cfa_offset 36
 1524              		.cfi_offset 4, -36
 1525              		.cfi_offset 5, -32
 1526              		.cfi_offset 6, -28
 1527              		.cfi_offset 7, -24
 1528              		.cfi_offset 8, -20
 1529              		.cfi_offset 9, -16
 1530              		.cfi_offset 10, -12
 1531              		.cfi_offset 11, -8
 1532              		.cfi_offset 14, -4
 1533              		.loc 1 798 0
 1534 0004 B14C     		ldr	r4, .L285
 1535              		.loc 1 799 0
 1536 0006 B24D     		ldr	r5, .L285+4
 1537              		.loc 1 798 0
 1538 0008 2268     		ldr	r2, [r4]
 1539              		.loc 1 799 0
 1540 000a 2B78     		ldrb	r3, [r5]	@ zero_extendqisi2
 1541 000c DFF8E8B2 		ldr	fp, .L285+44
 1542              		.loc 1 798 0
 1543 0010 0132     		adds	r2, r2, #1
 1544              		.loc 1 799 0
 1545 0012 0133     		adds	r3, r3, #1
 1546              		.loc 1 789 0
 1547 0014 85B0     		sub	sp, sp, #20
 1548              		.cfi_def_cfa_offset 56
 1549              		.loc 1 798 0
 1550 0016 2260     		str	r2, [r4]
 1551              		.loc 1 799 0
 1552 0018 2B70     		strb	r3, [r5]
 1553              	.LVL134:
 1554              	.L179:
 1555              		.loc 1 804 0
 1556 001a DBF80070 		ldr	r7, [fp]
 1557              	.LVL135:
 1558              		.loc 1 808 0
 1559 001e 002F     		cmp	r7, #0
 1560 0020 00F08580 		beq	.L217
 1561 0024 0026     		movs	r6, #0
 1562              	.LVL136:
 1563              	.L216:
 1564              		.loc 1 810 0
 1565 0026 3B7E     		ldrb	r3, [r7, #24]	@ zero_extendqisi2
 1566 0028 002B     		cmp	r3, #0
 1567 002a 00F00481 		beq	.L272
 1568              		.loc 1 811 0
ARM GAS  C:\Users\jo\AppData\Local\Temp\cc67lm3z.s 			page 29


 1569 002e 012B     		cmp	r3, #1
 1570 0030 00F01181 		beq	.L273
 1571              	.L184:
 1572              		.loc 1 812 0
 1573 0034 0A2B     		cmp	r3, #10
 1574 0036 00F01E81 		beq	.L274
 1575              	.L185:
 1576              		.loc 1 813 0
 1577 003a 2B78     		ldrb	r3, [r5]	@ zero_extendqisi2
 1578 003c 97F82120 		ldrb	r2, [r7, #33]	@ zero_extendqisi2
 1579 0040 9A42     		cmp	r2, r3
 1580 0042 00F02A81 		beq	.L275
 1581              	.L186:
 1582              		.loc 1 823 0
 1583 0046 3A7E     		ldrb	r2, [r7, #24]	@ zero_extendqisi2
 1584              		.loc 1 818 0
 1585 0048 87F82130 		strb	r3, [r7, #33]
 1586              	.LVL137:
 1587              		.loc 1 823 0
 1588 004c 022A     		cmp	r2, #2
 1589 004e 97F84630 		ldrb	r3, [r7, #70]	@ zero_extendqisi2
 1590 0052 00F08B81 		beq	.L276
 1591              		.loc 1 827 0
 1592 0056 0C2B     		cmp	r3, #12
 1593 0058 00F09281 		beq	.L230
 1594              	.L228:
 1595              		.loc 1 831 0
 1596 005c 97F89510 		ldrb	r1, [r7, #149]	@ zero_extendqisi2
 1597 0060 0029     		cmp	r1, #0
 1598 0062 00F04D81 		beq	.L192
 1599              		.loc 1 835 0
 1600 0066 9B48     		ldr	r0, .L285+8
 1601              		.loc 1 834 0
 1602 0068 97F89430 		ldrb	r3, [r7, #148]	@ zero_extendqisi2
 1603              		.loc 1 835 0
 1604 006c 0844     		add	r0, r0, r1
 1605              		.loc 1 834 0
 1606 006e 0133     		adds	r3, r3, #1
 1607              		.loc 1 835 0
 1608 0070 10F8010C 		ldrb	r0, [r0, #-1]	@ zero_extendqisi2
 1609              		.loc 1 834 0
 1610 0074 DBB2     		uxtb	r3, r3
 1611              		.loc 1 835 0
 1612 0076 9842     		cmp	r0, r3
 1613              		.loc 1 834 0
 1614 0078 87F89430 		strb	r3, [r7, #148]
 1615              		.loc 1 835 0
 1616 007c 00F21281 		bhi	.L233
 1617              		.loc 1 837 0
 1618 0080 0629     		cmp	r1, #6
 1619              		.loc 1 836 0
 1620 0082 4FF00003 		mov	r3, #0
 1621              		.loc 1 838 0
 1622 0086 98BF     		it	ls
 1623 0088 0131     		addls	r1, r1, #1
 1624              		.loc 1 836 0
 1625 008a 87F89430 		strb	r3, [r7, #148]
ARM GAS  C:\Users\jo\AppData\Local\Temp\cc67lm3z.s 			page 30


 1626              		.loc 1 838 0
 1627 008e 98BF     		it	ls
 1628 0090 87F89510 		strbls	r1, [r7, #149]
 1629              		.loc 1 840 0
 1630 0094 3846     		mov	r0, r7
 1631 0096 FFF7FEFF 		bl	tcp_zero_window_probe
 1632              	.LVL138:
 1633 009a 3A7E     		ldrb	r2, [r7, #24]	@ zero_extendqisi2
 1634              		.loc 1 820 0
 1635 009c 4FF00008 		mov	r8, #0
 1636              	.L191:
 1637              	.LVL139:
 1638              		.loc 1 881 0
 1639 00a0 062A     		cmp	r2, #6
 1640 00a2 00F00481 		beq	.L277
 1641              	.L197:
 1642              		.loc 1 895 0
 1643 00a6 3B7A     		ldrb	r3, [r7, #8]	@ zero_extendqisi2
 1644 00a8 03F00803 		and	r3, r3, #8
 1645 00ac 03F0FF09 		and	r9, r3, #255
 1646 00b0 3BB1     		cbz	r3, .L189
 1647              		.loc 1 895 0 is_stmt 0 discriminator 1
 1648 00b2 042A     		cmp	r2, #4
 1649 00b4 00F06781 		beq	.L199
 1650              		.loc 1 896 0 is_stmt 1
 1651 00b8 072A     		cmp	r2, #7
 1652 00ba 00F06481 		beq	.L199
 1653              	.L198:
 1654              		.loc 1 821 0
 1655 00be 4FF00009 		mov	r9, #0
 1656              	.LVL140:
 1657              	.L189:
 1658              		.loc 1 921 0
 1659 00c2 786F     		ldr	r0, [r7, #116]
 1660 00c4 48B1     		cbz	r0, .L201
 1661              		.loc 1 922 0 discriminator 1
 1662 00c6 2268     		ldr	r2, [r4]
 1663 00c8 796A     		ldr	r1, [r7, #36]
 1664 00ca B7F94430 		ldrsh	r3, [r7, #68]
 1665 00ce 521A     		subs	r2, r2, r1
 1666 00d0 03EB4303 		add	r3, r3, r3, lsl #1
 1667              		.loc 1 921 0 discriminator 1
 1668 00d4 B2EB430F 		cmp	r2, r3, lsl #1
 1669 00d8 5CD2     		bcs	.L202
 1670              	.L201:
 1671              		.loc 1 930 0
 1672 00da 3B7E     		ldrb	r3, [r7, #24]	@ zero_extendqisi2
 1673 00dc 032B     		cmp	r3, #3
 1674 00de 65D0     		beq	.L278
 1675              	.L203:
 1676              		.loc 1 939 0
 1677 00e0 092B     		cmp	r3, #9
 1678 00e2 6DD0     		beq	.L279
 1679              	.L205:
 1680              		.loc 1 947 0
 1681 00e4 B8F1000F 		cmp	r8, #0
 1682 00e8 6FD1     		bne	.L206
ARM GAS  C:\Users\jo\AppData\Local\Temp\cc67lm3z.s 			page 31


 1683              	.LVL141:
 1684              		.loc 1 984 0
 1685 00ea FB7F     		ldrb	r3, [r7, #31]	@ zero_extendqisi2
 1686              		.loc 1 985 0
 1687 00ec 97F82020 		ldrb	r2, [r7, #32]	@ zero_extendqisi2
 1688              		.loc 1 981 0
 1689 00f0 D7F80C90 		ldr	r9, [r7, #12]
 1690              	.LVL142:
 1691              		.loc 1 984 0
 1692 00f4 0133     		adds	r3, r3, #1
 1693 00f6 DBB2     		uxtb	r3, r3
 1694              		.loc 1 985 0
 1695 00f8 9A42     		cmp	r2, r3
 1696              		.loc 1 984 0
 1697 00fa FB77     		strb	r3, [r7, #31]
 1698              		.loc 1 985 0
 1699 00fc 12D8     		bhi	.L238
 1700              		.loc 1 988 0
 1701 00fe 764E     		ldr	r6, .L285+12
 1702              		.loc 1 989 0
 1703 0100 D7F88830 		ldr	r3, [r7, #136]
 1704              		.loc 1 986 0
 1705 0104 87F81F80 		strb	r8, [r7, #31]
 1706              		.loc 1 988 0
 1707 0108 86F80080 		strb	r8, [r6]
 1708              		.loc 1 989 0
 1709 010c 002B     		cmp	r3, #0
 1710 010e 00F08980 		beq	.L215
 1711              		.loc 1 989 0 is_stmt 0 discriminator 1
 1712 0112 3869     		ldr	r0, [r7, #16]
 1713 0114 3946     		mov	r1, r7
 1714 0116 9847     		blx	r3
 1715              	.LVL143:
 1716              		.loc 1 990 0 is_stmt 1 discriminator 1
 1717 0118 3378     		ldrb	r3, [r6]	@ zero_extendqisi2
 1718 011a 002B     		cmp	r3, #0
 1719 011c 7FF47DAF 		bne	.L179
 1720              		.loc 1 994 0
 1721 0120 0028     		cmp	r0, #0
 1722 0122 7FD0     		beq	.L215
 1723              	.LVL144:
 1724              	.L238:
 1725 0124 3E46     		mov	r6, r7
 1726              	.LVL145:
 1727              	.L268:
 1728              		.loc 1 981 0
 1729 0126 4F46     		mov	r7, r9
 1730              	.LVL146:
 1731              	.L187:
 1732              		.loc 1 808 0
 1733 0128 002F     		cmp	r7, #0
 1734 012a 7FF47CAF 		bne	.L216
 1735              	.LVL147:
 1736              	.L217:
 1737              		.loc 1 1004 0
 1738 012e DFF8CC81 		ldr	r8, .L285+48
 1739 0132 D8F80050 		ldr	r5, [r8]
ARM GAS  C:\Users\jo\AppData\Local\Temp\cc67lm3z.s 			page 32


 1740              	.LVL148:
 1741              		.loc 1 1005 0
 1742 0136 55B3     		cbz	r5, .L178
 1743              		.loc 1 1006 0
 1744 0138 684F     		ldr	r7, .L285+16
 1745              		.loc 1 1005 0
 1746 013a 0026     		movs	r6, #0
 1747              	.LVL149:
 1748              	.L224:
 1749              		.loc 1 1006 0
 1750 013c 2B7E     		ldrb	r3, [r5, #24]	@ zero_extendqisi2
 1751 013e 0A2B     		cmp	r3, #10
 1752 0140 0AD0     		beq	.L218
 1753              		.loc 1 1006 0 is_stmt 0 discriminator 1
 1754 0142 0097     		str	r7, [sp]
 1755 0144 6648     		ldr	r0, .L285+20
 1756 0146 6749     		ldr	r1, .L285+24
 1757 0148 674A     		ldr	r2, .L285+28
 1758 014a 40F2EE33 		movw	r3, #1006
 1759 014e FFF7FEFF 		bl	chprintf.constprop.4
 1760              	.LVL150:
 1761              	.LBB152:
 1762              	.LBB153:
 1763              		.loc 3 414 0 is_stmt 1 discriminator 1
 1764 0152 6548     		ldr	r0, .L285+28
 1765 0154 FFF7FEFF 		bl	chSysHalt
 1766              	.LVL151:
 1767              	.L218:
 1768              	.LBE153:
 1769              	.LBE152:
 1770              		.loc 1 1010 0
 1771 0158 2368     		ldr	r3, [r4]
 1772 015a 6A6A     		ldr	r2, [r5, #36]
 1773 015c 9B1A     		subs	r3, r3, r2
 1774 015e F02B     		cmp	r3, #240
 1775 0160 40F22981 		bls	.L280
 1776              	.LVL152:
 1777              	.LBB154:
 1778              		.loc 1 1019 0
 1779 0164 2846     		mov	r0, r5
 1780 0166 FFF7FEFF 		bl	tcp_pcb_purge
 1781              	.LVL153:
 1782              		.loc 1 1021 0
 1783 016a 002E     		cmp	r6, #0
 1784 016c 00F05D81 		beq	.L281
 1785              		.loc 1 1022 0
 1786 0170 D8F80030 		ldr	r3, [r8]
 1787 0174 9D42     		cmp	r5, r3
 1788 0176 00F07981 		beq	.L282
 1789              	.L221:
 1790              		.loc 1 1023 0
 1791 017a EB68     		ldr	r3, [r5, #12]
 1792 017c F360     		str	r3, [r6, #12]
 1793 017e D5F80C90 		ldr	r9, [r5, #12]
 1794              	.L222:
 1795              	.LVL154:
 1796              		.loc 1 1031 0
ARM GAS  C:\Users\jo\AppData\Local\Temp\cc67lm3z.s 			page 33


 1797 0182 2846     		mov	r0, r5
 1798              		.loc 1 1030 0
 1799 0184 4D46     		mov	r5, r9
 1800              	.LVL155:
 1801              		.loc 1 1031 0
 1802 0186 FFF7FEFF 		bl	free
 1803              	.LVL156:
 1804              	.LBE154:
 1805              		.loc 1 1005 0
 1806 018a 002D     		cmp	r5, #0
 1807 018c D6D1     		bne	.L224
 1808              	.LVL157:
 1809              	.L178:
 1810              		.loc 1 1037 0
 1811 018e 05B0     		add	sp, sp, #20
 1812              		.cfi_remember_state
 1813              		.cfi_def_cfa_offset 36
 1814              		@ sp needed
 1815 0190 BDE8F08F 		pop	{r4, r5, r6, r7, r8, r9, r10, fp, pc}
 1816              	.LVL158:
 1817              	.L202:
 1818              		.cfi_restore_state
 1819              	.LBB159:
 1820              	.LBB160:
 1821              	.LBB161:
 1822              		.loc 1 1131 0
 1823 0194 D0F800A0 		ldr	r10, [r0]
 1824              	.LVL159:
 1825              		.loc 1 1132 0
 1826 0198 FFF7FEFF 		bl	tcp_seg_free
 1827              	.LVL160:
 1828              	.LBE161:
 1829              		.loc 1 1130 0
 1830 019c 5046     		mov	r0, r10
 1831 019e 0028     		cmp	r0, #0
 1832 01a0 F8D1     		bne	.L202
 1833              	.LBE160:
 1834              	.LBE159:
 1835              		.loc 1 930 0
 1836 01a2 3B7E     		ldrb	r3, [r7, #24]	@ zero_extendqisi2
 1837              		.loc 1 924 0
 1838 01a4 C7F874A0 		str	r10, [r7, #116]
 1839              		.loc 1 930 0
 1840 01a8 032B     		cmp	r3, #3
 1841 01aa 99D1     		bne	.L203
 1842              	.LVL161:
 1843              	.L278:
 1844              		.loc 1 931 0
 1845 01ac 2368     		ldr	r3, [r4]
 1846 01ae 7A6A     		ldr	r2, [r7, #36]
 1847 01b0 9B1A     		subs	r3, r3, r2
 1848 01b2 282B     		cmp	r3, #40
 1849 01b4 96D9     		bls	.L205
 1850              		.loc 1 933 0
 1851 01b6 08F10108 		add	r8, r8, #1
 1852              	.LVL162:
 1853 01ba 5FFA88F8 		uxtb	r8, r8
ARM GAS  C:\Users\jo\AppData\Local\Temp\cc67lm3z.s 			page 34


 1854              	.LVL163:
 1855 01be 91E7     		b	.L205
 1856              	.L279:
 1857              		.loc 1 940 0
 1858 01c0 2368     		ldr	r3, [r4]
 1859 01c2 7A6A     		ldr	r2, [r7, #36]
 1860 01c4 9B1A     		subs	r3, r3, r2
 1861 01c6 F02B     		cmp	r3, #240
 1862 01c8 8CD9     		bls	.L205
 1863              	.L206:
 1864              	.LVL164:
 1865              	.LBB162:
 1866              		.loc 1 951 0
 1867 01ca 3846     		mov	r0, r7
 1868 01cc FFF7FEFF 		bl	tcp_pcb_purge
 1869              	.LVL165:
 1870              		.loc 1 954 0
 1871 01d0 DBF80030 		ldr	r3, [fp]
 1872              		.loc 1 953 0
 1873 01d4 002E     		cmp	r6, #0
 1874 01d6 00F01681 		beq	.L208
 1875              		.loc 1 954 0
 1876 01da 9F42     		cmp	r7, r3
 1877 01dc 00F03981 		beq	.L283
 1878              	.L209:
 1879              		.loc 1 955 0
 1880 01e0 FB68     		ldr	r3, [r7, #12]
 1881 01e2 F360     		str	r3, [r6, #12]
 1882              	.L210:
 1883              		.loc 1 962 0
 1884 01e4 B9F1000F 		cmp	r9, #0
 1885 01e8 40F00281 		bne	.L284
 1886              	.L212:
 1887              		.loc 1 968 0
 1888 01ec 3B69     		ldr	r3, [r7, #16]
 1889              		.loc 1 967 0
 1890 01ee D7F88CA0 		ldr	r10, [r7, #140]
 1891              	.LVL166:
 1892              		.loc 1 973 0
 1893 01f2 DFF8E480 		ldr	r8, .L285+12
 1894              		.loc 1 968 0
 1895 01f6 0393     		str	r3, [sp, #12]
 1896              	.LVL167:
 1897              		.loc 1 971 0
 1898 01f8 3846     		mov	r0, r7
 1899              		.loc 1 970 0
 1900 01fa D7F80C90 		ldr	r9, [r7, #12]
 1901              	.LVL168:
 1902              		.loc 1 971 0
 1903 01fe FFF7FEFF 		bl	free
 1904              	.LVL169:
 1905              		.loc 1 973 0
 1906 0202 0022     		movs	r2, #0
 1907 0204 88F80020 		strb	r2, [r8]
 1908              		.loc 1 974 0
 1909 0208 BAF1000F 		cmp	r10, #0
 1910 020c 8BD0     		beq	.L268
ARM GAS  C:\Users\jo\AppData\Local\Temp\cc67lm3z.s 			page 35


 1911              		.loc 1 974 0 is_stmt 0 discriminator 1
 1912 020e 0398     		ldr	r0, [sp, #12]
 1913 0210 6FF00901 		mvn	r1, #9
 1914 0214 D047     		blx	r10
 1915              	.LVL170:
 1916              		.loc 1 975 0 is_stmt 1 discriminator 1
 1917 0216 98F80030 		ldrb	r3, [r8]	@ zero_extendqisi2
 1918 021a 002B     		cmp	r3, #0
 1919 021c 7FF4FDAE 		bne	.L179
 1920              	.LBE162:
 1921              		.loc 1 981 0
 1922 0220 4F46     		mov	r7, r9
 1923              	.LVL171:
 1924 0222 81E7     		b	.L187
 1925              	.LVL172:
 1926              	.L215:
 1927              		.loc 1 995 0
 1928 0224 3846     		mov	r0, r7
 1929 0226 3E46     		mov	r6, r7
 1930              		.loc 1 981 0
 1931 0228 4F46     		mov	r7, r9
 1932              	.LVL173:
 1933              		.loc 1 995 0
 1934 022a FFF7FEFF 		bl	tcp_output
 1935              	.LVL174:
 1936              		.loc 1 808 0
 1937 022e 002F     		cmp	r7, #0
 1938 0230 7FF4F9AE 		bne	.L216
 1939 0234 7BE7     		b	.L217
 1940              	.LVL175:
 1941              	.L272:
 1942              		.loc 1 810 0 discriminator 1
 1943 0236 294B     		ldr	r3, .L285+16
 1944 0238 0093     		str	r3, [sp]
 1945 023a 2A49     		ldr	r1, .L285+24
 1946 023c 2B4A     		ldr	r2, .L285+32
 1947 023e 2848     		ldr	r0, .L285+20
 1948 0240 40F22A33 		movw	r3, #810
 1949 0244 FFF7FEFF 		bl	chprintf.constprop.4
 1950              	.LVL176:
 1951              	.LBB167:
 1952              	.LBB168:
 1953              		.loc 3 414 0 discriminator 1
 1954 0248 2848     		ldr	r0, .L285+32
 1955 024a FFF7FEFF 		bl	chSysHalt
 1956              	.LVL177:
 1957 024e 3B7E     		ldrb	r3, [r7, #24]	@ zero_extendqisi2
 1958              	.LBE168:
 1959              	.LBE167:
 1960              		.loc 1 811 0 discriminator 1
 1961 0250 012B     		cmp	r3, #1
 1962 0252 7FF4EFAE 		bne	.L184
 1963              	.LVL178:
 1964              	.L273:
 1965 0256 214B     		ldr	r3, .L285+16
 1966 0258 0093     		str	r3, [sp]
 1967 025a 2249     		ldr	r1, .L285+24
ARM GAS  C:\Users\jo\AppData\Local\Temp\cc67lm3z.s 			page 36


 1968 025c 244A     		ldr	r2, .L285+36
 1969 025e 2048     		ldr	r0, .L285+20
 1970 0260 40F22B33 		movw	r3, #811
 1971 0264 FFF7FEFF 		bl	chprintf.constprop.4
 1972              	.LVL179:
 1973              	.LBB169:
 1974              	.LBB170:
 1975              		.loc 3 414 0 discriminator 1
 1976 0268 2148     		ldr	r0, .L285+36
 1977 026a FFF7FEFF 		bl	chSysHalt
 1978              	.LVL180:
 1979 026e 3B7E     		ldrb	r3, [r7, #24]	@ zero_extendqisi2
 1980              	.LBE170:
 1981              	.LBE169:
 1982              		.loc 1 812 0 discriminator 1
 1983 0270 0A2B     		cmp	r3, #10
 1984 0272 7FF4E2AE 		bne	.L185
 1985              	.LVL181:
 1986              	.L274:
 1987 0276 194B     		ldr	r3, .L285+16
 1988 0278 1E4A     		ldr	r2, .L285+40
 1989 027a 0093     		str	r3, [sp]
 1990 027c 1949     		ldr	r1, .L285+24
 1991 027e 1848     		ldr	r0, .L285+20
 1992 0280 4FF44B73 		mov	r3, #812
 1993 0284 FFF7FEFF 		bl	chprintf.constprop.4
 1994              	.LVL182:
 1995              	.LBB171:
 1996              	.LBB172:
 1997              		.loc 3 414 0 discriminator 1
 1998 0288 1A48     		ldr	r0, .L285+40
 1999 028a FFF7FEFF 		bl	chSysHalt
 2000              	.LVL183:
 2001              	.LBE172:
 2002              	.LBE171:
 2003              		.loc 1 813 0 discriminator 1
 2004 028e 2B78     		ldrb	r3, [r5]	@ zero_extendqisi2
 2005 0290 97F82120 		ldrb	r2, [r7, #33]	@ zero_extendqisi2
 2006 0294 9A42     		cmp	r2, r3
 2007 0296 7FF4D6AE 		bne	.L186
 2008              	.LVL184:
 2009              	.L275:
 2010              		.loc 1 815 0
 2011 029a FF68     		ldr	r7, [r7, #12]
 2012              	.LVL185:
 2013              		.loc 1 808 0
 2014 029c 002F     		cmp	r7, #0
 2015 029e 7FF4C2AE 		bne	.L216
 2016 02a2 44E7     		b	.L217
 2017              	.LVL186:
 2018              	.L233:
 2019              		.loc 1 881 0
 2020 02a4 062A     		cmp	r2, #6
 2021              		.loc 1 820 0
 2022 02a6 4FF00008 		mov	r8, #0
 2023              	.LVL187:
 2024              		.loc 1 881 0
ARM GAS  C:\Users\jo\AppData\Local\Temp\cc67lm3z.s 			page 37


 2025 02aa 7FF4FCAE 		bne	.L197
 2026              	.L277:
 2027              		.loc 1 883 0
 2028 02ae BB7F     		ldrb	r3, [r7, #30]	@ zero_extendqisi2
 2029 02b0 DB06     		lsls	r3, r3, #27
 2030 02b2 7FF504AF 		bpl	.L198
 2031              		.loc 1 886 0
 2032 02b6 2368     		ldr	r3, [r4]
 2033 02b8 7A6A     		ldr	r2, [r7, #36]
 2034 02ba 9B1A     		subs	r3, r3, r2
 2035 02bc 282B     		cmp	r3, #40
 2036 02be 7FF6FEAE 		bls	.L198
 2037              		.loc 1 888 0
 2038 02c2 08F10108 		add	r8, r8, #1
 2039              	.LVL188:
 2040 02c6 5FFA88F8 		uxtb	r8, r8
 2041              	.LVL189:
 2042 02ca F8E6     		b	.L198
 2043              	.L286:
 2044              		.align	2
 2045              	.L285:
 2046 02cc 00000000 		.word	.LANCHOR5
 2047 02d0 00000000 		.word	.LANCHOR6
 2048 02d4 00000000 		.word	.LANCHOR9
 2049 02d8 00000000 		.word	.LANCHOR11
 2050 02dc 50000000 		.word	.LC2
 2051 02e0 00000000 		.word	itm_port
 2052 02e4 00000000 		.word	.LC0
 2053 02e8 80020000 		.word	.LC16
 2054 02ec A0010000 		.word	.LC11
 2055 02f0 CC010000 		.word	.LC12
 2056 02f4 F8010000 		.word	.LC13
 2057 02f8 00000000 		.word	.LANCHOR7
 2058 02fc 00000000 		.word	.LANCHOR8
 2059              	.LVL190:
 2060              	.L192:
 2061              		.loc 1 844 0
 2062 0300 B98E     		ldrh	r1, [r7, #52]
 2063 0302 0804     		lsls	r0, r1, #16
 2064              		.loc 1 845 0
 2065 0304 5CBF     		itt	pl
 2066 0306 0131     		addpl	r1, r1, #1
 2067 0308 B986     		strhpl	r1, [r7, #52]	@ movhi
 2068              		.loc 1 848 0
 2069 030a 396F     		ldr	r1, [r7, #112]
 2070 030c 0029     		cmp	r1, #0
 2071 030e C9D0     		beq	.L233
 2072              		.loc 1 848 0 is_stmt 0 discriminator 1
 2073 0310 B7F93400 		ldrsh	r0, [r7, #52]
 2074 0314 B7F94410 		ldrsh	r1, [r7, #68]
 2075 0318 8842     		cmp	r0, r1
 2076 031a C3DB     		blt	.L233
 2077              		.loc 1 856 0 is_stmt 1
 2078 031c 022A     		cmp	r2, #2
 2079 031e 0AD0     		beq	.L195
 2080              		.loc 1 857 0
 2081 0320 5849     		ldr	r1, .L287
ARM GAS  C:\Users\jo\AppData\Local\Temp\cc67lm3z.s 			page 38


 2082 0322 B7F94000 		ldrsh	r0, [r7, #64]
 2083 0326 B7F94220 		ldrsh	r2, [r7, #66]
 2084 032a C95C     		ldrb	r1, [r1, r3]	@ zero_extendqisi2
 2085 032c 02EBE003 		add	r3, r2, r0, asr #3
 2086 0330 8B40     		lsls	r3, r3, r1
 2087 0332 A7F84430 		strh	r3, [r7, #68]	@ movhi
 2088              	.L195:
 2089              		.loc 1 864 0
 2090 0336 B7F84C10 		ldrh	r1, [r7, #76]
 2091 033a B7F86030 		ldrh	r3, [r7, #96]
 2092              		.loc 1 866 0
 2093 033e FA8E     		ldrh	r2, [r7, #54]
 2094              		.loc 1 869 0
 2095 0340 A7F84C20 		strh	r2, [r7, #76]	@ movhi
 2096              		.loc 1 865 0
 2097 0344 8B42     		cmp	r3, r1
 2098 0346 28BF     		it	cs
 2099 0348 0B46     		movcs	r3, r1
 2100 034a 5B08     		lsrs	r3, r3, #1
 2101              		.loc 1 866 0
 2102 034c 5100     		lsls	r1, r2, #1
 2103              		.loc 1 861 0
 2104 034e 0020     		movs	r0, #0
 2105              		.loc 1 866 0
 2106 0350 8B42     		cmp	r3, r1
 2107              		.loc 1 865 0
 2108 0352 A7F84E30 		strh	r3, [r7, #78]	@ movhi
 2109              		.loc 1 861 0
 2110 0356 B886     		strh	r0, [r7, #52]	@ movhi
 2111              		.loc 1 867 0
 2112 0358 B8BF     		it	lt
 2113 035a A7F84E10 		strhlt	r1, [r7, #78]	@ movhi
 2114              		.loc 1 876 0
 2115 035e 3846     		mov	r0, r7
 2116 0360 FFF7FEFF 		bl	tcp_rexmit_rto
 2117              	.LVL191:
 2118              		.loc 1 820 0
 2119 0364 4FF00008 		mov	r8, #0
 2120 0368 3A7E     		ldrb	r2, [r7, #24]	@ zero_extendqisi2
 2121 036a 99E6     		b	.L191
 2122              	.L276:
 2123              		.loc 1 823 0 discriminator 1
 2124 036c 062B     		cmp	r3, #6
 2125 036e 02D0     		beq	.L239
 2126              		.loc 1 827 0
 2127 0370 0C2B     		cmp	r3, #12
 2128 0372 7FF473AE 		bne	.L228
 2129              	.L239:
 2130              		.loc 1 821 0
 2131 0376 4FF00009 		mov	r9, #0
 2132              		.loc 1 827 0
 2133 037a 4FF00108 		mov	r8, #1
 2134 037e A0E6     		b	.L189
 2135              	.L230:
 2136              		.loc 1 828 0
 2137 0380 4FF00108 		mov	r8, #1
 2138 0384 8CE6     		b	.L191
ARM GAS  C:\Users\jo\AppData\Local\Temp\cc67lm3z.s 			page 39


 2139              	.LVL192:
 2140              	.L199:
 2141              		.loc 1 899 0
 2142 0386 D7F89000 		ldr	r0, [r7, #144]
 2143              		.loc 1 898 0
 2144 038a 7A6A     		ldr	r2, [r7, #36]
 2145 038c 0392     		str	r2, [sp, #12]
 2146              		.loc 1 899 0
 2147 038e 00F52423 		add	r3, r0, #671744
 2148 0392 3D4A     		ldr	r2, .L287+4
 2149              		.loc 1 898 0
 2150 0394 2168     		ldr	r1, [r4]
 2151              		.loc 1 899 0
 2152 0396 03F6B843 		addw	r3, r3, #3256
 2153 039a A2FB0323 		umull	r2, r3, r2, r3
 2154              		.loc 1 898 0
 2155 039e 039A     		ldr	r2, [sp, #12]
 2156 03a0 8A1A     		subs	r2, r1, r2
 2157 03a2 B2EB531F 		cmp	r2, r3, lsr #5
 2158 03a6 0CD9     		bls	.L200
 2159              		.loc 1 905 0
 2160 03a8 08F10108 		add	r8, r8, #1
 2161              	.LVL193:
 2162 03ac 5FFA88F8 		uxtb	r8, r8
 2163              	.LVL194:
 2164              		.loc 1 906 0
 2165 03b0 4FF00109 		mov	r9, #1
 2166 03b4 85E6     		b	.L189
 2167              	.LVL195:
 2168              	.L280:
 2169              		.loc 1 1034 0
 2170 03b6 2E46     		mov	r6, r5
 2171 03b8 ED68     		ldr	r5, [r5, #12]
 2172              	.LVL196:
 2173              		.loc 1 1005 0
 2174 03ba 002D     		cmp	r5, #0
 2175 03bc 7FF4BEAE 		bne	.L224
 2176 03c0 E5E6     		b	.L178
 2177              	.LVL197:
 2178              	.L200:
 2179              		.loc 1 909 0
 2180 03c2 97F89610 		ldrb	r1, [r7, #150]	@ zero_extendqisi2
 2181 03c6 314B     		ldr	r3, .L287+8
 2182 03c8 03FB0103 		mla	r3, r3, r1, r0
 2183              		.loc 1 910 0
 2184 03cc 2E49     		ldr	r1, .L287+4
 2185 03ce A1FB0313 		umull	r1, r3, r1, r3
 2186              		.loc 1 908 0
 2187 03d2 B2EB531F 		cmp	r2, r3, lsr #5
 2188 03d6 7FF672AE 		bls	.L198
 2189              		.loc 1 912 0
 2190 03da 3846     		mov	r0, r7
 2191 03dc FFF7FEFF 		bl	tcp_keepalive
 2192              	.LVL198:
 2193              		.loc 1 913 0
 2194 03e0 97F89630 		ldrb	r3, [r7, #150]	@ zero_extendqisi2
 2195 03e4 0133     		adds	r3, r3, #1
ARM GAS  C:\Users\jo\AppData\Local\Temp\cc67lm3z.s 			page 40


 2196 03e6 87F89630 		strb	r3, [r7, #150]
 2197              		.loc 1 821 0
 2198 03ea 4FF00009 		mov	r9, #0
 2199 03ee 68E6     		b	.L189
 2200              	.LVL199:
 2201              	.L284:
 2202              	.LBB173:
 2203              		.loc 1 963 0
 2204 03f0 7B8B     		ldrh	r3, [r7, #26]
 2205 03f2 386D     		ldr	r0, [r7, #80]
 2206 03f4 B96A     		ldr	r1, [r7, #40]
 2207 03f6 0093     		str	r3, [sp]
 2208 03f8 BB8B     		ldrh	r3, [r7, #28]
 2209 03fa 0193     		str	r3, [sp, #4]
 2210 03fc 3A46     		mov	r2, r7
 2211 03fe 3B1D     		adds	r3, r7, #4
 2212 0400 FFF7FEFF 		bl	tcp_rst
 2213              	.LVL200:
 2214 0404 F2E6     		b	.L212
 2215              	.L208:
 2216              		.loc 1 958 0
 2217 0406 BB42     		cmp	r3, r7
 2218 0408 0BD0     		beq	.L211
 2219              		.loc 1 958 0 is_stmt 0 discriminator 1
 2220 040a 214B     		ldr	r3, .L287+12
 2221 040c 0093     		str	r3, [sp]
 2222 040e 2148     		ldr	r0, .L287+16
 2223 0410 2149     		ldr	r1, .L287+20
 2224 0412 224A     		ldr	r2, .L287+24
 2225 0414 40F2BE33 		movw	r3, #958
 2226 0418 FFF7FEFF 		bl	chprintf.constprop.4
 2227              	.LVL201:
 2228              	.LBB163:
 2229              	.LBB164:
 2230              		.loc 3 414 0 is_stmt 1 discriminator 1
 2231 041c 1F48     		ldr	r0, .L287+24
 2232 041e FFF7FEFF 		bl	chSysHalt
 2233              	.LVL202:
 2234              	.L211:
 2235              	.LBE164:
 2236              	.LBE163:
 2237              		.loc 1 959 0
 2238 0422 FB68     		ldr	r3, [r7, #12]
 2239 0424 CBF80030 		str	r3, [fp]
 2240 0428 DCE6     		b	.L210
 2241              	.LVL203:
 2242              	.L281:
 2243              	.LBE173:
 2244              	.LBB174:
 2245              		.loc 1 1026 0
 2246 042a D8F80030 		ldr	r3, [r8]
 2247 042e AB42     		cmp	r3, r5
 2248 0430 0AD0     		beq	.L223
 2249              		.loc 1 1026 0 is_stmt 0 discriminator 1
 2250 0432 0097     		str	r7, [sp]
 2251 0434 1748     		ldr	r0, .L287+16
 2252 0436 1849     		ldr	r1, .L287+20
ARM GAS  C:\Users\jo\AppData\Local\Temp\cc67lm3z.s 			page 41


 2253 0438 194A     		ldr	r2, .L287+28
 2254 043a 40F20243 		movw	r3, #1026
 2255 043e FFF7FEFF 		bl	chprintf.constprop.4
 2256              	.LVL204:
 2257              	.LBB155:
 2258              	.LBB156:
 2259              		.loc 3 414 0 is_stmt 1 discriminator 1
 2260 0442 1748     		ldr	r0, .L287+28
 2261 0444 FFF7FEFF 		bl	chSysHalt
 2262              	.LVL205:
 2263              	.L223:
 2264              	.LBE156:
 2265              	.LBE155:
 2266              		.loc 1 1027 0
 2267 0448 EB68     		ldr	r3, [r5, #12]
 2268 044a C8F80030 		str	r3, [r8]
 2269 044e 9946     		mov	r9, r3
 2270 0450 97E6     		b	.L222
 2271              	.LVL206:
 2272              	.L283:
 2273              	.LBE174:
 2274              	.LBB175:
 2275              		.loc 1 954 0 discriminator 1
 2276 0452 0F4B     		ldr	r3, .L287+12
 2277 0454 0093     		str	r3, [sp]
 2278 0456 1049     		ldr	r1, .L287+20
 2279 0458 124A     		ldr	r2, .L287+32
 2280 045a 0E48     		ldr	r0, .L287+16
 2281 045c 40F2BA33 		movw	r3, #954
 2282 0460 FFF7FEFF 		bl	chprintf.constprop.4
 2283              	.LVL207:
 2284              	.LBB165:
 2285              	.LBB166:
 2286              		.loc 3 414 0 discriminator 1
 2287 0464 0F48     		ldr	r0, .L287+32
 2288 0466 FFF7FEFF 		bl	chSysHalt
 2289              	.LVL208:
 2290 046a B9E6     		b	.L209
 2291              	.LVL209:
 2292              	.L282:
 2293              	.LBE166:
 2294              	.LBE165:
 2295              	.LBE175:
 2296              	.LBB176:
 2297              		.loc 1 1022 0 discriminator 1
 2298 046c 0097     		str	r7, [sp]
 2299 046e 0A49     		ldr	r1, .L287+20
 2300 0470 0D4A     		ldr	r2, .L287+36
 2301 0472 0848     		ldr	r0, .L287+16
 2302 0474 40F2FE33 		movw	r3, #1022
 2303 0478 FFF7FEFF 		bl	chprintf.constprop.4
 2304              	.LVL210:
 2305              	.LBB157:
 2306              	.LBB158:
 2307              		.loc 3 414 0 discriminator 1
 2308 047c 0A48     		ldr	r0, .L287+36
 2309 047e FFF7FEFF 		bl	chSysHalt
ARM GAS  C:\Users\jo\AppData\Local\Temp\cc67lm3z.s 			page 42


 2310              	.LVL211:
 2311 0482 7AE6     		b	.L221
 2312              	.L288:
 2313              		.align	2
 2314              	.L287:
 2315 0484 00000000 		.word	.LANCHOR10
 2316 0488 D34D6210 		.word	274877907
 2317 048c F8240100 		.word	75000
 2318 0490 50000000 		.word	.LC2
 2319 0494 00000000 		.word	itm_port
 2320 0498 00000000 		.word	.LC0
 2321 049c 54020000 		.word	.LC15
 2322 04a0 D8020000 		.word	.LC18
 2323 04a4 28020000 		.word	.LC14
 2324 04a8 B0020000 		.word	.LC17
 2325              	.LBE158:
 2326              	.LBE157:
 2327              	.LBE176:
 2328              		.cfi_endproc
 2329              	.LFE270:
 2330              		.size	tcp_slowtmr, .-tcp_slowtmr
 2331 04ac AFF30080 		.section	.text.tcp_pcb_remove,"ax",%progbits
 2332              		.align	2
 2333              		.p2align 4,,15
 2334              		.global	tcp_pcb_remove
 2335              		.thumb
 2336              		.thumb_func
 2337              		.type	tcp_pcb_remove, %function
 2338              	tcp_pcb_remove:
 2339              	.LFB289:
 2340              		.loc 1 1539 0
 2341              		.cfi_startproc
 2342              		@ args = 0, pretend = 0, frame = 0
 2343              		@ frame_needed = 0, uses_anonymous_args = 0
 2344              	.LVL212:
 2345 0000 10B5     		push	{r4, lr}
 2346              		.cfi_def_cfa_offset 8
 2347              		.cfi_offset 4, -8
 2348              		.cfi_offset 14, -4
 2349              		.loc 1 1540 0
 2350 0002 0268     		ldr	r2, [r0]
 2351 0004 8A42     		cmp	r2, r1
 2352              		.loc 1 1539 0
 2353 0006 82B0     		sub	sp, sp, #8
 2354              		.cfi_def_cfa_offset 16
 2355              		.loc 1 1539 0
 2356 0008 0C46     		mov	r4, r1
 2357              		.loc 1 1540 0
 2358 000a 56D0     		beq	.L319
 2359              		.loc 1 1540 0 is_stmt 0 discriminator 2
 2360 000c 2D49     		ldr	r1, .L324
 2361              	.LVL213:
 2362 000e 0A60     		str	r2, [r1]
 2363 0010 52B1     		cbz	r2, .L291
 2364              		.loc 1 1540 0
 2365 0012 D368     		ldr	r3, [r2, #12]
 2366 0014 A342     		cmp	r3, r4
ARM GAS  C:\Users\jo\AppData\Local\Temp\cc67lm3z.s 			page 43


 2367 0016 53D0     		beq	.L320
 2368              		.loc 1 1540 0 discriminator 6
 2369 0018 2BB1     		cbz	r3, .L321
 2370              	.L296:
 2371              		.loc 1 1540 0 discriminator 9
 2372 001a DA68     		ldr	r2, [r3, #12]
 2373 001c A242     		cmp	r2, r4
 2374 001e 3ED0     		beq	.L322
 2375 0020 1346     		mov	r3, r2
 2376              		.loc 1 1540 0
 2377 0022 002B     		cmp	r3, #0
 2378 0024 F9D1     		bne	.L296
 2379              	.L321:
 2380 0026 0B60     		str	r3, [r1]
 2381              	.L291:
 2382              		.loc 1 1540 0 discriminator 10
 2383 0028 0023     		movs	r3, #0
 2384 002a E360     		str	r3, [r4, #12]
 2385              		.loc 1 1542 0 is_stmt 1 discriminator 10
 2386 002c 2046     		mov	r0, r4
 2387              	.LVL214:
 2388 002e FFF7FEFF 		bl	tcp_pcb_purge
 2389              	.LVL215:
 2390              		.loc 1 1545 0 discriminator 10
 2391 0032 237E     		ldrb	r3, [r4, #24]	@ zero_extendqisi2
 2392 0034 0A2B     		cmp	r3, #10
 2393 0036 04D0     		beq	.L303
 2394              		.loc 1 1545 0 is_stmt 0 discriminator 1
 2395 0038 012B     		cmp	r3, #1
 2396 003a 2CD0     		beq	.L302
 2397              		.loc 1 1547 0 is_stmt 1
 2398 003c A37F     		ldrb	r3, [r4, #30]	@ zero_extendqisi2
 2399              		.loc 1 1546 0
 2400 003e DA07     		lsls	r2, r3, #31
 2401 0040 31D4     		bmi	.L323
 2402              	.L303:
 2403              		.loc 1 1553 0
 2404 0042 E36E     		ldr	r3, [r4, #108]
 2405 0044 5BB1     		cbz	r3, .L300
 2406              		.loc 1 1553 0 is_stmt 0 discriminator 1
 2407 0046 204B     		ldr	r3, .L324+4
 2408 0048 0093     		str	r3, [sp]
 2409 004a 2048     		ldr	r0, .L324+8
 2410 004c 2049     		ldr	r1, .L324+12
 2411 004e 214A     		ldr	r2, .L324+16
 2412 0050 40F21163 		movw	r3, #1553
 2413 0054 FFF7FEFF 		bl	chprintf.constprop.4
 2414              	.LVL216:
 2415              	.LBB177:
 2416              	.LBB178:
 2417              		.loc 3 414 0 is_stmt 1 discriminator 1
 2418 0058 1E48     		ldr	r0, .L324+16
 2419 005a FFF7FEFF 		bl	chSysHalt
 2420              	.LVL217:
 2421              	.L300:
 2422              	.LBE178:
 2423              	.LBE177:
ARM GAS  C:\Users\jo\AppData\Local\Temp\cc67lm3z.s 			page 44


 2424              		.loc 1 1554 0
 2425 005e 236F     		ldr	r3, [r4, #112]
 2426 0060 5BB1     		cbz	r3, .L305
 2427              		.loc 1 1554 0 is_stmt 0 discriminator 1
 2428 0062 194B     		ldr	r3, .L324+4
 2429 0064 0093     		str	r3, [sp]
 2430 0066 1948     		ldr	r0, .L324+8
 2431 0068 1949     		ldr	r1, .L324+12
 2432 006a 1B4A     		ldr	r2, .L324+20
 2433 006c 40F21263 		movw	r3, #1554
 2434 0070 FFF7FEFF 		bl	chprintf.constprop.4
 2435              	.LVL218:
 2436              	.LBB179:
 2437              	.LBB180:
 2438              		.loc 3 414 0 is_stmt 1 discriminator 1
 2439 0074 1848     		ldr	r0, .L324+20
 2440 0076 FFF7FEFF 		bl	chSysHalt
 2441              	.LVL219:
 2442              	.L305:
 2443              	.LBE180:
 2444              	.LBE179:
 2445              		.loc 1 1556 0
 2446 007a 636F     		ldr	r3, [r4, #116]
 2447 007c 5BB1     		cbz	r3, .L302
 2448              		.loc 1 1556 0 is_stmt 0 discriminator 1
 2449 007e 124B     		ldr	r3, .L324+4
 2450 0080 0093     		str	r3, [sp]
 2451 0082 1248     		ldr	r0, .L324+8
 2452 0084 1249     		ldr	r1, .L324+12
 2453 0086 154A     		ldr	r2, .L324+24
 2454 0088 40F21463 		movw	r3, #1556
 2455 008c FFF7FEFF 		bl	chprintf.constprop.4
 2456              	.LVL220:
 2457              	.LBB181:
 2458              	.LBB182:
 2459              		.loc 3 414 0 is_stmt 1 discriminator 1
 2460 0090 1248     		ldr	r0, .L324+24
 2461 0092 FFF7FEFF 		bl	chSysHalt
 2462              	.LVL221:
 2463              	.L302:
 2464              	.LBE182:
 2465              	.LBE181:
 2466              		.loc 1 1560 0
 2467 0096 0023     		movs	r3, #0
 2468 0098 2376     		strb	r3, [r4, #24]
 2469              		.loc 1 1563 0
 2470 009a 02B0     		add	sp, sp, #8
 2471              		.cfi_remember_state
 2472              		.cfi_def_cfa_offset 8
 2473              		@ sp needed
 2474 009c 10BD     		pop	{r4, pc}
 2475              	.LVL222:
 2476              	.L322:
 2477              		.cfi_restore_state
 2478 009e 0B60     		str	r3, [r1]
 2479              	.L293:
 2480              		.loc 1 1540 0 discriminator 5
ARM GAS  C:\Users\jo\AppData\Local\Temp\cc67lm3z.s 			page 45


 2481 00a0 E268     		ldr	r2, [r4, #12]
 2482 00a2 DA60     		str	r2, [r3, #12]
 2483 00a4 C0E7     		b	.L291
 2484              	.LVL223:
 2485              	.L323:
 2486              		.loc 1 1548 0
 2487 00a6 43F00203 		orr	r3, r3, #2
 2488 00aa A377     		strb	r3, [r4, #30]
 2489              		.loc 1 1549 0
 2490 00ac 2046     		mov	r0, r4
 2491 00ae FFF7FEFF 		bl	tcp_output
 2492              	.LVL224:
 2493              		.loc 1 1552 0
 2494 00b2 237E     		ldrb	r3, [r4, #24]	@ zero_extendqisi2
 2495 00b4 012B     		cmp	r3, #1
 2496 00b6 C4D1     		bne	.L303
 2497 00b8 EDE7     		b	.L302
 2498              	.LVL225:
 2499              	.L319:
 2500              		.loc 1 1540 0 discriminator 1
 2501 00ba CB68     		ldr	r3, [r1, #12]
 2502 00bc 0360     		str	r3, [r0]
 2503 00be B3E7     		b	.L291
 2504              	.LVL226:
 2505              	.L320:
 2506              		.loc 1 1540 0 is_stmt 0
 2507 00c0 1346     		mov	r3, r2
 2508 00c2 EDE7     		b	.L293
 2509              	.L325:
 2510              		.align	2
 2511              	.L324:
 2512 00c4 00000000 		.word	.LANCHOR3
 2513 00c8 50000000 		.word	.LC2
 2514 00cc 00000000 		.word	itm_port
 2515 00d0 00000000 		.word	.LC0
 2516 00d4 00030000 		.word	.LC19
 2517 00d8 18030000 		.word	.LC20
 2518 00dc 34030000 		.word	.LC21
 2519              		.cfi_endproc
 2520              	.LFE289:
 2521              		.size	tcp_pcb_remove, .-tcp_pcb_remove
 2522              		.section	.text.tcp_close_shutdown,"ax",%progbits
 2523              		.align	2
 2524              		.p2align 4,,15
 2525              		.thumb
 2526              		.thumb_func
 2527              		.type	tcp_close_shutdown, %function
 2528              	tcp_close_shutdown:
 2529              	.LFB258:
 2530              		.loc 1 171 0 is_stmt 1
 2531              		.cfi_startproc
 2532              		@ args = 0, pretend = 0, frame = 0
 2533              		@ frame_needed = 0, uses_anonymous_args = 0
 2534              	.LVL227:
 2535 0000 30B5     		push	{r4, r5, lr}
 2536              		.cfi_def_cfa_offset 12
 2537              		.cfi_offset 4, -12
ARM GAS  C:\Users\jo\AppData\Local\Temp\cc67lm3z.s 			page 46


 2538              		.cfi_offset 5, -8
 2539              		.cfi_offset 14, -4
 2540              		.loc 1 174 0
 2541 0002 037E     		ldrb	r3, [r0, #24]	@ zero_extendqisi2
 2542              		.loc 1 171 0
 2543 0004 83B0     		sub	sp, sp, #12
 2544              		.cfi_def_cfa_offset 24
 2545              		.loc 1 171 0
 2546 0006 0446     		mov	r4, r0
 2547              		.loc 1 174 0
 2548 0008 19B1     		cbz	r1, .L329
 2549              		.loc 1 174 0 is_stmt 0 discriminator 1
 2550 000a 042B     		cmp	r3, #4
 2551 000c 1ED0     		beq	.L328
 2552              		.loc 1 174 0 discriminator 2
 2553 000e 072B     		cmp	r3, #7
 2554 0010 1CD0     		beq	.L328
 2555              	.LVL228:
 2556              	.L329:
 2557              		.loc 1 199 0 is_stmt 1
 2558 0012 072B     		cmp	r3, #7
 2559 0014 0ED8     		bhi	.L378
 2560 0016 DFE803F0 		tbb	[pc, r3]
 2561              	.L344:
 2562 001a 3E       		.byte	(.L343-.L344)/2
 2563 001b 51       		.byte	(.L345-.L344)/2
 2564 001c 59       		.byte	(.L346-.L344)/2
 2565 001d 11       		.byte	(.L347-.L344)/2
 2566 001e 11       		.byte	(.L347-.L344)/2
 2567 001f 0D       		.byte	(.L378-.L344)/2
 2568 0020 0D       		.byte	(.L378-.L344)/2
 2569 0021 04       		.byte	(.L349-.L344)/2
 2570              		.p2align 1
 2571              	.L349:
 2572              		.loc 1 243 0
 2573 0022 2046     		mov	r0, r4
 2574              	.LVL229:
 2575 0024 FFF7FEFF 		bl	tcp_send_fin
 2576              	.LVL230:
 2577              		.loc 1 244 0
 2578 0028 28B9     		cbnz	r0, .L341
 2579              		.loc 1 246 0
 2580 002a 0923     		movs	r3, #9
 2581 002c 2376     		strb	r3, [r4, #24]
 2582              	.L360:
 2583              	.LVL231:
 2584              		.loc 1 265 0
 2585 002e 2046     		mov	r0, r4
 2586 0030 FFF7FEFF 		bl	tcp_output
 2587              	.LVL232:
 2588              	.L378:
 2589 0034 0020     		movs	r0, #0
 2590              	.L341:
 2591 0036 40B2     		sxtb	r0, r0
 2592              		.loc 1 268 0
 2593 0038 03B0     		add	sp, sp, #12
 2594              		.cfi_remember_state
ARM GAS  C:\Users\jo\AppData\Local\Temp\cc67lm3z.s 			page 47


 2595              		.cfi_def_cfa_offset 12
 2596              		@ sp needed
 2597 003a 30BD     		pop	{r4, r5, pc}
 2598              	.LVL233:
 2599              	.L347:
 2600              		.cfi_restore_state
 2601              		.loc 1 229 0
 2602 003c 2046     		mov	r0, r4
 2603              	.LVL234:
 2604 003e FFF7FEFF 		bl	tcp_send_fin
 2605              	.LVL235:
 2606              		.loc 1 230 0
 2607 0042 0028     		cmp	r0, #0
 2608 0044 F7D1     		bne	.L341
 2609              		.loc 1 232 0
 2610 0046 0523     		movs	r3, #5
 2611 0048 2376     		strb	r3, [r4, #24]
 2612 004a F0E7     		b	.L360
 2613              	.LVL236:
 2614              	.L328:
 2615              		.loc 1 175 0
 2616 004c A26F     		ldr	r2, [r4, #120]
 2617 004e 002A     		cmp	r2, #0
 2618 0050 7DD0     		beq	.L381
 2619              	.LVL237:
 2620              	.L330:
 2621              		.loc 1 178 0
 2622 0052 A37F     		ldrb	r3, [r4, #30]	@ zero_extendqisi2
 2623 0054 DB06     		lsls	r3, r3, #27
 2624 0056 44D5     		bpl	.L382
 2625              	.LVL238:
 2626              	.L331:
 2627              		.loc 1 182 0
 2628 0058 628B     		ldrh	r2, [r4, #26]
 2629 005a A38B     		ldrh	r3, [r4, #28]
 2630 005c 206D     		ldr	r0, [r4, #80]
 2631 005e A16A     		ldr	r1, [r4, #40]
 2632 0060 8DE80C00 		stmia	sp, {r2, r3}
 2633 0064 2246     		mov	r2, r4
 2634 0066 231D     		adds	r3, r4, #4
 2635 0068 FFF7FEFF 		bl	tcp_rst
 2636              	.LVL239:
 2637              		.loc 1 185 0
 2638 006c 2046     		mov	r0, r4
 2639 006e FFF7FEFF 		bl	tcp_pcb_purge
 2640              	.LVL240:
 2641              		.loc 1 186 0
 2642 0072 3C4B     		ldr	r3, .L392
 2643 0074 1A68     		ldr	r2, [r3]
 2644 0076 A242     		cmp	r2, r4
 2645 0078 5DD0     		beq	.L383
 2646              		.loc 1 186 0 is_stmt 0 discriminator 2
 2647 007a 3B49     		ldr	r1, .L392+4
 2648 007c 0A60     		str	r2, [r1]
 2649 007e 002A     		cmp	r2, #0
 2650 0080 3ED0     		beq	.L333
 2651              		.loc 1 186 0
ARM GAS  C:\Users\jo\AppData\Local\Temp\cc67lm3z.s 			page 48


 2652 0082 D368     		ldr	r3, [r2, #12]
 2653 0084 A342     		cmp	r3, r4
 2654 0086 59D0     		beq	.L384
 2655              	.L337:
 2656              		.loc 1 186 0 discriminator 6
 2657 0088 002B     		cmp	r3, #0
 2658 008a 48D0     		beq	.L385
 2659              		.loc 1 186 0 discriminator 9
 2660 008c DA68     		ldr	r2, [r3, #12]
 2661 008e A242     		cmp	r2, r4
 2662 0090 33D0     		beq	.L386
 2663 0092 1346     		mov	r3, r2
 2664 0094 F8E7     		b	.L337
 2665              	.LVL241:
 2666              	.L343:
 2667              		.loc 1 209 0 is_stmt 1
 2668 0096 638B     		ldrh	r3, [r4, #26]
 2669 0098 A3B1     		cbz	r3, .L377
 2670              		.loc 1 210 0
 2671 009a 344B     		ldr	r3, .L392+8
 2672 009c 1A68     		ldr	r2, [r3]
 2673 009e A242     		cmp	r2, r4
 2674 00a0 4ED0     		beq	.L387
 2675              		.loc 1 210 0 is_stmt 0 discriminator 2
 2676 00a2 3149     		ldr	r1, .L392+4
 2677 00a4 0A60     		str	r2, [r1]
 2678 00a6 6AB1     		cbz	r2, .L377
 2679              		.loc 1 210 0
 2680 00a8 D368     		ldr	r3, [r2, #12]
 2681 00aa A342     		cmp	r3, r4
 2682 00ac 4BD0     		beq	.L388
 2683              	.L356:
 2684              		.loc 1 210 0 discriminator 6
 2685 00ae 002B     		cmp	r3, #0
 2686 00b0 54D0     		beq	.L389
 2687              		.loc 1 210 0 discriminator 9
 2688 00b2 DA68     		ldr	r2, [r3, #12]
 2689 00b4 A242     		cmp	r2, r4
 2690 00b6 53D0     		beq	.L390
 2691 00b8 1346     		mov	r3, r2
 2692 00ba F8E7     		b	.L356
 2693              	.LVL242:
 2694              	.L345:
 2695              		.loc 1 217 0 is_stmt 1
 2696 00bc 2C48     		ldr	r0, .L392+12
 2697              	.LVL243:
 2698 00be 2146     		mov	r1, r4
 2699 00c0 FFF7FEFF 		bl	tcp_pcb_remove
 2700              	.LVL244:
 2701              	.L377:
 2702              		.loc 1 218 0
 2703 00c4 2046     		mov	r0, r4
 2704 00c6 FFF7FEFF 		bl	free
 2705              	.LVL245:
 2706              		.loc 1 220 0
 2707 00ca B3E7     		b	.L378
 2708              	.LVL246:
ARM GAS  C:\Users\jo\AppData\Local\Temp\cc67lm3z.s 			page 49


 2709              	.L346:
 2710              		.loc 1 223 0
 2711 00cc 2548     		ldr	r0, .L392
 2712              	.LVL247:
 2713 00ce 2146     		mov	r1, r4
 2714 00d0 FFF7FEFF 		bl	tcp_pcb_remove
 2715              	.LVL248:
 2716 00d4 274B     		ldr	r3, .L392+16
 2717 00d6 0122     		movs	r2, #1
 2718              		.loc 1 224 0
 2719 00d8 2046     		mov	r0, r4
 2720              		.loc 1 223 0
 2721 00da 1A70     		strb	r2, [r3]
 2722              		.loc 1 224 0
 2723 00dc FFF7FEFF 		bl	free
 2724              	.LVL249:
 2725              		.loc 1 227 0
 2726 00e0 A8E7     		b	.L378
 2727              	.LVL250:
 2728              	.L382:
 2729              		.loc 1 178 0 discriminator 1
 2730 00e2 254B     		ldr	r3, .L392+20
 2731 00e4 0093     		str	r3, [sp]
 2732 00e6 2549     		ldr	r1, .L392+24
 2733 00e8 254A     		ldr	r2, .L392+28
 2734 00ea 2648     		ldr	r0, .L392+32
 2735              	.LVL251:
 2736 00ec B223     		movs	r3, #178
 2737 00ee FFF7FEFF 		bl	chprintf.constprop.4
 2738              	.LVL252:
 2739              	.LBB183:
 2740              	.LBB184:
 2741              		.loc 3 414 0 discriminator 1
 2742 00f2 2348     		ldr	r0, .L392+28
 2743 00f4 FFF7FEFF 		bl	chSysHalt
 2744              	.LVL253:
 2745 00f8 AEE7     		b	.L331
 2746              	.LVL254:
 2747              	.L386:
 2748 00fa 0B60     		str	r3, [r1]
 2749              	.L335:
 2750              	.LBE184:
 2751              	.LBE183:
 2752              		.loc 1 186 0 discriminator 5
 2753 00fc E268     		ldr	r2, [r4, #12]
 2754 00fe DA60     		str	r2, [r3, #12]
 2755              	.L333:
 2756              		.loc 1 187 0 discriminator 10
 2757 0100 237E     		ldrb	r3, [r4, #24]	@ zero_extendqisi2
 2758              		.loc 1 186 0 discriminator 10
 2759 0102 1C4A     		ldr	r2, .L392+16
 2760 0104 0121     		movs	r1, #1
 2761 0106 0025     		movs	r5, #0
 2762              		.loc 1 187 0 discriminator 10
 2763 0108 042B     		cmp	r3, #4
 2764              		.loc 1 186 0 discriminator 10
 2765 010a 1170     		strb	r1, [r2]
ARM GAS  C:\Users\jo\AppData\Local\Temp\cc67lm3z.s 			page 50


 2766 010c E560     		str	r5, [r4, #12]
 2767              		.loc 1 187 0 discriminator 10
 2768 010e 08D0     		beq	.L391
 2769              		.loc 1 193 0
 2770 0110 2046     		mov	r0, r4
 2771 0112 FFF7FEFF 		bl	free
 2772              	.LVL255:
 2773              		.loc 1 195 0
 2774 0116 2846     		mov	r0, r5
 2775 0118 40B2     		sxtb	r0, r0
 2776              		.loc 1 268 0
 2777 011a 03B0     		add	sp, sp, #12
 2778              		.cfi_remember_state
 2779              		.cfi_def_cfa_offset 12
 2780              		@ sp needed
 2781 011c 30BD     		pop	{r4, r5, pc}
 2782              	.LVL256:
 2783              	.L385:
 2784              		.cfi_restore_state
 2785 011e 0B60     		str	r3, [r1]
 2786 0120 EEE7     		b	.L333
 2787              	.L391:
 2788              		.loc 1 190 0
 2789 0122 194B     		ldr	r3, .L392+36
 2790              		.loc 1 189 0
 2791 0124 0A22     		movs	r2, #10
 2792              		.loc 1 190 0
 2793 0126 1968     		ldr	r1, [r3]
 2794 0128 E160     		str	r1, [r4, #12]
 2795              		.loc 1 189 0
 2796 012a 2276     		strb	r2, [r4, #24]
 2797              		.loc 1 190 0
 2798 012c 1C60     		str	r4, [r3]
 2799 012e FFF7FEFF 		bl	tcp_timer_needed
 2800              	.LVL257:
 2801              		.loc 1 195 0
 2802 0132 2846     		mov	r0, r5
 2803 0134 7FE7     		b	.L341
 2804              	.L383:
 2805              		.loc 1 186 0 discriminator 1
 2806 0136 E268     		ldr	r2, [r4, #12]
 2807 0138 1A60     		str	r2, [r3]
 2808 013a E1E7     		b	.L333
 2809              	.L384:
 2810              		.loc 1 186 0 is_stmt 0
 2811 013c 1346     		mov	r3, r2
 2812 013e DDE7     		b	.L335
 2813              	.LVL258:
 2814              	.L387:
 2815              		.loc 1 210 0 is_stmt 1 discriminator 1
 2816 0140 E268     		ldr	r2, [r4, #12]
 2817 0142 1A60     		str	r2, [r3]
 2818 0144 BEE7     		b	.L377
 2819              	.L388:
 2820              		.loc 1 210 0 is_stmt 0
 2821 0146 1346     		mov	r3, r2
 2822              	.L354:
ARM GAS  C:\Users\jo\AppData\Local\Temp\cc67lm3z.s 			page 51


 2823              		.loc 1 210 0 discriminator 5
 2824 0148 E268     		ldr	r2, [r4, #12]
 2825 014a DA60     		str	r2, [r3, #12]
 2826 014c BAE7     		b	.L377
 2827              	.LVL259:
 2828              	.L381:
 2829              		.loc 1 175 0 is_stmt 1 discriminator 1
 2830 014e A18D     		ldrh	r1, [r4, #44]
 2831              	.LVL260:
 2832 0150 41F2D062 		movw	r2, #5840
 2833 0154 9142     		cmp	r1, r2
 2834 0156 7FF47CAF 		bne	.L330
 2835 015a 5AE7     		b	.L329
 2836              	.LVL261:
 2837              	.L389:
 2838 015c 0B60     		str	r3, [r1]
 2839 015e B1E7     		b	.L377
 2840              	.L390:
 2841 0160 0B60     		str	r3, [r1]
 2842 0162 F1E7     		b	.L354
 2843              	.L393:
 2844              		.align	2
 2845              	.L392:
 2846 0164 00000000 		.word	.LANCHOR7
 2847 0168 00000000 		.word	.LANCHOR3
 2848 016c 00000000 		.word	.LANCHOR2
 2849 0170 00000000 		.word	.LANCHOR4
 2850 0174 00000000 		.word	.LANCHOR11
 2851 0178 50000000 		.word	.LC2
 2852 017c 00000000 		.word	.LC0
 2853 0180 4C030000 		.word	.LC22
 2854 0184 00000000 		.word	itm_port
 2855 0188 00000000 		.word	.LANCHOR8
 2856              		.cfi_endproc
 2857              	.LFE258:
 2858              		.size	tcp_close_shutdown, .-tcp_close_shutdown
 2859 018c AFF30080 		.section	.text.tcp_close,"ax",%progbits
 2860              		.align	2
 2861              		.p2align 4,,15
 2862              		.global	tcp_close
 2863              		.thumb
 2864              		.thumb_func
 2865              		.type	tcp_close, %function
 2866              	tcp_close:
 2867              	.LFB259:
 2868              		.loc 1 286 0
 2869              		.cfi_startproc
 2870              		@ args = 0, pretend = 0, frame = 0
 2871              		@ frame_needed = 0, uses_anonymous_args = 0
 2872              		@ link register save eliminated.
 2873              	.LVL262:
 2874              		.loc 1 292 0
 2875 0000 037E     		ldrb	r3, [r0, #24]	@ zero_extendqisi2
 2876 0002 012B     		cmp	r3, #1
 2877 0004 03D0     		beq	.L395
 2878              		.loc 1 294 0
 2879 0006 837F     		ldrb	r3, [r0, #30]	@ zero_extendqisi2
ARM GAS  C:\Users\jo\AppData\Local\Temp\cc67lm3z.s 			page 52


 2880 0008 43F01003 		orr	r3, r3, #16
 2881 000c 8377     		strb	r3, [r0, #30]
 2882              	.L395:
 2883              		.loc 1 297 0
 2884 000e 0121     		movs	r1, #1
 2885 0010 FFF7FEBF 		b	tcp_close_shutdown
 2886              	.LVL263:
 2887              		.cfi_endproc
 2888              	.LFE259:
 2889              		.size	tcp_close, .-tcp_close
 2890 0014 AFF30080 		.section	.text.tcp_recv_null,"ax",%progbits
 2890      AFF30080 
 2890      AFF30080 
 2891              		.align	2
 2892              		.p2align 4,,15
 2893              		.global	tcp_recv_null
 2894              		.thumb
 2895              		.thumb_func
 2896              		.type	tcp_recv_null, %function
 2897              	tcp_recv_null:
 2898              	.LFB277:
 2899              		.loc 1 1198 0
 2900              		.cfi_startproc
 2901              		@ args = 0, pretend = 0, frame = 0
 2902              		@ frame_needed = 0, uses_anonymous_args = 0
 2903              	.LVL264:
 2904              		.loc 1 1200 0
 2905 0000 52B1     		cbz	r2, .L400
 2906              		.loc 1 1198 0
 2907 0002 10B5     		push	{r4, lr}
 2908              		.cfi_def_cfa_offset 8
 2909              		.cfi_offset 4, -8
 2910              		.cfi_offset 14, -4
 2911 0004 0846     		mov	r0, r1
 2912              	.LVL265:
 2913 0006 1446     		mov	r4, r2
 2914              		.loc 1 1201 0
 2915 0008 1189     		ldrh	r1, [r2, #8]
 2916              	.LVL266:
 2917 000a FFF7FEFF 		bl	tcp_recved
 2918              	.LVL267:
 2919              		.loc 1 1202 0
 2920 000e 2046     		mov	r0, r4
 2921 0010 FFF7FEFF 		bl	pbuf_free
 2922              	.LVL268:
 2923              		.loc 1 1207 0
 2924 0014 0020     		movs	r0, #0
 2925 0016 10BD     		pop	{r4, pc}
 2926              	.LVL269:
 2927              	.L400:
 2928              		.cfi_def_cfa_offset 0
 2929              		.cfi_restore 4
 2930              		.cfi_restore 14
 2931              	.LBB187:
 2932              	.LBB188:
 2933              		.loc 1 1203 0
 2934 0018 0BB1     		cbz	r3, .L405
ARM GAS  C:\Users\jo\AppData\Local\Temp\cc67lm3z.s 			page 53


 2935              	.LBE188:
 2936              	.LBE187:
 2937              		.loc 1 1207 0
 2938 001a 0020     		movs	r0, #0
 2939              	.LVL270:
 2940 001c 7047     		bx	lr
 2941              	.LVL271:
 2942              	.L405:
 2943              	.LBB190:
 2944              	.LBB189:
 2945              		.loc 1 1204 0
 2946 001e 0846     		mov	r0, r1
 2947              	.LVL272:
 2948 0020 FFF7FEBF 		b	tcp_close
 2949              	.LVL273:
 2950              	.LBE189:
 2951              	.LBE190:
 2952              		.cfi_endproc
 2953              	.LFE277:
 2954              		.size	tcp_recv_null, .-tcp_recv_null
 2955 0024 AFF30080 		.section	.text.tcp_process_refused_data,"ax",%progbits
 2955      AFF30080 
 2955      AFF30080 
 2956              		.align	2
 2957              		.p2align 4,,15
 2958              		.global	tcp_process_refused_data
 2959              		.thumb
 2960              		.thumb_func
 2961              		.type	tcp_process_refused_data, %function
 2962              	tcp_process_refused_data:
 2963              	.LFB272:
 2964              		.loc 1 1086 0
 2965              		.cfi_startproc
 2966              		@ args = 0, pretend = 0, frame = 0
 2967              		@ frame_needed = 0, uses_anonymous_args = 0
 2968              	.LVL274:
 2969 0000 F8B5     		push	{r3, r4, r5, r6, r7, lr}
 2970              		.cfi_def_cfa_offset 24
 2971              		.cfi_offset 3, -24
 2972              		.cfi_offset 4, -20
 2973              		.cfi_offset 5, -16
 2974              		.cfi_offset 6, -12
 2975              		.cfi_offset 7, -8
 2976              		.cfi_offset 14, -4
 2977              		.loc 1 1088 0
 2978 0002 856F     		ldr	r5, [r0, #120]
 2979              		.loc 1 1095 0
 2980 0004 D0F88060 		ldr	r6, [r0, #128]
 2981              		.loc 1 1088 0
 2982 0008 6F7B     		ldrb	r7, [r5, #13]	@ zero_extendqisi2
 2983              	.LVL275:
 2984              		.loc 1 1092 0
 2985 000a 0023     		movs	r3, #0
 2986              		.loc 1 1086 0
 2987 000c 0446     		mov	r4, r0
 2988              		.loc 1 1092 0
 2989 000e 8367     		str	r3, [r0, #120]
ARM GAS  C:\Users\jo\AppData\Local\Temp\cc67lm3z.s 			page 54


 2990              		.loc 1 1095 0
 2991 0010 0EB3     		cbz	r6, .L407
 2992              		.loc 1 1095 0 is_stmt 0 discriminator 1
 2993 0012 0069     		ldr	r0, [r0, #16]
 2994              	.LVL276:
 2995 0014 2146     		mov	r1, r4
 2996 0016 2A46     		mov	r2, r5
 2997 0018 B047     		blx	r6
 2998              	.LVL277:
 2999              	.L408:
 3000              		.loc 1 1096 0 is_stmt 1
 3001 001a A8B9     		cbnz	r0, .L409
 3002              		.loc 1 1098 0
 3003 001c BB06     		lsls	r3, r7, #26
 3004 001e 10D5     		bpl	.L415
 3005              	.LVL278:
 3006              	.LBB193:
 3007              	.LBB194:
 3008              		.loc 1 1101 0
 3009 0020 A38D     		ldrh	r3, [r4, #44]
 3010              		.loc 1 1104 0
 3011 0022 D4F88050 		ldr	r5, [r4, #128]
 3012              	.LVL279:
 3013              		.loc 1 1101 0
 3014 0026 41F2D062 		movw	r2, #5840
 3015 002a 9342     		cmp	r3, r2
 3016              		.loc 1 1102 0
 3017 002c 1CBF     		itt	ne
 3018 002e 0133     		addne	r3, r3, #1
 3019 0030 A385     		strhne	r3, [r4, #44]	@ movhi
 3020              		.loc 1 1104 0
 3021 0032 35B1     		cbz	r5, .L415
 3022 0034 0022     		movs	r2, #0
 3023 0036 1346     		mov	r3, r2
 3024 0038 2069     		ldr	r0, [r4, #16]
 3025              	.LVL280:
 3026 003a 2146     		mov	r1, r4
 3027 003c A847     		blx	r5
 3028              	.LVL281:
 3029              		.loc 1 1105 0
 3030 003e 0A30     		adds	r0, r0, #10
 3031              	.LVL282:
 3032 0040 10D0     		beq	.L414
 3033              	.LVL283:
 3034              	.L415:
 3035              		.loc 1 1119 0
 3036 0042 0020     		movs	r0, #0
 3037              	.LBE194:
 3038              	.LBE193:
 3039              		.loc 1 1120 0
 3040 0044 40B2     		sxtb	r0, r0
 3041 0046 F8BD     		pop	{r3, r4, r5, r6, r7, pc}
 3042              	.LVL284:
 3043              	.L409:
 3044              		.loc 1 1109 0
 3045 0048 40B2     		sxtb	r0, r0
 3046 004a 0A30     		adds	r0, r0, #10
ARM GAS  C:\Users\jo\AppData\Local\Temp\cc67lm3z.s 			page 55


 3047              	.LVL285:
 3048 004c 0AD0     		beq	.L414
 3049              		.loc 1 1117 0
 3050 004e A567     		str	r5, [r4, #120]
 3051              		.loc 1 1119 0
 3052 0050 0020     		movs	r0, #0
 3053              	.LVL286:
 3054              	.L411:
 3055              		.loc 1 1120 0
 3056 0052 40B2     		sxtb	r0, r0
 3057 0054 F8BD     		pop	{r3, r4, r5, r6, r7, pc}
 3058              	.LVL287:
 3059              	.L407:
 3060              		.loc 1 1095 0 discriminator 2
 3061 0056 3046     		mov	r0, r6
 3062              	.LVL288:
 3063 0058 3346     		mov	r3, r6
 3064 005a 2146     		mov	r1, r4
 3065 005c 2A46     		mov	r2, r5
 3066 005e FFF7FEFF 		bl	tcp_recv_null
 3067              	.LVL289:
 3068 0062 DAE7     		b	.L408
 3069              	.LVL290:
 3070              	.L414:
 3071              	.LBB196:
 3072              	.LBB195:
 3073              		.loc 1 1106 0
 3074 0064 F620     		movs	r0, #246
 3075 0066 F4E7     		b	.L411
 3076              	.LBE195:
 3077              	.LBE196:
 3078              		.cfi_endproc
 3079              	.LFE272:
 3080              		.size	tcp_process_refused_data, .-tcp_process_refused_data
 3081 0068 AFF30080 		.section	.text.tcp_fasttmr,"ax",%progbits
 3081      AFF30080 
 3082              		.align	2
 3083              		.p2align 4,,15
 3084              		.global	tcp_fasttmr
 3085              		.thumb
 3086              		.thumb_func
 3087              		.type	tcp_fasttmr, %function
 3088              	tcp_fasttmr:
 3089              	.LFB271:
 3090              		.loc 1 1047 0
 3091              		.cfi_startproc
 3092              		@ args = 0, pretend = 0, frame = 0
 3093              		@ frame_needed = 0, uses_anonymous_args = 0
 3094 0000 2DE9F041 		push	{r4, r5, r6, r7, r8, lr}
 3095              		.cfi_def_cfa_offset 24
 3096              		.cfi_offset 4, -24
 3097              		.cfi_offset 5, -20
 3098              		.cfi_offset 6, -16
 3099              		.cfi_offset 7, -12
 3100              		.cfi_offset 8, -8
 3101              		.cfi_offset 14, -4
 3102              		.loc 1 1050 0
ARM GAS  C:\Users\jo\AppData\Local\Temp\cc67lm3z.s 			page 56


 3103 0004 174D     		ldr	r5, .L438
 3104 0006 184F     		ldr	r7, .L438+4
 3105 0008 2B78     		ldrb	r3, [r5]	@ zero_extendqisi2
 3106              	.LBB197:
 3107              		.loc 1 1071 0
 3108 000a DFF86080 		ldr	r8, .L438+8
 3109              	.LBE197:
 3110              		.loc 1 1050 0
 3111 000e 0133     		adds	r3, r3, #1
 3112 0010 2B70     		strb	r3, [r5]
 3113              	.LBB198:
 3114              		.loc 1 1071 0
 3115 0012 0026     		movs	r6, #0
 3116              	.L424:
 3117              	.LBE198:
 3118              		.loc 1 1053 0
 3119 0014 3C68     		ldr	r4, [r7]
 3120              	.LVL291:
 3121              	.L425:
 3122              		.loc 1 1055 0
 3123 0016 2CB1     		cbz	r4, .L423
 3124              		.loc 1 1056 0
 3125 0018 2B78     		ldrb	r3, [r5]	@ zero_extendqisi2
 3126 001a 94F82120 		ldrb	r2, [r4, #33]	@ zero_extendqisi2
 3127 001e 9A42     		cmp	r2, r3
 3128 0020 02D1     		bne	.L431
 3129              	.L426:
 3130 0022 FEE7     		b	.L426
 3131              	.L423:
 3132 0024 BDE8F081 		pop	{r4, r5, r6, r7, r8, pc}
 3133              	.L431:
 3134              	.LBB199:
 3135              		.loc 1 1060 0
 3136 0028 A27F     		ldrb	r2, [r4, #30]	@ zero_extendqisi2
 3137              		.loc 1 1058 0
 3138 002a 84F82130 		strb	r3, [r4, #33]
 3139              		.loc 1 1060 0
 3140 002e D307     		lsls	r3, r2, #31
 3141 0030 0DD4     		bmi	.L437
 3142              	.L427:
 3143              		.loc 1 1070 0
 3144 0032 A36F     		ldr	r3, [r4, #120]
 3145              		.loc 1 1072 0
 3146 0034 2046     		mov	r0, r4
 3147              		.loc 1 1067 0
 3148 0036 E468     		ldr	r4, [r4, #12]
 3149              	.LVL292:
 3150              		.loc 1 1070 0
 3151 0038 002B     		cmp	r3, #0
 3152 003a ECD0     		beq	.L425
 3153              		.loc 1 1071 0
 3154 003c 88F80060 		strb	r6, [r8]
 3155              		.loc 1 1072 0
 3156 0040 FFF7FEFF 		bl	tcp_process_refused_data
 3157              	.LVL293:
 3158              		.loc 1 1073 0
 3159 0044 98F80030 		ldrb	r3, [r8]	@ zero_extendqisi2
ARM GAS  C:\Users\jo\AppData\Local\Temp\cc67lm3z.s 			page 57


 3160 0048 002B     		cmp	r3, #0
 3161 004a E4D0     		beq	.L425
 3162 004c E2E7     		b	.L424
 3163              	.LVL294:
 3164              	.L437:
 3165              		.loc 1 1062 0
 3166 004e 42F00202 		orr	r2, r2, #2
 3167 0052 A277     		strb	r2, [r4, #30]
 3168              		.loc 1 1063 0
 3169 0054 2046     		mov	r0, r4
 3170 0056 FFF7FEFF 		bl	tcp_output
 3171              	.LVL295:
 3172              		.loc 1 1064 0
 3173 005a A37F     		ldrb	r3, [r4, #30]	@ zero_extendqisi2
 3174 005c 23F00303 		bic	r3, r3, #3
 3175 0060 A377     		strb	r3, [r4, #30]
 3176 0062 E6E7     		b	.L427
 3177              	.L439:
 3178              		.align	2
 3179              	.L438:
 3180 0064 00000000 		.word	.LANCHOR6
 3181 0068 00000000 		.word	.LANCHOR7
 3182 006c 00000000 		.word	.LANCHOR11
 3183              	.LBE199:
 3184              		.cfi_endproc
 3185              	.LFE271:
 3186              		.size	tcp_fasttmr, .-tcp_fasttmr
 3187              		.section	.text.tcp_tmr,"ax",%progbits
 3188              		.align	2
 3189              		.p2align 4,,15
 3190              		.global	tcp_tmr
 3191              		.thumb
 3192              		.thumb_func
 3193              		.type	tcp_tmr, %function
 3194              	tcp_tmr:
 3195              	.LFB257:
 3196              		.loc 1 142 0
 3197              		.cfi_startproc
 3198              		@ args = 0, pretend = 0, frame = 0
 3199              		@ frame_needed = 0, uses_anonymous_args = 0
 3200 0000 08B5     		push	{r3, lr}
 3201              		.cfi_def_cfa_offset 8
 3202              		.cfi_offset 3, -8
 3203              		.cfi_offset 14, -4
 3204              		.loc 1 144 0
 3205 0002 FFF7FEFF 		bl	tcp_fasttmr
 3206              	.LVL296:
 3207              		.loc 1 146 0
 3208 0006 064A     		ldr	r2, .L444
 3209 0008 1378     		ldrb	r3, [r2]	@ zero_extendqisi2
 3210 000a 0133     		adds	r3, r3, #1
 3211 000c DBB2     		uxtb	r3, r3
 3212 000e 1370     		strb	r3, [r2]
 3213 0010 DB07     		lsls	r3, r3, #31
 3214 0012 00D4     		bmi	.L443
 3215 0014 08BD     		pop	{r3, pc}
 3216              	.L443:
ARM GAS  C:\Users\jo\AppData\Local\Temp\cc67lm3z.s 			page 58


 3217              		.loc 1 151 0
 3218 0016 BDE80840 		pop	{r3, lr}
 3219              		.cfi_restore 14
 3220              		.cfi_restore 3
 3221              		.cfi_def_cfa_offset 0
 3222              		.loc 1 149 0
 3223 001a FFF7FEBF 		b	tcp_slowtmr
 3224              	.LVL297:
 3225              	.L445:
 3226 001e 00BF     		.align	2
 3227              	.L444:
 3228 0020 00000000 		.word	.LANCHOR12
 3229              		.cfi_endproc
 3230              	.LFE257:
 3231              		.size	tcp_tmr, .-tcp_tmr
 3232 0024 AFF30080 		.section	.text.tcp_shutdown,"ax",%progbits
 3232      AFF30080 
 3232      AFF30080 
 3233              		.align	2
 3234              		.p2align 4,,15
 3235              		.global	tcp_shutdown
 3236              		.thumb
 3237              		.thumb_func
 3238              		.type	tcp_shutdown, %function
 3239              	tcp_shutdown:
 3240              	.LFB260:
 3241              		.loc 1 314 0
 3242              		.cfi_startproc
 3243              		@ args = 0, pretend = 0, frame = 0
 3244              		@ frame_needed = 0, uses_anonymous_args = 0
 3245              	.LVL298:
 3246 0000 38B5     		push	{r3, r4, r5, lr}
 3247              		.cfi_def_cfa_offset 16
 3248              		.cfi_offset 3, -16
 3249              		.cfi_offset 4, -12
 3250              		.cfi_offset 5, -8
 3251              		.cfi_offset 14, -4
 3252              		.loc 1 315 0
 3253 0002 037E     		ldrb	r3, [r0, #24]	@ zero_extendqisi2
 3254 0004 012B     		cmp	r3, #1
 3255              		.loc 1 314 0
 3256 0006 0546     		mov	r5, r0
 3257              		.loc 1 315 0
 3258 0008 23D0     		beq	.L454
 3259              		.loc 1 318 0
 3260 000a 69B1     		cbz	r1, .L448
 3261              		.loc 1 320 0
 3262 000c 837F     		ldrb	r3, [r0, #30]	@ zero_extendqisi2
 3263 000e 43F01003 		orr	r3, r3, #16
 3264 0012 8377     		strb	r3, [r0, #30]
 3265              		.loc 1 321 0
 3266 0014 C2B9     		cbnz	r2, .L460
 3267              		.loc 1 326 0
 3268 0016 806F     		ldr	r0, [r0, #120]
 3269              	.LVL299:
 3270 0018 18B1     		cbz	r0, .L450
 3271 001a 1446     		mov	r4, r2
ARM GAS  C:\Users\jo\AppData\Local\Temp\cc67lm3z.s 			page 59


 3272              		.loc 1 327 0
 3273 001c FFF7FEFF 		bl	pbuf_free
 3274              	.LVL300:
 3275              		.loc 1 328 0
 3276 0020 AC67     		str	r4, [r5, #120]
 3277              	.LVL301:
 3278              	.L450:
 3279              		.loc 1 345 0
 3280 0022 0020     		movs	r0, #0
 3281              	.L447:
 3282 0024 40B2     		sxtb	r0, r0
 3283              		.loc 1 346 0
 3284 0026 38BD     		pop	{r3, r4, r5, pc}
 3285              	.LVL302:
 3286              	.L448:
 3287              		.loc 1 331 0
 3288 0028 002A     		cmp	r2, #0
 3289 002a FAD0     		beq	.L450
 3290 002c 033B     		subs	r3, r3, #3
 3291 002e DBB2     		uxtb	r3, r3
 3292 0030 042B     		cmp	r3, #4
 3293 0032 0ED8     		bhi	.L454
 3294 0034 0122     		movs	r2, #1
 3295              	.LVL303:
 3296 0036 02FA03F3 		lsl	r3, r2, r3
 3297 003a 13F0130F 		tst	r3, #19
 3298 003e 08D0     		beq	.L454
 3299              		.loc 1 346 0
 3300 0040 BDE83840 		pop	{r3, r4, r5, lr}
 3301              		.cfi_remember_state
 3302              		.cfi_restore 14
 3303              		.cfi_restore 5
 3304              		.cfi_restore 4
 3305              		.cfi_restore 3
 3306              		.cfi_def_cfa_offset 0
 3307              		.loc 1 338 0
 3308 0044 FFF7FEBF 		b	tcp_close_shutdown
 3309              	.LVL304:
 3310              	.L460:
 3311              		.cfi_restore_state
 3312              		.loc 1 323 0
 3313 0048 0121     		movs	r1, #1
 3314              	.LVL305:
 3315              		.loc 1 346 0
 3316 004a BDE83840 		pop	{r3, r4, r5, lr}
 3317              		.cfi_remember_state
 3318              		.cfi_restore 14
 3319              		.cfi_restore 5
 3320              		.cfi_restore 4
 3321              		.cfi_restore 3
 3322              		.cfi_def_cfa_offset 0
 3323              		.loc 1 323 0
 3324 004e FFF7FEBF 		b	tcp_close_shutdown
 3325              	.LVL306:
 3326              	.L454:
 3327              		.cfi_restore_state
 3328              		.loc 1 316 0
ARM GAS  C:\Users\jo\AppData\Local\Temp\cc67lm3z.s 			page 60


 3329 0052 F320     		movs	r0, #243
 3330              	.LVL307:
 3331 0054 E6E7     		b	.L447
 3332              		.cfi_endproc
 3333              	.LFE260:
 3334              		.size	tcp_shutdown, .-tcp_shutdown
 3335 0056 00BFAFF3 		.section	.text.tcp_abandon,"ax",%progbits
 3335      0080AFF3 
 3335      0080
 3336              		.align	2
 3337              		.p2align 4,,15
 3338              		.global	tcp_abandon
 3339              		.thumb
 3340              		.thumb_func
 3341              		.type	tcp_abandon, %function
 3342              	tcp_abandon:
 3343              	.LFB261:
 3344              		.loc 1 358 0
 3345              		.cfi_startproc
 3346              		@ args = 0, pretend = 0, frame = 0
 3347              		@ frame_needed = 0, uses_anonymous_args = 0
 3348              	.LVL308:
 3349 0000 2DE9F047 		push	{r4, r5, r6, r7, r8, r9, r10, lr}
 3350              		.cfi_def_cfa_offset 32
 3351              		.cfi_offset 4, -32
 3352              		.cfi_offset 5, -28
 3353              		.cfi_offset 6, -24
 3354              		.cfi_offset 7, -20
 3355              		.cfi_offset 8, -16
 3356              		.cfi_offset 9, -12
 3357              		.cfi_offset 10, -8
 3358              		.cfi_offset 14, -4
 3359              		.loc 1 366 0
 3360 0004 037E     		ldrb	r3, [r0, #24]	@ zero_extendqisi2
 3361 0006 012B     		cmp	r3, #1
 3362              		.loc 1 358 0
 3363 0008 82B0     		sub	sp, sp, #8
 3364              		.cfi_def_cfa_offset 40
 3365              		.loc 1 358 0
 3366 000a 0446     		mov	r4, r0
 3367 000c 0E46     		mov	r6, r1
 3368              		.loc 1 366 0
 3369 000e 53D0     		beq	.L481
 3370              	.LVL309:
 3371              	.L462:
 3372              		.loc 1 371 0
 3373 0010 0A2B     		cmp	r3, #10
 3374 0012 47D0     		beq	.L482
 3375              		.loc 1 381 0
 3376 0014 2F48     		ldr	r0, .L485
 3377              		.loc 1 375 0
 3378 0016 D4F85090 		ldr	r9, [r4, #80]
 3379              	.LVL310:
 3380              		.loc 1 376 0
 3381 001a D4F82880 		ldr	r8, [r4, #40]
 3382              	.LVL311:
 3383              		.loc 1 378 0
ARM GAS  C:\Users\jo\AppData\Local\Temp\cc67lm3z.s 			page 61


 3384 001e D4F88C50 		ldr	r5, [r4, #140]
 3385              	.LVL312:
 3386              		.loc 1 380 0
 3387 0022 2769     		ldr	r7, [r4, #16]
 3388              	.LVL313:
 3389              		.loc 1 381 0
 3390 0024 2146     		mov	r1, r4
 3391 0026 FFF7FEFF 		bl	tcp_pcb_remove
 3392              	.LVL314:
 3393 002a 2B4B     		ldr	r3, .L485+4
 3394              		.loc 1 382 0
 3395 002c 206F     		ldr	r0, [r4, #112]
 3396              		.loc 1 381 0
 3397 002e 0122     		movs	r2, #1
 3398 0030 1A70     		strb	r2, [r3]
 3399              		.loc 1 382 0
 3400 0032 30B1     		cbz	r0, .L468
 3401              	.L467:
 3402              	.LVL315:
 3403              	.LBB200:
 3404              	.LBB201:
 3405              	.LBB202:
 3406              		.loc 1 1131 0
 3407 0034 D0F800A0 		ldr	r10, [r0]
 3408              	.LVL316:
 3409              		.loc 1 1132 0
 3410 0038 FFF7FEFF 		bl	tcp_seg_free
 3411              	.LVL317:
 3412              	.LBE202:
 3413              		.loc 1 1130 0
 3414 003c 5046     		mov	r0, r10
 3415 003e 0028     		cmp	r0, #0
 3416 0040 F8D1     		bne	.L467
 3417              	.LVL318:
 3418              	.L468:
 3419              	.LBE201:
 3420              	.LBE200:
 3421              		.loc 1 385 0
 3422 0042 E06E     		ldr	r0, [r4, #108]
 3423 0044 30B1     		cbz	r0, .L466
 3424              	.L471:
 3425              	.LVL319:
 3426              	.LBB203:
 3427              	.LBB204:
 3428              	.LBB205:
 3429              		.loc 1 1131 0
 3430 0046 D0F800A0 		ldr	r10, [r0]
 3431              	.LVL320:
 3432              		.loc 1 1132 0
 3433 004a FFF7FEFF 		bl	tcp_seg_free
 3434              	.LVL321:
 3435              	.LBE205:
 3436              		.loc 1 1130 0
 3437 004e 5046     		mov	r0, r10
 3438 0050 0028     		cmp	r0, #0
 3439 0052 F8D1     		bne	.L471
 3440              	.LVL322:
ARM GAS  C:\Users\jo\AppData\Local\Temp\cc67lm3z.s 			page 62


 3441              	.L466:
 3442              	.LBE204:
 3443              	.LBE203:
 3444              		.loc 1 389 0
 3445 0054 606F     		ldr	r0, [r4, #116]
 3446 0056 30B1     		cbz	r0, .L470
 3447              	.L474:
 3448              	.LVL323:
 3449              	.LBB206:
 3450              	.LBB207:
 3451              	.LBB208:
 3452              		.loc 1 1131 0
 3453 0058 D0F800A0 		ldr	r10, [r0]
 3454              	.LVL324:
 3455              		.loc 1 1132 0
 3456 005c FFF7FEFF 		bl	tcp_seg_free
 3457              	.LVL325:
 3458              	.LBE208:
 3459              		.loc 1 1130 0
 3460 0060 5046     		mov	r0, r10
 3461 0062 0028     		cmp	r0, #0
 3462 0064 F8D1     		bne	.L474
 3463              	.LVL326:
 3464              	.L470:
 3465              	.LBE207:
 3466              	.LBE206:
 3467              		.loc 1 393 0
 3468 0066 5EB9     		cbnz	r6, .L483
 3469              		.loc 1 397 0
 3470 0068 2046     		mov	r0, r4
 3471 006a FFF7FEFF 		bl	free
 3472              	.LVL327:
 3473              		.loc 1 398 0
 3474 006e B5B1     		cbz	r5, .L461
 3475              	.L484:
 3476              		.loc 1 398 0 is_stmt 0 discriminator 1
 3477 0070 3846     		mov	r0, r7
 3478 0072 6FF00901 		mvn	r1, #9
 3479 0076 2B46     		mov	r3, r5
 3480              		.loc 1 400 0 is_stmt 1 discriminator 1
 3481 0078 02B0     		add	sp, sp, #8
 3482              		.cfi_remember_state
 3483              		.cfi_def_cfa_offset 32
 3484              		@ sp needed
 3485 007a BDE8F047 		pop	{r4, r5, r6, r7, r8, r9, r10, lr}
 3486              		.cfi_restore 14
 3487              		.cfi_restore 10
 3488              		.cfi_restore 9
 3489              		.cfi_restore 8
 3490              		.cfi_restore 7
 3491              		.cfi_restore 6
 3492              		.cfi_restore 5
 3493              		.cfi_restore 4
 3494              		.cfi_def_cfa_offset 0
 3495              	.LVL328:
 3496              		.loc 1 398 0 discriminator 1
 3497 007e 1847     		bx	r3	@ indirect register sibling call
ARM GAS  C:\Users\jo\AppData\Local\Temp\cc67lm3z.s 			page 63


 3498              	.LVL329:
 3499              	.L483:
 3500              		.cfi_restore_state
 3501              		.loc 1 395 0
 3502 0080 628B     		ldrh	r2, [r4, #26]
 3503 0082 A38B     		ldrh	r3, [r4, #28]
 3504 0084 0193     		str	r3, [sp, #4]
 3505 0086 0092     		str	r2, [sp]
 3506 0088 4846     		mov	r0, r9
 3507 008a 4146     		mov	r1, r8
 3508 008c 2246     		mov	r2, r4
 3509 008e 231D     		adds	r3, r4, #4
 3510 0090 FFF7FEFF 		bl	tcp_rst
 3511              	.LVL330:
 3512              		.loc 1 397 0
 3513 0094 2046     		mov	r0, r4
 3514 0096 FFF7FEFF 		bl	free
 3515              	.LVL331:
 3516              		.loc 1 398 0
 3517 009a 002D     		cmp	r5, #0
 3518 009c E8D1     		bne	.L484
 3519              	.L461:
 3520              		.loc 1 400 0
 3521 009e 02B0     		add	sp, sp, #8
 3522              		.cfi_remember_state
 3523              		.cfi_def_cfa_offset 32
 3524              		@ sp needed
 3525 00a0 BDE8F087 		pop	{r4, r5, r6, r7, r8, r9, r10, pc}
 3526              	.LVL332:
 3527              	.L482:
 3528              		.cfi_restore_state
 3529              		.loc 1 372 0
 3530 00a4 0D48     		ldr	r0, .L485+8
 3531 00a6 2146     		mov	r1, r4
 3532 00a8 FFF7FEFF 		bl	tcp_pcb_remove
 3533              	.LVL333:
 3534              		.loc 1 373 0
 3535 00ac 2046     		mov	r0, r4
 3536              		.loc 1 400 0
 3537 00ae 02B0     		add	sp, sp, #8
 3538              		.cfi_remember_state
 3539              		.cfi_def_cfa_offset 32
 3540              		@ sp needed
 3541 00b0 BDE8F047 		pop	{r4, r5, r6, r7, r8, r9, r10, lr}
 3542              		.cfi_restore 14
 3543              		.cfi_restore 10
 3544              		.cfi_restore 9
 3545              		.cfi_restore 8
 3546              		.cfi_restore 7
 3547              		.cfi_restore 6
 3548              		.cfi_restore 5
 3549              		.cfi_restore 4
 3550              		.cfi_def_cfa_offset 0
 3551              	.LVL334:
 3552              		.loc 1 373 0
 3553 00b4 FFF7FEBF 		b	free
 3554              	.LVL335:
ARM GAS  C:\Users\jo\AppData\Local\Temp\cc67lm3z.s 			page 64


 3555              	.L481:
 3556              		.cfi_restore_state
 3557              		.loc 1 366 0 discriminator 1
 3558 00b8 094B     		ldr	r3, .L485+12
 3559 00ba 0093     		str	r3, [sp]
 3560 00bc 0949     		ldr	r1, .L485+16
 3561              	.LVL336:
 3562 00be 0A4A     		ldr	r2, .L485+20
 3563 00c0 0A48     		ldr	r0, .L485+24
 3564              	.LVL337:
 3565 00c2 40F26F13 		movw	r3, #367
 3566 00c6 FFF7FEFF 		bl	chprintf.constprop.4
 3567              	.LVL338:
 3568              	.LBB209:
 3569              	.LBB210:
 3570              		.loc 3 414 0 discriminator 1
 3571 00ca 0748     		ldr	r0, .L485+20
 3572 00cc FFF7FEFF 		bl	chSysHalt
 3573              	.LVL339:
 3574 00d0 237E     		ldrb	r3, [r4, #24]	@ zero_extendqisi2
 3575 00d2 9DE7     		b	.L462
 3576              	.L486:
 3577              		.align	2
 3578              	.L485:
 3579 00d4 00000000 		.word	.LANCHOR7
 3580 00d8 00000000 		.word	.LANCHOR11
 3581 00dc 00000000 		.word	.LANCHOR8
 3582 00e0 50000000 		.word	.LC2
 3583 00e4 00000000 		.word	.LC0
 3584 00e8 68030000 		.word	.LC23
 3585 00ec 00000000 		.word	itm_port
 3586              	.LBE210:
 3587              	.LBE209:
 3588              		.cfi_endproc
 3589              	.LFE261:
 3590              		.size	tcp_abandon, .-tcp_abandon
 3591              		.section	.text.tcp_abort,"ax",%progbits
 3592              		.align	2
 3593              		.p2align 4,,15
 3594              		.global	tcp_abort
 3595              		.thumb
 3596              		.thumb_func
 3597              		.type	tcp_abort, %function
 3598              	tcp_abort:
 3599              	.LFB262:
 3600              		.loc 1 414 0
 3601              		.cfi_startproc
 3602              		@ args = 0, pretend = 0, frame = 0
 3603              		@ frame_needed = 0, uses_anonymous_args = 0
 3604              		@ link register save eliminated.
 3605              	.LVL340:
 3606              		.loc 1 415 0
 3607 0000 0121     		movs	r1, #1
 3608 0002 FFF7FEBF 		b	tcp_abandon
 3609              	.LVL341:
 3610              		.cfi_endproc
 3611              	.LFE262:
ARM GAS  C:\Users\jo\AppData\Local\Temp\cc67lm3z.s 			page 65


 3612              		.size	tcp_abort, .-tcp_abort
 3613 0006 00BFAFF3 		.section	.text.tcp_alloc,"ax",%progbits
 3613      0080AFF3 
 3613      0080
 3614              		.align	2
 3615              		.p2align 4,,15
 3616              		.global	tcp_alloc
 3617              		.thumb
 3618              		.thumb_func
 3619              		.type	tcp_alloc, %function
 3620              	tcp_alloc:
 3621              	.LFB280:
 3622              		.loc 1 1279 0
 3623              		.cfi_startproc
 3624              		@ args = 0, pretend = 0, frame = 0
 3625              		@ frame_needed = 0, uses_anonymous_args = 0
 3626              	.LVL342:
 3627 0000 2DE9F84F 		push	{r3, r4, r5, r6, r7, r8, r9, r10, fp, lr}
 3628              		.cfi_def_cfa_offset 40
 3629              		.cfi_offset 3, -40
 3630              		.cfi_offset 4, -36
 3631              		.cfi_offset 5, -32
 3632              		.cfi_offset 6, -28
 3633              		.cfi_offset 7, -24
 3634              		.cfi_offset 8, -20
 3635              		.cfi_offset 9, -16
 3636              		.cfi_offset 10, -12
 3637              		.cfi_offset 11, -8
 3638              		.cfi_offset 14, -4
 3639              		.loc 1 1283 0
 3640 0004 444B     		ldr	r3, .L513
 3641 0006 5D88     		ldrh	r5, [r3, #2]
 3642              		.loc 1 1279 0
 3643 0008 0746     		mov	r7, r0
 3644              		.loc 1 1283 0
 3645 000a 2846     		mov	r0, r5
 3646              	.LVL343:
 3647 000c FFF7FEFF 		bl	malloc
 3648              	.LVL344:
 3649              		.loc 1 1284 0
 3650 0010 0446     		mov	r4, r0
 3651 0012 0028     		cmp	r0, #0
 3652 0014 43D0     		beq	.L512
 3653              	.L498:
 3654              		.loc 1 1307 0
 3655 0016 0021     		movs	r1, #0
 3656 0018 9822     		movs	r2, #152
 3657 001a 2046     		mov	r0, r4
 3658 001c FFF7FEFF 		bl	memset
 3659              	.LVL345:
 3660              	.LBB221:
 3661              	.LBB222:
 3662              		.loc 1 1575 0
 3663 0020 3E4D     		ldr	r5, .L513+4
 3664 0022 3F4B     		ldr	r3, .L513+8
 3665              	.LBE222:
 3666              	.LBE221:
ARM GAS  C:\Users\jo\AppData\Local\Temp\cc67lm3z.s 			page 66


 3667              		.loc 1 1329 0
 3668 0024 3F4A     		ldr	r2, .L513+12
 3669              	.LBB226:
 3670              	.LBB223:
 3671              		.loc 1 1575 0
 3672 0026 1E68     		ldr	r6, [r3]
 3673 0028 2B68     		ldr	r3, [r5]
 3674              	.LBE223:
 3675              	.LBE226:
 3676              		.loc 1 1329 0
 3677 002a 92F80090 		ldrb	r9, [r2]	@ zero_extendqisi2
 3678              		.loc 1 1334 0
 3679 002e DFF800C1 		ldr	ip, .L513+24
 3680              		.loc 1 1338 0
 3681 0032 DFF800E1 		ldr	lr, .L513+28
 3682              		.loc 1 1308 0
 3683 0036 6776     		strb	r7, [r4, #25]
 3684              	.LBB227:
 3685              	.LBB224:
 3686              		.loc 1 1575 0
 3687 0038 3344     		add	r3, r3, r6
 3688              	.LBE224:
 3689              	.LBE227:
 3690              		.loc 1 1310 0
 3691 003a 0022     		movs	r2, #0
 3692              		.loc 1 1309 0
 3693 003c 41F2D061 		movw	r1, #5840
 3694              		.loc 1 1318 0
 3695 0040 0620     		movs	r0, #6
 3696              		.loc 1 1314 0
 3697 0042 4FF0FF0B 		mov	fp, #255
 3698              		.loc 1 1317 0
 3699 0046 4FF4067A 		mov	r10, #536
 3700              		.loc 1 1321 0
 3701 004a 4FF6FF78 		movw	r8, #65535
 3702              		.loc 1 1322 0
 3703 004e 0127     		movs	r7, #1
 3704              		.loc 1 1328 0
 3705 0050 6662     		str	r6, [r4, #36]
 3706              	.LBB228:
 3707              	.LBB225:
 3708              		.loc 1 1575 0
 3709 0052 2B60     		str	r3, [r5]
 3710              	.LBE225:
 3711              	.LBE228:
 3712              		.loc 1 1324 0
 3713 0054 A365     		str	r3, [r4, #88]
 3714              		.loc 1 1325 0
 3715 0056 2365     		str	r3, [r4, #80]
 3716              		.loc 1 1326 0
 3717 0058 A364     		str	r3, [r4, #72]
 3718              		.loc 1 1327 0
 3719 005a E365     		str	r3, [r4, #92]
 3720              		.loc 1 1329 0
 3721 005c 84F82190 		strb	r9, [r4, #33]
 3722              		.loc 1 1309 0
 3723 0060 A4F86610 		strh	r1, [r4, #102]	@ movhi
ARM GAS  C:\Users\jo\AppData\Local\Temp\cc67lm3z.s 			page 67


 3724              		.loc 1 1311 0
 3725 0064 A185     		strh	r1, [r4, #44]	@ movhi
 3726              		.loc 1 1312 0
 3727 0066 E185     		strh	r1, [r4, #46]	@ movhi
 3728              		.loc 1 1310 0
 3729 0068 A4F86820 		strh	r2, [r4, #104]	@ movhi
 3730              		.loc 1 1313 0
 3731 006c 6272     		strb	r2, [r4, #9]
 3732              		.loc 1 1319 0
 3733 006e A4F84020 		strh	r2, [r4, #64]	@ movhi
 3734              		.loc 1 1331 0
 3735 0072 E277     		strb	r2, [r4, #31]
 3736              		.loc 1 1345 0
 3737 0074 84F89620 		strb	r2, [r4, #150]
 3738              		.loc 1 1314 0
 3739 0078 84F80AB0 		strb	fp, [r4, #10]
 3740              		.loc 1 1317 0
 3741 007c A4F836A0 		strh	r10, [r4, #54]	@ movhi
 3742              		.loc 1 1318 0
 3743 0080 A4F84400 		strh	r0, [r4, #68]	@ movhi
 3744              		.loc 1 1320 0
 3745 0084 A4F84200 		strh	r0, [r4, #66]	@ movhi
 3746              		.loc 1 1321 0
 3747 0088 A4F83480 		strh	r8, [r4, #52]	@ movhi
 3748              		.loc 1 1322 0
 3749 008c A4F84C70 		strh	r7, [r4, #76]	@ movhi
 3750              		.loc 1 1334 0
 3751 0090 C4F880C0 		str	ip, [r4, #128]
 3752              		.loc 1 1338 0
 3753 0094 C4F890E0 		str	lr, [r4, #144]
 3754              	.L503:
 3755              		.loc 1 1348 0
 3756 0098 2046     		mov	r0, r4
 3757 009a BDE8F88F 		pop	{r3, r4, r5, r6, r7, r8, r9, r10, fp, pc}
 3758              	.LVL346:
 3759              	.L512:
 3760              	.LBB229:
 3761              	.LBB230:
 3762              		.loc 1 1258 0
 3763 009e 224B     		ldr	r3, .L513+16
 3764 00a0 1868     		ldr	r0, [r3]
 3765              	.LVL347:
 3766 00a2 88B1     		cbz	r0, .L491
 3767              		.loc 1 1259 0
 3768 00a4 1E4B     		ldr	r3, .L513+8
 3769 00a6 416A     		ldr	r1, [r0, #36]
 3770 00a8 1C68     		ldr	r4, [r3]
 3771              	.LVL348:
 3772 00aa 0346     		mov	r3, r0
 3773 00ac 611A     		subs	r1, r4, r1
 3774 00ae 05E0     		b	.L499
 3775              	.LVL349:
 3776              	.L493:
 3777 00b0 5A6A     		ldr	r2, [r3, #36]
 3778 00b2 A21A     		subs	r2, r4, r2
 3779 00b4 8A42     		cmp	r2, r1
 3780 00b6 24BF     		itt	cs
ARM GAS  C:\Users\jo\AppData\Local\Temp\cc67lm3z.s 			page 68


 3781 00b8 1146     		movcs	r1, r2
 3782              	.LVL350:
 3783 00ba 1846     		movcs	r0, r3
 3784              	.L499:
 3785              	.LVL351:
 3786              		.loc 1 1258 0
 3787 00bc DB68     		ldr	r3, [r3, #12]
 3788              	.LVL352:
 3789 00be 002B     		cmp	r3, #0
 3790 00c0 F6D1     		bne	.L493
 3791              	.LVL353:
 3792              	.LBB231:
 3793              	.LBB232:
 3794              		.loc 1 415 0
 3795 00c2 0121     		movs	r1, #1
 3796              	.LVL354:
 3797 00c4 FFF7FEFF 		bl	tcp_abandon
 3798              	.LVL355:
 3799              	.L491:
 3800              	.LBE232:
 3801              	.LBE231:
 3802              	.LBE230:
 3803              	.LBE229:
 3804              		.loc 1 1289 0
 3805 00c8 2846     		mov	r0, r5
 3806 00ca FFF7FEFF 		bl	malloc
 3807              	.LVL356:
 3808              		.loc 1 1290 0
 3809 00ce 0446     		mov	r4, r0
 3810 00d0 0028     		cmp	r0, #0
 3811 00d2 A0D1     		bne	.L498
 3812              	.LVL357:
 3813              	.LBB233:
 3814              	.LBB234:
 3815              		.loc 1 1229 0
 3816 00d4 154B     		ldr	r3, .L513+20
 3817 00d6 1B68     		ldr	r3, [r3]
 3818              	.LVL358:
 3819 00d8 BBB1     		cbz	r3, .L494
 3820              		.loc 1 1232 0
 3821 00da 114A     		ldr	r2, .L513+8
 3822 00dc D2F800E0 		ldr	lr, [r2]
 3823 00e0 7F26     		movs	r6, #127
 3824              	.LVL359:
 3825              	.L496:
 3826              		.loc 1 1230 0
 3827 00e2 5A7E     		ldrb	r2, [r3, #25]	@ zero_extendqisi2
 3828 00e4 9742     		cmp	r7, r2
 3829 00e6 09D3     		bcc	.L495
 3830 00e8 B242     		cmp	r2, r6
 3831 00ea 07D8     		bhi	.L495
 3832              		.loc 1 1232 0
 3833 00ec 596A     		ldr	r1, [r3, #36]
 3834 00ee C1EB0E01 		rsb	r1, r1, lr
 3835              		.loc 1 1231 0
 3836 00f2 A142     		cmp	r1, r4
 3837 00f4 02D3     		bcc	.L495
ARM GAS  C:\Users\jo\AppData\Local\Temp\cc67lm3z.s 			page 69


 3838 00f6 1646     		mov	r6, r2
 3839              	.LVL360:
 3840 00f8 0C46     		mov	r4, r1
 3841              	.LVL361:
 3842 00fa 1846     		mov	r0, r3
 3843              	.L495:
 3844              	.LVL362:
 3845              		.loc 1 1229 0
 3846 00fc DB68     		ldr	r3, [r3, #12]
 3847              	.LVL363:
 3848 00fe 002B     		cmp	r3, #0
 3849 0100 EFD1     		bne	.L496
 3850              		.loc 1 1238 0
 3851 0102 10B1     		cbz	r0, .L494
 3852              	.LVL364:
 3853              	.LBB235:
 3854              	.LBB236:
 3855              		.loc 1 415 0
 3856 0104 0121     		movs	r1, #1
 3857 0106 FFF7FEFF 		bl	tcp_abandon
 3858              	.LVL365:
 3859              	.L494:
 3860              	.LBE236:
 3861              	.LBE235:
 3862              	.LBE234:
 3863              	.LBE233:
 3864              		.loc 1 1295 0
 3865 010a 2846     		mov	r0, r5
 3866 010c FFF7FEFF 		bl	malloc
 3867              	.LVL366:
 3868              		.loc 1 1306 0
 3869 0110 0446     		mov	r4, r0
 3870 0112 0028     		cmp	r0, #0
 3871 0114 C0D0     		beq	.L503
 3872 0116 7EE7     		b	.L498
 3873              	.L514:
 3874              		.align	2
 3875              	.L513:
 3876 0118 00000000 		.word	memp_sizes
 3877 011c 00000000 		.word	.LANCHOR13
 3878 0120 00000000 		.word	.LANCHOR5
 3879 0124 00000000 		.word	.LANCHOR6
 3880 0128 00000000 		.word	.LANCHOR8
 3881 012c 00000000 		.word	.LANCHOR7
 3882 0130 00000000 		.word	tcp_recv_null
 3883 0134 00DD6D00 		.word	7200000
 3884              		.cfi_endproc
 3885              	.LFE280:
 3886              		.size	tcp_alloc, .-tcp_alloc
 3887 0138 AFF30080 		.section	.text.tcp_new,"ax",%progbits
 3887      AFF30080 
 3888              		.align	2
 3889              		.p2align 4,,15
 3890              		.global	tcp_new
 3891              		.thumb
 3892              		.thumb_func
 3893              		.type	tcp_new, %function
ARM GAS  C:\Users\jo\AppData\Local\Temp\cc67lm3z.s 			page 70


 3894              	tcp_new:
 3895              	.LFB281:
 3896              		.loc 1 1364 0
 3897              		.cfi_startproc
 3898              		@ args = 0, pretend = 0, frame = 0
 3899              		@ frame_needed = 0, uses_anonymous_args = 0
 3900              		@ link register save eliminated.
 3901              		.loc 1 1365 0
 3902 0000 4020     		movs	r0, #64
 3903 0002 FFF7FEBF 		b	tcp_alloc
 3904              	.LVL367:
 3905              		.cfi_endproc
 3906              	.LFE281:
 3907              		.size	tcp_new, .-tcp_new
 3908 0006 00BFAFF3 		.section	.text.tcp_next_iss,"ax",%progbits
 3908      0080AFF3 
 3908      0080
 3909              		.align	2
 3910              		.p2align 4,,15
 3911              		.global	tcp_next_iss
 3912              		.thumb
 3913              		.thumb_func
 3914              		.type	tcp_next_iss, %function
 3915              	tcp_next_iss:
 3916              	.LFB290:
 3917              		.loc 1 1572 0
 3918              		.cfi_startproc
 3919              		@ args = 0, pretend = 0, frame = 0
 3920              		@ frame_needed = 0, uses_anonymous_args = 0
 3921              		@ link register save eliminated.
 3922              		.loc 1 1575 0
 3923 0000 034A     		ldr	r2, .L517
 3924 0002 044B     		ldr	r3, .L517+4
 3925 0004 1868     		ldr	r0, [r3]
 3926 0006 1368     		ldr	r3, [r2]
 3927 0008 1844     		add	r0, r0, r3
 3928 000a 1060     		str	r0, [r2]
 3929              		.loc 1 1577 0
 3930 000c 7047     		bx	lr
 3931              	.L518:
 3932 000e 00BF     		.align	2
 3933              	.L517:
 3934 0010 00000000 		.word	.LANCHOR13
 3935 0014 00000000 		.word	.LANCHOR5
 3936              		.cfi_endproc
 3937              	.LFE290:
 3938              		.size	tcp_next_iss, .-tcp_next_iss
 3939 0018 AFF30080 		.section	.text.tcp_eff_send_mss,"ax",%progbits
 3939      AFF30080 
 3940              		.align	2
 3941              		.p2align 4,,15
 3942              		.global	tcp_eff_send_mss
 3943              		.thumb
 3944              		.thumb_func
 3945              		.type	tcp_eff_send_mss, %function
 3946              	tcp_eff_send_mss:
 3947              	.LFB291:
ARM GAS  C:\Users\jo\AppData\Local\Temp\cc67lm3z.s 			page 71


 3948              		.loc 1 1587 0
 3949              		.cfi_startproc
 3950              		@ args = 0, pretend = 0, frame = 0
 3951              		@ frame_needed = 0, uses_anonymous_args = 0
 3952              	.LVL368:
 3953 0000 10B5     		push	{r4, lr}
 3954              		.cfi_def_cfa_offset 8
 3955              		.cfi_offset 4, -8
 3956              		.cfi_offset 14, -4
 3957              		.loc 1 1587 0
 3958 0002 0446     		mov	r4, r0
 3959              		.loc 1 1591 0
 3960 0004 0846     		mov	r0, r1
 3961              	.LVL369:
 3962 0006 FFF7FEFF 		bl	ip_route
 3963              	.LVL370:
 3964              		.loc 1 1592 0
 3965 000a 30B1     		cbz	r0, .L520
 3966              		.loc 1 1592 0 is_stmt 0 discriminator 1
 3967 000c 038C     		ldrh	r3, [r0, #32]
 3968 000e 23B1     		cbz	r3, .L520
 3969              	.LVL371:
 3970              		.loc 1 1593 0 is_stmt 1
 3971 0010 283B     		subs	r3, r3, #40
 3972              	.LVL372:
 3973              		.loc 1 1598 0
 3974 0012 9BB2     		uxth	r3, r3
 3975              	.LVL373:
 3976 0014 9C42     		cmp	r4, r3
 3977 0016 28BF     		it	cs
 3978 0018 1C46     		movcs	r4, r3
 3979              	.LVL374:
 3980              	.L520:
 3981              		.loc 1 1601 0
 3982 001a 2046     		mov	r0, r4
 3983              	.LVL375:
 3984 001c 10BD     		pop	{r4, pc}
 3985              		.cfi_endproc
 3986              	.LFE291:
 3987              		.size	tcp_eff_send_mss, .-tcp_eff_send_mss
 3988 001e 00BF     		.section	.text.tcp_connect,"ax",%progbits
 3989              		.align	2
 3990              		.p2align 4,,15
 3991              		.global	tcp_connect
 3992              		.thumb
 3993              		.thumb_func
 3994              		.type	tcp_connect, %function
 3995              	tcp_connect:
 3996              	.LFB269:
 3997              		.loc 1 686 0
 3998              		.cfi_startproc
 3999              		@ args = 0, pretend = 0, frame = 0
 4000              		@ frame_needed = 0, uses_anonymous_args = 0
 4001              	.LVL376:
 4002 0000 2DE9F041 		push	{r4, r5, r6, r7, r8, lr}
 4003              		.cfi_def_cfa_offset 24
 4004              		.cfi_offset 4, -24
ARM GAS  C:\Users\jo\AppData\Local\Temp\cc67lm3z.s 			page 72


 4005              		.cfi_offset 5, -20
 4006              		.cfi_offset 6, -16
 4007              		.cfi_offset 7, -12
 4008              		.cfi_offset 8, -8
 4009              		.cfi_offset 14, -4
 4010 0004 0D46     		mov	r5, r1
 4011              		.loc 1 691 0
 4012 0006 017E     		ldrb	r1, [r0, #24]	@ zero_extendqisi2
 4013              	.LVL377:
 4014              		.loc 1 686 0
 4015 0008 82B0     		sub	sp, sp, #8
 4016              		.cfi_def_cfa_offset 32
 4017              		.loc 1 686 0
 4018 000a 0446     		mov	r4, r0
 4019              		.loc 1 691 0
 4020 000c 0029     		cmp	r1, #0
 4021 000e 77D1     		bne	.L553
 4022              		.loc 1 694 0
 4023 0010 002D     		cmp	r5, #0
 4024 0012 00F08380 		beq	.L544
 4025 0016 1F46     		mov	r7, r3
 4026              		.loc 1 702 0
 4027 0018 0368     		ldr	r3, [r0]
 4028              	.LVL378:
 4029              		.loc 1 695 0
 4030 001a 2968     		ldr	r1, [r5]
 4031 001c 4160     		str	r1, [r0, #4]
 4032              		.loc 1 699 0
 4033 001e 8283     		strh	r2, [r0, #28]	@ movhi
 4034              		.loc 1 702 0
 4035 0020 33B9     		cbnz	r3, .L531
 4036              	.LBB237:
 4037              		.loc 1 704 0
 4038 0022 0430     		adds	r0, r0, #4
 4039              	.LVL379:
 4040 0024 FFF7FEFF 		bl	ip_route
 4041              	.LVL380:
 4042              		.loc 1 705 0
 4043 0028 0028     		cmp	r0, #0
 4044 002a 79D0     		beq	.L545
 4045              		.loc 1 711 0
 4046 002c 4368     		ldr	r3, [r0, #4]
 4047 002e 2360     		str	r3, [r4]
 4048              	.LVL381:
 4049              	.L531:
 4050              	.LBE237:
 4051              		.loc 1 714 0
 4052 0030 668B     		ldrh	r6, [r4, #26]
 4053              	.LVL382:
 4054              		.loc 1 715 0
 4055 0032 26B9     		cbnz	r6, .L534
 4056              		.loc 1 716 0
 4057 0034 FFF7FEFF 		bl	tcp_new_port
 4058              	.LVL383:
 4059 0038 6083     		strh	r0, [r4, #26]	@ movhi
 4060              		.loc 1 717 0
 4061 003a 0028     		cmp	r0, #0
ARM GAS  C:\Users\jo\AppData\Local\Temp\cc67lm3z.s 			page 73


 4062 003c 5BD0     		beq	.L554
 4063              	.L534:
 4064              	.LBB238:
 4065              	.LBB239:
 4066              		.loc 1 1575 0
 4067 003e DFF808E1 		ldr	lr, .L558+36
 4068 0042 384B     		ldr	r3, .L558
 4069 0044 1A68     		ldr	r2, [r3]
 4070 0046 DEF80030 		ldr	r3, [lr]
 4071 004a 1344     		add	r3, r3, r2
 4072              	.LBE239:
 4073              	.LBE238:
 4074              		.loc 1 744 0
 4075 004c 03F1FF38 		add	r8, r3, #-1
 4076              		.loc 1 746 0
 4077 0050 41F2D062 		movw	r2, #5840
 4078              		.loc 1 742 0
 4079 0054 4FF0000C 		mov	ip, #0
 4080              		.loc 1 752 0
 4081 0058 4FF40670 		mov	r0, #536
 4082              		.loc 1 754 0
 4083 005c 2946     		mov	r1, r5
 4084              		.loc 1 743 0
 4085 005e 2365     		str	r3, [r4, #80]
 4086              		.loc 1 746 0
 4087 0060 A285     		strh	r2, [r4, #44]	@ movhi
 4088              		.loc 1 747 0
 4089 0062 E285     		strh	r2, [r4, #46]	@ movhi
 4090              		.loc 1 749 0
 4091 0064 A4F86020 		strh	r2, [r4, #96]	@ movhi
 4092              		.loc 1 744 0
 4093 0068 C4F84880 		str	r8, [r4, #72]
 4094              		.loc 1 745 0
 4095 006c C4F85C80 		str	r8, [r4, #92]
 4096              		.loc 1 742 0
 4097 0070 C4F828C0 		str	ip, [r4, #40]
 4098              		.loc 1 748 0
 4099 0074 C4F830C0 		str	ip, [r4, #48]
 4100              		.loc 1 752 0
 4101 0078 E086     		strh	r0, [r4, #54]	@ movhi
 4102              	.LBB241:
 4103              	.LBB240:
 4104              		.loc 1 1575 0
 4105 007a CEF80030 		str	r3, [lr]
 4106              	.LBE240:
 4107              	.LBE241:
 4108              		.loc 1 754 0
 4109 007e FFF7FEFF 		bl	tcp_eff_send_mss
 4110              	.LVL384:
 4111              		.loc 1 757 0
 4112 0082 00EB8003 		add	r3, r0, r0, lsl #2
 4113 0086 5B00     		lsls	r3, r3, #1
 4114              		.loc 1 756 0
 4115 0088 0122     		movs	r2, #1
 4116              		.loc 1 754 0
 4117 008a E086     		strh	r0, [r4, #54]	@ movhi
 4118              		.loc 1 757 0
ARM GAS  C:\Users\jo\AppData\Local\Temp\cc67lm3z.s 			page 74


 4119 008c A4F84E30 		strh	r3, [r4, #78]	@ movhi
 4120              		.loc 1 759 0
 4121 0090 C4F88470 		str	r7, [r4, #132]
 4122              		.loc 1 756 0
 4123 0094 A4F84C20 		strh	r2, [r4, #76]	@ movhi
 4124              		.loc 1 765 0
 4125 0098 2046     		mov	r0, r4
 4126 009a 0221     		movs	r1, #2
 4127 009c FFF7FEFF 		bl	tcp_enqueue_flags
 4128              	.LVL385:
 4129              		.loc 1 766 0
 4130 00a0 00BB     		cbnz	r0, .L530
 4131              		.loc 1 768 0
 4132 00a2 0223     		movs	r3, #2
 4133 00a4 2376     		strb	r3, [r4, #24]
 4134              		.loc 1 769 0
 4135 00a6 86B1     		cbz	r6, .L535
 4136              		.loc 1 770 0
 4137 00a8 1F4B     		ldr	r3, .L558+4
 4138 00aa 1A68     		ldr	r2, [r3]
 4139 00ac A242     		cmp	r2, r4
 4140 00ae 24D0     		beq	.L555
 4141              		.loc 1 770 0 is_stmt 0 discriminator 2
 4142 00b0 1E49     		ldr	r1, .L558+8
 4143 00b2 0A60     		str	r2, [r1]
 4144 00b4 4AB1     		cbz	r2, .L535
 4145              		.loc 1 770 0
 4146 00b6 D368     		ldr	r3, [r2, #12]
 4147 00b8 A342     		cmp	r3, r4
 4148 00ba 19D0     		beq	.L539
 4149              	.L541:
 4150              		.loc 1 770 0 discriminator 6
 4151 00bc 23B1     		cbz	r3, .L556
 4152              		.loc 1 770 0 discriminator 9
 4153 00be DA68     		ldr	r2, [r3, #12]
 4154 00c0 A242     		cmp	r2, r4
 4155 00c2 13D0     		beq	.L557
 4156 00c4 1346     		mov	r3, r2
 4157 00c6 F9E7     		b	.L541
 4158              	.L556:
 4159 00c8 0B60     		str	r3, [r1]
 4160              	.L535:
 4161              		.loc 1 772 0 is_stmt 1
 4162 00ca 194B     		ldr	r3, .L558+12
 4163 00cc 1A68     		ldr	r2, [r3]
 4164 00ce E260     		str	r2, [r4, #12]
 4165 00d0 1C60     		str	r4, [r3]
 4166 00d2 FFF7FEFF 		bl	tcp_timer_needed
 4167              	.LVL386:
 4168 00d6 174B     		ldr	r3, .L558+16
 4169 00d8 0122     		movs	r2, #1
 4170              		.loc 1 775 0
 4171 00da 2046     		mov	r0, r4
 4172              		.loc 1 772 0
 4173 00dc 1A70     		strb	r2, [r3]
 4174              		.loc 1 775 0
 4175 00de FFF7FEFF 		bl	tcp_output
ARM GAS  C:\Users\jo\AppData\Local\Temp\cc67lm3z.s 			page 75


 4176              	.LVL387:
 4177 00e2 0020     		movs	r0, #0
 4178              	.LVL388:
 4179              	.L530:
 4180              		.loc 1 778 0
 4181 00e4 40B2     		sxtb	r0, r0
 4182 00e6 02B0     		add	sp, sp, #8
 4183              		.cfi_remember_state
 4184              		.cfi_def_cfa_offset 24
 4185              		@ sp needed
 4186 00e8 BDE8F081 		pop	{r4, r5, r6, r7, r8, pc}
 4187              	.LVL389:
 4188              	.L557:
 4189              		.cfi_restore_state
 4190 00ec 1A46     		mov	r2, r3
 4191 00ee 0B60     		str	r3, [r1]
 4192              	.L539:
 4193              		.loc 1 770 0 discriminator 5
 4194 00f0 E368     		ldr	r3, [r4, #12]
 4195 00f2 D360     		str	r3, [r2, #12]
 4196 00f4 E9E7     		b	.L535
 4197              	.LVL390:
 4198              	.L554:
 4199              		.loc 1 718 0
 4200 00f6 FE20     		movs	r0, #254
 4201 00f8 F4E7     		b	.L530
 4202              	.LVL391:
 4203              	.L555:
 4204              		.loc 1 770 0 discriminator 1
 4205 00fa E268     		ldr	r2, [r4, #12]
 4206 00fc 1A60     		str	r2, [r3]
 4207 00fe E4E7     		b	.L535
 4208              	.LVL392:
 4209              	.L553:
 4210              		.loc 1 691 0 discriminator 1
 4211 0100 0D4B     		ldr	r3, .L558+20
 4212              	.LVL393:
 4213 0102 0093     		str	r3, [sp]
 4214 0104 0D49     		ldr	r1, .L558+24
 4215 0106 0E4A     		ldr	r2, .L558+28
 4216              	.LVL394:
 4217 0108 0E48     		ldr	r0, .L558+32
 4218              	.LVL395:
 4219 010a 40F2B323 		movw	r3, #691
 4220 010e FFF7FEFF 		bl	chprintf.constprop.4
 4221              	.LVL396:
 4222              	.LBB242:
 4223              	.LBB243:
 4224              		.loc 3 414 0 discriminator 1
 4225 0112 0B48     		ldr	r0, .L558+28
 4226 0114 FFF7FEFF 		bl	chSysHalt
 4227              	.LVL397:
 4228              	.LBE243:
 4229              	.LBE242:
 4230              		.loc 1 691 0 discriminator 1
 4231 0118 F720     		movs	r0, #247
 4232 011a E3E7     		b	.L530
ARM GAS  C:\Users\jo\AppData\Local\Temp\cc67lm3z.s 			page 76


 4233              	.LVL398:
 4234              	.L544:
 4235              		.loc 1 697 0
 4236 011c FA20     		movs	r0, #250
 4237              	.LVL399:
 4238 011e E1E7     		b	.L530
 4239              	.LVL400:
 4240              	.L545:
 4241              	.LBB244:
 4242              		.loc 1 708 0
 4243 0120 FC20     		movs	r0, #252
 4244              	.LVL401:
 4245 0122 DFE7     		b	.L530
 4246              	.L559:
 4247              		.align	2
 4248              	.L558:
 4249 0124 00000000 		.word	.LANCHOR5
 4250 0128 00000000 		.word	.LANCHOR2
 4251 012c 00000000 		.word	.LANCHOR3
 4252 0130 00000000 		.word	.LANCHOR7
 4253 0134 00000000 		.word	.LANCHOR11
 4254 0138 50000000 		.word	.LC2
 4255 013c 00000000 		.word	.LC0
 4256 0140 9C030000 		.word	.LC24
 4257 0144 00000000 		.word	itm_port
 4258 0148 00000000 		.word	.LANCHOR13
 4259              	.LBE244:
 4260              		.cfi_endproc
 4261              	.LFE269:
 4262              		.size	tcp_connect, .-tcp_connect
 4263 014c AFF30080 		.section	.text.tcp_debug_state_str,"ax",%progbits
 4264              		.align	2
 4265              		.p2align 4,,15
 4266              		.global	tcp_debug_state_str
 4267              		.thumb
 4268              		.thumb_func
 4269              		.type	tcp_debug_state_str, %function
 4270              	tcp_debug_state_str:
 4271              	.LFB292:
 4272              		.loc 1 1606 0
 4273              		.cfi_startproc
 4274              		@ args = 0, pretend = 0, frame = 0
 4275              		@ frame_needed = 0, uses_anonymous_args = 0
 4276              		@ link register save eliminated.
 4277              	.LVL402:
 4278              		.loc 1 1607 0
 4279 0000 014B     		ldr	r3, .L561
 4280              		.loc 1 1608 0
 4281 0002 53F82000 		ldr	r0, [r3, r0, lsl #2]
 4282              	.LVL403:
 4283 0006 7047     		bx	lr
 4284              	.L562:
 4285              		.align	2
 4286              	.L561:
 4287 0008 00000000 		.word	.LANCHOR14
 4288              		.cfi_endproc
 4289              	.LFE292:
ARM GAS  C:\Users\jo\AppData\Local\Temp\cc67lm3z.s 			page 77


 4290              		.size	tcp_debug_state_str, .-tcp_debug_state_str
 4291              		.global	tcp_active_pcbs_changed
 4292              		.global	tcp_tmp_pcb
 4293              		.global	tcp_pcb_lists
 4294              		.global	tcp_tw_pcbs
 4295              		.global	tcp_active_pcbs
 4296              		.global	tcp_listen_pcbs
 4297              		.global	tcp_bound_pcbs
 4298              		.global	tcp_persist_backoff
 4299              		.global	tcp_backoff
 4300              		.global	tcp_ticks
 4301              		.global	tcp_state_str
 4302 000c AFF30080 		.section	.bss.tcp_active_pcbs_changed,"aw",%nobits
 4303              		.set	.LANCHOR11,. + 0
 4304              		.type	tcp_active_pcbs_changed, %object
 4305              		.size	tcp_active_pcbs_changed, 1
 4306              	tcp_active_pcbs_changed:
 4307 0000 00       		.space	1
 4308              		.section	.bss.tcp_tw_pcbs,"aw",%nobits
 4309              		.align	2
 4310              		.set	.LANCHOR8,. + 0
 4311              		.type	tcp_tw_pcbs, %object
 4312              		.size	tcp_tw_pcbs, 4
 4313              	tcp_tw_pcbs:
 4314 0000 00000000 		.space	4
 4315              		.section	.rodata.tcp_state_str,"a",%progbits
 4316              		.align	2
 4317              		.set	.LANCHOR14,. + 0
 4318              		.type	tcp_state_str, %object
 4319              		.size	tcp_state_str, 44
 4320              	tcp_state_str:
 4321 0000 CC030000 		.word	.LC25
 4322 0004 D4030000 		.word	.LC26
 4323 0008 DC030000 		.word	.LC27
 4324 000c E8030000 		.word	.LC28
 4325 0010 F4030000 		.word	.LC29
 4326 0014 00040000 		.word	.LC30
 4327 0018 0C040000 		.word	.LC31
 4328 001c 18040000 		.word	.LC32
 4329 0020 24040000 		.word	.LC33
 4330 0024 2C040000 		.word	.LC34
 4331 0028 38040000 		.word	.LC35
 4332              		.section	.rodata.tcp_pcb_lists,"a",%progbits
 4333              		.align	2
 4334              		.set	.LANCHOR1,. + 0
 4335              		.type	tcp_pcb_lists, %object
 4336              		.size	tcp_pcb_lists, 16
 4337              	tcp_pcb_lists:
 4338 0000 00000000 		.word	tcp_listen_pcbs
 4339 0004 00000000 		.word	tcp_bound_pcbs
 4340 0008 00000000 		.word	tcp_active_pcbs
 4341 000c 00000000 		.word	tcp_tw_pcbs
 4342              		.section	.bss.tcp_ticks,"aw",%nobits
 4343              		.align	2
 4344              		.set	.LANCHOR5,. + 0
 4345              		.type	tcp_ticks, %object
 4346              		.size	tcp_ticks, 4
ARM GAS  C:\Users\jo\AppData\Local\Temp\cc67lm3z.s 			page 78


 4347              	tcp_ticks:
 4348 0000 00000000 		.space	4
 4349              		.section	.bss.tcp_timer,"aw",%nobits
 4350              		.set	.LANCHOR12,. + 0
 4351              		.type	tcp_timer, %object
 4352              		.size	tcp_timer, 1
 4353              	tcp_timer:
 4354 0000 00       		.space	1
 4355              		.section	.rodata.tcp_backoff,"a",%progbits
 4356              		.align	2
 4357              		.set	.LANCHOR10,. + 0
 4358              		.type	tcp_backoff, %object
 4359              		.size	tcp_backoff, 13
 4360              	tcp_backoff:
 4361 0000 01       		.byte	1
 4362 0001 02       		.byte	2
 4363 0002 03       		.byte	3
 4364 0003 04       		.byte	4
 4365 0004 05       		.byte	5
 4366 0005 06       		.byte	6
 4367 0006 07       		.byte	7
 4368 0007 07       		.byte	7
 4369 0008 07       		.byte	7
 4370 0009 07       		.byte	7
 4371 000a 07       		.byte	7
 4372 000b 07       		.byte	7
 4373 000c 07       		.byte	7
 4374 000d 000000   		.section	.bss.tcp_listen_pcbs,"aw",%nobits
 4375              		.align	2
 4376              		.set	.LANCHOR4,. + 0
 4377              		.type	tcp_listen_pcbs, %object
 4378              		.size	tcp_listen_pcbs, 4
 4379              	tcp_listen_pcbs:
 4380 0000 00000000 		.space	4
 4381              		.section	.data.tcp_port,"aw",%progbits
 4382              		.align	1
 4383              		.set	.LANCHOR0,. + 0
 4384              		.type	tcp_port, %object
 4385              		.size	tcp_port, 2
 4386              	tcp_port:
 4387 0000 00C0     		.short	-16384
 4388              		.section	.data.iss.9713,"aw",%progbits
 4389              		.align	2
 4390              		.set	.LANCHOR13,. + 0
 4391              		.type	iss.9713, %object
 4392              		.size	iss.9713, 4
 4393              	iss.9713:
 4394 0000 6E190000 		.word	6510
 4395              		.section	.bss.tcp_active_pcbs,"aw",%nobits
 4396              		.align	2
 4397              		.set	.LANCHOR7,. + 0
 4398              		.type	tcp_active_pcbs, %object
 4399              		.size	tcp_active_pcbs, 4
 4400              	tcp_active_pcbs:
 4401 0000 00000000 		.space	4
 4402              		.section	.bss.tcp_timer_ctr,"aw",%nobits
 4403              		.set	.LANCHOR6,. + 0
ARM GAS  C:\Users\jo\AppData\Local\Temp\cc67lm3z.s 			page 79


 4404              		.type	tcp_timer_ctr, %object
 4405              		.size	tcp_timer_ctr, 1
 4406              	tcp_timer_ctr:
 4407 0000 00       		.space	1
 4408              		.section	.rodata.str1.4,"aMS",%progbits,1
 4409              		.align	2
 4410              	.LC0:
 4411 0000 41737365 		.ascii	"Assertion \"%s\" failed at line %d in %s\012\000"
 4411      7274696F 
 4411      6E202225 
 4411      73222066 
 4411      61696C65 
 4412              	.LC1:
 4413 0028 7463705F 		.ascii	"tcp_bind: can only bind in state CLOSED\000"
 4413      62696E64 
 4413      3A206361 
 4413      6E206F6E 
 4413      6C792062 
 4414              	.LC2:
 4415 0050 2E2E2F2E 		.ascii	"../../../os/ext/lwip-1.4.1/src/core/tcp.c\000"
 4415      2E2F2E2E 
 4415      2F6F732F 
 4415      6578742F 
 4415      6C776970 
 4416 007a 0000     		.space	2
 4417              	.LC3:
 4418 007c 7463705F 		.ascii	"tcp_listen: pcb already connected\000"
 4418      6C697374 
 4418      656E3A20 
 4418      70636220 
 4418      616C7265 
 4419 009e 0000     		.space	2
 4420              	.LC4:
 4421 00a0 6E65775F 		.ascii	"new_rcv_ann_wnd <= 0xffff\000"
 4421      7263765F 
 4421      616E6E5F 
 4421      776E6420 
 4421      3C3D2030 
 4422 00ba 0000     		.space	2
 4423              	.LC5:
 4424 00bc 646F6E27 		.ascii	"don't call tcp_recved for listen-pcbs\000"
 4424      74206361 
 4424      6C6C2074 
 4424      63705F72 
 4424      65637665 
 4425 00e2 0000     		.space	2
 4426              	.LC6:
 4427 00e4 7463705F 		.ascii	"tcp_recved: len would wrap rcv_wnd\012\000"
 4427      72656376 
 4427      65643A20 
 4427      6C656E20 
 4427      776F756C 
 4428              	.LC7:
 4429 0108 696E7661 		.ascii	"invalid socket state for recv callback\000"
 4429      6C696420 
 4429      736F636B 
 4429      65742073 
ARM GAS  C:\Users\jo\AppData\Local\Temp\cc67lm3z.s 			page 80


 4429      74617465 
 4430 012f 00       		.space	1
 4431              	.LC8:
 4432 0130 696E7661 		.ascii	"invalid socket state for sent callback\000"
 4432      6C696420 
 4432      736F636B 
 4432      65742073 
 4432      74617465 
 4433 0157 00       		.space	1
 4434              	.LC9:
 4435 0158 696E7661 		.ascii	"invalid socket state for err callback\000"
 4435      6C696420 
 4435      736F636B 
 4435      65742073 
 4435      74617465 
 4436 017e 0000     		.space	2
 4437              	.LC10:
 4438 0180 696E7661 		.ascii	"invalid socket state for poll\000"
 4438      6C696420 
 4438      736F636B 
 4438      65742073 
 4438      74617465 
 4439 019e 0000     		.space	2
 4440              	.LC11:
 4441 01a0 7463705F 		.ascii	"tcp_slowtmr: active pcb->state != CLOSED\012\000"
 4441      736C6F77 
 4441      746D723A 
 4441      20616374 
 4441      69766520 
 4442 01ca 0000     		.space	2
 4443              	.LC12:
 4444 01cc 7463705F 		.ascii	"tcp_slowtmr: active pcb->state != LISTEN\012\000"
 4444      736C6F77 
 4444      746D723A 
 4444      20616374 
 4444      69766520 
 4445 01f6 0000     		.space	2
 4446              	.LC13:
 4447 01f8 7463705F 		.ascii	"tcp_slowtmr: active pcb->state != TIME-WAIT\012\000"
 4447      736C6F77 
 4447      746D723A 
 4447      20616374 
 4447      69766520 
 4448 0225 000000   		.space	3
 4449              	.LC14:
 4450 0228 7463705F 		.ascii	"tcp_slowtmr: middle tcp != tcp_active_pcbs\000"
 4450      736C6F77 
 4450      746D723A 
 4450      206D6964 
 4450      646C6520 
 4451 0253 00       		.space	1
 4452              	.LC15:
 4453 0254 7463705F 		.ascii	"tcp_slowtmr: first pcb == tcp_active_pcbs\000"
 4453      736C6F77 
 4453      746D723A 
 4453      20666972 
 4453      73742070 
ARM GAS  C:\Users\jo\AppData\Local\Temp\cc67lm3z.s 			page 81


 4454 027e 0000     		.space	2
 4455              	.LC16:
 4456 0280 7463705F 		.ascii	"tcp_slowtmr: TIME-WAIT pcb->state == TIME-WAIT\000"
 4456      736C6F77 
 4456      746D723A 
 4456      2054494D 
 4456      452D5741 
 4457 02af 00       		.space	1
 4458              	.LC17:
 4459 02b0 7463705F 		.ascii	"tcp_slowtmr: middle tcp != tcp_tw_pcbs\000"
 4459      736C6F77 
 4459      746D723A 
 4459      206D6964 
 4459      646C6520 
 4460 02d7 00       		.space	1
 4461              	.LC18:
 4462 02d8 7463705F 		.ascii	"tcp_slowtmr: first pcb == tcp_tw_pcbs\000"
 4462      736C6F77 
 4462      746D723A 
 4462      20666972 
 4462      73742070 
 4463 02fe 0000     		.space	2
 4464              	.LC19:
 4465 0300 756E7365 		.ascii	"unsent segments leaking\000"
 4465      6E742073 
 4465      65676D65 
 4465      6E747320 
 4465      6C65616B 
 4466              	.LC20:
 4467 0318 756E6163 		.ascii	"unacked segments leaking\000"
 4467      6B656420 
 4467      7365676D 
 4467      656E7473 
 4467      206C6561 
 4468 0331 000000   		.space	3
 4469              	.LC21:
 4470 0334 6F6F7365 		.ascii	"ooseq segments leaking\000"
 4470      71207365 
 4470      676D656E 
 4470      7473206C 
 4470      65616B69 
 4471 034b 00       		.space	1
 4472              	.LC22:
 4473 034c 7063622D 		.ascii	"pcb->flags & TF_RXCLOSED\000"
 4473      3E666C61 
 4473      67732026 
 4473      2054465F 
 4473      5258434C 
 4474 0365 000000   		.space	3
 4475              	.LC23:
 4476 0368 646F6E27 		.ascii	"don't call tcp_abort/tcp_abandon for listen-pcbs\000"
 4476      74206361 
 4476      6C6C2074 
 4476      63705F61 
 4476      626F7274 
 4477 0399 000000   		.space	3
 4478              	.LC24:
ARM GAS  C:\Users\jo\AppData\Local\Temp\cc67lm3z.s 			page 82


 4479 039c 7463705F 		.ascii	"tcp_connect: can only connect from state CLOSED\000"
 4479      636F6E6E 
 4479      6563743A 
 4479      2063616E 
 4479      206F6E6C 
 4480              	.LC25:
 4481 03cc 434C4F53 		.ascii	"CLOSED\000"
 4481      454400
 4482 03d3 00       		.space	1
 4483              	.LC26:
 4484 03d4 4C495354 		.ascii	"LISTEN\000"
 4484      454E00
 4485 03db 00       		.space	1
 4486              	.LC27:
 4487 03dc 53594E5F 		.ascii	"SYN_SENT\000"
 4487      53454E54 
 4487      00
 4488 03e5 000000   		.space	3
 4489              	.LC28:
 4490 03e8 53594E5F 		.ascii	"SYN_RCVD\000"
 4490      52435644 
 4490      00
 4491 03f1 000000   		.space	3
 4492              	.LC29:
 4493 03f4 45535441 		.ascii	"ESTABLISHED\000"
 4493      424C4953 
 4493      48454400 
 4494              	.LC30:
 4495 0400 46494E5F 		.ascii	"FIN_WAIT_1\000"
 4495      57414954 
 4495      5F3100
 4496 040b 00       		.space	1
 4497              	.LC31:
 4498 040c 46494E5F 		.ascii	"FIN_WAIT_2\000"
 4498      57414954 
 4498      5F3200
 4499 0417 00       		.space	1
 4500              	.LC32:
 4501 0418 434C4F53 		.ascii	"CLOSE_WAIT\000"
 4501      455F5741 
 4501      495400
 4502 0423 00       		.space	1
 4503              	.LC33:
 4504 0424 434C4F53 		.ascii	"CLOSING\000"
 4504      494E4700 
 4505              	.LC34:
 4506 042c 4C415354 		.ascii	"LAST_ACK\000"
 4506      5F41434B 
 4506      00
 4507 0435 000000   		.space	3
 4508              	.LC35:
 4509 0438 54494D45 		.ascii	"TIME_WAIT\000"
 4509      5F574149 
 4509      5400
 4510 0442 0000     		.section	.bss.tcp_tmp_pcb,"aw",%nobits
 4511              		.align	2
 4512              		.set	.LANCHOR3,. + 0
ARM GAS  C:\Users\jo\AppData\Local\Temp\cc67lm3z.s 			page 83


 4513              		.type	tcp_tmp_pcb, %object
 4514              		.size	tcp_tmp_pcb, 4
 4515              	tcp_tmp_pcb:
 4516 0000 00000000 		.space	4
 4517              		.section	.rodata.tcp_persist_backoff,"a",%progbits
 4518              		.align	2
 4519              		.set	.LANCHOR9,. + 0
 4520              		.type	tcp_persist_backoff, %object
 4521              		.size	tcp_persist_backoff, 7
 4522              	tcp_persist_backoff:
 4523 0000 03       		.byte	3
 4524 0001 06       		.byte	6
 4525 0002 0C       		.byte	12
 4526 0003 18       		.byte	24
 4527 0004 30       		.byte	48
 4528 0005 60       		.byte	96
 4529 0006 78       		.byte	120
 4530 0007 00       		.section	.bss.tcp_bound_pcbs,"aw",%nobits
 4531              		.align	2
 4532              		.set	.LANCHOR2,. + 0
 4533              		.type	tcp_bound_pcbs, %object
 4534              		.size	tcp_bound_pcbs, 4
 4535              	tcp_bound_pcbs:
 4536 0000 00000000 		.space	4
 4537              		.text
 4538              	.Letext0:
 4539              		.file 4 "c:\\program files\\gnu tools arm embedded\\4.9 2014q4\\lib\\gcc\\arm-none-eabi\\4.9.3\\in
 4540              		.file 5 "c:\\program files\\gnu tools arm embedded\\4.9 2014q4\\arm-none-eabi\\include\\machine\\_
 4541              		.file 6 "c:\\program files\\gnu tools arm embedded\\4.9 2014q4\\arm-none-eabi\\include\\stdint.h"
 4542              		.file 7 "../../../os/rt/ports/ARMCMx/compilers/GCC/chtypes.h"
 4543              		.file 8 "../../../os/rt/include/chsystypes.h"
 4544              		.file 9 "../../../os/rt/include/chschd.h"
 4545              		.file 10 "../../../os/rt/ports/ARMCMx/chcore.h"
 4546              		.file 11 "../../../os/rt/ports/ARMCMx/chcore_v7m.h"
 4547              		.file 12 "c:\\program files\\gnu tools arm embedded\\4.9 2014q4\\lib\\gcc\\arm-none-eabi\\4.9.3\\i
 4548              		.file 13 "<built-in>"
 4549              		.file 14 "../../../os/rt/include/chdebug.h"
 4550              		.file 15 "../../../os/rt/include/chtm.h"
 4551              		.file 16 "../../../os/rt/include/chstats.h"
 4552              		.file 17 "../../../os/rt/include/chmtx.h"
 4553              		.file 18 "../../../os/rt/include/chstreams.h"
 4554              		.file 19 "./ITM_trace.h"
 4555              		.file 20 "../../../os/various/lwip_bindings/arch/cc.h"
 4556              		.file 21 "../../../os/ext/lwip-1.4.1/src/include/ipv4/lwip/ip_addr.h"
 4557              		.file 22 "../../../os/ext/lwip-1.4.1/src/include/lwip/err.h"
 4558              		.file 23 "../../../os/ext/lwip-1.4.1/src/include/lwip/pbuf.h"
 4559              		.file 24 "../../../os/ext/lwip-1.4.1/src/include/lwip/netif.h"
 4560              		.file 25 "../../../os/ext/lwip-1.4.1/src/include/lwip/tcp.h"
 4561              		.file 26 "../../../os/ext/lwip-1.4.1/src/include/lwip/tcp_impl.h"
 4562              		.file 27 "../../../os/ext/CMSIS/include/core_cm4.h"
 4563              		.file 28 "../../../os/ext/lwip-1.4.1/src/include/lwip/memp.h"
 4564              		.file 29 "../../../os/rt/include/chsys.h"
 4565              		.file 30 "c:\\program files\\gnu tools arm embedded\\4.9 2014q4\\arm-none-eabi\\include\\stdlib.h"
 4566              		.file 31 "../../../os/ext/lwip-1.4.1/src/include/ipv4/lwip/ip.h"
 4567              		.section	.debug_info,"",%progbits
 4568              	.Ldebug_info0:
 4569 0000 42300000 		.4byte	0x3042
ARM GAS  C:\Users\jo\AppData\Local\Temp\cc67lm3z.s 			page 84


 4570 0004 0400     		.2byte	0x4
 4571 0006 00000000 		.4byte	.Ldebug_abbrev0
 4572 000a 04       		.byte	0x4
 4573 000b 01       		.uleb128 0x1
 4574 000c E20A0000 		.4byte	.LASF363
 4575 0010 01       		.byte	0x1
 4576 0011 2A000000 		.4byte	.LASF364
 4577 0015 E9010000 		.4byte	.LASF365
 4578 0019 20010000 		.4byte	.Ldebug_ranges0+0x120
 4579 001d 00000000 		.4byte	0
 4580 0021 00000000 		.4byte	.Ldebug_line0
 4581 0025 02       		.uleb128 0x2
 4582 0026 04       		.byte	0x4
 4583 0027 05       		.byte	0x5
 4584 0028 696E7400 		.ascii	"int\000"
 4585 002c 03       		.uleb128 0x3
 4586 002d 0C050000 		.4byte	.LASF1
 4587 0031 04       		.byte	0x4
 4588 0032 D4       		.byte	0xd4
 4589 0033 37000000 		.4byte	0x37
 4590 0037 04       		.uleb128 0x4
 4591 0038 04       		.byte	0x4
 4592 0039 07       		.byte	0x7
 4593 003a 31010000 		.4byte	.LASF0
 4594 003e 03       		.uleb128 0x3
 4595 003f 710F0000 		.4byte	.LASF2
 4596 0043 05       		.byte	0x5
 4597 0044 1B       		.byte	0x1b
 4598 0045 49000000 		.4byte	0x49
 4599 0049 04       		.uleb128 0x4
 4600 004a 01       		.byte	0x1
 4601 004b 06       		.byte	0x6
 4602 004c 390F0000 		.4byte	.LASF3
 4603 0050 03       		.uleb128 0x3
 4604 0051 A70C0000 		.4byte	.LASF4
 4605 0055 05       		.byte	0x5
 4606 0056 1D       		.byte	0x1d
 4607 0057 5B000000 		.4byte	0x5b
 4608 005b 04       		.uleb128 0x4
 4609 005c 01       		.byte	0x1
 4610 005d 08       		.byte	0x8
 4611 005e E20D0000 		.4byte	.LASF5
 4612 0062 03       		.uleb128 0x3
 4613 0063 66080000 		.4byte	.LASF6
 4614 0067 05       		.byte	0x5
 4615 0068 29       		.byte	0x29
 4616 0069 6D000000 		.4byte	0x6d
 4617 006d 04       		.uleb128 0x4
 4618 006e 02       		.byte	0x2
 4619 006f 05       		.byte	0x5
 4620 0070 7A0F0000 		.4byte	.LASF7
 4621 0074 03       		.uleb128 0x3
 4622 0075 3F040000 		.4byte	.LASF8
 4623 0079 05       		.byte	0x5
 4624 007a 2B       		.byte	0x2b
 4625 007b 7F000000 		.4byte	0x7f
 4626 007f 04       		.uleb128 0x4
ARM GAS  C:\Users\jo\AppData\Local\Temp\cc67lm3z.s 			page 85


 4627 0080 02       		.byte	0x2
 4628 0081 07       		.byte	0x7
 4629 0082 4D0F0000 		.4byte	.LASF9
 4630 0086 03       		.uleb128 0x3
 4631 0087 B4010000 		.4byte	.LASF10
 4632 008b 05       		.byte	0x5
 4633 008c 3F       		.byte	0x3f
 4634 008d 91000000 		.4byte	0x91
 4635 0091 04       		.uleb128 0x4
 4636 0092 04       		.byte	0x4
 4637 0093 05       		.byte	0x5
 4638 0094 D90B0000 		.4byte	.LASF11
 4639 0098 03       		.uleb128 0x3
 4640 0099 D7060000 		.4byte	.LASF12
 4641 009d 05       		.byte	0x5
 4642 009e 41       		.byte	0x41
 4643 009f A3000000 		.4byte	0xa3
 4644 00a3 04       		.uleb128 0x4
 4645 00a4 04       		.byte	0x4
 4646 00a5 07       		.byte	0x7
 4647 00a6 440D0000 		.4byte	.LASF13
 4648 00aa 04       		.uleb128 0x4
 4649 00ab 08       		.byte	0x8
 4650 00ac 05       		.byte	0x5
 4651 00ad AE060000 		.4byte	.LASF14
 4652 00b1 03       		.uleb128 0x3
 4653 00b2 87050000 		.4byte	.LASF15
 4654 00b6 05       		.byte	0x5
 4655 00b7 5B       		.byte	0x5b
 4656 00b8 BC000000 		.4byte	0xbc
 4657 00bc 04       		.uleb128 0x4
 4658 00bd 08       		.byte	0x8
 4659 00be 07       		.byte	0x7
 4660 00bf F7030000 		.4byte	.LASF16
 4661 00c3 03       		.uleb128 0x3
 4662 00c4 E7050000 		.4byte	.LASF17
 4663 00c8 06       		.byte	0x6
 4664 00c9 14       		.byte	0x14
 4665 00ca 3E000000 		.4byte	0x3e
 4666 00ce 03       		.uleb128 0x3
 4667 00cf E7060000 		.4byte	.LASF18
 4668 00d3 06       		.byte	0x6
 4669 00d4 15       		.byte	0x15
 4670 00d5 50000000 		.4byte	0x50
 4671 00d9 03       		.uleb128 0x3
 4672 00da E0030000 		.4byte	.LASF19
 4673 00de 06       		.byte	0x6
 4674 00df 20       		.byte	0x20
 4675 00e0 62000000 		.4byte	0x62
 4676 00e4 03       		.uleb128 0x3
 4677 00e5 240A0000 		.4byte	.LASF20
 4678 00e9 06       		.byte	0x6
 4679 00ea 21       		.byte	0x21
 4680 00eb 74000000 		.4byte	0x74
 4681 00ef 03       		.uleb128 0x3
 4682 00f0 810D0000 		.4byte	.LASF21
 4683 00f4 06       		.byte	0x6
ARM GAS  C:\Users\jo\AppData\Local\Temp\cc67lm3z.s 			page 86


 4684 00f5 2C       		.byte	0x2c
 4685 00f6 86000000 		.4byte	0x86
 4686 00fa 03       		.uleb128 0x3
 4687 00fb 30030000 		.4byte	.LASF22
 4688 00ff 06       		.byte	0x6
 4689 0100 2D       		.byte	0x2d
 4690 0101 98000000 		.4byte	0x98
 4691 0105 03       		.uleb128 0x3
 4692 0106 AE0E0000 		.4byte	.LASF23
 4693 010a 06       		.byte	0x6
 4694 010b 39       		.byte	0x39
 4695 010c B1000000 		.4byte	0xb1
 4696 0110 05       		.uleb128 0x5
 4697 0111 EF000000 		.4byte	0xef
 4698 0115 03       		.uleb128 0x3
 4699 0116 680A0000 		.4byte	.LASF24
 4700 011a 07       		.byte	0x7
 4701 011b 45       		.byte	0x45
 4702 011c FA000000 		.4byte	0xfa
 4703 0120 03       		.uleb128 0x3
 4704 0121 65060000 		.4byte	.LASF25
 4705 0125 07       		.byte	0x7
 4706 0126 46       		.byte	0x46
 4707 0127 05010000 		.4byte	0x105
 4708 012b 03       		.uleb128 0x3
 4709 012c DD090000 		.4byte	.LASF26
 4710 0130 07       		.byte	0x7
 4711 0131 48       		.byte	0x48
 4712 0132 CE000000 		.4byte	0xce
 4713 0136 03       		.uleb128 0x3
 4714 0137 AE0D0000 		.4byte	.LASF27
 4715 013b 07       		.byte	0x7
 4716 013c 49       		.byte	0x49
 4717 013d CE000000 		.4byte	0xce
 4718 0141 03       		.uleb128 0x3
 4719 0142 3C0D0000 		.4byte	.LASF28
 4720 0146 07       		.byte	0x7
 4721 0147 4A       		.byte	0x4a
 4722 0148 CE000000 		.4byte	0xce
 4723 014c 03       		.uleb128 0x3
 4724 014d CE030000 		.4byte	.LASF29
 4725 0151 07       		.byte	0x7
 4726 0152 4C       		.byte	0x4c
 4727 0153 FA000000 		.4byte	0xfa
 4728 0157 03       		.uleb128 0x3
 4729 0158 24080000 		.4byte	.LASF30
 4730 015c 07       		.byte	0x7
 4731 015d 4D       		.byte	0x4d
 4732 015e EF000000 		.4byte	0xef
 4733 0162 03       		.uleb128 0x3
 4734 0163 72030000 		.4byte	.LASF31
 4735 0167 07       		.byte	0x7
 4736 0168 4F       		.byte	0x4f
 4737 0169 FA000000 		.4byte	0xfa
 4738 016d 03       		.uleb128 0x3
 4739 016e 1E080000 		.4byte	.LASF32
 4740 0172 07       		.byte	0x7
ARM GAS  C:\Users\jo\AppData\Local\Temp\cc67lm3z.s 			page 87


 4741 0173 51       		.byte	0x51
 4742 0174 EF000000 		.4byte	0xef
 4743 0178 03       		.uleb128 0x3
 4744 0179 E5090000 		.4byte	.LASF33
 4745 017d 07       		.byte	0x7
 4746 017e 52       		.byte	0x52
 4747 017f FA000000 		.4byte	0xfa
 4748 0183 03       		.uleb128 0x3
 4749 0184 E3000000 		.4byte	.LASF34
 4750 0188 08       		.byte	0x8
 4751 0189 33       		.byte	0x33
 4752 018a FA000000 		.4byte	0xfa
 4753 018e 03       		.uleb128 0x3
 4754 018f D6040000 		.4byte	.LASF35
 4755 0193 08       		.byte	0x8
 4756 0194 3F       		.byte	0x3f
 4757 0195 99010000 		.4byte	0x199
 4758 0199 06       		.uleb128 0x6
 4759 019a 3C070000 		.4byte	.LASF56
 4760 019e 60       		.byte	0x60
 4761 019f 09       		.byte	0x9
 4762 01a0 BE       		.byte	0xbe
 4763 01a1 9F020000 		.4byte	0x29f
 4764 01a5 07       		.uleb128 0x7
 4765 01a6 DF040000 		.4byte	.LASF36
 4766 01aa 09       		.byte	0x9
 4767 01ab BF       		.byte	0xbf
 4768 01ac 09060000 		.4byte	0x609
 4769 01b0 00       		.byte	0
 4770 01b1 07       		.uleb128 0x7
 4771 01b2 2C0D0000 		.4byte	.LASF37
 4772 01b6 09       		.byte	0x9
 4773 01b7 C1       		.byte	0xc1
 4774 01b8 09060000 		.4byte	0x609
 4775 01bc 04       		.byte	0x4
 4776 01bd 07       		.uleb128 0x7
 4777 01be 9C000000 		.4byte	.LASF38
 4778 01c2 09       		.byte	0x9
 4779 01c3 C3       		.byte	0xc3
 4780 01c4 4C010000 		.4byte	0x14c
 4781 01c8 08       		.byte	0x8
 4782 01c9 07       		.uleb128 0x7
 4783 01ca 740C0000 		.4byte	.LASF39
 4784 01ce 09       		.byte	0x9
 4785 01cf C4       		.byte	0xc4
 4786 01d0 02050000 		.4byte	0x502
 4787 01d4 0C       		.byte	0xc
 4788 01d5 07       		.uleb128 0x7
 4789 01d6 92040000 		.4byte	.LASF40
 4790 01da 09       		.byte	0x9
 4791 01db C6       		.byte	0xc6
 4792 01dc 09060000 		.4byte	0x609
 4793 01e0 10       		.byte	0x10
 4794 01e1 07       		.uleb128 0x7
 4795 01e2 BC060000 		.4byte	.LASF41
 4796 01e6 09       		.byte	0x9
 4797 01e7 C7       		.byte	0xc7
ARM GAS  C:\Users\jo\AppData\Local\Temp\cc67lm3z.s 			page 88


 4798 01e8 09060000 		.4byte	0x609
 4799 01ec 14       		.byte	0x14
 4800 01ed 07       		.uleb128 0x7
 4801 01ee EE050000 		.4byte	.LASF42
 4802 01f2 09       		.byte	0x9
 4803 01f3 CE       		.byte	0xce
 4804 01f4 C5050000 		.4byte	0x5c5
 4805 01f8 18       		.byte	0x18
 4806 01f9 07       		.uleb128 0x7
 4807 01fa CC060000 		.4byte	.LASF43
 4808 01fe 09       		.byte	0x9
 4809 01ff D4       		.byte	0xd4
 4810 0200 53070000 		.4byte	0x753
 4811 0204 1C       		.byte	0x1c
 4812 0205 07       		.uleb128 0x7
 4813 0206 34070000 		.4byte	.LASF44
 4814 020a 09       		.byte	0x9
 4815 020b D9       		.byte	0xd9
 4816 020c 36010000 		.4byte	0x136
 4817 0210 20       		.byte	0x20
 4818 0211 07       		.uleb128 0x7
 4819 0212 5E080000 		.4byte	.LASF45
 4820 0216 09       		.byte	0x9
 4821 0217 DD       		.byte	0xdd
 4822 0218 2B010000 		.4byte	0x12b
 4823 021c 21       		.byte	0x21
 4824 021d 07       		.uleb128 0x7
 4825 021e 250E0000 		.4byte	.LASF46
 4826 0222 09       		.byte	0x9
 4827 0223 E2       		.byte	0xe2
 4828 0224 41010000 		.4byte	0x141
 4829 0228 22       		.byte	0x22
 4830 0229 08       		.uleb128 0x8
 4831 022a 705F7500 		.ascii	"p_u\000"
 4832 022e 09       		.byte	0x9
 4833 022f 1401     		.2byte	0x114
 4834 0231 1B070000 		.4byte	0x71b
 4835 0235 24       		.byte	0x24
 4836 0236 09       		.uleb128 0x9
 4837 0237 AA010000 		.4byte	.LASF47
 4838 023b 09       		.byte	0x9
 4839 023c 1901     		.2byte	0x119
 4840 023e 9F020000 		.4byte	0x29f
 4841 0242 28       		.byte	0x28
 4842 0243 09       		.uleb128 0x9
 4843 0244 560D0000 		.4byte	.LASF48
 4844 0248 09       		.byte	0x9
 4845 0249 1F01     		.2byte	0x11f
 4846 024b C3020000 		.4byte	0x2c3
 4847 024f 2C       		.byte	0x2c
 4848 0250 09       		.uleb128 0x9
 4849 0251 C0090000 		.4byte	.LASF49
 4850 0255 09       		.byte	0x9
 4851 0256 2301     		.2byte	0x123
 4852 0258 57010000 		.4byte	0x157
 4853 025c 34       		.byte	0x34
 4854 025d 09       		.uleb128 0x9
ARM GAS  C:\Users\jo\AppData\Local\Temp\cc67lm3z.s 			page 89


 4855 025e C60B0000 		.4byte	.LASF50
 4856 0262 09       		.byte	0x9
 4857 0263 2901     		.2byte	0x129
 4858 0265 62010000 		.4byte	0x162
 4859 0269 38       		.byte	0x38
 4860 026a 09       		.uleb128 0x9
 4861 026b 1F070000 		.4byte	.LASF51
 4862 026f 09       		.byte	0x9
 4863 0270 3001     		.2byte	0x130
 4864 0272 8A070000 		.4byte	0x78a
 4865 0276 3C       		.byte	0x3c
 4866 0277 09       		.uleb128 0x9
 4867 0278 C10A0000 		.4byte	.LASF52
 4868 027c 09       		.byte	0x9
 4869 027d 3401     		.2byte	0x134
 4870 027f 4C010000 		.4byte	0x14c
 4871 0283 40       		.byte	0x40
 4872 0284 09       		.uleb128 0x9
 4873 0285 D90E0000 		.4byte	.LASF53
 4874 0289 09       		.byte	0x9
 4875 028a 3A01     		.2byte	0x13a
 4876 028c 76030000 		.4byte	0x376
 4877 0290 44       		.byte	0x44
 4878 0291 09       		.uleb128 0x9
 4879 0292 FC060000 		.4byte	.LASF54
 4880 0296 09       		.byte	0x9
 4881 0297 4001     		.2byte	0x140
 4882 0299 CC060000 		.4byte	0x6cc
 4883 029d 48       		.byte	0x48
 4884 029e 00       		.byte	0
 4885 029f 03       		.uleb128 0x3
 4886 02a0 82010000 		.4byte	.LASF55
 4887 02a4 08       		.byte	0x8
 4888 02a5 44       		.byte	0x44
 4889 02a6 AA020000 		.4byte	0x2aa
 4890 02aa 06       		.uleb128 0x6
 4891 02ab 9D080000 		.4byte	.LASF57
 4892 02af 04       		.byte	0x4
 4893 02b0 09       		.byte	0x9
 4894 02b1 AC       		.byte	0xac
 4895 02b2 C3020000 		.4byte	0x2c3
 4896 02b6 07       		.uleb128 0x7
 4897 02b7 DF040000 		.4byte	.LASF36
 4898 02bb 09       		.byte	0x9
 4899 02bc AD       		.byte	0xad
 4900 02bd 09060000 		.4byte	0x609
 4901 02c1 00       		.byte	0
 4902 02c2 00       		.byte	0
 4903 02c3 03       		.uleb128 0x3
 4904 02c4 00000000 		.4byte	.LASF58
 4905 02c8 08       		.byte	0x8
 4906 02c9 4B       		.byte	0x4b
 4907 02ca CE020000 		.4byte	0x2ce
 4908 02ce 06       		.uleb128 0x6
 4909 02cf BE070000 		.4byte	.LASF59
 4910 02d3 08       		.byte	0x8
 4911 02d4 09       		.byte	0x9
ARM GAS  C:\Users\jo\AppData\Local\Temp\cc67lm3z.s 			page 90


 4912 02d5 B3       		.byte	0xb3
 4913 02d6 F3020000 		.4byte	0x2f3
 4914 02da 07       		.uleb128 0x7
 4915 02db DF040000 		.4byte	.LASF36
 4916 02df 09       		.byte	0x9
 4917 02e0 B4       		.byte	0xb4
 4918 02e1 09060000 		.4byte	0x609
 4919 02e5 00       		.byte	0
 4920 02e6 07       		.uleb128 0x7
 4921 02e7 2C0D0000 		.4byte	.LASF37
 4922 02eb 09       		.byte	0x9
 4923 02ec B5       		.byte	0xb5
 4924 02ed 09060000 		.4byte	0x609
 4925 02f1 04       		.byte	0x4
 4926 02f2 00       		.byte	0
 4927 02f3 03       		.uleb128 0x3
 4928 02f4 610D0000 		.4byte	.LASF60
 4929 02f8 08       		.byte	0x8
 4930 02f9 52       		.byte	0x52
 4931 02fa FE020000 		.4byte	0x2fe
 4932 02fe 0A       		.uleb128 0xa
 4933 02ff 58020000 		.4byte	.LASF61
 4934 0303 1C       		.byte	0x1c
 4935 0304 09       		.byte	0x9
 4936 0305 7201     		.2byte	0x172
 4937 0307 5A030000 		.4byte	0x35a
 4938 030b 09       		.uleb128 0x9
 4939 030c EA070000 		.4byte	.LASF62
 4940 0310 09       		.byte	0x9
 4941 0311 7301     		.2byte	0x173
 4942 0313 C3020000 		.4byte	0x2c3
 4943 0317 00       		.byte	0
 4944 0318 09       		.uleb128 0x9
 4945 0319 7E030000 		.4byte	.LASF63
 4946 031d 09       		.byte	0x9
 4947 031e 7401     		.2byte	0x174
 4948 0320 4C010000 		.4byte	0x14c
 4949 0324 08       		.byte	0x8
 4950 0325 09       		.uleb128 0x9
 4951 0326 600F0000 		.4byte	.LASF64
 4952 032a 09       		.byte	0x9
 4953 032b 7601     		.2byte	0x176
 4954 032d 02050000 		.4byte	0x502
 4955 0331 0C       		.byte	0xc
 4956 0332 09       		.uleb128 0x9
 4957 0333 16080000 		.4byte	.LASF65
 4958 0337 09       		.byte	0x9
 4959 0338 7901     		.2byte	0x179
 4960 033a 09060000 		.4byte	0x609
 4961 033e 10       		.byte	0x10
 4962 033f 09       		.uleb128 0x9
 4963 0340 5D090000 		.4byte	.LASF66
 4964 0344 09       		.byte	0x9
 4965 0345 7A01     		.2byte	0x17a
 4966 0347 09060000 		.4byte	0x609
 4967 034b 14       		.byte	0x14
 4968 034c 09       		.uleb128 0x9
ARM GAS  C:\Users\jo\AppData\Local\Temp\cc67lm3z.s 			page 91


 4969 034d BC0B0000 		.4byte	.LASF67
 4970 0351 09       		.byte	0x9
 4971 0352 7D01     		.2byte	0x17d
 4972 0354 09060000 		.4byte	0x609
 4973 0358 18       		.byte	0x18
 4974 0359 00       		.byte	0
 4975 035a 03       		.uleb128 0x3
 4976 035b C9020000 		.4byte	.LASF68
 4977 035f 08       		.byte	0x8
 4978 0360 57       		.byte	0x57
 4979 0361 65030000 		.4byte	0x365
 4980 0365 0B       		.uleb128 0xb
 4981 0366 04       		.byte	0x4
 4982 0367 6B030000 		.4byte	0x36b
 4983 036b 0C       		.uleb128 0xc
 4984 036c 76030000 		.4byte	0x376
 4985 0370 0D       		.uleb128 0xd
 4986 0371 76030000 		.4byte	0x376
 4987 0375 00       		.byte	0
 4988 0376 0E       		.uleb128 0xe
 4989 0377 04       		.byte	0x4
 4990 0378 03       		.uleb128 0x3
 4991 0379 81080000 		.4byte	.LASF69
 4992 037d 08       		.byte	0x8
 4993 037e 5C       		.byte	0x5c
 4994 037f 83030000 		.4byte	0x383
 4995 0383 0A       		.uleb128 0xa
 4996 0384 12060000 		.4byte	.LASF70
 4997 0388 14       		.byte	0x14
 4998 0389 09       		.byte	0x9
 4999 038a 4D01     		.2byte	0x14d
 5000 038c D2030000 		.4byte	0x3d2
 5001 0390 09       		.uleb128 0x9
 5002 0391 A60E0000 		.4byte	.LASF71
 5003 0395 09       		.byte	0x9
 5004 0396 4E01     		.2byte	0x14e
 5005 0398 90070000 		.4byte	0x790
 5006 039c 00       		.byte	0
 5007 039d 09       		.uleb128 0x9
 5008 039e D50F0000 		.4byte	.LASF72
 5009 03a2 09       		.byte	0x9
 5010 03a3 4F01     		.2byte	0x14f
 5011 03a5 90070000 		.4byte	0x790
 5012 03a9 04       		.byte	0x4
 5013 03aa 09       		.uleb128 0x9
 5014 03ab 54060000 		.4byte	.LASF73
 5015 03af 09       		.byte	0x9
 5016 03b0 5001     		.2byte	0x150
 5017 03b2 83010000 		.4byte	0x183
 5018 03b6 08       		.byte	0x8
 5019 03b7 09       		.uleb128 0x9
 5020 03b8 9F0F0000 		.4byte	.LASF74
 5021 03bc 09       		.byte	0x9
 5022 03bd 5101     		.2byte	0x151
 5023 03bf 5A030000 		.4byte	0x35a
 5024 03c3 0C       		.byte	0xc
 5025 03c4 09       		.uleb128 0x9
ARM GAS  C:\Users\jo\AppData\Local\Temp\cc67lm3z.s 			page 92


 5026 03c5 D60D0000 		.4byte	.LASF75
 5027 03c9 09       		.byte	0x9
 5028 03ca 5301     		.2byte	0x153
 5029 03cc 76030000 		.4byte	0x376
 5030 03d0 10       		.byte	0x10
 5031 03d1 00       		.byte	0
 5032 03d2 03       		.uleb128 0x3
 5033 03d3 0F0E0000 		.4byte	.LASF76
 5034 03d7 08       		.byte	0x8
 5035 03d8 61       		.byte	0x61
 5036 03d9 DD030000 		.4byte	0x3dd
 5037 03dd 0A       		.uleb128 0xa
 5038 03de 9A040000 		.4byte	.LASF77
 5039 03e2 10       		.byte	0x10
 5040 03e3 09       		.byte	0x9
 5041 03e4 5D01     		.2byte	0x15d
 5042 03e6 1F040000 		.4byte	0x41f
 5043 03ea 09       		.uleb128 0x9
 5044 03eb A60E0000 		.4byte	.LASF71
 5045 03ef 09       		.byte	0x9
 5046 03f0 5E01     		.2byte	0x15e
 5047 03f2 90070000 		.4byte	0x790
 5048 03f6 00       		.byte	0
 5049 03f7 09       		.uleb128 0x9
 5050 03f8 D50F0000 		.4byte	.LASF72
 5051 03fc 09       		.byte	0x9
 5052 03fd 6001     		.2byte	0x160
 5053 03ff 90070000 		.4byte	0x790
 5054 0403 04       		.byte	0x4
 5055 0404 09       		.uleb128 0x9
 5056 0405 54060000 		.4byte	.LASF73
 5057 0409 09       		.byte	0x9
 5058 040a 6201     		.2byte	0x162
 5059 040c 83010000 		.4byte	0x183
 5060 0410 08       		.byte	0x8
 5061 0411 09       		.uleb128 0x9
 5062 0412 6E060000 		.4byte	.LASF78
 5063 0416 09       		.byte	0x9
 5064 0417 6A01     		.2byte	0x16a
 5065 0419 83010000 		.4byte	0x183
 5066 041d 0C       		.byte	0xc
 5067 041e 00       		.byte	0
 5068 041f 03       		.uleb128 0x3
 5069 0420 7B070000 		.4byte	.LASF79
 5070 0424 08       		.byte	0x8
 5071 0425 66       		.byte	0x66
 5072 0426 2A040000 		.4byte	0x42a
 5073 042a 0F       		.uleb128 0xf
 5074 042b E8020000 		.4byte	.LASF80
 5075 042f 1404     		.2byte	0x414
 5076 0431 09       		.byte	0x9
 5077 0432 8401     		.2byte	0x184
 5078 0434 6D040000 		.4byte	0x46d
 5079 0438 09       		.uleb128 0x9
 5080 0439 A4090000 		.4byte	.LASF81
 5081 043d 09       		.byte	0x9
 5082 043e 8C01     		.2byte	0x18c
ARM GAS  C:\Users\jo\AppData\Local\Temp\cc67lm3z.s 			page 93


 5083 0440 96070000 		.4byte	0x796
 5084 0444 00       		.byte	0
 5085 0445 09       		.uleb128 0x9
 5086 0446 84040000 		.4byte	.LASF82
 5087 044a 09       		.byte	0x9
 5088 044b 9101     		.2byte	0x191
 5089 044d 6D010000 		.4byte	0x16d
 5090 0451 04       		.byte	0x4
 5091 0452 09       		.uleb128 0x9
 5092 0453 920A0000 		.4byte	.LASF83
 5093 0457 09       		.byte	0x9
 5094 0458 9501     		.2byte	0x195
 5095 045a 6D010000 		.4byte	0x16d
 5096 045e 08       		.byte	0x8
 5097 045f 09       		.uleb128 0x9
 5098 0460 9B0D0000 		.4byte	.LASF84
 5099 0464 09       		.byte	0x9
 5100 0465 9B01     		.2byte	0x19b
 5101 0467 5E060000 		.4byte	0x65e
 5102 046b 0C       		.byte	0xc
 5103 046c 00       		.byte	0
 5104 046d 03       		.uleb128 0x3
 5105 046e EE0E0000 		.4byte	.LASF85
 5106 0472 08       		.byte	0x8
 5107 0473 6B       		.byte	0x6b
 5108 0474 78040000 		.4byte	0x478
 5109 0478 0F       		.uleb128 0xf
 5110 0479 2D0C0000 		.4byte	.LASF86
 5111 047d D805     		.2byte	0x5d8
 5112 047f 09       		.byte	0x9
 5113 0480 A401     		.2byte	0x1a4
 5114 0482 E5040000 		.4byte	0x4e5
 5115 0486 09       		.uleb128 0x9
 5116 0487 7A0C0000 		.4byte	.LASF87
 5117 048b 09       		.byte	0x9
 5118 048c A801     		.2byte	0x1a8
 5119 048e F3020000 		.4byte	0x2f3
 5120 0492 00       		.byte	0
 5121 0493 09       		.uleb128 0x9
 5122 0494 37020000 		.4byte	.LASF88
 5123 0498 09       		.byte	0x9
 5124 0499 AC01     		.2byte	0x1ac
 5125 049b D2030000 		.4byte	0x3d2
 5126 049f 1C       		.byte	0x1c
 5127 04a0 08       		.uleb128 0x8
 5128 04a1 64626700 		.ascii	"dbg\000"
 5129 04a5 09       		.byte	0x9
 5130 04a6 B001     		.2byte	0x1b0
 5131 04a8 1F040000 		.4byte	0x41f
 5132 04ac 2C       		.byte	0x2c
 5133 04ad 10       		.uleb128 0x10
 5134 04ae EC090000 		.4byte	.LASF89
 5135 04b2 09       		.byte	0x9
 5136 04b3 B401     		.2byte	0x1b4
 5137 04b5 8E010000 		.4byte	0x18e
 5138 04b9 4004     		.2byte	0x440
 5139 04bb 11       		.uleb128 0x11
ARM GAS  C:\Users\jo\AppData\Local\Temp\cc67lm3z.s 			page 94


 5140 04bc 746D00   		.ascii	"tm\000"
 5141 04bf 09       		.byte	0x9
 5142 04c0 B901     		.2byte	0x1b9
 5143 04c2 7E060000 		.4byte	0x67e
 5144 04c6 A004     		.2byte	0x4a0
 5145 04c8 10       		.uleb128 0x10
 5146 04c9 8C030000 		.4byte	.LASF90
 5147 04cd 09       		.byte	0x9
 5148 04ce BF01     		.2byte	0x1bf
 5149 04d0 10070000 		.4byte	0x710
 5150 04d4 A804     		.2byte	0x4a8
 5151 04d6 10       		.uleb128 0x10
 5152 04d7 66020000 		.4byte	.LASF91
 5153 04db 09       		.byte	0x9
 5154 04dc C501     		.2byte	0x1c5
 5155 04de 9B070000 		.4byte	0x79b
 5156 04e2 E004     		.2byte	0x4e0
 5157 04e4 00       		.byte	0
 5158 04e5 04       		.uleb128 0x4
 5159 04e6 04       		.byte	0x4
 5160 04e7 07       		.byte	0x7
 5161 04e8 330D0000 		.4byte	.LASF92
 5162 04ec 03       		.uleb128 0x3
 5163 04ed F00D0000 		.4byte	.LASF93
 5164 04f1 0A       		.byte	0xa
 5165 04f2 85       		.byte	0x85
 5166 04f3 76030000 		.4byte	0x376
 5167 04f7 03       		.uleb128 0x3
 5168 04f8 660F0000 		.4byte	.LASF94
 5169 04fc 0A       		.byte	0xa
 5170 04fd 8D       		.byte	0x8d
 5171 04fe 05010000 		.4byte	0x105
 5172 0502 06       		.uleb128 0x6
 5173 0503 B8090000 		.4byte	.LASF95
 5174 0507 04       		.byte	0x4
 5175 0508 0A       		.byte	0xa
 5176 0509 A9       		.byte	0xa9
 5177 050a 1B050000 		.4byte	0x51b
 5178 050e 12       		.uleb128 0x12
 5179 050f 72313300 		.ascii	"r13\000"
 5180 0513 0A       		.byte	0xa
 5181 0514 AA       		.byte	0xaa
 5182 0515 96050000 		.4byte	0x596
 5183 0519 00       		.byte	0
 5184 051a 00       		.byte	0
 5185 051b 06       		.uleb128 0x6
 5186 051c E20B0000 		.4byte	.LASF96
 5187 0520 24       		.byte	0x24
 5188 0521 0B       		.byte	0xb
 5189 0522 F4       		.byte	0xf4
 5190 0523 96050000 		.4byte	0x596
 5191 0527 08       		.uleb128 0x8
 5192 0528 723400   		.ascii	"r4\000"
 5193 052b 0B       		.byte	0xb
 5194 052c 0701     		.2byte	0x107
 5195 052e EC040000 		.4byte	0x4ec
 5196 0532 00       		.byte	0
ARM GAS  C:\Users\jo\AppData\Local\Temp\cc67lm3z.s 			page 95


 5197 0533 08       		.uleb128 0x8
 5198 0534 723500   		.ascii	"r5\000"
 5199 0537 0B       		.byte	0xb
 5200 0538 0801     		.2byte	0x108
 5201 053a EC040000 		.4byte	0x4ec
 5202 053e 04       		.byte	0x4
 5203 053f 08       		.uleb128 0x8
 5204 0540 723600   		.ascii	"r6\000"
 5205 0543 0B       		.byte	0xb
 5206 0544 0901     		.2byte	0x109
 5207 0546 EC040000 		.4byte	0x4ec
 5208 054a 08       		.byte	0x8
 5209 054b 08       		.uleb128 0x8
 5210 054c 723700   		.ascii	"r7\000"
 5211 054f 0B       		.byte	0xb
 5212 0550 0A01     		.2byte	0x10a
 5213 0552 EC040000 		.4byte	0x4ec
 5214 0556 0C       		.byte	0xc
 5215 0557 08       		.uleb128 0x8
 5216 0558 723800   		.ascii	"r8\000"
 5217 055b 0B       		.byte	0xb
 5218 055c 0B01     		.2byte	0x10b
 5219 055e EC040000 		.4byte	0x4ec
 5220 0562 10       		.byte	0x10
 5221 0563 08       		.uleb128 0x8
 5222 0564 723900   		.ascii	"r9\000"
 5223 0567 0B       		.byte	0xb
 5224 0568 0C01     		.2byte	0x10c
 5225 056a EC040000 		.4byte	0x4ec
 5226 056e 14       		.byte	0x14
 5227 056f 08       		.uleb128 0x8
 5228 0570 72313000 		.ascii	"r10\000"
 5229 0574 0B       		.byte	0xb
 5230 0575 0D01     		.2byte	0x10d
 5231 0577 EC040000 		.4byte	0x4ec
 5232 057b 18       		.byte	0x18
 5233 057c 08       		.uleb128 0x8
 5234 057d 72313100 		.ascii	"r11\000"
 5235 0581 0B       		.byte	0xb
 5236 0582 0E01     		.2byte	0x10e
 5237 0584 EC040000 		.4byte	0x4ec
 5238 0588 1C       		.byte	0x1c
 5239 0589 08       		.uleb128 0x8
 5240 058a 6C7200   		.ascii	"lr\000"
 5241 058d 0B       		.byte	0xb
 5242 058e 0F01     		.2byte	0x10f
 5243 0590 EC040000 		.4byte	0x4ec
 5244 0594 20       		.byte	0x20
 5245 0595 00       		.byte	0
 5246 0596 0B       		.uleb128 0xb
 5247 0597 04       		.byte	0x4
 5248 0598 1B050000 		.4byte	0x51b
 5249 059c 03       		.uleb128 0x3
 5250 059d E6040000 		.4byte	.LASF97
 5251 05a1 0C       		.byte	0xc
 5252 05a2 28       		.byte	0x28
 5253 05a3 A7050000 		.4byte	0x5a7
ARM GAS  C:\Users\jo\AppData\Local\Temp\cc67lm3z.s 			page 96


 5254 05a7 06       		.uleb128 0x6
 5255 05a8 110F0000 		.4byte	.LASF98
 5256 05ac 04       		.byte	0x4
 5257 05ad 0D       		.byte	0xd
 5258 05ae 00       		.byte	0
 5259 05af BE050000 		.4byte	0x5be
 5260 05b3 13       		.uleb128 0x13
 5261 05b4 7C080000 		.4byte	.LASF121
 5262 05b8 76030000 		.4byte	0x376
 5263 05bc 00       		.byte	0
 5264 05bd 00       		.byte	0
 5265 05be 04       		.uleb128 0x4
 5266 05bf 01       		.byte	0x1
 5267 05c0 08       		.byte	0x8
 5268 05c1 86000000 		.4byte	.LASF99
 5269 05c5 0B       		.uleb128 0xb
 5270 05c6 04       		.byte	0x4
 5271 05c7 CB050000 		.4byte	0x5cb
 5272 05cb 14       		.uleb128 0x14
 5273 05cc BE050000 		.4byte	0x5be
 5274 05d0 15       		.uleb128 0x15
 5275 05d1 10       		.byte	0x10
 5276 05d2 0E       		.byte	0xe
 5277 05d3 57       		.byte	0x57
 5278 05d4 09060000 		.4byte	0x609
 5279 05d8 07       		.uleb128 0x7
 5280 05d9 C4060000 		.4byte	.LASF100
 5281 05dd 0E       		.byte	0xe
 5282 05de 5B       		.byte	0x5b
 5283 05df 83010000 		.4byte	0x183
 5284 05e3 00       		.byte	0
 5285 05e4 07       		.uleb128 0x7
 5286 05e5 A8060000 		.4byte	.LASF101
 5287 05e9 0E       		.byte	0xe
 5288 05ea 5F       		.byte	0x5f
 5289 05eb 09060000 		.4byte	0x609
 5290 05ef 04       		.byte	0x4
 5291 05f0 07       		.uleb128 0x7
 5292 05f1 0E040000 		.4byte	.LASF102
 5293 05f5 0E       		.byte	0xe
 5294 05f6 63       		.byte	0x63
 5295 05f7 76030000 		.4byte	0x376
 5296 05fb 08       		.byte	0x8
 5297 05fc 07       		.uleb128 0x7
 5298 05fd 1F010000 		.4byte	.LASF103
 5299 0601 0E       		.byte	0xe
 5300 0602 67       		.byte	0x67
 5301 0603 CE000000 		.4byte	0xce
 5302 0607 0C       		.byte	0xc
 5303 0608 00       		.byte	0
 5304 0609 0B       		.uleb128 0xb
 5305 060a 04       		.byte	0x4
 5306 060b 8E010000 		.4byte	0x18e
 5307 060f 03       		.uleb128 0x3
 5308 0610 B70D0000 		.4byte	.LASF104
 5309 0614 0E       		.byte	0xe
 5310 0615 68       		.byte	0x68
ARM GAS  C:\Users\jo\AppData\Local\Temp\cc67lm3z.s 			page 97


 5311 0616 D0050000 		.4byte	0x5d0
 5312 061a 16       		.uleb128 0x16
 5313 061b 0804     		.2byte	0x408
 5314 061d 0E       		.byte	0xe
 5315 061e 6D       		.byte	0x6d
 5316 061f 48060000 		.4byte	0x648
 5317 0623 07       		.uleb128 0x7
 5318 0624 58070000 		.4byte	.LASF105
 5319 0628 0E       		.byte	0xe
 5320 0629 71       		.byte	0x71
 5321 062a 37000000 		.4byte	0x37
 5322 062e 00       		.byte	0
 5323 062f 07       		.uleb128 0x7
 5324 0630 25090000 		.4byte	.LASF106
 5325 0634 0E       		.byte	0xe
 5326 0635 75       		.byte	0x75
 5327 0636 48060000 		.4byte	0x648
 5328 063a 04       		.byte	0x4
 5329 063b 07       		.uleb128 0x7
 5330 063c FF080000 		.4byte	.LASF107
 5331 0640 0E       		.byte	0xe
 5332 0641 79       		.byte	0x79
 5333 0642 4E060000 		.4byte	0x64e
 5334 0646 08       		.byte	0x8
 5335 0647 00       		.byte	0
 5336 0648 0B       		.uleb128 0xb
 5337 0649 04       		.byte	0x4
 5338 064a 0F060000 		.4byte	0x60f
 5339 064e 17       		.uleb128 0x17
 5340 064f 0F060000 		.4byte	0x60f
 5341 0653 5E060000 		.4byte	0x65e
 5342 0657 18       		.uleb128 0x18
 5343 0658 E5040000 		.4byte	0x4e5
 5344 065c 3F       		.byte	0x3f
 5345 065d 00       		.byte	0
 5346 065e 03       		.uleb128 0x3
 5347 065f 200F0000 		.4byte	.LASF108
 5348 0663 0E       		.byte	0xe
 5349 0664 7A       		.byte	0x7a
 5350 0665 1A060000 		.4byte	0x61a
 5351 0669 15       		.uleb128 0x15
 5352 066a 04       		.byte	0x4
 5353 066b 0F       		.byte	0xf
 5354 066c 38       		.byte	0x38
 5355 066d 7E060000 		.4byte	0x67e
 5356 0671 07       		.uleb128 0x7
 5357 0672 22050000 		.4byte	.LASF109
 5358 0676 0F       		.byte	0xf
 5359 0677 3C       		.byte	0x3c
 5360 0678 15010000 		.4byte	0x115
 5361 067c 00       		.byte	0
 5362 067d 00       		.byte	0
 5363 067e 03       		.uleb128 0x3
 5364 067f C6090000 		.4byte	.LASF110
 5365 0683 0F       		.byte	0xf
 5366 0684 3D       		.byte	0x3d
 5367 0685 69060000 		.4byte	0x669
ARM GAS  C:\Users\jo\AppData\Local\Temp\cc67lm3z.s 			page 98


 5368 0689 15       		.uleb128 0x15
 5369 068a 18       		.byte	0x18
 5370 068b 0F       		.byte	0xf
 5371 068c 48       		.byte	0x48
 5372 068d CC060000 		.4byte	0x6cc
 5373 0691 07       		.uleb128 0x7
 5374 0692 DD0D0000 		.4byte	.LASF111
 5375 0696 0F       		.byte	0xf
 5376 0697 49       		.byte	0x49
 5377 0698 15010000 		.4byte	0x115
 5378 069c 00       		.byte	0
 5379 069d 07       		.uleb128 0x7
 5380 069e 8C040000 		.4byte	.LASF112
 5381 06a2 0F       		.byte	0xf
 5382 06a3 4A       		.byte	0x4a
 5383 06a4 15010000 		.4byte	0x115
 5384 06a8 04       		.byte	0x4
 5385 06a9 07       		.uleb128 0x7
 5386 06aa B0050000 		.4byte	.LASF113
 5387 06ae 0F       		.byte	0xf
 5388 06af 4B       		.byte	0x4b
 5389 06b0 15010000 		.4byte	0x115
 5390 06b4 08       		.byte	0x8
 5391 06b5 12       		.uleb128 0x12
 5392 06b6 6E00     		.ascii	"n\000"
 5393 06b8 0F       		.byte	0xf
 5394 06b9 4C       		.byte	0x4c
 5395 06ba 78010000 		.4byte	0x178
 5396 06be 0C       		.byte	0xc
 5397 06bf 07       		.uleb128 0x7
 5398 06c0 97010000 		.4byte	.LASF114
 5399 06c4 0F       		.byte	0xf
 5400 06c5 4D       		.byte	0x4d
 5401 06c6 20010000 		.4byte	0x120
 5402 06ca 10       		.byte	0x10
 5403 06cb 00       		.byte	0
 5404 06cc 03       		.uleb128 0x3
 5405 06cd D4050000 		.4byte	.LASF115
 5406 06d1 0F       		.byte	0xf
 5407 06d2 4E       		.byte	0x4e
 5408 06d3 89060000 		.4byte	0x689
 5409 06d7 15       		.uleb128 0x15
 5410 06d8 38       		.byte	0x38
 5411 06d9 10       		.byte	0x10
 5412 06da 38       		.byte	0x38
 5413 06db 10070000 		.4byte	0x710
 5414 06df 07       		.uleb128 0x7
 5415 06e0 BB0A0000 		.4byte	.LASF116
 5416 06e4 10       		.byte	0x10
 5417 06e5 39       		.byte	0x39
 5418 06e6 78010000 		.4byte	0x178
 5419 06ea 00       		.byte	0
 5420 06eb 07       		.uleb128 0x7
 5421 06ec 74090000 		.4byte	.LASF117
 5422 06f0 10       		.byte	0x10
 5423 06f1 3A       		.byte	0x3a
 5424 06f2 78010000 		.4byte	0x178
ARM GAS  C:\Users\jo\AppData\Local\Temp\cc67lm3z.s 			page 99


 5425 06f6 04       		.byte	0x4
 5426 06f7 07       		.uleb128 0x7
 5427 06f8 370C0000 		.4byte	.LASF118
 5428 06fc 10       		.byte	0x10
 5429 06fd 3B       		.byte	0x3b
 5430 06fe CC060000 		.4byte	0x6cc
 5431 0702 08       		.byte	0x8
 5432 0703 07       		.uleb128 0x7
 5433 0704 68010000 		.4byte	.LASF119
 5434 0708 10       		.byte	0x10
 5435 0709 3D       		.byte	0x3d
 5436 070a CC060000 		.4byte	0x6cc
 5437 070e 20       		.byte	0x20
 5438 070f 00       		.byte	0
 5439 0710 03       		.uleb128 0x3
 5440 0711 4B030000 		.4byte	.LASF120
 5441 0715 10       		.byte	0x10
 5442 0716 3F       		.byte	0x3f
 5443 0717 D7060000 		.4byte	0x6d7
 5444 071b 19       		.uleb128 0x19
 5445 071c 04       		.byte	0x4
 5446 071d 09       		.byte	0x9
 5447 071e F6       		.byte	0xf6
 5448 071f 53070000 		.4byte	0x753
 5449 0723 1A       		.uleb128 0x1a
 5450 0724 13050000 		.4byte	.LASF122
 5451 0728 09       		.byte	0x9
 5452 0729 FD       		.byte	0xfd
 5453 072a 57010000 		.4byte	0x157
 5454 072e 1B       		.uleb128 0x1b
 5455 072f 4D100000 		.4byte	.LASF123
 5456 0733 09       		.byte	0x9
 5457 0734 0401     		.2byte	0x104
 5458 0736 57010000 		.4byte	0x157
 5459 073a 1B       		.uleb128 0x1b
 5460 073b D2020000 		.4byte	.LASF124
 5461 073f 09       		.byte	0x9
 5462 0740 0B01     		.2byte	0x10b
 5463 0742 76030000 		.4byte	0x376
 5464 0746 1B       		.uleb128 0x1b
 5465 0747 75020000 		.4byte	.LASF125
 5466 074b 09       		.byte	0x9
 5467 074c 1201     		.2byte	0x112
 5468 074e 62010000 		.4byte	0x162
 5469 0752 00       		.byte	0
 5470 0753 0B       		.uleb128 0xb
 5471 0754 04       		.byte	0x4
 5472 0755 F7040000 		.4byte	0x4f7
 5473 0759 06       		.uleb128 0x6
 5474 075a C1030000 		.4byte	.LASF126
 5475 075e 10       		.byte	0x10
 5476 075f 11       		.byte	0x11
 5477 0760 39       		.byte	0x39
 5478 0761 8A070000 		.4byte	0x78a
 5479 0765 07       		.uleb128 0x7
 5480 0766 D10B0000 		.4byte	.LASF127
 5481 076a 11       		.byte	0x11
ARM GAS  C:\Users\jo\AppData\Local\Temp\cc67lm3z.s 			page 100


 5482 076b 3A       		.byte	0x3a
 5483 076c C3020000 		.4byte	0x2c3
 5484 0770 00       		.byte	0
 5485 0771 07       		.uleb128 0x7
 5486 0772 F6000000 		.4byte	.LASF128
 5487 0776 11       		.byte	0x11
 5488 0777 3C       		.byte	0x3c
 5489 0778 09060000 		.4byte	0x609
 5490 077c 08       		.byte	0x8
 5491 077d 07       		.uleb128 0x7
 5492 077e 320F0000 		.4byte	.LASF129
 5493 0782 11       		.byte	0x11
 5494 0783 3E       		.byte	0x3e
 5495 0784 CB070000 		.4byte	0x7cb
 5496 0788 0C       		.byte	0xc
 5497 0789 00       		.byte	0
 5498 078a 0B       		.uleb128 0xb
 5499 078b 04       		.byte	0x4
 5500 078c 59070000 		.4byte	0x759
 5501 0790 0B       		.uleb128 0xb
 5502 0791 04       		.byte	0x4
 5503 0792 78030000 		.4byte	0x378
 5504 0796 05       		.uleb128 0x5
 5505 0797 C5050000 		.4byte	0x5c5
 5506 079b 17       		.uleb128 0x17
 5507 079c F7040000 		.4byte	0x4f7
 5508 07a0 AB070000 		.4byte	0x7ab
 5509 07a4 18       		.uleb128 0x18
 5510 07a5 E5040000 		.4byte	0x4e5
 5511 07a9 1E       		.byte	0x1e
 5512 07aa 00       		.byte	0
 5513 07ab 0B       		.uleb128 0xb
 5514 07ac 04       		.byte	0x4
 5515 07ad B1070000 		.4byte	0x7b1
 5516 07b1 1C       		.uleb128 0x1c
 5517 07b2 57010000 		.4byte	0x157
 5518 07b6 C0070000 		.4byte	0x7c0
 5519 07ba 0D       		.uleb128 0xd
 5520 07bb 76030000 		.4byte	0x376
 5521 07bf 00       		.byte	0
 5522 07c0 03       		.uleb128 0x3
 5523 07c1 C60D0000 		.4byte	.LASF130
 5524 07c5 11       		.byte	0x11
 5525 07c6 34       		.byte	0x34
 5526 07c7 59070000 		.4byte	0x759
 5527 07cb 0B       		.uleb128 0xb
 5528 07cc 04       		.byte	0x4
 5529 07cd C0070000 		.4byte	0x7c0
 5530 07d1 0B       		.uleb128 0xb
 5531 07d2 04       		.byte	0x4
 5532 07d3 CE000000 		.4byte	0xce
 5533 07d7 06       		.uleb128 0x6
 5534 07d8 BE010000 		.4byte	.LASF131
 5535 07dc 10       		.byte	0x10
 5536 07dd 12       		.byte	0x12
 5537 07de 40       		.byte	0x40
 5538 07df 14080000 		.4byte	0x814
ARM GAS  C:\Users\jo\AppData\Local\Temp\cc67lm3z.s 			page 101


 5539 07e3 07       		.uleb128 0x7
 5540 07e4 DE070000 		.4byte	.LASF132
 5541 07e8 12       		.byte	0x12
 5542 07e9 41       		.byte	0x41
 5543 07ea 38080000 		.4byte	0x838
 5544 07ee 00       		.byte	0
 5545 07ef 07       		.uleb128 0x7
 5546 07f0 D10C0000 		.4byte	.LASF133
 5547 07f4 12       		.byte	0x12
 5548 07f5 41       		.byte	0x41
 5549 07f6 57080000 		.4byte	0x857
 5550 07fa 04       		.byte	0x4
 5551 07fb 12       		.uleb128 0x12
 5552 07fc 70757400 		.ascii	"put\000"
 5553 0800 12       		.byte	0x12
 5554 0801 41       		.byte	0x41
 5555 0802 71080000 		.4byte	0x871
 5556 0806 08       		.byte	0x8
 5557 0807 12       		.uleb128 0x12
 5558 0808 67657400 		.ascii	"get\000"
 5559 080c 12       		.byte	0x12
 5560 080d 41       		.byte	0x41
 5561 080e AB070000 		.4byte	0x7ab
 5562 0812 0C       		.byte	0xc
 5563 0813 00       		.byte	0
 5564 0814 1C       		.uleb128 0x1c
 5565 0815 2C000000 		.4byte	0x2c
 5566 0819 2D080000 		.4byte	0x82d
 5567 081d 0D       		.uleb128 0xd
 5568 081e 76030000 		.4byte	0x376
 5569 0822 0D       		.uleb128 0xd
 5570 0823 2D080000 		.4byte	0x82d
 5571 0827 0D       		.uleb128 0xd
 5572 0828 2C000000 		.4byte	0x2c
 5573 082c 00       		.byte	0
 5574 082d 0B       		.uleb128 0xb
 5575 082e 04       		.byte	0x4
 5576 082f 33080000 		.4byte	0x833
 5577 0833 14       		.uleb128 0x14
 5578 0834 CE000000 		.4byte	0xce
 5579 0838 0B       		.uleb128 0xb
 5580 0839 04       		.byte	0x4
 5581 083a 14080000 		.4byte	0x814
 5582 083e 1C       		.uleb128 0x1c
 5583 083f 2C000000 		.4byte	0x2c
 5584 0843 57080000 		.4byte	0x857
 5585 0847 0D       		.uleb128 0xd
 5586 0848 76030000 		.4byte	0x376
 5587 084c 0D       		.uleb128 0xd
 5588 084d D1070000 		.4byte	0x7d1
 5589 0851 0D       		.uleb128 0xd
 5590 0852 2C000000 		.4byte	0x2c
 5591 0856 00       		.byte	0
 5592 0857 0B       		.uleb128 0xb
 5593 0858 04       		.byte	0x4
 5594 0859 3E080000 		.4byte	0x83e
 5595 085d 1C       		.uleb128 0x1c
ARM GAS  C:\Users\jo\AppData\Local\Temp\cc67lm3z.s 			page 102


 5596 085e 57010000 		.4byte	0x157
 5597 0862 71080000 		.4byte	0x871
 5598 0866 0D       		.uleb128 0xd
 5599 0867 76030000 		.4byte	0x376
 5600 086b 0D       		.uleb128 0xd
 5601 086c CE000000 		.4byte	0xce
 5602 0870 00       		.byte	0
 5603 0871 0B       		.uleb128 0xb
 5604 0872 04       		.byte	0x4
 5605 0873 5D080000 		.4byte	0x85d
 5606 0877 15       		.uleb128 0x15
 5607 0878 04       		.byte	0x4
 5608 0879 12       		.byte	0x12
 5609 087a 49       		.byte	0x49
 5610 087b 8C080000 		.4byte	0x88c
 5611 087f 12       		.uleb128 0x12
 5612 0880 766D7400 		.ascii	"vmt\000"
 5613 0884 12       		.byte	0x12
 5614 0885 4B       		.byte	0x4b
 5615 0886 8C080000 		.4byte	0x88c
 5616 088a 00       		.byte	0
 5617 088b 00       		.byte	0
 5618 088c 0B       		.uleb128 0xb
 5619 088d 04       		.byte	0x4
 5620 088e 92080000 		.4byte	0x892
 5621 0892 14       		.uleb128 0x14
 5622 0893 D7070000 		.4byte	0x7d7
 5623 0897 03       		.uleb128 0x3
 5624 0898 F5050000 		.4byte	.LASF134
 5625 089c 12       		.byte	0x12
 5626 089d 4D       		.byte	0x4d
 5627 089e 77080000 		.4byte	0x877
 5628 08a2 04       		.uleb128 0x4
 5629 08a3 01       		.byte	0x1
 5630 08a4 02       		.byte	0x2
 5631 08a5 46050000 		.4byte	.LASF135
 5632 08a9 06       		.uleb128 0x6
 5633 08aa C6080000 		.4byte	.LASF136
 5634 08ae 10       		.byte	0x10
 5635 08af 13       		.byte	0x13
 5636 08b0 2E       		.byte	0x2e
 5637 08b1 E6080000 		.4byte	0x8e6
 5638 08b5 07       		.uleb128 0x7
 5639 08b6 DE070000 		.4byte	.LASF132
 5640 08ba 13       		.byte	0x13
 5641 08bb 2F       		.byte	0x2f
 5642 08bc 38080000 		.4byte	0x838
 5643 08c0 00       		.byte	0
 5644 08c1 07       		.uleb128 0x7
 5645 08c2 D10C0000 		.4byte	.LASF133
 5646 08c6 13       		.byte	0x13
 5647 08c7 2F       		.byte	0x2f
 5648 08c8 57080000 		.4byte	0x857
 5649 08cc 04       		.byte	0x4
 5650 08cd 12       		.uleb128 0x12
 5651 08ce 70757400 		.ascii	"put\000"
 5652 08d2 13       		.byte	0x13
ARM GAS  C:\Users\jo\AppData\Local\Temp\cc67lm3z.s 			page 103


 5653 08d3 2F       		.byte	0x2f
 5654 08d4 71080000 		.4byte	0x871
 5655 08d8 08       		.byte	0x8
 5656 08d9 12       		.uleb128 0x12
 5657 08da 67657400 		.ascii	"get\000"
 5658 08de 13       		.byte	0x13
 5659 08df 2F       		.byte	0x2f
 5660 08e0 AB070000 		.4byte	0x7ab
 5661 08e4 0C       		.byte	0xc
 5662 08e5 00       		.byte	0
 5663 08e6 15       		.uleb128 0x15
 5664 08e7 04       		.byte	0x4
 5665 08e8 13       		.byte	0x13
 5666 08e9 39       		.byte	0x39
 5667 08ea FB080000 		.4byte	0x8fb
 5668 08ee 12       		.uleb128 0x12
 5669 08ef 766D7400 		.ascii	"vmt\000"
 5670 08f3 13       		.byte	0x13
 5671 08f4 3B       		.byte	0x3b
 5672 08f5 FB080000 		.4byte	0x8fb
 5673 08f9 00       		.byte	0
 5674 08fa 00       		.byte	0
 5675 08fb 0B       		.uleb128 0xb
 5676 08fc 04       		.byte	0x4
 5677 08fd 01090000 		.4byte	0x901
 5678 0901 14       		.uleb128 0x14
 5679 0902 A9080000 		.4byte	0x8a9
 5680 0906 03       		.uleb128 0x3
 5681 0907 89090000 		.4byte	.LASF137
 5682 090b 13       		.byte	0x13
 5683 090c 3D       		.byte	0x3d
 5684 090d E6080000 		.4byte	0x8e6
 5685 0911 03       		.uleb128 0x3
 5686 0912 73070000 		.4byte	.LASF138
 5687 0916 0C       		.byte	0xc
 5688 0917 62       		.byte	0x62
 5689 0918 9C050000 		.4byte	0x59c
 5690 091c 03       		.uleb128 0x3
 5691 091d 49080000 		.4byte	.LASF139
 5692 0921 14       		.byte	0x14
 5693 0922 3D       		.byte	0x3d
 5694 0923 CE000000 		.4byte	0xce
 5695 0927 03       		.uleb128 0x3
 5696 0928 A5050000 		.4byte	.LASF140
 5697 092c 14       		.byte	0x14
 5698 092d 3E       		.byte	0x3e
 5699 092e C3000000 		.4byte	0xc3
 5700 0932 03       		.uleb128 0x3
 5701 0933 E3010000 		.4byte	.LASF141
 5702 0937 14       		.byte	0x14
 5703 0938 3F       		.byte	0x3f
 5704 0939 E4000000 		.4byte	0xe4
 5705 093d 03       		.uleb128 0x3
 5706 093e 7B0D0000 		.4byte	.LASF142
 5707 0942 14       		.byte	0x14
 5708 0943 40       		.byte	0x40
 5709 0944 D9000000 		.4byte	0xd9
ARM GAS  C:\Users\jo\AppData\Local\Temp\cc67lm3z.s 			page 104


 5710 0948 03       		.uleb128 0x3
 5711 0949 DC0A0000 		.4byte	.LASF143
 5712 094d 14       		.byte	0x14
 5713 094e 41       		.byte	0x41
 5714 094f FA000000 		.4byte	0xfa
 5715 0953 03       		.uleb128 0x3
 5716 0954 AA050000 		.4byte	.LASF144
 5717 0958 14       		.byte	0x14
 5718 0959 42       		.byte	0x42
 5719 095a EF000000 		.4byte	0xef
 5720 095e 1D       		.uleb128 0x1d
 5721 095f 01       		.byte	0x1
 5722 0960 1C       		.byte	0x1c
 5723 0961 2B       		.byte	0x2b
 5724 0962 BB090000 		.4byte	0x9bb
 5725 0966 1E       		.uleb128 0x1e
 5726 0967 5E0C0000 		.4byte	.LASF145
 5727 096b 00       		.sleb128 0
 5728 096c 1E       		.uleb128 0x1e
 5729 096d 3C080000 		.4byte	.LASF146
 5730 0971 01       		.sleb128 1
 5731 0972 1E       		.uleb128 0x1e
 5732 0973 54000000 		.4byte	.LASF147
 5733 0977 02       		.sleb128 2
 5734 0978 1E       		.uleb128 0x1e
 5735 0979 2C0E0000 		.4byte	.LASF148
 5736 097d 03       		.sleb128 3
 5737 097e 1E       		.uleb128 0x1e
 5738 097f 65090000 		.4byte	.LASF149
 5739 0983 04       		.sleb128 4
 5740 0984 1E       		.uleb128 0x1e
 5741 0985 EA0C0000 		.4byte	.LASF150
 5742 0989 05       		.sleb128 5
 5743 098a 1E       		.uleb128 0x1e
 5744 098b 09010000 		.4byte	.LASF151
 5745 098f 06       		.sleb128 6
 5746 0990 1E       		.uleb128 0x1e
 5747 0991 39030000 		.4byte	.LASF152
 5748 0995 07       		.sleb128 7
 5749 0996 1E       		.uleb128 0x1e
 5750 0997 99030000 		.4byte	.LASF153
 5751 099b 08       		.sleb128 8
 5752 099c 1E       		.uleb128 0x1e
 5753 099d B9040000 		.4byte	.LASF154
 5754 09a1 09       		.sleb128 9
 5755 09a2 1E       		.uleb128 0x1e
 5756 09a3 420C0000 		.4byte	.LASF155
 5757 09a7 0A       		.sleb128 10
 5758 09a8 1E       		.uleb128 0x1e
 5759 09a9 35060000 		.4byte	.LASF156
 5760 09ad 0B       		.sleb128 11
 5761 09ae 1E       		.uleb128 0x1e
 5762 09af 9A020000 		.4byte	.LASF157
 5763 09b3 0C       		.sleb128 12
 5764 09b4 1E       		.uleb128 0x1e
 5765 09b5 92050000 		.4byte	.LASF158
 5766 09b9 0D       		.sleb128 13
ARM GAS  C:\Users\jo\AppData\Local\Temp\cc67lm3z.s 			page 105


 5767 09ba 00       		.byte	0
 5768 09bb 06       		.uleb128 0x6
 5769 09bc 5F100000 		.4byte	.LASF159
 5770 09c0 04       		.byte	0x4
 5771 09c1 15       		.byte	0x15
 5772 09c2 2C       		.byte	0x2c
 5773 09c3 D4090000 		.4byte	0x9d4
 5774 09c7 07       		.uleb128 0x7
 5775 09c8 800E0000 		.4byte	.LASF160
 5776 09cc 15       		.byte	0x15
 5777 09cd 2D       		.byte	0x2d
 5778 09ce 48090000 		.4byte	0x948
 5779 09d2 00       		.byte	0
 5780 09d3 00       		.byte	0
 5781 09d4 03       		.uleb128 0x3
 5782 09d5 ED0F0000 		.4byte	.LASF161
 5783 09d9 15       		.byte	0x15
 5784 09da 40       		.byte	0x40
 5785 09db BB090000 		.4byte	0x9bb
 5786 09df 03       		.uleb128 0x3
 5787 09e0 91010000 		.4byte	.LASF162
 5788 09e4 16       		.byte	0x16
 5789 09e5 2F       		.byte	0x2f
 5790 09e6 27090000 		.4byte	0x927
 5791 09ea 06       		.uleb128 0x6
 5792 09eb 390E0000 		.4byte	.LASF163
 5793 09ef 10       		.byte	0x10
 5794 09f0 17       		.byte	0x17
 5795 09f1 4F       		.byte	0x4f
 5796 09f2 4B0A0000 		.4byte	0xa4b
 5797 09f6 07       		.uleb128 0x7
 5798 09f7 4F010000 		.4byte	.LASF164
 5799 09fb 17       		.byte	0x17
 5800 09fc 51       		.byte	0x51
 5801 09fd 4B0A0000 		.4byte	0xa4b
 5802 0a01 00       		.byte	0
 5803 0a02 07       		.uleb128 0x7
 5804 0a03 1A050000 		.4byte	.LASF165
 5805 0a07 17       		.byte	0x17
 5806 0a08 54       		.byte	0x54
 5807 0a09 76030000 		.4byte	0x376
 5808 0a0d 04       		.byte	0x4
 5809 0a0e 07       		.uleb128 0x7
 5810 0a0f 8B0E0000 		.4byte	.LASF166
 5811 0a13 17       		.byte	0x17
 5812 0a14 5D       		.byte	0x5d
 5813 0a15 32090000 		.4byte	0x932
 5814 0a19 08       		.byte	0x8
 5815 0a1a 12       		.uleb128 0x12
 5816 0a1b 6C656E00 		.ascii	"len\000"
 5817 0a1f 17       		.byte	0x17
 5818 0a20 60       		.byte	0x60
 5819 0a21 32090000 		.4byte	0x932
 5820 0a25 0A       		.byte	0xa
 5821 0a26 07       		.uleb128 0x7
 5822 0a27 EF060000 		.4byte	.LASF167
 5823 0a2b 17       		.byte	0x17
ARM GAS  C:\Users\jo\AppData\Local\Temp\cc67lm3z.s 			page 106


 5824 0a2c 63       		.byte	0x63
 5825 0a2d 1C090000 		.4byte	0x91c
 5826 0a31 0C       		.byte	0xc
 5827 0a32 07       		.uleb128 0x7
 5828 0a33 DD000000 		.4byte	.LASF168
 5829 0a37 17       		.byte	0x17
 5830 0a38 66       		.byte	0x66
 5831 0a39 1C090000 		.4byte	0x91c
 5832 0a3d 0D       		.byte	0xd
 5833 0a3e 12       		.uleb128 0x12
 5834 0a3f 72656600 		.ascii	"ref\000"
 5835 0a43 17       		.byte	0x17
 5836 0a44 6D       		.byte	0x6d
 5837 0a45 32090000 		.4byte	0x932
 5838 0a49 0E       		.byte	0xe
 5839 0a4a 00       		.byte	0
 5840 0a4b 0B       		.uleb128 0xb
 5841 0a4c 04       		.byte	0x4
 5842 0a4d EA090000 		.4byte	0x9ea
 5843 0a51 0B       		.uleb128 0xb
 5844 0a52 04       		.byte	0x4
 5845 0a53 570A0000 		.4byte	0xa57
 5846 0a57 06       		.uleb128 0x6
 5847 0a58 B70E0000 		.4byte	.LASF169
 5848 0a5c 30       		.byte	0x30
 5849 0a5d 18       		.byte	0x18
 5850 0a5e 88       		.byte	0x88
 5851 0a5f 0B0B0000 		.4byte	0xb0b
 5852 0a63 07       		.uleb128 0x7
 5853 0a64 4F010000 		.4byte	.LASF164
 5854 0a68 18       		.byte	0x18
 5855 0a69 8A       		.byte	0x8a
 5856 0a6a 510A0000 		.4byte	0xa51
 5857 0a6e 00       		.byte	0
 5858 0a6f 07       		.uleb128 0x7
 5859 0a70 5F100000 		.4byte	.LASF159
 5860 0a74 18       		.byte	0x18
 5861 0a75 8D       		.byte	0x8d
 5862 0a76 D4090000 		.4byte	0x9d4
 5863 0a7a 04       		.byte	0x4
 5864 0a7b 07       		.uleb128 0x7
 5865 0a7c B6070000 		.4byte	.LASF170
 5866 0a80 18       		.byte	0x18
 5867 0a81 8E       		.byte	0x8e
 5868 0a82 D4090000 		.4byte	0x9d4
 5869 0a86 08       		.byte	0x8
 5870 0a87 12       		.uleb128 0x12
 5871 0a88 677700   		.ascii	"gw\000"
 5872 0a8b 18       		.byte	0x18
 5873 0a8c 8F       		.byte	0x8f
 5874 0a8d D4090000 		.4byte	0x9d4
 5875 0a91 0C       		.byte	0xc
 5876 0a92 07       		.uleb128 0x7
 5877 0a93 A80D0000 		.4byte	.LASF171
 5878 0a97 18       		.byte	0x18
 5879 0a98 93       		.byte	0x93
 5880 0a99 0B0B0000 		.4byte	0xb0b
ARM GAS  C:\Users\jo\AppData\Local\Temp\cc67lm3z.s 			page 107


 5881 0a9d 10       		.byte	0x10
 5882 0a9e 07       		.uleb128 0x7
 5883 0a9f 95000000 		.4byte	.LASF172
 5884 0aa3 18       		.byte	0x18
 5885 0aa4 97       		.byte	0x97
 5886 0aa5 300B0000 		.4byte	0xb30
 5887 0aa9 14       		.byte	0x14
 5888 0aaa 07       		.uleb128 0x7
 5889 0aab 3D100000 		.4byte	.LASF173
 5890 0aaf 18       		.byte	0x18
 5891 0ab0 9B       		.byte	0x9b
 5892 0ab1 600B0000 		.4byte	0xb60
 5893 0ab5 18       		.byte	0x18
 5894 0ab6 07       		.uleb128 0x7
 5895 0ab7 850E0000 		.4byte	.LASF174
 5896 0abb 18       		.byte	0x18
 5897 0abc AC       		.byte	0xac
 5898 0abd 76030000 		.4byte	0x376
 5899 0ac1 1C       		.byte	0x1c
 5900 0ac2 12       		.uleb128 0x12
 5901 0ac3 6D747500 		.ascii	"mtu\000"
 5902 0ac7 18       		.byte	0x18
 5903 0ac8 BA       		.byte	0xba
 5904 0ac9 32090000 		.4byte	0x932
 5905 0acd 20       		.byte	0x20
 5906 0ace 07       		.uleb128 0x7
 5907 0acf 190A0000 		.4byte	.LASF175
 5908 0ad3 18       		.byte	0x18
 5909 0ad4 BC       		.byte	0xbc
 5910 0ad5 1C090000 		.4byte	0x91c
 5911 0ad9 22       		.byte	0x22
 5912 0ada 07       		.uleb128 0x7
 5913 0adb E8030000 		.4byte	.LASF176
 5914 0adf 18       		.byte	0x18
 5915 0ae0 BE       		.byte	0xbe
 5916 0ae1 850B0000 		.4byte	0xb85
 5917 0ae5 23       		.byte	0x23
 5918 0ae6 07       		.uleb128 0x7
 5919 0ae7 DD000000 		.4byte	.LASF168
 5920 0aeb 18       		.byte	0x18
 5921 0aec C0       		.byte	0xc0
 5922 0aed 1C090000 		.4byte	0x91c
 5923 0af1 29       		.byte	0x29
 5924 0af2 07       		.uleb128 0x7
 5925 0af3 25000000 		.4byte	.LASF177
 5926 0af7 18       		.byte	0x18
 5927 0af8 C2       		.byte	0xc2
 5928 0af9 950B0000 		.4byte	0xb95
 5929 0afd 2A       		.byte	0x2a
 5930 0afe 12       		.uleb128 0x12
 5931 0aff 6E756D00 		.ascii	"num\000"
 5932 0b03 18       		.byte	0x18
 5933 0b04 C4       		.byte	0xc4
 5934 0b05 1C090000 		.4byte	0x91c
 5935 0b09 2C       		.byte	0x2c
 5936 0b0a 00       		.byte	0
 5937 0b0b 03       		.uleb128 0x3
ARM GAS  C:\Users\jo\AppData\Local\Temp\cc67lm3z.s 			page 108


 5938 0b0c 0C030000 		.4byte	.LASF178
 5939 0b10 18       		.byte	0x18
 5940 0b11 6D       		.byte	0x6d
 5941 0b12 160B0000 		.4byte	0xb16
 5942 0b16 0B       		.uleb128 0xb
 5943 0b17 04       		.byte	0x4
 5944 0b18 1C0B0000 		.4byte	0xb1c
 5945 0b1c 1C       		.uleb128 0x1c
 5946 0b1d DF090000 		.4byte	0x9df
 5947 0b21 300B0000 		.4byte	0xb30
 5948 0b25 0D       		.uleb128 0xd
 5949 0b26 4B0A0000 		.4byte	0xa4b
 5950 0b2a 0D       		.uleb128 0xd
 5951 0b2b 510A0000 		.4byte	0xa51
 5952 0b2f 00       		.byte	0
 5953 0b30 03       		.uleb128 0x3
 5954 0b31 7C020000 		.4byte	.LASF179
 5955 0b35 18       		.byte	0x18
 5956 0b36 76       		.byte	0x76
 5957 0b37 3B0B0000 		.4byte	0xb3b
 5958 0b3b 0B       		.uleb128 0xb
 5959 0b3c 04       		.byte	0x4
 5960 0b3d 410B0000 		.4byte	0xb41
 5961 0b41 1C       		.uleb128 0x1c
 5962 0b42 DF090000 		.4byte	0x9df
 5963 0b46 5A0B0000 		.4byte	0xb5a
 5964 0b4a 0D       		.uleb128 0xd
 5965 0b4b 510A0000 		.4byte	0xa51
 5966 0b4f 0D       		.uleb128 0xd
 5967 0b50 4B0A0000 		.4byte	0xa4b
 5968 0b54 0D       		.uleb128 0xd
 5969 0b55 5A0B0000 		.4byte	0xb5a
 5970 0b59 00       		.byte	0
 5971 0b5a 0B       		.uleb128 0xb
 5972 0b5b 04       		.byte	0x4
 5973 0b5c D4090000 		.4byte	0x9d4
 5974 0b60 03       		.uleb128 0x3
 5975 0b61 D60C0000 		.4byte	.LASF180
 5976 0b65 18       		.byte	0x18
 5977 0b66 7E       		.byte	0x7e
 5978 0b67 6B0B0000 		.4byte	0xb6b
 5979 0b6b 0B       		.uleb128 0xb
 5980 0b6c 04       		.byte	0x4
 5981 0b6d 710B0000 		.4byte	0xb71
 5982 0b71 1C       		.uleb128 0x1c
 5983 0b72 DF090000 		.4byte	0x9df
 5984 0b76 850B0000 		.4byte	0xb85
 5985 0b7a 0D       		.uleb128 0xd
 5986 0b7b 510A0000 		.4byte	0xa51
 5987 0b7f 0D       		.uleb128 0xd
 5988 0b80 4B0A0000 		.4byte	0xa4b
 5989 0b84 00       		.byte	0
 5990 0b85 17       		.uleb128 0x17
 5991 0b86 1C090000 		.4byte	0x91c
 5992 0b8a 950B0000 		.4byte	0xb95
 5993 0b8e 18       		.uleb128 0x18
 5994 0b8f E5040000 		.4byte	0x4e5
ARM GAS  C:\Users\jo\AppData\Local\Temp\cc67lm3z.s 			page 109


 5995 0b93 05       		.byte	0x5
 5996 0b94 00       		.byte	0
 5997 0b95 17       		.uleb128 0x17
 5998 0b96 BE050000 		.4byte	0x5be
 5999 0b9a A50B0000 		.4byte	0xba5
 6000 0b9e 18       		.uleb128 0x18
 6001 0b9f E5040000 		.4byte	0x4e5
 6002 0ba3 01       		.byte	0x1
 6003 0ba4 00       		.byte	0
 6004 0ba5 03       		.uleb128 0x3
 6005 0ba6 CF000000 		.4byte	.LASF181
 6006 0baa 19       		.byte	0x19
 6007 0bab 3C       		.byte	0x3c
 6008 0bac B00B0000 		.4byte	0xbb0
 6009 0bb0 0B       		.uleb128 0xb
 6010 0bb1 04       		.byte	0x4
 6011 0bb2 B60B0000 		.4byte	0xbb6
 6012 0bb6 1C       		.uleb128 0x1c
 6013 0bb7 DF090000 		.4byte	0x9df
 6014 0bbb CF0B0000 		.4byte	0xbcf
 6015 0bbf 0D       		.uleb128 0xd
 6016 0bc0 76030000 		.4byte	0x376
 6017 0bc4 0D       		.uleb128 0xd
 6018 0bc5 CF0B0000 		.4byte	0xbcf
 6019 0bc9 0D       		.uleb128 0xd
 6020 0bca DF090000 		.4byte	0x9df
 6021 0bce 00       		.byte	0
 6022 0bcf 0B       		.uleb128 0xb
 6023 0bd0 04       		.byte	0x4
 6024 0bd1 D50B0000 		.4byte	0xbd5
 6025 0bd5 06       		.uleb128 0x6
 6026 0bd6 450F0000 		.4byte	.LASF182
 6027 0bda 98       		.byte	0x98
 6028 0bdb 19       		.byte	0x19
 6029 0bdc A8       		.byte	0xa8
 6030 0bdd 870E0000 		.4byte	0xe87
 6031 0be1 07       		.uleb128 0x7
 6032 0be2 6B0C0000 		.4byte	.LASF183
 6033 0be6 19       		.byte	0x19
 6034 0be7 AA       		.byte	0xaa
 6035 0be8 D4090000 		.4byte	0x9d4
 6036 0bec 00       		.byte	0
 6037 0bed 07       		.uleb128 0x7
 6038 0bee 950F0000 		.4byte	.LASF184
 6039 0bf2 19       		.byte	0x19
 6040 0bf3 AA       		.byte	0xaa
 6041 0bf4 D4090000 		.4byte	0x9d4
 6042 0bf8 04       		.byte	0x4
 6043 0bf9 07       		.uleb128 0x7
 6044 0bfa 7B000000 		.4byte	.LASF185
 6045 0bfe 19       		.byte	0x19
 6046 0bff AA       		.byte	0xaa
 6047 0c00 1C090000 		.4byte	0x91c
 6048 0c04 08       		.byte	0x8
 6049 0c05 12       		.uleb128 0x12
 6050 0c06 746F7300 		.ascii	"tos\000"
 6051 0c0a 19       		.byte	0x19
ARM GAS  C:\Users\jo\AppData\Local\Temp\cc67lm3z.s 			page 110


 6052 0c0b AA       		.byte	0xaa
 6053 0c0c 1C090000 		.4byte	0x91c
 6054 0c10 09       		.byte	0x9
 6055 0c11 12       		.uleb128 0x12
 6056 0c12 74746C00 		.ascii	"ttl\000"
 6057 0c16 19       		.byte	0x19
 6058 0c17 AA       		.byte	0xaa
 6059 0c18 1C090000 		.4byte	0x91c
 6060 0c1c 0A       		.byte	0xa
 6061 0c1d 07       		.uleb128 0x7
 6062 0c1e 4F010000 		.4byte	.LASF164
 6063 0c22 19       		.byte	0x19
 6064 0c23 AC       		.byte	0xac
 6065 0c24 CF0B0000 		.4byte	0xbcf
 6066 0c28 0C       		.byte	0xc
 6067 0c29 07       		.uleb128 0x7
 6068 0c2a 640E0000 		.4byte	.LASF186
 6069 0c2e 19       		.byte	0x19
 6070 0c2f AC       		.byte	0xac
 6071 0c30 76030000 		.4byte	0x376
 6072 0c34 10       		.byte	0x10
 6073 0c35 07       		.uleb128 0x7
 6074 0c36 85030000 		.4byte	.LASF187
 6075 0c3a 19       		.byte	0x19
 6076 0c3b AC       		.byte	0xac
 6077 0c3c A50B0000 		.4byte	0xba5
 6078 0c40 14       		.byte	0x14
 6079 0c41 07       		.uleb128 0x7
 6080 0c42 850E0000 		.4byte	.LASF174
 6081 0c46 19       		.byte	0x19
 6082 0c47 AC       		.byte	0xac
 6083 0c48 310F0000 		.4byte	0xf31
 6084 0c4c 18       		.byte	0x18
 6085 0c4d 07       		.uleb128 0x7
 6086 0c4e 23060000 		.4byte	.LASF188
 6087 0c52 19       		.byte	0x19
 6088 0c53 AC       		.byte	0xac
 6089 0c54 1C090000 		.4byte	0x91c
 6090 0c58 19       		.byte	0x19
 6091 0c59 07       		.uleb128 0x7
 6092 0c5a FE000000 		.4byte	.LASF189
 6093 0c5e 19       		.byte	0x19
 6094 0c5f AC       		.byte	0xac
 6095 0c60 32090000 		.4byte	0x932
 6096 0c64 1A       		.byte	0x1a
 6097 0c65 07       		.uleb128 0x7
 6098 0c66 F3080000 		.4byte	.LASF190
 6099 0c6a 19       		.byte	0x19
 6100 0c6b AF       		.byte	0xaf
 6101 0c6c 32090000 		.4byte	0x932
 6102 0c70 1C       		.byte	0x1c
 6103 0c71 07       		.uleb128 0x7
 6104 0c72 DD000000 		.4byte	.LASF168
 6105 0c76 19       		.byte	0x19
 6106 0c77 B1       		.byte	0xb1
 6107 0c78 1C090000 		.4byte	0x91c
 6108 0c7c 1E       		.byte	0x1e
ARM GAS  C:\Users\jo\AppData\Local\Temp\cc67lm3z.s 			page 111


 6109 0c7d 07       		.uleb128 0x7
 6110 0c7e C7000000 		.4byte	.LASF191
 6111 0c82 19       		.byte	0x19
 6112 0c83 BF       		.byte	0xbf
 6113 0c84 1C090000 		.4byte	0x91c
 6114 0c88 1F       		.byte	0x1f
 6115 0c89 07       		.uleb128 0x7
 6116 0c8a 28060000 		.4byte	.LASF192
 6117 0c8e 19       		.byte	0x19
 6118 0c8f BF       		.byte	0xbf
 6119 0c90 1C090000 		.4byte	0x91c
 6120 0c94 20       		.byte	0x20
 6121 0c95 07       		.uleb128 0x7
 6122 0c96 530C0000 		.4byte	.LASF193
 6123 0c9a 19       		.byte	0x19
 6124 0c9b C0       		.byte	0xc0
 6125 0c9c 1C090000 		.4byte	0x91c
 6126 0ca0 21       		.byte	0x21
 6127 0ca1 12       		.uleb128 0x12
 6128 0ca2 746D7200 		.ascii	"tmr\000"
 6129 0ca6 19       		.byte	0x19
 6130 0ca7 C1       		.byte	0xc1
 6131 0ca8 48090000 		.4byte	0x948
 6132 0cac 24       		.byte	0x24
 6133 0cad 07       		.uleb128 0x7
 6134 0cae B1040000 		.4byte	.LASF194
 6135 0cb2 19       		.byte	0x19
 6136 0cb3 C4       		.byte	0xc4
 6137 0cb4 48090000 		.4byte	0x948
 6138 0cb8 28       		.byte	0x28
 6139 0cb9 07       		.uleb128 0x7
 6140 0cba 190C0000 		.4byte	.LASF195
 6141 0cbe 19       		.byte	0x19
 6142 0cbf C5       		.byte	0xc5
 6143 0cc0 32090000 		.4byte	0x932
 6144 0cc4 2C       		.byte	0x2c
 6145 0cc5 07       		.uleb128 0x7
 6146 0cc6 C8050000 		.4byte	.LASF196
 6147 0cca 19       		.byte	0x19
 6148 0ccb C6       		.byte	0xc6
 6149 0ccc 32090000 		.4byte	0x932
 6150 0cd0 2E       		.byte	0x2e
 6151 0cd1 07       		.uleb128 0x7
 6152 0cd2 3E020000 		.4byte	.LASF197
 6153 0cd6 19       		.byte	0x19
 6154 0cd7 C7       		.byte	0xc7
 6155 0cd8 48090000 		.4byte	0x948
 6156 0cdc 30       		.byte	0x30
 6157 0cdd 07       		.uleb128 0x7
 6158 0cde D7090000 		.4byte	.LASF198
 6159 0ce2 19       		.byte	0x19
 6160 0ce3 CA       		.byte	0xca
 6161 0ce4 3D090000 		.4byte	0x93d
 6162 0ce8 34       		.byte	0x34
 6163 0ce9 12       		.uleb128 0x12
 6164 0cea 6D737300 		.ascii	"mss\000"
 6165 0cee 19       		.byte	0x19
ARM GAS  C:\Users\jo\AppData\Local\Temp\cc67lm3z.s 			page 112


 6166 0cef CC       		.byte	0xcc
 6167 0cf0 32090000 		.4byte	0x932
 6168 0cf4 36       		.byte	0x36
 6169 0cf5 07       		.uleb128 0x7
 6170 0cf6 210C0000 		.4byte	.LASF199
 6171 0cfa 19       		.byte	0x19
 6172 0cfb CF       		.byte	0xcf
 6173 0cfc 48090000 		.4byte	0x948
 6174 0d00 38       		.byte	0x38
 6175 0d01 07       		.uleb128 0x7
 6176 0d02 39040000 		.4byte	.LASF200
 6177 0d06 19       		.byte	0x19
 6178 0d07 D0       		.byte	0xd0
 6179 0d08 48090000 		.4byte	0x948
 6180 0d0c 3C       		.byte	0x3c
 6181 0d0d 12       		.uleb128 0x12
 6182 0d0e 736100   		.ascii	"sa\000"
 6183 0d11 19       		.byte	0x19
 6184 0d12 D1       		.byte	0xd1
 6185 0d13 3D090000 		.4byte	0x93d
 6186 0d17 40       		.byte	0x40
 6187 0d18 12       		.uleb128 0x12
 6188 0d19 737600   		.ascii	"sv\000"
 6189 0d1c 19       		.byte	0x19
 6190 0d1d D1       		.byte	0xd1
 6191 0d1e 3D090000 		.4byte	0x93d
 6192 0d22 42       		.byte	0x42
 6193 0d23 12       		.uleb128 0x12
 6194 0d24 72746F00 		.ascii	"rto\000"
 6195 0d28 19       		.byte	0x19
 6196 0d29 D3       		.byte	0xd3
 6197 0d2a 3D090000 		.4byte	0x93d
 6198 0d2e 44       		.byte	0x44
 6199 0d2f 07       		.uleb128 0x7
 6200 0d30 38100000 		.4byte	.LASF201
 6201 0d34 19       		.byte	0x19
 6202 0d35 D4       		.byte	0xd4
 6203 0d36 1C090000 		.4byte	0x91c
 6204 0d3a 46       		.byte	0x46
 6205 0d3b 07       		.uleb128 0x7
 6206 0d3c 0A060000 		.4byte	.LASF202
 6207 0d40 19       		.byte	0x19
 6208 0d41 D7       		.byte	0xd7
 6209 0d42 1C090000 		.4byte	0x91c
 6210 0d46 47       		.byte	0x47
 6211 0d47 07       		.uleb128 0x7
 6212 0d48 3C090000 		.4byte	.LASF203
 6213 0d4c 19       		.byte	0x19
 6214 0d4d D8       		.byte	0xd8
 6215 0d4e 48090000 		.4byte	0x948
 6216 0d52 48       		.byte	0x48
 6217 0d53 07       		.uleb128 0x7
 6218 0d54 46030000 		.4byte	.LASF204
 6219 0d58 19       		.byte	0x19
 6220 0d59 DB       		.byte	0xdb
 6221 0d5a 32090000 		.4byte	0x932
 6222 0d5e 4C       		.byte	0x4c
ARM GAS  C:\Users\jo\AppData\Local\Temp\cc67lm3z.s 			page 113


 6223 0d5f 07       		.uleb128 0x7
 6224 0d60 FF0C0000 		.4byte	.LASF205
 6225 0d64 19       		.byte	0x19
 6226 0d65 DC       		.byte	0xdc
 6227 0d66 32090000 		.4byte	0x932
 6228 0d6a 4E       		.byte	0x4e
 6229 0d6b 07       		.uleb128 0x7
 6230 0d6c 9F0C0000 		.4byte	.LASF206
 6231 0d70 19       		.byte	0x19
 6232 0d71 DF       		.byte	0xdf
 6233 0d72 48090000 		.4byte	0x948
 6234 0d76 50       		.byte	0x50
 6235 0d77 07       		.uleb128 0x7
 6236 0d78 5D060000 		.4byte	.LASF207
 6237 0d7c 19       		.byte	0x19
 6238 0d7d E0       		.byte	0xe0
 6239 0d7e 48090000 		.4byte	0x948
 6240 0d82 54       		.byte	0x54
 6241 0d83 07       		.uleb128 0x7
 6242 0d84 F4060000 		.4byte	.LASF208
 6243 0d88 19       		.byte	0x19
 6244 0d89 E0       		.byte	0xe0
 6245 0d8a 48090000 		.4byte	0x948
 6246 0d8e 58       		.byte	0x58
 6247 0d8f 07       		.uleb128 0x7
 6248 0d90 C0050000 		.4byte	.LASF209
 6249 0d94 19       		.byte	0x19
 6250 0d95 E2       		.byte	0xe2
 6251 0d96 48090000 		.4byte	0x948
 6252 0d9a 5C       		.byte	0x5c
 6253 0d9b 07       		.uleb128 0x7
 6254 0d9c 4B0A0000 		.4byte	.LASF210
 6255 0da0 19       		.byte	0x19
 6256 0da1 E3       		.byte	0xe3
 6257 0da2 32090000 		.4byte	0x932
 6258 0da6 60       		.byte	0x60
 6259 0da7 07       		.uleb128 0x7
 6260 0da8 C50C0000 		.4byte	.LASF211
 6261 0dac 19       		.byte	0x19
 6262 0dad E4       		.byte	0xe4
 6263 0dae 32090000 		.4byte	0x932
 6264 0db2 62       		.byte	0x62
 6265 0db3 07       		.uleb128 0x7
 6266 0db4 7A060000 		.4byte	.LASF212
 6267 0db8 19       		.byte	0x19
 6268 0db9 E6       		.byte	0xe6
 6269 0dba 32090000 		.4byte	0x932
 6270 0dbe 64       		.byte	0x64
 6271 0dbf 07       		.uleb128 0x7
 6272 0dc0 110D0000 		.4byte	.LASF213
 6273 0dc4 19       		.byte	0x19
 6274 0dc5 E8       		.byte	0xe8
 6275 0dc6 32090000 		.4byte	0x932
 6276 0dca 66       		.byte	0x66
 6277 0dcb 07       		.uleb128 0x7
 6278 0dcc E10E0000 		.4byte	.LASF214
 6279 0dd0 19       		.byte	0x19
ARM GAS  C:\Users\jo\AppData\Local\Temp\cc67lm3z.s 			page 114


 6280 0dd1 EA       		.byte	0xea
 6281 0dd2 32090000 		.4byte	0x932
 6282 0dd6 68       		.byte	0x68
 6283 0dd7 07       		.uleb128 0x7
 6284 0dd8 800C0000 		.4byte	.LASF215
 6285 0ddc 19       		.byte	0x19
 6286 0ddd EE       		.byte	0xee
 6287 0dde 32090000 		.4byte	0x932
 6288 0de2 6A       		.byte	0x6a
 6289 0de3 07       		.uleb128 0x7
 6290 0de4 120C0000 		.4byte	.LASF216
 6291 0de8 19       		.byte	0x19
 6292 0de9 F2       		.byte	0xf2
 6293 0dea DA0F0000 		.4byte	0xfda
 6294 0dee 6C       		.byte	0x6c
 6295 0def 07       		.uleb128 0x7
 6296 0df0 CE040000 		.4byte	.LASF217
 6297 0df4 19       		.byte	0x19
 6298 0df5 F3       		.byte	0xf3
 6299 0df6 DA0F0000 		.4byte	0xfda
 6300 0dfa 70       		.byte	0x70
 6301 0dfb 07       		.uleb128 0x7
 6302 0dfc 62010000 		.4byte	.LASF218
 6303 0e00 19       		.byte	0x19
 6304 0e01 F5       		.byte	0xf5
 6305 0e02 DA0F0000 		.4byte	0xfda
 6306 0e06 74       		.byte	0x74
 6307 0e07 07       		.uleb128 0x7
 6308 0e08 8E0D0000 		.4byte	.LASF219
 6309 0e0c 19       		.byte	0x19
 6310 0e0d F8       		.byte	0xf8
 6311 0e0e 4B0A0000 		.4byte	0xa4b
 6312 0e12 78       		.byte	0x78
 6313 0e13 07       		.uleb128 0x7
 6314 0e14 E2060000 		.4byte	.LASF220
 6315 0e18 19       		.byte	0x19
 6316 0e19 FC       		.byte	0xfc
 6317 0e1a B60E0000 		.4byte	0xeb6
 6318 0e1e 7C       		.byte	0x7c
 6319 0e1f 07       		.uleb128 0x7
 6320 0e20 1B0F0000 		.4byte	.LASF221
 6321 0e24 19       		.byte	0x19
 6322 0e25 FE       		.byte	0xfe
 6323 0e26 870E0000 		.4byte	0xe87
 6324 0e2a 80       		.byte	0x80
 6325 0e2b 09       		.uleb128 0x9
 6326 0e2c 3C050000 		.4byte	.LASF222
 6327 0e30 19       		.byte	0x19
 6328 0e31 0001     		.2byte	0x100
 6329 0e33 260F0000 		.4byte	0xf26
 6330 0e37 84       		.byte	0x84
 6331 0e38 09       		.uleb128 0x9
 6332 0e39 9F090000 		.4byte	.LASF223
 6333 0e3d 19       		.byte	0x19
 6334 0e3e 0201     		.2byte	0x102
 6335 0e40 E00E0000 		.4byte	0xee0
 6336 0e44 88       		.byte	0x88
ARM GAS  C:\Users\jo\AppData\Local\Temp\cc67lm3z.s 			page 115


 6337 0e45 09       		.uleb128 0x9
 6338 0e46 3A0A0000 		.4byte	.LASF224
 6339 0e4a 19       		.byte	0x19
 6340 0e4b 0401     		.2byte	0x104
 6341 0e4d 050F0000 		.4byte	0xf05
 6342 0e51 8C       		.byte	0x8c
 6343 0e52 09       		.uleb128 0x9
 6344 0e53 4D0E0000 		.4byte	.LASF225
 6345 0e57 19       		.byte	0x19
 6346 0e58 0D01     		.2byte	0x10d
 6347 0e5a 48090000 		.4byte	0x948
 6348 0e5e 90       		.byte	0x90
 6349 0e5f 09       		.uleb128 0x9
 6350 0e60 890F0000 		.4byte	.LASF226
 6351 0e64 19       		.byte	0x19
 6352 0e65 1401     		.2byte	0x114
 6353 0e67 1C090000 		.4byte	0x91c
 6354 0e6b 94       		.byte	0x94
 6355 0e6c 09       		.uleb128 0x9
 6356 0e6d 06080000 		.4byte	.LASF227
 6357 0e71 19       		.byte	0x19
 6358 0e72 1601     		.2byte	0x116
 6359 0e74 1C090000 		.4byte	0x91c
 6360 0e78 95       		.byte	0x95
 6361 0e79 09       		.uleb128 0x9
 6362 0e7a 8C020000 		.4byte	.LASF228
 6363 0e7e 19       		.byte	0x19
 6364 0e7f 1901     		.2byte	0x119
 6365 0e81 1C090000 		.4byte	0x91c
 6366 0e85 96       		.byte	0x96
 6367 0e86 00       		.byte	0
 6368 0e87 03       		.uleb128 0x3
 6369 0e88 7D090000 		.4byte	.LASF229
 6370 0e8c 19       		.byte	0x19
 6371 0e8d 48       		.byte	0x48
 6372 0e8e 920E0000 		.4byte	0xe92
 6373 0e92 0B       		.uleb128 0xb
 6374 0e93 04       		.byte	0x4
 6375 0e94 980E0000 		.4byte	0xe98
 6376 0e98 1C       		.uleb128 0x1c
 6377 0e99 DF090000 		.4byte	0x9df
 6378 0e9d B60E0000 		.4byte	0xeb6
 6379 0ea1 0D       		.uleb128 0xd
 6380 0ea2 76030000 		.4byte	0x376
 6381 0ea6 0D       		.uleb128 0xd
 6382 0ea7 CF0B0000 		.4byte	0xbcf
 6383 0eab 0D       		.uleb128 0xd
 6384 0eac 4B0A0000 		.4byte	0xa4b
 6385 0eb0 0D       		.uleb128 0xd
 6386 0eb1 DF090000 		.4byte	0x9df
 6387 0eb5 00       		.byte	0
 6388 0eb6 03       		.uleb128 0x3
 6389 0eb7 A9020000 		.4byte	.LASF230
 6390 0ebb 19       		.byte	0x19
 6391 0ebc 56       		.byte	0x56
 6392 0ebd C10E0000 		.4byte	0xec1
 6393 0ec1 0B       		.uleb128 0xb
ARM GAS  C:\Users\jo\AppData\Local\Temp\cc67lm3z.s 			page 116


 6394 0ec2 04       		.byte	0x4
 6395 0ec3 C70E0000 		.4byte	0xec7
 6396 0ec7 1C       		.uleb128 0x1c
 6397 0ec8 DF090000 		.4byte	0x9df
 6398 0ecc E00E0000 		.4byte	0xee0
 6399 0ed0 0D       		.uleb128 0xd
 6400 0ed1 76030000 		.4byte	0x376
 6401 0ed5 0D       		.uleb128 0xd
 6402 0ed6 CF0B0000 		.4byte	0xbcf
 6403 0eda 0D       		.uleb128 0xd
 6404 0edb 32090000 		.4byte	0x932
 6405 0edf 00       		.byte	0
 6406 0ee0 03       		.uleb128 0x3
 6407 0ee1 3F0A0000 		.4byte	.LASF231
 6408 0ee5 19       		.byte	0x19
 6409 0ee6 62       		.byte	0x62
 6410 0ee7 EB0E0000 		.4byte	0xeeb
 6411 0eeb 0B       		.uleb128 0xb
 6412 0eec 04       		.byte	0x4
 6413 0eed F10E0000 		.4byte	0xef1
 6414 0ef1 1C       		.uleb128 0x1c
 6415 0ef2 DF090000 		.4byte	0x9df
 6416 0ef6 050F0000 		.4byte	0xf05
 6417 0efa 0D       		.uleb128 0xd
 6418 0efb 76030000 		.4byte	0x376
 6419 0eff 0D       		.uleb128 0xd
 6420 0f00 CF0B0000 		.4byte	0xbcf
 6421 0f04 00       		.byte	0
 6422 0f05 03       		.uleb128 0x3
 6423 0f06 29070000 		.4byte	.LASF232
 6424 0f0a 19       		.byte	0x19
 6425 0f0b 6E       		.byte	0x6e
 6426 0f0c 100F0000 		.4byte	0xf10
 6427 0f10 0B       		.uleb128 0xb
 6428 0f11 04       		.byte	0x4
 6429 0f12 160F0000 		.4byte	0xf16
 6430 0f16 0C       		.uleb128 0xc
 6431 0f17 260F0000 		.4byte	0xf26
 6432 0f1b 0D       		.uleb128 0xd
 6433 0f1c 76030000 		.4byte	0x376
 6434 0f20 0D       		.uleb128 0xd
 6435 0f21 DF090000 		.4byte	0x9df
 6436 0f25 00       		.byte	0
 6437 0f26 03       		.uleb128 0x3
 6438 0f27 3E010000 		.4byte	.LASF233
 6439 0f2b 19       		.byte	0x19
 6440 0f2c 7C       		.byte	0x7c
 6441 0f2d B00B0000 		.4byte	0xbb0
 6442 0f31 1F       		.uleb128 0x1f
 6443 0f32 5E0A0000 		.4byte	.LASF366
 6444 0f36 01       		.byte	0x1
 6445 0f37 19       		.byte	0x19
 6446 0f38 7E       		.byte	0x7e
 6447 0f39 800F0000 		.4byte	0xf80
 6448 0f3d 1E       		.uleb128 0x1e
 6449 0f3e CC0A0000 		.4byte	.LASF234
 6450 0f42 00       		.sleb128 0
ARM GAS  C:\Users\jo\AppData\Local\Temp\cc67lm3z.s 			page 117


 6451 0f43 1E       		.uleb128 0x1e
 6452 0f44 710E0000 		.4byte	.LASF235
 6453 0f48 01       		.sleb128 1
 6454 0f49 1E       		.uleb128 0x1e
 6455 0f4a 900C0000 		.4byte	.LASF236
 6456 0f4e 02       		.sleb128 2
 6457 0f4f 1E       		.uleb128 0x1e
 6458 0f50 56100000 		.4byte	.LASF237
 6459 0f54 03       		.sleb128 3
 6460 0f55 1E       		.uleb128 0x1e
 6461 0f56 B10C0000 		.4byte	.LASF238
 6462 0f5a 04       		.sleb128 4
 6463 0f5b 1E       		.uleb128 0x1e
 6464 0f5c F90D0000 		.4byte	.LASF239
 6465 0f60 05       		.sleb128 5
 6466 0f61 1E       		.uleb128 0x1e
 6467 0f62 040E0000 		.4byte	.LASF240
 6468 0f66 06       		.sleb128 6
 6469 0f67 1E       		.uleb128 0x1e
 6470 0f68 80060000 		.4byte	.LASF241
 6471 0f6c 07       		.sleb128 7
 6472 0f6d 1E       		.uleb128 0x1e
 6473 0f6e 72050000 		.4byte	.LASF242
 6474 0f72 08       		.sleb128 8
 6475 0f73 1E       		.uleb128 0x1e
 6476 0f74 F5040000 		.4byte	.LASF243
 6477 0f78 09       		.sleb128 9
 6478 0f79 1E       		.uleb128 0x1e
 6479 0f7a 15010000 		.4byte	.LASF244
 6480 0f7e 0A       		.sleb128 10
 6481 0f7f 00       		.byte	0
 6482 0f80 0A       		.uleb128 0xa
 6483 0f81 EF030000 		.4byte	.LASF245
 6484 0f85 14       		.byte	0x14
 6485 0f86 1A       		.byte	0x1a
 6486 0f87 1501     		.2byte	0x115
 6487 0f89 DA0F0000 		.4byte	0xfda
 6488 0f8d 09       		.uleb128 0x9
 6489 0f8e 4F010000 		.4byte	.LASF164
 6490 0f92 1A       		.byte	0x1a
 6491 0f93 1601     		.2byte	0x116
 6492 0f95 DA0F0000 		.4byte	0xfda
 6493 0f99 00       		.byte	0
 6494 0f9a 08       		.uleb128 0x8
 6495 0f9b 7000     		.ascii	"p\000"
 6496 0f9d 1A       		.byte	0x1a
 6497 0f9e 1701     		.2byte	0x117
 6498 0fa0 4B0A0000 		.4byte	0xa4b
 6499 0fa4 04       		.byte	0x4
 6500 0fa5 08       		.uleb128 0x8
 6501 0fa6 6C656E00 		.ascii	"len\000"
 6502 0faa 1A       		.byte	0x1a
 6503 0fab 1801     		.2byte	0x118
 6504 0fad 32090000 		.4byte	0x932
 6505 0fb1 08       		.byte	0x8
 6506 0fb2 09       		.uleb128 0x9
 6507 0fb3 04070000 		.4byte	.LASF246
ARM GAS  C:\Users\jo\AppData\Local\Temp\cc67lm3z.s 			page 118


 6508 0fb7 1A       		.byte	0x1a
 6509 0fb8 1A01     		.2byte	0x11a
 6510 0fba 32090000 		.4byte	0x932
 6511 0fbe 0A       		.byte	0xa
 6512 0fbf 09       		.uleb128 0x9
 6513 0fc0 DD000000 		.4byte	.LASF168
 6514 0fc4 1A       		.byte	0x1a
 6515 0fc5 2201     		.2byte	0x122
 6516 0fc7 1C090000 		.4byte	0x91c
 6517 0fcb 0C       		.byte	0xc
 6518 0fcc 09       		.uleb128 0x9
 6519 0fcd 740D0000 		.4byte	.LASF247
 6520 0fd1 1A       		.byte	0x1a
 6521 0fd2 2701     		.2byte	0x127
 6522 0fd4 F0100000 		.4byte	0x10f0
 6523 0fd8 10       		.byte	0x10
 6524 0fd9 00       		.byte	0
 6525 0fda 0B       		.uleb128 0xb
 6526 0fdb 04       		.byte	0x4
 6527 0fdc 800F0000 		.4byte	0xf80
 6528 0fe0 0A       		.uleb128 0xa
 6529 0fe1 CF070000 		.4byte	.LASF248
 6530 0fe5 1C       		.byte	0x1c
 6531 0fe6 19       		.byte	0x19
 6532 0fe7 1C01     		.2byte	0x11c
 6533 0fe9 7D100000 		.4byte	0x107d
 6534 0fed 09       		.uleb128 0x9
 6535 0fee 6B0C0000 		.4byte	.LASF183
 6536 0ff2 19       		.byte	0x19
 6537 0ff3 1E01     		.2byte	0x11e
 6538 0ff5 D4090000 		.4byte	0x9d4
 6539 0ff9 00       		.byte	0
 6540 0ffa 09       		.uleb128 0x9
 6541 0ffb 950F0000 		.4byte	.LASF184
 6542 0fff 19       		.byte	0x19
 6543 1000 1E01     		.2byte	0x11e
 6544 1002 D4090000 		.4byte	0x9d4
 6545 1006 04       		.byte	0x4
 6546 1007 09       		.uleb128 0x9
 6547 1008 7B000000 		.4byte	.LASF185
 6548 100c 19       		.byte	0x19
 6549 100d 1E01     		.2byte	0x11e
 6550 100f 1C090000 		.4byte	0x91c
 6551 1013 08       		.byte	0x8
 6552 1014 08       		.uleb128 0x8
 6553 1015 746F7300 		.ascii	"tos\000"
 6554 1019 19       		.byte	0x19
 6555 101a 1E01     		.2byte	0x11e
 6556 101c 1C090000 		.4byte	0x91c
 6557 1020 09       		.byte	0x9
 6558 1021 08       		.uleb128 0x8
 6559 1022 74746C00 		.ascii	"ttl\000"
 6560 1026 19       		.byte	0x19
 6561 1027 1E01     		.2byte	0x11e
 6562 1029 1C090000 		.4byte	0x91c
 6563 102d 0A       		.byte	0xa
 6564 102e 09       		.uleb128 0x9
ARM GAS  C:\Users\jo\AppData\Local\Temp\cc67lm3z.s 			page 119


 6565 102f 4F010000 		.4byte	.LASF164
 6566 1033 19       		.byte	0x19
 6567 1034 2001     		.2byte	0x120
 6568 1036 7D100000 		.4byte	0x107d
 6569 103a 0C       		.byte	0xc
 6570 103b 09       		.uleb128 0x9
 6571 103c 640E0000 		.4byte	.LASF186
 6572 1040 19       		.byte	0x19
 6573 1041 2001     		.2byte	0x120
 6574 1043 76030000 		.4byte	0x376
 6575 1047 10       		.byte	0x10
 6576 1048 09       		.uleb128 0x9
 6577 1049 85030000 		.4byte	.LASF187
 6578 104d 19       		.byte	0x19
 6579 104e 2001     		.2byte	0x120
 6580 1050 A50B0000 		.4byte	0xba5
 6581 1054 14       		.byte	0x14
 6582 1055 09       		.uleb128 0x9
 6583 1056 850E0000 		.4byte	.LASF174
 6584 105a 19       		.byte	0x19
 6585 105b 2001     		.2byte	0x120
 6586 105d 310F0000 		.4byte	0xf31
 6587 1061 18       		.byte	0x18
 6588 1062 09       		.uleb128 0x9
 6589 1063 23060000 		.4byte	.LASF188
 6590 1067 19       		.byte	0x19
 6591 1068 2001     		.2byte	0x120
 6592 106a 1C090000 		.4byte	0x91c
 6593 106e 19       		.byte	0x19
 6594 106f 09       		.uleb128 0x9
 6595 1070 FE000000 		.4byte	.LASF189
 6596 1074 19       		.byte	0x19
 6597 1075 2001     		.2byte	0x120
 6598 1077 32090000 		.4byte	0x932
 6599 107b 1A       		.byte	0x1a
 6600 107c 00       		.byte	0
 6601 107d 0B       		.uleb128 0xb
 6602 107e 04       		.byte	0x4
 6603 107f E00F0000 		.4byte	0xfe0
 6604 1083 06       		.uleb128 0x6
 6605 1084 CE0D0000 		.4byte	.LASF249
 6606 1088 14       		.byte	0x14
 6607 1089 1A       		.byte	0x1a
 6608 108a 9F       		.byte	0x9f
 6609 108b F0100000 		.4byte	0x10f0
 6610 108f 12       		.uleb128 0x12
 6611 1090 73726300 		.ascii	"src\000"
 6612 1094 1A       		.byte	0x1a
 6613 1095 A0       		.byte	0xa0
 6614 1096 32090000 		.4byte	0x932
 6615 109a 00       		.byte	0
 6616 109b 07       		.uleb128 0x7
 6617 109c 48100000 		.4byte	.LASF250
 6618 10a0 1A       		.byte	0x1a
 6619 10a1 A1       		.byte	0xa1
 6620 10a2 32090000 		.4byte	0x932
 6621 10a6 02       		.byte	0x2
ARM GAS  C:\Users\jo\AppData\Local\Temp\cc67lm3z.s 			page 120


 6622 10a7 07       		.uleb128 0x7
 6623 10a8 F8020000 		.4byte	.LASF251
 6624 10ac 1A       		.byte	0x1a
 6625 10ad A2       		.byte	0xa2
 6626 10ae 48090000 		.4byte	0x948
 6627 10b2 04       		.byte	0x4
 6628 10b3 07       		.uleb128 0x7
 6629 10b4 E4070000 		.4byte	.LASF252
 6630 10b8 1A       		.byte	0x1a
 6631 10b9 A3       		.byte	0xa3
 6632 10ba 48090000 		.4byte	0x948
 6633 10be 08       		.byte	0x8
 6634 10bf 07       		.uleb128 0x7
 6635 10c0 190D0000 		.4byte	.LASF253
 6636 10c4 1A       		.byte	0x1a
 6637 10c5 A4       		.byte	0xa4
 6638 10c6 32090000 		.4byte	0x932
 6639 10ca 0C       		.byte	0xc
 6640 10cb 12       		.uleb128 0x12
 6641 10cc 776E6400 		.ascii	"wnd\000"
 6642 10d0 1A       		.byte	0x1a
 6643 10d1 A5       		.byte	0xa5
 6644 10d2 32090000 		.4byte	0x932
 6645 10d6 0E       		.byte	0xe
 6646 10d7 07       		.uleb128 0x7
 6647 10d8 FE040000 		.4byte	.LASF254
 6648 10dc 1A       		.byte	0x1a
 6649 10dd A6       		.byte	0xa6
 6650 10de 32090000 		.4byte	0x932
 6651 10e2 10       		.byte	0x10
 6652 10e3 07       		.uleb128 0x7
 6653 10e4 A9000000 		.4byte	.LASF255
 6654 10e8 1A       		.byte	0x1a
 6655 10e9 A7       		.byte	0xa7
 6656 10ea 32090000 		.4byte	0x932
 6657 10ee 12       		.byte	0x12
 6658 10ef 00       		.byte	0
 6659 10f0 0B       		.uleb128 0xb
 6660 10f1 04       		.byte	0x4
 6661 10f2 83100000 		.4byte	0x1083
 6662 10f6 20       		.uleb128 0x20
 6663 10f7 46070000 		.4byte	.LASF367
 6664 10fb 04       		.byte	0x4
 6665 10fc 1A       		.byte	0x1a
 6666 10fd 3701     		.2byte	0x137
 6667 10ff 1C110000 		.4byte	0x111c
 6668 1103 1B       		.uleb128 0x1b
 6669 1104 10000000 		.4byte	.LASF256
 6670 1108 1A       		.byte	0x1a
 6671 1109 3801     		.2byte	0x138
 6672 110b 7D100000 		.4byte	0x107d
 6673 110f 1B       		.uleb128 0x1b
 6674 1110 67100000 		.4byte	.LASF257
 6675 1114 1A       		.byte	0x1a
 6676 1115 3901     		.2byte	0x139
 6677 1117 CF0B0000 		.4byte	0xbcf
 6678 111b 00       		.byte	0
ARM GAS  C:\Users\jo\AppData\Local\Temp\cc67lm3z.s 			page 121


 6679 111c 21       		.uleb128 0x21
 6680 111d 91080000 		.4byte	.LASF316
 6681 1121 03       		.byte	0x3
 6682 1122 9C01     		.2byte	0x19c
 6683 1124 03       		.byte	0x3
 6684 1125 36110000 		.4byte	0x1136
 6685 1129 22       		.uleb128 0x22
 6686 112a 18040000 		.4byte	.LASF258
 6687 112e 03       		.byte	0x3
 6688 112f 9C01     		.2byte	0x19c
 6689 1131 C5050000 		.4byte	0x5c5
 6690 1135 00       		.byte	0
 6691 1136 23       		.uleb128 0x23
 6692 1137 79040000 		.4byte	.LASF259
 6693 113b 01       		.byte	0x1
 6694 113c 6302     		.2byte	0x263
 6695 113e 01       		.byte	0x1
 6696 113f 68110000 		.4byte	0x1168
 6697 1143 24       		.uleb128 0x24
 6698 1144 70636200 		.ascii	"pcb\000"
 6699 1148 01       		.byte	0x1
 6700 1149 6302     		.2byte	0x263
 6701 114b CF0B0000 		.4byte	0xbcf
 6702 114f 24       		.uleb128 0x24
 6703 1150 6C656E00 		.ascii	"len\000"
 6704 1154 01       		.byte	0x1
 6705 1155 6302     		.2byte	0x263
 6706 1157 32090000 		.4byte	0x932
 6707 115b 25       		.uleb128 0x25
 6708 115c 9A060000 		.4byte	.LASF261
 6709 1160 01       		.byte	0x1
 6710 1161 6502     		.2byte	0x265
 6711 1163 25000000 		.4byte	0x25
 6712 1167 00       		.byte	0
 6713 1168 23       		.uleb128 0x23
 6714 1169 08100000 		.4byte	.LASF260
 6715 116d 01       		.byte	0x1
 6716 116e 6804     		.2byte	0x468
 6717 1170 01       		.byte	0x1
 6718 1171 90110000 		.4byte	0x1190
 6719 1175 24       		.uleb128 0x24
 6720 1176 73656700 		.ascii	"seg\000"
 6721 117a 01       		.byte	0x1
 6722 117b 6804     		.2byte	0x468
 6723 117d DA0F0000 		.4byte	0xfda
 6724 1181 26       		.uleb128 0x26
 6725 1182 25       		.uleb128 0x25
 6726 1183 4F010000 		.4byte	.LASF164
 6727 1187 01       		.byte	0x1
 6728 1188 6B04     		.2byte	0x46b
 6729 118a DA0F0000 		.4byte	0xfda
 6730 118e 00       		.byte	0
 6731 118f 00       		.byte	0
 6732 1190 23       		.uleb128 0x23
 6733 1191 64050000 		.4byte	.LASF262
 6734 1195 01       		.byte	0x1
 6735 1196 BE05     		.2byte	0x5be
ARM GAS  C:\Users\jo\AppData\Local\Temp\cc67lm3z.s 			page 122


 6736 1198 01       		.byte	0x1
 6737 1199 AA110000 		.4byte	0x11aa
 6738 119d 24       		.uleb128 0x24
 6739 119e 70636200 		.ascii	"pcb\000"
 6740 11a2 01       		.byte	0x1
 6741 11a3 BE05     		.2byte	0x5be
 6742 11a5 CF0B0000 		.4byte	0xbcf
 6743 11a9 00       		.byte	0
 6744 11aa 27       		.uleb128 0x27
 6745 11ab 93070000 		.4byte	.LASF263
 6746 11af 01       		.byte	0x1
 6747 11b0 AD04     		.2byte	0x4ad
 6748 11b2 DF090000 		.4byte	0x9df
 6749 11b6 01       		.byte	0x1
 6750 11b7 EA110000 		.4byte	0x11ea
 6751 11bb 24       		.uleb128 0x24
 6752 11bc 61726700 		.ascii	"arg\000"
 6753 11c0 01       		.byte	0x1
 6754 11c1 AD04     		.2byte	0x4ad
 6755 11c3 76030000 		.4byte	0x376
 6756 11c7 24       		.uleb128 0x24
 6757 11c8 70636200 		.ascii	"pcb\000"
 6758 11cc 01       		.byte	0x1
 6759 11cd AD04     		.2byte	0x4ad
 6760 11cf CF0B0000 		.4byte	0xbcf
 6761 11d3 24       		.uleb128 0x24
 6762 11d4 7000     		.ascii	"p\000"
 6763 11d6 01       		.byte	0x1
 6764 11d7 AD04     		.2byte	0x4ad
 6765 11d9 4B0A0000 		.4byte	0xa4b
 6766 11dd 24       		.uleb128 0x24
 6767 11de 65727200 		.ascii	"err\000"
 6768 11e2 01       		.byte	0x1
 6769 11e3 AD04     		.2byte	0x4ad
 6770 11e5 DF090000 		.4byte	0x9df
 6771 11e9 00       		.byte	0
 6772 11ea 27       		.uleb128 0x27
 6773 11eb AE000000 		.4byte	.LASF264
 6774 11ef 01       		.byte	0x1
 6775 11f0 3D04     		.2byte	0x43d
 6776 11f2 DF090000 		.4byte	0x9df
 6777 11f6 01       		.byte	0x1
 6778 11f7 2C120000 		.4byte	0x122c
 6779 11fb 24       		.uleb128 0x24
 6780 11fc 70636200 		.ascii	"pcb\000"
 6781 1200 01       		.byte	0x1
 6782 1201 3D04     		.2byte	0x43d
 6783 1203 CF0B0000 		.4byte	0xbcf
 6784 1207 28       		.uleb128 0x28
 6785 1208 65727200 		.ascii	"err\000"
 6786 120c 01       		.byte	0x1
 6787 120d 3F04     		.2byte	0x43f
 6788 120f DF090000 		.4byte	0x9df
 6789 1213 25       		.uleb128 0x25
 6790 1214 FE020000 		.4byte	.LASF265
 6791 1218 01       		.byte	0x1
 6792 1219 4004     		.2byte	0x440
ARM GAS  C:\Users\jo\AppData\Local\Temp\cc67lm3z.s 			page 123


 6793 121b 1C090000 		.4byte	0x91c
 6794 121f 25       		.uleb128 0x25
 6795 1220 8E0D0000 		.4byte	.LASF219
 6796 1224 01       		.byte	0x1
 6797 1225 4304     		.2byte	0x443
 6798 1227 4B0A0000 		.4byte	0xa4b
 6799 122b 00       		.byte	0
 6800 122c 23       		.uleb128 0x23
 6801 122d AE090000 		.4byte	.LASF266
 6802 1231 01       		.byte	0x1
 6803 1232 9D01     		.2byte	0x19d
 6804 1234 01       		.byte	0x1
 6805 1235 46120000 		.4byte	0x1246
 6806 1239 24       		.uleb128 0x24
 6807 123a 70636200 		.ascii	"pcb\000"
 6808 123e 01       		.byte	0x1
 6809 123f 9D01     		.2byte	0x19d
 6810 1241 CF0B0000 		.4byte	0xbcf
 6811 1245 00       		.byte	0
 6812 1246 27       		.uleb128 0x27
 6813 1247 7D0A0000 		.4byte	.LASF267
 6814 124b 01       		.byte	0x1
 6815 124c 2306     		.2byte	0x623
 6816 124e 48090000 		.4byte	0x948
 6817 1252 01       		.byte	0x1
 6818 1253 64120000 		.4byte	0x1264
 6819 1257 28       		.uleb128 0x28
 6820 1258 69737300 		.ascii	"iss\000"
 6821 125c 01       		.byte	0x1
 6822 125d 2506     		.2byte	0x625
 6823 125f 48090000 		.4byte	0x948
 6824 1263 00       		.byte	0
 6825 1264 29       		.uleb128 0x29
 6826 1265 4B060000 		.4byte	.LASF368
 6827 1269 02       		.byte	0x2
 6828 126a 45       		.byte	0x45
 6829 126b 25000000 		.4byte	0x25
 6830 126f 03       		.byte	0x3
 6831 1270 A1120000 		.4byte	0x12a1
 6832 1274 2A       		.uleb128 0x2a
 6833 1275 63687000 		.ascii	"chp\000"
 6834 1279 02       		.byte	0x2
 6835 127a 45       		.byte	0x45
 6836 127b A1120000 		.4byte	0x12a1
 6837 127f 2A       		.uleb128 0x2a
 6838 1280 666D7400 		.ascii	"fmt\000"
 6839 1284 02       		.byte	0x2
 6840 1285 45       		.byte	0x45
 6841 1286 C5050000 		.4byte	0x5c5
 6842 128a 2B       		.uleb128 0x2b
 6843 128b 2C       		.uleb128 0x2c
 6844 128c 617000   		.ascii	"ap\000"
 6845 128f 02       		.byte	0x2
 6846 1290 46       		.byte	0x46
 6847 1291 11090000 		.4byte	0x911
 6848 1295 2D       		.uleb128 0x2d
 6849 1296 DD0F0000 		.4byte	.LASF268
ARM GAS  C:\Users\jo\AppData\Local\Temp\cc67lm3z.s 			page 124


 6850 129a 02       		.byte	0x2
 6851 129b 47       		.byte	0x47
 6852 129c 25000000 		.4byte	0x25
 6853 12a0 00       		.byte	0
 6854 12a1 0B       		.uleb128 0xb
 6855 12a2 04       		.byte	0x4
 6856 12a3 97080000 		.4byte	0x897
 6857 12a7 2E       		.uleb128 0x2e
 6858 12a8 4E080000 		.4byte	.LASF269
 6859 12ac 01       		.byte	0x1
 6860 12ad EE01     		.2byte	0x1ee
 6861 12af DF090000 		.4byte	0x9df
 6862 12b3 00000000 		.4byte	.LFB264
 6863 12b7 06000000 		.4byte	.LFE264-.LFB264
 6864 12bb 01       		.uleb128 0x1
 6865 12bc 9C       		.byte	0x9c
 6866 12bd EE120000 		.4byte	0x12ee
 6867 12c1 2F       		.uleb128 0x2f
 6868 12c2 61726700 		.ascii	"arg\000"
 6869 12c6 01       		.byte	0x1
 6870 12c7 EE01     		.2byte	0x1ee
 6871 12c9 76030000 		.4byte	0x376
 6872 12cd 00000000 		.4byte	.LLST0
 6873 12d1 30       		.uleb128 0x30
 6874 12d2 70636200 		.ascii	"pcb\000"
 6875 12d6 01       		.byte	0x1
 6876 12d7 EE01     		.2byte	0x1ee
 6877 12d9 CF0B0000 		.4byte	0xbcf
 6878 12dd 01       		.uleb128 0x1
 6879 12de 51       		.byte	0x51
 6880 12df 30       		.uleb128 0x30
 6881 12e0 65727200 		.ascii	"err\000"
 6882 12e4 01       		.byte	0x1
 6883 12e5 EE01     		.2byte	0x1ee
 6884 12e7 DF090000 		.4byte	0x9df
 6885 12eb 01       		.uleb128 0x1
 6886 12ec 52       		.byte	0x52
 6887 12ed 00       		.byte	0
 6888 12ee 2E       		.uleb128 0x2e
 6889 12ef 570E0000 		.4byte	.LASF270
 6890 12f3 01       		.byte	0x1
 6891 12f4 8702     		.2byte	0x287
 6892 12f6 32090000 		.4byte	0x932
 6893 12fa 00000000 		.4byte	.LFB268
 6894 12fe 58000000 		.4byte	.LFE268-.LFB268
 6895 1302 01       		.uleb128 0x1
 6896 1303 9C       		.byte	0x9c
 6897 1304 3B130000 		.4byte	0x133b
 6898 1308 28       		.uleb128 0x28
 6899 1309 6900     		.ascii	"i\000"
 6900 130b 01       		.byte	0x1
 6901 130c 8902     		.2byte	0x289
 6902 130e 1C090000 		.4byte	0x91c
 6903 1312 31       		.uleb128 0x31
 6904 1313 6E00     		.ascii	"n\000"
 6905 1315 01       		.byte	0x1
 6906 1316 8A02     		.2byte	0x28a
ARM GAS  C:\Users\jo\AppData\Local\Temp\cc67lm3z.s 			page 125


 6907 1318 32090000 		.4byte	0x932
 6908 131c 21000000 		.4byte	.LLST1
 6909 1320 32       		.uleb128 0x32
 6910 1321 70636200 		.ascii	"pcb\000"
 6911 1325 01       		.byte	0x1
 6912 1326 8B02     		.2byte	0x28b
 6913 1328 CF0B0000 		.4byte	0xbcf
 6914 132c 01       		.uleb128 0x1
 6915 132d 53       		.byte	0x53
 6916 132e 33       		.uleb128 0x33
 6917 132f A3000000 		.4byte	.LASF307
 6918 1333 01       		.byte	0x1
 6919 1334 8D02     		.2byte	0x28d
 6920 1336 10000000 		.4byte	.L3
 6921 133a 00       		.byte	0
 6922 133b 34       		.uleb128 0x34
 6923 133c 64120000 		.4byte	0x1264
 6924 1340 00000000 		.4byte	.LFB297
 6925 1344 28000000 		.4byte	.LFE297-.LFB297
 6926 1348 01       		.uleb128 0x1
 6927 1349 9C       		.byte	0x9c
 6928 134a 9A130000 		.4byte	0x139a
 6929 134e 35       		.uleb128 0x35
 6930 134f 74120000 		.4byte	0x1274
 6931 1353 68000000 		.4byte	.LLST2
 6932 1357 36       		.uleb128 0x36
 6933 1358 7F120000 		.4byte	0x127f
 6934 135c 02       		.uleb128 0x2
 6935 135d 91       		.byte	0x91
 6936 135e 74       		.sleb128 -12
 6937 135f 2B       		.uleb128 0x2b
 6938 1360 37       		.uleb128 0x37
 6939 1361 8B120000 		.4byte	0x128b
 6940 1365 02       		.uleb128 0x2
 6941 1366 91       		.byte	0x91
 6942 1367 6C       		.sleb128 -20
 6943 1368 37       		.uleb128 0x37
 6944 1369 95120000 		.4byte	0x1295
 6945 136d 01       		.uleb128 0x1
 6946 136e 50       		.byte	0x50
 6947 136f 36       		.uleb128 0x36
 6948 1370 7F120000 		.4byte	0x127f
 6949 1374 06       		.uleb128 0x6
 6950 1375 03       		.byte	0x3
 6951 1376 00000000 		.4byte	.LC0
 6952 137a 9F       		.byte	0x9f
 6953 137b 38       		.uleb128 0x38
 6954 137c 74120000 		.4byte	0x1274
 6955 1380 39       		.uleb128 0x39
 6956 1381 14000000 		.4byte	.LVL13
 6957 1385 EC2E0000 		.4byte	0x2eec
 6958 1389 3A       		.uleb128 0x3a
 6959 138a 01       		.uleb128 0x1
 6960 138b 52       		.byte	0x52
 6961 138c 02       		.uleb128 0x2
 6962 138d 91       		.byte	0x91
 6963 138e 60       		.sleb128 -32
ARM GAS  C:\Users\jo\AppData\Local\Temp\cc67lm3z.s 			page 126


 6964 138f 3A       		.uleb128 0x3a
 6965 1390 01       		.uleb128 0x1
 6966 1391 51       		.byte	0x51
 6967 1392 05       		.uleb128 0x5
 6968 1393 03       		.byte	0x3
 6969 1394 00000000 		.4byte	.LC0
 6970 1398 00       		.byte	0
 6971 1399 00       		.byte	0
 6972 139a 3B       		.uleb128 0x3b
 6973 139b 54090000 		.4byte	.LASF369
 6974 139f 01       		.byte	0x1
 6975 13a0 82       		.byte	0x82
 6976 13a1 00000000 		.4byte	.LFB256
 6977 13a5 02000000 		.4byte	.LFE256-.LFB256
 6978 13a9 01       		.uleb128 0x1
 6979 13aa 9C       		.byte	0x9c
 6980 13ab 3C       		.uleb128 0x3c
 6981 13ac ED000000 		.4byte	.LASF275
 6982 13b0 01       		.byte	0x1
 6983 13b1 B101     		.2byte	0x1b1
 6984 13b3 DF090000 		.4byte	0x9df
 6985 13b7 00000000 		.4byte	.LFB263
 6986 13bb A4000000 		.4byte	.LFE263-.LFB263
 6987 13bf 01       		.uleb128 0x1
 6988 13c0 9C       		.byte	0x9c
 6989 13c1 94140000 		.4byte	0x1494
 6990 13c5 2F       		.uleb128 0x2f
 6991 13c6 70636200 		.ascii	"pcb\000"
 6992 13ca 01       		.byte	0x1
 6993 13cb B101     		.2byte	0x1b1
 6994 13cd CF0B0000 		.4byte	0xbcf
 6995 13d1 89000000 		.4byte	.LLST3
 6996 13d5 3D       		.uleb128 0x3d
 6997 13d6 05050000 		.4byte	.LASF271
 6998 13da 01       		.byte	0x1
 6999 13db B101     		.2byte	0x1b1
 7000 13dd 5A0B0000 		.4byte	0xb5a
 7001 13e1 D3000000 		.4byte	.LLST4
 7002 13e5 3D       		.uleb128 0x3d
 7003 13e6 890D0000 		.4byte	.LASF272
 7004 13ea 01       		.byte	0x1
 7005 13eb B101     		.2byte	0x1b1
 7006 13ed 32090000 		.4byte	0x932
 7007 13f1 39010000 		.4byte	.LLST5
 7008 13f5 31       		.uleb128 0x31
 7009 13f6 6900     		.ascii	"i\000"
 7010 13f8 01       		.byte	0x1
 7011 13f9 B301     		.2byte	0x1b3
 7012 13fb 25000000 		.4byte	0x25
 7013 13ff AB010000 		.4byte	.LLST6
 7014 1403 3E       		.uleb128 0x3e
 7015 1404 AC030000 		.4byte	.LASF273
 7016 1408 01       		.byte	0x1
 7017 1409 B401     		.2byte	0x1b4
 7018 140b 25000000 		.4byte	0x25
 7019 140f 04       		.byte	0x4
 7020 1410 3F       		.uleb128 0x3f
ARM GAS  C:\Users\jo\AppData\Local\Temp\cc67lm3z.s 			page 127


 7021 1411 280C0000 		.4byte	.LASF274
 7022 1415 01       		.byte	0x1
 7023 1416 B501     		.2byte	0x1b5
 7024 1418 CF0B0000 		.4byte	0xbcf
 7025 141c BF010000 		.4byte	.LLST7
 7026 1420 40       		.uleb128 0x40
 7027 1421 1C110000 		.4byte	0x111c
 7028 1425 82000000 		.4byte	.LBB94
 7029 1429 06000000 		.4byte	.LBE94-.LBB94
 7030 142d 01       		.byte	0x1
 7031 142e B701     		.2byte	0x1b7
 7032 1430 54140000 		.4byte	0x1454
 7033 1434 36       		.uleb128 0x36
 7034 1435 29110000 		.4byte	0x1129
 7035 1439 06       		.uleb128 0x6
 7036 143a 03       		.byte	0x3
 7037 143b 28000000 		.4byte	.LC1
 7038 143f 9F       		.byte	0x9f
 7039 1440 39       		.uleb128 0x39
 7040 1441 88000000 		.4byte	.LVL32
 7041 1445 0B2F0000 		.4byte	0x2f0b
 7042 1449 3A       		.uleb128 0x3a
 7043 144a 01       		.uleb128 0x1
 7044 144b 50       		.byte	0x50
 7045 144c 05       		.uleb128 0x5
 7046 144d 03       		.byte	0x3
 7047 144e 28000000 		.4byte	.LC1
 7048 1452 00       		.byte	0
 7049 1453 00       		.byte	0
 7050 1454 41       		.uleb128 0x41
 7051 1455 5A000000 		.4byte	.LVL23
 7052 1459 1C2F0000 		.4byte	0x2f1c
 7053 145d 41       		.uleb128 0x41
 7054 145e 66000000 		.4byte	.LVL25
 7055 1462 EE120000 		.4byte	0x12ee
 7056 1466 39       		.uleb128 0x39
 7057 1467 82000000 		.4byte	.LVL31
 7058 146b 3B130000 		.4byte	0x133b
 7059 146f 3A       		.uleb128 0x3a
 7060 1470 01       		.uleb128 0x1
 7061 1471 53       		.byte	0x53
 7062 1472 03       		.uleb128 0x3
 7063 1473 0A       		.byte	0xa
 7064 1474 B701     		.2byte	0x1b7
 7065 1476 3A       		.uleb128 0x3a
 7066 1477 01       		.uleb128 0x1
 7067 1478 52       		.byte	0x52
 7068 1479 05       		.uleb128 0x5
 7069 147a 03       		.byte	0x3
 7070 147b 28000000 		.4byte	.LC1
 7071 147f 3A       		.uleb128 0x3a
 7072 1480 01       		.uleb128 0x1
 7073 1481 51       		.byte	0x51
 7074 1482 05       		.uleb128 0x5
 7075 1483 03       		.byte	0x3
 7076 1484 00000000 		.4byte	.LC0
 7077 1488 3A       		.uleb128 0x3a
ARM GAS  C:\Users\jo\AppData\Local\Temp\cc67lm3z.s 			page 128


 7078 1489 02       		.uleb128 0x2
 7079 148a 7D       		.byte	0x7d
 7080 148b 00       		.sleb128 0
 7081 148c 05       		.uleb128 0x5
 7082 148d 03       		.byte	0x3
 7083 148e 50000000 		.4byte	.LC2
 7084 1492 00       		.byte	0
 7085 1493 00       		.byte	0
 7086 1494 3C       		.uleb128 0x3c
 7087 1495 D3080000 		.4byte	.LASF276
 7088 1499 01       		.byte	0x1
 7089 149a 0702     		.2byte	0x207
 7090 149c CF0B0000 		.4byte	0xbcf
 7091 14a0 00000000 		.4byte	.LFB265
 7092 14a4 D8000000 		.4byte	.LFE265-.LFB265
 7093 14a8 01       		.uleb128 0x1
 7094 14a9 9C       		.byte	0x9c
 7095 14aa 66150000 		.4byte	0x1566
 7096 14ae 2F       		.uleb128 0x2f
 7097 14af 70636200 		.ascii	"pcb\000"
 7098 14b3 01       		.byte	0x1
 7099 14b4 0702     		.2byte	0x207
 7100 14b6 CF0B0000 		.4byte	0xbcf
 7101 14ba DD010000 		.4byte	.LLST8
 7102 14be 3D       		.uleb128 0x3d
 7103 14bf 7A050000 		.4byte	.LASF277
 7104 14c3 01       		.byte	0x1
 7105 14c4 0702     		.2byte	0x207
 7106 14c6 1C090000 		.4byte	0x91c
 7107 14ca 11020000 		.4byte	.LLST9
 7108 14ce 3F       		.uleb128 0x3f
 7109 14cf FA0E0000 		.4byte	.LASF278
 7110 14d3 01       		.byte	0x1
 7111 14d4 0902     		.2byte	0x209
 7112 14d6 7D100000 		.4byte	0x107d
 7113 14da 4B020000 		.4byte	.LLST10
 7114 14de 40       		.uleb128 0x40
 7115 14df 1C110000 		.4byte	0x111c
 7116 14e3 AA000000 		.4byte	.LBB96
 7117 14e7 06000000 		.4byte	.LBE96-.LBB96
 7118 14eb 01       		.byte	0x1
 7119 14ec 0C02     		.2byte	0x20c
 7120 14ee 12150000 		.4byte	0x1512
 7121 14f2 36       		.uleb128 0x36
 7122 14f3 29110000 		.4byte	0x1129
 7123 14f7 06       		.uleb128 0x6
 7124 14f8 03       		.byte	0x3
 7125 14f9 7C000000 		.4byte	.LC3
 7126 14fd 9F       		.byte	0x9f
 7127 14fe 39       		.uleb128 0x39
 7128 14ff B0000000 		.4byte	.LVL45
 7129 1503 0B2F0000 		.4byte	0x2f0b
 7130 1507 3A       		.uleb128 0x3a
 7131 1508 01       		.uleb128 0x1
 7132 1509 50       		.byte	0x50
 7133 150a 05       		.uleb128 0x5
 7134 150b 03       		.byte	0x3
ARM GAS  C:\Users\jo\AppData\Local\Temp\cc67lm3z.s 			page 129


 7135 150c 7C000000 		.4byte	.LC3
 7136 1510 00       		.byte	0
 7137 1511 00       		.byte	0
 7138 1512 41       		.uleb128 0x41
 7139 1513 14000000 		.4byte	.LVL35
 7140 1517 242F0000 		.4byte	0x2f24
 7141 151b 42       		.uleb128 0x42
 7142 151c 72000000 		.4byte	.LVL37
 7143 1520 392F0000 		.4byte	0x2f39
 7144 1524 2F150000 		.4byte	0x152f
 7145 1528 3A       		.uleb128 0x3a
 7146 1529 01       		.uleb128 0x1
 7147 152a 50       		.byte	0x50
 7148 152b 02       		.uleb128 0x2
 7149 152c 75       		.byte	0x75
 7150 152d 00       		.sleb128 0
 7151 152e 00       		.byte	0
 7152 152f 41       		.uleb128 0x41
 7153 1530 82000000 		.4byte	.LVL38
 7154 1534 1C2F0000 		.4byte	0x2f1c
 7155 1538 39       		.uleb128 0x39
 7156 1539 AA000000 		.4byte	.LVL44
 7157 153d 3B130000 		.4byte	0x133b
 7158 1541 3A       		.uleb128 0x3a
 7159 1542 01       		.uleb128 0x1
 7160 1543 53       		.byte	0x53
 7161 1544 03       		.uleb128 0x3
 7162 1545 0A       		.byte	0xa
 7163 1546 0C02     		.2byte	0x20c
 7164 1548 3A       		.uleb128 0x3a
 7165 1549 01       		.uleb128 0x1
 7166 154a 52       		.byte	0x52
 7167 154b 05       		.uleb128 0x5
 7168 154c 03       		.byte	0x3
 7169 154d 7C000000 		.4byte	.LC3
 7170 1551 3A       		.uleb128 0x3a
 7171 1552 01       		.uleb128 0x1
 7172 1553 51       		.byte	0x51
 7173 1554 05       		.uleb128 0x5
 7174 1555 03       		.byte	0x3
 7175 1556 00000000 		.4byte	.LC0
 7176 155a 3A       		.uleb128 0x3a
 7177 155b 02       		.uleb128 0x2
 7178 155c 7D       		.byte	0x7d
 7179 155d 00       		.sleb128 0
 7180 155e 05       		.uleb128 0x5
 7181 155f 03       		.byte	0x3
 7182 1560 50000000 		.4byte	.LC2
 7183 1564 00       		.byte	0
 7184 1565 00       		.byte	0
 7185 1566 3C       		.uleb128 0x3c
 7186 1567 EE0B0000 		.4byte	.LASF279
 7187 156b 01       		.byte	0x1
 7188 156c 4302     		.2byte	0x243
 7189 156e 48090000 		.4byte	0x948
 7190 1572 00000000 		.4byte	.LFB266
 7191 1576 74000000 		.4byte	.LFE266-.LFB266
ARM GAS  C:\Users\jo\AppData\Local\Temp\cc67lm3z.s 			page 130


 7192 157a 01       		.uleb128 0x1
 7193 157b 9C       		.byte	0x9c
 7194 157c 16160000 		.4byte	0x1616
 7195 1580 2F       		.uleb128 0x2f
 7196 1581 70636200 		.ascii	"pcb\000"
 7197 1585 01       		.byte	0x1
 7198 1586 4302     		.2byte	0x243
 7199 1588 CF0B0000 		.4byte	0xbcf
 7200 158c 74020000 		.4byte	.LLST11
 7201 1590 3F       		.uleb128 0x3f
 7202 1591 73010000 		.4byte	.LASF280
 7203 1595 01       		.byte	0x1
 7204 1596 4502     		.2byte	0x245
 7205 1598 48090000 		.4byte	0x948
 7206 159c B3020000 		.4byte	.LLST12
 7207 15a0 43       		.uleb128 0x43
 7208 15a1 00000000 		.4byte	.Ldebug_ranges0+0
 7209 15a5 44       		.uleb128 0x44
 7210 15a6 44090000 		.4byte	.LASF281
 7211 15aa 01       		.byte	0x1
 7212 15ab 5202     		.2byte	0x252
 7213 15ad 48090000 		.4byte	0x948
 7214 15b1 01       		.uleb128 0x1
 7215 15b2 55       		.byte	0x55
 7216 15b3 40       		.uleb128 0x40
 7217 15b4 1C110000 		.4byte	0x111c
 7218 15b8 5A000000 		.4byte	.LBB99
 7219 15bc 1A000000 		.4byte	.LBE99-.LBB99
 7220 15c0 01       		.byte	0x1
 7221 15c1 5302     		.2byte	0x253
 7222 15c3 E7150000 		.4byte	0x15e7
 7223 15c7 36       		.uleb128 0x36
 7224 15c8 29110000 		.4byte	0x1129
 7225 15cc 06       		.uleb128 0x6
 7226 15cd 03       		.byte	0x3
 7227 15ce A0000000 		.4byte	.LC4
 7228 15d2 9F       		.byte	0x9f
 7229 15d3 39       		.uleb128 0x39
 7230 15d4 60000000 		.4byte	.LVL58
 7231 15d8 0B2F0000 		.4byte	0x2f0b
 7232 15dc 3A       		.uleb128 0x3a
 7233 15dd 01       		.uleb128 0x1
 7234 15de 50       		.byte	0x50
 7235 15df 05       		.uleb128 0x5
 7236 15e0 03       		.byte	0x3
 7237 15e1 A0000000 		.4byte	.LC4
 7238 15e5 00       		.byte	0
 7239 15e6 00       		.byte	0
 7240 15e7 39       		.uleb128 0x39
 7241 15e8 5A000000 		.4byte	.LVL57
 7242 15ec 3B130000 		.4byte	0x133b
 7243 15f0 3A       		.uleb128 0x3a
 7244 15f1 01       		.uleb128 0x1
 7245 15f2 53       		.byte	0x53
 7246 15f3 03       		.uleb128 0x3
 7247 15f4 0A       		.byte	0xa
 7248 15f5 5302     		.2byte	0x253
ARM GAS  C:\Users\jo\AppData\Local\Temp\cc67lm3z.s 			page 131


 7249 15f7 3A       		.uleb128 0x3a
 7250 15f8 01       		.uleb128 0x1
 7251 15f9 52       		.byte	0x52
 7252 15fa 05       		.uleb128 0x5
 7253 15fb 03       		.byte	0x3
 7254 15fc A0000000 		.4byte	.LC4
 7255 1600 3A       		.uleb128 0x3a
 7256 1601 01       		.uleb128 0x1
 7257 1602 51       		.byte	0x51
 7258 1603 05       		.uleb128 0x5
 7259 1604 03       		.byte	0x3
 7260 1605 00000000 		.4byte	.LC0
 7261 1609 3A       		.uleb128 0x3a
 7262 160a 02       		.uleb128 0x2
 7263 160b 7D       		.byte	0x7d
 7264 160c 00       		.sleb128 0
 7265 160d 05       		.uleb128 0x5
 7266 160e 03       		.byte	0x3
 7267 160f 50000000 		.4byte	.LC2
 7268 1613 00       		.byte	0
 7269 1614 00       		.byte	0
 7270 1615 00       		.byte	0
 7271 1616 34       		.uleb128 0x34
 7272 1617 36110000 		.4byte	0x1136
 7273 161b 00000000 		.4byte	.LFB267
 7274 161f 9C000000 		.4byte	.LFE267-.LFB267
 7275 1623 01       		.uleb128 0x1
 7276 1624 9C       		.byte	0x9c
 7277 1625 50170000 		.4byte	0x1750
 7278 1629 35       		.uleb128 0x35
 7279 162a 43110000 		.4byte	0x1143
 7280 162e 21030000 		.4byte	.LLST13
 7281 1632 35       		.uleb128 0x35
 7282 1633 4F110000 		.4byte	0x114f
 7283 1637 79030000 		.4byte	.LLST14
 7284 163b 45       		.uleb128 0x45
 7285 163c 5B110000 		.4byte	0x115b
 7286 1640 B3030000 		.4byte	.LLST15
 7287 1644 46       		.uleb128 0x46
 7288 1645 20000000 		.4byte	.Ldebug_ranges0+0x20
 7289 1649 78160000 		.4byte	0x1678
 7290 164d 38       		.uleb128 0x38
 7291 164e 4F110000 		.4byte	0x114f
 7292 1652 35       		.uleb128 0x35
 7293 1653 43110000 		.4byte	0x1143
 7294 1657 C6030000 		.4byte	.LLST16
 7295 165b 43       		.uleb128 0x43
 7296 165c 20000000 		.4byte	.Ldebug_ranges0+0x20
 7297 1660 47       		.uleb128 0x47
 7298 1661 5B110000 		.4byte	0x115b
 7299 1665 48       		.uleb128 0x48
 7300 1666 50000000 		.4byte	.LVL65
 7301 166a 4A2F0000 		.4byte	0x2f4a
 7302 166e 3A       		.uleb128 0x3a
 7303 166f 01       		.uleb128 0x1
 7304 1670 50       		.byte	0x50
 7305 1671 03       		.uleb128 0x3
ARM GAS  C:\Users\jo\AppData\Local\Temp\cc67lm3z.s 			page 132


 7306 1672 F3       		.byte	0xf3
 7307 1673 01       		.uleb128 0x1
 7308 1674 50       		.byte	0x50
 7309 1675 00       		.byte	0
 7310 1676 00       		.byte	0
 7311 1677 00       		.byte	0
 7312 1678 40       		.uleb128 0x40
 7313 1679 1C110000 		.4byte	0x111c
 7314 167d 62000000 		.4byte	.LBB117
 7315 1681 0A000000 		.4byte	.LBE117-.LBB117
 7316 1685 01       		.byte	0x1
 7317 1686 6A02     		.2byte	0x26a
 7318 1688 A9160000 		.4byte	0x16a9
 7319 168c 35       		.uleb128 0x35
 7320 168d 29110000 		.4byte	0x1129
 7321 1691 F2030000 		.4byte	.LLST17
 7322 1695 39       		.uleb128 0x39
 7323 1696 68000000 		.4byte	.LVL67
 7324 169a 0B2F0000 		.4byte	0x2f0b
 7325 169e 3A       		.uleb128 0x3a
 7326 169f 01       		.uleb128 0x1
 7327 16a0 50       		.byte	0x50
 7328 16a1 05       		.uleb128 0x5
 7329 16a2 03       		.byte	0x3
 7330 16a3 E4000000 		.4byte	.LC6
 7331 16a7 00       		.byte	0
 7332 16a8 00       		.byte	0
 7333 16a9 40       		.uleb128 0x40
 7334 16aa 1C110000 		.4byte	0x111c
 7335 16ae 7E000000 		.4byte	.LBB119
 7336 16b2 1E000000 		.4byte	.LBE119-.LBB119
 7337 16b6 01       		.byte	0x1
 7338 16b7 6802     		.2byte	0x268
 7339 16b9 DD160000 		.4byte	0x16dd
 7340 16bd 36       		.uleb128 0x36
 7341 16be 29110000 		.4byte	0x1129
 7342 16c2 06       		.uleb128 0x6
 7343 16c3 03       		.byte	0x3
 7344 16c4 BC000000 		.4byte	.LC5
 7345 16c8 9F       		.byte	0x9f
 7346 16c9 39       		.uleb128 0x39
 7347 16ca 84000000 		.4byte	.LVL72
 7348 16ce 0B2F0000 		.4byte	0x2f0b
 7349 16d2 3A       		.uleb128 0x3a
 7350 16d3 01       		.uleb128 0x1
 7351 16d4 50       		.byte	0x50
 7352 16d5 05       		.uleb128 0x5
 7353 16d6 03       		.byte	0x3
 7354 16d7 BC000000 		.4byte	.LC5
 7355 16db 00       		.byte	0
 7356 16dc 00       		.byte	0
 7357 16dd 42       		.uleb128 0x42
 7358 16de 30000000 		.4byte	.LVL61
 7359 16e2 66150000 		.4byte	0x1566
 7360 16e6 F1160000 		.4byte	0x16f1
 7361 16ea 3A       		.uleb128 0x3a
 7362 16eb 01       		.uleb128 0x1
ARM GAS  C:\Users\jo\AppData\Local\Temp\cc67lm3z.s 			page 133


 7363 16ec 50       		.byte	0x50
 7364 16ed 02       		.uleb128 0x2
 7365 16ee 75       		.byte	0x75
 7366 16ef 00       		.sleb128 0
 7367 16f0 00       		.byte	0
 7368 16f1 42       		.uleb128 0x42
 7369 16f2 62000000 		.4byte	.LVL66
 7370 16f6 3B130000 		.4byte	0x133b
 7371 16fa 22170000 		.4byte	0x1722
 7372 16fe 3A       		.uleb128 0x3a
 7373 16ff 01       		.uleb128 0x1
 7374 1700 53       		.byte	0x53
 7375 1701 03       		.uleb128 0x3
 7376 1702 0A       		.byte	0xa
 7377 1703 6B02     		.2byte	0x26b
 7378 1705 3A       		.uleb128 0x3a
 7379 1706 01       		.uleb128 0x1
 7380 1707 52       		.byte	0x52
 7381 1708 05       		.uleb128 0x5
 7382 1709 03       		.byte	0x3
 7383 170a E4000000 		.4byte	.LC6
 7384 170e 3A       		.uleb128 0x3a
 7385 170f 01       		.uleb128 0x1
 7386 1710 51       		.byte	0x51
 7387 1711 05       		.uleb128 0x5
 7388 1712 03       		.byte	0x3
 7389 1713 00000000 		.4byte	.LC0
 7390 1717 3A       		.uleb128 0x3a
 7391 1718 02       		.uleb128 0x2
 7392 1719 7D       		.byte	0x7d
 7393 171a 00       		.sleb128 0
 7394 171b 05       		.uleb128 0x5
 7395 171c 03       		.byte	0x3
 7396 171d 50000000 		.4byte	.LC2
 7397 1721 00       		.byte	0
 7398 1722 39       		.uleb128 0x39
 7399 1723 7E000000 		.4byte	.LVL71
 7400 1727 3B130000 		.4byte	0x133b
 7401 172b 3A       		.uleb128 0x3a
 7402 172c 01       		.uleb128 0x1
 7403 172d 53       		.byte	0x53
 7404 172e 03       		.uleb128 0x3
 7405 172f 0A       		.byte	0xa
 7406 1730 6902     		.2byte	0x269
 7407 1732 3A       		.uleb128 0x3a
 7408 1733 01       		.uleb128 0x1
 7409 1734 52       		.byte	0x52
 7410 1735 05       		.uleb128 0x5
 7411 1736 03       		.byte	0x3
 7412 1737 BC000000 		.4byte	.LC5
 7413 173b 3A       		.uleb128 0x3a
 7414 173c 01       		.uleb128 0x1
 7415 173d 51       		.byte	0x51
 7416 173e 05       		.uleb128 0x5
 7417 173f 03       		.byte	0x3
 7418 1740 00000000 		.4byte	.LC0
 7419 1744 3A       		.uleb128 0x3a
ARM GAS  C:\Users\jo\AppData\Local\Temp\cc67lm3z.s 			page 134


 7420 1745 02       		.uleb128 0x2
 7421 1746 7D       		.byte	0x7d
 7422 1747 00       		.sleb128 0
 7423 1748 05       		.uleb128 0x5
 7424 1749 03       		.byte	0x3
 7425 174a 50000000 		.4byte	.LC2
 7426 174e 00       		.byte	0
 7427 174f 00       		.byte	0
 7428 1750 49       		.uleb128 0x49
 7429 1751 700A0000 		.4byte	.LASF282
 7430 1755 01       		.byte	0x1
 7431 1756 7704     		.2byte	0x477
 7432 1758 00000000 		.4byte	.LFB274
 7433 175c 1A000000 		.4byte	.LFE274-.LFB274
 7434 1760 01       		.uleb128 0x1
 7435 1761 9C       		.byte	0x9c
 7436 1762 91170000 		.4byte	0x1791
 7437 1766 2F       		.uleb128 0x2f
 7438 1767 73656700 		.ascii	"seg\000"
 7439 176b 01       		.byte	0x1
 7440 176c 7704     		.2byte	0x477
 7441 176e DA0F0000 		.4byte	0xfda
 7442 1772 0A040000 		.4byte	.LLST18
 7443 1776 41       		.uleb128 0x41
 7444 1777 0E000000 		.4byte	.LVL75
 7445 177b 602F0000 		.4byte	0x2f60
 7446 177f 48       		.uleb128 0x48
 7447 1780 18000000 		.4byte	.LVL77
 7448 1784 392F0000 		.4byte	0x2f39
 7449 1788 3A       		.uleb128 0x3a
 7450 1789 01       		.uleb128 0x1
 7451 178a 50       		.byte	0x50
 7452 178b 03       		.uleb128 0x3
 7453 178c F3       		.byte	0xf3
 7454 178d 01       		.uleb128 0x1
 7455 178e 50       		.byte	0x50
 7456 178f 00       		.byte	0
 7457 1790 00       		.byte	0
 7458 1791 34       		.uleb128 0x34
 7459 1792 68110000 		.4byte	0x1168
 7460 1796 00000000 		.4byte	.LFB273
 7461 179a 14000000 		.4byte	.LFE273-.LFB273
 7462 179e 01       		.uleb128 0x1
 7463 179f 9C       		.byte	0x9c
 7464 17a0 CA170000 		.4byte	0x17ca
 7465 17a4 35       		.uleb128 0x35
 7466 17a5 75110000 		.4byte	0x1175
 7467 17a9 4C040000 		.4byte	.LLST19
 7468 17ad 4A       		.uleb128 0x4a
 7469 17ae 04000000 		.4byte	.LBB121
 7470 17b2 06000000 		.4byte	.LBE121-.LBB121
 7471 17b6 45       		.uleb128 0x45
 7472 17b7 82110000 		.4byte	0x1182
 7473 17bb 75040000 		.4byte	.LLST20
 7474 17bf 41       		.uleb128 0x41
 7475 17c0 0A000000 		.4byte	.LVL80
 7476 17c4 50170000 		.4byte	0x1750
ARM GAS  C:\Users\jo\AppData\Local\Temp\cc67lm3z.s 			page 135


 7477 17c8 00       		.byte	0
 7478 17c9 00       		.byte	0
 7479 17ca 49       		.uleb128 0x49
 7480 17cb AA070000 		.4byte	.LASF283
 7481 17cf 01       		.byte	0x1
 7482 17d0 8B04     		.2byte	0x48b
 7483 17d2 00000000 		.4byte	.LFB275
 7484 17d6 04000000 		.4byte	.LFE275-.LFB275
 7485 17da 01       		.uleb128 0x1
 7486 17db 9C       		.byte	0x9c
 7487 17dc FD170000 		.4byte	0x17fd
 7488 17e0 30       		.uleb128 0x30
 7489 17e1 70636200 		.ascii	"pcb\000"
 7490 17e5 01       		.byte	0x1
 7491 17e6 8B04     		.2byte	0x48b
 7492 17e8 CF0B0000 		.4byte	0xbcf
 7493 17ec 01       		.uleb128 0x1
 7494 17ed 50       		.byte	0x50
 7495 17ee 4B       		.uleb128 0x4b
 7496 17ef 23060000 		.4byte	.LASF188
 7497 17f3 01       		.byte	0x1
 7498 17f4 8B04     		.2byte	0x48b
 7499 17f6 1C090000 		.4byte	0x91c
 7500 17fa 01       		.uleb128 0x1
 7501 17fb 51       		.byte	0x51
 7502 17fc 00       		.byte	0
 7503 17fd 3C       		.uleb128 0x3c
 7504 17fe 12070000 		.4byte	.LASF284
 7505 1802 01       		.byte	0x1
 7506 1803 9904     		.2byte	0x499
 7507 1805 DA0F0000 		.4byte	0xfda
 7508 1809 00000000 		.4byte	.LFB276
 7509 180d 30000000 		.4byte	.LFE276-.LFB276
 7510 1811 01       		.uleb128 0x1
 7511 1812 9C       		.byte	0x9c
 7512 1813 4A180000 		.4byte	0x184a
 7513 1817 2F       		.uleb128 0x2f
 7514 1818 73656700 		.ascii	"seg\000"
 7515 181c 01       		.byte	0x1
 7516 181d 9904     		.2byte	0x499
 7517 181f DA0F0000 		.4byte	0xfda
 7518 1823 88040000 		.4byte	.LLST21
 7519 1827 3F       		.uleb128 0x3f
 7520 1828 68000000 		.4byte	.LASF285
 7521 182c 01       		.byte	0x1
 7522 182d 9B04     		.2byte	0x49b
 7523 182f DA0F0000 		.4byte	0xfda
 7524 1833 B4040000 		.4byte	.LLST22
 7525 1837 41       		.uleb128 0x41
 7526 1838 0C000000 		.4byte	.LVL85
 7527 183c 242F0000 		.4byte	0x2f24
 7528 1840 41       		.uleb128 0x41
 7529 1841 26000000 		.4byte	.LVL87
 7530 1845 752F0000 		.4byte	0x2f75
 7531 1849 00       		.byte	0
 7532 184a 49       		.uleb128 0x49
 7533 184b 780E0000 		.4byte	.LASF286
ARM GAS  C:\Users\jo\AppData\Local\Temp\cc67lm3z.s 			page 136


 7534 184f 01       		.byte	0x1
 7535 1850 6005     		.2byte	0x560
 7536 1852 00000000 		.4byte	.LFB282
 7537 1856 04000000 		.4byte	.LFE282-.LFB282
 7538 185a 01       		.uleb128 0x1
 7539 185b 9C       		.byte	0x9c
 7540 185c 7D180000 		.4byte	0x187d
 7541 1860 30       		.uleb128 0x30
 7542 1861 70636200 		.ascii	"pcb\000"
 7543 1865 01       		.byte	0x1
 7544 1866 6005     		.2byte	0x560
 7545 1868 CF0B0000 		.4byte	0xbcf
 7546 186c 01       		.uleb128 0x1
 7547 186d 50       		.byte	0x50
 7548 186e 30       		.uleb128 0x30
 7549 186f 61726700 		.ascii	"arg\000"
 7550 1873 01       		.byte	0x1
 7551 1874 6005     		.2byte	0x560
 7552 1876 76030000 		.4byte	0x376
 7553 187a 01       		.uleb128 0x1
 7554 187b 51       		.byte	0x51
 7555 187c 00       		.byte	0
 7556 187d 49       		.uleb128 0x49
 7557 187e 930E0000 		.4byte	.LASF287
 7558 1882 01       		.byte	0x1
 7559 1883 7005     		.2byte	0x570
 7560 1885 00000000 		.4byte	.LFB283
 7561 1889 48000000 		.4byte	.LFE283-.LFB283
 7562 188d 01       		.uleb128 0x1
 7563 188e 9C       		.byte	0x9c
 7564 188f 15190000 		.4byte	0x1915
 7565 1893 2F       		.uleb128 0x2f
 7566 1894 70636200 		.ascii	"pcb\000"
 7567 1898 01       		.byte	0x1
 7568 1899 7005     		.2byte	0x570
 7569 189b CF0B0000 		.4byte	0xbcf
 7570 189f DD040000 		.4byte	.LLST23
 7571 18a3 3D       		.uleb128 0x3d
 7572 18a4 1B0F0000 		.4byte	.LASF221
 7573 18a8 01       		.byte	0x1
 7574 18a9 7005     		.2byte	0x570
 7575 18ab 870E0000 		.4byte	0xe87
 7576 18af 09050000 		.4byte	.LLST24
 7577 18b3 40       		.uleb128 0x40
 7578 18b4 1C110000 		.4byte	0x111c
 7579 18b8 28000000 		.4byte	.LBB122
 7580 18bc 06000000 		.4byte	.LBE122-.LBB122
 7581 18c0 01       		.byte	0x1
 7582 18c1 7205     		.2byte	0x572
 7583 18c3 E7180000 		.4byte	0x18e7
 7584 18c7 36       		.uleb128 0x36
 7585 18c8 29110000 		.4byte	0x1129
 7586 18cc 06       		.uleb128 0x6
 7587 18cd 03       		.byte	0x3
 7588 18ce 08010000 		.4byte	.LC7
 7589 18d2 9F       		.byte	0x9f
 7590 18d3 39       		.uleb128 0x39
ARM GAS  C:\Users\jo\AppData\Local\Temp\cc67lm3z.s 			page 137


 7591 18d4 2E000000 		.4byte	.LVL94
 7592 18d8 0B2F0000 		.4byte	0x2f0b
 7593 18dc 3A       		.uleb128 0x3a
 7594 18dd 01       		.uleb128 0x1
 7595 18de 50       		.byte	0x50
 7596 18df 05       		.uleb128 0x5
 7597 18e0 03       		.byte	0x3
 7598 18e1 08010000 		.4byte	.LC7
 7599 18e5 00       		.byte	0
 7600 18e6 00       		.byte	0
 7601 18e7 39       		.uleb128 0x39
 7602 18e8 28000000 		.4byte	.LVL93
 7603 18ec 3B130000 		.4byte	0x133b
 7604 18f0 3A       		.uleb128 0x3a
 7605 18f1 01       		.uleb128 0x1
 7606 18f2 53       		.byte	0x53
 7607 18f3 03       		.uleb128 0x3
 7608 18f4 0A       		.byte	0xa
 7609 18f5 7205     		.2byte	0x572
 7610 18f7 3A       		.uleb128 0x3a
 7611 18f8 01       		.uleb128 0x1
 7612 18f9 52       		.byte	0x52
 7613 18fa 05       		.uleb128 0x5
 7614 18fb 03       		.byte	0x3
 7615 18fc 08010000 		.4byte	.LC7
 7616 1900 3A       		.uleb128 0x3a
 7617 1901 01       		.uleb128 0x1
 7618 1902 51       		.byte	0x51
 7619 1903 05       		.uleb128 0x5
 7620 1904 03       		.byte	0x3
 7621 1905 00000000 		.4byte	.LC0
 7622 1909 3A       		.uleb128 0x3a
 7623 190a 02       		.uleb128 0x2
 7624 190b 7D       		.byte	0x7d
 7625 190c 00       		.sleb128 0
 7626 190d 05       		.uleb128 0x5
 7627 190e 03       		.byte	0x3
 7628 190f 50000000 		.4byte	.LC2
 7629 1913 00       		.byte	0
 7630 1914 00       		.byte	0
 7631 1915 49       		.uleb128 0x49
 7632 1916 8A070000 		.4byte	.LASF288
 7633 191a 01       		.byte	0x1
 7634 191b 7E05     		.2byte	0x57e
 7635 191d 00000000 		.4byte	.LFB284
 7636 1921 44000000 		.4byte	.LFE284-.LFB284
 7637 1925 01       		.uleb128 0x1
 7638 1926 9C       		.byte	0x9c
 7639 1927 AD190000 		.4byte	0x19ad
 7640 192b 2F       		.uleb128 0x2f
 7641 192c 70636200 		.ascii	"pcb\000"
 7642 1930 01       		.byte	0x1
 7643 1931 7E05     		.2byte	0x57e
 7644 1933 CF0B0000 		.4byte	0xbcf
 7645 1937 37050000 		.4byte	.LLST25
 7646 193b 3D       		.uleb128 0x3d
 7647 193c E2060000 		.4byte	.LASF220
ARM GAS  C:\Users\jo\AppData\Local\Temp\cc67lm3z.s 			page 138


 7648 1940 01       		.byte	0x1
 7649 1941 7E05     		.2byte	0x57e
 7650 1943 B60E0000 		.4byte	0xeb6
 7651 1947 63050000 		.4byte	.LLST26
 7652 194b 40       		.uleb128 0x40
 7653 194c 1C110000 		.4byte	0x111c
 7654 1950 26000000 		.4byte	.LBB124
 7655 1954 06000000 		.4byte	.LBE124-.LBB124
 7656 1958 01       		.byte	0x1
 7657 1959 8005     		.2byte	0x580
 7658 195b 7F190000 		.4byte	0x197f
 7659 195f 36       		.uleb128 0x36
 7660 1960 29110000 		.4byte	0x1129
 7661 1964 06       		.uleb128 0x6
 7662 1965 03       		.byte	0x3
 7663 1966 30010000 		.4byte	.LC8
 7664 196a 9F       		.byte	0x9f
 7665 196b 39       		.uleb128 0x39
 7666 196c 2C000000 		.4byte	.LVL100
 7667 1970 0B2F0000 		.4byte	0x2f0b
 7668 1974 3A       		.uleb128 0x3a
 7669 1975 01       		.uleb128 0x1
 7670 1976 50       		.byte	0x50
 7671 1977 05       		.uleb128 0x5
 7672 1978 03       		.byte	0x3
 7673 1979 30010000 		.4byte	.LC8
 7674 197d 00       		.byte	0
 7675 197e 00       		.byte	0
 7676 197f 39       		.uleb128 0x39
 7677 1980 26000000 		.4byte	.LVL99
 7678 1984 3B130000 		.4byte	0x133b
 7679 1988 3A       		.uleb128 0x3a
 7680 1989 01       		.uleb128 0x1
 7681 198a 53       		.byte	0x53
 7682 198b 03       		.uleb128 0x3
 7683 198c 0A       		.byte	0xa
 7684 198d 8005     		.2byte	0x580
 7685 198f 3A       		.uleb128 0x3a
 7686 1990 01       		.uleb128 0x1
 7687 1991 52       		.byte	0x52
 7688 1992 05       		.uleb128 0x5
 7689 1993 03       		.byte	0x3
 7690 1994 30010000 		.4byte	.LC8
 7691 1998 3A       		.uleb128 0x3a
 7692 1999 01       		.uleb128 0x1
 7693 199a 51       		.byte	0x51
 7694 199b 05       		.uleb128 0x5
 7695 199c 03       		.byte	0x3
 7696 199d 00000000 		.4byte	.LC0
 7697 19a1 3A       		.uleb128 0x3a
 7698 19a2 02       		.uleb128 0x2
 7699 19a3 7D       		.byte	0x7d
 7700 19a4 00       		.sleb128 0
 7701 19a5 05       		.uleb128 0x5
 7702 19a6 03       		.byte	0x3
 7703 19a7 50000000 		.4byte	.LC2
 7704 19ab 00       		.byte	0
ARM GAS  C:\Users\jo\AppData\Local\Temp\cc67lm3z.s 			page 139


 7705 19ac 00       		.byte	0
 7706 19ad 49       		.uleb128 0x49
 7707 19ae EB080000 		.4byte	.LASF289
 7708 19b2 01       		.byte	0x1
 7709 19b3 8D05     		.2byte	0x58d
 7710 19b5 00000000 		.4byte	.LFB285
 7711 19b9 48000000 		.4byte	.LFE285-.LFB285
 7712 19bd 01       		.uleb128 0x1
 7713 19be 9C       		.byte	0x9c
 7714 19bf 451A0000 		.4byte	0x1a45
 7715 19c3 2F       		.uleb128 0x2f
 7716 19c4 70636200 		.ascii	"pcb\000"
 7717 19c8 01       		.byte	0x1
 7718 19c9 8D05     		.2byte	0x58d
 7719 19cb CF0B0000 		.4byte	0xbcf
 7720 19cf 90050000 		.4byte	.LLST27
 7721 19d3 2F       		.uleb128 0x2f
 7722 19d4 65727200 		.ascii	"err\000"
 7723 19d8 01       		.byte	0x1
 7724 19d9 8D05     		.2byte	0x58d
 7725 19db 050F0000 		.4byte	0xf05
 7726 19df BC050000 		.4byte	.LLST28
 7727 19e3 40       		.uleb128 0x40
 7728 19e4 1C110000 		.4byte	0x111c
 7729 19e8 28000000 		.4byte	.LBB126
 7730 19ec 06000000 		.4byte	.LBE126-.LBB126
 7731 19f0 01       		.byte	0x1
 7732 19f1 8F05     		.2byte	0x58f
 7733 19f3 171A0000 		.4byte	0x1a17
 7734 19f7 36       		.uleb128 0x36
 7735 19f8 29110000 		.4byte	0x1129
 7736 19fc 06       		.uleb128 0x6
 7737 19fd 03       		.byte	0x3
 7738 19fe 58010000 		.4byte	.LC9
 7739 1a02 9F       		.byte	0x9f
 7740 1a03 39       		.uleb128 0x39
 7741 1a04 2E000000 		.4byte	.LVL106
 7742 1a08 0B2F0000 		.4byte	0x2f0b
 7743 1a0c 3A       		.uleb128 0x3a
 7744 1a0d 01       		.uleb128 0x1
 7745 1a0e 50       		.byte	0x50
 7746 1a0f 05       		.uleb128 0x5
 7747 1a10 03       		.byte	0x3
 7748 1a11 58010000 		.4byte	.LC9
 7749 1a15 00       		.byte	0
 7750 1a16 00       		.byte	0
 7751 1a17 39       		.uleb128 0x39
 7752 1a18 28000000 		.4byte	.LVL105
 7753 1a1c 3B130000 		.4byte	0x133b
 7754 1a20 3A       		.uleb128 0x3a
 7755 1a21 01       		.uleb128 0x1
 7756 1a22 53       		.byte	0x53
 7757 1a23 03       		.uleb128 0x3
 7758 1a24 0A       		.byte	0xa
 7759 1a25 8F05     		.2byte	0x58f
 7760 1a27 3A       		.uleb128 0x3a
 7761 1a28 01       		.uleb128 0x1
ARM GAS  C:\Users\jo\AppData\Local\Temp\cc67lm3z.s 			page 140


 7762 1a29 52       		.byte	0x52
 7763 1a2a 05       		.uleb128 0x5
 7764 1a2b 03       		.byte	0x3
 7765 1a2c 58010000 		.4byte	.LC9
 7766 1a30 3A       		.uleb128 0x3a
 7767 1a31 01       		.uleb128 0x1
 7768 1a32 51       		.byte	0x51
 7769 1a33 05       		.uleb128 0x5
 7770 1a34 03       		.byte	0x3
 7771 1a35 00000000 		.4byte	.LC0
 7772 1a39 3A       		.uleb128 0x3a
 7773 1a3a 02       		.uleb128 0x2
 7774 1a3b 7D       		.byte	0x7d
 7775 1a3c 00       		.sleb128 0
 7776 1a3d 05       		.uleb128 0x5
 7777 1a3e 03       		.byte	0x3
 7778 1a3f 50000000 		.4byte	.LC2
 7779 1a43 00       		.byte	0
 7780 1a44 00       		.byte	0
 7781 1a45 49       		.uleb128 0x49
 7782 1a46 530A0000 		.4byte	.LASF290
 7783 1a4a 01       		.byte	0x1
 7784 1a4b 9C05     		.2byte	0x59c
 7785 1a4d 00000000 		.4byte	.LFB286
 7786 1a51 04000000 		.4byte	.LFE286-.LFB286
 7787 1a55 01       		.uleb128 0x1
 7788 1a56 9C       		.byte	0x9c
 7789 1a57 781A0000 		.4byte	0x1a78
 7790 1a5b 30       		.uleb128 0x30
 7791 1a5c 70636200 		.ascii	"pcb\000"
 7792 1a60 01       		.byte	0x1
 7793 1a61 9C05     		.2byte	0x59c
 7794 1a63 CF0B0000 		.4byte	0xbcf
 7795 1a67 01       		.uleb128 0x1
 7796 1a68 50       		.byte	0x50
 7797 1a69 4B       		.uleb128 0x4b
 7798 1a6a 85030000 		.4byte	.LASF187
 7799 1a6e 01       		.byte	0x1
 7800 1a6f 9C05     		.2byte	0x59c
 7801 1a71 A50B0000 		.4byte	0xba5
 7802 1a75 01       		.uleb128 0x1
 7803 1a76 51       		.byte	0x51
 7804 1a77 00       		.byte	0
 7805 1a78 49       		.uleb128 0x49
 7806 1a79 60070000 		.4byte	.LASF291
 7807 1a7d 01       		.byte	0x1
 7808 1a7e AC05     		.2byte	0x5ac
 7809 1a80 00000000 		.4byte	.LFB287
 7810 1a84 50000000 		.4byte	.LFE287-.LFB287
 7811 1a88 01       		.uleb128 0x1
 7812 1a89 9C       		.byte	0x9c
 7813 1a8a 201B0000 		.4byte	0x1b20
 7814 1a8e 2F       		.uleb128 0x2f
 7815 1a8f 70636200 		.ascii	"pcb\000"
 7816 1a93 01       		.byte	0x1
 7817 1a94 AC05     		.2byte	0x5ac
 7818 1a96 CF0B0000 		.4byte	0xbcf
ARM GAS  C:\Users\jo\AppData\Local\Temp\cc67lm3z.s 			page 141


 7819 1a9a EA050000 		.4byte	.LLST29
 7820 1a9e 3D       		.uleb128 0x3d
 7821 1a9f 9F090000 		.4byte	.LASF223
 7822 1aa3 01       		.byte	0x1
 7823 1aa4 AC05     		.2byte	0x5ac
 7824 1aa6 E00E0000 		.4byte	0xee0
 7825 1aaa 16060000 		.4byte	.LLST30
 7826 1aae 3D       		.uleb128 0x3d
 7827 1aaf 1C000000 		.4byte	.LASF292
 7828 1ab3 01       		.byte	0x1
 7829 1ab4 AC05     		.2byte	0x5ac
 7830 1ab6 1C090000 		.4byte	0x91c
 7831 1aba 44060000 		.4byte	.LLST31
 7832 1abe 40       		.uleb128 0x40
 7833 1abf 1C110000 		.4byte	0x111c
 7834 1ac3 2E000000 		.4byte	.LBB128
 7835 1ac7 06000000 		.4byte	.LBE128-.LBB128
 7836 1acb 01       		.byte	0x1
 7837 1acc AE05     		.2byte	0x5ae
 7838 1ace F21A0000 		.4byte	0x1af2
 7839 1ad2 36       		.uleb128 0x36
 7840 1ad3 29110000 		.4byte	0x1129
 7841 1ad7 06       		.uleb128 0x6
 7842 1ad8 03       		.byte	0x3
 7843 1ad9 80010000 		.4byte	.LC10
 7844 1add 9F       		.byte	0x9f
 7845 1ade 39       		.uleb128 0x39
 7846 1adf 34000000 		.4byte	.LVL114
 7847 1ae3 0B2F0000 		.4byte	0x2f0b
 7848 1ae7 3A       		.uleb128 0x3a
 7849 1ae8 01       		.uleb128 0x1
 7850 1ae9 50       		.byte	0x50
 7851 1aea 05       		.uleb128 0x5
 7852 1aeb 03       		.byte	0x3
 7853 1aec 80010000 		.4byte	.LC10
 7854 1af0 00       		.byte	0
 7855 1af1 00       		.byte	0
 7856 1af2 39       		.uleb128 0x39
 7857 1af3 2E000000 		.4byte	.LVL113
 7858 1af7 3B130000 		.4byte	0x133b
 7859 1afb 3A       		.uleb128 0x3a
 7860 1afc 01       		.uleb128 0x1
 7861 1afd 53       		.byte	0x53
 7862 1afe 03       		.uleb128 0x3
 7863 1aff 0A       		.byte	0xa
 7864 1b00 AE05     		.2byte	0x5ae
 7865 1b02 3A       		.uleb128 0x3a
 7866 1b03 01       		.uleb128 0x1
 7867 1b04 52       		.byte	0x52
 7868 1b05 05       		.uleb128 0x5
 7869 1b06 03       		.byte	0x3
 7870 1b07 80010000 		.4byte	.LC10
 7871 1b0b 3A       		.uleb128 0x3a
 7872 1b0c 01       		.uleb128 0x1
 7873 1b0d 51       		.byte	0x51
 7874 1b0e 05       		.uleb128 0x5
 7875 1b0f 03       		.byte	0x3
ARM GAS  C:\Users\jo\AppData\Local\Temp\cc67lm3z.s 			page 142


 7876 1b10 00000000 		.4byte	.LC0
 7877 1b14 3A       		.uleb128 0x3a
 7878 1b15 02       		.uleb128 0x2
 7879 1b16 7D       		.byte	0x7d
 7880 1b17 00       		.sleb128 0
 7881 1b18 05       		.uleb128 0x5
 7882 1b19 03       		.byte	0x3
 7883 1b1a 50000000 		.4byte	.LC2
 7884 1b1e 00       		.byte	0
 7885 1b1f 00       		.byte	0
 7886 1b20 34       		.uleb128 0x34
 7887 1b21 90110000 		.4byte	0x1190
 7888 1b25 00000000 		.4byte	.LFB288
 7889 1b29 62000000 		.4byte	.LFE288-.LFB288
 7890 1b2d 01       		.uleb128 0x1
 7891 1b2e 9C       		.byte	0x9c
 7892 1b2f 071C0000 		.4byte	0x1c07
 7893 1b33 35       		.uleb128 0x35
 7894 1b34 9D110000 		.4byte	0x119d
 7895 1b38 65060000 		.4byte	.LLST32
 7896 1b3c 4A       		.uleb128 0x4a
 7897 1b3d 0E000000 		.4byte	.LBB141
 7898 1b41 54000000 		.4byte	.LBE141-.LBB141
 7899 1b45 35       		.uleb128 0x35
 7900 1b46 9D110000 		.4byte	0x119d
 7901 1b4a 8E060000 		.4byte	.LLST33
 7902 1b4e 40       		.uleb128 0x40
 7903 1b4f 68110000 		.4byte	0x1168
 7904 1b53 1C000000 		.4byte	.LBB143
 7905 1b57 0E000000 		.4byte	.LBE143-.LBB143
 7906 1b5b 01       		.byte	0x1
 7907 1b5c EA05     		.2byte	0x5ea
 7908 1b5e 881B0000 		.4byte	0x1b88
 7909 1b62 35       		.uleb128 0x35
 7910 1b63 75110000 		.4byte	0x1175
 7911 1b67 AC060000 		.4byte	.LLST34
 7912 1b6b 4A       		.uleb128 0x4a
 7913 1b6c 1E000000 		.4byte	.LBB145
 7914 1b70 06000000 		.4byte	.LBE145-.LBB145
 7915 1b74 45       		.uleb128 0x45
 7916 1b75 82110000 		.4byte	0x1182
 7917 1b79 D5060000 		.4byte	.LLST35
 7918 1b7d 41       		.uleb128 0x41
 7919 1b7e 24000000 		.4byte	.LVL122
 7920 1b82 50170000 		.4byte	0x1750
 7921 1b86 00       		.byte	0
 7922 1b87 00       		.byte	0
 7923 1b88 40       		.uleb128 0x40
 7924 1b89 68110000 		.4byte	0x1168
 7925 1b8d 36000000 		.4byte	.LBB146
 7926 1b91 0E000000 		.4byte	.LBE146-.LBB146
 7927 1b95 01       		.byte	0x1
 7928 1b96 F205     		.2byte	0x5f2
 7929 1b98 C21B0000 		.4byte	0x1bc2
 7930 1b9c 35       		.uleb128 0x35
 7931 1b9d 75110000 		.4byte	0x1175
 7932 1ba1 E8060000 		.4byte	.LLST36
ARM GAS  C:\Users\jo\AppData\Local\Temp\cc67lm3z.s 			page 143


 7933 1ba5 4A       		.uleb128 0x4a
 7934 1ba6 38000000 		.4byte	.LBB148
 7935 1baa 06000000 		.4byte	.LBE148-.LBB148
 7936 1bae 45       		.uleb128 0x45
 7937 1baf 82110000 		.4byte	0x1182
 7938 1bb3 11070000 		.4byte	.LLST37
 7939 1bb7 41       		.uleb128 0x41
 7940 1bb8 3E000000 		.4byte	.LVL126
 7941 1bbc 50170000 		.4byte	0x1750
 7942 1bc0 00       		.byte	0
 7943 1bc1 00       		.byte	0
 7944 1bc2 40       		.uleb128 0x40
 7945 1bc3 68110000 		.4byte	0x1168
 7946 1bc7 46000000 		.4byte	.LBB149
 7947 1bcb 0E000000 		.4byte	.LBE149-.LBB149
 7948 1bcf 01       		.byte	0x1
 7949 1bd0 F305     		.2byte	0x5f3
 7950 1bd2 FC1B0000 		.4byte	0x1bfc
 7951 1bd6 35       		.uleb128 0x35
 7952 1bd7 75110000 		.4byte	0x1175
 7953 1bdb 24070000 		.4byte	.LLST38
 7954 1bdf 4A       		.uleb128 0x4a
 7955 1be0 48000000 		.4byte	.LBB151
 7956 1be4 06000000 		.4byte	.LBE151-.LBB151
 7957 1be8 45       		.uleb128 0x45
 7958 1be9 82110000 		.4byte	0x1182
 7959 1bed 4D070000 		.4byte	.LLST39
 7960 1bf1 41       		.uleb128 0x41
 7961 1bf2 4E000000 		.4byte	.LVL130
 7962 1bf6 50170000 		.4byte	0x1750
 7963 1bfa 00       		.byte	0
 7964 1bfb 00       		.byte	0
 7965 1bfc 41       		.uleb128 0x41
 7966 1bfd 16000000 		.4byte	.LVL119
 7967 1c01 602F0000 		.4byte	0x2f60
 7968 1c05 00       		.byte	0
 7969 1c06 00       		.byte	0
 7970 1c07 49       		.uleb128 0x49
 7971 1c08 93090000 		.4byte	.LASF293
 7972 1c0c 01       		.byte	0x1
 7973 1c0d 1403     		.2byte	0x314
 7974 1c0f 00000000 		.4byte	.LFB270
 7975 1c13 AC040000 		.4byte	.LFE270-.LFB270
 7976 1c17 01       		.uleb128 0x1
 7977 1c18 9C       		.byte	0x9c
 7978 1c19 E7200000 		.4byte	0x20e7
 7979 1c1d 31       		.uleb128 0x31
 7980 1c1e 70636200 		.ascii	"pcb\000"
 7981 1c22 01       		.byte	0x1
 7982 1c23 1603     		.2byte	0x316
 7983 1c25 CF0B0000 		.4byte	0xbcf
 7984 1c29 60070000 		.4byte	.LLST40
 7985 1c2d 3F       		.uleb128 0x3f
 7986 1c2e DE010000 		.4byte	.LASF294
 7987 1c32 01       		.byte	0x1
 7988 1c33 1603     		.2byte	0x316
 7989 1c35 CF0B0000 		.4byte	0xbcf
ARM GAS  C:\Users\jo\AppData\Local\Temp\cc67lm3z.s 			page 144


 7990 1c39 0E080000 		.4byte	.LLST41
 7991 1c3d 25       		.uleb128 0x25
 7992 1c3e A2010000 		.4byte	.LASF295
 7993 1c42 01       		.byte	0x1
 7994 1c43 1703     		.2byte	0x317
 7995 1c45 32090000 		.4byte	0x932
 7996 1c49 3F       		.uleb128 0x3f
 7997 1c4a 29050000 		.4byte	.LASF296
 7998 1c4e 01       		.byte	0x1
 7999 1c4f 1803     		.2byte	0x318
 8000 1c51 1C090000 		.4byte	0x91c
 8001 1c55 9C080000 		.4byte	.LLST42
 8002 1c59 3F       		.uleb128 0x3f
 8003 1c5a 1B030000 		.4byte	.LASF297
 8004 1c5e 01       		.byte	0x1
 8005 1c5f 1903     		.2byte	0x319
 8006 1c61 1C090000 		.4byte	0x91c
 8007 1c65 67090000 		.4byte	.LLST43
 8008 1c69 31       		.uleb128 0x31
 8009 1c6a 65727200 		.ascii	"err\000"
 8010 1c6e 01       		.byte	0x1
 8011 1c6f 1A03     		.2byte	0x31a
 8012 1c71 DF090000 		.4byte	0x9df
 8013 1c75 CB090000 		.4byte	.LLST44
 8014 1c79 4C       		.uleb128 0x4c
 8015 1c7a B4080000 		.4byte	.LASF370
 8016 1c7e 01       		.byte	0x1
 8017 1c7f 2103     		.2byte	0x321
 8018 1c81 40       		.uleb128 0x40
 8019 1c82 1C110000 		.4byte	0x111c
 8020 1c86 52010000 		.4byte	.LBB152
 8021 1c8a 06000000 		.4byte	.LBE152-.LBB152
 8022 1c8e 01       		.byte	0x1
 8023 1c8f EE03     		.2byte	0x3ee
 8024 1c91 B21C0000 		.4byte	0x1cb2
 8025 1c95 35       		.uleb128 0x35
 8026 1c96 29110000 		.4byte	0x1129
 8027 1c9a EA090000 		.4byte	.LLST45
 8028 1c9e 39       		.uleb128 0x39
 8029 1c9f 58010000 		.4byte	.LVL151
 8030 1ca3 0B2F0000 		.4byte	0x2f0b
 8031 1ca7 3A       		.uleb128 0x3a
 8032 1ca8 01       		.uleb128 0x1
 8033 1ca9 50       		.byte	0x50
 8034 1caa 05       		.uleb128 0x5
 8035 1cab 03       		.byte	0x3
 8036 1cac 80020000 		.4byte	.LC16
 8037 1cb0 00       		.byte	0
 8038 1cb1 00       		.byte	0
 8039 1cb2 46       		.uleb128 0x46
 8040 1cb3 38000000 		.4byte	.Ldebug_ranges0+0x38
 8041 1cb7 A61D0000 		.4byte	0x1da6
 8042 1cbb 3F       		.uleb128 0x3f
 8043 1cbc 840F0000 		.4byte	.LASF298
 8044 1cc0 01       		.byte	0x1
 8045 1cc1 FA03     		.2byte	0x3fa
 8046 1cc3 CF0B0000 		.4byte	0xbcf
ARM GAS  C:\Users\jo\AppData\Local\Temp\cc67lm3z.s 			page 145


 8047 1cc7 020A0000 		.4byte	.LLST46
 8048 1ccb 40       		.uleb128 0x40
 8049 1ccc 1C110000 		.4byte	0x111c
 8050 1cd0 42040000 		.4byte	.LBB155
 8051 1cd4 06000000 		.4byte	.LBE155-.LBB155
 8052 1cd8 01       		.byte	0x1
 8053 1cd9 0204     		.2byte	0x402
 8054 1cdb FC1C0000 		.4byte	0x1cfc
 8055 1cdf 35       		.uleb128 0x35
 8056 1ce0 29110000 		.4byte	0x1129
 8057 1ce4 200A0000 		.4byte	.LLST47
 8058 1ce8 39       		.uleb128 0x39
 8059 1ce9 48040000 		.4byte	.LVL205
 8060 1ced 0B2F0000 		.4byte	0x2f0b
 8061 1cf1 3A       		.uleb128 0x3a
 8062 1cf2 01       		.uleb128 0x1
 8063 1cf3 50       		.byte	0x50
 8064 1cf4 05       		.uleb128 0x5
 8065 1cf5 03       		.byte	0x3
 8066 1cf6 D8020000 		.4byte	.LC18
 8067 1cfa 00       		.byte	0
 8068 1cfb 00       		.byte	0
 8069 1cfc 40       		.uleb128 0x40
 8070 1cfd 1C110000 		.4byte	0x111c
 8071 1d01 7C040000 		.4byte	.LBB157
 8072 1d05 30000000 		.4byte	.LBE157-.LBB157
 8073 1d09 01       		.byte	0x1
 8074 1d0a FE03     		.2byte	0x3fe
 8075 1d0c 301D0000 		.4byte	0x1d30
 8076 1d10 36       		.uleb128 0x36
 8077 1d11 29110000 		.4byte	0x1129
 8078 1d15 06       		.uleb128 0x6
 8079 1d16 03       		.byte	0x3
 8080 1d17 B0020000 		.4byte	.LC17
 8081 1d1b 9F       		.byte	0x9f
 8082 1d1c 39       		.uleb128 0x39
 8083 1d1d 82040000 		.4byte	.LVL211
 8084 1d21 0B2F0000 		.4byte	0x2f0b
 8085 1d25 3A       		.uleb128 0x3a
 8086 1d26 01       		.uleb128 0x1
 8087 1d27 50       		.byte	0x50
 8088 1d28 05       		.uleb128 0x5
 8089 1d29 03       		.byte	0x3
 8090 1d2a B0020000 		.4byte	.LC17
 8091 1d2e 00       		.byte	0
 8092 1d2f 00       		.byte	0
 8093 1d30 42       		.uleb128 0x42
 8094 1d31 6A010000 		.4byte	.LVL153
 8095 1d35 90110000 		.4byte	0x1190
 8096 1d39 441D0000 		.4byte	0x1d44
 8097 1d3d 3A       		.uleb128 0x3a
 8098 1d3e 01       		.uleb128 0x1
 8099 1d3f 50       		.byte	0x50
 8100 1d40 02       		.uleb128 0x2
 8101 1d41 75       		.byte	0x75
 8102 1d42 00       		.sleb128 0
 8103 1d43 00       		.byte	0
ARM GAS  C:\Users\jo\AppData\Local\Temp\cc67lm3z.s 			page 146


 8104 1d44 41       		.uleb128 0x41
 8105 1d45 8A010000 		.4byte	.LVL156
 8106 1d49 392F0000 		.4byte	0x2f39
 8107 1d4d 42       		.uleb128 0x42
 8108 1d4e 42040000 		.4byte	.LVL204
 8109 1d52 3B130000 		.4byte	0x133b
 8110 1d56 7B1D0000 		.4byte	0x1d7b
 8111 1d5a 3A       		.uleb128 0x3a
 8112 1d5b 01       		.uleb128 0x1
 8113 1d5c 53       		.byte	0x53
 8114 1d5d 03       		.uleb128 0x3
 8115 1d5e 0A       		.byte	0xa
 8116 1d5f 0204     		.2byte	0x402
 8117 1d61 3A       		.uleb128 0x3a
 8118 1d62 01       		.uleb128 0x1
 8119 1d63 52       		.byte	0x52
 8120 1d64 05       		.uleb128 0x5
 8121 1d65 03       		.byte	0x3
 8122 1d66 D8020000 		.4byte	.LC18
 8123 1d6a 3A       		.uleb128 0x3a
 8124 1d6b 01       		.uleb128 0x1
 8125 1d6c 51       		.byte	0x51
 8126 1d6d 05       		.uleb128 0x5
 8127 1d6e 03       		.byte	0x3
 8128 1d6f 00000000 		.4byte	.LC0
 8129 1d73 3A       		.uleb128 0x3a
 8130 1d74 02       		.uleb128 0x2
 8131 1d75 7D       		.byte	0x7d
 8132 1d76 00       		.sleb128 0
 8133 1d77 02       		.uleb128 0x2
 8134 1d78 77       		.byte	0x77
 8135 1d79 00       		.sleb128 0
 8136 1d7a 00       		.byte	0
 8137 1d7b 39       		.uleb128 0x39
 8138 1d7c 7C040000 		.4byte	.LVL210
 8139 1d80 3B130000 		.4byte	0x133b
 8140 1d84 3A       		.uleb128 0x3a
 8141 1d85 01       		.uleb128 0x1
 8142 1d86 53       		.byte	0x53
 8143 1d87 03       		.uleb128 0x3
 8144 1d88 0A       		.byte	0xa
 8145 1d89 FE03     		.2byte	0x3fe
 8146 1d8b 3A       		.uleb128 0x3a
 8147 1d8c 01       		.uleb128 0x1
 8148 1d8d 52       		.byte	0x52
 8149 1d8e 05       		.uleb128 0x5
 8150 1d8f 03       		.byte	0x3
 8151 1d90 B0020000 		.4byte	.LC17
 8152 1d94 3A       		.uleb128 0x3a
 8153 1d95 01       		.uleb128 0x1
 8154 1d96 51       		.byte	0x51
 8155 1d97 05       		.uleb128 0x5
 8156 1d98 03       		.byte	0x3
 8157 1d99 00000000 		.4byte	.LC0
 8158 1d9d 3A       		.uleb128 0x3a
 8159 1d9e 02       		.uleb128 0x2
 8160 1d9f 7D       		.byte	0x7d
ARM GAS  C:\Users\jo\AppData\Local\Temp\cc67lm3z.s 			page 147


 8161 1da0 00       		.sleb128 0
 8162 1da1 02       		.uleb128 0x2
 8163 1da2 77       		.byte	0x77
 8164 1da3 00       		.sleb128 0
 8165 1da4 00       		.byte	0
 8166 1da5 00       		.byte	0
 8167 1da6 40       		.uleb128 0x40
 8168 1da7 68110000 		.4byte	0x1168
 8169 1dab 94010000 		.4byte	.LBB159
 8170 1daf 0E000000 		.4byte	.LBE159-.LBB159
 8171 1db3 01       		.byte	0x1
 8172 1db4 9B03     		.2byte	0x39b
 8173 1db6 E01D0000 		.4byte	0x1de0
 8174 1dba 35       		.uleb128 0x35
 8175 1dbb 75110000 		.4byte	0x1175
 8176 1dbf 380A0000 		.4byte	.LLST48
 8177 1dc3 4A       		.uleb128 0x4a
 8178 1dc4 94010000 		.4byte	.LBB161
 8179 1dc8 08000000 		.4byte	.LBE161-.LBB161
 8180 1dcc 45       		.uleb128 0x45
 8181 1dcd 82110000 		.4byte	0x1182
 8182 1dd1 560A0000 		.4byte	.LLST49
 8183 1dd5 41       		.uleb128 0x41
 8184 1dd6 9C010000 		.4byte	.LVL160
 8185 1dda 50170000 		.4byte	0x1750
 8186 1dde 00       		.byte	0
 8187 1ddf 00       		.byte	0
 8188 1de0 46       		.uleb128 0x46
 8189 1de1 58000000 		.4byte	.Ldebug_ranges0+0x58
 8190 1de5 361F0000 		.4byte	0x1f36
 8191 1de9 3F       		.uleb128 0x3f
 8192 1dea 840F0000 		.4byte	.LASF298
 8193 1dee 01       		.byte	0x1
 8194 1def B403     		.2byte	0x3b4
 8195 1df1 CF0B0000 		.4byte	0xbcf
 8196 1df5 690A0000 		.4byte	.LLST50
 8197 1df9 3F       		.uleb128 0x3f
 8198 1dfa 51020000 		.4byte	.LASF299
 8199 1dfe 01       		.byte	0x1
 8200 1dff B503     		.2byte	0x3b5
 8201 1e01 050F0000 		.4byte	0xf05
 8202 1e05 7C0A0000 		.4byte	.LLST51
 8203 1e09 3F       		.uleb128 0x3f
 8204 1e0a 00100000 		.4byte	.LASF300
 8205 1e0e 01       		.byte	0x1
 8206 1e0f B603     		.2byte	0x3b6
 8207 1e11 76030000 		.4byte	0x376
 8208 1e15 8F0A0000 		.4byte	.LLST52
 8209 1e19 40       		.uleb128 0x40
 8210 1e1a 1C110000 		.4byte	0x111c
 8211 1e1e 1C040000 		.4byte	.LBB163
 8212 1e22 06000000 		.4byte	.LBE163-.LBB163
 8213 1e26 01       		.byte	0x1
 8214 1e27 BE03     		.2byte	0x3be
 8215 1e29 4A1E0000 		.4byte	0x1e4a
 8216 1e2d 35       		.uleb128 0x35
 8217 1e2e 29110000 		.4byte	0x1129
ARM GAS  C:\Users\jo\AppData\Local\Temp\cc67lm3z.s 			page 148


 8218 1e32 A30A0000 		.4byte	.LLST53
 8219 1e36 39       		.uleb128 0x39
 8220 1e37 22040000 		.4byte	.LVL202
 8221 1e3b 0B2F0000 		.4byte	0x2f0b
 8222 1e3f 3A       		.uleb128 0x3a
 8223 1e40 01       		.uleb128 0x1
 8224 1e41 50       		.byte	0x50
 8225 1e42 05       		.uleb128 0x5
 8226 1e43 03       		.byte	0x3
 8227 1e44 54020000 		.4byte	.LC15
 8228 1e48 00       		.byte	0
 8229 1e49 00       		.byte	0
 8230 1e4a 40       		.uleb128 0x40
 8231 1e4b 1C110000 		.4byte	0x111c
 8232 1e4f 64040000 		.4byte	.LBB165
 8233 1e53 08000000 		.4byte	.LBE165-.LBB165
 8234 1e57 01       		.byte	0x1
 8235 1e58 BA03     		.2byte	0x3ba
 8236 1e5a 7B1E0000 		.4byte	0x1e7b
 8237 1e5e 35       		.uleb128 0x35
 8238 1e5f 29110000 		.4byte	0x1129
 8239 1e63 BB0A0000 		.4byte	.LLST54
 8240 1e67 39       		.uleb128 0x39
 8241 1e68 6A040000 		.4byte	.LVL208
 8242 1e6c 0B2F0000 		.4byte	0x2f0b
 8243 1e70 3A       		.uleb128 0x3a
 8244 1e71 01       		.uleb128 0x1
 8245 1e72 50       		.byte	0x50
 8246 1e73 05       		.uleb128 0x5
 8247 1e74 03       		.byte	0x3
 8248 1e75 28020000 		.4byte	.LC14
 8249 1e79 00       		.byte	0
 8250 1e7a 00       		.byte	0
 8251 1e7b 42       		.uleb128 0x42
 8252 1e7c D0010000 		.4byte	.LVL165
 8253 1e80 90110000 		.4byte	0x1190
 8254 1e84 8F1E0000 		.4byte	0x1e8f
 8255 1e88 3A       		.uleb128 0x3a
 8256 1e89 01       		.uleb128 0x1
 8257 1e8a 50       		.byte	0x50
 8258 1e8b 02       		.uleb128 0x2
 8259 1e8c 77       		.byte	0x77
 8260 1e8d 00       		.sleb128 0
 8261 1e8e 00       		.byte	0
 8262 1e8f 42       		.uleb128 0x42
 8263 1e90 02020000 		.4byte	.LVL169
 8264 1e94 392F0000 		.4byte	0x2f39
 8265 1e98 A31E0000 		.4byte	0x1ea3
 8266 1e9c 3A       		.uleb128 0x3a
 8267 1e9d 01       		.uleb128 0x1
 8268 1e9e 50       		.byte	0x50
 8269 1e9f 02       		.uleb128 0x2
 8270 1ea0 77       		.byte	0x77
 8271 1ea1 00       		.sleb128 0
 8272 1ea2 00       		.byte	0
 8273 1ea3 4D       		.uleb128 0x4d
 8274 1ea4 16020000 		.4byte	.LVL170
ARM GAS  C:\Users\jo\AppData\Local\Temp\cc67lm3z.s 			page 149


 8275 1ea8 02       		.uleb128 0x2
 8276 1ea9 7A       		.byte	0x7a
 8277 1eaa 00       		.sleb128 0
 8278 1eab BD1E0000 		.4byte	0x1ebd
 8279 1eaf 3A       		.uleb128 0x3a
 8280 1eb0 01       		.uleb128 0x1
 8281 1eb1 51       		.byte	0x51
 8282 1eb2 02       		.uleb128 0x2
 8283 1eb3 09       		.byte	0x9
 8284 1eb4 F6       		.byte	0xf6
 8285 1eb5 3A       		.uleb128 0x3a
 8286 1eb6 01       		.uleb128 0x1
 8287 1eb7 50       		.byte	0x50
 8288 1eb8 03       		.uleb128 0x3
 8289 1eb9 91       		.byte	0x91
 8290 1eba 54       		.sleb128 -44
 8291 1ebb 06       		.byte	0x6
 8292 1ebc 00       		.byte	0
 8293 1ebd 42       		.uleb128 0x42
 8294 1ebe 04040000 		.4byte	.LVL200
 8295 1ec2 862F0000 		.4byte	0x2f86
 8296 1ec6 D71E0000 		.4byte	0x1ed7
 8297 1eca 3A       		.uleb128 0x3a
 8298 1ecb 01       		.uleb128 0x1
 8299 1ecc 53       		.byte	0x53
 8300 1ecd 02       		.uleb128 0x2
 8301 1ece 77       		.byte	0x77
 8302 1ecf 04       		.sleb128 4
 8303 1ed0 3A       		.uleb128 0x3a
 8304 1ed1 01       		.uleb128 0x1
 8305 1ed2 52       		.byte	0x52
 8306 1ed3 02       		.uleb128 0x2
 8307 1ed4 77       		.byte	0x77
 8308 1ed5 00       		.sleb128 0
 8309 1ed6 00       		.byte	0
 8310 1ed7 42       		.uleb128 0x42
 8311 1ed8 1C040000 		.4byte	.LVL201
 8312 1edc 3B130000 		.4byte	0x133b
 8313 1ee0 081F0000 		.4byte	0x1f08
 8314 1ee4 3A       		.uleb128 0x3a
 8315 1ee5 01       		.uleb128 0x1
 8316 1ee6 53       		.byte	0x53
 8317 1ee7 03       		.uleb128 0x3
 8318 1ee8 0A       		.byte	0xa
 8319 1ee9 BE03     		.2byte	0x3be
 8320 1eeb 3A       		.uleb128 0x3a
 8321 1eec 01       		.uleb128 0x1
 8322 1eed 52       		.byte	0x52
 8323 1eee 05       		.uleb128 0x5
 8324 1eef 03       		.byte	0x3
 8325 1ef0 54020000 		.4byte	.LC15
 8326 1ef4 3A       		.uleb128 0x3a
 8327 1ef5 01       		.uleb128 0x1
 8328 1ef6 51       		.byte	0x51
 8329 1ef7 05       		.uleb128 0x5
 8330 1ef8 03       		.byte	0x3
 8331 1ef9 00000000 		.4byte	.LC0
ARM GAS  C:\Users\jo\AppData\Local\Temp\cc67lm3z.s 			page 150


 8332 1efd 3A       		.uleb128 0x3a
 8333 1efe 02       		.uleb128 0x2
 8334 1eff 7D       		.byte	0x7d
 8335 1f00 00       		.sleb128 0
 8336 1f01 05       		.uleb128 0x5
 8337 1f02 03       		.byte	0x3
 8338 1f03 50000000 		.4byte	.LC2
 8339 1f07 00       		.byte	0
 8340 1f08 39       		.uleb128 0x39
 8341 1f09 64040000 		.4byte	.LVL207
 8342 1f0d 3B130000 		.4byte	0x133b
 8343 1f11 3A       		.uleb128 0x3a
 8344 1f12 01       		.uleb128 0x1
 8345 1f13 53       		.byte	0x53
 8346 1f14 03       		.uleb128 0x3
 8347 1f15 0A       		.byte	0xa
 8348 1f16 BA03     		.2byte	0x3ba
 8349 1f18 3A       		.uleb128 0x3a
 8350 1f19 01       		.uleb128 0x1
 8351 1f1a 52       		.byte	0x52
 8352 1f1b 05       		.uleb128 0x5
 8353 1f1c 03       		.byte	0x3
 8354 1f1d 28020000 		.4byte	.LC14
 8355 1f21 3A       		.uleb128 0x3a
 8356 1f22 01       		.uleb128 0x1
 8357 1f23 51       		.byte	0x51
 8358 1f24 05       		.uleb128 0x5
 8359 1f25 03       		.byte	0x3
 8360 1f26 00000000 		.4byte	.LC0
 8361 1f2a 3A       		.uleb128 0x3a
 8362 1f2b 02       		.uleb128 0x2
 8363 1f2c 7D       		.byte	0x7d
 8364 1f2d 00       		.sleb128 0
 8365 1f2e 05       		.uleb128 0x5
 8366 1f2f 03       		.byte	0x3
 8367 1f30 50000000 		.4byte	.LC2
 8368 1f34 00       		.byte	0
 8369 1f35 00       		.byte	0
 8370 1f36 40       		.uleb128 0x40
 8371 1f37 1C110000 		.4byte	0x111c
 8372 1f3b 48020000 		.4byte	.LBB167
 8373 1f3f 08000000 		.4byte	.LBE167-.LBB167
 8374 1f43 01       		.byte	0x1
 8375 1f44 2A03     		.2byte	0x32a
 8376 1f46 671F0000 		.4byte	0x1f67
 8377 1f4a 35       		.uleb128 0x35
 8378 1f4b 29110000 		.4byte	0x1129
 8379 1f4f D30A0000 		.4byte	.LLST55
 8380 1f53 39       		.uleb128 0x39
 8381 1f54 4E020000 		.4byte	.LVL177
 8382 1f58 0B2F0000 		.4byte	0x2f0b
 8383 1f5c 3A       		.uleb128 0x3a
 8384 1f5d 01       		.uleb128 0x1
 8385 1f5e 50       		.byte	0x50
 8386 1f5f 05       		.uleb128 0x5
 8387 1f60 03       		.byte	0x3
 8388 1f61 A0010000 		.4byte	.LC11
ARM GAS  C:\Users\jo\AppData\Local\Temp\cc67lm3z.s 			page 151


 8389 1f65 00       		.byte	0
 8390 1f66 00       		.byte	0
 8391 1f67 40       		.uleb128 0x40
 8392 1f68 1C110000 		.4byte	0x111c
 8393 1f6c 68020000 		.4byte	.LBB169
 8394 1f70 08000000 		.4byte	.LBE169-.LBB169
 8395 1f74 01       		.byte	0x1
 8396 1f75 2B03     		.2byte	0x32b
 8397 1f77 981F0000 		.4byte	0x1f98
 8398 1f7b 35       		.uleb128 0x35
 8399 1f7c 29110000 		.4byte	0x1129
 8400 1f80 EB0A0000 		.4byte	.LLST56
 8401 1f84 39       		.uleb128 0x39
 8402 1f85 6E020000 		.4byte	.LVL180
 8403 1f89 0B2F0000 		.4byte	0x2f0b
 8404 1f8d 3A       		.uleb128 0x3a
 8405 1f8e 01       		.uleb128 0x1
 8406 1f8f 50       		.byte	0x50
 8407 1f90 05       		.uleb128 0x5
 8408 1f91 03       		.byte	0x3
 8409 1f92 CC010000 		.4byte	.LC12
 8410 1f96 00       		.byte	0
 8411 1f97 00       		.byte	0
 8412 1f98 40       		.uleb128 0x40
 8413 1f99 1C110000 		.4byte	0x111c
 8414 1f9d 88020000 		.4byte	.LBB171
 8415 1fa1 06000000 		.4byte	.LBE171-.LBB171
 8416 1fa5 01       		.byte	0x1
 8417 1fa6 2C03     		.2byte	0x32c
 8418 1fa8 C91F0000 		.4byte	0x1fc9
 8419 1fac 35       		.uleb128 0x35
 8420 1fad 29110000 		.4byte	0x1129
 8421 1fb1 030B0000 		.4byte	.LLST57
 8422 1fb5 39       		.uleb128 0x39
 8423 1fb6 8E020000 		.4byte	.LVL183
 8424 1fba 0B2F0000 		.4byte	0x2f0b
 8425 1fbe 3A       		.uleb128 0x3a
 8426 1fbf 01       		.uleb128 0x1
 8427 1fc0 50       		.byte	0x50
 8428 1fc1 05       		.uleb128 0x5
 8429 1fc2 03       		.byte	0x3
 8430 1fc3 F8010000 		.4byte	.LC13
 8431 1fc7 00       		.byte	0
 8432 1fc8 00       		.byte	0
 8433 1fc9 42       		.uleb128 0x42
 8434 1fca 9A000000 		.4byte	.LVL138
 8435 1fce B12F0000 		.4byte	0x2fb1
 8436 1fd2 DD1F0000 		.4byte	0x1fdd
 8437 1fd6 3A       		.uleb128 0x3a
 8438 1fd7 01       		.uleb128 0x1
 8439 1fd8 50       		.byte	0x50
 8440 1fd9 02       		.uleb128 0x2
 8441 1fda 77       		.byte	0x77
 8442 1fdb 00       		.sleb128 0
 8443 1fdc 00       		.byte	0
 8444 1fdd 4E       		.uleb128 0x4e
 8445 1fde 18010000 		.4byte	.LVL143
ARM GAS  C:\Users\jo\AppData\Local\Temp\cc67lm3z.s 			page 152


 8446 1fe2 ED1F0000 		.4byte	0x1fed
 8447 1fe6 3A       		.uleb128 0x3a
 8448 1fe7 01       		.uleb128 0x1
 8449 1fe8 51       		.byte	0x51
 8450 1fe9 02       		.uleb128 0x2
 8451 1fea 77       		.byte	0x77
 8452 1feb 00       		.sleb128 0
 8453 1fec 00       		.byte	0
 8454 1fed 42       		.uleb128 0x42
 8455 1fee 52010000 		.4byte	.LVL150
 8456 1ff2 3B130000 		.4byte	0x133b
 8457 1ff6 1B200000 		.4byte	0x201b
 8458 1ffa 3A       		.uleb128 0x3a
 8459 1ffb 01       		.uleb128 0x1
 8460 1ffc 53       		.byte	0x53
 8461 1ffd 03       		.uleb128 0x3
 8462 1ffe 0A       		.byte	0xa
 8463 1fff EE03     		.2byte	0x3ee
 8464 2001 3A       		.uleb128 0x3a
 8465 2002 01       		.uleb128 0x1
 8466 2003 52       		.byte	0x52
 8467 2004 05       		.uleb128 0x5
 8468 2005 03       		.byte	0x3
 8469 2006 80020000 		.4byte	.LC16
 8470 200a 3A       		.uleb128 0x3a
 8471 200b 01       		.uleb128 0x1
 8472 200c 51       		.byte	0x51
 8473 200d 05       		.uleb128 0x5
 8474 200e 03       		.byte	0x3
 8475 200f 00000000 		.4byte	.LC0
 8476 2013 3A       		.uleb128 0x3a
 8477 2014 02       		.uleb128 0x2
 8478 2015 7D       		.byte	0x7d
 8479 2016 00       		.sleb128 0
 8480 2017 02       		.uleb128 0x2
 8481 2018 77       		.byte	0x77
 8482 2019 00       		.sleb128 0
 8483 201a 00       		.byte	0
 8484 201b 42       		.uleb128 0x42
 8485 201c 2E020000 		.4byte	.LVL174
 8486 2020 4A2F0000 		.4byte	0x2f4a
 8487 2024 2F200000 		.4byte	0x202f
 8488 2028 3A       		.uleb128 0x3a
 8489 2029 01       		.uleb128 0x1
 8490 202a 50       		.byte	0x50
 8491 202b 02       		.uleb128 0x2
 8492 202c 76       		.byte	0x76
 8493 202d 00       		.sleb128 0
 8494 202e 00       		.byte	0
 8495 202f 42       		.uleb128 0x42
 8496 2030 48020000 		.4byte	.LVL176
 8497 2034 3B130000 		.4byte	0x133b
 8498 2038 60200000 		.4byte	0x2060
 8499 203c 3A       		.uleb128 0x3a
 8500 203d 01       		.uleb128 0x1
 8501 203e 53       		.byte	0x53
 8502 203f 03       		.uleb128 0x3
ARM GAS  C:\Users\jo\AppData\Local\Temp\cc67lm3z.s 			page 153


 8503 2040 0A       		.byte	0xa
 8504 2041 2A03     		.2byte	0x32a
 8505 2043 3A       		.uleb128 0x3a
 8506 2044 01       		.uleb128 0x1
 8507 2045 52       		.byte	0x52
 8508 2046 05       		.uleb128 0x5
 8509 2047 03       		.byte	0x3
 8510 2048 A0010000 		.4byte	.LC11
 8511 204c 3A       		.uleb128 0x3a
 8512 204d 01       		.uleb128 0x1
 8513 204e 51       		.byte	0x51
 8514 204f 05       		.uleb128 0x5
 8515 2050 03       		.byte	0x3
 8516 2051 00000000 		.4byte	.LC0
 8517 2055 3A       		.uleb128 0x3a
 8518 2056 02       		.uleb128 0x2
 8519 2057 7D       		.byte	0x7d
 8520 2058 00       		.sleb128 0
 8521 2059 05       		.uleb128 0x5
 8522 205a 03       		.byte	0x3
 8523 205b 50000000 		.4byte	.LC2
 8524 205f 00       		.byte	0
 8525 2060 42       		.uleb128 0x42
 8526 2061 68020000 		.4byte	.LVL179
 8527 2065 3B130000 		.4byte	0x133b
 8528 2069 91200000 		.4byte	0x2091
 8529 206d 3A       		.uleb128 0x3a
 8530 206e 01       		.uleb128 0x1
 8531 206f 53       		.byte	0x53
 8532 2070 03       		.uleb128 0x3
 8533 2071 0A       		.byte	0xa
 8534 2072 2B03     		.2byte	0x32b
 8535 2074 3A       		.uleb128 0x3a
 8536 2075 01       		.uleb128 0x1
 8537 2076 52       		.byte	0x52
 8538 2077 05       		.uleb128 0x5
 8539 2078 03       		.byte	0x3
 8540 2079 CC010000 		.4byte	.LC12
 8541 207d 3A       		.uleb128 0x3a
 8542 207e 01       		.uleb128 0x1
 8543 207f 51       		.byte	0x51
 8544 2080 05       		.uleb128 0x5
 8545 2081 03       		.byte	0x3
 8546 2082 00000000 		.4byte	.LC0
 8547 2086 3A       		.uleb128 0x3a
 8548 2087 02       		.uleb128 0x2
 8549 2088 7D       		.byte	0x7d
 8550 2089 00       		.sleb128 0
 8551 208a 05       		.uleb128 0x5
 8552 208b 03       		.byte	0x3
 8553 208c 50000000 		.4byte	.LC2
 8554 2090 00       		.byte	0
 8555 2091 42       		.uleb128 0x42
 8556 2092 88020000 		.4byte	.LVL182
 8557 2096 3B130000 		.4byte	0x133b
 8558 209a C2200000 		.4byte	0x20c2
 8559 209e 3A       		.uleb128 0x3a
ARM GAS  C:\Users\jo\AppData\Local\Temp\cc67lm3z.s 			page 154


 8560 209f 01       		.uleb128 0x1
 8561 20a0 53       		.byte	0x53
 8562 20a1 03       		.uleb128 0x3
 8563 20a2 0A       		.byte	0xa
 8564 20a3 2C03     		.2byte	0x32c
 8565 20a5 3A       		.uleb128 0x3a
 8566 20a6 01       		.uleb128 0x1
 8567 20a7 52       		.byte	0x52
 8568 20a8 05       		.uleb128 0x5
 8569 20a9 03       		.byte	0x3
 8570 20aa F8010000 		.4byte	.LC13
 8571 20ae 3A       		.uleb128 0x3a
 8572 20af 01       		.uleb128 0x1
 8573 20b0 51       		.byte	0x51
 8574 20b1 05       		.uleb128 0x5
 8575 20b2 03       		.byte	0x3
 8576 20b3 00000000 		.4byte	.LC0
 8577 20b7 3A       		.uleb128 0x3a
 8578 20b8 02       		.uleb128 0x2
 8579 20b9 7D       		.byte	0x7d
 8580 20ba 00       		.sleb128 0
 8581 20bb 05       		.uleb128 0x5
 8582 20bc 03       		.byte	0x3
 8583 20bd 50000000 		.4byte	.LC2
 8584 20c1 00       		.byte	0
 8585 20c2 42       		.uleb128 0x42
 8586 20c3 64030000 		.4byte	.LVL191
 8587 20c7 C32F0000 		.4byte	0x2fc3
 8588 20cb D6200000 		.4byte	0x20d6
 8589 20cf 3A       		.uleb128 0x3a
 8590 20d0 01       		.uleb128 0x1
 8591 20d1 50       		.byte	0x50
 8592 20d2 02       		.uleb128 0x2
 8593 20d3 77       		.byte	0x77
 8594 20d4 00       		.sleb128 0
 8595 20d5 00       		.byte	0
 8596 20d6 39       		.uleb128 0x39
 8597 20d7 E0030000 		.4byte	.LVL198
 8598 20db D42F0000 		.4byte	0x2fd4
 8599 20df 3A       		.uleb128 0x3a
 8600 20e0 01       		.uleb128 0x1
 8601 20e1 50       		.byte	0x50
 8602 20e2 02       		.uleb128 0x2
 8603 20e3 77       		.byte	0x77
 8604 20e4 00       		.sleb128 0
 8605 20e5 00       		.byte	0
 8606 20e6 00       		.byte	0
 8607 20e7 49       		.uleb128 0x49
 8608 20e8 D9020000 		.4byte	.LASF301
 8609 20ec 01       		.byte	0x1
 8610 20ed 0206     		.2byte	0x602
 8611 20ef 00000000 		.4byte	.LFB289
 8612 20f3 E0000000 		.4byte	.LFE289-.LFB289
 8613 20f7 01       		.uleb128 0x1
 8614 20f8 9C       		.byte	0x9c
 8615 20f9 68220000 		.4byte	0x2268
 8616 20fd 3D       		.uleb128 0x3d
ARM GAS  C:\Users\jo\AppData\Local\Temp\cc67lm3z.s 			page 155


 8617 20fe 34050000 		.4byte	.LASF302
 8618 2102 01       		.byte	0x1
 8619 2103 0206     		.2byte	0x602
 8620 2105 68220000 		.4byte	0x2268
 8621 2109 1B0B0000 		.4byte	.LLST58
 8622 210d 2F       		.uleb128 0x2f
 8623 210e 70636200 		.ascii	"pcb\000"
 8624 2112 01       		.byte	0x1
 8625 2113 0206     		.2byte	0x602
 8626 2115 CF0B0000 		.4byte	0xbcf
 8627 2119 600B0000 		.4byte	.LLST59
 8628 211d 40       		.uleb128 0x40
 8629 211e 1C110000 		.4byte	0x111c
 8630 2122 58000000 		.4byte	.LBB177
 8631 2126 06000000 		.4byte	.LBE177-.LBB177
 8632 212a 01       		.byte	0x1
 8633 212b 1106     		.2byte	0x611
 8634 212d 4E210000 		.4byte	0x214e
 8635 2131 35       		.uleb128 0x35
 8636 2132 29110000 		.4byte	0x1129
 8637 2136 940B0000 		.4byte	.LLST60
 8638 213a 39       		.uleb128 0x39
 8639 213b 5E000000 		.4byte	.LVL217
 8640 213f 0B2F0000 		.4byte	0x2f0b
 8641 2143 3A       		.uleb128 0x3a
 8642 2144 01       		.uleb128 0x1
 8643 2145 50       		.byte	0x50
 8644 2146 05       		.uleb128 0x5
 8645 2147 03       		.byte	0x3
 8646 2148 00030000 		.4byte	.LC19
 8647 214c 00       		.byte	0
 8648 214d 00       		.byte	0
 8649 214e 40       		.uleb128 0x40
 8650 214f 1C110000 		.4byte	0x111c
 8651 2153 74000000 		.4byte	.LBB179
 8652 2157 06000000 		.4byte	.LBE179-.LBB179
 8653 215b 01       		.byte	0x1
 8654 215c 1206     		.2byte	0x612
 8655 215e 7F210000 		.4byte	0x217f
 8656 2162 35       		.uleb128 0x35
 8657 2163 29110000 		.4byte	0x1129
 8658 2167 AC0B0000 		.4byte	.LLST61
 8659 216b 39       		.uleb128 0x39
 8660 216c 7A000000 		.4byte	.LVL219
 8661 2170 0B2F0000 		.4byte	0x2f0b
 8662 2174 3A       		.uleb128 0x3a
 8663 2175 01       		.uleb128 0x1
 8664 2176 50       		.byte	0x50
 8665 2177 05       		.uleb128 0x5
 8666 2178 03       		.byte	0x3
 8667 2179 18030000 		.4byte	.LC20
 8668 217d 00       		.byte	0
 8669 217e 00       		.byte	0
 8670 217f 40       		.uleb128 0x40
 8671 2180 1C110000 		.4byte	0x111c
 8672 2184 90000000 		.4byte	.LBB181
 8673 2188 06000000 		.4byte	.LBE181-.LBB181
ARM GAS  C:\Users\jo\AppData\Local\Temp\cc67lm3z.s 			page 156


 8674 218c 01       		.byte	0x1
 8675 218d 1406     		.2byte	0x614
 8676 218f B0210000 		.4byte	0x21b0
 8677 2193 35       		.uleb128 0x35
 8678 2194 29110000 		.4byte	0x1129
 8679 2198 C40B0000 		.4byte	.LLST62
 8680 219c 39       		.uleb128 0x39
 8681 219d 96000000 		.4byte	.LVL221
 8682 21a1 0B2F0000 		.4byte	0x2f0b
 8683 21a5 3A       		.uleb128 0x3a
 8684 21a6 01       		.uleb128 0x1
 8685 21a7 50       		.byte	0x50
 8686 21a8 05       		.uleb128 0x5
 8687 21a9 03       		.byte	0x3
 8688 21aa 34030000 		.4byte	.LC21
 8689 21ae 00       		.byte	0
 8690 21af 00       		.byte	0
 8691 21b0 42       		.uleb128 0x42
 8692 21b1 32000000 		.4byte	.LVL215
 8693 21b5 90110000 		.4byte	0x1190
 8694 21b9 C4210000 		.4byte	0x21c4
 8695 21bd 3A       		.uleb128 0x3a
 8696 21be 01       		.uleb128 0x1
 8697 21bf 50       		.byte	0x50
 8698 21c0 02       		.uleb128 0x2
 8699 21c1 74       		.byte	0x74
 8700 21c2 00       		.sleb128 0
 8701 21c3 00       		.byte	0
 8702 21c4 42       		.uleb128 0x42
 8703 21c5 58000000 		.4byte	.LVL216
 8704 21c9 3B130000 		.4byte	0x133b
 8705 21cd F5210000 		.4byte	0x21f5
 8706 21d1 3A       		.uleb128 0x3a
 8707 21d2 01       		.uleb128 0x1
 8708 21d3 53       		.byte	0x53
 8709 21d4 03       		.uleb128 0x3
 8710 21d5 0A       		.byte	0xa
 8711 21d6 1106     		.2byte	0x611
 8712 21d8 3A       		.uleb128 0x3a
 8713 21d9 01       		.uleb128 0x1
 8714 21da 52       		.byte	0x52
 8715 21db 05       		.uleb128 0x5
 8716 21dc 03       		.byte	0x3
 8717 21dd 00030000 		.4byte	.LC19
 8718 21e1 3A       		.uleb128 0x3a
 8719 21e2 01       		.uleb128 0x1
 8720 21e3 51       		.byte	0x51
 8721 21e4 05       		.uleb128 0x5
 8722 21e5 03       		.byte	0x3
 8723 21e6 00000000 		.4byte	.LC0
 8724 21ea 3A       		.uleb128 0x3a
 8725 21eb 02       		.uleb128 0x2
 8726 21ec 7D       		.byte	0x7d
 8727 21ed 00       		.sleb128 0
 8728 21ee 05       		.uleb128 0x5
 8729 21ef 03       		.byte	0x3
 8730 21f0 50000000 		.4byte	.LC2
ARM GAS  C:\Users\jo\AppData\Local\Temp\cc67lm3z.s 			page 157


 8731 21f4 00       		.byte	0
 8732 21f5 42       		.uleb128 0x42
 8733 21f6 74000000 		.4byte	.LVL218
 8734 21fa 3B130000 		.4byte	0x133b
 8735 21fe 26220000 		.4byte	0x2226
 8736 2202 3A       		.uleb128 0x3a
 8737 2203 01       		.uleb128 0x1
 8738 2204 53       		.byte	0x53
 8739 2205 03       		.uleb128 0x3
 8740 2206 0A       		.byte	0xa
 8741 2207 1206     		.2byte	0x612
 8742 2209 3A       		.uleb128 0x3a
 8743 220a 01       		.uleb128 0x1
 8744 220b 52       		.byte	0x52
 8745 220c 05       		.uleb128 0x5
 8746 220d 03       		.byte	0x3
 8747 220e 18030000 		.4byte	.LC20
 8748 2212 3A       		.uleb128 0x3a
 8749 2213 01       		.uleb128 0x1
 8750 2214 51       		.byte	0x51
 8751 2215 05       		.uleb128 0x5
 8752 2216 03       		.byte	0x3
 8753 2217 00000000 		.4byte	.LC0
 8754 221b 3A       		.uleb128 0x3a
 8755 221c 02       		.uleb128 0x2
 8756 221d 7D       		.byte	0x7d
 8757 221e 00       		.sleb128 0
 8758 221f 05       		.uleb128 0x5
 8759 2220 03       		.byte	0x3
 8760 2221 50000000 		.4byte	.LC2
 8761 2225 00       		.byte	0
 8762 2226 42       		.uleb128 0x42
 8763 2227 90000000 		.4byte	.LVL220
 8764 222b 3B130000 		.4byte	0x133b
 8765 222f 57220000 		.4byte	0x2257
 8766 2233 3A       		.uleb128 0x3a
 8767 2234 01       		.uleb128 0x1
 8768 2235 53       		.byte	0x53
 8769 2236 03       		.uleb128 0x3
 8770 2237 0A       		.byte	0xa
 8771 2238 1406     		.2byte	0x614
 8772 223a 3A       		.uleb128 0x3a
 8773 223b 01       		.uleb128 0x1
 8774 223c 52       		.byte	0x52
 8775 223d 05       		.uleb128 0x5
 8776 223e 03       		.byte	0x3
 8777 223f 34030000 		.4byte	.LC21
 8778 2243 3A       		.uleb128 0x3a
 8779 2244 01       		.uleb128 0x1
 8780 2245 51       		.byte	0x51
 8781 2246 05       		.uleb128 0x5
 8782 2247 03       		.byte	0x3
 8783 2248 00000000 		.4byte	.LC0
 8784 224c 3A       		.uleb128 0x3a
 8785 224d 02       		.uleb128 0x2
 8786 224e 7D       		.byte	0x7d
 8787 224f 00       		.sleb128 0
ARM GAS  C:\Users\jo\AppData\Local\Temp\cc67lm3z.s 			page 158


 8788 2250 05       		.uleb128 0x5
 8789 2251 03       		.byte	0x3
 8790 2252 50000000 		.4byte	.LC2
 8791 2256 00       		.byte	0
 8792 2257 39       		.uleb128 0x39
 8793 2258 B2000000 		.4byte	.LVL224
 8794 225c 4A2F0000 		.4byte	0x2f4a
 8795 2260 3A       		.uleb128 0x3a
 8796 2261 01       		.uleb128 0x1
 8797 2262 50       		.byte	0x50
 8798 2263 02       		.uleb128 0x2
 8799 2264 74       		.byte	0x74
 8800 2265 00       		.sleb128 0
 8801 2266 00       		.byte	0
 8802 2267 00       		.byte	0
 8803 2268 0B       		.uleb128 0xb
 8804 2269 04       		.byte	0x4
 8805 226a CF0B0000 		.4byte	0xbcf
 8806 226e 4F       		.uleb128 0x4f
 8807 226f 09090000 		.4byte	.LASF303
 8808 2273 01       		.byte	0x1
 8809 2274 AA       		.byte	0xaa
 8810 2275 DF090000 		.4byte	0x9df
 8811 2279 00000000 		.4byte	.LFB258
 8812 227d 8C010000 		.4byte	.LFE258-.LFB258
 8813 2281 01       		.uleb128 0x1
 8814 2282 9C       		.byte	0x9c
 8815 2283 FE230000 		.4byte	0x23fe
 8816 2287 50       		.uleb128 0x50
 8817 2288 70636200 		.ascii	"pcb\000"
 8818 228c 01       		.byte	0x1
 8819 228d AA       		.byte	0xaa
 8820 228e CF0B0000 		.4byte	0xbcf
 8821 2292 DC0B0000 		.4byte	.LLST63
 8822 2296 51       		.uleb128 0x51
 8823 2297 B5020000 		.4byte	.LASF304
 8824 229b 01       		.byte	0x1
 8825 229c AA       		.byte	0xaa
 8826 229d 1C090000 		.4byte	0x91c
 8827 22a1 8B0C0000 		.4byte	.LLST64
 8828 22a5 52       		.uleb128 0x52
 8829 22a6 65727200 		.ascii	"err\000"
 8830 22aa 01       		.byte	0x1
 8831 22ab AC       		.byte	0xac
 8832 22ac DF090000 		.4byte	0x9df
 8833 22b0 DE0C0000 		.4byte	.LLST65
 8834 22b4 53       		.uleb128 0x53
 8835 22b5 1C110000 		.4byte	0x111c
 8836 22b9 F2000000 		.4byte	.LBB183
 8837 22bd 0A000000 		.4byte	.LBE183-.LBB183
 8838 22c1 01       		.byte	0x1
 8839 22c2 B2       		.byte	0xb2
 8840 22c3 E4220000 		.4byte	0x22e4
 8841 22c7 35       		.uleb128 0x35
 8842 22c8 29110000 		.4byte	0x1129
 8843 22cc 2C0D0000 		.4byte	.LLST66
 8844 22d0 39       		.uleb128 0x39
ARM GAS  C:\Users\jo\AppData\Local\Temp\cc67lm3z.s 			page 159


 8845 22d1 F8000000 		.4byte	.LVL253
 8846 22d5 0B2F0000 		.4byte	0x2f0b
 8847 22d9 3A       		.uleb128 0x3a
 8848 22da 01       		.uleb128 0x1
 8849 22db 50       		.byte	0x50
 8850 22dc 05       		.uleb128 0x5
 8851 22dd 03       		.byte	0x3
 8852 22de 4C030000 		.4byte	.LC22
 8853 22e2 00       		.byte	0
 8854 22e3 00       		.byte	0
 8855 22e4 42       		.uleb128 0x42
 8856 22e5 28000000 		.4byte	.LVL230
 8857 22e9 E62F0000 		.4byte	0x2fe6
 8858 22ed F8220000 		.4byte	0x22f8
 8859 22f1 3A       		.uleb128 0x3a
 8860 22f2 01       		.uleb128 0x1
 8861 22f3 50       		.byte	0x50
 8862 22f4 02       		.uleb128 0x2
 8863 22f5 74       		.byte	0x74
 8864 22f6 00       		.sleb128 0
 8865 22f7 00       		.byte	0
 8866 22f8 42       		.uleb128 0x42
 8867 22f9 34000000 		.4byte	.LVL232
 8868 22fd 4A2F0000 		.4byte	0x2f4a
 8869 2301 0C230000 		.4byte	0x230c
 8870 2305 3A       		.uleb128 0x3a
 8871 2306 01       		.uleb128 0x1
 8872 2307 50       		.byte	0x50
 8873 2308 02       		.uleb128 0x2
 8874 2309 74       		.byte	0x74
 8875 230a 00       		.sleb128 0
 8876 230b 00       		.byte	0
 8877 230c 42       		.uleb128 0x42
 8878 230d 42000000 		.4byte	.LVL235
 8879 2311 E62F0000 		.4byte	0x2fe6
 8880 2315 20230000 		.4byte	0x2320
 8881 2319 3A       		.uleb128 0x3a
 8882 231a 01       		.uleb128 0x1
 8883 231b 50       		.byte	0x50
 8884 231c 02       		.uleb128 0x2
 8885 231d 74       		.byte	0x74
 8886 231e 00       		.sleb128 0
 8887 231f 00       		.byte	0
 8888 2320 42       		.uleb128 0x42
 8889 2321 6C000000 		.4byte	.LVL239
 8890 2325 862F0000 		.4byte	0x2f86
 8891 2329 3A230000 		.4byte	0x233a
 8892 232d 3A       		.uleb128 0x3a
 8893 232e 01       		.uleb128 0x1
 8894 232f 53       		.byte	0x53
 8895 2330 02       		.uleb128 0x2
 8896 2331 74       		.byte	0x74
 8897 2332 04       		.sleb128 4
 8898 2333 3A       		.uleb128 0x3a
 8899 2334 01       		.uleb128 0x1
 8900 2335 52       		.byte	0x52
 8901 2336 02       		.uleb128 0x2
ARM GAS  C:\Users\jo\AppData\Local\Temp\cc67lm3z.s 			page 160


 8902 2337 74       		.byte	0x74
 8903 2338 00       		.sleb128 0
 8904 2339 00       		.byte	0
 8905 233a 42       		.uleb128 0x42
 8906 233b 72000000 		.4byte	.LVL240
 8907 233f 90110000 		.4byte	0x1190
 8908 2343 4E230000 		.4byte	0x234e
 8909 2347 3A       		.uleb128 0x3a
 8910 2348 01       		.uleb128 0x1
 8911 2349 50       		.byte	0x50
 8912 234a 02       		.uleb128 0x2
 8913 234b 74       		.byte	0x74
 8914 234c 00       		.sleb128 0
 8915 234d 00       		.byte	0
 8916 234e 42       		.uleb128 0x42
 8917 234f C4000000 		.4byte	.LVL244
 8918 2353 E7200000 		.4byte	0x20e7
 8919 2357 6B230000 		.4byte	0x236b
 8920 235b 3A       		.uleb128 0x3a
 8921 235c 01       		.uleb128 0x1
 8922 235d 51       		.byte	0x51
 8923 235e 02       		.uleb128 0x2
 8924 235f 74       		.byte	0x74
 8925 2360 00       		.sleb128 0
 8926 2361 3A       		.uleb128 0x3a
 8927 2362 01       		.uleb128 0x1
 8928 2363 50       		.byte	0x50
 8929 2364 05       		.uleb128 0x5
 8930 2365 03       		.byte	0x3
 8931 2366 00000000 		.4byte	.LANCHOR4
 8932 236a 00       		.byte	0
 8933 236b 42       		.uleb128 0x42
 8934 236c CA000000 		.4byte	.LVL245
 8935 2370 392F0000 		.4byte	0x2f39
 8936 2374 7F230000 		.4byte	0x237f
 8937 2378 3A       		.uleb128 0x3a
 8938 2379 01       		.uleb128 0x1
 8939 237a 50       		.byte	0x50
 8940 237b 02       		.uleb128 0x2
 8941 237c 74       		.byte	0x74
 8942 237d 00       		.sleb128 0
 8943 237e 00       		.byte	0
 8944 237f 42       		.uleb128 0x42
 8945 2380 D4000000 		.4byte	.LVL248
 8946 2384 E7200000 		.4byte	0x20e7
 8947 2388 9C230000 		.4byte	0x239c
 8948 238c 3A       		.uleb128 0x3a
 8949 238d 01       		.uleb128 0x1
 8950 238e 51       		.byte	0x51
 8951 238f 02       		.uleb128 0x2
 8952 2390 74       		.byte	0x74
 8953 2391 00       		.sleb128 0
 8954 2392 3A       		.uleb128 0x3a
 8955 2393 01       		.uleb128 0x1
 8956 2394 50       		.byte	0x50
 8957 2395 05       		.uleb128 0x5
 8958 2396 03       		.byte	0x3
ARM GAS  C:\Users\jo\AppData\Local\Temp\cc67lm3z.s 			page 161


 8959 2397 00000000 		.4byte	.LANCHOR7
 8960 239b 00       		.byte	0
 8961 239c 42       		.uleb128 0x42
 8962 239d E0000000 		.4byte	.LVL249
 8963 23a1 392F0000 		.4byte	0x2f39
 8964 23a5 B0230000 		.4byte	0x23b0
 8965 23a9 3A       		.uleb128 0x3a
 8966 23aa 01       		.uleb128 0x1
 8967 23ab 50       		.byte	0x50
 8968 23ac 02       		.uleb128 0x2
 8969 23ad 74       		.byte	0x74
 8970 23ae 00       		.sleb128 0
 8971 23af 00       		.byte	0
 8972 23b0 42       		.uleb128 0x42
 8973 23b1 F2000000 		.4byte	.LVL252
 8974 23b5 3B130000 		.4byte	0x133b
 8975 23b9 E0230000 		.4byte	0x23e0
 8976 23bd 3A       		.uleb128 0x3a
 8977 23be 01       		.uleb128 0x1
 8978 23bf 53       		.byte	0x53
 8979 23c0 02       		.uleb128 0x2
 8980 23c1 08       		.byte	0x8
 8981 23c2 B2       		.byte	0xb2
 8982 23c3 3A       		.uleb128 0x3a
 8983 23c4 01       		.uleb128 0x1
 8984 23c5 52       		.byte	0x52
 8985 23c6 05       		.uleb128 0x5
 8986 23c7 03       		.byte	0x3
 8987 23c8 4C030000 		.4byte	.LC22
 8988 23cc 3A       		.uleb128 0x3a
 8989 23cd 01       		.uleb128 0x1
 8990 23ce 51       		.byte	0x51
 8991 23cf 05       		.uleb128 0x5
 8992 23d0 03       		.byte	0x3
 8993 23d1 00000000 		.4byte	.LC0
 8994 23d5 3A       		.uleb128 0x3a
 8995 23d6 02       		.uleb128 0x2
 8996 23d7 7D       		.byte	0x7d
 8997 23d8 00       		.sleb128 0
 8998 23d9 05       		.uleb128 0x5
 8999 23da 03       		.byte	0x3
 9000 23db 50000000 		.4byte	.LC2
 9001 23df 00       		.byte	0
 9002 23e0 42       		.uleb128 0x42
 9003 23e1 16010000 		.4byte	.LVL255
 9004 23e5 392F0000 		.4byte	0x2f39
 9005 23e9 F4230000 		.4byte	0x23f4
 9006 23ed 3A       		.uleb128 0x3a
 9007 23ee 01       		.uleb128 0x1
 9008 23ef 50       		.byte	0x50
 9009 23f0 02       		.uleb128 0x2
 9010 23f1 74       		.byte	0x74
 9011 23f2 00       		.sleb128 0
 9012 23f3 00       		.byte	0
 9013 23f4 41       		.uleb128 0x41
 9014 23f5 32010000 		.4byte	.LVL257
 9015 23f9 1C2F0000 		.4byte	0x2f1c
ARM GAS  C:\Users\jo\AppData\Local\Temp\cc67lm3z.s 			page 162


 9016 23fd 00       		.byte	0
 9017 23fe 3C       		.uleb128 0x3c
 9018 23ff D6030000 		.4byte	.LASF305
 9019 2403 01       		.byte	0x1
 9020 2404 1D01     		.2byte	0x11d
 9021 2406 DF090000 		.4byte	0x9df
 9022 240a 00000000 		.4byte	.LFB259
 9023 240e 14000000 		.4byte	.LFE259-.LFB259
 9024 2412 01       		.uleb128 0x1
 9025 2413 9C       		.byte	0x9c
 9026 2414 38240000 		.4byte	0x2438
 9027 2418 2F       		.uleb128 0x2f
 9028 2419 70636200 		.ascii	"pcb\000"
 9029 241d 01       		.byte	0x1
 9030 241e 1D01     		.2byte	0x11d
 9031 2420 CF0B0000 		.4byte	0xbcf
 9032 2424 440D0000 		.4byte	.LLST67
 9033 2428 48       		.uleb128 0x48
 9034 2429 14000000 		.4byte	.LVL263
 9035 242d 6E220000 		.4byte	0x226e
 9036 2431 3A       		.uleb128 0x3a
 9037 2432 01       		.uleb128 0x1
 9038 2433 51       		.byte	0x51
 9039 2434 01       		.uleb128 0x1
 9040 2435 31       		.byte	0x31
 9041 2436 00       		.byte	0
 9042 2437 00       		.byte	0
 9043 2438 34       		.uleb128 0x34
 9044 2439 AA110000 		.4byte	0x11aa
 9045 243d 00000000 		.4byte	.LFB277
 9046 2441 24000000 		.4byte	.LFE277-.LFB277
 9047 2445 01       		.uleb128 0x1
 9048 2446 9C       		.byte	0x9c
 9049 2447 D1240000 		.4byte	0x24d1
 9050 244b 35       		.uleb128 0x35
 9051 244c BB110000 		.4byte	0x11bb
 9052 2450 650D0000 		.4byte	.LLST68
 9053 2454 35       		.uleb128 0x35
 9054 2455 C7110000 		.4byte	0x11c7
 9055 2459 B80D0000 		.4byte	.LLST69
 9056 245d 35       		.uleb128 0x35
 9057 245e D3110000 		.4byte	0x11d3
 9058 2462 FD0D0000 		.4byte	.LLST70
 9059 2466 35       		.uleb128 0x35
 9060 2467 DD110000 		.4byte	0x11dd
 9061 246b 340E0000 		.4byte	.LLST71
 9062 246f 46       		.uleb128 0x46
 9063 2470 78000000 		.4byte	.Ldebug_ranges0+0x78
 9064 2474 AB240000 		.4byte	0x24ab
 9065 2478 35       		.uleb128 0x35
 9066 2479 BB110000 		.4byte	0x11bb
 9067 247d 6E0E0000 		.4byte	.LLST72
 9068 2481 54       		.uleb128 0x54
 9069 2482 D3110000 		.4byte	0x11d3
 9070 2486 00       		.byte	0
 9071 2487 35       		.uleb128 0x35
 9072 2488 DD110000 		.4byte	0x11dd
ARM GAS  C:\Users\jo\AppData\Local\Temp\cc67lm3z.s 			page 163


 9073 248c A80E0000 		.4byte	.LLST73
 9074 2490 35       		.uleb128 0x35
 9075 2491 C7110000 		.4byte	0x11c7
 9076 2495 C90E0000 		.4byte	.LLST74
 9077 2499 48       		.uleb128 0x48
 9078 249a 24000000 		.4byte	.LVL273
 9079 249e FE230000 		.4byte	0x23fe
 9080 24a2 3A       		.uleb128 0x3a
 9081 24a3 01       		.uleb128 0x1
 9082 24a4 50       		.byte	0x50
 9083 24a5 03       		.uleb128 0x3
 9084 24a6 F3       		.byte	0xf3
 9085 24a7 01       		.uleb128 0x1
 9086 24a8 51       		.byte	0x51
 9087 24a9 00       		.byte	0
 9088 24aa 00       		.byte	0
 9089 24ab 42       		.uleb128 0x42
 9090 24ac 0E000000 		.4byte	.LVL267
 9091 24b0 36110000 		.4byte	0x1136
 9092 24b4 C0240000 		.4byte	0x24c0
 9093 24b8 3A       		.uleb128 0x3a
 9094 24b9 01       		.uleb128 0x1
 9095 24ba 50       		.byte	0x50
 9096 24bb 03       		.uleb128 0x3
 9097 24bc F3       		.byte	0xf3
 9098 24bd 01       		.uleb128 0x1
 9099 24be 51       		.byte	0x51
 9100 24bf 00       		.byte	0
 9101 24c0 39       		.uleb128 0x39
 9102 24c1 14000000 		.4byte	.LVL268
 9103 24c5 602F0000 		.4byte	0x2f60
 9104 24c9 3A       		.uleb128 0x3a
 9105 24ca 01       		.uleb128 0x1
 9106 24cb 50       		.byte	0x50
 9107 24cc 02       		.uleb128 0x2
 9108 24cd 74       		.byte	0x74
 9109 24ce 00       		.sleb128 0
 9110 24cf 00       		.byte	0
 9111 24d0 00       		.byte	0
 9112 24d1 34       		.uleb128 0x34
 9113 24d2 EA110000 		.4byte	0x11ea
 9114 24d6 00000000 		.4byte	.LFB272
 9115 24da 68000000 		.4byte	.LFE272-.LFB272
 9116 24de 01       		.uleb128 0x1
 9117 24df 9C       		.byte	0x9c
 9118 24e0 8C250000 		.4byte	0x258c
 9119 24e4 35       		.uleb128 0x35
 9120 24e5 FB110000 		.4byte	0x11fb
 9121 24e9 EA0E0000 		.4byte	.LLST75
 9122 24ed 45       		.uleb128 0x45
 9123 24ee 07120000 		.4byte	0x1207
 9124 24f2 1E0F0000 		.4byte	.LLST76
 9125 24f6 37       		.uleb128 0x37
 9126 24f7 13120000 		.4byte	0x1213
 9127 24fb 01       		.uleb128 0x1
 9128 24fc 57       		.byte	0x57
 9129 24fd 45       		.uleb128 0x45
ARM GAS  C:\Users\jo\AppData\Local\Temp\cc67lm3z.s 			page 164


 9130 24fe 1F120000 		.4byte	0x121f
 9131 2502 540F0000 		.4byte	.LLST77
 9132 2506 46       		.uleb128 0x46
 9133 2507 90000000 		.4byte	.Ldebug_ranges0+0x90
 9134 250b 4B250000 		.4byte	0x254b
 9135 250f 35       		.uleb128 0x35
 9136 2510 FB110000 		.4byte	0x11fb
 9137 2514 7D0F0000 		.4byte	.LLST78
 9138 2518 43       		.uleb128 0x43
 9139 2519 90000000 		.4byte	.Ldebug_ranges0+0x90
 9140 251d 45       		.uleb128 0x45
 9141 251e 07120000 		.4byte	0x1207
 9142 2522 900F0000 		.4byte	.LLST79
 9143 2526 47       		.uleb128 0x47
 9144 2527 13120000 		.4byte	0x1213
 9145 252b 47       		.uleb128 0x47
 9146 252c 1F120000 		.4byte	0x121f
 9147 2530 55       		.uleb128 0x55
 9148 2531 3E000000 		.4byte	.LVL281
 9149 2535 02       		.uleb128 0x2
 9150 2536 75       		.byte	0x75
 9151 2537 00       		.sleb128 0
 9152 2538 3A       		.uleb128 0x3a
 9153 2539 01       		.uleb128 0x1
 9154 253a 53       		.byte	0x53
 9155 253b 01       		.uleb128 0x1
 9156 253c 30       		.byte	0x30
 9157 253d 3A       		.uleb128 0x3a
 9158 253e 01       		.uleb128 0x1
 9159 253f 52       		.byte	0x52
 9160 2540 01       		.uleb128 0x1
 9161 2541 30       		.byte	0x30
 9162 2542 3A       		.uleb128 0x3a
 9163 2543 01       		.uleb128 0x1
 9164 2544 51       		.byte	0x51
 9165 2545 02       		.uleb128 0x2
 9166 2546 74       		.byte	0x74
 9167 2547 00       		.sleb128 0
 9168 2548 00       		.byte	0
 9169 2549 00       		.byte	0
 9170 254a 00       		.byte	0
 9171 254b 4D       		.uleb128 0x4d
 9172 254c 1A000000 		.4byte	.LVL277
 9173 2550 02       		.uleb128 0x2
 9174 2551 76       		.byte	0x76
 9175 2552 00       		.sleb128 0
 9176 2553 69250000 		.4byte	0x2569
 9177 2557 3A       		.uleb128 0x3a
 9178 2558 01       		.uleb128 0x1
 9179 2559 53       		.byte	0x53
 9180 255a 01       		.uleb128 0x1
 9181 255b 30       		.byte	0x30
 9182 255c 3A       		.uleb128 0x3a
 9183 255d 01       		.uleb128 0x1
 9184 255e 52       		.byte	0x52
 9185 255f 02       		.uleb128 0x2
 9186 2560 75       		.byte	0x75
ARM GAS  C:\Users\jo\AppData\Local\Temp\cc67lm3z.s 			page 165


 9187 2561 00       		.sleb128 0
 9188 2562 3A       		.uleb128 0x3a
 9189 2563 01       		.uleb128 0x1
 9190 2564 51       		.byte	0x51
 9191 2565 02       		.uleb128 0x2
 9192 2566 74       		.byte	0x74
 9193 2567 00       		.sleb128 0
 9194 2568 00       		.byte	0
 9195 2569 39       		.uleb128 0x39
 9196 256a 62000000 		.4byte	.LVL289
 9197 256e AA110000 		.4byte	0x11aa
 9198 2572 3A       		.uleb128 0x3a
 9199 2573 01       		.uleb128 0x1
 9200 2574 53       		.byte	0x53
 9201 2575 02       		.uleb128 0x2
 9202 2576 76       		.byte	0x76
 9203 2577 00       		.sleb128 0
 9204 2578 3A       		.uleb128 0x3a
 9205 2579 01       		.uleb128 0x1
 9206 257a 52       		.byte	0x52
 9207 257b 02       		.uleb128 0x2
 9208 257c 75       		.byte	0x75
 9209 257d 00       		.sleb128 0
 9210 257e 3A       		.uleb128 0x3a
 9211 257f 01       		.uleb128 0x1
 9212 2580 51       		.byte	0x51
 9213 2581 02       		.uleb128 0x2
 9214 2582 74       		.byte	0x74
 9215 2583 00       		.sleb128 0
 9216 2584 3A       		.uleb128 0x3a
 9217 2585 01       		.uleb128 0x1
 9218 2586 50       		.byte	0x50
 9219 2587 02       		.uleb128 0x2
 9220 2588 76       		.byte	0x76
 9221 2589 00       		.sleb128 0
 9222 258a 00       		.byte	0
 9223 258b 00       		.byte	0
 9224 258c 49       		.uleb128 0x49
 9225 258d 70080000 		.4byte	.LASF306
 9226 2591 01       		.byte	0x1
 9227 2592 1604     		.2byte	0x416
 9228 2594 00000000 		.4byte	.LFB271
 9229 2598 70000000 		.4byte	.LFE271-.LFB271
 9230 259c 01       		.uleb128 0x1
 9231 259d 9C       		.byte	0x9c
 9232 259e EA250000 		.4byte	0x25ea
 9233 25a2 28       		.uleb128 0x28
 9234 25a3 70636200 		.ascii	"pcb\000"
 9235 25a7 01       		.byte	0x1
 9236 25a8 1804     		.2byte	0x418
 9237 25aa CF0B0000 		.4byte	0xbcf
 9238 25ae 33       		.uleb128 0x33
 9239 25af FF0E0000 		.4byte	.LASF308
 9240 25b3 01       		.byte	0x1
 9241 25b4 1C04     		.2byte	0x41c
 9242 25b6 14000000 		.4byte	.L424
 9243 25ba 43       		.uleb128 0x43
ARM GAS  C:\Users\jo\AppData\Local\Temp\cc67lm3z.s 			page 166


 9244 25bb A8000000 		.4byte	.Ldebug_ranges0+0xa8
 9245 25bf 3F       		.uleb128 0x3f
 9246 25c0 4F010000 		.4byte	.LASF164
 9247 25c4 01       		.byte	0x1
 9248 25c5 2104     		.2byte	0x421
 9249 25c7 CF0B0000 		.4byte	0xbcf
 9250 25cb A30F0000 		.4byte	.LLST80
 9251 25cf 41       		.uleb128 0x41
 9252 25d0 44000000 		.4byte	.LVL293
 9253 25d4 EA110000 		.4byte	0x11ea
 9254 25d8 39       		.uleb128 0x39
 9255 25d9 5A000000 		.4byte	.LVL295
 9256 25dd 4A2F0000 		.4byte	0x2f4a
 9257 25e1 3A       		.uleb128 0x3a
 9258 25e2 01       		.uleb128 0x1
 9259 25e3 50       		.byte	0x50
 9260 25e4 02       		.uleb128 0x2
 9261 25e5 74       		.byte	0x74
 9262 25e6 00       		.sleb128 0
 9263 25e7 00       		.byte	0
 9264 25e8 00       		.byte	0
 9265 25e9 00       		.byte	0
 9266 25ea 56       		.uleb128 0x56
 9267 25eb BD0C0000 		.4byte	.LASF309
 9268 25ef 01       		.byte	0x1
 9269 25f0 8D       		.byte	0x8d
 9270 25f1 00000000 		.4byte	.LFB257
 9271 25f5 24000000 		.4byte	.LFE257-.LFB257
 9272 25f9 01       		.uleb128 0x1
 9273 25fa 9C       		.byte	0x9c
 9274 25fb 12260000 		.4byte	0x2612
 9275 25ff 41       		.uleb128 0x41
 9276 2600 06000000 		.4byte	.LVL296
 9277 2604 8C250000 		.4byte	0x258c
 9278 2608 57       		.uleb128 0x57
 9279 2609 1E000000 		.4byte	.LVL297
 9280 260d 071C0000 		.4byte	0x1c07
 9281 2611 00       		.byte	0
 9282 2612 3C       		.uleb128 0x3c
 9283 2613 64040000 		.4byte	.LASF310
 9284 2617 01       		.byte	0x1
 9285 2618 3901     		.2byte	0x139
 9286 261a DF090000 		.4byte	0x9df
 9287 261e 00000000 		.4byte	.LFB260
 9288 2622 56000000 		.4byte	.LFE260-.LFB260
 9289 2626 01       		.uleb128 0x1
 9290 2627 9C       		.byte	0x9c
 9291 2628 7E260000 		.4byte	0x267e
 9292 262c 2F       		.uleb128 0x2f
 9293 262d 70636200 		.ascii	"pcb\000"
 9294 2631 01       		.byte	0x1
 9295 2632 3901     		.2byte	0x139
 9296 2634 CF0B0000 		.4byte	0xbcf
 9297 2638 B60F0000 		.4byte	.LLST81
 9298 263c 3D       		.uleb128 0x3d
 9299 263d 30100000 		.4byte	.LASF311
 9300 2641 01       		.byte	0x1
ARM GAS  C:\Users\jo\AppData\Local\Temp\cc67lm3z.s 			page 167


 9301 2642 3901     		.2byte	0x139
 9302 2644 25000000 		.4byte	0x25
 9303 2648 1C100000 		.4byte	.LLST82
 9304 264c 3D       		.uleb128 0x3d
 9305 264d D6010000 		.4byte	.LASF312
 9306 2651 01       		.byte	0x1
 9307 2652 3901     		.2byte	0x139
 9308 2654 25000000 		.4byte	0x25
 9309 2658 7A100000 		.4byte	.LLST83
 9310 265c 41       		.uleb128 0x41
 9311 265d 20000000 		.4byte	.LVL300
 9312 2661 602F0000 		.4byte	0x2f60
 9313 2665 57       		.uleb128 0x57
 9314 2666 48000000 		.4byte	.LVL304
 9315 266a 6E220000 		.4byte	0x226e
 9316 266e 48       		.uleb128 0x48
 9317 266f 52000000 		.4byte	.LVL306
 9318 2673 6E220000 		.4byte	0x226e
 9319 2677 3A       		.uleb128 0x3a
 9320 2678 01       		.uleb128 0x1
 9321 2679 51       		.byte	0x51
 9322 267a 01       		.uleb128 0x1
 9323 267b 31       		.byte	0x31
 9324 267c 00       		.byte	0
 9325 267d 00       		.byte	0
 9326 267e 49       		.uleb128 0x49
 9327 267f C90F0000 		.4byte	.LASF313
 9328 2683 01       		.byte	0x1
 9329 2684 6501     		.2byte	0x165
 9330 2686 00000000 		.4byte	.LFB261
 9331 268a F0000000 		.4byte	.LFE261-.LFB261
 9332 268e 01       		.uleb128 0x1
 9333 268f 9C       		.byte	0x9c
 9334 2690 B1280000 		.4byte	0x28b1
 9335 2694 2F       		.uleb128 0x2f
 9336 2695 70636200 		.ascii	"pcb\000"
 9337 2699 01       		.byte	0x1
 9338 269a 6501     		.2byte	0x165
 9339 269c CF0B0000 		.4byte	0xbcf
 9340 26a0 D8100000 		.4byte	.LLST84
 9341 26a4 3D       		.uleb128 0x3d
 9342 26a5 990C0000 		.4byte	.LASF314
 9343 26a9 01       		.byte	0x1
 9344 26aa 6501     		.2byte	0x165
 9345 26ac 25000000 		.4byte	0x25
 9346 26b0 3E110000 		.4byte	.LLST85
 9347 26b4 3F       		.uleb128 0x3f
 9348 26b5 F8020000 		.4byte	.LASF251
 9349 26b9 01       		.byte	0x1
 9350 26ba 6701     		.2byte	0x167
 9351 26bc 48090000 		.4byte	0x948
 9352 26c0 99110000 		.4byte	.LLST86
 9353 26c4 3F       		.uleb128 0x3f
 9354 26c5 E4070000 		.4byte	.LASF252
 9355 26c9 01       		.byte	0x1
 9356 26ca 6701     		.2byte	0x167
 9357 26cc 48090000 		.4byte	0x948
ARM GAS  C:\Users\jo\AppData\Local\Temp\cc67lm3z.s 			page 168


 9358 26d0 B7110000 		.4byte	.LLST87
 9359 26d4 3F       		.uleb128 0x3f
 9360 26d5 3A0A0000 		.4byte	.LASF224
 9361 26d9 01       		.byte	0x1
 9362 26da 6901     		.2byte	0x169
 9363 26dc 050F0000 		.4byte	0xf05
 9364 26e0 D5110000 		.4byte	.LLST88
 9365 26e4 3F       		.uleb128 0x3f
 9366 26e5 28010000 		.4byte	.LASF315
 9367 26e9 01       		.byte	0x1
 9368 26ea 6B01     		.2byte	0x16b
 9369 26ec 76030000 		.4byte	0x376
 9370 26f0 FE110000 		.4byte	.LLST89
 9371 26f4 40       		.uleb128 0x40
 9372 26f5 68110000 		.4byte	0x1168
 9373 26f9 34000000 		.4byte	.LBB200
 9374 26fd 0E000000 		.4byte	.LBE200-.LBB200
 9375 2701 01       		.byte	0x1
 9376 2702 7F01     		.2byte	0x17f
 9377 2704 2E270000 		.4byte	0x272e
 9378 2708 35       		.uleb128 0x35
 9379 2709 75110000 		.4byte	0x1175
 9380 270d 27120000 		.4byte	.LLST90
 9381 2711 4A       		.uleb128 0x4a
 9382 2712 34000000 		.4byte	.LBB202
 9383 2716 08000000 		.4byte	.LBE202-.LBB202
 9384 271a 45       		.uleb128 0x45
 9385 271b 82110000 		.4byte	0x1182
 9386 271f 45120000 		.4byte	.LLST91
 9387 2723 41       		.uleb128 0x41
 9388 2724 3C000000 		.4byte	.LVL317
 9389 2728 50170000 		.4byte	0x1750
 9390 272c 00       		.byte	0
 9391 272d 00       		.byte	0
 9392 272e 40       		.uleb128 0x40
 9393 272f 68110000 		.4byte	0x1168
 9394 2733 46000000 		.4byte	.LBB203
 9395 2737 0E000000 		.4byte	.LBE203-.LBB203
 9396 273b 01       		.byte	0x1
 9397 273c 8201     		.2byte	0x182
 9398 273e 68270000 		.4byte	0x2768
 9399 2742 35       		.uleb128 0x35
 9400 2743 75110000 		.4byte	0x1175
 9401 2747 58120000 		.4byte	.LLST92
 9402 274b 4A       		.uleb128 0x4a
 9403 274c 46000000 		.4byte	.LBB205
 9404 2750 08000000 		.4byte	.LBE205-.LBB205
 9405 2754 45       		.uleb128 0x45
 9406 2755 82110000 		.4byte	0x1182
 9407 2759 76120000 		.4byte	.LLST93
 9408 275d 41       		.uleb128 0x41
 9409 275e 4E000000 		.4byte	.LVL321
 9410 2762 50170000 		.4byte	0x1750
 9411 2766 00       		.byte	0
 9412 2767 00       		.byte	0
 9413 2768 40       		.uleb128 0x40
 9414 2769 68110000 		.4byte	0x1168
ARM GAS  C:\Users\jo\AppData\Local\Temp\cc67lm3z.s 			page 169


 9415 276d 58000000 		.4byte	.LBB206
 9416 2771 0E000000 		.4byte	.LBE206-.LBB206
 9417 2775 01       		.byte	0x1
 9418 2776 8601     		.2byte	0x186
 9419 2778 A2270000 		.4byte	0x27a2
 9420 277c 35       		.uleb128 0x35
 9421 277d 75110000 		.4byte	0x1175
 9422 2781 89120000 		.4byte	.LLST94
 9423 2785 4A       		.uleb128 0x4a
 9424 2786 58000000 		.4byte	.LBB208
 9425 278a 08000000 		.4byte	.LBE208-.LBB208
 9426 278e 45       		.uleb128 0x45
 9427 278f 82110000 		.4byte	0x1182
 9428 2793 A7120000 		.4byte	.LLST95
 9429 2797 41       		.uleb128 0x41
 9430 2798 60000000 		.4byte	.LVL325
 9431 279c 50170000 		.4byte	0x1750
 9432 27a0 00       		.byte	0
 9433 27a1 00       		.byte	0
 9434 27a2 40       		.uleb128 0x40
 9435 27a3 1C110000 		.4byte	0x111c
 9436 27a7 CA000000 		.4byte	.LBB209
 9437 27ab 26000000 		.4byte	.LBE209-.LBB209
 9438 27af 01       		.byte	0x1
 9439 27b0 6E01     		.2byte	0x16e
 9440 27b2 D6270000 		.4byte	0x27d6
 9441 27b6 36       		.uleb128 0x36
 9442 27b7 29110000 		.4byte	0x1129
 9443 27bb 06       		.uleb128 0x6
 9444 27bc 03       		.byte	0x3
 9445 27bd 68030000 		.4byte	.LC23
 9446 27c1 9F       		.byte	0x9f
 9447 27c2 39       		.uleb128 0x39
 9448 27c3 D0000000 		.4byte	.LVL339
 9449 27c7 0B2F0000 		.4byte	0x2f0b
 9450 27cb 3A       		.uleb128 0x3a
 9451 27cc 01       		.uleb128 0x1
 9452 27cd 50       		.byte	0x50
 9453 27ce 05       		.uleb128 0x5
 9454 27cf 03       		.byte	0x3
 9455 27d0 68030000 		.4byte	.LC23
 9456 27d4 00       		.byte	0
 9457 27d5 00       		.byte	0
 9458 27d6 42       		.uleb128 0x42
 9459 27d7 2A000000 		.4byte	.LVL314
 9460 27db E7200000 		.4byte	0x20e7
 9461 27df F3270000 		.4byte	0x27f3
 9462 27e3 3A       		.uleb128 0x3a
 9463 27e4 01       		.uleb128 0x1
 9464 27e5 51       		.byte	0x51
 9465 27e6 02       		.uleb128 0x2
 9466 27e7 74       		.byte	0x74
 9467 27e8 00       		.sleb128 0
 9468 27e9 3A       		.uleb128 0x3a
 9469 27ea 01       		.uleb128 0x1
 9470 27eb 50       		.byte	0x50
 9471 27ec 05       		.uleb128 0x5
ARM GAS  C:\Users\jo\AppData\Local\Temp\cc67lm3z.s 			page 170


 9472 27ed 03       		.byte	0x3
 9473 27ee 00000000 		.4byte	.LANCHOR7
 9474 27f2 00       		.byte	0
 9475 27f3 42       		.uleb128 0x42
 9476 27f4 6E000000 		.4byte	.LVL327
 9477 27f8 392F0000 		.4byte	0x2f39
 9478 27fc 07280000 		.4byte	0x2807
 9479 2800 3A       		.uleb128 0x3a
 9480 2801 01       		.uleb128 0x1
 9481 2802 50       		.byte	0x50
 9482 2803 02       		.uleb128 0x2
 9483 2804 74       		.byte	0x74
 9484 2805 00       		.sleb128 0
 9485 2806 00       		.byte	0
 9486 2807 58       		.uleb128 0x58
 9487 2808 80000000 		.4byte	.LVL329
 9488 280c 17280000 		.4byte	0x2817
 9489 2810 3A       		.uleb128 0x3a
 9490 2811 01       		.uleb128 0x1
 9491 2812 51       		.byte	0x51
 9492 2813 02       		.uleb128 0x2
 9493 2814 09       		.byte	0x9
 9494 2815 F6       		.byte	0xf6
 9495 2816 00       		.byte	0
 9496 2817 42       		.uleb128 0x42
 9497 2818 94000000 		.4byte	.LVL330
 9498 281c 862F0000 		.4byte	0x2f86
 9499 2820 3D280000 		.4byte	0x283d
 9500 2824 3A       		.uleb128 0x3a
 9501 2825 01       		.uleb128 0x1
 9502 2826 53       		.byte	0x53
 9503 2827 02       		.uleb128 0x2
 9504 2828 74       		.byte	0x74
 9505 2829 04       		.sleb128 4
 9506 282a 3A       		.uleb128 0x3a
 9507 282b 01       		.uleb128 0x1
 9508 282c 52       		.byte	0x52
 9509 282d 02       		.uleb128 0x2
 9510 282e 74       		.byte	0x74
 9511 282f 00       		.sleb128 0
 9512 2830 3A       		.uleb128 0x3a
 9513 2831 01       		.uleb128 0x1
 9514 2832 51       		.byte	0x51
 9515 2833 02       		.uleb128 0x2
 9516 2834 78       		.byte	0x78
 9517 2835 00       		.sleb128 0
 9518 2836 3A       		.uleb128 0x3a
 9519 2837 01       		.uleb128 0x1
 9520 2838 50       		.byte	0x50
 9521 2839 02       		.uleb128 0x2
 9522 283a 79       		.byte	0x79
 9523 283b 00       		.sleb128 0
 9524 283c 00       		.byte	0
 9525 283d 42       		.uleb128 0x42
 9526 283e 9A000000 		.4byte	.LVL331
 9527 2842 392F0000 		.4byte	0x2f39
 9528 2846 51280000 		.4byte	0x2851
ARM GAS  C:\Users\jo\AppData\Local\Temp\cc67lm3z.s 			page 171


 9529 284a 3A       		.uleb128 0x3a
 9530 284b 01       		.uleb128 0x1
 9531 284c 50       		.byte	0x50
 9532 284d 02       		.uleb128 0x2
 9533 284e 74       		.byte	0x74
 9534 284f 00       		.sleb128 0
 9535 2850 00       		.byte	0
 9536 2851 42       		.uleb128 0x42
 9537 2852 AC000000 		.4byte	.LVL333
 9538 2856 E7200000 		.4byte	0x20e7
 9539 285a 6E280000 		.4byte	0x286e
 9540 285e 3A       		.uleb128 0x3a
 9541 285f 01       		.uleb128 0x1
 9542 2860 51       		.byte	0x51
 9543 2861 02       		.uleb128 0x2
 9544 2862 74       		.byte	0x74
 9545 2863 00       		.sleb128 0
 9546 2864 3A       		.uleb128 0x3a
 9547 2865 01       		.uleb128 0x1
 9548 2866 50       		.byte	0x50
 9549 2867 05       		.uleb128 0x5
 9550 2868 03       		.byte	0x3
 9551 2869 00000000 		.4byte	.LANCHOR8
 9552 286d 00       		.byte	0
 9553 286e 59       		.uleb128 0x59
 9554 286f B8000000 		.4byte	.LVL335
 9555 2873 392F0000 		.4byte	0x2f39
 9556 2877 83280000 		.4byte	0x2883
 9557 287b 3A       		.uleb128 0x3a
 9558 287c 01       		.uleb128 0x1
 9559 287d 50       		.byte	0x50
 9560 287e 03       		.uleb128 0x3
 9561 287f F3       		.byte	0xf3
 9562 2880 01       		.uleb128 0x1
 9563 2881 50       		.byte	0x50
 9564 2882 00       		.byte	0
 9565 2883 39       		.uleb128 0x39
 9566 2884 CA000000 		.4byte	.LVL338
 9567 2888 3B130000 		.4byte	0x133b
 9568 288c 3A       		.uleb128 0x3a
 9569 288d 01       		.uleb128 0x1
 9570 288e 53       		.byte	0x53
 9571 288f 03       		.uleb128 0x3
 9572 2890 0A       		.byte	0xa
 9573 2891 6F01     		.2byte	0x16f
 9574 2893 3A       		.uleb128 0x3a
 9575 2894 01       		.uleb128 0x1
 9576 2895 52       		.byte	0x52
 9577 2896 05       		.uleb128 0x5
 9578 2897 03       		.byte	0x3
 9579 2898 68030000 		.4byte	.LC23
 9580 289c 3A       		.uleb128 0x3a
 9581 289d 01       		.uleb128 0x1
 9582 289e 51       		.byte	0x51
 9583 289f 05       		.uleb128 0x5
 9584 28a0 03       		.byte	0x3
 9585 28a1 00000000 		.4byte	.LC0
ARM GAS  C:\Users\jo\AppData\Local\Temp\cc67lm3z.s 			page 172


 9586 28a5 3A       		.uleb128 0x3a
 9587 28a6 02       		.uleb128 0x2
 9588 28a7 7D       		.byte	0x7d
 9589 28a8 00       		.sleb128 0
 9590 28a9 05       		.uleb128 0x5
 9591 28aa 03       		.byte	0x3
 9592 28ab 50000000 		.4byte	.LC2
 9593 28af 00       		.byte	0
 9594 28b0 00       		.byte	0
 9595 28b1 34       		.uleb128 0x34
 9596 28b2 2C120000 		.4byte	0x122c
 9597 28b6 00000000 		.4byte	.LFB262
 9598 28ba 06000000 		.4byte	.LFE262-.LFB262
 9599 28be 01       		.uleb128 0x1
 9600 28bf 9C       		.byte	0x9c
 9601 28c0 E4280000 		.4byte	0x28e4
 9602 28c4 35       		.uleb128 0x35
 9603 28c5 39120000 		.4byte	0x1239
 9604 28c9 BA120000 		.4byte	.LLST96
 9605 28cd 48       		.uleb128 0x48
 9606 28ce 06000000 		.4byte	.LVL341
 9607 28d2 7E260000 		.4byte	0x267e
 9608 28d6 3A       		.uleb128 0x3a
 9609 28d7 01       		.uleb128 0x1
 9610 28d8 51       		.byte	0x51
 9611 28d9 01       		.uleb128 0x1
 9612 28da 31       		.byte	0x31
 9613 28db 3A       		.uleb128 0x3a
 9614 28dc 01       		.uleb128 0x1
 9615 28dd 50       		.byte	0x50
 9616 28de 03       		.uleb128 0x3
 9617 28df F3       		.byte	0xf3
 9618 28e0 01       		.uleb128 0x1
 9619 28e1 50       		.byte	0x50
 9620 28e2 00       		.byte	0
 9621 28e3 00       		.byte	0
 9622 28e4 21       		.uleb128 0x21
 9623 28e5 2A080000 		.4byte	.LASF317
 9624 28e9 01       		.byte	0x1
 9625 28ea E204     		.2byte	0x4e2
 9626 28ec 01       		.byte	0x1
 9627 28ed 16290000 		.4byte	0x2916
 9628 28f1 28       		.uleb128 0x28
 9629 28f2 70636200 		.ascii	"pcb\000"
 9630 28f6 01       		.byte	0x1
 9631 28f7 E404     		.2byte	0x4e4
 9632 28f9 CF0B0000 		.4byte	0xbcf
 9633 28fd 25       		.uleb128 0x25
 9634 28fe A1070000 		.4byte	.LASF318
 9635 2902 01       		.byte	0x1
 9636 2903 E404     		.2byte	0x4e4
 9637 2905 CF0B0000 		.4byte	0xbcf
 9638 2909 25       		.uleb128 0x25
 9639 290a 1F040000 		.4byte	.LASF319
 9640 290e 01       		.byte	0x1
 9641 290f E504     		.2byte	0x4e5
 9642 2911 48090000 		.4byte	0x948
ARM GAS  C:\Users\jo\AppData\Local\Temp\cc67lm3z.s 			page 173


 9643 2915 00       		.byte	0
 9644 2916 21       		.uleb128 0x21
 9645 2917 9B0A0000 		.4byte	.LASF320
 9646 291b 01       		.byte	0x1
 9647 291c C104     		.2byte	0x4c1
 9648 291e 01       		.byte	0x1
 9649 291f 60290000 		.4byte	0x2960
 9650 2923 22       		.uleb128 0x22
 9651 2924 23060000 		.4byte	.LASF188
 9652 2928 01       		.byte	0x1
 9653 2929 C104     		.2byte	0x4c1
 9654 292b 1C090000 		.4byte	0x91c
 9655 292f 28       		.uleb128 0x28
 9656 2930 70636200 		.ascii	"pcb\000"
 9657 2934 01       		.byte	0x1
 9658 2935 C304     		.2byte	0x4c3
 9659 2937 CF0B0000 		.4byte	0xbcf
 9660 293b 25       		.uleb128 0x25
 9661 293c A1070000 		.4byte	.LASF318
 9662 2940 01       		.byte	0x1
 9663 2941 C304     		.2byte	0x4c3
 9664 2943 CF0B0000 		.4byte	0xbcf
 9665 2947 25       		.uleb128 0x25
 9666 2948 1F040000 		.4byte	.LASF319
 9667 294c 01       		.byte	0x1
 9668 294d C404     		.2byte	0x4c4
 9669 294f 48090000 		.4byte	0x948
 9670 2953 25       		.uleb128 0x25
 9671 2954 6E0D0000 		.4byte	.LASF321
 9672 2958 01       		.byte	0x1
 9673 2959 C504     		.2byte	0x4c5
 9674 295b 1C090000 		.4byte	0x91c
 9675 295f 00       		.byte	0
 9676 2960 3C       		.uleb128 0x3c
 9677 2961 16100000 		.4byte	.LASF322
 9678 2965 01       		.byte	0x1
 9679 2966 FE04     		.2byte	0x4fe
 9680 2968 CF0B0000 		.4byte	0xbcf
 9681 296c 00000000 		.4byte	.LFB280
 9682 2970 38010000 		.4byte	.LFE280-.LFB280
 9683 2974 01       		.uleb128 0x1
 9684 2975 9C       		.byte	0x9c
 9685 2976 FA2A0000 		.4byte	0x2afa
 9686 297a 3D       		.uleb128 0x3d
 9687 297b 23060000 		.4byte	.LASF188
 9688 297f 01       		.byte	0x1
 9689 2980 FE04     		.2byte	0x4fe
 9690 2982 1C090000 		.4byte	0x91c
 9691 2986 DB120000 		.4byte	.LLST97
 9692 298a 31       		.uleb128 0x31
 9693 298b 70636200 		.ascii	"pcb\000"
 9694 298f 01       		.byte	0x1
 9695 2990 0005     		.2byte	0x500
 9696 2992 CF0B0000 		.4byte	0xbcf
 9697 2996 FC120000 		.4byte	.LLST98
 9698 299a 28       		.uleb128 0x28
 9699 299b 69737300 		.ascii	"iss\000"
ARM GAS  C:\Users\jo\AppData\Local\Temp\cc67lm3z.s 			page 174


 9700 299f 01       		.byte	0x1
 9701 29a0 0105     		.2byte	0x501
 9702 29a2 48090000 		.4byte	0x948
 9703 29a6 5A       		.uleb128 0x5a
 9704 29a7 46120000 		.4byte	0x1246
 9705 29ab 20000000 		.4byte	.LBB221
 9706 29af C8000000 		.4byte	.Ldebug_ranges0+0xc8
 9707 29b3 01       		.byte	0x1
 9708 29b4 2B05     		.2byte	0x52b
 9709 29b6 CC290000 		.4byte	0x29cc
 9710 29ba 43       		.uleb128 0x43
 9711 29bb C8000000 		.4byte	.Ldebug_ranges0+0xc8
 9712 29bf 37       		.uleb128 0x37
 9713 29c0 57120000 		.4byte	0x1257
 9714 29c4 05       		.uleb128 0x5
 9715 29c5 03       		.byte	0x3
 9716 29c6 00000000 		.4byte	iss.9713
 9717 29ca 00       		.byte	0
 9718 29cb 00       		.byte	0
 9719 29cc 40       		.uleb128 0x40
 9720 29cd E4280000 		.4byte	0x28e4
 9721 29d1 9E000000 		.4byte	.LBB229
 9722 29d5 2A000000 		.4byte	.LBE229-.LBB229
 9723 29d9 01       		.byte	0x1
 9724 29da 0705     		.2byte	0x507
 9725 29dc 2F2A0000 		.4byte	0x2a2f
 9726 29e0 4A       		.uleb128 0x4a
 9727 29e1 9E000000 		.4byte	.LBB230
 9728 29e5 2A000000 		.4byte	.LBE230-.LBB230
 9729 29e9 45       		.uleb128 0x45
 9730 29ea F1280000 		.4byte	0x28f1
 9731 29ee 46130000 		.4byte	.LLST99
 9732 29f2 45       		.uleb128 0x45
 9733 29f3 FD280000 		.4byte	0x28fd
 9734 29f7 64130000 		.4byte	.LLST100
 9735 29fb 45       		.uleb128 0x45
 9736 29fc 09290000 		.4byte	0x2909
 9737 2a00 78130000 		.4byte	.LLST101
 9738 2a04 5B       		.uleb128 0x5b
 9739 2a05 2C120000 		.4byte	0x122c
 9740 2a09 C2000000 		.4byte	.LBB231
 9741 2a0d 06000000 		.4byte	.LBE231-.LBB231
 9742 2a11 01       		.byte	0x1
 9743 2a12 F304     		.2byte	0x4f3
 9744 2a14 35       		.uleb128 0x35
 9745 2a15 39120000 		.4byte	0x1239
 9746 2a19 A2130000 		.4byte	.LLST102
 9747 2a1d 39       		.uleb128 0x39
 9748 2a1e C8000000 		.4byte	.LVL355
 9749 2a22 7E260000 		.4byte	0x267e
 9750 2a26 3A       		.uleb128 0x3a
 9751 2a27 01       		.uleb128 0x1
 9752 2a28 51       		.byte	0x51
 9753 2a29 01       		.uleb128 0x1
 9754 2a2a 31       		.byte	0x31
 9755 2a2b 00       		.byte	0
 9756 2a2c 00       		.byte	0
ARM GAS  C:\Users\jo\AppData\Local\Temp\cc67lm3z.s 			page 175


 9757 2a2d 00       		.byte	0
 9758 2a2e 00       		.byte	0
 9759 2a2f 40       		.uleb128 0x40
 9760 2a30 16290000 		.4byte	0x2916
 9761 2a34 D4000000 		.4byte	.LBB233
 9762 2a38 36000000 		.4byte	.LBE233-.LBB233
 9763 2a3c 01       		.byte	0x1
 9764 2a3d 0D05     		.2byte	0x50d
 9765 2a3f A22A0000 		.4byte	0x2aa2
 9766 2a43 36       		.uleb128 0x36
 9767 2a44 23290000 		.4byte	0x2923
 9768 2a48 01       		.uleb128 0x1
 9769 2a49 57       		.byte	0x57
 9770 2a4a 4A       		.uleb128 0x4a
 9771 2a4b D4000000 		.4byte	.LBB234
 9772 2a4f 36000000 		.4byte	.LBE234-.LBB234
 9773 2a53 45       		.uleb128 0x45
 9774 2a54 2F290000 		.4byte	0x292f
 9775 2a58 B5130000 		.4byte	.LLST103
 9776 2a5c 45       		.uleb128 0x45
 9777 2a5d 3B290000 		.4byte	0x293b
 9778 2a61 C8130000 		.4byte	.LLST104
 9779 2a65 45       		.uleb128 0x45
 9780 2a66 47290000 		.4byte	0x2947
 9781 2a6a DC130000 		.4byte	.LLST105
 9782 2a6e 45       		.uleb128 0x45
 9783 2a6f 53290000 		.4byte	0x2953
 9784 2a73 06140000 		.4byte	.LLST106
 9785 2a77 5B       		.uleb128 0x5b
 9786 2a78 2C120000 		.4byte	0x122c
 9787 2a7c 04010000 		.4byte	.LBB235
 9788 2a80 06000000 		.4byte	.LBE235-.LBB235
 9789 2a84 01       		.byte	0x1
 9790 2a85 D904     		.2byte	0x4d9
 9791 2a87 35       		.uleb128 0x35
 9792 2a88 39120000 		.4byte	0x1239
 9793 2a8c 31140000 		.4byte	.LLST107
 9794 2a90 39       		.uleb128 0x39
 9795 2a91 0A010000 		.4byte	.LVL365
 9796 2a95 7E260000 		.4byte	0x267e
 9797 2a99 3A       		.uleb128 0x3a
 9798 2a9a 01       		.uleb128 0x1
 9799 2a9b 51       		.byte	0x51
 9800 2a9c 01       		.uleb128 0x1
 9801 2a9d 31       		.byte	0x31
 9802 2a9e 00       		.byte	0
 9803 2a9f 00       		.byte	0
 9804 2aa0 00       		.byte	0
 9805 2aa1 00       		.byte	0
 9806 2aa2 42       		.uleb128 0x42
 9807 2aa3 10000000 		.4byte	.LVL344
 9808 2aa7 242F0000 		.4byte	0x2f24
 9809 2aab B62A0000 		.4byte	0x2ab6
 9810 2aaf 3A       		.uleb128 0x3a
 9811 2ab0 01       		.uleb128 0x1
 9812 2ab1 50       		.byte	0x50
 9813 2ab2 02       		.uleb128 0x2
ARM GAS  C:\Users\jo\AppData\Local\Temp\cc67lm3z.s 			page 176


 9814 2ab3 75       		.byte	0x75
 9815 2ab4 00       		.sleb128 0
 9816 2ab5 00       		.byte	0
 9817 2ab6 42       		.uleb128 0x42
 9818 2ab7 20000000 		.4byte	.LVL345
 9819 2abb FC2F0000 		.4byte	0x2ffc
 9820 2abf D52A0000 		.4byte	0x2ad5
 9821 2ac3 3A       		.uleb128 0x3a
 9822 2ac4 01       		.uleb128 0x1
 9823 2ac5 52       		.byte	0x52
 9824 2ac6 02       		.uleb128 0x2
 9825 2ac7 08       		.byte	0x8
 9826 2ac8 98       		.byte	0x98
 9827 2ac9 3A       		.uleb128 0x3a
 9828 2aca 01       		.uleb128 0x1
 9829 2acb 51       		.byte	0x51
 9830 2acc 01       		.uleb128 0x1
 9831 2acd 30       		.byte	0x30
 9832 2ace 3A       		.uleb128 0x3a
 9833 2acf 01       		.uleb128 0x1
 9834 2ad0 50       		.byte	0x50
 9835 2ad1 02       		.uleb128 0x2
 9836 2ad2 74       		.byte	0x74
 9837 2ad3 00       		.sleb128 0
 9838 2ad4 00       		.byte	0
 9839 2ad5 42       		.uleb128 0x42
 9840 2ad6 CE000000 		.4byte	.LVL356
 9841 2ada 242F0000 		.4byte	0x2f24
 9842 2ade E92A0000 		.4byte	0x2ae9
 9843 2ae2 3A       		.uleb128 0x3a
 9844 2ae3 01       		.uleb128 0x1
 9845 2ae4 50       		.byte	0x50
 9846 2ae5 02       		.uleb128 0x2
 9847 2ae6 75       		.byte	0x75
 9848 2ae7 00       		.sleb128 0
 9849 2ae8 00       		.byte	0
 9850 2ae9 39       		.uleb128 0x39
 9851 2aea 10010000 		.4byte	.LVL366
 9852 2aee 242F0000 		.4byte	0x2f24
 9853 2af2 3A       		.uleb128 0x3a
 9854 2af3 01       		.uleb128 0x1
 9855 2af4 50       		.byte	0x50
 9856 2af5 02       		.uleb128 0x2
 9857 2af6 75       		.byte	0x75
 9858 2af7 00       		.sleb128 0
 9859 2af8 00       		.byte	0
 9860 2af9 00       		.byte	0
 9861 2afa 3C       		.uleb128 0x3c
 9862 2afb 71040000 		.4byte	.LASF323
 9863 2aff 01       		.byte	0x1
 9864 2b00 5305     		.2byte	0x553
 9865 2b02 CF0B0000 		.4byte	0xbcf
 9866 2b06 00000000 		.4byte	.LFB281
 9867 2b0a 06000000 		.4byte	.LFE281-.LFB281
 9868 2b0e 01       		.uleb128 0x1
 9869 2b0f 9C       		.byte	0x9c
 9870 2b10 252B0000 		.4byte	0x2b25
ARM GAS  C:\Users\jo\AppData\Local\Temp\cc67lm3z.s 			page 177


 9871 2b14 48       		.uleb128 0x48
 9872 2b15 06000000 		.4byte	.LVL367
 9873 2b19 60290000 		.4byte	0x2960
 9874 2b1d 3A       		.uleb128 0x3a
 9875 2b1e 01       		.uleb128 0x1
 9876 2b1f 50       		.byte	0x50
 9877 2b20 02       		.uleb128 0x2
 9878 2b21 08       		.byte	0x8
 9879 2b22 40       		.byte	0x40
 9880 2b23 00       		.byte	0
 9881 2b24 00       		.byte	0
 9882 2b25 34       		.uleb128 0x34
 9883 2b26 46120000 		.4byte	0x1246
 9884 2b2a 00000000 		.4byte	.LFB290
 9885 2b2e 18000000 		.4byte	.LFE290-.LFB290
 9886 2b32 01       		.uleb128 0x1
 9887 2b33 9C       		.byte	0x9c
 9888 2b34 442B0000 		.4byte	0x2b44
 9889 2b38 37       		.uleb128 0x37
 9890 2b39 57120000 		.4byte	0x1257
 9891 2b3d 05       		.uleb128 0x5
 9892 2b3e 03       		.byte	0x3
 9893 2b3f 00000000 		.4byte	iss.9713
 9894 2b43 00       		.byte	0
 9895 2b44 3C       		.uleb128 0x3c
 9896 2b45 080A0000 		.4byte	.LASF324
 9897 2b49 01       		.byte	0x1
 9898 2b4a 3206     		.2byte	0x632
 9899 2b4c 32090000 		.4byte	0x932
 9900 2b50 00000000 		.4byte	.LFB291
 9901 2b54 1E000000 		.4byte	.LFE291-.LFB291
 9902 2b58 01       		.uleb128 0x1
 9903 2b59 9C       		.byte	0x9c
 9904 2b5a B02B0000 		.4byte	0x2bb0
 9905 2b5e 3D       		.uleb128 0x3d
 9906 2b5f B9030000 		.4byte	.LASF325
 9907 2b63 01       		.byte	0x1
 9908 2b64 3206     		.2byte	0x632
 9909 2b66 32090000 		.4byte	0x932
 9910 2b6a 44140000 		.4byte	.LLST108
 9911 2b6e 3D       		.uleb128 0x3d
 9912 2b6f 800E0000 		.4byte	.LASF160
 9913 2b73 01       		.byte	0x1
 9914 2b74 3206     		.2byte	0x632
 9915 2b76 5A0B0000 		.4byte	0xb5a
 9916 2b7a 70140000 		.4byte	.LLST109
 9917 2b7e 3F       		.uleb128 0x3f
 9918 2b7f 4A040000 		.4byte	.LASF326
 9919 2b83 01       		.byte	0x1
 9920 2b84 3406     		.2byte	0x634
 9921 2b86 32090000 		.4byte	0x932
 9922 2b8a 91140000 		.4byte	.LLST110
 9923 2b8e 3F       		.uleb128 0x3f
 9924 2b8f F90C0000 		.4byte	.LASF327
 9925 2b93 01       		.byte	0x1
 9926 2b94 3506     		.2byte	0x635
 9927 2b96 510A0000 		.4byte	0xa51
ARM GAS  C:\Users\jo\AppData\Local\Temp\cc67lm3z.s 			page 178


 9928 2b9a C5140000 		.4byte	.LLST111
 9929 2b9e 39       		.uleb128 0x39
 9930 2b9f 0A000000 		.4byte	.LVL370
 9931 2ba3 19300000 		.4byte	0x3019
 9932 2ba7 3A       		.uleb128 0x3a
 9933 2ba8 01       		.uleb128 0x1
 9934 2ba9 50       		.byte	0x50
 9935 2baa 03       		.uleb128 0x3
 9936 2bab F3       		.byte	0xf3
 9937 2bac 01       		.uleb128 0x1
 9938 2bad 51       		.byte	0x51
 9939 2bae 00       		.byte	0
 9940 2baf 00       		.byte	0
 9941 2bb0 3C       		.uleb128 0x3c
 9942 2bb1 58050000 		.4byte	.LASF328
 9943 2bb5 01       		.byte	0x1
 9944 2bb6 AC02     		.2byte	0x2ac
 9945 2bb8 DF090000 		.4byte	0x9df
 9946 2bbc 00000000 		.4byte	.LFB269
 9947 2bc0 4C010000 		.4byte	.LFE269-.LFB269
 9948 2bc4 01       		.uleb128 0x1
 9949 2bc5 9C       		.byte	0x9c
 9950 2bc6 3F2D0000 		.4byte	0x2d3f
 9951 2bca 2F       		.uleb128 0x2f
 9952 2bcb 70636200 		.ascii	"pcb\000"
 9953 2bcf 01       		.byte	0x1
 9954 2bd0 AC02     		.2byte	0x2ac
 9955 2bd2 CF0B0000 		.4byte	0xbcf
 9956 2bd6 D8140000 		.4byte	.LLST112
 9957 2bda 3D       		.uleb128 0x3d
 9958 2bdb 05050000 		.4byte	.LASF271
 9959 2bdf 01       		.byte	0x1
 9960 2be0 AC02     		.2byte	0x2ac
 9961 2be2 5A0B0000 		.4byte	0xb5a
 9962 2be6 22150000 		.4byte	.LLST113
 9963 2bea 3D       		.uleb128 0x3d
 9964 2beb 890D0000 		.4byte	.LASF272
 9965 2bef 01       		.byte	0x1
 9966 2bf0 AC02     		.2byte	0x2ac
 9967 2bf2 32090000 		.4byte	0x932
 9968 2bf6 40150000 		.4byte	.LLST114
 9969 2bfa 3D       		.uleb128 0x3d
 9970 2bfb 3C050000 		.4byte	.LASF222
 9971 2bff 01       		.byte	0x1
 9972 2c00 AD02     		.2byte	0x2ad
 9973 2c02 260F0000 		.4byte	0xf26
 9974 2c06 93150000 		.4byte	.LLST115
 9975 2c0a 31       		.uleb128 0x31
 9976 2c0b 72657400 		.ascii	"ret\000"
 9977 2c0f 01       		.byte	0x1
 9978 2c10 AF02     		.2byte	0x2af
 9979 2c12 DF090000 		.4byte	0x9df
 9980 2c16 F9150000 		.4byte	.LLST116
 9981 2c1a 28       		.uleb128 0x28
 9982 2c1b 69737300 		.ascii	"iss\000"
 9983 2c1f 01       		.byte	0x1
 9984 2c20 B002     		.2byte	0x2b0
ARM GAS  C:\Users\jo\AppData\Local\Temp\cc67lm3z.s 			page 179


 9985 2c22 48090000 		.4byte	0x948
 9986 2c26 3F       		.uleb128 0x3f
 9987 2c27 8B060000 		.4byte	.LASF329
 9988 2c2b 01       		.byte	0x1
 9989 2c2c B102     		.2byte	0x2b1
 9990 2c2e 32090000 		.4byte	0x932
 9991 2c32 22160000 		.4byte	.LLST117
 9992 2c36 46       		.uleb128 0x46
 9993 2c37 F0000000 		.4byte	.Ldebug_ranges0+0xf0
 9994 2c3b 602C0000 		.4byte	0x2c60
 9995 2c3f 3F       		.uleb128 0x3f
 9996 2c40 B70E0000 		.4byte	.LASF169
 9997 2c44 01       		.byte	0x1
 9998 2c45 C002     		.2byte	0x2c0
 9999 2c47 510A0000 		.4byte	0xa51
 10000 2c4b 40160000 		.4byte	.LLST118
 10001 2c4f 39       		.uleb128 0x39
 10002 2c50 28000000 		.4byte	.LVL380
 10003 2c54 19300000 		.4byte	0x3019
 10004 2c58 3A       		.uleb128 0x3a
 10005 2c59 01       		.uleb128 0x1
 10006 2c5a 50       		.byte	0x50
 10007 2c5b 02       		.uleb128 0x2
 10008 2c5c 74       		.byte	0x74
 10009 2c5d 04       		.sleb128 4
 10010 2c5e 00       		.byte	0
 10011 2c5f 00       		.byte	0
 10012 2c60 5A       		.uleb128 0x5a
 10013 2c61 46120000 		.4byte	0x1246
 10014 2c65 3E000000 		.4byte	.LBB238
 10015 2c69 08010000 		.4byte	.Ldebug_ranges0+0x108
 10016 2c6d 01       		.byte	0x1
 10017 2c6e E502     		.2byte	0x2e5
 10018 2c70 862C0000 		.4byte	0x2c86
 10019 2c74 43       		.uleb128 0x43
 10020 2c75 08010000 		.4byte	.Ldebug_ranges0+0x108
 10021 2c79 37       		.uleb128 0x37
 10022 2c7a 57120000 		.4byte	0x1257
 10023 2c7e 05       		.uleb128 0x5
 10024 2c7f 03       		.byte	0x3
 10025 2c80 00000000 		.4byte	iss.9713
 10026 2c84 00       		.byte	0
 10027 2c85 00       		.byte	0
 10028 2c86 40       		.uleb128 0x40
 10029 2c87 1C110000 		.4byte	0x111c
 10030 2c8b 12010000 		.4byte	.LBB242
 10031 2c8f 06000000 		.4byte	.LBE242-.LBB242
 10032 2c93 01       		.byte	0x1
 10033 2c94 B302     		.2byte	0x2b3
 10034 2c96 B72C0000 		.4byte	0x2cb7
 10035 2c9a 35       		.uleb128 0x35
 10036 2c9b 29110000 		.4byte	0x1129
 10037 2c9f 5E160000 		.4byte	.LLST119
 10038 2ca3 39       		.uleb128 0x39
 10039 2ca4 18010000 		.4byte	.LVL397
 10040 2ca8 0B2F0000 		.4byte	0x2f0b
 10041 2cac 3A       		.uleb128 0x3a
ARM GAS  C:\Users\jo\AppData\Local\Temp\cc67lm3z.s 			page 180


 10042 2cad 01       		.uleb128 0x1
 10043 2cae 50       		.byte	0x50
 10044 2caf 05       		.uleb128 0x5
 10045 2cb0 03       		.byte	0x3
 10046 2cb1 9C030000 		.4byte	.LC24
 10047 2cb5 00       		.byte	0
 10048 2cb6 00       		.byte	0
 10049 2cb7 41       		.uleb128 0x41
 10050 2cb8 38000000 		.4byte	.LVL383
 10051 2cbc EE120000 		.4byte	0x12ee
 10052 2cc0 42       		.uleb128 0x42
 10053 2cc1 82000000 		.4byte	.LVL384
 10054 2cc5 442B0000 		.4byte	0x2b44
 10055 2cc9 DB2C0000 		.4byte	0x2cdb
 10056 2ccd 3A       		.uleb128 0x3a
 10057 2cce 01       		.uleb128 0x1
 10058 2ccf 51       		.byte	0x51
 10059 2cd0 02       		.uleb128 0x2
 10060 2cd1 75       		.byte	0x75
 10061 2cd2 00       		.sleb128 0
 10062 2cd3 3A       		.uleb128 0x3a
 10063 2cd4 01       		.uleb128 0x1
 10064 2cd5 50       		.byte	0x50
 10065 2cd6 03       		.uleb128 0x3
 10066 2cd7 0A       		.byte	0xa
 10067 2cd8 1802     		.2byte	0x218
 10068 2cda 00       		.byte	0
 10069 2cdb 42       		.uleb128 0x42
 10070 2cdc A0000000 		.4byte	.LVL385
 10071 2ce0 2E300000 		.4byte	0x302e
 10072 2ce4 F42C0000 		.4byte	0x2cf4
 10073 2ce8 3A       		.uleb128 0x3a
 10074 2ce9 01       		.uleb128 0x1
 10075 2cea 51       		.byte	0x51
 10076 2ceb 01       		.uleb128 0x1
 10077 2cec 32       		.byte	0x32
 10078 2ced 3A       		.uleb128 0x3a
 10079 2cee 01       		.uleb128 0x1
 10080 2cef 50       		.byte	0x50
 10081 2cf0 02       		.uleb128 0x2
 10082 2cf1 74       		.byte	0x74
 10083 2cf2 00       		.sleb128 0
 10084 2cf3 00       		.byte	0
 10085 2cf4 41       		.uleb128 0x41
 10086 2cf5 D6000000 		.4byte	.LVL386
 10087 2cf9 1C2F0000 		.4byte	0x2f1c
 10088 2cfd 42       		.uleb128 0x42
 10089 2cfe E2000000 		.4byte	.LVL387
 10090 2d02 4A2F0000 		.4byte	0x2f4a
 10091 2d06 112D0000 		.4byte	0x2d11
 10092 2d0a 3A       		.uleb128 0x3a
 10093 2d0b 01       		.uleb128 0x1
 10094 2d0c 50       		.byte	0x50
 10095 2d0d 02       		.uleb128 0x2
 10096 2d0e 74       		.byte	0x74
 10097 2d0f 00       		.sleb128 0
 10098 2d10 00       		.byte	0
ARM GAS  C:\Users\jo\AppData\Local\Temp\cc67lm3z.s 			page 181


 10099 2d11 39       		.uleb128 0x39
 10100 2d12 12010000 		.4byte	.LVL396
 10101 2d16 3B130000 		.4byte	0x133b
 10102 2d1a 3A       		.uleb128 0x3a
 10103 2d1b 01       		.uleb128 0x1
 10104 2d1c 53       		.byte	0x53
 10105 2d1d 03       		.uleb128 0x3
 10106 2d1e 0A       		.byte	0xa
 10107 2d1f B302     		.2byte	0x2b3
 10108 2d21 3A       		.uleb128 0x3a
 10109 2d22 01       		.uleb128 0x1
 10110 2d23 52       		.byte	0x52
 10111 2d24 05       		.uleb128 0x5
 10112 2d25 03       		.byte	0x3
 10113 2d26 9C030000 		.4byte	.LC24
 10114 2d2a 3A       		.uleb128 0x3a
 10115 2d2b 01       		.uleb128 0x1
 10116 2d2c 51       		.byte	0x51
 10117 2d2d 05       		.uleb128 0x5
 10118 2d2e 03       		.byte	0x3
 10119 2d2f 00000000 		.4byte	.LC0
 10120 2d33 3A       		.uleb128 0x3a
 10121 2d34 02       		.uleb128 0x2
 10122 2d35 7D       		.byte	0x7d
 10123 2d36 00       		.sleb128 0
 10124 2d37 05       		.uleb128 0x5
 10125 2d38 03       		.byte	0x3
 10126 2d39 50000000 		.4byte	.LC2
 10127 2d3d 00       		.byte	0
 10128 2d3e 00       		.byte	0
 10129 2d3f 3C       		.uleb128 0x3c
 10130 2d40 F2070000 		.4byte	.LASF330
 10131 2d44 01       		.byte	0x1
 10132 2d45 4506     		.2byte	0x645
 10133 2d47 C5050000 		.4byte	0x5c5
 10134 2d4b 00000000 		.4byte	.LFB292
 10135 2d4f 0C000000 		.4byte	.LFE292-.LFB292
 10136 2d53 01       		.uleb128 0x1
 10137 2d54 9C       		.byte	0x9c
 10138 2d55 682D0000 		.4byte	0x2d68
 10139 2d59 2F       		.uleb128 0x2f
 10140 2d5a 7300     		.ascii	"s\000"
 10141 2d5c 01       		.byte	0x1
 10142 2d5d 4506     		.2byte	0x645
 10143 2d5f 310F0000 		.4byte	0xf31
 10144 2d63 76160000 		.4byte	.LLST120
 10145 2d67 00       		.byte	0
 10146 2d68 5C       		.uleb128 0x5c
 10147 2d69 D30A0000 		.4byte	.LASF331
 10148 2d6d 01       		.byte	0x1
 10149 2d6e 59       		.byte	0x59
 10150 2d6f 32090000 		.4byte	0x932
 10151 2d73 05       		.uleb128 0x5
 10152 2d74 03       		.byte	0x3
 10153 2d75 00000000 		.4byte	tcp_port
 10154 2d79 5C       		.uleb128 0x5c
 10155 2d7a 9B050000 		.4byte	.LASF332
ARM GAS  C:\Users\jo\AppData\Local\Temp\cc67lm3z.s 			page 182


 10156 2d7e 01       		.byte	0x1
 10157 2d7f 7A       		.byte	0x7a
 10158 2d80 1C090000 		.4byte	0x91c
 10159 2d84 05       		.uleb128 0x5
 10160 2d85 03       		.byte	0x3
 10161 2d86 00000000 		.4byte	tcp_timer
 10162 2d8a 5C       		.uleb128 0x5c
 10163 2d8b CB0E0000 		.4byte	.LASF333
 10164 2d8f 01       		.byte	0x1
 10165 2d90 7B       		.byte	0x7b
 10166 2d91 1C090000 		.4byte	0x91c
 10167 2d95 05       		.uleb128 0x5
 10168 2d96 03       		.byte	0x3
 10169 2d97 00000000 		.4byte	tcp_timer_ctr
 10170 2d9b 5D       		.uleb128 0x5d
 10171 2d9c 050C0000 		.4byte	.LASF334
 10172 2da0 1B       		.byte	0x1b
 10173 2da1 A706     		.2byte	0x6a7
 10174 2da3 10010000 		.4byte	0x110
 10175 2da7 5E       		.uleb128 0x5e
 10176 2da8 636800   		.ascii	"ch\000"
 10177 2dab 09       		.byte	0x9
 10178 2dac EB01     		.2byte	0x1eb
 10179 2dae 6D040000 		.4byte	0x46d
 10180 2db2 5F       		.uleb128 0x5f
 10181 2db3 1C090000 		.4byte	.LASF335
 10182 2db7 14       		.byte	0x14
 10183 2db8 3B       		.byte	0x3b
 10184 2db9 06090000 		.4byte	0x906
 10185 2dbd 17       		.uleb128 0x17
 10186 2dbe 32090000 		.4byte	0x932
 10187 2dc2 CD2D0000 		.4byte	0x2dcd
 10188 2dc6 18       		.uleb128 0x18
 10189 2dc7 E5040000 		.4byte	0x4e5
 10190 2dcb 0C       		.byte	0xc
 10191 2dcc 00       		.byte	0
 10192 2dcd 5F       		.uleb128 0x5f
 10193 2dce 25030000 		.4byte	.LASF336
 10194 2dd2 1C       		.byte	0x1c
 10195 2dd3 4F       		.byte	0x4f
 10196 2dd4 D82D0000 		.4byte	0x2dd8
 10197 2dd8 14       		.uleb128 0x14
 10198 2dd9 BD2D0000 		.4byte	0x2dbd
 10199 2ddd 60       		.uleb128 0x60
 10200 2dde 6C100000 		.4byte	.LASF337
 10201 2de2 01       		.byte	0x1
 10202 2de3 5C       		.byte	0x5c
 10203 2de4 48090000 		.4byte	0x948
 10204 2de8 05       		.uleb128 0x5
 10205 2de9 03       		.byte	0x3
 10206 2dea 00000000 		.4byte	tcp_ticks
 10207 2dee 60       		.uleb128 0x60
 10208 2def 5A030000 		.4byte	.LASF338
 10209 2df3 01       		.byte	0x1
 10210 2df4 77       		.byte	0x77
 10211 2df5 1C090000 		.4byte	0x91c
 10212 2df9 05       		.uleb128 0x5
ARM GAS  C:\Users\jo\AppData\Local\Temp\cc67lm3z.s 			page 183


 10213 2dfa 03       		.byte	0x3
 10214 2dfb 00000000 		.4byte	tcp_active_pcbs_changed
 10215 2dff 60       		.uleb128 0x60
 10216 2e00 3E0E0000 		.4byte	.LASF339
 10217 2e04 01       		.byte	0x1
 10218 2e05 65       		.byte	0x65
 10219 2e06 CF0B0000 		.4byte	0xbcf
 10220 2e0a 05       		.uleb128 0x5
 10221 2e0b 03       		.byte	0x3
 10222 2e0c 00000000 		.4byte	tcp_bound_pcbs
 10223 2e10 60       		.uleb128 0x60
 10224 2e11 2C090000 		.4byte	.LASF340
 10225 2e15 01       		.byte	0x1
 10226 2e16 67       		.byte	0x67
 10227 2e17 F6100000 		.4byte	0x10f6
 10228 2e1b 05       		.uleb128 0x5
 10229 2e1c 03       		.byte	0x3
 10230 2e1d 00000000 		.4byte	tcp_listen_pcbs
 10231 2e21 60       		.uleb128 0x60
 10232 2e22 20100000 		.4byte	.LASF341
 10233 2e26 01       		.byte	0x1
 10234 2e27 6A       		.byte	0x6a
 10235 2e28 CF0B0000 		.4byte	0xbcf
 10236 2e2c 05       		.uleb128 0x5
 10237 2e2d 03       		.byte	0x3
 10238 2e2e 00000000 		.4byte	tcp_active_pcbs
 10239 2e32 60       		.uleb128 0x60
 10240 2e33 A70F0000 		.4byte	.LASF342
 10241 2e37 01       		.byte	0x1
 10242 2e38 6C       		.byte	0x6c
 10243 2e39 CF0B0000 		.4byte	0xbcf
 10244 2e3d 05       		.uleb128 0x5
 10245 2e3e 03       		.byte	0x3
 10246 2e3f 00000000 		.4byte	tcp_tw_pcbs
 10247 2e43 60       		.uleb128 0x60
 10248 2e44 4C050000 		.4byte	.LASF343
 10249 2e48 01       		.byte	0x1
 10250 2e49 75       		.byte	0x75
 10251 2e4a CF0B0000 		.4byte	0xbcf
 10252 2e4e 05       		.uleb128 0x5
 10253 2e4f 03       		.byte	0x3
 10254 2e50 00000000 		.4byte	tcp_tmp_pcb
 10255 2e54 17       		.uleb128 0x17
 10256 2e55 C5050000 		.4byte	0x5c5
 10257 2e59 642E0000 		.4byte	0x2e64
 10258 2e5d 18       		.uleb128 0x18
 10259 2e5e E5040000 		.4byte	0x4e5
 10260 2e62 0A       		.byte	0xa
 10261 2e63 00       		.byte	0
 10262 2e64 60       		.uleb128 0x60
 10263 2e65 BD0E0000 		.4byte	.LASF344
 10264 2e69 01       		.byte	0x1
 10265 2e6a 4A       		.byte	0x4a
 10266 2e6b 752E0000 		.4byte	0x2e75
 10267 2e6f 05       		.uleb128 0x5
 10268 2e70 03       		.byte	0x3
 10269 2e71 00000000 		.4byte	tcp_state_str
ARM GAS  C:\Users\jo\AppData\Local\Temp\cc67lm3z.s 			page 184


 10270 2e75 14       		.uleb128 0x14
 10271 2e76 542E0000 		.4byte	0x2e54
 10272 2e7a 17       		.uleb128 0x17
 10273 2e7b 1C090000 		.4byte	0x91c
 10274 2e7f 8A2E0000 		.4byte	0x2e8a
 10275 2e83 18       		.uleb128 0x18
 10276 2e84 E5040000 		.4byte	0x4e5
 10277 2e88 0C       		.byte	0xc
 10278 2e89 00       		.byte	0
 10279 2e8a 60       		.uleb128 0x60
 10280 2e8b 3F060000 		.4byte	.LASF345
 10281 2e8f 01       		.byte	0x1
 10282 2e90 5D       		.byte	0x5d
 10283 2e91 9B2E0000 		.4byte	0x2e9b
 10284 2e95 05       		.uleb128 0x5
 10285 2e96 03       		.byte	0x3
 10286 2e97 00000000 		.4byte	tcp_backoff
 10287 2e9b 14       		.uleb128 0x14
 10288 2e9c 7A2E0000 		.4byte	0x2e7a
 10289 2ea0 17       		.uleb128 0x17
 10290 2ea1 1C090000 		.4byte	0x91c
 10291 2ea5 B02E0000 		.4byte	0x2eb0
 10292 2ea9 18       		.uleb128 0x18
 10293 2eaa E5040000 		.4byte	0x4e5
 10294 2eae 06       		.byte	0x6
 10295 2eaf 00       		.byte	0
 10296 2eb0 60       		.uleb128 0x60
 10297 2eb1 50040000 		.4byte	.LASF346
 10298 2eb5 01       		.byte	0x1
 10299 2eb6 60       		.byte	0x60
 10300 2eb7 C12E0000 		.4byte	0x2ec1
 10301 2ebb 05       		.uleb128 0x5
 10302 2ebc 03       		.byte	0x3
 10303 2ebd 00000000 		.4byte	tcp_persist_backoff
 10304 2ec1 14       		.uleb128 0x14
 10305 2ec2 A02E0000 		.4byte	0x2ea0
 10306 2ec6 17       		.uleb128 0x17
 10307 2ec7 68220000 		.4byte	0x2268
 10308 2ecb D62E0000 		.4byte	0x2ed6
 10309 2ecf 18       		.uleb128 0x18
 10310 2ed0 E5040000 		.4byte	0x4e5
 10311 2ed4 03       		.byte	0x3
 10312 2ed5 00       		.byte	0
 10313 2ed6 60       		.uleb128 0x60
 10314 2ed7 54010000 		.4byte	.LASF347
 10315 2edb 01       		.byte	0x1
 10316 2edc 71       		.byte	0x71
 10317 2edd E72E0000 		.4byte	0x2ee7
 10318 2ee1 05       		.uleb128 0x5
 10319 2ee2 03       		.byte	0x3
 10320 2ee3 00000000 		.4byte	tcp_pcb_lists
 10321 2ee7 14       		.uleb128 0x14
 10322 2ee8 C62E0000 		.4byte	0x2ec6
 10323 2eec 61       		.uleb128 0x61
 10324 2eed 8B000000 		.4byte	.LASF348
 10325 2ef1 02       		.byte	0x2
 10326 2ef2 28       		.byte	0x28
ARM GAS  C:\Users\jo\AppData\Local\Temp\cc67lm3z.s 			page 185


 10327 2ef3 25000000 		.4byte	0x25
 10328 2ef7 0B2F0000 		.4byte	0x2f0b
 10329 2efb 0D       		.uleb128 0xd
 10330 2efc A1120000 		.4byte	0x12a1
 10331 2f00 0D       		.uleb128 0xd
 10332 2f01 C5050000 		.4byte	0x5c5
 10333 2f05 0D       		.uleb128 0xd
 10334 2f06 11090000 		.4byte	0x911
 10335 2f0a 00       		.byte	0
 10336 2f0b 62       		.uleb128 0x62
 10337 2f0c 9C0E0000 		.4byte	.LASF349
 10338 2f10 1D       		.byte	0x1d
 10339 2f11 E6       		.byte	0xe6
 10340 2f12 1C2F0000 		.4byte	0x2f1c
 10341 2f16 0D       		.uleb128 0xd
 10342 2f17 C5050000 		.4byte	0x5c5
 10343 2f1b 00       		.byte	0
 10344 2f1c 63       		.uleb128 0x63
 10345 2f1d F7090000 		.4byte	.LASF371
 10346 2f21 1A       		.byte	0x1a
 10347 2f22 DD01     		.2byte	0x1dd
 10348 2f24 61       		.uleb128 0x61
 10349 2f25 C7030000 		.4byte	.LASF350
 10350 2f29 1E       		.byte	0x1e
 10351 2f2a 60       		.byte	0x60
 10352 2f2b 76030000 		.4byte	0x376
 10353 2f2f 392F0000 		.4byte	0x2f39
 10354 2f33 0D       		.uleb128 0xd
 10355 2f34 2C000000 		.4byte	0x2c
 10356 2f38 00       		.byte	0
 10357 2f39 62       		.uleb128 0x62
 10358 2f3a 82050000 		.4byte	.LASF351
 10359 2f3e 1E       		.byte	0x1e
 10360 2f3f 55       		.byte	0x55
 10361 2f40 4A2F0000 		.4byte	0x2f4a
 10362 2f44 0D       		.uleb128 0xd
 10363 2f45 76030000 		.4byte	0x376
 10364 2f49 00       		.byte	0
 10365 2f4a 64       		.uleb128 0x64
 10366 2f4b B5050000 		.4byte	.LASF352
 10367 2f4f 19       		.byte	0x19
 10368 2f50 6F01     		.2byte	0x16f
 10369 2f52 DF090000 		.4byte	0x9df
 10370 2f56 602F0000 		.4byte	0x2f60
 10371 2f5a 0D       		.uleb128 0xd
 10372 2f5b CF0B0000 		.4byte	0xbcf
 10373 2f5f 00       		.byte	0
 10374 2f60 61       		.uleb128 0x61
 10375 2f61 69070000 		.4byte	.LASF353
 10376 2f65 17       		.byte	0x17
 10377 2f66 9B       		.byte	0x9b
 10378 2f67 1C090000 		.4byte	0x91c
 10379 2f6b 752F0000 		.4byte	0x2f75
 10380 2f6f 0D       		.uleb128 0xd
 10381 2f70 4B0A0000 		.4byte	0xa4b
 10382 2f74 00       		.byte	0
 10383 2f75 62       		.uleb128 0x62
ARM GAS  C:\Users\jo\AppData\Local\Temp\cc67lm3z.s 			page 186


 10384 2f76 080D0000 		.4byte	.LASF354
 10385 2f7a 17       		.byte	0x17
 10386 2f7b 9A       		.byte	0x9a
 10387 2f7c 862F0000 		.4byte	0x2f86
 10388 2f80 0D       		.uleb128 0xd
 10389 2f81 4B0A0000 		.4byte	0xa4b
 10390 2f85 00       		.byte	0
 10391 2f86 65       		.uleb128 0x65
 10392 2f87 8A0A0000 		.4byte	.LASF355
 10393 2f8b 1A       		.byte	0x1a
 10394 2f8c BC01     		.2byte	0x1bc
 10395 2f8e B12F0000 		.4byte	0x2fb1
 10396 2f92 0D       		.uleb128 0xd
 10397 2f93 48090000 		.4byte	0x948
 10398 2f97 0D       		.uleb128 0xd
 10399 2f98 48090000 		.4byte	0x948
 10400 2f9c 0D       		.uleb128 0xd
 10401 2f9d 5A0B0000 		.4byte	0xb5a
 10402 2fa1 0D       		.uleb128 0xd
 10403 2fa2 5A0B0000 		.4byte	0xb5a
 10404 2fa6 0D       		.uleb128 0xd
 10405 2fa7 32090000 		.4byte	0x932
 10406 2fab 0D       		.uleb128 0xd
 10407 2fac 32090000 		.4byte	0x932
 10408 2fb0 00       		.byte	0
 10409 2fb1 65       		.uleb128 0x65
 10410 2fb2 B30F0000 		.4byte	.LASF356
 10411 2fb6 1A       		.byte	0x1a
 10412 2fb7 C301     		.2byte	0x1c3
 10413 2fb9 C32F0000 		.4byte	0x2fc3
 10414 2fbd 0D       		.uleb128 0xd
 10415 2fbe CF0B0000 		.4byte	0xbcf
 10416 2fc2 00       		.byte	0
 10417 2fc3 62       		.uleb128 0x62
 10418 2fc4 2A040000 		.4byte	.LASF357
 10419 2fc8 1A       		.byte	0x1a
 10420 2fc9 46       		.byte	0x46
 10421 2fca D42F0000 		.4byte	0x2fd4
 10422 2fce 0D       		.uleb128 0xd
 10423 2fcf CF0B0000 		.4byte	0xbcf
 10424 2fd3 00       		.byte	0
 10425 2fd4 65       		.uleb128 0x65
 10426 2fd5 6D000000 		.4byte	.LASF358
 10427 2fd9 1A       		.byte	0x1a
 10428 2fda C201     		.2byte	0x1c2
 10429 2fdc E62F0000 		.4byte	0x2fe6
 10430 2fe0 0D       		.uleb128 0xd
 10431 2fe1 CF0B0000 		.4byte	0xbcf
 10432 2fe5 00       		.byte	0
 10433 2fe6 64       		.uleb128 0x64
 10434 2fe7 2D0A0000 		.4byte	.LASF359
 10435 2feb 1A       		.byte	0x1a
 10436 2fec B701     		.2byte	0x1b7
 10437 2fee DF090000 		.4byte	0x9df
 10438 2ff2 FC2F0000 		.4byte	0x2ffc
 10439 2ff6 0D       		.uleb128 0xd
 10440 2ff7 CF0B0000 		.4byte	0xbcf
ARM GAS  C:\Users\jo\AppData\Local\Temp\cc67lm3z.s 			page 187


 10441 2ffb 00       		.byte	0
 10442 2ffc 66       		.uleb128 0x66
 10443 2ffd AD080000 		.4byte	.LASF360
 10444 3001 76030000 		.4byte	0x376
 10445 3005 19300000 		.4byte	0x3019
 10446 3009 0D       		.uleb128 0xd
 10447 300a 76030000 		.4byte	0x376
 10448 300e 0D       		.uleb128 0xd
 10449 300f 25000000 		.4byte	0x25
 10450 3013 0D       		.uleb128 0xd
 10451 3014 E5040000 		.4byte	0x4e5
 10452 3018 00       		.byte	0
 10453 3019 61       		.uleb128 0x61
 10454 301a F70F0000 		.4byte	.LASF361
 10455 301e 1F       		.byte	0x1f
 10456 301f AF       		.byte	0xaf
 10457 3020 510A0000 		.4byte	0xa51
 10458 3024 2E300000 		.4byte	0x302e
 10459 3028 0D       		.uleb128 0xd
 10460 3029 5A0B0000 		.4byte	0xb5a
 10461 302d 00       		.byte	0
 10462 302e 67       		.uleb128 0x67
 10463 302f A90A0000 		.4byte	.LASF362
 10464 3033 1A       		.byte	0x1a
 10465 3034 B801     		.2byte	0x1b8
 10466 3036 DF090000 		.4byte	0x9df
 10467 303a 0D       		.uleb128 0xd
 10468 303b CF0B0000 		.4byte	0xbcf
 10469 303f 0D       		.uleb128 0xd
 10470 3040 1C090000 		.4byte	0x91c
 10471 3044 00       		.byte	0
 10472 3045 00       		.byte	0
 10473              		.section	.debug_abbrev,"",%progbits
 10474              	.Ldebug_abbrev0:
 10475 0000 01       		.uleb128 0x1
 10476 0001 11       		.uleb128 0x11
 10477 0002 01       		.byte	0x1
 10478 0003 25       		.uleb128 0x25
 10479 0004 0E       		.uleb128 0xe
 10480 0005 13       		.uleb128 0x13
 10481 0006 0B       		.uleb128 0xb
 10482 0007 03       		.uleb128 0x3
 10483 0008 0E       		.uleb128 0xe
 10484 0009 1B       		.uleb128 0x1b
 10485 000a 0E       		.uleb128 0xe
 10486 000b 55       		.uleb128 0x55
 10487 000c 17       		.uleb128 0x17
 10488 000d 11       		.uleb128 0x11
 10489 000e 01       		.uleb128 0x1
 10490 000f 10       		.uleb128 0x10
 10491 0010 17       		.uleb128 0x17
 10492 0011 00       		.byte	0
 10493 0012 00       		.byte	0
 10494 0013 02       		.uleb128 0x2
 10495 0014 24       		.uleb128 0x24
 10496 0015 00       		.byte	0
 10497 0016 0B       		.uleb128 0xb
ARM GAS  C:\Users\jo\AppData\Local\Temp\cc67lm3z.s 			page 188


 10498 0017 0B       		.uleb128 0xb
 10499 0018 3E       		.uleb128 0x3e
 10500 0019 0B       		.uleb128 0xb
 10501 001a 03       		.uleb128 0x3
 10502 001b 08       		.uleb128 0x8
 10503 001c 00       		.byte	0
 10504 001d 00       		.byte	0
 10505 001e 03       		.uleb128 0x3
 10506 001f 16       		.uleb128 0x16
 10507 0020 00       		.byte	0
 10508 0021 03       		.uleb128 0x3
 10509 0022 0E       		.uleb128 0xe
 10510 0023 3A       		.uleb128 0x3a
 10511 0024 0B       		.uleb128 0xb
 10512 0025 3B       		.uleb128 0x3b
 10513 0026 0B       		.uleb128 0xb
 10514 0027 49       		.uleb128 0x49
 10515 0028 13       		.uleb128 0x13
 10516 0029 00       		.byte	0
 10517 002a 00       		.byte	0
 10518 002b 04       		.uleb128 0x4
 10519 002c 24       		.uleb128 0x24
 10520 002d 00       		.byte	0
 10521 002e 0B       		.uleb128 0xb
 10522 002f 0B       		.uleb128 0xb
 10523 0030 3E       		.uleb128 0x3e
 10524 0031 0B       		.uleb128 0xb
 10525 0032 03       		.uleb128 0x3
 10526 0033 0E       		.uleb128 0xe
 10527 0034 00       		.byte	0
 10528 0035 00       		.byte	0
 10529 0036 05       		.uleb128 0x5
 10530 0037 35       		.uleb128 0x35
 10531 0038 00       		.byte	0
 10532 0039 49       		.uleb128 0x49
 10533 003a 13       		.uleb128 0x13
 10534 003b 00       		.byte	0
 10535 003c 00       		.byte	0
 10536 003d 06       		.uleb128 0x6
 10537 003e 13       		.uleb128 0x13
 10538 003f 01       		.byte	0x1
 10539 0040 03       		.uleb128 0x3
 10540 0041 0E       		.uleb128 0xe
 10541 0042 0B       		.uleb128 0xb
 10542 0043 0B       		.uleb128 0xb
 10543 0044 3A       		.uleb128 0x3a
 10544 0045 0B       		.uleb128 0xb
 10545 0046 3B       		.uleb128 0x3b
 10546 0047 0B       		.uleb128 0xb
 10547 0048 01       		.uleb128 0x1
 10548 0049 13       		.uleb128 0x13
 10549 004a 00       		.byte	0
 10550 004b 00       		.byte	0
 10551 004c 07       		.uleb128 0x7
 10552 004d 0D       		.uleb128 0xd
 10553 004e 00       		.byte	0
 10554 004f 03       		.uleb128 0x3
ARM GAS  C:\Users\jo\AppData\Local\Temp\cc67lm3z.s 			page 189


 10555 0050 0E       		.uleb128 0xe
 10556 0051 3A       		.uleb128 0x3a
 10557 0052 0B       		.uleb128 0xb
 10558 0053 3B       		.uleb128 0x3b
 10559 0054 0B       		.uleb128 0xb
 10560 0055 49       		.uleb128 0x49
 10561 0056 13       		.uleb128 0x13
 10562 0057 38       		.uleb128 0x38
 10563 0058 0B       		.uleb128 0xb
 10564 0059 00       		.byte	0
 10565 005a 00       		.byte	0
 10566 005b 08       		.uleb128 0x8
 10567 005c 0D       		.uleb128 0xd
 10568 005d 00       		.byte	0
 10569 005e 03       		.uleb128 0x3
 10570 005f 08       		.uleb128 0x8
 10571 0060 3A       		.uleb128 0x3a
 10572 0061 0B       		.uleb128 0xb
 10573 0062 3B       		.uleb128 0x3b
 10574 0063 05       		.uleb128 0x5
 10575 0064 49       		.uleb128 0x49
 10576 0065 13       		.uleb128 0x13
 10577 0066 38       		.uleb128 0x38
 10578 0067 0B       		.uleb128 0xb
 10579 0068 00       		.byte	0
 10580 0069 00       		.byte	0
 10581 006a 09       		.uleb128 0x9
 10582 006b 0D       		.uleb128 0xd
 10583 006c 00       		.byte	0
 10584 006d 03       		.uleb128 0x3
 10585 006e 0E       		.uleb128 0xe
 10586 006f 3A       		.uleb128 0x3a
 10587 0070 0B       		.uleb128 0xb
 10588 0071 3B       		.uleb128 0x3b
 10589 0072 05       		.uleb128 0x5
 10590 0073 49       		.uleb128 0x49
 10591 0074 13       		.uleb128 0x13
 10592 0075 38       		.uleb128 0x38
 10593 0076 0B       		.uleb128 0xb
 10594 0077 00       		.byte	0
 10595 0078 00       		.byte	0
 10596 0079 0A       		.uleb128 0xa
 10597 007a 13       		.uleb128 0x13
 10598 007b 01       		.byte	0x1
 10599 007c 03       		.uleb128 0x3
 10600 007d 0E       		.uleb128 0xe
 10601 007e 0B       		.uleb128 0xb
 10602 007f 0B       		.uleb128 0xb
 10603 0080 3A       		.uleb128 0x3a
 10604 0081 0B       		.uleb128 0xb
 10605 0082 3B       		.uleb128 0x3b
 10606 0083 05       		.uleb128 0x5
 10607 0084 01       		.uleb128 0x1
 10608 0085 13       		.uleb128 0x13
 10609 0086 00       		.byte	0
 10610 0087 00       		.byte	0
 10611 0088 0B       		.uleb128 0xb
ARM GAS  C:\Users\jo\AppData\Local\Temp\cc67lm3z.s 			page 190


 10612 0089 0F       		.uleb128 0xf
 10613 008a 00       		.byte	0
 10614 008b 0B       		.uleb128 0xb
 10615 008c 0B       		.uleb128 0xb
 10616 008d 49       		.uleb128 0x49
 10617 008e 13       		.uleb128 0x13
 10618 008f 00       		.byte	0
 10619 0090 00       		.byte	0
 10620 0091 0C       		.uleb128 0xc
 10621 0092 15       		.uleb128 0x15
 10622 0093 01       		.byte	0x1
 10623 0094 27       		.uleb128 0x27
 10624 0095 19       		.uleb128 0x19
 10625 0096 01       		.uleb128 0x1
 10626 0097 13       		.uleb128 0x13
 10627 0098 00       		.byte	0
 10628 0099 00       		.byte	0
 10629 009a 0D       		.uleb128 0xd
 10630 009b 05       		.uleb128 0x5
 10631 009c 00       		.byte	0
 10632 009d 49       		.uleb128 0x49
 10633 009e 13       		.uleb128 0x13
 10634 009f 00       		.byte	0
 10635 00a0 00       		.byte	0
 10636 00a1 0E       		.uleb128 0xe
 10637 00a2 0F       		.uleb128 0xf
 10638 00a3 00       		.byte	0
 10639 00a4 0B       		.uleb128 0xb
 10640 00a5 0B       		.uleb128 0xb
 10641 00a6 00       		.byte	0
 10642 00a7 00       		.byte	0
 10643 00a8 0F       		.uleb128 0xf
 10644 00a9 13       		.uleb128 0x13
 10645 00aa 01       		.byte	0x1
 10646 00ab 03       		.uleb128 0x3
 10647 00ac 0E       		.uleb128 0xe
 10648 00ad 0B       		.uleb128 0xb
 10649 00ae 05       		.uleb128 0x5
 10650 00af 3A       		.uleb128 0x3a
 10651 00b0 0B       		.uleb128 0xb
 10652 00b1 3B       		.uleb128 0x3b
 10653 00b2 05       		.uleb128 0x5
 10654 00b3 01       		.uleb128 0x1
 10655 00b4 13       		.uleb128 0x13
 10656 00b5 00       		.byte	0
 10657 00b6 00       		.byte	0
 10658 00b7 10       		.uleb128 0x10
 10659 00b8 0D       		.uleb128 0xd
 10660 00b9 00       		.byte	0
 10661 00ba 03       		.uleb128 0x3
 10662 00bb 0E       		.uleb128 0xe
 10663 00bc 3A       		.uleb128 0x3a
 10664 00bd 0B       		.uleb128 0xb
 10665 00be 3B       		.uleb128 0x3b
 10666 00bf 05       		.uleb128 0x5
 10667 00c0 49       		.uleb128 0x49
 10668 00c1 13       		.uleb128 0x13
ARM GAS  C:\Users\jo\AppData\Local\Temp\cc67lm3z.s 			page 191


 10669 00c2 38       		.uleb128 0x38
 10670 00c3 05       		.uleb128 0x5
 10671 00c4 00       		.byte	0
 10672 00c5 00       		.byte	0
 10673 00c6 11       		.uleb128 0x11
 10674 00c7 0D       		.uleb128 0xd
 10675 00c8 00       		.byte	0
 10676 00c9 03       		.uleb128 0x3
 10677 00ca 08       		.uleb128 0x8
 10678 00cb 3A       		.uleb128 0x3a
 10679 00cc 0B       		.uleb128 0xb
 10680 00cd 3B       		.uleb128 0x3b
 10681 00ce 05       		.uleb128 0x5
 10682 00cf 49       		.uleb128 0x49
 10683 00d0 13       		.uleb128 0x13
 10684 00d1 38       		.uleb128 0x38
 10685 00d2 05       		.uleb128 0x5
 10686 00d3 00       		.byte	0
 10687 00d4 00       		.byte	0
 10688 00d5 12       		.uleb128 0x12
 10689 00d6 0D       		.uleb128 0xd
 10690 00d7 00       		.byte	0
 10691 00d8 03       		.uleb128 0x3
 10692 00d9 08       		.uleb128 0x8
 10693 00da 3A       		.uleb128 0x3a
 10694 00db 0B       		.uleb128 0xb
 10695 00dc 3B       		.uleb128 0x3b
 10696 00dd 0B       		.uleb128 0xb
 10697 00de 49       		.uleb128 0x49
 10698 00df 13       		.uleb128 0x13
 10699 00e0 38       		.uleb128 0x38
 10700 00e1 0B       		.uleb128 0xb
 10701 00e2 00       		.byte	0
 10702 00e3 00       		.byte	0
 10703 00e4 13       		.uleb128 0x13
 10704 00e5 0D       		.uleb128 0xd
 10705 00e6 00       		.byte	0
 10706 00e7 03       		.uleb128 0x3
 10707 00e8 0E       		.uleb128 0xe
 10708 00e9 49       		.uleb128 0x49
 10709 00ea 13       		.uleb128 0x13
 10710 00eb 38       		.uleb128 0x38
 10711 00ec 0B       		.uleb128 0xb
 10712 00ed 34       		.uleb128 0x34
 10713 00ee 19       		.uleb128 0x19
 10714 00ef 00       		.byte	0
 10715 00f0 00       		.byte	0
 10716 00f1 14       		.uleb128 0x14
 10717 00f2 26       		.uleb128 0x26
 10718 00f3 00       		.byte	0
 10719 00f4 49       		.uleb128 0x49
 10720 00f5 13       		.uleb128 0x13
 10721 00f6 00       		.byte	0
 10722 00f7 00       		.byte	0
 10723 00f8 15       		.uleb128 0x15
 10724 00f9 13       		.uleb128 0x13
 10725 00fa 01       		.byte	0x1
ARM GAS  C:\Users\jo\AppData\Local\Temp\cc67lm3z.s 			page 192


 10726 00fb 0B       		.uleb128 0xb
 10727 00fc 0B       		.uleb128 0xb
 10728 00fd 3A       		.uleb128 0x3a
 10729 00fe 0B       		.uleb128 0xb
 10730 00ff 3B       		.uleb128 0x3b
 10731 0100 0B       		.uleb128 0xb
 10732 0101 01       		.uleb128 0x1
 10733 0102 13       		.uleb128 0x13
 10734 0103 00       		.byte	0
 10735 0104 00       		.byte	0
 10736 0105 16       		.uleb128 0x16
 10737 0106 13       		.uleb128 0x13
 10738 0107 01       		.byte	0x1
 10739 0108 0B       		.uleb128 0xb
 10740 0109 05       		.uleb128 0x5
 10741 010a 3A       		.uleb128 0x3a
 10742 010b 0B       		.uleb128 0xb
 10743 010c 3B       		.uleb128 0x3b
 10744 010d 0B       		.uleb128 0xb
 10745 010e 01       		.uleb128 0x1
 10746 010f 13       		.uleb128 0x13
 10747 0110 00       		.byte	0
 10748 0111 00       		.byte	0
 10749 0112 17       		.uleb128 0x17
 10750 0113 01       		.uleb128 0x1
 10751 0114 01       		.byte	0x1
 10752 0115 49       		.uleb128 0x49
 10753 0116 13       		.uleb128 0x13
 10754 0117 01       		.uleb128 0x1
 10755 0118 13       		.uleb128 0x13
 10756 0119 00       		.byte	0
 10757 011a 00       		.byte	0
 10758 011b 18       		.uleb128 0x18
 10759 011c 21       		.uleb128 0x21
 10760 011d 00       		.byte	0
 10761 011e 49       		.uleb128 0x49
 10762 011f 13       		.uleb128 0x13
 10763 0120 2F       		.uleb128 0x2f
 10764 0121 0B       		.uleb128 0xb
 10765 0122 00       		.byte	0
 10766 0123 00       		.byte	0
 10767 0124 19       		.uleb128 0x19
 10768 0125 17       		.uleb128 0x17
 10769 0126 01       		.byte	0x1
 10770 0127 0B       		.uleb128 0xb
 10771 0128 0B       		.uleb128 0xb
 10772 0129 3A       		.uleb128 0x3a
 10773 012a 0B       		.uleb128 0xb
 10774 012b 3B       		.uleb128 0x3b
 10775 012c 0B       		.uleb128 0xb
 10776 012d 01       		.uleb128 0x1
 10777 012e 13       		.uleb128 0x13
 10778 012f 00       		.byte	0
 10779 0130 00       		.byte	0
 10780 0131 1A       		.uleb128 0x1a
 10781 0132 0D       		.uleb128 0xd
 10782 0133 00       		.byte	0
ARM GAS  C:\Users\jo\AppData\Local\Temp\cc67lm3z.s 			page 193


 10783 0134 03       		.uleb128 0x3
 10784 0135 0E       		.uleb128 0xe
 10785 0136 3A       		.uleb128 0x3a
 10786 0137 0B       		.uleb128 0xb
 10787 0138 3B       		.uleb128 0x3b
 10788 0139 0B       		.uleb128 0xb
 10789 013a 49       		.uleb128 0x49
 10790 013b 13       		.uleb128 0x13
 10791 013c 00       		.byte	0
 10792 013d 00       		.byte	0
 10793 013e 1B       		.uleb128 0x1b
 10794 013f 0D       		.uleb128 0xd
 10795 0140 00       		.byte	0
 10796 0141 03       		.uleb128 0x3
 10797 0142 0E       		.uleb128 0xe
 10798 0143 3A       		.uleb128 0x3a
 10799 0144 0B       		.uleb128 0xb
 10800 0145 3B       		.uleb128 0x3b
 10801 0146 05       		.uleb128 0x5
 10802 0147 49       		.uleb128 0x49
 10803 0148 13       		.uleb128 0x13
 10804 0149 00       		.byte	0
 10805 014a 00       		.byte	0
 10806 014b 1C       		.uleb128 0x1c
 10807 014c 15       		.uleb128 0x15
 10808 014d 01       		.byte	0x1
 10809 014e 27       		.uleb128 0x27
 10810 014f 19       		.uleb128 0x19
 10811 0150 49       		.uleb128 0x49
 10812 0151 13       		.uleb128 0x13
 10813 0152 01       		.uleb128 0x1
 10814 0153 13       		.uleb128 0x13
 10815 0154 00       		.byte	0
 10816 0155 00       		.byte	0
 10817 0156 1D       		.uleb128 0x1d
 10818 0157 04       		.uleb128 0x4
 10819 0158 01       		.byte	0x1
 10820 0159 0B       		.uleb128 0xb
 10821 015a 0B       		.uleb128 0xb
 10822 015b 3A       		.uleb128 0x3a
 10823 015c 0B       		.uleb128 0xb
 10824 015d 3B       		.uleb128 0x3b
 10825 015e 0B       		.uleb128 0xb
 10826 015f 01       		.uleb128 0x1
 10827 0160 13       		.uleb128 0x13
 10828 0161 00       		.byte	0
 10829 0162 00       		.byte	0
 10830 0163 1E       		.uleb128 0x1e
 10831 0164 28       		.uleb128 0x28
 10832 0165 00       		.byte	0
 10833 0166 03       		.uleb128 0x3
 10834 0167 0E       		.uleb128 0xe
 10835 0168 1C       		.uleb128 0x1c
 10836 0169 0D       		.uleb128 0xd
 10837 016a 00       		.byte	0
 10838 016b 00       		.byte	0
 10839 016c 1F       		.uleb128 0x1f
ARM GAS  C:\Users\jo\AppData\Local\Temp\cc67lm3z.s 			page 194


 10840 016d 04       		.uleb128 0x4
 10841 016e 01       		.byte	0x1
 10842 016f 03       		.uleb128 0x3
 10843 0170 0E       		.uleb128 0xe
 10844 0171 0B       		.uleb128 0xb
 10845 0172 0B       		.uleb128 0xb
 10846 0173 3A       		.uleb128 0x3a
 10847 0174 0B       		.uleb128 0xb
 10848 0175 3B       		.uleb128 0x3b
 10849 0176 0B       		.uleb128 0xb
 10850 0177 01       		.uleb128 0x1
 10851 0178 13       		.uleb128 0x13
 10852 0179 00       		.byte	0
 10853 017a 00       		.byte	0
 10854 017b 20       		.uleb128 0x20
 10855 017c 17       		.uleb128 0x17
 10856 017d 01       		.byte	0x1
 10857 017e 03       		.uleb128 0x3
 10858 017f 0E       		.uleb128 0xe
 10859 0180 0B       		.uleb128 0xb
 10860 0181 0B       		.uleb128 0xb
 10861 0182 3A       		.uleb128 0x3a
 10862 0183 0B       		.uleb128 0xb
 10863 0184 3B       		.uleb128 0x3b
 10864 0185 05       		.uleb128 0x5
 10865 0186 01       		.uleb128 0x1
 10866 0187 13       		.uleb128 0x13
 10867 0188 00       		.byte	0
 10868 0189 00       		.byte	0
 10869 018a 21       		.uleb128 0x21
 10870 018b 2E       		.uleb128 0x2e
 10871 018c 01       		.byte	0x1
 10872 018d 03       		.uleb128 0x3
 10873 018e 0E       		.uleb128 0xe
 10874 018f 3A       		.uleb128 0x3a
 10875 0190 0B       		.uleb128 0xb
 10876 0191 3B       		.uleb128 0x3b
 10877 0192 05       		.uleb128 0x5
 10878 0193 27       		.uleb128 0x27
 10879 0194 19       		.uleb128 0x19
 10880 0195 20       		.uleb128 0x20
 10881 0196 0B       		.uleb128 0xb
 10882 0197 01       		.uleb128 0x1
 10883 0198 13       		.uleb128 0x13
 10884 0199 00       		.byte	0
 10885 019a 00       		.byte	0
 10886 019b 22       		.uleb128 0x22
 10887 019c 05       		.uleb128 0x5
 10888 019d 00       		.byte	0
 10889 019e 03       		.uleb128 0x3
 10890 019f 0E       		.uleb128 0xe
 10891 01a0 3A       		.uleb128 0x3a
 10892 01a1 0B       		.uleb128 0xb
 10893 01a2 3B       		.uleb128 0x3b
 10894 01a3 05       		.uleb128 0x5
 10895 01a4 49       		.uleb128 0x49
 10896 01a5 13       		.uleb128 0x13
ARM GAS  C:\Users\jo\AppData\Local\Temp\cc67lm3z.s 			page 195


 10897 01a6 00       		.byte	0
 10898 01a7 00       		.byte	0
 10899 01a8 23       		.uleb128 0x23
 10900 01a9 2E       		.uleb128 0x2e
 10901 01aa 01       		.byte	0x1
 10902 01ab 3F       		.uleb128 0x3f
 10903 01ac 19       		.uleb128 0x19
 10904 01ad 03       		.uleb128 0x3
 10905 01ae 0E       		.uleb128 0xe
 10906 01af 3A       		.uleb128 0x3a
 10907 01b0 0B       		.uleb128 0xb
 10908 01b1 3B       		.uleb128 0x3b
 10909 01b2 05       		.uleb128 0x5
 10910 01b3 27       		.uleb128 0x27
 10911 01b4 19       		.uleb128 0x19
 10912 01b5 20       		.uleb128 0x20
 10913 01b6 0B       		.uleb128 0xb
 10914 01b7 01       		.uleb128 0x1
 10915 01b8 13       		.uleb128 0x13
 10916 01b9 00       		.byte	0
 10917 01ba 00       		.byte	0
 10918 01bb 24       		.uleb128 0x24
 10919 01bc 05       		.uleb128 0x5
 10920 01bd 00       		.byte	0
 10921 01be 03       		.uleb128 0x3
 10922 01bf 08       		.uleb128 0x8
 10923 01c0 3A       		.uleb128 0x3a
 10924 01c1 0B       		.uleb128 0xb
 10925 01c2 3B       		.uleb128 0x3b
 10926 01c3 05       		.uleb128 0x5
 10927 01c4 49       		.uleb128 0x49
 10928 01c5 13       		.uleb128 0x13
 10929 01c6 00       		.byte	0
 10930 01c7 00       		.byte	0
 10931 01c8 25       		.uleb128 0x25
 10932 01c9 34       		.uleb128 0x34
 10933 01ca 00       		.byte	0
 10934 01cb 03       		.uleb128 0x3
 10935 01cc 0E       		.uleb128 0xe
 10936 01cd 3A       		.uleb128 0x3a
 10937 01ce 0B       		.uleb128 0xb
 10938 01cf 3B       		.uleb128 0x3b
 10939 01d0 05       		.uleb128 0x5
 10940 01d1 49       		.uleb128 0x49
 10941 01d2 13       		.uleb128 0x13
 10942 01d3 00       		.byte	0
 10943 01d4 00       		.byte	0
 10944 01d5 26       		.uleb128 0x26
 10945 01d6 0B       		.uleb128 0xb
 10946 01d7 01       		.byte	0x1
 10947 01d8 00       		.byte	0
 10948 01d9 00       		.byte	0
 10949 01da 27       		.uleb128 0x27
 10950 01db 2E       		.uleb128 0x2e
 10951 01dc 01       		.byte	0x1
 10952 01dd 3F       		.uleb128 0x3f
 10953 01de 19       		.uleb128 0x19
ARM GAS  C:\Users\jo\AppData\Local\Temp\cc67lm3z.s 			page 196


 10954 01df 03       		.uleb128 0x3
 10955 01e0 0E       		.uleb128 0xe
 10956 01e1 3A       		.uleb128 0x3a
 10957 01e2 0B       		.uleb128 0xb
 10958 01e3 3B       		.uleb128 0x3b
 10959 01e4 05       		.uleb128 0x5
 10960 01e5 27       		.uleb128 0x27
 10961 01e6 19       		.uleb128 0x19
 10962 01e7 49       		.uleb128 0x49
 10963 01e8 13       		.uleb128 0x13
 10964 01e9 20       		.uleb128 0x20
 10965 01ea 0B       		.uleb128 0xb
 10966 01eb 01       		.uleb128 0x1
 10967 01ec 13       		.uleb128 0x13
 10968 01ed 00       		.byte	0
 10969 01ee 00       		.byte	0
 10970 01ef 28       		.uleb128 0x28
 10971 01f0 34       		.uleb128 0x34
 10972 01f1 00       		.byte	0
 10973 01f2 03       		.uleb128 0x3
 10974 01f3 08       		.uleb128 0x8
 10975 01f4 3A       		.uleb128 0x3a
 10976 01f5 0B       		.uleb128 0xb
 10977 01f6 3B       		.uleb128 0x3b
 10978 01f7 05       		.uleb128 0x5
 10979 01f8 49       		.uleb128 0x49
 10980 01f9 13       		.uleb128 0x13
 10981 01fa 00       		.byte	0
 10982 01fb 00       		.byte	0
 10983 01fc 29       		.uleb128 0x29
 10984 01fd 2E       		.uleb128 0x2e
 10985 01fe 01       		.byte	0x1
 10986 01ff 03       		.uleb128 0x3
 10987 0200 0E       		.uleb128 0xe
 10988 0201 3A       		.uleb128 0x3a
 10989 0202 0B       		.uleb128 0xb
 10990 0203 3B       		.uleb128 0x3b
 10991 0204 0B       		.uleb128 0xb
 10992 0205 27       		.uleb128 0x27
 10993 0206 19       		.uleb128 0x19
 10994 0207 49       		.uleb128 0x49
 10995 0208 13       		.uleb128 0x13
 10996 0209 20       		.uleb128 0x20
 10997 020a 0B       		.uleb128 0xb
 10998 020b 01       		.uleb128 0x1
 10999 020c 13       		.uleb128 0x13
 11000 020d 00       		.byte	0
 11001 020e 00       		.byte	0
 11002 020f 2A       		.uleb128 0x2a
 11003 0210 05       		.uleb128 0x5
 11004 0211 00       		.byte	0
 11005 0212 03       		.uleb128 0x3
 11006 0213 08       		.uleb128 0x8
 11007 0214 3A       		.uleb128 0x3a
 11008 0215 0B       		.uleb128 0xb
 11009 0216 3B       		.uleb128 0x3b
 11010 0217 0B       		.uleb128 0xb
ARM GAS  C:\Users\jo\AppData\Local\Temp\cc67lm3z.s 			page 197


 11011 0218 49       		.uleb128 0x49
 11012 0219 13       		.uleb128 0x13
 11013 021a 00       		.byte	0
 11014 021b 00       		.byte	0
 11015 021c 2B       		.uleb128 0x2b
 11016 021d 18       		.uleb128 0x18
 11017 021e 00       		.byte	0
 11018 021f 00       		.byte	0
 11019 0220 00       		.byte	0
 11020 0221 2C       		.uleb128 0x2c
 11021 0222 34       		.uleb128 0x34
 11022 0223 00       		.byte	0
 11023 0224 03       		.uleb128 0x3
 11024 0225 08       		.uleb128 0x8
 11025 0226 3A       		.uleb128 0x3a
 11026 0227 0B       		.uleb128 0xb
 11027 0228 3B       		.uleb128 0x3b
 11028 0229 0B       		.uleb128 0xb
 11029 022a 49       		.uleb128 0x49
 11030 022b 13       		.uleb128 0x13
 11031 022c 00       		.byte	0
 11032 022d 00       		.byte	0
 11033 022e 2D       		.uleb128 0x2d
 11034 022f 34       		.uleb128 0x34
 11035 0230 00       		.byte	0
 11036 0231 03       		.uleb128 0x3
 11037 0232 0E       		.uleb128 0xe
 11038 0233 3A       		.uleb128 0x3a
 11039 0234 0B       		.uleb128 0xb
 11040 0235 3B       		.uleb128 0x3b
 11041 0236 0B       		.uleb128 0xb
 11042 0237 49       		.uleb128 0x49
 11043 0238 13       		.uleb128 0x13
 11044 0239 00       		.byte	0
 11045 023a 00       		.byte	0
 11046 023b 2E       		.uleb128 0x2e
 11047 023c 2E       		.uleb128 0x2e
 11048 023d 01       		.byte	0x1
 11049 023e 03       		.uleb128 0x3
 11050 023f 0E       		.uleb128 0xe
 11051 0240 3A       		.uleb128 0x3a
 11052 0241 0B       		.uleb128 0xb
 11053 0242 3B       		.uleb128 0x3b
 11054 0243 05       		.uleb128 0x5
 11055 0244 27       		.uleb128 0x27
 11056 0245 19       		.uleb128 0x19
 11057 0246 49       		.uleb128 0x49
 11058 0247 13       		.uleb128 0x13
 11059 0248 11       		.uleb128 0x11
 11060 0249 01       		.uleb128 0x1
 11061 024a 12       		.uleb128 0x12
 11062 024b 06       		.uleb128 0x6
 11063 024c 40       		.uleb128 0x40
 11064 024d 18       		.uleb128 0x18
 11065 024e 9742     		.uleb128 0x2117
 11066 0250 19       		.uleb128 0x19
 11067 0251 01       		.uleb128 0x1
ARM GAS  C:\Users\jo\AppData\Local\Temp\cc67lm3z.s 			page 198


 11068 0252 13       		.uleb128 0x13
 11069 0253 00       		.byte	0
 11070 0254 00       		.byte	0
 11071 0255 2F       		.uleb128 0x2f
 11072 0256 05       		.uleb128 0x5
 11073 0257 00       		.byte	0
 11074 0258 03       		.uleb128 0x3
 11075 0259 08       		.uleb128 0x8
 11076 025a 3A       		.uleb128 0x3a
 11077 025b 0B       		.uleb128 0xb
 11078 025c 3B       		.uleb128 0x3b
 11079 025d 05       		.uleb128 0x5
 11080 025e 49       		.uleb128 0x49
 11081 025f 13       		.uleb128 0x13
 11082 0260 02       		.uleb128 0x2
 11083 0261 17       		.uleb128 0x17
 11084 0262 00       		.byte	0
 11085 0263 00       		.byte	0
 11086 0264 30       		.uleb128 0x30
 11087 0265 05       		.uleb128 0x5
 11088 0266 00       		.byte	0
 11089 0267 03       		.uleb128 0x3
 11090 0268 08       		.uleb128 0x8
 11091 0269 3A       		.uleb128 0x3a
 11092 026a 0B       		.uleb128 0xb
 11093 026b 3B       		.uleb128 0x3b
 11094 026c 05       		.uleb128 0x5
 11095 026d 49       		.uleb128 0x49
 11096 026e 13       		.uleb128 0x13
 11097 026f 02       		.uleb128 0x2
 11098 0270 18       		.uleb128 0x18
 11099 0271 00       		.byte	0
 11100 0272 00       		.byte	0
 11101 0273 31       		.uleb128 0x31
 11102 0274 34       		.uleb128 0x34
 11103 0275 00       		.byte	0
 11104 0276 03       		.uleb128 0x3
 11105 0277 08       		.uleb128 0x8
 11106 0278 3A       		.uleb128 0x3a
 11107 0279 0B       		.uleb128 0xb
 11108 027a 3B       		.uleb128 0x3b
 11109 027b 05       		.uleb128 0x5
 11110 027c 49       		.uleb128 0x49
 11111 027d 13       		.uleb128 0x13
 11112 027e 02       		.uleb128 0x2
 11113 027f 17       		.uleb128 0x17
 11114 0280 00       		.byte	0
 11115 0281 00       		.byte	0
 11116 0282 32       		.uleb128 0x32
 11117 0283 34       		.uleb128 0x34
 11118 0284 00       		.byte	0
 11119 0285 03       		.uleb128 0x3
 11120 0286 08       		.uleb128 0x8
 11121 0287 3A       		.uleb128 0x3a
 11122 0288 0B       		.uleb128 0xb
 11123 0289 3B       		.uleb128 0x3b
 11124 028a 05       		.uleb128 0x5
ARM GAS  C:\Users\jo\AppData\Local\Temp\cc67lm3z.s 			page 199


 11125 028b 49       		.uleb128 0x49
 11126 028c 13       		.uleb128 0x13
 11127 028d 02       		.uleb128 0x2
 11128 028e 18       		.uleb128 0x18
 11129 028f 00       		.byte	0
 11130 0290 00       		.byte	0
 11131 0291 33       		.uleb128 0x33
 11132 0292 0A       		.uleb128 0xa
 11133 0293 00       		.byte	0
 11134 0294 03       		.uleb128 0x3
 11135 0295 0E       		.uleb128 0xe
 11136 0296 3A       		.uleb128 0x3a
 11137 0297 0B       		.uleb128 0xb
 11138 0298 3B       		.uleb128 0x3b
 11139 0299 05       		.uleb128 0x5
 11140 029a 11       		.uleb128 0x11
 11141 029b 01       		.uleb128 0x1
 11142 029c 00       		.byte	0
 11143 029d 00       		.byte	0
 11144 029e 34       		.uleb128 0x34
 11145 029f 2E       		.uleb128 0x2e
 11146 02a0 01       		.byte	0x1
 11147 02a1 31       		.uleb128 0x31
 11148 02a2 13       		.uleb128 0x13
 11149 02a3 11       		.uleb128 0x11
 11150 02a4 01       		.uleb128 0x1
 11151 02a5 12       		.uleb128 0x12
 11152 02a6 06       		.uleb128 0x6
 11153 02a7 40       		.uleb128 0x40
 11154 02a8 18       		.uleb128 0x18
 11155 02a9 9742     		.uleb128 0x2117
 11156 02ab 19       		.uleb128 0x19
 11157 02ac 01       		.uleb128 0x1
 11158 02ad 13       		.uleb128 0x13
 11159 02ae 00       		.byte	0
 11160 02af 00       		.byte	0
 11161 02b0 35       		.uleb128 0x35
 11162 02b1 05       		.uleb128 0x5
 11163 02b2 00       		.byte	0
 11164 02b3 31       		.uleb128 0x31
 11165 02b4 13       		.uleb128 0x13
 11166 02b5 02       		.uleb128 0x2
 11167 02b6 17       		.uleb128 0x17
 11168 02b7 00       		.byte	0
 11169 02b8 00       		.byte	0
 11170 02b9 36       		.uleb128 0x36
 11171 02ba 05       		.uleb128 0x5
 11172 02bb 00       		.byte	0
 11173 02bc 31       		.uleb128 0x31
 11174 02bd 13       		.uleb128 0x13
 11175 02be 02       		.uleb128 0x2
 11176 02bf 18       		.uleb128 0x18
 11177 02c0 00       		.byte	0
 11178 02c1 00       		.byte	0
 11179 02c2 37       		.uleb128 0x37
 11180 02c3 34       		.uleb128 0x34
 11181 02c4 00       		.byte	0
ARM GAS  C:\Users\jo\AppData\Local\Temp\cc67lm3z.s 			page 200


 11182 02c5 31       		.uleb128 0x31
 11183 02c6 13       		.uleb128 0x13
 11184 02c7 02       		.uleb128 0x2
 11185 02c8 18       		.uleb128 0x18
 11186 02c9 00       		.byte	0
 11187 02ca 00       		.byte	0
 11188 02cb 38       		.uleb128 0x38
 11189 02cc 05       		.uleb128 0x5
 11190 02cd 00       		.byte	0
 11191 02ce 31       		.uleb128 0x31
 11192 02cf 13       		.uleb128 0x13
 11193 02d0 00       		.byte	0
 11194 02d1 00       		.byte	0
 11195 02d2 39       		.uleb128 0x39
 11196 02d3 898201   		.uleb128 0x4109
 11197 02d6 01       		.byte	0x1
 11198 02d7 11       		.uleb128 0x11
 11199 02d8 01       		.uleb128 0x1
 11200 02d9 31       		.uleb128 0x31
 11201 02da 13       		.uleb128 0x13
 11202 02db 00       		.byte	0
 11203 02dc 00       		.byte	0
 11204 02dd 3A       		.uleb128 0x3a
 11205 02de 8A8201   		.uleb128 0x410a
 11206 02e1 00       		.byte	0
 11207 02e2 02       		.uleb128 0x2
 11208 02e3 18       		.uleb128 0x18
 11209 02e4 9142     		.uleb128 0x2111
 11210 02e6 18       		.uleb128 0x18
 11211 02e7 00       		.byte	0
 11212 02e8 00       		.byte	0
 11213 02e9 3B       		.uleb128 0x3b
 11214 02ea 2E       		.uleb128 0x2e
 11215 02eb 00       		.byte	0
 11216 02ec 3F       		.uleb128 0x3f
 11217 02ed 19       		.uleb128 0x19
 11218 02ee 03       		.uleb128 0x3
 11219 02ef 0E       		.uleb128 0xe
 11220 02f0 3A       		.uleb128 0x3a
 11221 02f1 0B       		.uleb128 0xb
 11222 02f2 3B       		.uleb128 0x3b
 11223 02f3 0B       		.uleb128 0xb
 11224 02f4 27       		.uleb128 0x27
 11225 02f5 19       		.uleb128 0x19
 11226 02f6 11       		.uleb128 0x11
 11227 02f7 01       		.uleb128 0x1
 11228 02f8 12       		.uleb128 0x12
 11229 02f9 06       		.uleb128 0x6
 11230 02fa 40       		.uleb128 0x40
 11231 02fb 18       		.uleb128 0x18
 11232 02fc 9742     		.uleb128 0x2117
 11233 02fe 19       		.uleb128 0x19
 11234 02ff 00       		.byte	0
 11235 0300 00       		.byte	0
 11236 0301 3C       		.uleb128 0x3c
 11237 0302 2E       		.uleb128 0x2e
 11238 0303 01       		.byte	0x1
ARM GAS  C:\Users\jo\AppData\Local\Temp\cc67lm3z.s 			page 201


 11239 0304 3F       		.uleb128 0x3f
 11240 0305 19       		.uleb128 0x19
 11241 0306 03       		.uleb128 0x3
 11242 0307 0E       		.uleb128 0xe
 11243 0308 3A       		.uleb128 0x3a
 11244 0309 0B       		.uleb128 0xb
 11245 030a 3B       		.uleb128 0x3b
 11246 030b 05       		.uleb128 0x5
 11247 030c 27       		.uleb128 0x27
 11248 030d 19       		.uleb128 0x19
 11249 030e 49       		.uleb128 0x49
 11250 030f 13       		.uleb128 0x13
 11251 0310 11       		.uleb128 0x11
 11252 0311 01       		.uleb128 0x1
 11253 0312 12       		.uleb128 0x12
 11254 0313 06       		.uleb128 0x6
 11255 0314 40       		.uleb128 0x40
 11256 0315 18       		.uleb128 0x18
 11257 0316 9742     		.uleb128 0x2117
 11258 0318 19       		.uleb128 0x19
 11259 0319 01       		.uleb128 0x1
 11260 031a 13       		.uleb128 0x13
 11261 031b 00       		.byte	0
 11262 031c 00       		.byte	0
 11263 031d 3D       		.uleb128 0x3d
 11264 031e 05       		.uleb128 0x5
 11265 031f 00       		.byte	0
 11266 0320 03       		.uleb128 0x3
 11267 0321 0E       		.uleb128 0xe
 11268 0322 3A       		.uleb128 0x3a
 11269 0323 0B       		.uleb128 0xb
 11270 0324 3B       		.uleb128 0x3b
 11271 0325 05       		.uleb128 0x5
 11272 0326 49       		.uleb128 0x49
 11273 0327 13       		.uleb128 0x13
 11274 0328 02       		.uleb128 0x2
 11275 0329 17       		.uleb128 0x17
 11276 032a 00       		.byte	0
 11277 032b 00       		.byte	0
 11278 032c 3E       		.uleb128 0x3e
 11279 032d 34       		.uleb128 0x34
 11280 032e 00       		.byte	0
 11281 032f 03       		.uleb128 0x3
 11282 0330 0E       		.uleb128 0xe
 11283 0331 3A       		.uleb128 0x3a
 11284 0332 0B       		.uleb128 0xb
 11285 0333 3B       		.uleb128 0x3b
 11286 0334 05       		.uleb128 0x5
 11287 0335 49       		.uleb128 0x49
 11288 0336 13       		.uleb128 0x13
 11289 0337 1C       		.uleb128 0x1c
 11290 0338 0B       		.uleb128 0xb
 11291 0339 00       		.byte	0
 11292 033a 00       		.byte	0
 11293 033b 3F       		.uleb128 0x3f
 11294 033c 34       		.uleb128 0x34
 11295 033d 00       		.byte	0
ARM GAS  C:\Users\jo\AppData\Local\Temp\cc67lm3z.s 			page 202


 11296 033e 03       		.uleb128 0x3
 11297 033f 0E       		.uleb128 0xe
 11298 0340 3A       		.uleb128 0x3a
 11299 0341 0B       		.uleb128 0xb
 11300 0342 3B       		.uleb128 0x3b
 11301 0343 05       		.uleb128 0x5
 11302 0344 49       		.uleb128 0x49
 11303 0345 13       		.uleb128 0x13
 11304 0346 02       		.uleb128 0x2
 11305 0347 17       		.uleb128 0x17
 11306 0348 00       		.byte	0
 11307 0349 00       		.byte	0
 11308 034a 40       		.uleb128 0x40
 11309 034b 1D       		.uleb128 0x1d
 11310 034c 01       		.byte	0x1
 11311 034d 31       		.uleb128 0x31
 11312 034e 13       		.uleb128 0x13
 11313 034f 11       		.uleb128 0x11
 11314 0350 01       		.uleb128 0x1
 11315 0351 12       		.uleb128 0x12
 11316 0352 06       		.uleb128 0x6
 11317 0353 58       		.uleb128 0x58
 11318 0354 0B       		.uleb128 0xb
 11319 0355 59       		.uleb128 0x59
 11320 0356 05       		.uleb128 0x5
 11321 0357 01       		.uleb128 0x1
 11322 0358 13       		.uleb128 0x13
 11323 0359 00       		.byte	0
 11324 035a 00       		.byte	0
 11325 035b 41       		.uleb128 0x41
 11326 035c 898201   		.uleb128 0x4109
 11327 035f 00       		.byte	0
 11328 0360 11       		.uleb128 0x11
 11329 0361 01       		.uleb128 0x1
 11330 0362 31       		.uleb128 0x31
 11331 0363 13       		.uleb128 0x13
 11332 0364 00       		.byte	0
 11333 0365 00       		.byte	0
 11334 0366 42       		.uleb128 0x42
 11335 0367 898201   		.uleb128 0x4109
 11336 036a 01       		.byte	0x1
 11337 036b 11       		.uleb128 0x11
 11338 036c 01       		.uleb128 0x1
 11339 036d 31       		.uleb128 0x31
 11340 036e 13       		.uleb128 0x13
 11341 036f 01       		.uleb128 0x1
 11342 0370 13       		.uleb128 0x13
 11343 0371 00       		.byte	0
 11344 0372 00       		.byte	0
 11345 0373 43       		.uleb128 0x43
 11346 0374 0B       		.uleb128 0xb
 11347 0375 01       		.byte	0x1
 11348 0376 55       		.uleb128 0x55
 11349 0377 17       		.uleb128 0x17
 11350 0378 00       		.byte	0
 11351 0379 00       		.byte	0
 11352 037a 44       		.uleb128 0x44
ARM GAS  C:\Users\jo\AppData\Local\Temp\cc67lm3z.s 			page 203


 11353 037b 34       		.uleb128 0x34
 11354 037c 00       		.byte	0
 11355 037d 03       		.uleb128 0x3
 11356 037e 0E       		.uleb128 0xe
 11357 037f 3A       		.uleb128 0x3a
 11358 0380 0B       		.uleb128 0xb
 11359 0381 3B       		.uleb128 0x3b
 11360 0382 05       		.uleb128 0x5
 11361 0383 49       		.uleb128 0x49
 11362 0384 13       		.uleb128 0x13
 11363 0385 02       		.uleb128 0x2
 11364 0386 18       		.uleb128 0x18
 11365 0387 00       		.byte	0
 11366 0388 00       		.byte	0
 11367 0389 45       		.uleb128 0x45
 11368 038a 34       		.uleb128 0x34
 11369 038b 00       		.byte	0
 11370 038c 31       		.uleb128 0x31
 11371 038d 13       		.uleb128 0x13
 11372 038e 02       		.uleb128 0x2
 11373 038f 17       		.uleb128 0x17
 11374 0390 00       		.byte	0
 11375 0391 00       		.byte	0
 11376 0392 46       		.uleb128 0x46
 11377 0393 0B       		.uleb128 0xb
 11378 0394 01       		.byte	0x1
 11379 0395 55       		.uleb128 0x55
 11380 0396 17       		.uleb128 0x17
 11381 0397 01       		.uleb128 0x1
 11382 0398 13       		.uleb128 0x13
 11383 0399 00       		.byte	0
 11384 039a 00       		.byte	0
 11385 039b 47       		.uleb128 0x47
 11386 039c 34       		.uleb128 0x34
 11387 039d 00       		.byte	0
 11388 039e 31       		.uleb128 0x31
 11389 039f 13       		.uleb128 0x13
 11390 03a0 00       		.byte	0
 11391 03a1 00       		.byte	0
 11392 03a2 48       		.uleb128 0x48
 11393 03a3 898201   		.uleb128 0x4109
 11394 03a6 01       		.byte	0x1
 11395 03a7 11       		.uleb128 0x11
 11396 03a8 01       		.uleb128 0x1
 11397 03a9 9542     		.uleb128 0x2115
 11398 03ab 19       		.uleb128 0x19
 11399 03ac 31       		.uleb128 0x31
 11400 03ad 13       		.uleb128 0x13
 11401 03ae 00       		.byte	0
 11402 03af 00       		.byte	0
 11403 03b0 49       		.uleb128 0x49
 11404 03b1 2E       		.uleb128 0x2e
 11405 03b2 01       		.byte	0x1
 11406 03b3 3F       		.uleb128 0x3f
 11407 03b4 19       		.uleb128 0x19
 11408 03b5 03       		.uleb128 0x3
 11409 03b6 0E       		.uleb128 0xe
ARM GAS  C:\Users\jo\AppData\Local\Temp\cc67lm3z.s 			page 204


 11410 03b7 3A       		.uleb128 0x3a
 11411 03b8 0B       		.uleb128 0xb
 11412 03b9 3B       		.uleb128 0x3b
 11413 03ba 05       		.uleb128 0x5
 11414 03bb 27       		.uleb128 0x27
 11415 03bc 19       		.uleb128 0x19
 11416 03bd 11       		.uleb128 0x11
 11417 03be 01       		.uleb128 0x1
 11418 03bf 12       		.uleb128 0x12
 11419 03c0 06       		.uleb128 0x6
 11420 03c1 40       		.uleb128 0x40
 11421 03c2 18       		.uleb128 0x18
 11422 03c3 9742     		.uleb128 0x2117
 11423 03c5 19       		.uleb128 0x19
 11424 03c6 01       		.uleb128 0x1
 11425 03c7 13       		.uleb128 0x13
 11426 03c8 00       		.byte	0
 11427 03c9 00       		.byte	0
 11428 03ca 4A       		.uleb128 0x4a
 11429 03cb 0B       		.uleb128 0xb
 11430 03cc 01       		.byte	0x1
 11431 03cd 11       		.uleb128 0x11
 11432 03ce 01       		.uleb128 0x1
 11433 03cf 12       		.uleb128 0x12
 11434 03d0 06       		.uleb128 0x6
 11435 03d1 00       		.byte	0
 11436 03d2 00       		.byte	0
 11437 03d3 4B       		.uleb128 0x4b
 11438 03d4 05       		.uleb128 0x5
 11439 03d5 00       		.byte	0
 11440 03d6 03       		.uleb128 0x3
 11441 03d7 0E       		.uleb128 0xe
 11442 03d8 3A       		.uleb128 0x3a
 11443 03d9 0B       		.uleb128 0xb
 11444 03da 3B       		.uleb128 0x3b
 11445 03db 05       		.uleb128 0x5
 11446 03dc 49       		.uleb128 0x49
 11447 03dd 13       		.uleb128 0x13
 11448 03de 02       		.uleb128 0x2
 11449 03df 18       		.uleb128 0x18
 11450 03e0 00       		.byte	0
 11451 03e1 00       		.byte	0
 11452 03e2 4C       		.uleb128 0x4c
 11453 03e3 0A       		.uleb128 0xa
 11454 03e4 00       		.byte	0
 11455 03e5 03       		.uleb128 0x3
 11456 03e6 0E       		.uleb128 0xe
 11457 03e7 3A       		.uleb128 0x3a
 11458 03e8 0B       		.uleb128 0xb
 11459 03e9 3B       		.uleb128 0x3b
 11460 03ea 05       		.uleb128 0x5
 11461 03eb 00       		.byte	0
 11462 03ec 00       		.byte	0
 11463 03ed 4D       		.uleb128 0x4d
 11464 03ee 898201   		.uleb128 0x4109
 11465 03f1 01       		.byte	0x1
 11466 03f2 11       		.uleb128 0x11
ARM GAS  C:\Users\jo\AppData\Local\Temp\cc67lm3z.s 			page 205


 11467 03f3 01       		.uleb128 0x1
 11468 03f4 9342     		.uleb128 0x2113
 11469 03f6 18       		.uleb128 0x18
 11470 03f7 01       		.uleb128 0x1
 11471 03f8 13       		.uleb128 0x13
 11472 03f9 00       		.byte	0
 11473 03fa 00       		.byte	0
 11474 03fb 4E       		.uleb128 0x4e
 11475 03fc 898201   		.uleb128 0x4109
 11476 03ff 01       		.byte	0x1
 11477 0400 11       		.uleb128 0x11
 11478 0401 01       		.uleb128 0x1
 11479 0402 01       		.uleb128 0x1
 11480 0403 13       		.uleb128 0x13
 11481 0404 00       		.byte	0
 11482 0405 00       		.byte	0
 11483 0406 4F       		.uleb128 0x4f
 11484 0407 2E       		.uleb128 0x2e
 11485 0408 01       		.byte	0x1
 11486 0409 03       		.uleb128 0x3
 11487 040a 0E       		.uleb128 0xe
 11488 040b 3A       		.uleb128 0x3a
 11489 040c 0B       		.uleb128 0xb
 11490 040d 3B       		.uleb128 0x3b
 11491 040e 0B       		.uleb128 0xb
 11492 040f 27       		.uleb128 0x27
 11493 0410 19       		.uleb128 0x19
 11494 0411 49       		.uleb128 0x49
 11495 0412 13       		.uleb128 0x13
 11496 0413 11       		.uleb128 0x11
 11497 0414 01       		.uleb128 0x1
 11498 0415 12       		.uleb128 0x12
 11499 0416 06       		.uleb128 0x6
 11500 0417 40       		.uleb128 0x40
 11501 0418 18       		.uleb128 0x18
 11502 0419 9742     		.uleb128 0x2117
 11503 041b 19       		.uleb128 0x19
 11504 041c 01       		.uleb128 0x1
 11505 041d 13       		.uleb128 0x13
 11506 041e 00       		.byte	0
 11507 041f 00       		.byte	0
 11508 0420 50       		.uleb128 0x50
 11509 0421 05       		.uleb128 0x5
 11510 0422 00       		.byte	0
 11511 0423 03       		.uleb128 0x3
 11512 0424 08       		.uleb128 0x8
 11513 0425 3A       		.uleb128 0x3a
 11514 0426 0B       		.uleb128 0xb
 11515 0427 3B       		.uleb128 0x3b
 11516 0428 0B       		.uleb128 0xb
 11517 0429 49       		.uleb128 0x49
 11518 042a 13       		.uleb128 0x13
 11519 042b 02       		.uleb128 0x2
 11520 042c 17       		.uleb128 0x17
 11521 042d 00       		.byte	0
 11522 042e 00       		.byte	0
 11523 042f 51       		.uleb128 0x51
ARM GAS  C:\Users\jo\AppData\Local\Temp\cc67lm3z.s 			page 206


 11524 0430 05       		.uleb128 0x5
 11525 0431 00       		.byte	0
 11526 0432 03       		.uleb128 0x3
 11527 0433 0E       		.uleb128 0xe
 11528 0434 3A       		.uleb128 0x3a
 11529 0435 0B       		.uleb128 0xb
 11530 0436 3B       		.uleb128 0x3b
 11531 0437 0B       		.uleb128 0xb
 11532 0438 49       		.uleb128 0x49
 11533 0439 13       		.uleb128 0x13
 11534 043a 02       		.uleb128 0x2
 11535 043b 17       		.uleb128 0x17
 11536 043c 00       		.byte	0
 11537 043d 00       		.byte	0
 11538 043e 52       		.uleb128 0x52
 11539 043f 34       		.uleb128 0x34
 11540 0440 00       		.byte	0
 11541 0441 03       		.uleb128 0x3
 11542 0442 08       		.uleb128 0x8
 11543 0443 3A       		.uleb128 0x3a
 11544 0444 0B       		.uleb128 0xb
 11545 0445 3B       		.uleb128 0x3b
 11546 0446 0B       		.uleb128 0xb
 11547 0447 49       		.uleb128 0x49
 11548 0448 13       		.uleb128 0x13
 11549 0449 02       		.uleb128 0x2
 11550 044a 17       		.uleb128 0x17
 11551 044b 00       		.byte	0
 11552 044c 00       		.byte	0
 11553 044d 53       		.uleb128 0x53
 11554 044e 1D       		.uleb128 0x1d
 11555 044f 01       		.byte	0x1
 11556 0450 31       		.uleb128 0x31
 11557 0451 13       		.uleb128 0x13
 11558 0452 11       		.uleb128 0x11
 11559 0453 01       		.uleb128 0x1
 11560 0454 12       		.uleb128 0x12
 11561 0455 06       		.uleb128 0x6
 11562 0456 58       		.uleb128 0x58
 11563 0457 0B       		.uleb128 0xb
 11564 0458 59       		.uleb128 0x59
 11565 0459 0B       		.uleb128 0xb
 11566 045a 01       		.uleb128 0x1
 11567 045b 13       		.uleb128 0x13
 11568 045c 00       		.byte	0
 11569 045d 00       		.byte	0
 11570 045e 54       		.uleb128 0x54
 11571 045f 05       		.uleb128 0x5
 11572 0460 00       		.byte	0
 11573 0461 31       		.uleb128 0x31
 11574 0462 13       		.uleb128 0x13
 11575 0463 1C       		.uleb128 0x1c
 11576 0464 0B       		.uleb128 0xb
 11577 0465 00       		.byte	0
 11578 0466 00       		.byte	0
 11579 0467 55       		.uleb128 0x55
 11580 0468 898201   		.uleb128 0x4109
ARM GAS  C:\Users\jo\AppData\Local\Temp\cc67lm3z.s 			page 207


 11581 046b 01       		.byte	0x1
 11582 046c 11       		.uleb128 0x11
 11583 046d 01       		.uleb128 0x1
 11584 046e 9342     		.uleb128 0x2113
 11585 0470 18       		.uleb128 0x18
 11586 0471 00       		.byte	0
 11587 0472 00       		.byte	0
 11588 0473 56       		.uleb128 0x56
 11589 0474 2E       		.uleb128 0x2e
 11590 0475 01       		.byte	0x1
 11591 0476 3F       		.uleb128 0x3f
 11592 0477 19       		.uleb128 0x19
 11593 0478 03       		.uleb128 0x3
 11594 0479 0E       		.uleb128 0xe
 11595 047a 3A       		.uleb128 0x3a
 11596 047b 0B       		.uleb128 0xb
 11597 047c 3B       		.uleb128 0x3b
 11598 047d 0B       		.uleb128 0xb
 11599 047e 27       		.uleb128 0x27
 11600 047f 19       		.uleb128 0x19
 11601 0480 11       		.uleb128 0x11
 11602 0481 01       		.uleb128 0x1
 11603 0482 12       		.uleb128 0x12
 11604 0483 06       		.uleb128 0x6
 11605 0484 40       		.uleb128 0x40
 11606 0485 18       		.uleb128 0x18
 11607 0486 9742     		.uleb128 0x2117
 11608 0488 19       		.uleb128 0x19
 11609 0489 01       		.uleb128 0x1
 11610 048a 13       		.uleb128 0x13
 11611 048b 00       		.byte	0
 11612 048c 00       		.byte	0
 11613 048d 57       		.uleb128 0x57
 11614 048e 898201   		.uleb128 0x4109
 11615 0491 00       		.byte	0
 11616 0492 11       		.uleb128 0x11
 11617 0493 01       		.uleb128 0x1
 11618 0494 9542     		.uleb128 0x2115
 11619 0496 19       		.uleb128 0x19
 11620 0497 31       		.uleb128 0x31
 11621 0498 13       		.uleb128 0x13
 11622 0499 00       		.byte	0
 11623 049a 00       		.byte	0
 11624 049b 58       		.uleb128 0x58
 11625 049c 898201   		.uleb128 0x4109
 11626 049f 01       		.byte	0x1
 11627 04a0 11       		.uleb128 0x11
 11628 04a1 01       		.uleb128 0x1
 11629 04a2 9542     		.uleb128 0x2115
 11630 04a4 19       		.uleb128 0x19
 11631 04a5 01       		.uleb128 0x1
 11632 04a6 13       		.uleb128 0x13
 11633 04a7 00       		.byte	0
 11634 04a8 00       		.byte	0
 11635 04a9 59       		.uleb128 0x59
 11636 04aa 898201   		.uleb128 0x4109
 11637 04ad 01       		.byte	0x1
ARM GAS  C:\Users\jo\AppData\Local\Temp\cc67lm3z.s 			page 208


 11638 04ae 11       		.uleb128 0x11
 11639 04af 01       		.uleb128 0x1
 11640 04b0 9542     		.uleb128 0x2115
 11641 04b2 19       		.uleb128 0x19
 11642 04b3 31       		.uleb128 0x31
 11643 04b4 13       		.uleb128 0x13
 11644 04b5 01       		.uleb128 0x1
 11645 04b6 13       		.uleb128 0x13
 11646 04b7 00       		.byte	0
 11647 04b8 00       		.byte	0
 11648 04b9 5A       		.uleb128 0x5a
 11649 04ba 1D       		.uleb128 0x1d
 11650 04bb 01       		.byte	0x1
 11651 04bc 31       		.uleb128 0x31
 11652 04bd 13       		.uleb128 0x13
 11653 04be 52       		.uleb128 0x52
 11654 04bf 01       		.uleb128 0x1
 11655 04c0 55       		.uleb128 0x55
 11656 04c1 17       		.uleb128 0x17
 11657 04c2 58       		.uleb128 0x58
 11658 04c3 0B       		.uleb128 0xb
 11659 04c4 59       		.uleb128 0x59
 11660 04c5 05       		.uleb128 0x5
 11661 04c6 01       		.uleb128 0x1
 11662 04c7 13       		.uleb128 0x13
 11663 04c8 00       		.byte	0
 11664 04c9 00       		.byte	0
 11665 04ca 5B       		.uleb128 0x5b
 11666 04cb 1D       		.uleb128 0x1d
 11667 04cc 01       		.byte	0x1
 11668 04cd 31       		.uleb128 0x31
 11669 04ce 13       		.uleb128 0x13
 11670 04cf 11       		.uleb128 0x11
 11671 04d0 01       		.uleb128 0x1
 11672 04d1 12       		.uleb128 0x12
 11673 04d2 06       		.uleb128 0x6
 11674 04d3 58       		.uleb128 0x58
 11675 04d4 0B       		.uleb128 0xb
 11676 04d5 59       		.uleb128 0x59
 11677 04d6 05       		.uleb128 0x5
 11678 04d7 00       		.byte	0
 11679 04d8 00       		.byte	0
 11680 04d9 5C       		.uleb128 0x5c
 11681 04da 34       		.uleb128 0x34
 11682 04db 00       		.byte	0
 11683 04dc 03       		.uleb128 0x3
 11684 04dd 0E       		.uleb128 0xe
 11685 04de 3A       		.uleb128 0x3a
 11686 04df 0B       		.uleb128 0xb
 11687 04e0 3B       		.uleb128 0x3b
 11688 04e1 0B       		.uleb128 0xb
 11689 04e2 49       		.uleb128 0x49
 11690 04e3 13       		.uleb128 0x13
 11691 04e4 02       		.uleb128 0x2
 11692 04e5 18       		.uleb128 0x18
 11693 04e6 00       		.byte	0
 11694 04e7 00       		.byte	0
ARM GAS  C:\Users\jo\AppData\Local\Temp\cc67lm3z.s 			page 209


 11695 04e8 5D       		.uleb128 0x5d
 11696 04e9 34       		.uleb128 0x34
 11697 04ea 00       		.byte	0
 11698 04eb 03       		.uleb128 0x3
 11699 04ec 0E       		.uleb128 0xe
 11700 04ed 3A       		.uleb128 0x3a
 11701 04ee 0B       		.uleb128 0xb
 11702 04ef 3B       		.uleb128 0x3b
 11703 04f0 05       		.uleb128 0x5
 11704 04f1 49       		.uleb128 0x49
 11705 04f2 13       		.uleb128 0x13
 11706 04f3 3F       		.uleb128 0x3f
 11707 04f4 19       		.uleb128 0x19
 11708 04f5 3C       		.uleb128 0x3c
 11709 04f6 19       		.uleb128 0x19
 11710 04f7 00       		.byte	0
 11711 04f8 00       		.byte	0
 11712 04f9 5E       		.uleb128 0x5e
 11713 04fa 34       		.uleb128 0x34
 11714 04fb 00       		.byte	0
 11715 04fc 03       		.uleb128 0x3
 11716 04fd 08       		.uleb128 0x8
 11717 04fe 3A       		.uleb128 0x3a
 11718 04ff 0B       		.uleb128 0xb
 11719 0500 3B       		.uleb128 0x3b
 11720 0501 05       		.uleb128 0x5
 11721 0502 49       		.uleb128 0x49
 11722 0503 13       		.uleb128 0x13
 11723 0504 3F       		.uleb128 0x3f
 11724 0505 19       		.uleb128 0x19
 11725 0506 3C       		.uleb128 0x3c
 11726 0507 19       		.uleb128 0x19
 11727 0508 00       		.byte	0
 11728 0509 00       		.byte	0
 11729 050a 5F       		.uleb128 0x5f
 11730 050b 34       		.uleb128 0x34
 11731 050c 00       		.byte	0
 11732 050d 03       		.uleb128 0x3
 11733 050e 0E       		.uleb128 0xe
 11734 050f 3A       		.uleb128 0x3a
 11735 0510 0B       		.uleb128 0xb
 11736 0511 3B       		.uleb128 0x3b
 11737 0512 0B       		.uleb128 0xb
 11738 0513 49       		.uleb128 0x49
 11739 0514 13       		.uleb128 0x13
 11740 0515 3F       		.uleb128 0x3f
 11741 0516 19       		.uleb128 0x19
 11742 0517 3C       		.uleb128 0x3c
 11743 0518 19       		.uleb128 0x19
 11744 0519 00       		.byte	0
 11745 051a 00       		.byte	0
 11746 051b 60       		.uleb128 0x60
 11747 051c 34       		.uleb128 0x34
 11748 051d 00       		.byte	0
 11749 051e 03       		.uleb128 0x3
 11750 051f 0E       		.uleb128 0xe
 11751 0520 3A       		.uleb128 0x3a
ARM GAS  C:\Users\jo\AppData\Local\Temp\cc67lm3z.s 			page 210


 11752 0521 0B       		.uleb128 0xb
 11753 0522 3B       		.uleb128 0x3b
 11754 0523 0B       		.uleb128 0xb
 11755 0524 49       		.uleb128 0x49
 11756 0525 13       		.uleb128 0x13
 11757 0526 3F       		.uleb128 0x3f
 11758 0527 19       		.uleb128 0x19
 11759 0528 02       		.uleb128 0x2
 11760 0529 18       		.uleb128 0x18
 11761 052a 00       		.byte	0
 11762 052b 00       		.byte	0
 11763 052c 61       		.uleb128 0x61
 11764 052d 2E       		.uleb128 0x2e
 11765 052e 01       		.byte	0x1
 11766 052f 3F       		.uleb128 0x3f
 11767 0530 19       		.uleb128 0x19
 11768 0531 03       		.uleb128 0x3
 11769 0532 0E       		.uleb128 0xe
 11770 0533 3A       		.uleb128 0x3a
 11771 0534 0B       		.uleb128 0xb
 11772 0535 3B       		.uleb128 0x3b
 11773 0536 0B       		.uleb128 0xb
 11774 0537 27       		.uleb128 0x27
 11775 0538 19       		.uleb128 0x19
 11776 0539 49       		.uleb128 0x49
 11777 053a 13       		.uleb128 0x13
 11778 053b 3C       		.uleb128 0x3c
 11779 053c 19       		.uleb128 0x19
 11780 053d 01       		.uleb128 0x1
 11781 053e 13       		.uleb128 0x13
 11782 053f 00       		.byte	0
 11783 0540 00       		.byte	0
 11784 0541 62       		.uleb128 0x62
 11785 0542 2E       		.uleb128 0x2e
 11786 0543 01       		.byte	0x1
 11787 0544 3F       		.uleb128 0x3f
 11788 0545 19       		.uleb128 0x19
 11789 0546 03       		.uleb128 0x3
 11790 0547 0E       		.uleb128 0xe
 11791 0548 3A       		.uleb128 0x3a
 11792 0549 0B       		.uleb128 0xb
 11793 054a 3B       		.uleb128 0x3b
 11794 054b 0B       		.uleb128 0xb
 11795 054c 27       		.uleb128 0x27
 11796 054d 19       		.uleb128 0x19
 11797 054e 3C       		.uleb128 0x3c
 11798 054f 19       		.uleb128 0x19
 11799 0550 01       		.uleb128 0x1
 11800 0551 13       		.uleb128 0x13
 11801 0552 00       		.byte	0
 11802 0553 00       		.byte	0
 11803 0554 63       		.uleb128 0x63
 11804 0555 2E       		.uleb128 0x2e
 11805 0556 00       		.byte	0
 11806 0557 3F       		.uleb128 0x3f
 11807 0558 19       		.uleb128 0x19
 11808 0559 03       		.uleb128 0x3
ARM GAS  C:\Users\jo\AppData\Local\Temp\cc67lm3z.s 			page 211


 11809 055a 0E       		.uleb128 0xe
 11810 055b 3A       		.uleb128 0x3a
 11811 055c 0B       		.uleb128 0xb
 11812 055d 3B       		.uleb128 0x3b
 11813 055e 05       		.uleb128 0x5
 11814 055f 27       		.uleb128 0x27
 11815 0560 19       		.uleb128 0x19
 11816 0561 3C       		.uleb128 0x3c
 11817 0562 19       		.uleb128 0x19
 11818 0563 00       		.byte	0
 11819 0564 00       		.byte	0
 11820 0565 64       		.uleb128 0x64
 11821 0566 2E       		.uleb128 0x2e
 11822 0567 01       		.byte	0x1
 11823 0568 3F       		.uleb128 0x3f
 11824 0569 19       		.uleb128 0x19
 11825 056a 03       		.uleb128 0x3
 11826 056b 0E       		.uleb128 0xe
 11827 056c 3A       		.uleb128 0x3a
 11828 056d 0B       		.uleb128 0xb
 11829 056e 3B       		.uleb128 0x3b
 11830 056f 05       		.uleb128 0x5
 11831 0570 27       		.uleb128 0x27
 11832 0571 19       		.uleb128 0x19
 11833 0572 49       		.uleb128 0x49
 11834 0573 13       		.uleb128 0x13
 11835 0574 3C       		.uleb128 0x3c
 11836 0575 19       		.uleb128 0x19
 11837 0576 01       		.uleb128 0x1
 11838 0577 13       		.uleb128 0x13
 11839 0578 00       		.byte	0
 11840 0579 00       		.byte	0
 11841 057a 65       		.uleb128 0x65
 11842 057b 2E       		.uleb128 0x2e
 11843 057c 01       		.byte	0x1
 11844 057d 3F       		.uleb128 0x3f
 11845 057e 19       		.uleb128 0x19
 11846 057f 03       		.uleb128 0x3
 11847 0580 0E       		.uleb128 0xe
 11848 0581 3A       		.uleb128 0x3a
 11849 0582 0B       		.uleb128 0xb
 11850 0583 3B       		.uleb128 0x3b
 11851 0584 05       		.uleb128 0x5
 11852 0585 27       		.uleb128 0x27
 11853 0586 19       		.uleb128 0x19
 11854 0587 3C       		.uleb128 0x3c
 11855 0588 19       		.uleb128 0x19
 11856 0589 01       		.uleb128 0x1
 11857 058a 13       		.uleb128 0x13
 11858 058b 00       		.byte	0
 11859 058c 00       		.byte	0
 11860 058d 66       		.uleb128 0x66
 11861 058e 2E       		.uleb128 0x2e
 11862 058f 01       		.byte	0x1
 11863 0590 3F       		.uleb128 0x3f
 11864 0591 19       		.uleb128 0x19
 11865 0592 03       		.uleb128 0x3
ARM GAS  C:\Users\jo\AppData\Local\Temp\cc67lm3z.s 			page 212


 11866 0593 0E       		.uleb128 0xe
 11867 0594 27       		.uleb128 0x27
 11868 0595 19       		.uleb128 0x19
 11869 0596 49       		.uleb128 0x49
 11870 0597 13       		.uleb128 0x13
 11871 0598 34       		.uleb128 0x34
 11872 0599 19       		.uleb128 0x19
 11873 059a 3C       		.uleb128 0x3c
 11874 059b 19       		.uleb128 0x19
 11875 059c 01       		.uleb128 0x1
 11876 059d 13       		.uleb128 0x13
 11877 059e 00       		.byte	0
 11878 059f 00       		.byte	0
 11879 05a0 67       		.uleb128 0x67
 11880 05a1 2E       		.uleb128 0x2e
 11881 05a2 01       		.byte	0x1
 11882 05a3 3F       		.uleb128 0x3f
 11883 05a4 19       		.uleb128 0x19
 11884 05a5 03       		.uleb128 0x3
 11885 05a6 0E       		.uleb128 0xe
 11886 05a7 3A       		.uleb128 0x3a
 11887 05a8 0B       		.uleb128 0xb
 11888 05a9 3B       		.uleb128 0x3b
 11889 05aa 05       		.uleb128 0x5
 11890 05ab 27       		.uleb128 0x27
 11891 05ac 19       		.uleb128 0x19
 11892 05ad 49       		.uleb128 0x49
 11893 05ae 13       		.uleb128 0x13
 11894 05af 3C       		.uleb128 0x3c
 11895 05b0 19       		.uleb128 0x19
 11896 05b1 00       		.byte	0
 11897 05b2 00       		.byte	0
 11898 05b3 00       		.byte	0
 11899              		.section	.debug_loc,"",%progbits
 11900              	.Ldebug_loc0:
 11901              	.LLST0:
 11902 0000 00000000 		.4byte	.LVL0
 11903 0004 04000000 		.4byte	.LVL1
 11904 0008 0100     		.2byte	0x1
 11905 000a 50       		.byte	0x50
 11906 000b 04000000 		.4byte	.LVL1
 11907 000f 06000000 		.4byte	.LFE264
 11908 0013 0400     		.2byte	0x4
 11909 0015 F3       		.byte	0xf3
 11910 0016 01       		.uleb128 0x1
 11911 0017 50       		.byte	0x50
 11912 0018 9F       		.byte	0x9f
 11913 0019 00000000 		.4byte	0
 11914 001d 00000000 		.4byte	0
 11915              	.LLST1:
 11916 0021 00000000 		.4byte	.LVL2
 11917 0025 10000000 		.4byte	.LVL3
 11918 0029 0200     		.2byte	0x2
 11919 002b 30       		.byte	0x30
 11920 002c 9F       		.byte	0x9f
 11921 002d 10000000 		.4byte	.LVL3
 11922 0031 34000000 		.4byte	.LVL7
ARM GAS  C:\Users\jo\AppData\Local\Temp\cc67lm3z.s 			page 213


 11923 0035 0700     		.2byte	0x7
 11924 0037 0A       		.byte	0xa
 11925 0038 0040     		.2byte	0x4000
 11926 003a 74       		.byte	0x74
 11927 003b 00       		.sleb128 0
 11928 003c 1C       		.byte	0x1c
 11929 003d 9F       		.byte	0x9f
 11930 003e 34000000 		.4byte	.LVL7
 11931 0042 36000000 		.4byte	.LVL8
 11932 0046 0700     		.2byte	0x7
 11933 0048 0A       		.byte	0xa
 11934 0049 0140     		.2byte	0x4001
 11935 004b 74       		.byte	0x74
 11936 004c 00       		.sleb128 0
 11937 004d 1C       		.byte	0x1c
 11938 004e 9F       		.byte	0x9f
 11939 004f 42000000 		.4byte	.LVL9
 11940 0053 48000000 		.4byte	.LVL10
 11941 0057 0700     		.2byte	0x7
 11942 0059 0A       		.byte	0xa
 11943 005a 0040     		.2byte	0x4000
 11944 005c 74       		.byte	0x74
 11945 005d 00       		.sleb128 0
 11946 005e 1C       		.byte	0x1c
 11947 005f 9F       		.byte	0x9f
 11948 0060 00000000 		.4byte	0
 11949 0064 00000000 		.4byte	0
 11950              	.LLST2:
 11951 0068 00000000 		.4byte	.LVL11
 11952 006c 0E000000 		.4byte	.LVL12
 11953 0070 0100     		.2byte	0x1
 11954 0072 50       		.byte	0x50
 11955 0073 0E000000 		.4byte	.LVL12
 11956 0077 28000000 		.4byte	.LFE297
 11957 007b 0400     		.2byte	0x4
 11958 007d F3       		.byte	0xf3
 11959 007e 01       		.uleb128 0x1
 11960 007f 50       		.byte	0x50
 11961 0080 9F       		.byte	0x9f
 11962 0081 00000000 		.4byte	0
 11963 0085 00000000 		.4byte	0
 11964              	.LLST3:
 11965 0089 00000000 		.4byte	.LVL14
 11966 008d 10000000 		.4byte	.LVL15
 11967 0091 0100     		.2byte	0x1
 11968 0093 50       		.byte	0x50
 11969 0094 10000000 		.4byte	.LVL15
 11970 0098 62000000 		.4byte	.LVL24
 11971 009c 0100     		.2byte	0x1
 11972 009e 56       		.byte	0x56
 11973 009f 62000000 		.4byte	.LVL24
 11974 00a3 65000000 		.4byte	.LVL25-1
 11975 00a7 0100     		.2byte	0x1
 11976 00a9 50       		.byte	0x50
 11977 00aa 65000000 		.4byte	.LVL25-1
 11978 00ae 70000000 		.4byte	.LVL27
 11979 00b2 0100     		.2byte	0x1
ARM GAS  C:\Users\jo\AppData\Local\Temp\cc67lm3z.s 			page 214


 11980 00b4 56       		.byte	0x56
 11981 00b5 70000000 		.4byte	.LVL27
 11982 00b9 7A000000 		.4byte	.LVL30
 11983 00bd 0100     		.2byte	0x1
 11984 00bf 50       		.byte	0x50
 11985 00c0 7A000000 		.4byte	.LVL30
 11986 00c4 A4000000 		.4byte	.LFE263
 11987 00c8 0100     		.2byte	0x1
 11988 00ca 56       		.byte	0x56
 11989 00cb 00000000 		.4byte	0
 11990 00cf 00000000 		.4byte	0
 11991              	.LLST4:
 11992 00d3 00000000 		.4byte	.LVL14
 11993 00d7 10000000 		.4byte	.LVL15
 11994 00db 0100     		.2byte	0x1
 11995 00dd 51       		.byte	0x51
 11996 00de 10000000 		.4byte	.LVL15
 11997 00e2 3A000000 		.4byte	.LVL19
 11998 00e6 0100     		.2byte	0x1
 11999 00e8 55       		.byte	0x55
 12000 00e9 3A000000 		.4byte	.LVL19
 12001 00ed 40000000 		.4byte	.LVL20
 12002 00f1 0400     		.2byte	0x4
 12003 00f3 F3       		.byte	0xf3
 12004 00f4 01       		.uleb128 0x1
 12005 00f5 51       		.byte	0x51
 12006 00f6 9F       		.byte	0x9f
 12007 00f7 40000000 		.4byte	.LVL20
 12008 00fb 62000000 		.4byte	.LVL24
 12009 00ff 0100     		.2byte	0x1
 12010 0101 55       		.byte	0x55
 12011 0102 62000000 		.4byte	.LVL24
 12012 0106 65000000 		.4byte	.LVL25-1
 12013 010a 0100     		.2byte	0x1
 12014 010c 51       		.byte	0x51
 12015 010d 65000000 		.4byte	.LVL25-1
 12016 0111 70000000 		.4byte	.LVL27
 12017 0115 0100     		.2byte	0x1
 12018 0117 55       		.byte	0x55
 12019 0118 70000000 		.4byte	.LVL27
 12020 011c 76000000 		.4byte	.LVL28
 12021 0120 0100     		.2byte	0x1
 12022 0122 51       		.byte	0x51
 12023 0123 76000000 		.4byte	.LVL28
 12024 0127 A4000000 		.4byte	.LFE263
 12025 012b 0400     		.2byte	0x4
 12026 012d F3       		.byte	0xf3
 12027 012e 01       		.uleb128 0x1
 12028 012f 51       		.byte	0x51
 12029 0130 9F       		.byte	0x9f
 12030 0131 00000000 		.4byte	0
 12031 0135 00000000 		.4byte	0
 12032              	.LLST5:
 12033 0139 00000000 		.4byte	.LVL14
 12034 013d 10000000 		.4byte	.LVL15
 12035 0141 0100     		.2byte	0x1
 12036 0143 52       		.byte	0x52
ARM GAS  C:\Users\jo\AppData\Local\Temp\cc67lm3z.s 			page 215


 12037 0144 10000000 		.4byte	.LVL15
 12038 0148 3A000000 		.4byte	.LVL19
 12039 014c 0100     		.2byte	0x1
 12040 014e 52       		.byte	0x52
 12041 014f 40000000 		.4byte	.LVL20
 12042 0153 52000000 		.4byte	.LVL22
 12043 0157 0100     		.2byte	0x1
 12044 0159 52       		.byte	0x52
 12045 015a 52000000 		.4byte	.LVL22
 12046 015e 59000000 		.4byte	.LVL23-1
 12047 0162 0200     		.2byte	0x2
 12048 0164 76       		.byte	0x76
 12049 0165 1A       		.sleb128 26
 12050 0166 62000000 		.4byte	.LVL24
 12051 016a 65000000 		.4byte	.LVL25-1
 12052 016e 0100     		.2byte	0x1
 12053 0170 52       		.byte	0x52
 12054 0171 65000000 		.4byte	.LVL25-1
 12055 0175 66000000 		.4byte	.LVL25
 12056 0179 0400     		.2byte	0x4
 12057 017b F3       		.byte	0xf3
 12058 017c 01       		.uleb128 0x1
 12059 017d 52       		.byte	0x52
 12060 017e 9F       		.byte	0x9f
 12061 017f 66000000 		.4byte	.LVL25
 12062 0183 6E000000 		.4byte	.LVL26
 12063 0187 0100     		.2byte	0x1
 12064 0189 50       		.byte	0x50
 12065 018a 70000000 		.4byte	.LVL27
 12066 018e 78000000 		.4byte	.LVL29
 12067 0192 0100     		.2byte	0x1
 12068 0194 52       		.byte	0x52
 12069 0195 78000000 		.4byte	.LVL29
 12070 0199 A4000000 		.4byte	.LFE263
 12071 019d 0400     		.2byte	0x4
 12072 019f F3       		.byte	0xf3
 12073 01a0 01       		.uleb128 0x1
 12074 01a1 52       		.byte	0x52
 12075 01a2 9F       		.byte	0x9f
 12076 01a3 00000000 		.4byte	0
 12077 01a7 00000000 		.4byte	0
 12078              	.LLST6:
 12079 01ab 10000000 		.4byte	.LVL15
 12080 01af 16000000 		.4byte	.LVL16
 12081 01b3 0200     		.2byte	0x2
 12082 01b5 30       		.byte	0x30
 12083 01b6 9F       		.byte	0x9f
 12084 01b7 00000000 		.4byte	0
 12085 01bb 00000000 		.4byte	0
 12086              	.LLST7:
 12087 01bf 1C000000 		.4byte	.LVL17
 12088 01c3 3A000000 		.4byte	.LVL19
 12089 01c7 0100     		.2byte	0x1
 12090 01c9 53       		.byte	0x53
 12091 01ca 40000000 		.4byte	.LVL20
 12092 01ce 48000000 		.4byte	.LVL21
 12093 01d2 0100     		.2byte	0x1
ARM GAS  C:\Users\jo\AppData\Local\Temp\cc67lm3z.s 			page 216


 12094 01d4 53       		.byte	0x53
 12095 01d5 00000000 		.4byte	0
 12096 01d9 00000000 		.4byte	0
 12097              	.LLST8:
 12098 01dd 00000000 		.4byte	.LVL33
 12099 01e1 10000000 		.4byte	.LVL34
 12100 01e5 0100     		.2byte	0x1
 12101 01e7 50       		.byte	0x50
 12102 01e8 10000000 		.4byte	.LVL34
 12103 01ec 98000000 		.4byte	.LVL41
 12104 01f0 0100     		.2byte	0x1
 12105 01f2 55       		.byte	0x55
 12106 01f3 98000000 		.4byte	.LVL41
 12107 01f7 A2000000 		.4byte	.LVL43
 12108 01fb 0100     		.2byte	0x1
 12109 01fd 50       		.byte	0x50
 12110 01fe A2000000 		.4byte	.LVL43
 12111 0202 D8000000 		.4byte	.LFE265
 12112 0206 0100     		.2byte	0x1
 12113 0208 55       		.byte	0x55
 12114 0209 00000000 		.4byte	0
 12115 020d 00000000 		.4byte	0
 12116              	.LLST9:
 12117 0211 00000000 		.4byte	.LVL33
 12118 0215 13000000 		.4byte	.LVL35-1
 12119 0219 0100     		.2byte	0x1
 12120 021b 51       		.byte	0x51
 12121 021c 13000000 		.4byte	.LVL35-1
 12122 0220 98000000 		.4byte	.LVL41
 12123 0224 0400     		.2byte	0x4
 12124 0226 F3       		.byte	0xf3
 12125 0227 01       		.uleb128 0x1
 12126 0228 51       		.byte	0x51
 12127 0229 9F       		.byte	0x9f
 12128 022a 98000000 		.4byte	.LVL41
 12129 022e 9E000000 		.4byte	.LVL42
 12130 0232 0100     		.2byte	0x1
 12131 0234 51       		.byte	0x51
 12132 0235 9E000000 		.4byte	.LVL42
 12133 0239 D8000000 		.4byte	.LFE265
 12134 023d 0400     		.2byte	0x4
 12135 023f F3       		.byte	0xf3
 12136 0240 01       		.uleb128 0x1
 12137 0241 51       		.byte	0x51
 12138 0242 9F       		.byte	0x9f
 12139 0243 00000000 		.4byte	0
 12140 0247 00000000 		.4byte	0
 12141              	.LLST10:
 12142 024b 14000000 		.4byte	.LVL35
 12143 024f 28000000 		.4byte	.LVL36
 12144 0253 0100     		.2byte	0x1
 12145 0255 50       		.byte	0x50
 12146 0256 28000000 		.4byte	.LVL36
 12147 025a 84000000 		.4byte	.LVL39
 12148 025e 0100     		.2byte	0x1
 12149 0260 54       		.byte	0x54
 12150 0261 88000000 		.4byte	.LVL40
ARM GAS  C:\Users\jo\AppData\Local\Temp\cc67lm3z.s 			page 217


 12151 0265 98000000 		.4byte	.LVL41
 12152 0269 0100     		.2byte	0x1
 12153 026b 54       		.byte	0x54
 12154 026c 00000000 		.4byte	0
 12155 0270 00000000 		.4byte	0
 12156              	.LLST11:
 12157 0274 00000000 		.4byte	.LVL46
 12158 0278 12000000 		.4byte	.LVL48
 12159 027c 0100     		.2byte	0x1
 12160 027e 50       		.byte	0x50
 12161 027f 12000000 		.4byte	.LVL48
 12162 0283 40000000 		.4byte	.LVL53
 12163 0287 0100     		.2byte	0x1
 12164 0289 53       		.byte	0x53
 12165 028a 40000000 		.4byte	.LVL53
 12166 028e 48000000 		.4byte	.LVL54
 12167 0292 0100     		.2byte	0x1
 12168 0294 54       		.byte	0x54
 12169 0295 48000000 		.4byte	.LVL54
 12170 0299 4A000000 		.4byte	.LVL55
 12171 029d 0100     		.2byte	0x1
 12172 029f 53       		.byte	0x53
 12173 02a0 4A000000 		.4byte	.LVL55
 12174 02a4 74000000 		.4byte	.LFE266
 12175 02a8 0100     		.2byte	0x1
 12176 02aa 54       		.byte	0x54
 12177 02ab 00000000 		.4byte	0
 12178 02af 00000000 		.4byte	0
 12179              	.LLST12:
 12180 02b3 0A000000 		.4byte	.LVL47
 12181 02b7 38000000 		.4byte	.LVL51
 12182 02bb 0600     		.2byte	0x6
 12183 02bd 74       		.byte	0x74
 12184 02be 00       		.sleb128 0
 12185 02bf 75       		.byte	0x75
 12186 02c0 00       		.sleb128 0
 12187 02c1 22       		.byte	0x22
 12188 02c2 9F       		.byte	0x9f
 12189 02c3 38000000 		.4byte	.LVL51
 12190 02c7 3E000000 		.4byte	.LVL52
 12191 02cb 0700     		.2byte	0x7
 12192 02cd 74       		.byte	0x74
 12193 02ce 00       		.sleb128 0
 12194 02cf 73       		.byte	0x73
 12195 02d0 28       		.sleb128 40
 12196 02d1 06       		.byte	0x6
 12197 02d2 22       		.byte	0x22
 12198 02d3 9F       		.byte	0x9f
 12199 02d4 3E000000 		.4byte	.LVL52
 12200 02d8 40000000 		.4byte	.LVL53
 12201 02dc 0D00     		.2byte	0xd
 12202 02de 73       		.byte	0x73
 12203 02df 2C       		.sleb128 44
 12204 02e0 94       		.byte	0x94
 12205 02e1 02       		.byte	0x2
 12206 02e2 0A       		.byte	0xa
 12207 02e3 FFFF     		.2byte	0xffff
ARM GAS  C:\Users\jo\AppData\Local\Temp\cc67lm3z.s 			page 218


 12208 02e5 1A       		.byte	0x1a
 12209 02e6 73       		.byte	0x73
 12210 02e7 28       		.sleb128 40
 12211 02e8 06       		.byte	0x6
 12212 02e9 22       		.byte	0x22
 12213 02ea 9F       		.byte	0x9f
 12214 02eb 48000000 		.4byte	.LVL54
 12215 02ef 4A000000 		.4byte	.LVL55
 12216 02f3 0D00     		.2byte	0xd
 12217 02f5 73       		.byte	0x73
 12218 02f6 2C       		.sleb128 44
 12219 02f7 94       		.byte	0x94
 12220 02f8 02       		.byte	0x2
 12221 02f9 0A       		.byte	0xa
 12222 02fa FFFF     		.2byte	0xffff
 12223 02fc 1A       		.byte	0x1a
 12224 02fd 73       		.byte	0x73
 12225 02fe 28       		.sleb128 40
 12226 02ff 06       		.byte	0x6
 12227 0300 22       		.byte	0x22
 12228 0301 9F       		.byte	0x9f
 12229 0302 4A000000 		.4byte	.LVL55
 12230 0306 4C000000 		.4byte	.LVL56
 12231 030a 0D00     		.2byte	0xd
 12232 030c 74       		.byte	0x74
 12233 030d 2C       		.sleb128 44
 12234 030e 94       		.byte	0x94
 12235 030f 02       		.byte	0x2
 12236 0310 0A       		.byte	0xa
 12237 0311 FFFF     		.2byte	0xffff
 12238 0313 1A       		.byte	0x1a
 12239 0314 74       		.byte	0x74
 12240 0315 28       		.sleb128 40
 12241 0316 06       		.byte	0x6
 12242 0317 22       		.byte	0x22
 12243 0318 9F       		.byte	0x9f
 12244 0319 00000000 		.4byte	0
 12245 031d 00000000 		.4byte	0
 12246              	.LLST13:
 12247 0321 00000000 		.4byte	.LVL59
 12248 0325 0E000000 		.4byte	.LVL60
 12249 0329 0100     		.2byte	0x1
 12250 032b 50       		.byte	0x50
 12251 032c 0E000000 		.4byte	.LVL60
 12252 0330 4C000000 		.4byte	.LVL64
 12253 0334 0100     		.2byte	0x1
 12254 0336 55       		.byte	0x55
 12255 0337 4C000000 		.4byte	.LVL64
 12256 033b 4F000000 		.4byte	.LVL65-1
 12257 033f 0100     		.2byte	0x1
 12258 0341 50       		.byte	0x50
 12259 0342 4F000000 		.4byte	.LVL65-1
 12260 0346 50000000 		.4byte	.LVL65
 12261 034a 0400     		.2byte	0x4
 12262 034c F3       		.byte	0xf3
 12263 034d 01       		.uleb128 0x1
 12264 034e 50       		.byte	0x50
ARM GAS  C:\Users\jo\AppData\Local\Temp\cc67lm3z.s 			page 219


 12265 034f 9F       		.byte	0x9f
 12266 0350 50000000 		.4byte	.LVL65
 12267 0354 6C000000 		.4byte	.LVL68
 12268 0358 0100     		.2byte	0x1
 12269 035a 55       		.byte	0x55
 12270 035b 6C000000 		.4byte	.LVL68
 12271 035f 76000000 		.4byte	.LVL70
 12272 0363 0100     		.2byte	0x1
 12273 0365 50       		.byte	0x50
 12274 0366 76000000 		.4byte	.LVL70
 12275 036a 9C000000 		.4byte	.LFE267
 12276 036e 0100     		.2byte	0x1
 12277 0370 55       		.byte	0x55
 12278 0371 00000000 		.4byte	0
 12279 0375 00000000 		.4byte	0
 12280              	.LLST14:
 12281 0379 00000000 		.4byte	.LVL59
 12282 037d 0E000000 		.4byte	.LVL60
 12283 0381 0100     		.2byte	0x1
 12284 0383 51       		.byte	0x51
 12285 0384 0E000000 		.4byte	.LVL60
 12286 0388 6C000000 		.4byte	.LVL68
 12287 038c 0400     		.2byte	0x4
 12288 038e F3       		.byte	0xf3
 12289 038f 01       		.uleb128 0x1
 12290 0390 51       		.byte	0x51
 12291 0391 9F       		.byte	0x9f
 12292 0392 6C000000 		.4byte	.LVL68
 12293 0396 72000000 		.4byte	.LVL69
 12294 039a 0100     		.2byte	0x1
 12295 039c 51       		.byte	0x51
 12296 039d 72000000 		.4byte	.LVL69
 12297 03a1 9C000000 		.4byte	.LFE267
 12298 03a5 0400     		.2byte	0x4
 12299 03a7 F3       		.byte	0xf3
 12300 03a8 01       		.uleb128 0x1
 12301 03a9 51       		.byte	0x51
 12302 03aa 9F       		.byte	0x9f
 12303 03ab 00000000 		.4byte	0
 12304 03af 00000000 		.4byte	0
 12305              	.LLST15:
 12306 03b3 30000000 		.4byte	.LVL61
 12307 03b7 40000000 		.4byte	.LVL63
 12308 03bb 0100     		.2byte	0x1
 12309 03bd 50       		.byte	0x50
 12310 03be 00000000 		.4byte	0
 12311 03c2 00000000 		.4byte	0
 12312              	.LLST16:
 12313 03c6 3C000000 		.4byte	.LVL62
 12314 03ca 4C000000 		.4byte	.LVL64
 12315 03ce 0100     		.2byte	0x1
 12316 03d0 55       		.byte	0x55
 12317 03d1 4C000000 		.4byte	.LVL64
 12318 03d5 4F000000 		.4byte	.LVL65-1
 12319 03d9 0100     		.2byte	0x1
 12320 03db 50       		.byte	0x50
 12321 03dc 4F000000 		.4byte	.LVL65-1
ARM GAS  C:\Users\jo\AppData\Local\Temp\cc67lm3z.s 			page 220


 12322 03e0 50000000 		.4byte	.LVL65
 12323 03e4 0400     		.2byte	0x4
 12324 03e6 F3       		.byte	0xf3
 12325 03e7 01       		.uleb128 0x1
 12326 03e8 50       		.byte	0x50
 12327 03e9 9F       		.byte	0x9f
 12328 03ea 00000000 		.4byte	0
 12329 03ee 00000000 		.4byte	0
 12330              	.LLST17:
 12331 03f2 62000000 		.4byte	.LVL66
 12332 03f6 6C000000 		.4byte	.LVL68
 12333 03fa 0600     		.2byte	0x6
 12334 03fc 03       		.byte	0x3
 12335 03fd E4000000 		.4byte	.LC6
 12336 0401 9F       		.byte	0x9f
 12337 0402 00000000 		.4byte	0
 12338 0406 00000000 		.4byte	0
 12339              	.LLST18:
 12340 040a 00000000 		.4byte	.LVL73
 12341 040e 08000000 		.4byte	.LVL74
 12342 0412 0100     		.2byte	0x1
 12343 0414 50       		.byte	0x50
 12344 0415 08000000 		.4byte	.LVL74
 12345 0419 14000000 		.4byte	.LVL76
 12346 041d 0100     		.2byte	0x1
 12347 041f 54       		.byte	0x54
 12348 0420 14000000 		.4byte	.LVL76
 12349 0424 17000000 		.4byte	.LVL77-1
 12350 0428 0100     		.2byte	0x1
 12351 042a 50       		.byte	0x50
 12352 042b 17000000 		.4byte	.LVL77-1
 12353 042f 18000000 		.4byte	.LVL77
 12354 0433 0400     		.2byte	0x4
 12355 0435 F3       		.byte	0xf3
 12356 0436 01       		.uleb128 0x1
 12357 0437 50       		.byte	0x50
 12358 0438 9F       		.byte	0x9f
 12359 0439 18000000 		.4byte	.LVL77
 12360 043d 1A000000 		.4byte	.LFE274
 12361 0441 0100     		.2byte	0x1
 12362 0443 50       		.byte	0x50
 12363 0444 00000000 		.4byte	0
 12364 0448 00000000 		.4byte	0
 12365              	.LLST19:
 12366 044c 00000000 		.4byte	.LVL78
 12367 0450 09000000 		.4byte	.LVL80-1
 12368 0454 0100     		.2byte	0x1
 12369 0456 50       		.byte	0x50
 12370 0457 0A000000 		.4byte	.LVL80
 12371 045b 12000000 		.4byte	.LVL81
 12372 045f 0100     		.2byte	0x1
 12373 0461 54       		.byte	0x54
 12374 0462 12000000 		.4byte	.LVL81
 12375 0466 14000000 		.4byte	.LFE273
 12376 046a 0100     		.2byte	0x1
 12377 046c 50       		.byte	0x50
 12378 046d 00000000 		.4byte	0
ARM GAS  C:\Users\jo\AppData\Local\Temp\cc67lm3z.s 			page 221


 12379 0471 00000000 		.4byte	0
 12380              	.LLST20:
 12381 0475 06000000 		.4byte	.LVL79
 12382 0479 12000000 		.4byte	.LVL81
 12383 047d 0100     		.2byte	0x1
 12384 047f 54       		.byte	0x54
 12385 0480 00000000 		.4byte	0
 12386 0484 00000000 		.4byte	0
 12387              	.LLST21:
 12388 0488 00000000 		.4byte	.LVL83
 12389 048c 08000000 		.4byte	.LVL84
 12390 0490 0100     		.2byte	0x1
 12391 0492 50       		.byte	0x50
 12392 0493 08000000 		.4byte	.LVL84
 12393 0497 2A000000 		.4byte	.LVL88
 12394 049b 0100     		.2byte	0x1
 12395 049d 55       		.byte	0x55
 12396 049e 2A000000 		.4byte	.LVL88
 12397 04a2 30000000 		.4byte	.LFE276
 12398 04a6 0400     		.2byte	0x4
 12399 04a8 F3       		.byte	0xf3
 12400 04a9 01       		.uleb128 0x1
 12401 04aa 50       		.byte	0x50
 12402 04ab 9F       		.byte	0x9f
 12403 04ac 00000000 		.4byte	0
 12404 04b0 00000000 		.4byte	0
 12405              	.LLST22:
 12406 04b4 0C000000 		.4byte	.LVL85
 12407 04b8 12000000 		.4byte	.LVL86
 12408 04bc 0100     		.2byte	0x1
 12409 04be 50       		.byte	0x50
 12410 04bf 12000000 		.4byte	.LVL86
 12411 04c3 2A000000 		.4byte	.LVL88
 12412 04c7 0100     		.2byte	0x1
 12413 04c9 56       		.byte	0x56
 12414 04ca 2A000000 		.4byte	.LVL88
 12415 04ce 30000000 		.4byte	.LFE276
 12416 04d2 0100     		.2byte	0x1
 12417 04d4 50       		.byte	0x50
 12418 04d5 00000000 		.4byte	0
 12419 04d9 00000000 		.4byte	0
 12420              	.LLST23:
 12421 04dd 00000000 		.4byte	.LVL90
 12422 04e1 20000000 		.4byte	.LVL92
 12423 04e5 0100     		.2byte	0x1
 12424 04e7 50       		.byte	0x50
 12425 04e8 20000000 		.4byte	.LVL92
 12426 04ec 36000000 		.4byte	.LVL95
 12427 04f0 0100     		.2byte	0x1
 12428 04f2 54       		.byte	0x54
 12429 04f3 36000000 		.4byte	.LVL95
 12430 04f7 48000000 		.4byte	.LFE283
 12431 04fb 0400     		.2byte	0x4
 12432 04fd F3       		.byte	0xf3
 12433 04fe 01       		.uleb128 0x1
 12434 04ff 50       		.byte	0x50
 12435 0500 9F       		.byte	0x9f
ARM GAS  C:\Users\jo\AppData\Local\Temp\cc67lm3z.s 			page 222


 12436 0501 00000000 		.4byte	0
 12437 0505 00000000 		.4byte	0
 12438              	.LLST24:
 12439 0509 00000000 		.4byte	.LVL90
 12440 050d 1C000000 		.4byte	.LVL91
 12441 0511 0100     		.2byte	0x1
 12442 0513 51       		.byte	0x51
 12443 0514 1C000000 		.4byte	.LVL91
 12444 0518 36000000 		.4byte	.LVL95
 12445 051c 0100     		.2byte	0x1
 12446 051e 55       		.byte	0x55
 12447 051f 36000000 		.4byte	.LVL95
 12448 0523 48000000 		.4byte	.LFE283
 12449 0527 0600     		.2byte	0x6
 12450 0529 F3       		.byte	0xf3
 12451 052a 01       		.uleb128 0x1
 12452 052b 50       		.byte	0x50
 12453 052c 23       		.byte	0x23
 12454 052d 8001     		.uleb128 0x80
 12455 052f 00000000 		.4byte	0
 12456 0533 00000000 		.4byte	0
 12457              	.LLST25:
 12458 0537 00000000 		.4byte	.LVL96
 12459 053b 1E000000 		.4byte	.LVL98
 12460 053f 0100     		.2byte	0x1
 12461 0541 50       		.byte	0x50
 12462 0542 1E000000 		.4byte	.LVL98
 12463 0546 32000000 		.4byte	.LVL101
 12464 054a 0100     		.2byte	0x1
 12465 054c 54       		.byte	0x54
 12466 054d 32000000 		.4byte	.LVL101
 12467 0551 44000000 		.4byte	.LFE284
 12468 0555 0400     		.2byte	0x4
 12469 0557 F3       		.byte	0xf3
 12470 0558 01       		.uleb128 0x1
 12471 0559 50       		.byte	0x50
 12472 055a 9F       		.byte	0x9f
 12473 055b 00000000 		.4byte	0
 12474 055f 00000000 		.4byte	0
 12475              	.LLST26:
 12476 0563 00000000 		.4byte	.LVL96
 12477 0567 1A000000 		.4byte	.LVL97
 12478 056b 0100     		.2byte	0x1
 12479 056d 51       		.byte	0x51
 12480 056e 1A000000 		.4byte	.LVL97
 12481 0572 32000000 		.4byte	.LVL101
 12482 0576 0100     		.2byte	0x1
 12483 0578 55       		.byte	0x55
 12484 0579 32000000 		.4byte	.LVL101
 12485 057d 44000000 		.4byte	.LFE284
 12486 0581 0500     		.2byte	0x5
 12487 0583 F3       		.byte	0xf3
 12488 0584 01       		.uleb128 0x1
 12489 0585 50       		.byte	0x50
 12490 0586 23       		.byte	0x23
 12491 0587 7C       		.uleb128 0x7c
 12492 0588 00000000 		.4byte	0
ARM GAS  C:\Users\jo\AppData\Local\Temp\cc67lm3z.s 			page 223


 12493 058c 00000000 		.4byte	0
 12494              	.LLST27:
 12495 0590 00000000 		.4byte	.LVL102
 12496 0594 20000000 		.4byte	.LVL104
 12497 0598 0100     		.2byte	0x1
 12498 059a 50       		.byte	0x50
 12499 059b 20000000 		.4byte	.LVL104
 12500 059f 36000000 		.4byte	.LVL107
 12501 05a3 0100     		.2byte	0x1
 12502 05a5 54       		.byte	0x54
 12503 05a6 36000000 		.4byte	.LVL107
 12504 05aa 48000000 		.4byte	.LFE285
 12505 05ae 0400     		.2byte	0x4
 12506 05b0 F3       		.byte	0xf3
 12507 05b1 01       		.uleb128 0x1
 12508 05b2 50       		.byte	0x50
 12509 05b3 9F       		.byte	0x9f
 12510 05b4 00000000 		.4byte	0
 12511 05b8 00000000 		.4byte	0
 12512              	.LLST28:
 12513 05bc 00000000 		.4byte	.LVL102
 12514 05c0 1C000000 		.4byte	.LVL103
 12515 05c4 0100     		.2byte	0x1
 12516 05c6 51       		.byte	0x51
 12517 05c7 1C000000 		.4byte	.LVL103
 12518 05cb 36000000 		.4byte	.LVL107
 12519 05cf 0100     		.2byte	0x1
 12520 05d1 55       		.byte	0x55
 12521 05d2 36000000 		.4byte	.LVL107
 12522 05d6 48000000 		.4byte	.LFE285
 12523 05da 0600     		.2byte	0x6
 12524 05dc F3       		.byte	0xf3
 12525 05dd 01       		.uleb128 0x1
 12526 05de 50       		.byte	0x50
 12527 05df 23       		.byte	0x23
 12528 05e0 8C01     		.uleb128 0x8c
 12529 05e2 00000000 		.4byte	0
 12530 05e6 00000000 		.4byte	0
 12531              	.LLST29:
 12532 05ea 00000000 		.4byte	.LVL109
 12533 05ee 26000000 		.4byte	.LVL112
 12534 05f2 0100     		.2byte	0x1
 12535 05f4 50       		.byte	0x50
 12536 05f5 26000000 		.4byte	.LVL112
 12537 05f9 40000000 		.4byte	.LVL115
 12538 05fd 0100     		.2byte	0x1
 12539 05ff 54       		.byte	0x54
 12540 0600 40000000 		.4byte	.LVL115
 12541 0604 50000000 		.4byte	.LFE287
 12542 0608 0400     		.2byte	0x4
 12543 060a F3       		.byte	0xf3
 12544 060b 01       		.uleb128 0x1
 12545 060c 50       		.byte	0x50
 12546 060d 9F       		.byte	0x9f
 12547 060e 00000000 		.4byte	0
 12548 0612 00000000 		.4byte	0
 12549              	.LLST30:
ARM GAS  C:\Users\jo\AppData\Local\Temp\cc67lm3z.s 			page 224


 12550 0616 00000000 		.4byte	.LVL109
 12551 061a 22000000 		.4byte	.LVL110
 12552 061e 0100     		.2byte	0x1
 12553 0620 51       		.byte	0x51
 12554 0621 22000000 		.4byte	.LVL110
 12555 0625 40000000 		.4byte	.LVL115
 12556 0629 0100     		.2byte	0x1
 12557 062b 56       		.byte	0x56
 12558 062c 40000000 		.4byte	.LVL115
 12559 0630 50000000 		.4byte	.LFE287
 12560 0634 0600     		.2byte	0x6
 12561 0636 F3       		.byte	0xf3
 12562 0637 01       		.uleb128 0x1
 12563 0638 50       		.byte	0x50
 12564 0639 23       		.byte	0x23
 12565 063a 8801     		.uleb128 0x88
 12566 063c 00000000 		.4byte	0
 12567 0640 00000000 		.4byte	0
 12568              	.LLST31:
 12569 0644 00000000 		.4byte	.LVL109
 12570 0648 24000000 		.4byte	.LVL111
 12571 064c 0100     		.2byte	0x1
 12572 064e 52       		.byte	0x52
 12573 064f 24000000 		.4byte	.LVL111
 12574 0653 50000000 		.4byte	.LFE287
 12575 0657 0400     		.2byte	0x4
 12576 0659 F3       		.byte	0xf3
 12577 065a 01       		.uleb128 0x1
 12578 065b 52       		.byte	0x52
 12579 065c 9F       		.byte	0x9f
 12580 065d 00000000 		.4byte	0
 12581 0661 00000000 		.4byte	0
 12582              	.LLST32:
 12583 0665 00000000 		.4byte	.LVL116
 12584 0669 10000000 		.4byte	.LVL118
 12585 066d 0100     		.2byte	0x1
 12586 066f 50       		.byte	0x50
 12587 0670 10000000 		.4byte	.LVL118
 12588 0674 60000000 		.4byte	.LVL132
 12589 0678 0100     		.2byte	0x1
 12590 067a 55       		.byte	0x55
 12591 067b 60000000 		.4byte	.LVL132
 12592 067f 62000000 		.4byte	.LFE288
 12593 0683 0100     		.2byte	0x1
 12594 0685 50       		.byte	0x50
 12595 0686 00000000 		.4byte	0
 12596 068a 00000000 		.4byte	0
 12597              	.LLST33:
 12598 068e 0C000000 		.4byte	.LVL117
 12599 0692 10000000 		.4byte	.LVL118
 12600 0696 0100     		.2byte	0x1
 12601 0698 50       		.byte	0x50
 12602 0699 10000000 		.4byte	.LVL118
 12603 069d 60000000 		.4byte	.LVL132
 12604 06a1 0100     		.2byte	0x1
 12605 06a3 55       		.byte	0x55
 12606 06a4 00000000 		.4byte	0
ARM GAS  C:\Users\jo\AppData\Local\Temp\cc67lm3z.s 			page 225


 12607 06a8 00000000 		.4byte	0
 12608              	.LLST34:
 12609 06ac 1C000000 		.4byte	.LVL120
 12610 06b0 23000000 		.4byte	.LVL122-1
 12611 06b4 0100     		.2byte	0x1
 12612 06b6 50       		.byte	0x50
 12613 06b7 24000000 		.4byte	.LVL122
 12614 06bb 2A000000 		.4byte	.LVL123
 12615 06bf 0100     		.2byte	0x1
 12616 06c1 54       		.byte	0x54
 12617 06c2 2A000000 		.4byte	.LVL123
 12618 06c6 2C000000 		.4byte	.LVL124
 12619 06ca 0100     		.2byte	0x1
 12620 06cc 50       		.byte	0x50
 12621 06cd 00000000 		.4byte	0
 12622 06d1 00000000 		.4byte	0
 12623              	.LLST35:
 12624 06d5 20000000 		.4byte	.LVL121
 12625 06d9 2A000000 		.4byte	.LVL123
 12626 06dd 0100     		.2byte	0x1
 12627 06df 54       		.byte	0x54
 12628 06e0 00000000 		.4byte	0
 12629 06e4 00000000 		.4byte	0
 12630              	.LLST36:
 12631 06e8 2C000000 		.4byte	.LVL124
 12632 06ec 3D000000 		.4byte	.LVL126-1
 12633 06f0 0100     		.2byte	0x1
 12634 06f2 50       		.byte	0x50
 12635 06f3 3E000000 		.4byte	.LVL126
 12636 06f7 44000000 		.4byte	.LVL127
 12637 06fb 0100     		.2byte	0x1
 12638 06fd 54       		.byte	0x54
 12639 06fe 44000000 		.4byte	.LVL127
 12640 0702 46000000 		.4byte	.LVL128
 12641 0706 0100     		.2byte	0x1
 12642 0708 50       		.byte	0x50
 12643 0709 00000000 		.4byte	0
 12644 070d 00000000 		.4byte	0
 12645              	.LLST37:
 12646 0711 3A000000 		.4byte	.LVL125
 12647 0715 44000000 		.4byte	.LVL127
 12648 0719 0100     		.2byte	0x1
 12649 071b 54       		.byte	0x54
 12650 071c 00000000 		.4byte	0
 12651 0720 00000000 		.4byte	0
 12652              	.LLST38:
 12653 0724 46000000 		.4byte	.LVL128
 12654 0728 4D000000 		.4byte	.LVL130-1
 12655 072c 0100     		.2byte	0x1
 12656 072e 50       		.byte	0x50
 12657 072f 4E000000 		.4byte	.LVL130
 12658 0733 54000000 		.4byte	.LVL131
 12659 0737 0100     		.2byte	0x1
 12660 0739 54       		.byte	0x54
 12661 073a 54000000 		.4byte	.LVL131
 12662 073e 60000000 		.4byte	.LVL132
 12663 0742 0100     		.2byte	0x1
ARM GAS  C:\Users\jo\AppData\Local\Temp\cc67lm3z.s 			page 226


 12664 0744 50       		.byte	0x50
 12665 0745 00000000 		.4byte	0
 12666 0749 00000000 		.4byte	0
 12667              	.LLST39:
 12668 074d 4A000000 		.4byte	.LVL129
 12669 0751 54000000 		.4byte	.LVL131
 12670 0755 0100     		.2byte	0x1
 12671 0757 54       		.byte	0x54
 12672 0758 00000000 		.4byte	0
 12673 075c 00000000 		.4byte	0
 12674              	.LLST40:
 12675 0760 1E000000 		.4byte	.LVL135
 12676 0764 F4000000 		.4byte	.LVL142
 12677 0768 0100     		.2byte	0x1
 12678 076a 57       		.byte	0x57
 12679 076b F4000000 		.4byte	.LVL142
 12680 076f 28010000 		.4byte	.LVL146
 12681 0773 0100     		.2byte	0x1
 12682 0775 59       		.byte	0x59
 12683 0776 28010000 		.4byte	.LVL146
 12684 077a 36010000 		.4byte	.LVL148
 12685 077e 0100     		.2byte	0x1
 12686 0780 57       		.byte	0x57
 12687 0781 36010000 		.4byte	.LVL148
 12688 0785 82010000 		.4byte	.LVL154
 12689 0789 0100     		.2byte	0x1
 12690 078b 55       		.byte	0x55
 12691 078c 82010000 		.4byte	.LVL154
 12692 0790 8E010000 		.4byte	.LVL157
 12693 0794 0100     		.2byte	0x1
 12694 0796 59       		.byte	0x59
 12695 0797 8E010000 		.4byte	.LVL157
 12696 079b 94010000 		.4byte	.LVL158
 12697 079f 0100     		.2byte	0x1
 12698 07a1 55       		.byte	0x55
 12699 07a2 94010000 		.4byte	.LVL158
 12700 07a6 FE010000 		.4byte	.LVL168
 12701 07aa 0100     		.2byte	0x1
 12702 07ac 57       		.byte	0x57
 12703 07ad FE010000 		.4byte	.LVL168
 12704 07b1 2E020000 		.4byte	.LVL174
 12705 07b5 0100     		.2byte	0x1
 12706 07b7 59       		.byte	0x59
 12707 07b8 2E020000 		.4byte	.LVL174
 12708 07bc B6030000 		.4byte	.LVL195
 12709 07c0 0100     		.2byte	0x1
 12710 07c2 57       		.byte	0x57
 12711 07c3 B6030000 		.4byte	.LVL195
 12712 07c7 BA030000 		.4byte	.LVL196
 12713 07cb 0200     		.2byte	0x2
 12714 07cd 75       		.byte	0x75
 12715 07ce 0C       		.sleb128 12
 12716 07cf BA030000 		.4byte	.LVL196
 12717 07d3 C2030000 		.4byte	.LVL197
 12718 07d7 0100     		.2byte	0x1
 12719 07d9 55       		.byte	0x55
 12720 07da C2030000 		.4byte	.LVL197
ARM GAS  C:\Users\jo\AppData\Local\Temp\cc67lm3z.s 			page 227


 12721 07de 2A040000 		.4byte	.LVL203
 12722 07e2 0100     		.2byte	0x1
 12723 07e4 57       		.byte	0x57
 12724 07e5 2A040000 		.4byte	.LVL203
 12725 07e9 52040000 		.4byte	.LVL206
 12726 07ed 0100     		.2byte	0x1
 12727 07ef 55       		.byte	0x55
 12728 07f0 52040000 		.4byte	.LVL206
 12729 07f4 6C040000 		.4byte	.LVL209
 12730 07f8 0100     		.2byte	0x1
 12731 07fa 57       		.byte	0x57
 12732 07fb 6C040000 		.4byte	.LVL209
 12733 07ff AC040000 		.4byte	.LFE270
 12734 0803 0100     		.2byte	0x1
 12735 0805 55       		.byte	0x55
 12736 0806 00000000 		.4byte	0
 12737 080a 00000000 		.4byte	0
 12738              	.LLST41:
 12739 080e 1A000000 		.4byte	.LVL134
 12740 0812 26000000 		.4byte	.LVL136
 12741 0816 0200     		.2byte	0x2
 12742 0818 30       		.byte	0x30
 12743 0819 9F       		.byte	0x9f
 12744 081a 26000000 		.4byte	.LVL136
 12745 081e EA000000 		.4byte	.LVL141
 12746 0822 0100     		.2byte	0x1
 12747 0824 56       		.byte	0x56
 12748 0825 EA000000 		.4byte	.LVL141
 12749 0829 26010000 		.4byte	.LVL145
 12750 082d 0100     		.2byte	0x1
 12751 082f 57       		.byte	0x57
 12752 0830 26010000 		.4byte	.LVL145
 12753 0834 2E010000 		.4byte	.LVL147
 12754 0838 0100     		.2byte	0x1
 12755 083a 56       		.byte	0x56
 12756 083b 2E010000 		.4byte	.LVL147
 12757 083f 3C010000 		.4byte	.LVL149
 12758 0843 0200     		.2byte	0x2
 12759 0845 30       		.byte	0x30
 12760 0846 9F       		.byte	0x9f
 12761 0847 3C010000 		.4byte	.LVL149
 12762 084b 8E010000 		.4byte	.LVL157
 12763 084f 0100     		.2byte	0x1
 12764 0851 56       		.byte	0x56
 12765 0852 94010000 		.4byte	.LVL158
 12766 0856 24020000 		.4byte	.LVL172
 12767 085a 0100     		.2byte	0x1
 12768 085c 56       		.byte	0x56
 12769 085d 24020000 		.4byte	.LVL172
 12770 0861 2A020000 		.4byte	.LVL173
 12771 0865 0100     		.2byte	0x1
 12772 0867 57       		.byte	0x57
 12773 0868 2A020000 		.4byte	.LVL173
 12774 086c 2D020000 		.4byte	.LVL174-1
 12775 0870 0100     		.2byte	0x1
 12776 0872 50       		.byte	0x50
 12777 0873 2D020000 		.4byte	.LVL174-1
ARM GAS  C:\Users\jo\AppData\Local\Temp\cc67lm3z.s 			page 228


 12778 0877 B6030000 		.4byte	.LVL195
 12779 087b 0100     		.2byte	0x1
 12780 087d 56       		.byte	0x56
 12781 087e B6030000 		.4byte	.LVL195
 12782 0882 BA030000 		.4byte	.LVL196
 12783 0886 0100     		.2byte	0x1
 12784 0888 55       		.byte	0x55
 12785 0889 BA030000 		.4byte	.LVL196
 12786 088d AC040000 		.4byte	.LFE270
 12787 0891 0100     		.2byte	0x1
 12788 0893 56       		.byte	0x56
 12789 0894 00000000 		.4byte	0
 12790 0898 00000000 		.4byte	0
 12791              	.LLST42:
 12792 089c 4C000000 		.4byte	.LVL137
 12793 08a0 A0000000 		.4byte	.LVL139
 12794 08a4 0200     		.2byte	0x2
 12795 08a6 30       		.byte	0x30
 12796 08a7 9F       		.byte	0x9f
 12797 08a8 A0000000 		.4byte	.LVL139
 12798 08ac 26010000 		.4byte	.LVL145
 12799 08b0 0100     		.2byte	0x1
 12800 08b2 58       		.byte	0x58
 12801 08b3 58010000 		.4byte	.LVL151
 12802 08b7 64010000 		.4byte	.LVL152
 12803 08bb 0200     		.2byte	0x2
 12804 08bd 30       		.byte	0x30
 12805 08be 9F       		.byte	0x9f
 12806 08bf 64010000 		.4byte	.LVL152
 12807 08c3 8E010000 		.4byte	.LVL157
 12808 08c7 0200     		.2byte	0x2
 12809 08c9 31       		.byte	0x31
 12810 08ca 9F       		.byte	0x9f
 12811 08cb 94010000 		.4byte	.LVL158
 12812 08cf BA010000 		.4byte	.LVL162
 12813 08d3 0100     		.2byte	0x1
 12814 08d5 58       		.byte	0x58
 12815 08d6 BE010000 		.4byte	.LVL163
 12816 08da CA010000 		.4byte	.LVL164
 12817 08de 0100     		.2byte	0x1
 12818 08e0 58       		.byte	0x58
 12819 08e1 24020000 		.4byte	.LVL172
 12820 08e5 36020000 		.4byte	.LVL175
 12821 08e9 0100     		.2byte	0x1
 12822 08eb 58       		.byte	0x58
 12823 08ec A4020000 		.4byte	.LVL186
 12824 08f0 AA020000 		.4byte	.LVL187
 12825 08f4 0200     		.2byte	0x2
 12826 08f6 30       		.byte	0x30
 12827 08f7 9F       		.byte	0x9f
 12828 08f8 AA020000 		.4byte	.LVL187
 12829 08fc C6020000 		.4byte	.LVL188
 12830 0900 0100     		.2byte	0x1
 12831 0902 58       		.byte	0x58
 12832 0903 CA020000 		.4byte	.LVL189
 12833 0907 00030000 		.4byte	.LVL190
 12834 090b 0100     		.2byte	0x1
ARM GAS  C:\Users\jo\AppData\Local\Temp\cc67lm3z.s 			page 229


 12835 090d 58       		.byte	0x58
 12836 090e 00030000 		.4byte	.LVL190
 12837 0912 86030000 		.4byte	.LVL192
 12838 0916 0200     		.2byte	0x2
 12839 0918 30       		.byte	0x30
 12840 0919 9F       		.byte	0x9f
 12841 091a 86030000 		.4byte	.LVL192
 12842 091e AC030000 		.4byte	.LVL193
 12843 0922 0100     		.2byte	0x1
 12844 0924 58       		.byte	0x58
 12845 0925 B0030000 		.4byte	.LVL194
 12846 0929 B6030000 		.4byte	.LVL195
 12847 092d 0100     		.2byte	0x1
 12848 092f 58       		.byte	0x58
 12849 0930 B6030000 		.4byte	.LVL195
 12850 0934 C2030000 		.4byte	.LVL197
 12851 0938 0200     		.2byte	0x2
 12852 093a 30       		.byte	0x30
 12853 093b 9F       		.byte	0x9f
 12854 093c C2030000 		.4byte	.LVL197
 12855 0940 F0030000 		.4byte	.LVL199
 12856 0944 0100     		.2byte	0x1
 12857 0946 58       		.byte	0x58
 12858 0947 2A040000 		.4byte	.LVL203
 12859 094b 52040000 		.4byte	.LVL206
 12860 094f 0200     		.2byte	0x2
 12861 0951 31       		.byte	0x31
 12862 0952 9F       		.byte	0x9f
 12863 0953 6C040000 		.4byte	.LVL209
 12864 0957 AC040000 		.4byte	.LFE270
 12865 095b 0200     		.2byte	0x2
 12866 095d 31       		.byte	0x31
 12867 095e 9F       		.byte	0x9f
 12868 095f 00000000 		.4byte	0
 12869 0963 00000000 		.4byte	0
 12870              	.LLST43:
 12871 0967 4C000000 		.4byte	.LVL137
 12872 096b C2000000 		.4byte	.LVL140
 12873 096f 0200     		.2byte	0x2
 12874 0971 30       		.byte	0x30
 12875 0972 9F       		.byte	0x9f
 12876 0973 C2000000 		.4byte	.LVL140
 12877 0977 F4000000 		.4byte	.LVL142
 12878 097b 0100     		.2byte	0x1
 12879 097d 59       		.byte	0x59
 12880 097e 94010000 		.4byte	.LVL158
 12881 0982 FE010000 		.4byte	.LVL168
 12882 0986 0100     		.2byte	0x1
 12883 0988 59       		.byte	0x59
 12884 0989 A4020000 		.4byte	.LVL186
 12885 098d B0030000 		.4byte	.LVL194
 12886 0991 0200     		.2byte	0x2
 12887 0993 30       		.byte	0x30
 12888 0994 9F       		.byte	0x9f
 12889 0995 B0030000 		.4byte	.LVL194
 12890 0999 B6030000 		.4byte	.LVL195
 12891 099d 0200     		.2byte	0x2
ARM GAS  C:\Users\jo\AppData\Local\Temp\cc67lm3z.s 			page 230


 12892 099f 31       		.byte	0x31
 12893 09a0 9F       		.byte	0x9f
 12894 09a1 C2030000 		.4byte	.LVL197
 12895 09a5 F0030000 		.4byte	.LVL199
 12896 09a9 0200     		.2byte	0x2
 12897 09ab 30       		.byte	0x30
 12898 09ac 9F       		.byte	0x9f
 12899 09ad F0030000 		.4byte	.LVL199
 12900 09b1 2A040000 		.4byte	.LVL203
 12901 09b5 0100     		.2byte	0x1
 12902 09b7 59       		.byte	0x59
 12903 09b8 52040000 		.4byte	.LVL206
 12904 09bc 6C040000 		.4byte	.LVL209
 12905 09c0 0100     		.2byte	0x1
 12906 09c2 59       		.byte	0x59
 12907 09c3 00000000 		.4byte	0
 12908 09c7 00000000 		.4byte	0
 12909              	.LLST44:
 12910 09cb 00000000 		.4byte	.LVL133
 12911 09cf 1A000000 		.4byte	.LVL134
 12912 09d3 0200     		.2byte	0x2
 12913 09d5 30       		.byte	0x30
 12914 09d6 9F       		.byte	0x9f
 12915 09d7 18010000 		.4byte	.LVL143
 12916 09db 24010000 		.4byte	.LVL144
 12917 09df 0100     		.2byte	0x1
 12918 09e1 50       		.byte	0x50
 12919 09e2 00000000 		.4byte	0
 12920 09e6 00000000 		.4byte	0
 12921              	.LLST45:
 12922 09ea 52010000 		.4byte	.LVL150
 12923 09ee 58010000 		.4byte	.LVL151
 12924 09f2 0600     		.2byte	0x6
 12925 09f4 03       		.byte	0x3
 12926 09f5 80020000 		.4byte	.LC16
 12927 09f9 9F       		.byte	0x9f
 12928 09fa 00000000 		.4byte	0
 12929 09fe 00000000 		.4byte	0
 12930              	.LLST46:
 12931 0a02 82010000 		.4byte	.LVL154
 12932 0a06 86010000 		.4byte	.LVL155
 12933 0a0a 0100     		.2byte	0x1
 12934 0a0c 55       		.byte	0x55
 12935 0a0d 86010000 		.4byte	.LVL155
 12936 0a11 89010000 		.4byte	.LVL156-1
 12937 0a15 0100     		.2byte	0x1
 12938 0a17 50       		.byte	0x50
 12939 0a18 00000000 		.4byte	0
 12940 0a1c 00000000 		.4byte	0
 12941              	.LLST47:
 12942 0a20 42040000 		.4byte	.LVL204
 12943 0a24 48040000 		.4byte	.LVL205
 12944 0a28 0600     		.2byte	0x6
 12945 0a2a 03       		.byte	0x3
 12946 0a2b D8020000 		.4byte	.LC18
 12947 0a2f 9F       		.byte	0x9f
 12948 0a30 00000000 		.4byte	0
ARM GAS  C:\Users\jo\AppData\Local\Temp\cc67lm3z.s 			page 231


 12949 0a34 00000000 		.4byte	0
 12950              	.LLST48:
 12951 0a38 94010000 		.4byte	.LVL158
 12952 0a3c 9B010000 		.4byte	.LVL160-1
 12953 0a40 0100     		.2byte	0x1
 12954 0a42 50       		.byte	0x50
 12955 0a43 9C010000 		.4byte	.LVL160
 12956 0a47 AC010000 		.4byte	.LVL161
 12957 0a4b 0100     		.2byte	0x1
 12958 0a4d 5A       		.byte	0x5a
 12959 0a4e 00000000 		.4byte	0
 12960 0a52 00000000 		.4byte	0
 12961              	.LLST49:
 12962 0a56 98010000 		.4byte	.LVL159
 12963 0a5a AC010000 		.4byte	.LVL161
 12964 0a5e 0100     		.2byte	0x1
 12965 0a60 5A       		.byte	0x5a
 12966 0a61 00000000 		.4byte	0
 12967 0a65 00000000 		.4byte	0
 12968              	.LLST50:
 12969 0a69 F2010000 		.4byte	.LVL166
 12970 0a6d 22020000 		.4byte	.LVL171
 12971 0a71 0100     		.2byte	0x1
 12972 0a73 57       		.byte	0x57
 12973 0a74 00000000 		.4byte	0
 12974 0a78 00000000 		.4byte	0
 12975              	.LLST51:
 12976 0a7c F2010000 		.4byte	.LVL166
 12977 0a80 24020000 		.4byte	.LVL172
 12978 0a84 0100     		.2byte	0x1
 12979 0a86 5A       		.byte	0x5a
 12980 0a87 00000000 		.4byte	0
 12981 0a8b 00000000 		.4byte	0
 12982              	.LLST52:
 12983 0a8f F2010000 		.4byte	.LVL166
 12984 0a93 F8010000 		.4byte	.LVL167
 12985 0a97 0200     		.2byte	0x2
 12986 0a99 91       		.byte	0x91
 12987 0a9a 54       		.sleb128 -44
 12988 0a9b 00000000 		.4byte	0
 12989 0a9f 00000000 		.4byte	0
 12990              	.LLST53:
 12991 0aa3 1C040000 		.4byte	.LVL201
 12992 0aa7 22040000 		.4byte	.LVL202
 12993 0aab 0600     		.2byte	0x6
 12994 0aad 03       		.byte	0x3
 12995 0aae 54020000 		.4byte	.LC15
 12996 0ab2 9F       		.byte	0x9f
 12997 0ab3 00000000 		.4byte	0
 12998 0ab7 00000000 		.4byte	0
 12999              	.LLST54:
 13000 0abb 64040000 		.4byte	.LVL207
 13001 0abf 6C040000 		.4byte	.LVL209
 13002 0ac3 0600     		.2byte	0x6
 13003 0ac5 03       		.byte	0x3
 13004 0ac6 28020000 		.4byte	.LC14
 13005 0aca 9F       		.byte	0x9f
ARM GAS  C:\Users\jo\AppData\Local\Temp\cc67lm3z.s 			page 232


 13006 0acb 00000000 		.4byte	0
 13007 0acf 00000000 		.4byte	0
 13008              	.LLST55:
 13009 0ad3 48020000 		.4byte	.LVL176
 13010 0ad7 56020000 		.4byte	.LVL178
 13011 0adb 0600     		.2byte	0x6
 13012 0add 03       		.byte	0x3
 13013 0ade A0010000 		.4byte	.LC11
 13014 0ae2 9F       		.byte	0x9f
 13015 0ae3 00000000 		.4byte	0
 13016 0ae7 00000000 		.4byte	0
 13017              	.LLST56:
 13018 0aeb 68020000 		.4byte	.LVL179
 13019 0aef 76020000 		.4byte	.LVL181
 13020 0af3 0600     		.2byte	0x6
 13021 0af5 03       		.byte	0x3
 13022 0af6 CC010000 		.4byte	.LC12
 13023 0afa 9F       		.byte	0x9f
 13024 0afb 00000000 		.4byte	0
 13025 0aff 00000000 		.4byte	0
 13026              	.LLST57:
 13027 0b03 88020000 		.4byte	.LVL182
 13028 0b07 9A020000 		.4byte	.LVL184
 13029 0b0b 0600     		.2byte	0x6
 13030 0b0d 03       		.byte	0x3
 13031 0b0e F8010000 		.4byte	.LC13
 13032 0b12 9F       		.byte	0x9f
 13033 0b13 00000000 		.4byte	0
 13034 0b17 00000000 		.4byte	0
 13035              	.LLST58:
 13036 0b1b 00000000 		.4byte	.LVL212
 13037 0b1f 2E000000 		.4byte	.LVL214
 13038 0b23 0100     		.2byte	0x1
 13039 0b25 50       		.byte	0x50
 13040 0b26 2E000000 		.4byte	.LVL214
 13041 0b2a 9E000000 		.4byte	.LVL222
 13042 0b2e 0400     		.2byte	0x4
 13043 0b30 F3       		.byte	0xf3
 13044 0b31 01       		.uleb128 0x1
 13045 0b32 50       		.byte	0x50
 13046 0b33 9F       		.byte	0x9f
 13047 0b34 9E000000 		.4byte	.LVL222
 13048 0b38 A6000000 		.4byte	.LVL223
 13049 0b3c 0100     		.2byte	0x1
 13050 0b3e 50       		.byte	0x50
 13051 0b3f A6000000 		.4byte	.LVL223
 13052 0b43 BA000000 		.4byte	.LVL225
 13053 0b47 0400     		.2byte	0x4
 13054 0b49 F3       		.byte	0xf3
 13055 0b4a 01       		.uleb128 0x1
 13056 0b4b 50       		.byte	0x50
 13057 0b4c 9F       		.byte	0x9f
 13058 0b4d BA000000 		.4byte	.LVL225
 13059 0b51 E0000000 		.4byte	.LFE289
 13060 0b55 0100     		.2byte	0x1
 13061 0b57 50       		.byte	0x50
 13062 0b58 00000000 		.4byte	0
ARM GAS  C:\Users\jo\AppData\Local\Temp\cc67lm3z.s 			page 233


 13063 0b5c 00000000 		.4byte	0
 13064              	.LLST59:
 13065 0b60 00000000 		.4byte	.LVL212
 13066 0b64 0E000000 		.4byte	.LVL213
 13067 0b68 0100     		.2byte	0x1
 13068 0b6a 51       		.byte	0x51
 13069 0b6b 0E000000 		.4byte	.LVL213
 13070 0b6f BA000000 		.4byte	.LVL225
 13071 0b73 0100     		.2byte	0x1
 13072 0b75 54       		.byte	0x54
 13073 0b76 BA000000 		.4byte	.LVL225
 13074 0b7a C0000000 		.4byte	.LVL226
 13075 0b7e 0100     		.2byte	0x1
 13076 0b80 51       		.byte	0x51
 13077 0b81 C0000000 		.4byte	.LVL226
 13078 0b85 E0000000 		.4byte	.LFE289
 13079 0b89 0100     		.2byte	0x1
 13080 0b8b 54       		.byte	0x54
 13081 0b8c 00000000 		.4byte	0
 13082 0b90 00000000 		.4byte	0
 13083              	.LLST60:
 13084 0b94 58000000 		.4byte	.LVL216
 13085 0b98 5E000000 		.4byte	.LVL217
 13086 0b9c 0600     		.2byte	0x6
 13087 0b9e 03       		.byte	0x3
 13088 0b9f 00030000 		.4byte	.LC19
 13089 0ba3 9F       		.byte	0x9f
 13090 0ba4 00000000 		.4byte	0
 13091 0ba8 00000000 		.4byte	0
 13092              	.LLST61:
 13093 0bac 74000000 		.4byte	.LVL218
 13094 0bb0 7A000000 		.4byte	.LVL219
 13095 0bb4 0600     		.2byte	0x6
 13096 0bb6 03       		.byte	0x3
 13097 0bb7 18030000 		.4byte	.LC20
 13098 0bbb 9F       		.byte	0x9f
 13099 0bbc 00000000 		.4byte	0
 13100 0bc0 00000000 		.4byte	0
 13101              	.LLST62:
 13102 0bc4 90000000 		.4byte	.LVL220
 13103 0bc8 96000000 		.4byte	.LVL221
 13104 0bcc 0600     		.2byte	0x6
 13105 0bce 03       		.byte	0x3
 13106 0bcf 34030000 		.4byte	.LC21
 13107 0bd3 9F       		.byte	0x9f
 13108 0bd4 00000000 		.4byte	0
 13109 0bd8 00000000 		.4byte	0
 13110              	.LLST63:
 13111 0bdc 00000000 		.4byte	.LVL227
 13112 0be0 24000000 		.4byte	.LVL229
 13113 0be4 0100     		.2byte	0x1
 13114 0be6 50       		.byte	0x50
 13115 0be7 24000000 		.4byte	.LVL229
 13116 0beb 34000000 		.4byte	.LVL232
 13117 0bef 0100     		.2byte	0x1
 13118 0bf1 54       		.byte	0x54
 13119 0bf2 3C000000 		.4byte	.LVL233
ARM GAS  C:\Users\jo\AppData\Local\Temp\cc67lm3z.s 			page 234


 13120 0bf6 3E000000 		.4byte	.LVL234
 13121 0bfa 0100     		.2byte	0x1
 13122 0bfc 50       		.byte	0x50
 13123 0bfd 3E000000 		.4byte	.LVL234
 13124 0c01 4C000000 		.4byte	.LVL236
 13125 0c05 0100     		.2byte	0x1
 13126 0c07 54       		.byte	0x54
 13127 0c08 4C000000 		.4byte	.LVL236
 13128 0c0c 58000000 		.4byte	.LVL238
 13129 0c10 0100     		.2byte	0x1
 13130 0c12 50       		.byte	0x50
 13131 0c13 58000000 		.4byte	.LVL238
 13132 0c17 96000000 		.4byte	.LVL241
 13133 0c1b 0100     		.2byte	0x1
 13134 0c1d 54       		.byte	0x54
 13135 0c1e 96000000 		.4byte	.LVL241
 13136 0c22 BE000000 		.4byte	.LVL243
 13137 0c26 0100     		.2byte	0x1
 13138 0c28 50       		.byte	0x50
 13139 0c29 BE000000 		.4byte	.LVL243
 13140 0c2d CA000000 		.4byte	.LVL245
 13141 0c31 0100     		.2byte	0x1
 13142 0c33 54       		.byte	0x54
 13143 0c34 CA000000 		.4byte	.LVL245
 13144 0c38 CC000000 		.4byte	.LVL246
 13145 0c3c 0200     		.2byte	0x2
 13146 0c3e 30       		.byte	0x30
 13147 0c3f 9F       		.byte	0x9f
 13148 0c40 CC000000 		.4byte	.LVL246
 13149 0c44 CE000000 		.4byte	.LVL247
 13150 0c48 0100     		.2byte	0x1
 13151 0c4a 50       		.byte	0x50
 13152 0c4b CE000000 		.4byte	.LVL247
 13153 0c4f E0000000 		.4byte	.LVL249
 13154 0c53 0100     		.2byte	0x1
 13155 0c55 54       		.byte	0x54
 13156 0c56 E0000000 		.4byte	.LVL249
 13157 0c5a E2000000 		.4byte	.LVL250
 13158 0c5e 0200     		.2byte	0x2
 13159 0c60 30       		.byte	0x30
 13160 0c61 9F       		.byte	0x9f
 13161 0c62 E2000000 		.4byte	.LVL250
 13162 0c66 EC000000 		.4byte	.LVL251
 13163 0c6a 0100     		.2byte	0x1
 13164 0c6c 50       		.byte	0x50
 13165 0c6d EC000000 		.4byte	.LVL251
 13166 0c71 40010000 		.4byte	.LVL258
 13167 0c75 0100     		.2byte	0x1
 13168 0c77 54       		.byte	0x54
 13169 0c78 40010000 		.4byte	.LVL258
 13170 0c7c 8C010000 		.4byte	.LFE258
 13171 0c80 0100     		.2byte	0x1
 13172 0c82 50       		.byte	0x50
 13173 0c83 00000000 		.4byte	0
 13174 0c87 00000000 		.4byte	0
 13175              	.LLST64:
 13176 0c8b 00000000 		.4byte	.LVL227
ARM GAS  C:\Users\jo\AppData\Local\Temp\cc67lm3z.s 			page 235


 13177 0c8f 12000000 		.4byte	.LVL228
 13178 0c93 0100     		.2byte	0x1
 13179 0c95 51       		.byte	0x51
 13180 0c96 12000000 		.4byte	.LVL228
 13181 0c9a 4C000000 		.4byte	.LVL236
 13182 0c9e 0400     		.2byte	0x4
 13183 0ca0 F3       		.byte	0xf3
 13184 0ca1 01       		.uleb128 0x1
 13185 0ca2 51       		.byte	0x51
 13186 0ca3 9F       		.byte	0x9f
 13187 0ca4 4C000000 		.4byte	.LVL236
 13188 0ca8 52000000 		.4byte	.LVL237
 13189 0cac 0100     		.2byte	0x1
 13190 0cae 51       		.byte	0x51
 13191 0caf 52000000 		.4byte	.LVL237
 13192 0cb3 4E010000 		.4byte	.LVL259
 13193 0cb7 0400     		.2byte	0x4
 13194 0cb9 F3       		.byte	0xf3
 13195 0cba 01       		.uleb128 0x1
 13196 0cbb 51       		.byte	0x51
 13197 0cbc 9F       		.byte	0x9f
 13198 0cbd 4E010000 		.4byte	.LVL259
 13199 0cc1 50010000 		.4byte	.LVL260
 13200 0cc5 0100     		.2byte	0x1
 13201 0cc7 51       		.byte	0x51
 13202 0cc8 50010000 		.4byte	.LVL260
 13203 0ccc 8C010000 		.4byte	.LFE258
 13204 0cd0 0400     		.2byte	0x4
 13205 0cd2 F3       		.byte	0xf3
 13206 0cd3 01       		.uleb128 0x1
 13207 0cd4 51       		.byte	0x51
 13208 0cd5 9F       		.byte	0x9f
 13209 0cd6 00000000 		.4byte	0
 13210 0cda 00000000 		.4byte	0
 13211              	.LLST65:
 13212 0cde 28000000 		.4byte	.LVL230
 13213 0ce2 2E000000 		.4byte	.LVL231
 13214 0ce6 0100     		.2byte	0x1
 13215 0ce8 50       		.byte	0x50
 13216 0ce9 2E000000 		.4byte	.LVL231
 13217 0ced 34000000 		.4byte	.LVL232
 13218 0cf1 0200     		.2byte	0x2
 13219 0cf3 30       		.byte	0x30
 13220 0cf4 9F       		.byte	0x9f
 13221 0cf5 42000000 		.4byte	.LVL235
 13222 0cf9 4C000000 		.4byte	.LVL236
 13223 0cfd 0100     		.2byte	0x1
 13224 0cff 50       		.byte	0x50
 13225 0d00 96000000 		.4byte	.LVL241
 13226 0d04 E2000000 		.4byte	.LVL250
 13227 0d08 0200     		.2byte	0x2
 13228 0d0a 30       		.byte	0x30
 13229 0d0b 9F       		.byte	0x9f
 13230 0d0c 40010000 		.4byte	.LVL258
 13231 0d10 4E010000 		.4byte	.LVL259
 13232 0d14 0200     		.2byte	0x2
 13233 0d16 30       		.byte	0x30
ARM GAS  C:\Users\jo\AppData\Local\Temp\cc67lm3z.s 			page 236


 13234 0d17 9F       		.byte	0x9f
 13235 0d18 5C010000 		.4byte	.LVL261
 13236 0d1c 8C010000 		.4byte	.LFE258
 13237 0d20 0200     		.2byte	0x2
 13238 0d22 30       		.byte	0x30
 13239 0d23 9F       		.byte	0x9f
 13240 0d24 00000000 		.4byte	0
 13241 0d28 00000000 		.4byte	0
 13242              	.LLST66:
 13243 0d2c F2000000 		.4byte	.LVL252
 13244 0d30 FA000000 		.4byte	.LVL254
 13245 0d34 0600     		.2byte	0x6
 13246 0d36 03       		.byte	0x3
 13247 0d37 4C030000 		.4byte	.LC22
 13248 0d3b 9F       		.byte	0x9f
 13249 0d3c 00000000 		.4byte	0
 13250 0d40 00000000 		.4byte	0
 13251              	.LLST67:
 13252 0d44 00000000 		.4byte	.LVL262
 13253 0d48 13000000 		.4byte	.LVL263-1
 13254 0d4c 0100     		.2byte	0x1
 13255 0d4e 50       		.byte	0x50
 13256 0d4f 13000000 		.4byte	.LVL263-1
 13257 0d53 14000000 		.4byte	.LFE259
 13258 0d57 0400     		.2byte	0x4
 13259 0d59 F3       		.byte	0xf3
 13260 0d5a 01       		.uleb128 0x1
 13261 0d5b 50       		.byte	0x50
 13262 0d5c 9F       		.byte	0x9f
 13263 0d5d 00000000 		.4byte	0
 13264 0d61 00000000 		.4byte	0
 13265              	.LLST68:
 13266 0d65 00000000 		.4byte	.LVL264
 13267 0d69 06000000 		.4byte	.LVL265
 13268 0d6d 0100     		.2byte	0x1
 13269 0d6f 50       		.byte	0x50
 13270 0d70 06000000 		.4byte	.LVL265
 13271 0d74 18000000 		.4byte	.LVL269
 13272 0d78 0400     		.2byte	0x4
 13273 0d7a F3       		.byte	0xf3
 13274 0d7b 01       		.uleb128 0x1
 13275 0d7c 50       		.byte	0x50
 13276 0d7d 9F       		.byte	0x9f
 13277 0d7e 18000000 		.4byte	.LVL269
 13278 0d82 1C000000 		.4byte	.LVL270
 13279 0d86 0100     		.2byte	0x1
 13280 0d88 50       		.byte	0x50
 13281 0d89 1C000000 		.4byte	.LVL270
 13282 0d8d 1E000000 		.4byte	.LVL271
 13283 0d91 0400     		.2byte	0x4
 13284 0d93 F3       		.byte	0xf3
 13285 0d94 01       		.uleb128 0x1
 13286 0d95 50       		.byte	0x50
 13287 0d96 9F       		.byte	0x9f
 13288 0d97 1E000000 		.4byte	.LVL271
 13289 0d9b 20000000 		.4byte	.LVL272
 13290 0d9f 0100     		.2byte	0x1
ARM GAS  C:\Users\jo\AppData\Local\Temp\cc67lm3z.s 			page 237


 13291 0da1 50       		.byte	0x50
 13292 0da2 20000000 		.4byte	.LVL272
 13293 0da6 24000000 		.4byte	.LFE277
 13294 0daa 0400     		.2byte	0x4
 13295 0dac F3       		.byte	0xf3
 13296 0dad 01       		.uleb128 0x1
 13297 0dae 50       		.byte	0x50
 13298 0daf 9F       		.byte	0x9f
 13299 0db0 00000000 		.4byte	0
 13300 0db4 00000000 		.4byte	0
 13301              	.LLST69:
 13302 0db8 00000000 		.4byte	.LVL264
 13303 0dbc 0A000000 		.4byte	.LVL266
 13304 0dc0 0100     		.2byte	0x1
 13305 0dc2 51       		.byte	0x51
 13306 0dc3 0A000000 		.4byte	.LVL266
 13307 0dc7 0D000000 		.4byte	.LVL267-1
 13308 0dcb 0100     		.2byte	0x1
 13309 0dcd 50       		.byte	0x50
 13310 0dce 0D000000 		.4byte	.LVL267-1
 13311 0dd2 18000000 		.4byte	.LVL269
 13312 0dd6 0400     		.2byte	0x4
 13313 0dd8 F3       		.byte	0xf3
 13314 0dd9 01       		.uleb128 0x1
 13315 0dda 51       		.byte	0x51
 13316 0ddb 9F       		.byte	0x9f
 13317 0ddc 18000000 		.4byte	.LVL269
 13318 0de0 23000000 		.4byte	.LVL273-1
 13319 0de4 0100     		.2byte	0x1
 13320 0de6 51       		.byte	0x51
 13321 0de7 23000000 		.4byte	.LVL273-1
 13322 0deb 24000000 		.4byte	.LFE277
 13323 0def 0400     		.2byte	0x4
 13324 0df1 F3       		.byte	0xf3
 13325 0df2 01       		.uleb128 0x1
 13326 0df3 51       		.byte	0x51
 13327 0df4 9F       		.byte	0x9f
 13328 0df5 00000000 		.4byte	0
 13329 0df9 00000000 		.4byte	0
 13330              	.LLST70:
 13331 0dfd 00000000 		.4byte	.LVL264
 13332 0e01 0D000000 		.4byte	.LVL267-1
 13333 0e05 0100     		.2byte	0x1
 13334 0e07 52       		.byte	0x52
 13335 0e08 0D000000 		.4byte	.LVL267-1
 13336 0e0c 18000000 		.4byte	.LVL269
 13337 0e10 0100     		.2byte	0x1
 13338 0e12 54       		.byte	0x54
 13339 0e13 18000000 		.4byte	.LVL269
 13340 0e17 23000000 		.4byte	.LVL273-1
 13341 0e1b 0100     		.2byte	0x1
 13342 0e1d 52       		.byte	0x52
 13343 0e1e 23000000 		.4byte	.LVL273-1
 13344 0e22 24000000 		.4byte	.LFE277
 13345 0e26 0400     		.2byte	0x4
 13346 0e28 F3       		.byte	0xf3
 13347 0e29 01       		.uleb128 0x1
ARM GAS  C:\Users\jo\AppData\Local\Temp\cc67lm3z.s 			page 238


 13348 0e2a 52       		.byte	0x52
 13349 0e2b 9F       		.byte	0x9f
 13350 0e2c 00000000 		.4byte	0
 13351 0e30 00000000 		.4byte	0
 13352              	.LLST71:
 13353 0e34 00000000 		.4byte	.LVL264
 13354 0e38 0D000000 		.4byte	.LVL267-1
 13355 0e3c 0100     		.2byte	0x1
 13356 0e3e 53       		.byte	0x53
 13357 0e3f 0D000000 		.4byte	.LVL267-1
 13358 0e43 18000000 		.4byte	.LVL269
 13359 0e47 0400     		.2byte	0x4
 13360 0e49 F3       		.byte	0xf3
 13361 0e4a 01       		.uleb128 0x1
 13362 0e4b 53       		.byte	0x53
 13363 0e4c 9F       		.byte	0x9f
 13364 0e4d 18000000 		.4byte	.LVL269
 13365 0e51 23000000 		.4byte	.LVL273-1
 13366 0e55 0100     		.2byte	0x1
 13367 0e57 53       		.byte	0x53
 13368 0e58 23000000 		.4byte	.LVL273-1
 13369 0e5c 24000000 		.4byte	.LFE277
 13370 0e60 0400     		.2byte	0x4
 13371 0e62 F3       		.byte	0xf3
 13372 0e63 01       		.uleb128 0x1
 13373 0e64 53       		.byte	0x53
 13374 0e65 9F       		.byte	0x9f
 13375 0e66 00000000 		.4byte	0
 13376 0e6a 00000000 		.4byte	0
 13377              	.LLST72:
 13378 0e6e 18000000 		.4byte	.LVL269
 13379 0e72 1C000000 		.4byte	.LVL270
 13380 0e76 0100     		.2byte	0x1
 13381 0e78 50       		.byte	0x50
 13382 0e79 1C000000 		.4byte	.LVL270
 13383 0e7d 1E000000 		.4byte	.LVL271
 13384 0e81 0400     		.2byte	0x4
 13385 0e83 F3       		.byte	0xf3
 13386 0e84 01       		.uleb128 0x1
 13387 0e85 50       		.byte	0x50
 13388 0e86 9F       		.byte	0x9f
 13389 0e87 1E000000 		.4byte	.LVL271
 13390 0e8b 20000000 		.4byte	.LVL272
 13391 0e8f 0100     		.2byte	0x1
 13392 0e91 50       		.byte	0x50
 13393 0e92 20000000 		.4byte	.LVL272
 13394 0e96 24000000 		.4byte	.LFE277
 13395 0e9a 0400     		.2byte	0x4
 13396 0e9c F3       		.byte	0xf3
 13397 0e9d 01       		.uleb128 0x1
 13398 0e9e 50       		.byte	0x50
 13399 0e9f 9F       		.byte	0x9f
 13400 0ea0 00000000 		.4byte	0
 13401 0ea4 00000000 		.4byte	0
 13402              	.LLST73:
 13403 0ea8 18000000 		.4byte	.LVL269
 13404 0eac 23000000 		.4byte	.LVL273-1
ARM GAS  C:\Users\jo\AppData\Local\Temp\cc67lm3z.s 			page 239


 13405 0eb0 0100     		.2byte	0x1
 13406 0eb2 53       		.byte	0x53
 13407 0eb3 23000000 		.4byte	.LVL273-1
 13408 0eb7 24000000 		.4byte	.LFE277
 13409 0ebb 0400     		.2byte	0x4
 13410 0ebd F3       		.byte	0xf3
 13411 0ebe 01       		.uleb128 0x1
 13412 0ebf 53       		.byte	0x53
 13413 0ec0 9F       		.byte	0x9f
 13414 0ec1 00000000 		.4byte	0
 13415 0ec5 00000000 		.4byte	0
 13416              	.LLST74:
 13417 0ec9 18000000 		.4byte	.LVL269
 13418 0ecd 23000000 		.4byte	.LVL273-1
 13419 0ed1 0100     		.2byte	0x1
 13420 0ed3 51       		.byte	0x51
 13421 0ed4 23000000 		.4byte	.LVL273-1
 13422 0ed8 24000000 		.4byte	.LFE277
 13423 0edc 0400     		.2byte	0x4
 13424 0ede F3       		.byte	0xf3
 13425 0edf 01       		.uleb128 0x1
 13426 0ee0 51       		.byte	0x51
 13427 0ee1 9F       		.byte	0x9f
 13428 0ee2 00000000 		.4byte	0
 13429 0ee6 00000000 		.4byte	0
 13430              	.LLST75:
 13431 0eea 00000000 		.4byte	.LVL274
 13432 0eee 14000000 		.4byte	.LVL276
 13433 0ef2 0100     		.2byte	0x1
 13434 0ef4 50       		.byte	0x50
 13435 0ef5 14000000 		.4byte	.LVL276
 13436 0ef9 56000000 		.4byte	.LVL287
 13437 0efd 0100     		.2byte	0x1
 13438 0eff 54       		.byte	0x54
 13439 0f00 56000000 		.4byte	.LVL287
 13440 0f04 58000000 		.4byte	.LVL288
 13441 0f08 0100     		.2byte	0x1
 13442 0f0a 50       		.byte	0x50
 13443 0f0b 58000000 		.4byte	.LVL288
 13444 0f0f 68000000 		.4byte	.LFE272
 13445 0f13 0100     		.2byte	0x1
 13446 0f15 54       		.byte	0x54
 13447 0f16 00000000 		.4byte	0
 13448 0f1a 00000000 		.4byte	0
 13449              	.LLST76:
 13450 0f1e 1A000000 		.4byte	.LVL277
 13451 0f22 3A000000 		.4byte	.LVL280
 13452 0f26 0100     		.2byte	0x1
 13453 0f28 50       		.byte	0x50
 13454 0f29 48000000 		.4byte	.LVL284
 13455 0f2d 4C000000 		.4byte	.LVL285
 13456 0f31 0100     		.2byte	0x1
 13457 0f33 50       		.byte	0x50
 13458 0f34 4C000000 		.4byte	.LVL285
 13459 0f38 52000000 		.4byte	.LVL286
 13460 0f3c 0300     		.2byte	0x3
 13461 0f3e 70       		.byte	0x70
ARM GAS  C:\Users\jo\AppData\Local\Temp\cc67lm3z.s 			page 240


 13462 0f3f 76       		.sleb128 -10
 13463 0f40 9F       		.byte	0x9f
 13464 0f41 62000000 		.4byte	.LVL289
 13465 0f45 64000000 		.4byte	.LVL290
 13466 0f49 0100     		.2byte	0x1
 13467 0f4b 50       		.byte	0x50
 13468 0f4c 00000000 		.4byte	0
 13469 0f50 00000000 		.4byte	0
 13470              	.LLST77:
 13471 0f54 0A000000 		.4byte	.LVL275
 13472 0f58 26000000 		.4byte	.LVL279
 13473 0f5c 0100     		.2byte	0x1
 13474 0f5e 55       		.byte	0x55
 13475 0f5f 48000000 		.4byte	.LVL284
 13476 0f63 52000000 		.4byte	.LVL286
 13477 0f67 0100     		.2byte	0x1
 13478 0f69 55       		.byte	0x55
 13479 0f6a 56000000 		.4byte	.LVL287
 13480 0f6e 64000000 		.4byte	.LVL290
 13481 0f72 0100     		.2byte	0x1
 13482 0f74 55       		.byte	0x55
 13483 0f75 00000000 		.4byte	0
 13484 0f79 00000000 		.4byte	0
 13485              	.LLST78:
 13486 0f7d 20000000 		.4byte	.LVL278
 13487 0f81 42000000 		.4byte	.LVL283
 13488 0f85 0100     		.2byte	0x1
 13489 0f87 54       		.byte	0x54
 13490 0f88 00000000 		.4byte	0
 13491 0f8c 00000000 		.4byte	0
 13492              	.LLST79:
 13493 0f90 3E000000 		.4byte	.LVL281
 13494 0f94 40000000 		.4byte	.LVL282
 13495 0f98 0100     		.2byte	0x1
 13496 0f9a 50       		.byte	0x50
 13497 0f9b 00000000 		.4byte	0
 13498 0f9f 00000000 		.4byte	0
 13499              	.LLST80:
 13500 0fa3 38000000 		.4byte	.LVL292
 13501 0fa7 4E000000 		.4byte	.LVL294
 13502 0fab 0100     		.2byte	0x1
 13503 0fad 54       		.byte	0x54
 13504 0fae 00000000 		.4byte	0
 13505 0fb2 00000000 		.4byte	0
 13506              	.LLST81:
 13507 0fb6 00000000 		.4byte	.LVL298
 13508 0fba 18000000 		.4byte	.LVL299
 13509 0fbe 0100     		.2byte	0x1
 13510 0fc0 50       		.byte	0x50
 13511 0fc1 18000000 		.4byte	.LVL299
 13512 0fc5 28000000 		.4byte	.LVL302
 13513 0fc9 0100     		.2byte	0x1
 13514 0fcb 55       		.byte	0x55
 13515 0fcc 28000000 		.4byte	.LVL302
 13516 0fd0 47000000 		.4byte	.LVL304-1
 13517 0fd4 0100     		.2byte	0x1
 13518 0fd6 50       		.byte	0x50
ARM GAS  C:\Users\jo\AppData\Local\Temp\cc67lm3z.s 			page 241


 13519 0fd7 47000000 		.4byte	.LVL304-1
 13520 0fdb 48000000 		.4byte	.LVL304
 13521 0fdf 0400     		.2byte	0x4
 13522 0fe1 F3       		.byte	0xf3
 13523 0fe2 01       		.uleb128 0x1
 13524 0fe3 50       		.byte	0x50
 13525 0fe4 9F       		.byte	0x9f
 13526 0fe5 48000000 		.4byte	.LVL304
 13527 0fe9 51000000 		.4byte	.LVL306-1
 13528 0fed 0100     		.2byte	0x1
 13529 0fef 50       		.byte	0x50
 13530 0ff0 51000000 		.4byte	.LVL306-1
 13531 0ff4 52000000 		.4byte	.LVL306
 13532 0ff8 0400     		.2byte	0x4
 13533 0ffa F3       		.byte	0xf3
 13534 0ffb 01       		.uleb128 0x1
 13535 0ffc 50       		.byte	0x50
 13536 0ffd 9F       		.byte	0x9f
 13537 0ffe 52000000 		.4byte	.LVL306
 13538 1002 54000000 		.4byte	.LVL307
 13539 1006 0100     		.2byte	0x1
 13540 1008 50       		.byte	0x50
 13541 1009 54000000 		.4byte	.LVL307
 13542 100d 56000000 		.4byte	.LFE260
 13543 1011 0100     		.2byte	0x1
 13544 1013 55       		.byte	0x55
 13545 1014 00000000 		.4byte	0
 13546 1018 00000000 		.4byte	0
 13547              	.LLST82:
 13548 101c 00000000 		.4byte	.LVL298
 13549 1020 1F000000 		.4byte	.LVL300-1
 13550 1024 0100     		.2byte	0x1
 13551 1026 51       		.byte	0x51
 13552 1027 1F000000 		.4byte	.LVL300-1
 13553 102b 28000000 		.4byte	.LVL302
 13554 102f 0400     		.2byte	0x4
 13555 1031 F3       		.byte	0xf3
 13556 1032 01       		.uleb128 0x1
 13557 1033 51       		.byte	0x51
 13558 1034 9F       		.byte	0x9f
 13559 1035 28000000 		.4byte	.LVL302
 13560 1039 47000000 		.4byte	.LVL304-1
 13561 103d 0100     		.2byte	0x1
 13562 103f 51       		.byte	0x51
 13563 1040 47000000 		.4byte	.LVL304-1
 13564 1044 48000000 		.4byte	.LVL304
 13565 1048 0400     		.2byte	0x4
 13566 104a F3       		.byte	0xf3
 13567 104b 01       		.uleb128 0x1
 13568 104c 51       		.byte	0x51
 13569 104d 9F       		.byte	0x9f
 13570 104e 48000000 		.4byte	.LVL304
 13571 1052 4A000000 		.4byte	.LVL305
 13572 1056 0100     		.2byte	0x1
 13573 1058 51       		.byte	0x51
 13574 1059 4A000000 		.4byte	.LVL305
 13575 105d 52000000 		.4byte	.LVL306
ARM GAS  C:\Users\jo\AppData\Local\Temp\cc67lm3z.s 			page 242


 13576 1061 0400     		.2byte	0x4
 13577 1063 F3       		.byte	0xf3
 13578 1064 01       		.uleb128 0x1
 13579 1065 51       		.byte	0x51
 13580 1066 9F       		.byte	0x9f
 13581 1067 52000000 		.4byte	.LVL306
 13582 106b 56000000 		.4byte	.LFE260
 13583 106f 0100     		.2byte	0x1
 13584 1071 51       		.byte	0x51
 13585 1072 00000000 		.4byte	0
 13586 1076 00000000 		.4byte	0
 13587              	.LLST83:
 13588 107a 00000000 		.4byte	.LVL298
 13589 107e 1F000000 		.4byte	.LVL300-1
 13590 1082 0100     		.2byte	0x1
 13591 1084 52       		.byte	0x52
 13592 1085 1F000000 		.4byte	.LVL300-1
 13593 1089 22000000 		.4byte	.LVL301
 13594 108d 0100     		.2byte	0x1
 13595 108f 54       		.byte	0x54
 13596 1090 22000000 		.4byte	.LVL301
 13597 1094 28000000 		.4byte	.LVL302
 13598 1098 0400     		.2byte	0x4
 13599 109a F3       		.byte	0xf3
 13600 109b 01       		.uleb128 0x1
 13601 109c 52       		.byte	0x52
 13602 109d 9F       		.byte	0x9f
 13603 109e 28000000 		.4byte	.LVL302
 13604 10a2 36000000 		.4byte	.LVL303
 13605 10a6 0100     		.2byte	0x1
 13606 10a8 52       		.byte	0x52
 13607 10a9 36000000 		.4byte	.LVL303
 13608 10ad 48000000 		.4byte	.LVL304
 13609 10b1 0400     		.2byte	0x4
 13610 10b3 F3       		.byte	0xf3
 13611 10b4 01       		.uleb128 0x1
 13612 10b5 52       		.byte	0x52
 13613 10b6 9F       		.byte	0x9f
 13614 10b7 48000000 		.4byte	.LVL304
 13615 10bb 51000000 		.4byte	.LVL306-1
 13616 10bf 0100     		.2byte	0x1
 13617 10c1 52       		.byte	0x52
 13618 10c2 51000000 		.4byte	.LVL306-1
 13619 10c6 56000000 		.4byte	.LFE260
 13620 10ca 0400     		.2byte	0x4
 13621 10cc F3       		.byte	0xf3
 13622 10cd 01       		.uleb128 0x1
 13623 10ce 52       		.byte	0x52
 13624 10cf 9F       		.byte	0x9f
 13625 10d0 00000000 		.4byte	0
 13626 10d4 00000000 		.4byte	0
 13627              	.LLST84:
 13628 10d8 00000000 		.4byte	.LVL308
 13629 10dc 10000000 		.4byte	.LVL309
 13630 10e0 0100     		.2byte	0x1
 13631 10e2 50       		.byte	0x50
 13632 10e3 10000000 		.4byte	.LVL309
ARM GAS  C:\Users\jo\AppData\Local\Temp\cc67lm3z.s 			page 243


 13633 10e7 7E000000 		.4byte	.LVL328
 13634 10eb 0100     		.2byte	0x1
 13635 10ed 54       		.byte	0x54
 13636 10ee 7E000000 		.4byte	.LVL328
 13637 10f2 80000000 		.4byte	.LVL329
 13638 10f6 0400     		.2byte	0x4
 13639 10f8 F3       		.byte	0xf3
 13640 10f9 01       		.uleb128 0x1
 13641 10fa 50       		.byte	0x50
 13642 10fb 9F       		.byte	0x9f
 13643 10fc 80000000 		.4byte	.LVL329
 13644 1100 B4000000 		.4byte	.LVL334
 13645 1104 0100     		.2byte	0x1
 13646 1106 54       		.byte	0x54
 13647 1107 B4000000 		.4byte	.LVL334
 13648 110b B7000000 		.4byte	.LVL335-1
 13649 110f 0100     		.2byte	0x1
 13650 1111 50       		.byte	0x50
 13651 1112 B7000000 		.4byte	.LVL335-1
 13652 1116 B8000000 		.4byte	.LVL335
 13653 111a 0400     		.2byte	0x4
 13654 111c F3       		.byte	0xf3
 13655 111d 01       		.uleb128 0x1
 13656 111e 50       		.byte	0x50
 13657 111f 9F       		.byte	0x9f
 13658 1120 B8000000 		.4byte	.LVL335
 13659 1124 C2000000 		.4byte	.LVL337
 13660 1128 0100     		.2byte	0x1
 13661 112a 50       		.byte	0x50
 13662 112b C2000000 		.4byte	.LVL337
 13663 112f F0000000 		.4byte	.LFE261
 13664 1133 0100     		.2byte	0x1
 13665 1135 54       		.byte	0x54
 13666 1136 00000000 		.4byte	0
 13667 113a 00000000 		.4byte	0
 13668              	.LLST85:
 13669 113e 00000000 		.4byte	.LVL308
 13670 1142 10000000 		.4byte	.LVL309
 13671 1146 0100     		.2byte	0x1
 13672 1148 51       		.byte	0x51
 13673 1149 10000000 		.4byte	.LVL309
 13674 114d 7E000000 		.4byte	.LVL328
 13675 1151 0100     		.2byte	0x1
 13676 1153 56       		.byte	0x56
 13677 1154 7E000000 		.4byte	.LVL328
 13678 1158 80000000 		.4byte	.LVL329
 13679 115c 0400     		.2byte	0x4
 13680 115e F3       		.byte	0xf3
 13681 115f 01       		.uleb128 0x1
 13682 1160 51       		.byte	0x51
 13683 1161 9F       		.byte	0x9f
 13684 1162 80000000 		.4byte	.LVL329
 13685 1166 B4000000 		.4byte	.LVL334
 13686 116a 0100     		.2byte	0x1
 13687 116c 56       		.byte	0x56
 13688 116d B4000000 		.4byte	.LVL334
 13689 1171 B8000000 		.4byte	.LVL335
ARM GAS  C:\Users\jo\AppData\Local\Temp\cc67lm3z.s 			page 244


 13690 1175 0400     		.2byte	0x4
 13691 1177 F3       		.byte	0xf3
 13692 1178 01       		.uleb128 0x1
 13693 1179 51       		.byte	0x51
 13694 117a 9F       		.byte	0x9f
 13695 117b B8000000 		.4byte	.LVL335
 13696 117f BE000000 		.4byte	.LVL336
 13697 1183 0100     		.2byte	0x1
 13698 1185 51       		.byte	0x51
 13699 1186 BE000000 		.4byte	.LVL336
 13700 118a F0000000 		.4byte	.LFE261
 13701 118e 0100     		.2byte	0x1
 13702 1190 56       		.byte	0x56
 13703 1191 00000000 		.4byte	0
 13704 1195 00000000 		.4byte	0
 13705              	.LLST86:
 13706 1199 1A000000 		.4byte	.LVL310
 13707 119d 7E000000 		.4byte	.LVL328
 13708 11a1 0100     		.2byte	0x1
 13709 11a3 59       		.byte	0x59
 13710 11a4 80000000 		.4byte	.LVL329
 13711 11a8 A4000000 		.4byte	.LVL332
 13712 11ac 0100     		.2byte	0x1
 13713 11ae 59       		.byte	0x59
 13714 11af 00000000 		.4byte	0
 13715 11b3 00000000 		.4byte	0
 13716              	.LLST87:
 13717 11b7 1E000000 		.4byte	.LVL311
 13718 11bb 7E000000 		.4byte	.LVL328
 13719 11bf 0100     		.2byte	0x1
 13720 11c1 58       		.byte	0x58
 13721 11c2 80000000 		.4byte	.LVL329
 13722 11c6 A4000000 		.4byte	.LVL332
 13723 11ca 0100     		.2byte	0x1
 13724 11cc 58       		.byte	0x58
 13725 11cd 00000000 		.4byte	0
 13726 11d1 00000000 		.4byte	0
 13727              	.LLST88:
 13728 11d5 22000000 		.4byte	.LVL312
 13729 11d9 7E000000 		.4byte	.LVL328
 13730 11dd 0100     		.2byte	0x1
 13731 11df 55       		.byte	0x55
 13732 11e0 7E000000 		.4byte	.LVL328
 13733 11e4 7F000000 		.4byte	.LVL329-1
 13734 11e8 0100     		.2byte	0x1
 13735 11ea 53       		.byte	0x53
 13736 11eb 80000000 		.4byte	.LVL329
 13737 11ef A4000000 		.4byte	.LVL332
 13738 11f3 0100     		.2byte	0x1
 13739 11f5 55       		.byte	0x55
 13740 11f6 00000000 		.4byte	0
 13741 11fa 00000000 		.4byte	0
 13742              	.LLST89:
 13743 11fe 24000000 		.4byte	.LVL313
 13744 1202 7E000000 		.4byte	.LVL328
 13745 1206 0100     		.2byte	0x1
 13746 1208 57       		.byte	0x57
ARM GAS  C:\Users\jo\AppData\Local\Temp\cc67lm3z.s 			page 245


 13747 1209 7E000000 		.4byte	.LVL328
 13748 120d 7F000000 		.4byte	.LVL329-1
 13749 1211 0100     		.2byte	0x1
 13750 1213 50       		.byte	0x50
 13751 1214 80000000 		.4byte	.LVL329
 13752 1218 A4000000 		.4byte	.LVL332
 13753 121c 0100     		.2byte	0x1
 13754 121e 57       		.byte	0x57
 13755 121f 00000000 		.4byte	0
 13756 1223 00000000 		.4byte	0
 13757              	.LLST90:
 13758 1227 34000000 		.4byte	.LVL315
 13759 122b 3B000000 		.4byte	.LVL317-1
 13760 122f 0100     		.2byte	0x1
 13761 1231 50       		.byte	0x50
 13762 1232 3C000000 		.4byte	.LVL317
 13763 1236 42000000 		.4byte	.LVL318
 13764 123a 0100     		.2byte	0x1
 13765 123c 5A       		.byte	0x5a
 13766 123d 00000000 		.4byte	0
 13767 1241 00000000 		.4byte	0
 13768              	.LLST91:
 13769 1245 38000000 		.4byte	.LVL316
 13770 1249 42000000 		.4byte	.LVL318
 13771 124d 0100     		.2byte	0x1
 13772 124f 5A       		.byte	0x5a
 13773 1250 00000000 		.4byte	0
 13774 1254 00000000 		.4byte	0
 13775              	.LLST92:
 13776 1258 46000000 		.4byte	.LVL319
 13777 125c 4D000000 		.4byte	.LVL321-1
 13778 1260 0100     		.2byte	0x1
 13779 1262 50       		.byte	0x50
 13780 1263 4E000000 		.4byte	.LVL321
 13781 1267 54000000 		.4byte	.LVL322
 13782 126b 0100     		.2byte	0x1
 13783 126d 5A       		.byte	0x5a
 13784 126e 00000000 		.4byte	0
 13785 1272 00000000 		.4byte	0
 13786              	.LLST93:
 13787 1276 4A000000 		.4byte	.LVL320
 13788 127a 54000000 		.4byte	.LVL322
 13789 127e 0100     		.2byte	0x1
 13790 1280 5A       		.byte	0x5a
 13791 1281 00000000 		.4byte	0
 13792 1285 00000000 		.4byte	0
 13793              	.LLST94:
 13794 1289 58000000 		.4byte	.LVL323
 13795 128d 5F000000 		.4byte	.LVL325-1
 13796 1291 0100     		.2byte	0x1
 13797 1293 50       		.byte	0x50
 13798 1294 60000000 		.4byte	.LVL325
 13799 1298 66000000 		.4byte	.LVL326
 13800 129c 0100     		.2byte	0x1
 13801 129e 5A       		.byte	0x5a
 13802 129f 00000000 		.4byte	0
 13803 12a3 00000000 		.4byte	0
ARM GAS  C:\Users\jo\AppData\Local\Temp\cc67lm3z.s 			page 246


 13804              	.LLST95:
 13805 12a7 5C000000 		.4byte	.LVL324
 13806 12ab 66000000 		.4byte	.LVL326
 13807 12af 0100     		.2byte	0x1
 13808 12b1 5A       		.byte	0x5a
 13809 12b2 00000000 		.4byte	0
 13810 12b6 00000000 		.4byte	0
 13811              	.LLST96:
 13812 12ba 00000000 		.4byte	.LVL340
 13813 12be 05000000 		.4byte	.LVL341-1
 13814 12c2 0100     		.2byte	0x1
 13815 12c4 50       		.byte	0x50
 13816 12c5 05000000 		.4byte	.LVL341-1
 13817 12c9 06000000 		.4byte	.LFE262
 13818 12cd 0400     		.2byte	0x4
 13819 12cf F3       		.byte	0xf3
 13820 12d0 01       		.uleb128 0x1
 13821 12d1 50       		.byte	0x50
 13822 12d2 9F       		.byte	0x9f
 13823 12d3 00000000 		.4byte	0
 13824 12d7 00000000 		.4byte	0
 13825              	.LLST97:
 13826 12db 00000000 		.4byte	.LVL342
 13827 12df 0C000000 		.4byte	.LVL343
 13828 12e3 0100     		.2byte	0x1
 13829 12e5 50       		.byte	0x50
 13830 12e6 0C000000 		.4byte	.LVL343
 13831 12ea 38010000 		.4byte	.LFE280
 13832 12ee 0400     		.2byte	0x4
 13833 12f0 F3       		.byte	0xf3
 13834 12f1 01       		.uleb128 0x1
 13835 12f2 50       		.byte	0x50
 13836 12f3 9F       		.byte	0x9f
 13837 12f4 00000000 		.4byte	0
 13838 12f8 00000000 		.4byte	0
 13839              	.LLST98:
 13840 12fc 10000000 		.4byte	.LVL344
 13841 1300 1F000000 		.4byte	.LVL345-1
 13842 1304 0100     		.2byte	0x1
 13843 1306 50       		.byte	0x50
 13844 1307 1F000000 		.4byte	.LVL345-1
 13845 130b 9E000000 		.4byte	.LVL346
 13846 130f 0100     		.2byte	0x1
 13847 1311 54       		.byte	0x54
 13848 1312 9E000000 		.4byte	.LVL346
 13849 1316 A2000000 		.4byte	.LVL347
 13850 131a 0100     		.2byte	0x1
 13851 131c 50       		.byte	0x50
 13852 131d A2000000 		.4byte	.LVL347
 13853 1321 AA000000 		.4byte	.LVL348
 13854 1325 0100     		.2byte	0x1
 13855 1327 54       		.byte	0x54
 13856 1328 CE000000 		.4byte	.LVL356
 13857 132c E2000000 		.4byte	.LVL359
 13858 1330 0100     		.2byte	0x1
 13859 1332 50       		.byte	0x50
 13860 1333 10010000 		.4byte	.LVL366
ARM GAS  C:\Users\jo\AppData\Local\Temp\cc67lm3z.s 			page 247


 13861 1337 38010000 		.4byte	.LFE280
 13862 133b 0100     		.2byte	0x1
 13863 133d 50       		.byte	0x50
 13864 133e 00000000 		.4byte	0
 13865 1342 00000000 		.4byte	0
 13866              	.LLST99:
 13867 1346 A2000000 		.4byte	.LVL347
 13868 134a B0000000 		.4byte	.LVL349
 13869 134e 0100     		.2byte	0x1
 13870 1350 50       		.byte	0x50
 13871 1351 B0000000 		.4byte	.LVL349
 13872 1355 C7000000 		.4byte	.LVL355-1
 13873 1359 0100     		.2byte	0x1
 13874 135b 53       		.byte	0x53
 13875 135c 00000000 		.4byte	0
 13876 1360 00000000 		.4byte	0
 13877              	.LLST100:
 13878 1364 9E000000 		.4byte	.LVL346
 13879 1368 B0000000 		.4byte	.LVL349
 13880 136c 0200     		.2byte	0x2
 13881 136e 30       		.byte	0x30
 13882 136f 9F       		.byte	0x9f
 13883 1370 00000000 		.4byte	0
 13884 1374 00000000 		.4byte	0
 13885              	.LLST101:
 13886 1378 9E000000 		.4byte	.LVL346
 13887 137c B0000000 		.4byte	.LVL349
 13888 1380 0200     		.2byte	0x2
 13889 1382 30       		.byte	0x30
 13890 1383 9F       		.byte	0x9f
 13891 1384 B0000000 		.4byte	.LVL349
 13892 1388 BA000000 		.4byte	.LVL350
 13893 138c 0100     		.2byte	0x1
 13894 138e 51       		.byte	0x51
 13895 138f BC000000 		.4byte	.LVL351
 13896 1393 C4000000 		.4byte	.LVL354
 13897 1397 0100     		.2byte	0x1
 13898 1399 51       		.byte	0x51
 13899 139a 00000000 		.4byte	0
 13900 139e 00000000 		.4byte	0
 13901              	.LLST102:
 13902 13a2 C2000000 		.4byte	.LVL353
 13903 13a6 C7000000 		.4byte	.LVL355-1
 13904 13aa 0100     		.2byte	0x1
 13905 13ac 50       		.byte	0x50
 13906 13ad 00000000 		.4byte	0
 13907 13b1 00000000 		.4byte	0
 13908              	.LLST103:
 13909 13b5 D8000000 		.4byte	.LVL358
 13910 13b9 09010000 		.4byte	.LVL365-1
 13911 13bd 0100     		.2byte	0x1
 13912 13bf 53       		.byte	0x53
 13913 13c0 00000000 		.4byte	0
 13914 13c4 00000000 		.4byte	0
 13915              	.LLST104:
 13916 13c8 D4000000 		.4byte	.LVL357
 13917 13cc E2000000 		.4byte	.LVL359
ARM GAS  C:\Users\jo\AppData\Local\Temp\cc67lm3z.s 			page 248


 13918 13d0 0200     		.2byte	0x2
 13919 13d2 30       		.byte	0x30
 13920 13d3 9F       		.byte	0x9f
 13921 13d4 00000000 		.4byte	0
 13922 13d8 00000000 		.4byte	0
 13923              	.LLST105:
 13924 13dc D4000000 		.4byte	.LVL357
 13925 13e0 E2000000 		.4byte	.LVL359
 13926 13e4 0200     		.2byte	0x2
 13927 13e6 30       		.byte	0x30
 13928 13e7 9F       		.byte	0x9f
 13929 13e8 E2000000 		.4byte	.LVL359
 13930 13ec FA000000 		.4byte	.LVL361
 13931 13f0 0100     		.2byte	0x1
 13932 13f2 54       		.byte	0x54
 13933 13f3 FC000000 		.4byte	.LVL362
 13934 13f7 0A010000 		.4byte	.LVL365
 13935 13fb 0100     		.2byte	0x1
 13936 13fd 54       		.byte	0x54
 13937 13fe 00000000 		.4byte	0
 13938 1402 00000000 		.4byte	0
 13939              	.LLST106:
 13940 1406 D4000000 		.4byte	.LVL357
 13941 140a E2000000 		.4byte	.LVL359
 13942 140e 0300     		.2byte	0x3
 13943 1410 08       		.byte	0x8
 13944 1411 7F       		.byte	0x7f
 13945 1412 9F       		.byte	0x9f
 13946 1413 E2000000 		.4byte	.LVL359
 13947 1417 F8000000 		.4byte	.LVL360
 13948 141b 0100     		.2byte	0x1
 13949 141d 56       		.byte	0x56
 13950 141e FC000000 		.4byte	.LVL362
 13951 1422 0A010000 		.4byte	.LVL365
 13952 1426 0100     		.2byte	0x1
 13953 1428 56       		.byte	0x56
 13954 1429 00000000 		.4byte	0
 13955 142d 00000000 		.4byte	0
 13956              	.LLST107:
 13957 1431 04010000 		.4byte	.LVL364
 13958 1435 09010000 		.4byte	.LVL365-1
 13959 1439 0100     		.2byte	0x1
 13960 143b 50       		.byte	0x50
 13961 143c 00000000 		.4byte	0
 13962 1440 00000000 		.4byte	0
 13963              	.LLST108:
 13964 1444 00000000 		.4byte	.LVL368
 13965 1448 06000000 		.4byte	.LVL369
 13966 144c 0100     		.2byte	0x1
 13967 144e 50       		.byte	0x50
 13968 144f 06000000 		.4byte	.LVL369
 13969 1453 1A000000 		.4byte	.LVL374
 13970 1457 0400     		.2byte	0x4
 13971 1459 F3       		.byte	0xf3
 13972 145a 01       		.uleb128 0x1
 13973 145b 50       		.byte	0x50
 13974 145c 9F       		.byte	0x9f
ARM GAS  C:\Users\jo\AppData\Local\Temp\cc67lm3z.s 			page 249


 13975 145d 1A000000 		.4byte	.LVL374
 13976 1461 1E000000 		.4byte	.LFE291
 13977 1465 0100     		.2byte	0x1
 13978 1467 54       		.byte	0x54
 13979 1468 00000000 		.4byte	0
 13980 146c 00000000 		.4byte	0
 13981              	.LLST109:
 13982 1470 00000000 		.4byte	.LVL368
 13983 1474 09000000 		.4byte	.LVL370-1
 13984 1478 0100     		.2byte	0x1
 13985 147a 51       		.byte	0x51
 13986 147b 09000000 		.4byte	.LVL370-1
 13987 147f 1E000000 		.4byte	.LFE291
 13988 1483 0400     		.2byte	0x4
 13989 1485 F3       		.byte	0xf3
 13990 1486 01       		.uleb128 0x1
 13991 1487 51       		.byte	0x51
 13992 1488 9F       		.byte	0x9f
 13993 1489 00000000 		.4byte	0
 13994 148d 00000000 		.4byte	0
 13995              	.LLST110:
 13996 1491 10000000 		.4byte	.LVL371
 13997 1495 12000000 		.4byte	.LVL372
 13998 1499 0300     		.2byte	0x3
 13999 149b 73       		.byte	0x73
 14000 149c 58       		.sleb128 -40
 14001 149d 9F       		.byte	0x9f
 14002 149e 12000000 		.4byte	.LVL372
 14003 14a2 14000000 		.4byte	.LVL373
 14004 14a6 0300     		.2byte	0x3
 14005 14a8 73       		.byte	0x73
 14006 14a9 00       		.sleb128 0
 14007 14aa 9F       		.byte	0x9f
 14008 14ab 14000000 		.4byte	.LVL373
 14009 14af 1A000000 		.4byte	.LVL374
 14010 14b3 0800     		.2byte	0x8
 14011 14b5 70       		.byte	0x70
 14012 14b6 20       		.sleb128 32
 14013 14b7 94       		.byte	0x94
 14014 14b8 02       		.byte	0x2
 14015 14b9 08       		.byte	0x8
 14016 14ba 28       		.byte	0x28
 14017 14bb 1C       		.byte	0x1c
 14018 14bc 9F       		.byte	0x9f
 14019 14bd 00000000 		.4byte	0
 14020 14c1 00000000 		.4byte	0
 14021              	.LLST111:
 14022 14c5 0A000000 		.4byte	.LVL370
 14023 14c9 1C000000 		.4byte	.LVL375
 14024 14cd 0100     		.2byte	0x1
 14025 14cf 50       		.byte	0x50
 14026 14d0 00000000 		.4byte	0
 14027 14d4 00000000 		.4byte	0
 14028              	.LLST112:
 14029 14d8 00000000 		.4byte	.LVL376
 14030 14dc 24000000 		.4byte	.LVL379
 14031 14e0 0100     		.2byte	0x1
ARM GAS  C:\Users\jo\AppData\Local\Temp\cc67lm3z.s 			page 250


 14032 14e2 50       		.byte	0x50
 14033 14e3 24000000 		.4byte	.LVL379
 14034 14e7 00010000 		.4byte	.LVL392
 14035 14eb 0100     		.2byte	0x1
 14036 14ed 54       		.byte	0x54
 14037 14ee 00010000 		.4byte	.LVL392
 14038 14f2 0A010000 		.4byte	.LVL395
 14039 14f6 0100     		.2byte	0x1
 14040 14f8 50       		.byte	0x50
 14041 14f9 0A010000 		.4byte	.LVL395
 14042 14fd 1C010000 		.4byte	.LVL398
 14043 1501 0100     		.2byte	0x1
 14044 1503 54       		.byte	0x54
 14045 1504 1C010000 		.4byte	.LVL398
 14046 1508 1E010000 		.4byte	.LVL399
 14047 150c 0100     		.2byte	0x1
 14048 150e 50       		.byte	0x50
 14049 150f 1E010000 		.4byte	.LVL399
 14050 1513 4C010000 		.4byte	.LFE269
 14051 1517 0100     		.2byte	0x1
 14052 1519 54       		.byte	0x54
 14053 151a 00000000 		.4byte	0
 14054 151e 00000000 		.4byte	0
 14055              	.LLST113:
 14056 1522 00000000 		.4byte	.LVL376
 14057 1526 08000000 		.4byte	.LVL377
 14058 152a 0100     		.2byte	0x1
 14059 152c 51       		.byte	0x51
 14060 152d 08000000 		.4byte	.LVL377
 14061 1531 4C010000 		.4byte	.LFE269
 14062 1535 0100     		.2byte	0x1
 14063 1537 55       		.byte	0x55
 14064 1538 00000000 		.4byte	0
 14065 153c 00000000 		.4byte	0
 14066              	.LLST114:
 14067 1540 00000000 		.4byte	.LVL376
 14068 1544 27000000 		.4byte	.LVL380-1
 14069 1548 0100     		.2byte	0x1
 14070 154a 52       		.byte	0x52
 14071 154b 27000000 		.4byte	.LVL380-1
 14072 154f 00010000 		.4byte	.LVL392
 14073 1553 0400     		.2byte	0x4
 14074 1555 F3       		.byte	0xf3
 14075 1556 01       		.uleb128 0x1
 14076 1557 52       		.byte	0x52
 14077 1558 9F       		.byte	0x9f
 14078 1559 00010000 		.4byte	.LVL392
 14079 155d 08010000 		.4byte	.LVL394
 14080 1561 0100     		.2byte	0x1
 14081 1563 52       		.byte	0x52
 14082 1564 08010000 		.4byte	.LVL394
 14083 1568 1C010000 		.4byte	.LVL398
 14084 156c 0400     		.2byte	0x4
 14085 156e F3       		.byte	0xf3
 14086 156f 01       		.uleb128 0x1
 14087 1570 52       		.byte	0x52
 14088 1571 9F       		.byte	0x9f
ARM GAS  C:\Users\jo\AppData\Local\Temp\cc67lm3z.s 			page 251


 14089 1572 1C010000 		.4byte	.LVL398
 14090 1576 20010000 		.4byte	.LVL400
 14091 157a 0100     		.2byte	0x1
 14092 157c 52       		.byte	0x52
 14093 157d 20010000 		.4byte	.LVL400
 14094 1581 4C010000 		.4byte	.LFE269
 14095 1585 0400     		.2byte	0x4
 14096 1587 F3       		.byte	0xf3
 14097 1588 01       		.uleb128 0x1
 14098 1589 52       		.byte	0x52
 14099 158a 9F       		.byte	0x9f
 14100 158b 00000000 		.4byte	0
 14101 158f 00000000 		.4byte	0
 14102              	.LLST115:
 14103 1593 00000000 		.4byte	.LVL376
 14104 1597 1A000000 		.4byte	.LVL378
 14105 159b 0100     		.2byte	0x1
 14106 159d 53       		.byte	0x53
 14107 159e 1A000000 		.4byte	.LVL378
 14108 15a2 E4000000 		.4byte	.LVL388
 14109 15a6 0100     		.2byte	0x1
 14110 15a8 57       		.byte	0x57
 14111 15a9 E4000000 		.4byte	.LVL388
 14112 15ad EC000000 		.4byte	.LVL389
 14113 15b1 0400     		.2byte	0x4
 14114 15b3 F3       		.byte	0xf3
 14115 15b4 01       		.uleb128 0x1
 14116 15b5 53       		.byte	0x53
 14117 15b6 9F       		.byte	0x9f
 14118 15b7 EC000000 		.4byte	.LVL389
 14119 15bb 00010000 		.4byte	.LVL392
 14120 15bf 0100     		.2byte	0x1
 14121 15c1 57       		.byte	0x57
 14122 15c2 00010000 		.4byte	.LVL392
 14123 15c6 02010000 		.4byte	.LVL393
 14124 15ca 0100     		.2byte	0x1
 14125 15cc 53       		.byte	0x53
 14126 15cd 02010000 		.4byte	.LVL393
 14127 15d1 1C010000 		.4byte	.LVL398
 14128 15d5 0400     		.2byte	0x4
 14129 15d7 F3       		.byte	0xf3
 14130 15d8 01       		.uleb128 0x1
 14131 15d9 53       		.byte	0x53
 14132 15da 9F       		.byte	0x9f
 14133 15db 1C010000 		.4byte	.LVL398
 14134 15df 20010000 		.4byte	.LVL400
 14135 15e3 0100     		.2byte	0x1
 14136 15e5 53       		.byte	0x53
 14137 15e6 20010000 		.4byte	.LVL400
 14138 15ea 4C010000 		.4byte	.LFE269
 14139 15ee 0100     		.2byte	0x1
 14140 15f0 57       		.byte	0x57
 14141 15f1 00000000 		.4byte	0
 14142 15f5 00000000 		.4byte	0
 14143              	.LLST116:
 14144 15f9 A0000000 		.4byte	.LVL385
 14145 15fd D5000000 		.4byte	.LVL386-1
ARM GAS  C:\Users\jo\AppData\Local\Temp\cc67lm3z.s 			page 252


 14146 1601 0100     		.2byte	0x1
 14147 1603 50       		.byte	0x50
 14148 1604 EC000000 		.4byte	.LVL389
 14149 1608 F6000000 		.4byte	.LVL390
 14150 160c 0100     		.2byte	0x1
 14151 160e 50       		.byte	0x50
 14152 160f FA000000 		.4byte	.LVL391
 14153 1613 00010000 		.4byte	.LVL392
 14154 1617 0100     		.2byte	0x1
 14155 1619 50       		.byte	0x50
 14156 161a 00000000 		.4byte	0
 14157 161e 00000000 		.4byte	0
 14158              	.LLST117:
 14159 1622 32000000 		.4byte	.LVL382
 14160 1626 E4000000 		.4byte	.LVL388
 14161 162a 0100     		.2byte	0x1
 14162 162c 56       		.byte	0x56
 14163 162d EC000000 		.4byte	.LVL389
 14164 1631 00010000 		.4byte	.LVL392
 14165 1635 0100     		.2byte	0x1
 14166 1637 56       		.byte	0x56
 14167 1638 00000000 		.4byte	0
 14168 163c 00000000 		.4byte	0
 14169              	.LLST118:
 14170 1640 28000000 		.4byte	.LVL380
 14171 1644 30000000 		.4byte	.LVL381
 14172 1648 0100     		.2byte	0x1
 14173 164a 50       		.byte	0x50
 14174 164b 20010000 		.4byte	.LVL400
 14175 164f 22010000 		.4byte	.LVL401
 14176 1653 0100     		.2byte	0x1
 14177 1655 50       		.byte	0x50
 14178 1656 00000000 		.4byte	0
 14179 165a 00000000 		.4byte	0
 14180              	.LLST119:
 14181 165e 12010000 		.4byte	.LVL396
 14182 1662 1C010000 		.4byte	.LVL398
 14183 1666 0600     		.2byte	0x6
 14184 1668 03       		.byte	0x3
 14185 1669 9C030000 		.4byte	.LC24
 14186 166d 9F       		.byte	0x9f
 14187 166e 00000000 		.4byte	0
 14188 1672 00000000 		.4byte	0
 14189              	.LLST120:
 14190 1676 00000000 		.4byte	.LVL402
 14191 167a 06000000 		.4byte	.LVL403
 14192 167e 0100     		.2byte	0x1
 14193 1680 50       		.byte	0x50
 14194 1681 06000000 		.4byte	.LVL403
 14195 1685 0C000000 		.4byte	.LFE292
 14196 1689 0400     		.2byte	0x4
 14197 168b F3       		.byte	0xf3
 14198 168c 01       		.uleb128 0x1
 14199 168d 50       		.byte	0x50
 14200 168e 9F       		.byte	0x9f
 14201 168f 00000000 		.4byte	0
 14202 1693 00000000 		.4byte	0
ARM GAS  C:\Users\jo\AppData\Local\Temp\cc67lm3z.s 			page 253


 14203              		.section	.debug_aranges,"",%progbits
 14204 0000 34010000 		.4byte	0x134
 14205 0004 0200     		.2byte	0x2
 14206 0006 00000000 		.4byte	.Ldebug_info0
 14207 000a 04       		.byte	0x4
 14208 000b 00       		.byte	0
 14209 000c 0000     		.2byte	0
 14210 000e 0000     		.2byte	0
 14211 0010 00000000 		.4byte	.LFB264
 14212 0014 06000000 		.4byte	.LFE264-.LFB264
 14213 0018 00000000 		.4byte	.LFB268
 14214 001c 58000000 		.4byte	.LFE268-.LFB268
 14215 0020 00000000 		.4byte	.LFB297
 14216 0024 28000000 		.4byte	.LFE297-.LFB297
 14217 0028 00000000 		.4byte	.LFB256
 14218 002c 02000000 		.4byte	.LFE256-.LFB256
 14219 0030 00000000 		.4byte	.LFB263
 14220 0034 A4000000 		.4byte	.LFE263-.LFB263
 14221 0038 00000000 		.4byte	.LFB265
 14222 003c D8000000 		.4byte	.LFE265-.LFB265
 14223 0040 00000000 		.4byte	.LFB266
 14224 0044 74000000 		.4byte	.LFE266-.LFB266
 14225 0048 00000000 		.4byte	.LFB267
 14226 004c 9C000000 		.4byte	.LFE267-.LFB267
 14227 0050 00000000 		.4byte	.LFB274
 14228 0054 1A000000 		.4byte	.LFE274-.LFB274
 14229 0058 00000000 		.4byte	.LFB273
 14230 005c 14000000 		.4byte	.LFE273-.LFB273
 14231 0060 00000000 		.4byte	.LFB275
 14232 0064 04000000 		.4byte	.LFE275-.LFB275
 14233 0068 00000000 		.4byte	.LFB276
 14234 006c 30000000 		.4byte	.LFE276-.LFB276
 14235 0070 00000000 		.4byte	.LFB282
 14236 0074 04000000 		.4byte	.LFE282-.LFB282
 14237 0078 00000000 		.4byte	.LFB283
 14238 007c 48000000 		.4byte	.LFE283-.LFB283
 14239 0080 00000000 		.4byte	.LFB284
 14240 0084 44000000 		.4byte	.LFE284-.LFB284
 14241 0088 00000000 		.4byte	.LFB285
 14242 008c 48000000 		.4byte	.LFE285-.LFB285
 14243 0090 00000000 		.4byte	.LFB286
 14244 0094 04000000 		.4byte	.LFE286-.LFB286
 14245 0098 00000000 		.4byte	.LFB287
 14246 009c 50000000 		.4byte	.LFE287-.LFB287
 14247 00a0 00000000 		.4byte	.LFB288
 14248 00a4 62000000 		.4byte	.LFE288-.LFB288
 14249 00a8 00000000 		.4byte	.LFB270
 14250 00ac AC040000 		.4byte	.LFE270-.LFB270
 14251 00b0 00000000 		.4byte	.LFB289
 14252 00b4 E0000000 		.4byte	.LFE289-.LFB289
 14253 00b8 00000000 		.4byte	.LFB258
 14254 00bc 8C010000 		.4byte	.LFE258-.LFB258
 14255 00c0 00000000 		.4byte	.LFB259
 14256 00c4 14000000 		.4byte	.LFE259-.LFB259
 14257 00c8 00000000 		.4byte	.LFB277
 14258 00cc 24000000 		.4byte	.LFE277-.LFB277
 14259 00d0 00000000 		.4byte	.LFB272
ARM GAS  C:\Users\jo\AppData\Local\Temp\cc67lm3z.s 			page 254


 14260 00d4 68000000 		.4byte	.LFE272-.LFB272
 14261 00d8 00000000 		.4byte	.LFB271
 14262 00dc 70000000 		.4byte	.LFE271-.LFB271
 14263 00e0 00000000 		.4byte	.LFB257
 14264 00e4 24000000 		.4byte	.LFE257-.LFB257
 14265 00e8 00000000 		.4byte	.LFB260
 14266 00ec 56000000 		.4byte	.LFE260-.LFB260
 14267 00f0 00000000 		.4byte	.LFB261
 14268 00f4 F0000000 		.4byte	.LFE261-.LFB261
 14269 00f8 00000000 		.4byte	.LFB262
 14270 00fc 06000000 		.4byte	.LFE262-.LFB262
 14271 0100 00000000 		.4byte	.LFB280
 14272 0104 38010000 		.4byte	.LFE280-.LFB280
 14273 0108 00000000 		.4byte	.LFB281
 14274 010c 06000000 		.4byte	.LFE281-.LFB281
 14275 0110 00000000 		.4byte	.LFB290
 14276 0114 18000000 		.4byte	.LFE290-.LFB290
 14277 0118 00000000 		.4byte	.LFB291
 14278 011c 1E000000 		.4byte	.LFE291-.LFB291
 14279 0120 00000000 		.4byte	.LFB269
 14280 0124 4C010000 		.4byte	.LFE269-.LFB269
 14281 0128 00000000 		.4byte	.LFB292
 14282 012c 0C000000 		.4byte	.LFE292-.LFB292
 14283 0130 00000000 		.4byte	0
 14284 0134 00000000 		.4byte	0
 14285              		.section	.debug_ranges,"",%progbits
 14286              	.Ldebug_ranges0:
 14287 0000 36000000 		.4byte	.LBB98
 14288 0004 40000000 		.4byte	.LBE98
 14289 0008 42000000 		.4byte	.LBB101
 14290 000c 44000000 		.4byte	.LBE101
 14291 0010 48000000 		.4byte	.LBB102
 14292 0014 74000000 		.4byte	.LBE102
 14293 0018 00000000 		.4byte	0
 14294 001c 00000000 		.4byte	0
 14295 0020 3C000000 		.4byte	.LBB113
 14296 0024 46000000 		.4byte	.LBE113
 14297 0028 4C000000 		.4byte	.LBB116
 14298 002c 50000000 		.4byte	.LBE116
 14299 0030 00000000 		.4byte	0
 14300 0034 00000000 		.4byte	0
 14301 0038 64010000 		.4byte	.LBB154
 14302 003c 8A010000 		.4byte	.LBE154
 14303 0040 2A040000 		.4byte	.LBB174
 14304 0044 52040000 		.4byte	.LBE174
 14305 0048 6C040000 		.4byte	.LBB176
 14306 004c AC040000 		.4byte	.LBE176
 14307 0050 00000000 		.4byte	0
 14308 0054 00000000 		.4byte	0
 14309 0058 CA010000 		.4byte	.LBB162
 14310 005c 20020000 		.4byte	.LBE162
 14311 0060 F0030000 		.4byte	.LBB173
 14312 0064 2A040000 		.4byte	.LBE173
 14313 0068 52040000 		.4byte	.LBB175
 14314 006c 6C040000 		.4byte	.LBE175
 14315 0070 00000000 		.4byte	0
 14316 0074 00000000 		.4byte	0
ARM GAS  C:\Users\jo\AppData\Local\Temp\cc67lm3z.s 			page 255


 14317 0078 18000000 		.4byte	.LBB187
 14318 007c 1A000000 		.4byte	.LBE187
 14319 0080 1E000000 		.4byte	.LBB190
 14320 0084 24000000 		.4byte	.LBE190
 14321 0088 00000000 		.4byte	0
 14322 008c 00000000 		.4byte	0
 14323 0090 20000000 		.4byte	.LBB193
 14324 0094 44000000 		.4byte	.LBE193
 14325 0098 64000000 		.4byte	.LBB196
 14326 009c 68000000 		.4byte	.LBE196
 14327 00a0 00000000 		.4byte	0
 14328 00a4 00000000 		.4byte	0
 14329 00a8 0A000000 		.4byte	.LBB197
 14330 00ac 0E000000 		.4byte	.LBE197
 14331 00b0 12000000 		.4byte	.LBB198
 14332 00b4 14000000 		.4byte	.LBE198
 14333 00b8 28000000 		.4byte	.LBB199
 14334 00bc 70000000 		.4byte	.LBE199
 14335 00c0 00000000 		.4byte	0
 14336 00c4 00000000 		.4byte	0
 14337 00c8 20000000 		.4byte	.LBB221
 14338 00cc 24000000 		.4byte	.LBE221
 14339 00d0 26000000 		.4byte	.LBB226
 14340 00d4 2A000000 		.4byte	.LBE226
 14341 00d8 38000000 		.4byte	.LBB227
 14342 00dc 3A000000 		.4byte	.LBE227
 14343 00e0 52000000 		.4byte	.LBB228
 14344 00e4 54000000 		.4byte	.LBE228
 14345 00e8 00000000 		.4byte	0
 14346 00ec 00000000 		.4byte	0
 14347 00f0 22000000 		.4byte	.LBB237
 14348 00f4 30000000 		.4byte	.LBE237
 14349 00f8 20010000 		.4byte	.LBB244
 14350 00fc 4C010000 		.4byte	.LBE244
 14351 0100 00000000 		.4byte	0
 14352 0104 00000000 		.4byte	0
 14353 0108 3E000000 		.4byte	.LBB238
 14354 010c 4C000000 		.4byte	.LBE238
 14355 0110 7A000000 		.4byte	.LBB241
 14356 0114 7E000000 		.4byte	.LBE241
 14357 0118 00000000 		.4byte	0
 14358 011c 00000000 		.4byte	0
 14359 0120 00000000 		.4byte	.LFB264
 14360 0124 06000000 		.4byte	.LFE264
 14361 0128 00000000 		.4byte	.LFB268
 14362 012c 58000000 		.4byte	.LFE268
 14363 0130 00000000 		.4byte	.LFB297
 14364 0134 28000000 		.4byte	.LFE297
 14365 0138 00000000 		.4byte	.LFB256
 14366 013c 02000000 		.4byte	.LFE256
 14367 0140 00000000 		.4byte	.LFB263
 14368 0144 A4000000 		.4byte	.LFE263
 14369 0148 00000000 		.4byte	.LFB265
 14370 014c D8000000 		.4byte	.LFE265
 14371 0150 00000000 		.4byte	.LFB266
 14372 0154 74000000 		.4byte	.LFE266
 14373 0158 00000000 		.4byte	.LFB267
ARM GAS  C:\Users\jo\AppData\Local\Temp\cc67lm3z.s 			page 256


 14374 015c 9C000000 		.4byte	.LFE267
 14375 0160 00000000 		.4byte	.LFB274
 14376 0164 1A000000 		.4byte	.LFE274
 14377 0168 00000000 		.4byte	.LFB273
 14378 016c 14000000 		.4byte	.LFE273
 14379 0170 00000000 		.4byte	.LFB275
 14380 0174 04000000 		.4byte	.LFE275
 14381 0178 00000000 		.4byte	.LFB276
 14382 017c 30000000 		.4byte	.LFE276
 14383 0180 00000000 		.4byte	.LFB282
 14384 0184 04000000 		.4byte	.LFE282
 14385 0188 00000000 		.4byte	.LFB283
 14386 018c 48000000 		.4byte	.LFE283
 14387 0190 00000000 		.4byte	.LFB284
 14388 0194 44000000 		.4byte	.LFE284
 14389 0198 00000000 		.4byte	.LFB285
 14390 019c 48000000 		.4byte	.LFE285
 14391 01a0 00000000 		.4byte	.LFB286
 14392 01a4 04000000 		.4byte	.LFE286
 14393 01a8 00000000 		.4byte	.LFB287
 14394 01ac 50000000 		.4byte	.LFE287
 14395 01b0 00000000 		.4byte	.LFB288
 14396 01b4 62000000 		.4byte	.LFE288
 14397 01b8 00000000 		.4byte	.LFB270
 14398 01bc AC040000 		.4byte	.LFE270
 14399 01c0 00000000 		.4byte	.LFB289
 14400 01c4 E0000000 		.4byte	.LFE289
 14401 01c8 00000000 		.4byte	.LFB258
 14402 01cc 8C010000 		.4byte	.LFE258
 14403 01d0 00000000 		.4byte	.LFB259
 14404 01d4 14000000 		.4byte	.LFE259
 14405 01d8 00000000 		.4byte	.LFB277
 14406 01dc 24000000 		.4byte	.LFE277
 14407 01e0 00000000 		.4byte	.LFB272
 14408 01e4 68000000 		.4byte	.LFE272
 14409 01e8 00000000 		.4byte	.LFB271
 14410 01ec 70000000 		.4byte	.LFE271
 14411 01f0 00000000 		.4byte	.LFB257
 14412 01f4 24000000 		.4byte	.LFE257
 14413 01f8 00000000 		.4byte	.LFB260
 14414 01fc 56000000 		.4byte	.LFE260
 14415 0200 00000000 		.4byte	.LFB261
 14416 0204 F0000000 		.4byte	.LFE261
 14417 0208 00000000 		.4byte	.LFB262
 14418 020c 06000000 		.4byte	.LFE262
 14419 0210 00000000 		.4byte	.LFB280
 14420 0214 38010000 		.4byte	.LFE280
 14421 0218 00000000 		.4byte	.LFB281
 14422 021c 06000000 		.4byte	.LFE281
 14423 0220 00000000 		.4byte	.LFB290
 14424 0224 18000000 		.4byte	.LFE290
 14425 0228 00000000 		.4byte	.LFB291
 14426 022c 1E000000 		.4byte	.LFE291
 14427 0230 00000000 		.4byte	.LFB269
 14428 0234 4C010000 		.4byte	.LFE269
 14429 0238 00000000 		.4byte	.LFB292
 14430 023c 0C000000 		.4byte	.LFE292
ARM GAS  C:\Users\jo\AppData\Local\Temp\cc67lm3z.s 			page 257


 14431 0240 00000000 		.4byte	0
 14432 0244 00000000 		.4byte	0
 14433              		.section	.debug_line,"",%progbits
 14434              	.Ldebug_line0:
 14435 0000 5C0D0000 		.section	.debug_str,"MS",%progbits,1
 14435      0200D703 
 14435      00000201 
 14435      FB0E0D00 
 14435      01010101 
 14436              	.LASF58:
 14437 0000 74687265 		.ascii	"threads_queue_t\000"
 14437      6164735F 
 14437      71756575 
 14437      655F7400 
 14438              	.LASF256:
 14439 0010 6C697374 		.ascii	"listen_pcbs\000"
 14439      656E5F70 
 14439      63627300 
 14440              	.LASF292:
 14441 001c 696E7465 		.ascii	"interval\000"
 14441      7276616C 
 14441      00
 14442              	.LASF177:
 14443 0025 6E616D65 		.ascii	"name\000"
 14443      00
 14444              	.LASF364:
 14445 002a 2E2E2F2E 		.ascii	"../../../os/ext/lwip-1.4.1/src/core/tcp.c\000"
 14445      2E2F2E2E 
 14445      2F6F732F 
 14445      6578742F 
 14445      6C776970 
 14446              	.LASF147:
 14447 0054 4D454D50 		.ascii	"MEMP_TCP_PCB_LISTEN\000"
 14447      5F544350 
 14447      5F504342 
 14447      5F4C4953 
 14447      54454E00 
 14448              	.LASF285:
 14449 0068 63736567 		.ascii	"cseg\000"
 14449      00
 14450              	.LASF358:
 14451 006d 7463705F 		.ascii	"tcp_keepalive\000"
 14451      6B656570 
 14451      616C6976 
 14451      6500
 14452              	.LASF185:
 14453 007b 736F5F6F 		.ascii	"so_options\000"
 14453      7074696F 
 14453      6E7300
 14454              	.LASF99:
 14455 0086 63686172 		.ascii	"char\000"
 14455      00
 14456              	.LASF348:
 14457 008b 63687670 		.ascii	"chvprintf\000"
 14457      72696E74 
 14457      6600
 14458              	.LASF172:
ARM GAS  C:\Users\jo\AppData\Local\Temp\cc67lm3z.s 			page 258


 14459 0095 6F757470 		.ascii	"output\000"
 14459      757400
 14460              	.LASF38:
 14461 009c 705F7072 		.ascii	"p_prio\000"
 14461      696F00
 14462              	.LASF307:
 14463 00a3 61676169 		.ascii	"again\000"
 14463      6E00
 14464              	.LASF255:
 14465 00a9 75726770 		.ascii	"urgp\000"
 14465      00
 14466              	.LASF264:
 14467 00ae 7463705F 		.ascii	"tcp_process_refused_data\000"
 14467      70726F63 
 14467      6573735F 
 14467      72656675 
 14467      7365645F 
 14468              	.LASF191:
 14469 00c7 706F6C6C 		.ascii	"polltmr\000"
 14469      746D7200 
 14470              	.LASF181:
 14471 00cf 7463705F 		.ascii	"tcp_accept_fn\000"
 14471      61636365 
 14471      70745F66 
 14471      6E00
 14472              	.LASF168:
 14473 00dd 666C6167 		.ascii	"flags\000"
 14473      7300
 14474              	.LASF34:
 14475 00e3 73797374 		.ascii	"systime_t\000"
 14475      696D655F 
 14475      7400
 14476              	.LASF275:
 14477 00ed 7463705F 		.ascii	"tcp_bind\000"
 14477      62696E64 
 14477      00
 14478              	.LASF128:
 14479 00f6 6D5F6F77 		.ascii	"m_owner\000"
 14479      6E657200 
 14480              	.LASF189:
 14481 00fe 6C6F6361 		.ascii	"local_port\000"
 14481      6C5F706F 
 14481      727400
 14482              	.LASF151:
 14483 0109 4D454D50 		.ascii	"MEMP_NETBUF\000"
 14483      5F4E4554 
 14483      42554600 
 14484              	.LASF244:
 14485 0115 54494D45 		.ascii	"TIME_WAIT\000"
 14485      5F574149 
 14485      5400
 14486              	.LASF103:
 14487 011f 73655F73 		.ascii	"se_state\000"
 14487      74617465 
 14487      00
 14488              	.LASF315:
 14489 0128 65727266 		.ascii	"errf_arg\000"
ARM GAS  C:\Users\jo\AppData\Local\Temp\cc67lm3z.s 			page 259


 14489      5F617267 
 14489      00
 14490              	.LASF0:
 14491 0131 756E7369 		.ascii	"unsigned int\000"
 14491      676E6564 
 14491      20696E74 
 14491      00
 14492              	.LASF233:
 14493 013e 7463705F 		.ascii	"tcp_connected_fn\000"
 14493      636F6E6E 
 14493      65637465 
 14493      645F666E 
 14493      00
 14494              	.LASF164:
 14495 014f 6E657874 		.ascii	"next\000"
 14495      00
 14496              	.LASF347:
 14497 0154 7463705F 		.ascii	"tcp_pcb_lists\000"
 14497      7063625F 
 14497      6C697374 
 14497      7300
 14498              	.LASF218:
 14499 0162 6F6F7365 		.ascii	"ooseq\000"
 14499      7100
 14500              	.LASF119:
 14501 0168 6D5F6372 		.ascii	"m_crit_isr\000"
 14501      69745F69 
 14501      737200
 14502              	.LASF280:
 14503 0173 6E65775F 		.ascii	"new_right_edge\000"
 14503      72696768 
 14503      745F6564 
 14503      676500
 14504              	.LASF55:
 14505 0182 74687265 		.ascii	"threads_list_t\000"
 14505      6164735F 
 14505      6C697374 
 14505      5F7400
 14506              	.LASF162:
 14507 0191 6572725F 		.ascii	"err_t\000"
 14507      7400
 14508              	.LASF114:
 14509 0197 63756D75 		.ascii	"cumulative\000"
 14509      6C617469 
 14509      766500
 14510              	.LASF295:
 14511 01a2 6566665F 		.ascii	"eff_wnd\000"
 14511      776E6400 
 14512              	.LASF47:
 14513 01aa 705F7761 		.ascii	"p_waiting\000"
 14513      6974696E 
 14513      6700
 14514              	.LASF10:
 14515 01b4 5F5F696E 		.ascii	"__int32_t\000"
 14515      7433325F 
 14515      7400
 14516              	.LASF131:
ARM GAS  C:\Users\jo\AppData\Local\Temp\cc67lm3z.s 			page 260


 14517 01be 42617365 		.ascii	"BaseSequentialStreamVMT\000"
 14517      53657175 
 14517      656E7469 
 14517      616C5374 
 14517      7265616D 
 14518              	.LASF312:
 14519 01d6 73687574 		.ascii	"shut_tx\000"
 14519      5F747800 
 14520              	.LASF294:
 14521 01de 70726576 		.ascii	"prev\000"
 14521      00
 14522              	.LASF141:
 14523 01e3 7531365F 		.ascii	"u16_t\000"
 14523      7400
 14524              	.LASF365:
 14525 01e9 433A5C55 		.ascii	"C:\\Users\\jo\\Documents\\GitHub\\ChibiOS\\demos\\S"
 14525      73657273 
 14525      5C6A6F5C 
 14525      446F6375 
 14525      6D656E74 
 14526 0215 544D3332 		.ascii	"TM32\\RT-STM32F407-DISCOVERY-uHttp\000"
 14526      5C52542D 
 14526      53544D33 
 14526      32463430 
 14526      372D4449 
 14527              	.LASF88:
 14528 0237 76746C69 		.ascii	"vtlist\000"
 14528      737400
 14529              	.LASF197:
 14530 023e 7263765F 		.ascii	"rcv_ann_right_edge\000"
 14530      616E6E5F 
 14530      72696768 
 14530      745F6564 
 14530      676500
 14531              	.LASF299:
 14532 0251 6572725F 		.ascii	"err_fn\000"
 14532      666E00
 14533              	.LASF61:
 14534 0258 63685F72 		.ascii	"ch_ready_list\000"
 14534      65616479 
 14534      5F6C6973 
 14534      7400
 14535              	.LASF91:
 14536 0266 69646C65 		.ascii	"idle_thread_wa\000"
 14536      5F746872 
 14536      6561645F 
 14536      776100
 14537              	.LASF125:
 14538 0275 65776D61 		.ascii	"ewmask\000"
 14538      736B00
 14539              	.LASF179:
 14540 027c 6E657469 		.ascii	"netif_output_fn\000"
 14540      665F6F75 
 14540      74707574 
 14540      5F666E00 
 14541              	.LASF228:
 14542 028c 6B656570 		.ascii	"keep_cnt_sent\000"
ARM GAS  C:\Users\jo\AppData\Local\Temp\cc67lm3z.s 			page 261


 14542      5F636E74 
 14542      5F73656E 
 14542      7400
 14543              	.LASF157:
 14544 029a 4D454D50 		.ascii	"MEMP_PBUF_POOL\000"
 14544      5F504255 
 14544      465F504F 
 14544      4F4C00
 14545              	.LASF230:
 14546 02a9 7463705F 		.ascii	"tcp_sent_fn\000"
 14546      73656E74 
 14546      5F666E00 
 14547              	.LASF304:
 14548 02b5 7273745F 		.ascii	"rst_on_unacked_data\000"
 14548      6F6E5F75 
 14548      6E61636B 
 14548      65645F64 
 14548      61746100 
 14549              	.LASF68:
 14550 02c9 76746675 		.ascii	"vtfunc_t\000"
 14550      6E635F74 
 14550      00
 14551              	.LASF124:
 14552 02d2 77746F62 		.ascii	"wtobjp\000"
 14552      6A7000
 14553              	.LASF301:
 14554 02d9 7463705F 		.ascii	"tcp_pcb_remove\000"
 14554      7063625F 
 14554      72656D6F 
 14554      766500
 14555              	.LASF80:
 14556 02e8 63685F73 		.ascii	"ch_system_debug\000"
 14556      79737465 
 14556      6D5F6465 
 14556      62756700 
 14557              	.LASF251:
 14558 02f8 7365716E 		.ascii	"seqno\000"
 14558      6F00
 14559              	.LASF265:
 14560 02fe 72656675 		.ascii	"refused_flags\000"
 14560      7365645F 
 14560      666C6167 
 14560      7300
 14561              	.LASF178:
 14562 030c 6E657469 		.ascii	"netif_input_fn\000"
 14562      665F696E 
 14562      7075745F 
 14562      666E00
 14563              	.LASF297:
 14564 031b 7063625F 		.ascii	"pcb_reset\000"
 14564      72657365 
 14564      7400
 14565              	.LASF336:
 14566 0325 6D656D70 		.ascii	"memp_sizes\000"
 14566      5F73697A 
 14566      657300
 14567              	.LASF22:
ARM GAS  C:\Users\jo\AppData\Local\Temp\cc67lm3z.s 			page 262


 14568 0330 75696E74 		.ascii	"uint32_t\000"
 14568      33325F74 
 14568      00
 14569              	.LASF152:
 14570 0339 4D454D50 		.ascii	"MEMP_NETCONN\000"
 14570      5F4E4554 
 14570      434F4E4E 
 14570      00
 14571              	.LASF204:
 14572 0346 63776E64 		.ascii	"cwnd\000"
 14572      00
 14573              	.LASF120:
 14574 034b 6B65726E 		.ascii	"kernel_stats_t\000"
 14574      656C5F73 
 14574      74617473 
 14574      5F7400
 14575              	.LASF338:
 14576 035a 7463705F 		.ascii	"tcp_active_pcbs_changed\000"
 14576      61637469 
 14576      76655F70 
 14576      6362735F 
 14576      6368616E 
 14577              	.LASF31:
 14578 0372 6576656E 		.ascii	"eventmask_t\000"
 14578      746D6173 
 14578      6B5F7400 
 14579              	.LASF63:
 14580 037e 725F7072 		.ascii	"r_prio\000"
 14580      696F00
 14581              	.LASF187:
 14582 0385 61636365 		.ascii	"accept\000"
 14582      707400
 14583              	.LASF90:
 14584 038c 6B65726E 		.ascii	"kernel_stats\000"
 14584      656C5F73 
 14584      74617473 
 14584      00
 14585              	.LASF153:
 14586 0399 4D454D50 		.ascii	"MEMP_TCPIP_MSG_API\000"
 14586      5F544350 
 14586      49505F4D 
 14586      53475F41 
 14586      504900
 14587              	.LASF273:
 14588 03ac 6D61785F 		.ascii	"max_pcb_list\000"
 14588      7063625F 
 14588      6C697374 
 14588      00
 14589              	.LASF325:
 14590 03b9 73656E64 		.ascii	"sendmss\000"
 14590      6D737300 
 14591              	.LASF126:
 14592 03c1 6D757465 		.ascii	"mutex\000"
 14592      7800
 14593              	.LASF350:
 14594 03c7 6D616C6C 		.ascii	"malloc\000"
 14594      6F6300
ARM GAS  C:\Users\jo\AppData\Local\Temp\cc67lm3z.s 			page 263


 14595              	.LASF29:
 14596 03ce 74707269 		.ascii	"tprio_t\000"
 14596      6F5F7400 
 14597              	.LASF305:
 14598 03d6 7463705F 		.ascii	"tcp_close\000"
 14598      636C6F73 
 14598      6500
 14599              	.LASF19:
 14600 03e0 696E7431 		.ascii	"int16_t\000"
 14600      365F7400 
 14601              	.LASF176:
 14602 03e8 68776164 		.ascii	"hwaddr\000"
 14602      647200
 14603              	.LASF245:
 14604 03ef 7463705F 		.ascii	"tcp_seg\000"
 14604      73656700 
 14605              	.LASF16:
 14606 03f7 6C6F6E67 		.ascii	"long long unsigned int\000"
 14606      206C6F6E 
 14606      6720756E 
 14606      7369676E 
 14606      65642069 
 14607              	.LASF102:
 14608 040e 73655F77 		.ascii	"se_wtobjp\000"
 14608      746F626A 
 14608      7000
 14609              	.LASF258:
 14610 0418 72656173 		.ascii	"reason\000"
 14610      6F6E00
 14611              	.LASF319:
 14612 041f 696E6163 		.ascii	"inactivity\000"
 14612      74697669 
 14612      747900
 14613              	.LASF357:
 14614 042a 7463705F 		.ascii	"tcp_rexmit_rto\000"
 14614      7265786D 
 14614      69745F72 
 14614      746F00
 14615              	.LASF200:
 14616 0439 72747365 		.ascii	"rtseq\000"
 14616      7100
 14617              	.LASF8:
 14618 043f 5F5F7569 		.ascii	"__uint16_t\000"
 14618      6E743136 
 14618      5F7400
 14619              	.LASF326:
 14620 044a 6D73735F 		.ascii	"mss_s\000"
 14620      7300
 14621              	.LASF346:
 14622 0450 7463705F 		.ascii	"tcp_persist_backoff\000"
 14622      70657273 
 14622      6973745F 
 14622      6261636B 
 14622      6F666600 
 14623              	.LASF310:
 14624 0464 7463705F 		.ascii	"tcp_shutdown\000"
 14624      73687574 
ARM GAS  C:\Users\jo\AppData\Local\Temp\cc67lm3z.s 			page 264


 14624      646F776E 
 14624      00
 14625              	.LASF323:
 14626 0471 7463705F 		.ascii	"tcp_new\000"
 14626      6E657700 
 14627              	.LASF259:
 14628 0479 7463705F 		.ascii	"tcp_recved\000"
 14628      72656376 
 14628      656400
 14629              	.LASF82:
 14630 0484 6973725F 		.ascii	"isr_cnt\000"
 14630      636E7400 
 14631              	.LASF112:
 14632 048c 776F7273 		.ascii	"worst\000"
 14632      7400
 14633              	.LASF40:
 14634 0492 705F6E65 		.ascii	"p_newer\000"
 14634      77657200 
 14635              	.LASF77:
 14636 049a 63685F76 		.ascii	"ch_virtual_timers_list\000"
 14636      69727475 
 14636      616C5F74 
 14636      696D6572 
 14636      735F6C69 
 14637              	.LASF194:
 14638 04b1 7263765F 		.ascii	"rcv_nxt\000"
 14638      6E787400 
 14639              	.LASF154:
 14640 04b9 4D454D50 		.ascii	"MEMP_TCPIP_MSG_INPKT\000"
 14640      5F544350 
 14640      49505F4D 
 14640      53475F49 
 14640      4E504B54 
 14641              	.LASF217:
 14642 04ce 756E6163 		.ascii	"unacked\000"
 14642      6B656400 
 14643              	.LASF35:
 14644 04d6 74687265 		.ascii	"thread_t\000"
 14644      61645F74 
 14644      00
 14645              	.LASF36:
 14646 04df 705F6E65 		.ascii	"p_next\000"
 14646      787400
 14647              	.LASF97:
 14648 04e6 5F5F676E 		.ascii	"__gnuc_va_list\000"
 14648      75635F76 
 14648      615F6C69 
 14648      737400
 14649              	.LASF243:
 14650 04f5 4C415354 		.ascii	"LAST_ACK\000"
 14650      5F41434B 
 14650      00
 14651              	.LASF254:
 14652 04fe 63686B73 		.ascii	"chksum\000"
 14652      756D00
 14653              	.LASF271:
 14654 0505 69706164 		.ascii	"ipaddr\000"
ARM GAS  C:\Users\jo\AppData\Local\Temp\cc67lm3z.s 			page 265


 14654      647200
 14655              	.LASF1:
 14656 050c 73697A65 		.ascii	"size_t\000"
 14656      5F7400
 14657              	.LASF122:
 14658 0513 7264796D 		.ascii	"rdymsg\000"
 14658      736700
 14659              	.LASF165:
 14660 051a 7061796C 		.ascii	"payload\000"
 14660      6F616400 
 14661              	.LASF109:
 14662 0522 6F666673 		.ascii	"offset\000"
 14662      657400
 14663              	.LASF296:
 14664 0529 7063625F 		.ascii	"pcb_remove\000"
 14664      72656D6F 
 14664      766500
 14665              	.LASF302:
 14666 0534 7063626C 		.ascii	"pcblist\000"
 14666      69737400 
 14667              	.LASF222:
 14668 053c 636F6E6E 		.ascii	"connected\000"
 14668      65637465 
 14668      6400
 14669              	.LASF135:
 14670 0546 5F426F6F 		.ascii	"_Bool\000"
 14670      6C00
 14671              	.LASF343:
 14672 054c 7463705F 		.ascii	"tcp_tmp_pcb\000"
 14672      746D705F 
 14672      70636200 
 14673              	.LASF328:
 14674 0558 7463705F 		.ascii	"tcp_connect\000"
 14674      636F6E6E 
 14674      65637400 
 14675              	.LASF262:
 14676 0564 7463705F 		.ascii	"tcp_pcb_purge\000"
 14676      7063625F 
 14676      70757267 
 14676      6500
 14677              	.LASF242:
 14678 0572 434C4F53 		.ascii	"CLOSING\000"
 14678      494E4700 
 14679              	.LASF277:
 14680 057a 6261636B 		.ascii	"backlog\000"
 14680      6C6F6700 
 14681              	.LASF351:
 14682 0582 66726565 		.ascii	"free\000"
 14682      00
 14683              	.LASF15:
 14684 0587 5F5F7569 		.ascii	"__uint64_t\000"
 14684      6E743634 
 14684      5F7400
 14685              	.LASF158:
 14686 0592 4D454D50 		.ascii	"MEMP_MAX\000"
 14686      5F4D4158 
 14686      00
ARM GAS  C:\Users\jo\AppData\Local\Temp\cc67lm3z.s 			page 266


 14687              	.LASF332:
 14688 059b 7463705F 		.ascii	"tcp_timer\000"
 14688      74696D65 
 14688      7200
 14689              	.LASF140:
 14690 05a5 73385F74 		.ascii	"s8_t\000"
 14690      00
 14691              	.LASF144:
 14692 05aa 7333325F 		.ascii	"s32_t\000"
 14692      7400
 14693              	.LASF113:
 14694 05b0 6C617374 		.ascii	"last\000"
 14694      00
 14695              	.LASF352:
 14696 05b5 7463705F 		.ascii	"tcp_output\000"
 14696      6F757470 
 14696      757400
 14697              	.LASF209:
 14698 05c0 736E645F 		.ascii	"snd_lbb\000"
 14698      6C626200 
 14699              	.LASF196:
 14700 05c8 7263765F 		.ascii	"rcv_ann_wnd\000"
 14700      616E6E5F 
 14700      776E6400 
 14701              	.LASF115:
 14702 05d4 74696D65 		.ascii	"time_measurement_t\000"
 14702      5F6D6561 
 14702      73757265 
 14702      6D656E74 
 14702      5F7400
 14703              	.LASF17:
 14704 05e7 696E7438 		.ascii	"int8_t\000"
 14704      5F7400
 14705              	.LASF42:
 14706 05ee 705F6E61 		.ascii	"p_name\000"
 14706      6D6500
 14707              	.LASF134:
 14708 05f5 42617365 		.ascii	"BaseSequentialStream\000"
 14708      53657175 
 14708      656E7469 
 14708      616C5374 
 14708      7265616D 
 14709              	.LASF202:
 14710 060a 64757061 		.ascii	"dupacks\000"
 14710      636B7300 
 14711              	.LASF70:
 14712 0612 63685F76 		.ascii	"ch_virtual_timer\000"
 14712      69727475 
 14712      616C5F74 
 14712      696D6572 
 14712      00
 14713              	.LASF188:
 14714 0623 7072696F 		.ascii	"prio\000"
 14714      00
 14715              	.LASF192:
 14716 0628 706F6C6C 		.ascii	"pollinterval\000"
 14716      696E7465 
ARM GAS  C:\Users\jo\AppData\Local\Temp\cc67lm3z.s 			page 267


 14716      7276616C 
 14716      00
 14717              	.LASF156:
 14718 0635 4D454D50 		.ascii	"MEMP_PBUF\000"
 14718      5F504255 
 14718      4600
 14719              	.LASF345:
 14720 063f 7463705F 		.ascii	"tcp_backoff\000"
 14720      6261636B 
 14720      6F666600 
 14721              	.LASF368:
 14722 064b 63687072 		.ascii	"chprintf\000"
 14722      696E7466 
 14722      00
 14723              	.LASF73:
 14724 0654 76745F64 		.ascii	"vt_delta\000"
 14724      656C7461 
 14724      00
 14725              	.LASF207:
 14726 065d 736E645F 		.ascii	"snd_wl1\000"
 14726      776C3100 
 14727              	.LASF25:
 14728 0665 72747469 		.ascii	"rttime_t\000"
 14728      6D655F74 
 14728      00
 14729              	.LASF78:
 14730 066e 76745F6C 		.ascii	"vt_lasttime\000"
 14730      61737474 
 14730      696D6500 
 14731              	.LASF212:
 14732 067a 61636B65 		.ascii	"acked\000"
 14732      6400
 14733              	.LASF241:
 14734 0680 434C4F53 		.ascii	"CLOSE_WAIT\000"
 14734      455F5741 
 14734      495400
 14735              	.LASF329:
 14736 068b 6F6C645F 		.ascii	"old_local_port\000"
 14736      6C6F6361 
 14736      6C5F706F 
 14736      727400
 14737              	.LASF261:
 14738 069a 776E645F 		.ascii	"wnd_inflation\000"
 14738      696E666C 
 14738      6174696F 
 14738      6E00
 14739              	.LASF101:
 14740 06a8 73655F74 		.ascii	"se_tp\000"
 14740      7000
 14741              	.LASF14:
 14742 06ae 6C6F6E67 		.ascii	"long long int\000"
 14742      206C6F6E 
 14742      6720696E 
 14742      7400
 14743              	.LASF41:
 14744 06bc 705F6F6C 		.ascii	"p_older\000"
 14744      64657200 
ARM GAS  C:\Users\jo\AppData\Local\Temp\cc67lm3z.s 			page 268


 14745              	.LASF100:
 14746 06c4 73655F74 		.ascii	"se_time\000"
 14746      696D6500 
 14747              	.LASF43:
 14748 06cc 705F7374 		.ascii	"p_stklimit\000"
 14748      6B6C696D 
 14748      697400
 14749              	.LASF12:
 14750 06d7 5F5F7569 		.ascii	"__uint32_t\000"
 14750      6E743332 
 14750      5F7400
 14751              	.LASF220:
 14752 06e2 73656E74 		.ascii	"sent\000"
 14752      00
 14753              	.LASF18:
 14754 06e7 75696E74 		.ascii	"uint8_t\000"
 14754      385F7400 
 14755              	.LASF167:
 14756 06ef 74797065 		.ascii	"type\000"
 14756      00
 14757              	.LASF208:
 14758 06f4 736E645F 		.ascii	"snd_wl2\000"
 14758      776C3200 
 14759              	.LASF54:
 14760 06fc 705F7374 		.ascii	"p_stats\000"
 14760      61747300 
 14761              	.LASF246:
 14762 0704 6F766572 		.ascii	"oversize_left\000"
 14762      73697A65 
 14762      5F6C6566 
 14762      7400
 14763              	.LASF284:
 14764 0712 7463705F 		.ascii	"tcp_seg_copy\000"
 14764      7365675F 
 14764      636F7079 
 14764      00
 14765              	.LASF51:
 14766 071f 705F6D74 		.ascii	"p_mtxlist\000"
 14766      786C6973 
 14766      7400
 14767              	.LASF232:
 14768 0729 7463705F 		.ascii	"tcp_err_fn\000"
 14768      6572725F 
 14768      666E00
 14769              	.LASF44:
 14770 0734 705F7374 		.ascii	"p_state\000"
 14770      61746500 
 14771              	.LASF56:
 14772 073c 63685F74 		.ascii	"ch_thread\000"
 14772      68726561 
 14772      6400
 14773              	.LASF367:
 14774 0746 7463705F 		.ascii	"tcp_listen_pcbs_t\000"
 14774      6C697374 
 14774      656E5F70 
 14774      6362735F 
 14774      7400
ARM GAS  C:\Users\jo\AppData\Local\Temp\cc67lm3z.s 			page 269


 14775              	.LASF105:
 14776 0758 74625F73 		.ascii	"tb_size\000"
 14776      697A6500 
 14777              	.LASF291:
 14778 0760 7463705F 		.ascii	"tcp_poll\000"
 14778      706F6C6C 
 14778      00
 14779              	.LASF353:
 14780 0769 70627566 		.ascii	"pbuf_free\000"
 14780      5F667265 
 14780      6500
 14781              	.LASF138:
 14782 0773 76615F6C 		.ascii	"va_list\000"
 14782      69737400 
 14783              	.LASF79:
 14784 077b 73797374 		.ascii	"system_debug_t\000"
 14784      656D5F64 
 14784      65627567 
 14784      5F7400
 14785              	.LASF288:
 14786 078a 7463705F 		.ascii	"tcp_sent\000"
 14786      73656E74 
 14786      00
 14787              	.LASF263:
 14788 0793 7463705F 		.ascii	"tcp_recv_null\000"
 14788      72656376 
 14788      5F6E756C 
 14788      6C00
 14789              	.LASF318:
 14790 07a1 696E6163 		.ascii	"inactive\000"
 14790      74697665 
 14790      00
 14791              	.LASF283:
 14792 07aa 7463705F 		.ascii	"tcp_setprio\000"
 14792      73657470 
 14792      72696F00 
 14793              	.LASF170:
 14794 07b6 6E65746D 		.ascii	"netmask\000"
 14794      61736B00 
 14795              	.LASF59:
 14796 07be 63685F74 		.ascii	"ch_threads_queue\000"
 14796      68726561 
 14796      64735F71 
 14796      75657565 
 14796      00
 14797              	.LASF248:
 14798 07cf 7463705F 		.ascii	"tcp_pcb_listen\000"
 14798      7063625F 
 14798      6C697374 
 14798      656E00
 14799              	.LASF132:
 14800 07de 77726974 		.ascii	"write\000"
 14800      6500
 14801              	.LASF252:
 14802 07e4 61636B6E 		.ascii	"ackno\000"
 14802      6F00
 14803              	.LASF62:
ARM GAS  C:\Users\jo\AppData\Local\Temp\cc67lm3z.s 			page 270


 14804 07ea 725F7175 		.ascii	"r_queue\000"
 14804      65756500 
 14805              	.LASF330:
 14806 07f2 7463705F 		.ascii	"tcp_debug_state_str\000"
 14806      64656275 
 14806      675F7374 
 14806      6174655F 
 14806      73747200 
 14807              	.LASF227:
 14808 0806 70657273 		.ascii	"persist_backoff\000"
 14808      6973745F 
 14808      6261636B 
 14808      6F666600 
 14809              	.LASF65:
 14810 0816 725F6E65 		.ascii	"r_newer\000"
 14810      77657200 
 14811              	.LASF32:
 14812 081e 636E745F 		.ascii	"cnt_t\000"
 14812      7400
 14813              	.LASF30:
 14814 0824 6D73675F 		.ascii	"msg_t\000"
 14814      7400
 14815              	.LASF317:
 14816 082a 7463705F 		.ascii	"tcp_kill_timewait\000"
 14816      6B696C6C 
 14816      5F74696D 
 14816      65776169 
 14816      7400
 14817              	.LASF146:
 14818 083c 4D454D50 		.ascii	"MEMP_TCP_PCB\000"
 14818      5F544350 
 14818      5F504342 
 14818      00
 14819              	.LASF139:
 14820 0849 75385F74 		.ascii	"u8_t\000"
 14820      00
 14821              	.LASF269:
 14822 084e 7463705F 		.ascii	"tcp_accept_null\000"
 14822      61636365 
 14822      70745F6E 
 14822      756C6C00 
 14823              	.LASF45:
 14824 085e 705F666C 		.ascii	"p_flags\000"
 14824      61677300 
 14825              	.LASF6:
 14826 0866 5F5F696E 		.ascii	"__int16_t\000"
 14826      7431365F 
 14826      7400
 14827              	.LASF306:
 14828 0870 7463705F 		.ascii	"tcp_fasttmr\000"
 14828      66617374 
 14828      746D7200 
 14829              	.LASF121:
 14830 087c 5F5F6170 		.ascii	"__ap\000"
 14830      00
 14831              	.LASF69:
 14832 0881 76697274 		.ascii	"virtual_timer_t\000"
ARM GAS  C:\Users\jo\AppData\Local\Temp\cc67lm3z.s 			page 271


 14832      75616C5F 
 14832      74696D65 
 14832      725F7400 
 14833              	.LASF316:
 14834 0891 6F73616C 		.ascii	"osalSysHalt\000"
 14834      53797348 
 14834      616C7400 
 14835              	.LASF57:
 14836 089d 63685F74 		.ascii	"ch_threads_list\000"
 14836      68726561 
 14836      64735F6C 
 14836      69737400 
 14837              	.LASF360:
 14838 08ad 6D656D73 		.ascii	"memset\000"
 14838      657400
 14839              	.LASF370:
 14840 08b4 7463705F 		.ascii	"tcp_slowtmr_start\000"
 14840      736C6F77 
 14840      746D725F 
 14840      73746172 
 14840      7400
 14841              	.LASF136:
 14842 08c6 49544D53 		.ascii	"ITMStreamVMT\000"
 14842      74726561 
 14842      6D564D54 
 14842      00
 14843              	.LASF276:
 14844 08d3 7463705F 		.ascii	"tcp_listen_with_backlog\000"
 14844      6C697374 
 14844      656E5F77 
 14844      6974685F 
 14844      6261636B 
 14845              	.LASF289:
 14846 08eb 7463705F 		.ascii	"tcp_err\000"
 14846      65727200 
 14847              	.LASF190:
 14848 08f3 72656D6F 		.ascii	"remote_port\000"
 14848      74655F70 
 14848      6F727400 
 14849              	.LASF107:
 14850 08ff 74625F62 		.ascii	"tb_buffer\000"
 14850      75666665 
 14850      7200
 14851              	.LASF303:
 14852 0909 7463705F 		.ascii	"tcp_close_shutdown\000"
 14852      636C6F73 
 14852      655F7368 
 14852      7574646F 
 14852      776E00
 14853              	.LASF335:
 14854 091c 69746D5F 		.ascii	"itm_port\000"
 14854      706F7274 
 14854      00
 14855              	.LASF106:
 14856 0925 74625F70 		.ascii	"tb_ptr\000"
 14856      747200
 14857              	.LASF340:
ARM GAS  C:\Users\jo\AppData\Local\Temp\cc67lm3z.s 			page 272


 14858 092c 7463705F 		.ascii	"tcp_listen_pcbs\000"
 14858      6C697374 
 14858      656E5F70 
 14858      63627300 
 14859              	.LASF203:
 14860 093c 6C617374 		.ascii	"lastack\000"
 14860      61636B00 
 14861              	.LASF281:
 14862 0944 6E65775F 		.ascii	"new_rcv_ann_wnd\000"
 14862      7263765F 
 14862      616E6E5F 
 14862      776E6400 
 14863              	.LASF369:
 14864 0954 7463705F 		.ascii	"tcp_init\000"
 14864      696E6974 
 14864      00
 14865              	.LASF66:
 14866 095d 725F6F6C 		.ascii	"r_older\000"
 14866      64657200 
 14867              	.LASF149:
 14868 0965 4D454D50 		.ascii	"MEMP_REASSDATA\000"
 14868      5F524541 
 14868      53534441 
 14868      544100
 14869              	.LASF117:
 14870 0974 6E5F6374 		.ascii	"n_ctxswc\000"
 14870      78737763 
 14870      00
 14871              	.LASF229:
 14872 097d 7463705F 		.ascii	"tcp_recv_fn\000"
 14872      72656376 
 14872      5F666E00 
 14873              	.LASF137:
 14874 0989 49544D53 		.ascii	"ITMStream\000"
 14874      74726561 
 14874      6D00
 14875              	.LASF293:
 14876 0993 7463705F 		.ascii	"tcp_slowtmr\000"
 14876      736C6F77 
 14876      746D7200 
 14877              	.LASF223:
 14878 099f 706F6C6C 		.ascii	"poll\000"
 14878      00
 14879              	.LASF81:
 14880 09a4 70616E69 		.ascii	"panic_msg\000"
 14880      635F6D73 
 14880      6700
 14881              	.LASF266:
 14882 09ae 7463705F 		.ascii	"tcp_abort\000"
 14882      61626F72 
 14882      7400
 14883              	.LASF95:
 14884 09b8 636F6E74 		.ascii	"context\000"
 14884      65787400 
 14885              	.LASF49:
 14886 09c0 705F6D73 		.ascii	"p_msg\000"
 14886      6700
ARM GAS  C:\Users\jo\AppData\Local\Temp\cc67lm3z.s 			page 273


 14887              	.LASF110:
 14888 09c6 746D5F63 		.ascii	"tm_calibration_t\000"
 14888      616C6962 
 14888      72617469 
 14888      6F6E5F74 
 14888      00
 14889              	.LASF198:
 14890 09d7 7274696D 		.ascii	"rtime\000"
 14890      6500
 14891              	.LASF26:
 14892 09dd 746D6F64 		.ascii	"tmode_t\000"
 14892      655F7400 
 14893              	.LASF33:
 14894 09e5 75636E74 		.ascii	"ucnt_t\000"
 14894      5F7400
 14895              	.LASF89:
 14896 09ec 6D61696E 		.ascii	"mainthread\000"
 14896      74687265 
 14896      616400
 14897              	.LASF371:
 14898 09f7 7463705F 		.ascii	"tcp_timer_needed\000"
 14898      74696D65 
 14898      725F6E65 
 14898      65646564 
 14898      00
 14899              	.LASF324:
 14900 0a08 7463705F 		.ascii	"tcp_eff_send_mss\000"
 14900      6566665F 
 14900      73656E64 
 14900      5F6D7373 
 14900      00
 14901              	.LASF175:
 14902 0a19 68776164 		.ascii	"hwaddr_len\000"
 14902      64725F6C 
 14902      656E00
 14903              	.LASF20:
 14904 0a24 75696E74 		.ascii	"uint16_t\000"
 14904      31365F74 
 14904      00
 14905              	.LASF359:
 14906 0a2d 7463705F 		.ascii	"tcp_send_fin\000"
 14906      73656E64 
 14906      5F66696E 
 14906      00
 14907              	.LASF224:
 14908 0a3a 65727266 		.ascii	"errf\000"
 14908      00
 14909              	.LASF231:
 14910 0a3f 7463705F 		.ascii	"tcp_poll_fn\000"
 14910      706F6C6C 
 14910      5F666E00 
 14911              	.LASF210:
 14912 0a4b 736E645F 		.ascii	"snd_wnd\000"
 14912      776E6400 
 14913              	.LASF290:
 14914 0a53 7463705F 		.ascii	"tcp_accept\000"
 14914      61636365 
ARM GAS  C:\Users\jo\AppData\Local\Temp\cc67lm3z.s 			page 274


 14914      707400
 14915              	.LASF366:
 14916 0a5e 7463705F 		.ascii	"tcp_state\000"
 14916      73746174 
 14916      6500
 14917              	.LASF24:
 14918 0a68 7274636E 		.ascii	"rtcnt_t\000"
 14918      745F7400 
 14919              	.LASF282:
 14920 0a70 7463705F 		.ascii	"tcp_seg_free\000"
 14920      7365675F 
 14920      66726565 
 14920      00
 14921              	.LASF267:
 14922 0a7d 7463705F 		.ascii	"tcp_next_iss\000"
 14922      6E657874 
 14922      5F697373 
 14922      00
 14923              	.LASF355:
 14924 0a8a 7463705F 		.ascii	"tcp_rst\000"
 14924      72737400 
 14925              	.LASF83:
 14926 0a92 6C6F636B 		.ascii	"lock_cnt\000"
 14926      5F636E74 
 14926      00
 14927              	.LASF320:
 14928 0a9b 7463705F 		.ascii	"tcp_kill_prio\000"
 14928      6B696C6C 
 14928      5F707269 
 14928      6F00
 14929              	.LASF362:
 14930 0aa9 7463705F 		.ascii	"tcp_enqueue_flags\000"
 14930      656E7175 
 14930      6575655F 
 14930      666C6167 
 14930      7300
 14931              	.LASF116:
 14932 0abb 6E5F6972 		.ascii	"n_irq\000"
 14932      7100
 14933              	.LASF52:
 14934 0ac1 705F7265 		.ascii	"p_realprio\000"
 14934      616C7072 
 14934      696F00
 14935              	.LASF234:
 14936 0acc 434C4F53 		.ascii	"CLOSED\000"
 14936      454400
 14937              	.LASF331:
 14938 0ad3 7463705F 		.ascii	"tcp_port\000"
 14938      706F7274 
 14938      00
 14939              	.LASF143:
 14940 0adc 7533325F 		.ascii	"u32_t\000"
 14940      7400
 14941              	.LASF363:
 14942 0ae2 474E5520 		.ascii	"GNU C 4.9.3 20141119 (release) [ARM/embedded-4_9-br"
 14942      4320342E 
 14942      392E3320 
ARM GAS  C:\Users\jo\AppData\Local\Temp\cc67lm3z.s 			page 275


 14942      32303134 
 14942      31313139 
 14943 0b15 616E6368 		.ascii	"anch revision 218278] -mcpu=cortex-m4 -mno-thumb-in"
 14943      20726576 
 14943      6973696F 
 14943      6E203231 
 14943      38323738 
 14944 0b48 74657277 		.ascii	"terwork -mthumb -ggdb -O2 -fomit-frame-pointer -fal"
 14944      6F726B20 
 14944      2D6D7468 
 14944      756D6220 
 14944      2D676764 
 14945 0b7b 69676E2D 		.ascii	"ign-functions=16 -ffunction-sections -fdata-section"
 14945      66756E63 
 14945      74696F6E 
 14945      733D3136 
 14945      202D6666 
 14946 0bae 73202D66 		.ascii	"s -fno-common\000"
 14946      6E6F2D63 
 14946      6F6D6D6F 
 14946      6E00
 14947              	.LASF67:
 14948 0bbc 725F6375 		.ascii	"r_current\000"
 14948      7272656E 
 14948      7400
 14949              	.LASF50:
 14950 0bc6 705F6570 		.ascii	"p_epending\000"
 14950      656E6469 
 14950      6E6700
 14951              	.LASF127:
 14952 0bd1 6D5F7175 		.ascii	"m_queue\000"
 14952      65756500 
 14953              	.LASF11:
 14954 0bd9 6C6F6E67 		.ascii	"long int\000"
 14954      20696E74 
 14954      00
 14955              	.LASF96:
 14956 0be2 706F7274 		.ascii	"port_intctx\000"
 14956      5F696E74 
 14956      63747800 
 14957              	.LASF279:
 14958 0bee 7463705F 		.ascii	"tcp_update_rcv_ann_wnd\000"
 14958      75706461 
 14958      74655F72 
 14958      63765F61 
 14958      6E6E5F77 
 14959              	.LASF334:
 14960 0c05 49544D5F 		.ascii	"ITM_RxBuffer\000"
 14960      52784275 
 14960      66666572 
 14960      00
 14961              	.LASF216:
 14962 0c12 756E7365 		.ascii	"unsent\000"
 14962      6E7400
 14963              	.LASF195:
 14964 0c19 7263765F 		.ascii	"rcv_wnd\000"
 14964      776E6400 
ARM GAS  C:\Users\jo\AppData\Local\Temp\cc67lm3z.s 			page 276


 14965              	.LASF199:
 14966 0c21 72747465 		.ascii	"rttest\000"
 14966      737400
 14967              	.LASF274:
 14968 0c28 63706362 		.ascii	"cpcb\000"
 14968      00
 14969              	.LASF86:
 14970 0c2d 63685F73 		.ascii	"ch_system\000"
 14970      79737465 
 14970      6D00
 14971              	.LASF118:
 14972 0c37 6D5F6372 		.ascii	"m_crit_thd\000"
 14972      69745F74 
 14972      686400
 14973              	.LASF155:
 14974 0c42 4D454D50 		.ascii	"MEMP_SYS_TIMEOUT\000"
 14974      5F535953 
 14974      5F54494D 
 14974      454F5554 
 14974      00
 14975              	.LASF193:
 14976 0c53 6C617374 		.ascii	"last_timer\000"
 14976      5F74696D 
 14976      657200
 14977              	.LASF145:
 14978 0c5e 4D454D50 		.ascii	"MEMP_UDP_PCB\000"
 14978      5F554450 
 14978      5F504342 
 14978      00
 14979              	.LASF183:
 14980 0c6b 6C6F6361 		.ascii	"local_ip\000"
 14980      6C5F6970 
 14980      00
 14981              	.LASF39:
 14982 0c74 705F6374 		.ascii	"p_ctx\000"
 14982      7800
 14983              	.LASF87:
 14984 0c7a 726C6973 		.ascii	"rlist\000"
 14984      7400
 14985              	.LASF215:
 14986 0c80 756E7365 		.ascii	"unsent_oversize\000"
 14986      6E745F6F 
 14986      76657273 
 14986      697A6500 
 14987              	.LASF236:
 14988 0c90 53594E5F 		.ascii	"SYN_SENT\000"
 14988      53454E54 
 14988      00
 14989              	.LASF314:
 14990 0c99 72657365 		.ascii	"reset\000"
 14990      7400
 14991              	.LASF206:
 14992 0c9f 736E645F 		.ascii	"snd_nxt\000"
 14992      6E787400 
 14993              	.LASF4:
 14994 0ca7 5F5F7569 		.ascii	"__uint8_t\000"
 14994      6E74385F 
ARM GAS  C:\Users\jo\AppData\Local\Temp\cc67lm3z.s 			page 277


 14994      7400
 14995              	.LASF238:
 14996 0cb1 45535441 		.ascii	"ESTABLISHED\000"
 14996      424C4953 
 14996      48454400 
 14997              	.LASF309:
 14998 0cbd 7463705F 		.ascii	"tcp_tmr\000"
 14998      746D7200 
 14999              	.LASF211:
 15000 0cc5 736E645F 		.ascii	"snd_wnd_max\000"
 15000      776E645F 
 15000      6D617800 
 15001              	.LASF133:
 15002 0cd1 72656164 		.ascii	"read\000"
 15002      00
 15003              	.LASF180:
 15004 0cd6 6E657469 		.ascii	"netif_linkoutput_fn\000"
 15004      665F6C69 
 15004      6E6B6F75 
 15004      74707574 
 15004      5F666E00 
 15005              	.LASF150:
 15006 0cea 4D454D50 		.ascii	"MEMP_FRAG_PBUF\000"
 15006      5F465241 
 15006      475F5042 
 15006      554600
 15007              	.LASF327:
 15008 0cf9 6F757469 		.ascii	"outif\000"
 15008      6600
 15009              	.LASF205:
 15010 0cff 73737468 		.ascii	"ssthresh\000"
 15010      72657368 
 15010      00
 15011              	.LASF354:
 15012 0d08 70627566 		.ascii	"pbuf_ref\000"
 15012      5F726566 
 15012      00
 15013              	.LASF213:
 15014 0d11 736E645F 		.ascii	"snd_buf\000"
 15014      62756600 
 15015              	.LASF253:
 15016 0d19 5F686472 		.ascii	"_hdrlen_rsvd_flags\000"
 15016      6C656E5F 
 15016      72737664 
 15016      5F666C61 
 15016      677300
 15017              	.LASF37:
 15018 0d2c 705F7072 		.ascii	"p_prev\000"
 15018      657600
 15019              	.LASF92:
 15020 0d33 73697A65 		.ascii	"sizetype\000"
 15020      74797065 
 15020      00
 15021              	.LASF28:
 15022 0d3c 74726566 		.ascii	"trefs_t\000"
 15022      735F7400 
 15023              	.LASF13:
ARM GAS  C:\Users\jo\AppData\Local\Temp\cc67lm3z.s 			page 278


 15024 0d44 6C6F6E67 		.ascii	"long unsigned int\000"
 15024      20756E73 
 15024      69676E65 
 15024      6420696E 
 15024      7400
 15025              	.LASF48:
 15026 0d56 705F6D73 		.ascii	"p_msgqueue\000"
 15026      67717565 
 15026      756500
 15027              	.LASF60:
 15028 0d61 72656164 		.ascii	"ready_list_t\000"
 15028      795F6C69 
 15028      73745F74 
 15028      00
 15029              	.LASF321:
 15030 0d6e 6D707269 		.ascii	"mprio\000"
 15030      6F00
 15031              	.LASF247:
 15032 0d74 74637068 		.ascii	"tcphdr\000"
 15032      647200
 15033              	.LASF142:
 15034 0d7b 7331365F 		.ascii	"s16_t\000"
 15034      7400
 15035              	.LASF21:
 15036 0d81 696E7433 		.ascii	"int32_t\000"
 15036      325F7400 
 15037              	.LASF272:
 15038 0d89 706F7274 		.ascii	"port\000"
 15038      00
 15039              	.LASF219:
 15040 0d8e 72656675 		.ascii	"refused_data\000"
 15040      7365645F 
 15040      64617461 
 15040      00
 15041              	.LASF84:
 15042 0d9b 74726163 		.ascii	"trace_buffer\000"
 15042      655F6275 
 15042      66666572 
 15042      00
 15043              	.LASF171:
 15044 0da8 696E7075 		.ascii	"input\000"
 15044      7400
 15045              	.LASF27:
 15046 0dae 74737461 		.ascii	"tstate_t\000"
 15046      74655F74 
 15046      00
 15047              	.LASF104:
 15048 0db7 63685F73 		.ascii	"ch_swc_event_t\000"
 15048      77635F65 
 15048      76656E74 
 15048      5F7400
 15049              	.LASF130:
 15050 0dc6 6D757465 		.ascii	"mutex_t\000"
 15050      785F7400 
 15051              	.LASF249:
 15052 0dce 7463705F 		.ascii	"tcp_hdr\000"
 15052      68647200 
ARM GAS  C:\Users\jo\AppData\Local\Temp\cc67lm3z.s 			page 279


 15053              	.LASF75:
 15054 0dd6 76745F70 		.ascii	"vt_par\000"
 15054      617200
 15055              	.LASF111:
 15056 0ddd 62657374 		.ascii	"best\000"
 15056      00
 15057              	.LASF5:
 15058 0de2 756E7369 		.ascii	"unsigned char\000"
 15058      676E6564 
 15058      20636861 
 15058      7200
 15059              	.LASF93:
 15060 0df0 72656761 		.ascii	"regarm_t\000"
 15060      726D5F74 
 15060      00
 15061              	.LASF239:
 15062 0df9 46494E5F 		.ascii	"FIN_WAIT_1\000"
 15062      57414954 
 15062      5F3100
 15063              	.LASF240:
 15064 0e04 46494E5F 		.ascii	"FIN_WAIT_2\000"
 15064      57414954 
 15064      5F3200
 15065              	.LASF76:
 15066 0e0f 76697274 		.ascii	"virtual_timers_list_t\000"
 15066      75616C5F 
 15066      74696D65 
 15066      72735F6C 
 15066      6973745F 
 15067              	.LASF46:
 15068 0e25 705F7265 		.ascii	"p_refs\000"
 15068      667300
 15069              	.LASF148:
 15070 0e2c 4D454D50 		.ascii	"MEMP_TCP_SEG\000"
 15070      5F544350 
 15070      5F534547 
 15070      00
 15071              	.LASF163:
 15072 0e39 70627566 		.ascii	"pbuf\000"
 15072      00
 15073              	.LASF339:
 15074 0e3e 7463705F 		.ascii	"tcp_bound_pcbs\000"
 15074      626F756E 
 15074      645F7063 
 15074      627300
 15075              	.LASF225:
 15076 0e4d 6B656570 		.ascii	"keep_idle\000"
 15076      5F69646C 
 15076      6500
 15077              	.LASF270:
 15078 0e57 7463705F 		.ascii	"tcp_new_port\000"
 15078      6E65775F 
 15078      706F7274 
 15078      00
 15079              	.LASF186:
 15080 0e64 63616C6C 		.ascii	"callback_arg\000"
 15080      6261636B 
ARM GAS  C:\Users\jo\AppData\Local\Temp\cc67lm3z.s 			page 280


 15080      5F617267 
 15080      00
 15081              	.LASF235:
 15082 0e71 4C495354 		.ascii	"LISTEN\000"
 15082      454E00
 15083              	.LASF286:
 15084 0e78 7463705F 		.ascii	"tcp_arg\000"
 15084      61726700 
 15085              	.LASF160:
 15086 0e80 61646472 		.ascii	"addr\000"
 15086      00
 15087              	.LASF174:
 15088 0e85 73746174 		.ascii	"state\000"
 15088      6500
 15089              	.LASF166:
 15090 0e8b 746F745F 		.ascii	"tot_len\000"
 15090      6C656E00 
 15091              	.LASF287:
 15092 0e93 7463705F 		.ascii	"tcp_recv\000"
 15092      72656376 
 15092      00
 15093              	.LASF349:
 15094 0e9c 63685379 		.ascii	"chSysHalt\000"
 15094      7348616C 
 15094      7400
 15095              	.LASF71:
 15096 0ea6 76745F6E 		.ascii	"vt_next\000"
 15096      65787400 
 15097              	.LASF23:
 15098 0eae 75696E74 		.ascii	"uint64_t\000"
 15098      36345F74 
 15098      00
 15099              	.LASF169:
 15100 0eb7 6E657469 		.ascii	"netif\000"
 15100      6600
 15101              	.LASF344:
 15102 0ebd 7463705F 		.ascii	"tcp_state_str\000"
 15102      73746174 
 15102      655F7374 
 15102      7200
 15103              	.LASF333:
 15104 0ecb 7463705F 		.ascii	"tcp_timer_ctr\000"
 15104      74696D65 
 15104      725F6374 
 15104      7200
 15105              	.LASF53:
 15106 0ed9 705F6D70 		.ascii	"p_mpool\000"
 15106      6F6F6C00 
 15107              	.LASF214:
 15108 0ee1 736E645F 		.ascii	"snd_queuelen\000"
 15108      71756575 
 15108      656C656E 
 15108      00
 15109              	.LASF85:
 15110 0eee 63685F73 		.ascii	"ch_system_t\000"
 15110      79737465 
 15110      6D5F7400 
ARM GAS  C:\Users\jo\AppData\Local\Temp\cc67lm3z.s 			page 281


 15111              	.LASF278:
 15112 0efa 6C706362 		.ascii	"lpcb\000"
 15112      00
 15113              	.LASF308:
 15114 0eff 7463705F 		.ascii	"tcp_fasttmr_start\000"
 15114      66617374 
 15114      746D725F 
 15114      73746172 
 15114      7400
 15115              	.LASF98:
 15116 0f11 5F5F7661 		.ascii	"__va_list\000"
 15116      5F6C6973 
 15116      7400
 15117              	.LASF221:
 15118 0f1b 72656376 		.ascii	"recv\000"
 15118      00
 15119              	.LASF108:
 15120 0f20 63685F74 		.ascii	"ch_trace_buffer_t\000"
 15120      72616365 
 15120      5F627566 
 15120      6665725F 
 15120      7400
 15121              	.LASF129:
 15122 0f32 6D5F6E65 		.ascii	"m_next\000"
 15122      787400
 15123              	.LASF3:
 15124 0f39 7369676E 		.ascii	"signed char\000"
 15124      65642063 
 15124      68617200 
 15125              	.LASF182:
 15126 0f45 7463705F 		.ascii	"tcp_pcb\000"
 15126      70636200 
 15127              	.LASF9:
 15128 0f4d 73686F72 		.ascii	"short unsigned int\000"
 15128      7420756E 
 15128      7369676E 
 15128      65642069 
 15128      6E7400
 15129              	.LASF64:
 15130 0f60 725F6374 		.ascii	"r_ctx\000"
 15130      7800
 15131              	.LASF94:
 15132 0f66 73746B61 		.ascii	"stkalign_t\000"
 15132      6C69676E 
 15132      5F7400
 15133              	.LASF2:
 15134 0f71 5F5F696E 		.ascii	"__int8_t\000"
 15134      74385F74 
 15134      00
 15135              	.LASF7:
 15136 0f7a 73686F72 		.ascii	"short int\000"
 15136      7420696E 
 15136      7400
 15137              	.LASF298:
 15138 0f84 70636232 		.ascii	"pcb2\000"
 15138      00
 15139              	.LASF226:
ARM GAS  C:\Users\jo\AppData\Local\Temp\cc67lm3z.s 			page 282


 15140 0f89 70657273 		.ascii	"persist_cnt\000"
 15140      6973745F 
 15140      636E7400 
 15141              	.LASF184:
 15142 0f95 72656D6F 		.ascii	"remote_ip\000"
 15142      74655F69 
 15142      7000
 15143              	.LASF74:
 15144 0f9f 76745F66 		.ascii	"vt_func\000"
 15144      756E6300 
 15145              	.LASF342:
 15146 0fa7 7463705F 		.ascii	"tcp_tw_pcbs\000"
 15146      74775F70 
 15146      63627300 
 15147              	.LASF356:
 15148 0fb3 7463705F 		.ascii	"tcp_zero_window_probe\000"
 15148      7A65726F 
 15148      5F77696E 
 15148      646F775F 
 15148      70726F62 
 15149              	.LASF313:
 15150 0fc9 7463705F 		.ascii	"tcp_abandon\000"
 15150      6162616E 
 15150      646F6E00 
 15151              	.LASF72:
 15152 0fd5 76745F70 		.ascii	"vt_prev\000"
 15152      72657600 
 15153              	.LASF268:
 15154 0fdd 666F726D 		.ascii	"formatted_bytes\000"
 15154      61747465 
 15154      645F6279 
 15154      74657300 
 15155              	.LASF161:
 15156 0fed 69705F61 		.ascii	"ip_addr_t\000"
 15156      6464725F 
 15156      7400
 15157              	.LASF361:
 15158 0ff7 69705F72 		.ascii	"ip_route\000"
 15158      6F757465 
 15158      00
 15159              	.LASF300:
 15160 1000 6572725F 		.ascii	"err_arg\000"
 15160      61726700 
 15161              	.LASF260:
 15162 1008 7463705F 		.ascii	"tcp_segs_free\000"
 15162      73656773 
 15162      5F667265 
 15162      6500
 15163              	.LASF322:
 15164 1016 7463705F 		.ascii	"tcp_alloc\000"
 15164      616C6C6F 
 15164      6300
 15165              	.LASF341:
 15166 1020 7463705F 		.ascii	"tcp_active_pcbs\000"
 15166      61637469 
 15166      76655F70 
 15166      63627300 
ARM GAS  C:\Users\jo\AppData\Local\Temp\cc67lm3z.s 			page 283


 15167              	.LASF311:
 15168 1030 73687574 		.ascii	"shut_rx\000"
 15168      5F727800 
 15169              	.LASF201:
 15170 1038 6E727478 		.ascii	"nrtx\000"
 15170      00
 15171              	.LASF173:
 15172 103d 6C696E6B 		.ascii	"linkoutput\000"
 15172      6F757470 
 15172      757400
 15173              	.LASF250:
 15174 1048 64657374 		.ascii	"dest\000"
 15174      00
 15175              	.LASF123:
 15176 104d 65786974 		.ascii	"exitcode\000"
 15176      636F6465 
 15176      00
 15177              	.LASF237:
 15178 1056 53594E5F 		.ascii	"SYN_RCVD\000"
 15178      52435644 
 15178      00
 15179              	.LASF159:
 15180 105f 69705F61 		.ascii	"ip_addr\000"
 15180      64647200 
 15181              	.LASF257:
 15182 1067 70636273 		.ascii	"pcbs\000"
 15182      00
 15183              	.LASF337:
 15184 106c 7463705F 		.ascii	"tcp_ticks\000"
 15184      7469636B 
 15184      7300
 15185              		.ident	"GCC: (GNU Tools for ARM Embedded Processors) 4.9.3 20141119 (release) [ARM/embedded-4_9-br
ARM GAS  C:\Users\jo\AppData\Local\Temp\cc67lm3z.s 			page 284


DEFINED SYMBOLS
                            *ABS*:00000000 tcp.c
C:\Users\jo\AppData\Local\Temp\cc67lm3z.s:19     .text.tcp_accept_null:00000000 $t
C:\Users\jo\AppData\Local\Temp\cc67lm3z.s:24     .text.tcp_accept_null:00000000 tcp_accept_null
C:\Users\jo\AppData\Local\Temp\cc67lm3z.s:41     .text.tcp_new_port:00000000 $t
C:\Users\jo\AppData\Local\Temp\cc67lm3z.s:46     .text.tcp_new_port:00000000 tcp_new_port
C:\Users\jo\AppData\Local\Temp\cc67lm3z.s:124    .text.tcp_new_port:0000004c $d
C:\Users\jo\AppData\Local\Temp\cc67lm3z.s:131    .text.chprintf.constprop.4:00000000 $t
C:\Users\jo\AppData\Local\Temp\cc67lm3z.s:136    .text.chprintf.constprop.4:00000000 chprintf.constprop.4
C:\Users\jo\AppData\Local\Temp\cc67lm3z.s:182    .text.chprintf.constprop.4:00000020 $d
C:\Users\jo\AppData\Local\Temp\cc67lm3z.s:188    .text.tcp_init:00000000 $t
C:\Users\jo\AppData\Local\Temp\cc67lm3z.s:194    .text.tcp_init:00000000 tcp_init
C:\Users\jo\AppData\Local\Temp\cc67lm3z.s:206    .text.tcp_bind:00000000 $t
C:\Users\jo\AppData\Local\Temp\cc67lm3z.s:212    .text.tcp_bind:00000000 tcp_bind
C:\Users\jo\AppData\Local\Temp\cc67lm3z.s:363    .text.tcp_bind:0000008c $d
C:\Users\jo\AppData\Local\Temp\cc67lm3z.s:373    .text.tcp_listen_with_backlog:00000000 $t
C:\Users\jo\AppData\Local\Temp\cc67lm3z.s:379    .text.tcp_listen_with_backlog:00000000 tcp_listen_with_backlog
C:\Users\jo\AppData\Local\Temp\cc67lm3z.s:546    .text.tcp_listen_with_backlog:000000b4 $d
C:\Users\jo\AppData\Local\Temp\cc67lm3z.s:559    .text.tcp_update_rcv_ann_wnd:00000000 $t
C:\Users\jo\AppData\Local\Temp\cc67lm3z.s:565    .text.tcp_update_rcv_ann_wnd:00000000 tcp_update_rcv_ann_wnd
C:\Users\jo\AppData\Local\Temp\cc67lm3z.s:681    .text.tcp_update_rcv_ann_wnd:00000064 $d
C:\Users\jo\AppData\Local\Temp\cc67lm3z.s:692    .text.tcp_recved:00000000 $t
C:\Users\jo\AppData\Local\Temp\cc67lm3z.s:698    .text.tcp_recved:00000000 tcp_recved
C:\Users\jo\AppData\Local\Temp\cc67lm3z.s:834    .text.tcp_recved:00000088 $d
C:\Users\jo\AppData\Local\Temp\cc67lm3z.s:845    .text.tcp_seg_free:00000000 $t
C:\Users\jo\AppData\Local\Temp\cc67lm3z.s:851    .text.tcp_seg_free:00000000 tcp_seg_free
C:\Users\jo\AppData\Local\Temp\cc67lm3z.s:891    .text.tcp_segs_free:00000000 $t
C:\Users\jo\AppData\Local\Temp\cc67lm3z.s:897    .text.tcp_segs_free:00000000 tcp_segs_free
C:\Users\jo\AppData\Local\Temp\cc67lm3z.s:935    .text.tcp_setprio:00000000 $t
C:\Users\jo\AppData\Local\Temp\cc67lm3z.s:941    .text.tcp_setprio:00000000 tcp_setprio
C:\Users\jo\AppData\Local\Temp\cc67lm3z.s:956    .text.tcp_seg_copy:00000000 $t
C:\Users\jo\AppData\Local\Temp\cc67lm3z.s:962    .text.tcp_seg_copy:00000000 tcp_seg_copy
C:\Users\jo\AppData\Local\Temp\cc67lm3z.s:1010   .text.tcp_seg_copy:0000002c $d
C:\Users\jo\AppData\Local\Temp\cc67lm3z.s:1015   .text.tcp_arg:00000000 $t
C:\Users\jo\AppData\Local\Temp\cc67lm3z.s:1021   .text.tcp_arg:00000000 tcp_arg
C:\Users\jo\AppData\Local\Temp\cc67lm3z.s:1036   .text.tcp_recv:00000000 $t
C:\Users\jo\AppData\Local\Temp\cc67lm3z.s:1042   .text.tcp_recv:00000000 tcp_recv
C:\Users\jo\AppData\Local\Temp\cc67lm3z.s:1105   .text.tcp_recv:00000038 $d
C:\Users\jo\AppData\Local\Temp\cc67lm3z.s:1113   .text.tcp_sent:00000000 $t
C:\Users\jo\AppData\Local\Temp\cc67lm3z.s:1119   .text.tcp_sent:00000000 tcp_sent
C:\Users\jo\AppData\Local\Temp\cc67lm3z.s:1182   .text.tcp_sent:00000034 $d
C:\Users\jo\AppData\Local\Temp\cc67lm3z.s:1190   .text.tcp_err:00000000 $t
C:\Users\jo\AppData\Local\Temp\cc67lm3z.s:1196   .text.tcp_err:00000000 tcp_err
C:\Users\jo\AppData\Local\Temp\cc67lm3z.s:1259   .text.tcp_err:00000038 $d
C:\Users\jo\AppData\Local\Temp\cc67lm3z.s:1267   .text.tcp_accept:00000000 $t
C:\Users\jo\AppData\Local\Temp\cc67lm3z.s:1273   .text.tcp_accept:00000000 tcp_accept
C:\Users\jo\AppData\Local\Temp\cc67lm3z.s:1288   .text.tcp_poll:00000000 $t
C:\Users\jo\AppData\Local\Temp\cc67lm3z.s:1294   .text.tcp_poll:00000000 tcp_poll
C:\Users\jo\AppData\Local\Temp\cc67lm3z.s:1364   .text.tcp_poll:00000040 $d
C:\Users\jo\AppData\Local\Temp\cc67lm3z.s:1372   .text.tcp_pcb_purge:00000000 $t
C:\Users\jo\AppData\Local\Temp\cc67lm3z.s:1378   .text.tcp_pcb_purge:00000000 tcp_pcb_purge
C:\Users\jo\AppData\Local\Temp\cc67lm3z.s:1509   .text.tcp_slowtmr:00000000 $t
C:\Users\jo\AppData\Local\Temp\cc67lm3z.s:1515   .text.tcp_slowtmr:00000000 tcp_slowtmr
C:\Users\jo\AppData\Local\Temp\cc67lm3z.s:2046   .text.tcp_slowtmr:000002cc $d
C:\Users\jo\AppData\Local\Temp\cc67lm3z.s:2062   .text.tcp_slowtmr:00000300 $t
C:\Users\jo\AppData\Local\Temp\cc67lm3z.s:2315   .text.tcp_slowtmr:00000484 $d
C:\Users\jo\AppData\Local\Temp\cc67lm3z.s:2332   .text.tcp_pcb_remove:00000000 $t
ARM GAS  C:\Users\jo\AppData\Local\Temp\cc67lm3z.s 			page 285


C:\Users\jo\AppData\Local\Temp\cc67lm3z.s:2338   .text.tcp_pcb_remove:00000000 tcp_pcb_remove
C:\Users\jo\AppData\Local\Temp\cc67lm3z.s:2512   .text.tcp_pcb_remove:000000c4 $d
C:\Users\jo\AppData\Local\Temp\cc67lm3z.s:2523   .text.tcp_close_shutdown:00000000 $t
C:\Users\jo\AppData\Local\Temp\cc67lm3z.s:2528   .text.tcp_close_shutdown:00000000 tcp_close_shutdown
C:\Users\jo\AppData\Local\Temp\cc67lm3z.s:2562   .text.tcp_close_shutdown:0000001a $d
C:\Users\jo\AppData\Local\Temp\cc67lm3z.s:2570   .text.tcp_close_shutdown:00000022 $t
C:\Users\jo\AppData\Local\Temp\cc67lm3z.s:2846   .text.tcp_close_shutdown:00000164 $d
C:\Users\jo\AppData\Local\Temp\cc67lm3z.s:2860   .text.tcp_close:00000000 $t
C:\Users\jo\AppData\Local\Temp\cc67lm3z.s:2866   .text.tcp_close:00000000 tcp_close
C:\Users\jo\AppData\Local\Temp\cc67lm3z.s:2891   .text.tcp_recv_null:00000000 $t
C:\Users\jo\AppData\Local\Temp\cc67lm3z.s:2897   .text.tcp_recv_null:00000000 tcp_recv_null
C:\Users\jo\AppData\Local\Temp\cc67lm3z.s:2956   .text.tcp_process_refused_data:00000000 $t
C:\Users\jo\AppData\Local\Temp\cc67lm3z.s:2962   .text.tcp_process_refused_data:00000000 tcp_process_refused_data
C:\Users\jo\AppData\Local\Temp\cc67lm3z.s:3082   .text.tcp_fasttmr:00000000 $t
C:\Users\jo\AppData\Local\Temp\cc67lm3z.s:3088   .text.tcp_fasttmr:00000000 tcp_fasttmr
C:\Users\jo\AppData\Local\Temp\cc67lm3z.s:3180   .text.tcp_fasttmr:00000064 $d
C:\Users\jo\AppData\Local\Temp\cc67lm3z.s:3188   .text.tcp_tmr:00000000 $t
C:\Users\jo\AppData\Local\Temp\cc67lm3z.s:3194   .text.tcp_tmr:00000000 tcp_tmr
C:\Users\jo\AppData\Local\Temp\cc67lm3z.s:3228   .text.tcp_tmr:00000020 $d
C:\Users\jo\AppData\Local\Temp\cc67lm3z.s:3233   .text.tcp_shutdown:00000000 $t
C:\Users\jo\AppData\Local\Temp\cc67lm3z.s:3239   .text.tcp_shutdown:00000000 tcp_shutdown
C:\Users\jo\AppData\Local\Temp\cc67lm3z.s:3336   .text.tcp_abandon:00000000 $t
C:\Users\jo\AppData\Local\Temp\cc67lm3z.s:3342   .text.tcp_abandon:00000000 tcp_abandon
C:\Users\jo\AppData\Local\Temp\cc67lm3z.s:3579   .text.tcp_abandon:000000d4 $d
C:\Users\jo\AppData\Local\Temp\cc67lm3z.s:3592   .text.tcp_abort:00000000 $t
C:\Users\jo\AppData\Local\Temp\cc67lm3z.s:3598   .text.tcp_abort:00000000 tcp_abort
C:\Users\jo\AppData\Local\Temp\cc67lm3z.s:3614   .text.tcp_alloc:00000000 $t
C:\Users\jo\AppData\Local\Temp\cc67lm3z.s:3620   .text.tcp_alloc:00000000 tcp_alloc
C:\Users\jo\AppData\Local\Temp\cc67lm3z.s:3876   .text.tcp_alloc:00000118 $d
C:\Users\jo\AppData\Local\Temp\cc67lm3z.s:3888   .text.tcp_new:00000000 $t
C:\Users\jo\AppData\Local\Temp\cc67lm3z.s:3894   .text.tcp_new:00000000 tcp_new
C:\Users\jo\AppData\Local\Temp\cc67lm3z.s:3909   .text.tcp_next_iss:00000000 $t
C:\Users\jo\AppData\Local\Temp\cc67lm3z.s:3915   .text.tcp_next_iss:00000000 tcp_next_iss
C:\Users\jo\AppData\Local\Temp\cc67lm3z.s:3934   .text.tcp_next_iss:00000010 $d
C:\Users\jo\AppData\Local\Temp\cc67lm3z.s:3940   .text.tcp_eff_send_mss:00000000 $t
C:\Users\jo\AppData\Local\Temp\cc67lm3z.s:3946   .text.tcp_eff_send_mss:00000000 tcp_eff_send_mss
C:\Users\jo\AppData\Local\Temp\cc67lm3z.s:3989   .text.tcp_connect:00000000 $t
C:\Users\jo\AppData\Local\Temp\cc67lm3z.s:3995   .text.tcp_connect:00000000 tcp_connect
C:\Users\jo\AppData\Local\Temp\cc67lm3z.s:4249   .text.tcp_connect:00000124 $d
C:\Users\jo\AppData\Local\Temp\cc67lm3z.s:4264   .text.tcp_debug_state_str:00000000 $t
C:\Users\jo\AppData\Local\Temp\cc67lm3z.s:4270   .text.tcp_debug_state_str:00000000 tcp_debug_state_str
C:\Users\jo\AppData\Local\Temp\cc67lm3z.s:4287   .text.tcp_debug_state_str:00000008 $d
C:\Users\jo\AppData\Local\Temp\cc67lm3z.s:4306   .bss.tcp_active_pcbs_changed:00000000 tcp_active_pcbs_changed
C:\Users\jo\AppData\Local\Temp\cc67lm3z.s:4515   .bss.tcp_tmp_pcb:00000000 tcp_tmp_pcb
C:\Users\jo\AppData\Local\Temp\cc67lm3z.s:4337   .rodata.tcp_pcb_lists:00000000 tcp_pcb_lists
C:\Users\jo\AppData\Local\Temp\cc67lm3z.s:4313   .bss.tcp_tw_pcbs:00000000 tcp_tw_pcbs
C:\Users\jo\AppData\Local\Temp\cc67lm3z.s:4400   .bss.tcp_active_pcbs:00000000 tcp_active_pcbs
C:\Users\jo\AppData\Local\Temp\cc67lm3z.s:4379   .bss.tcp_listen_pcbs:00000000 tcp_listen_pcbs
C:\Users\jo\AppData\Local\Temp\cc67lm3z.s:4535   .bss.tcp_bound_pcbs:00000000 tcp_bound_pcbs
C:\Users\jo\AppData\Local\Temp\cc67lm3z.s:4522   .rodata.tcp_persist_backoff:00000000 tcp_persist_backoff
C:\Users\jo\AppData\Local\Temp\cc67lm3z.s:4360   .rodata.tcp_backoff:00000000 tcp_backoff
C:\Users\jo\AppData\Local\Temp\cc67lm3z.s:4347   .bss.tcp_ticks:00000000 tcp_ticks
C:\Users\jo\AppData\Local\Temp\cc67lm3z.s:4320   .rodata.tcp_state_str:00000000 tcp_state_str
C:\Users\jo\AppData\Local\Temp\cc67lm3z.s:4307   .bss.tcp_active_pcbs_changed:00000000 $d
C:\Users\jo\AppData\Local\Temp\cc67lm3z.s:4309   .bss.tcp_tw_pcbs:00000000 $d
C:\Users\jo\AppData\Local\Temp\cc67lm3z.s:4316   .rodata.tcp_state_str:00000000 $d
C:\Users\jo\AppData\Local\Temp\cc67lm3z.s:4333   .rodata.tcp_pcb_lists:00000000 $d
ARM GAS  C:\Users\jo\AppData\Local\Temp\cc67lm3z.s 			page 286


C:\Users\jo\AppData\Local\Temp\cc67lm3z.s:4343   .bss.tcp_ticks:00000000 $d
C:\Users\jo\AppData\Local\Temp\cc67lm3z.s:4353   .bss.tcp_timer:00000000 tcp_timer
C:\Users\jo\AppData\Local\Temp\cc67lm3z.s:4354   .bss.tcp_timer:00000000 $d
C:\Users\jo\AppData\Local\Temp\cc67lm3z.s:4356   .rodata.tcp_backoff:00000000 $d
C:\Users\jo\AppData\Local\Temp\cc67lm3z.s:4375   .bss.tcp_listen_pcbs:00000000 $d
C:\Users\jo\AppData\Local\Temp\cc67lm3z.s:4382   .data.tcp_port:00000000 $d
C:\Users\jo\AppData\Local\Temp\cc67lm3z.s:4386   .data.tcp_port:00000000 tcp_port
C:\Users\jo\AppData\Local\Temp\cc67lm3z.s:4389   .data.iss.9713:00000000 $d
C:\Users\jo\AppData\Local\Temp\cc67lm3z.s:4393   .data.iss.9713:00000000 iss.9713
C:\Users\jo\AppData\Local\Temp\cc67lm3z.s:4396   .bss.tcp_active_pcbs:00000000 $d
C:\Users\jo\AppData\Local\Temp\cc67lm3z.s:4406   .bss.tcp_timer_ctr:00000000 tcp_timer_ctr
C:\Users\jo\AppData\Local\Temp\cc67lm3z.s:4407   .bss.tcp_timer_ctr:00000000 $d
C:\Users\jo\AppData\Local\Temp\cc67lm3z.s:4409   .rodata.str1.4:00000000 $d
C:\Users\jo\AppData\Local\Temp\cc67lm3z.s:4511   .bss.tcp_tmp_pcb:00000000 $d
C:\Users\jo\AppData\Local\Temp\cc67lm3z.s:4518   .rodata.tcp_persist_backoff:00000000 $d
C:\Users\jo\AppData\Local\Temp\cc67lm3z.s:4531   .bss.tcp_bound_pcbs:00000000 $d
                     .debug_frame:00000010 $d
C:\Users\jo\AppData\Local\Temp\cc67lm3z.s:130    .text.tcp_new_port:00000058 $t
C:\Users\jo\AppData\Local\Temp\cc67lm3z.s:187    .text.chprintf.constprop.4:00000028 $t
C:\Users\jo\AppData\Local\Temp\cc67lm3z.s:372    .text.tcp_bind:000000a4 $t
C:\Users\jo\AppData\Local\Temp\cc67lm3z.s:558    .text.tcp_listen_with_backlog:000000d8 $t
C:\Users\jo\AppData\Local\Temp\cc67lm3z.s:691    .text.tcp_update_rcv_ann_wnd:00000074 $t
C:\Users\jo\AppData\Local\Temp\cc67lm3z.s:844    .text.tcp_recved:0000009c $t
C:\Users\jo\AppData\Local\Temp\cc67lm3z.s:1112   .text.tcp_recv:00000048 $t
C:\Users\jo\AppData\Local\Temp\cc67lm3z.s:1189   .text.tcp_sent:00000044 $t
C:\Users\jo\AppData\Local\Temp\cc67lm3z.s:1266   .text.tcp_err:00000048 $t
C:\Users\jo\AppData\Local\Temp\cc67lm3z.s:2331   .text.tcp_slowtmr:000004ac $t
C:\Users\jo\AppData\Local\Temp\cc67lm3z.s:2859   .text.tcp_close_shutdown:0000018c $t
C:\Users\jo\AppData\Local\Temp\cc67lm3z.s:3232   .text.tcp_tmr:00000024 $t
C:\Users\jo\AppData\Local\Temp\cc67lm3z.s:3887   .text.tcp_alloc:00000138 $t
C:\Users\jo\AppData\Local\Temp\cc67lm3z.s:3939   .text.tcp_next_iss:00000018 $t
C:\Users\jo\AppData\Local\Temp\cc67lm3z.s:4263   .text.tcp_connect:0000014c $t
C:\Users\jo\AppData\Local\Temp\cc67lm3z.s:4302   .text.tcp_debug_state_str:0000000c $t

UNDEFINED SYMBOLS
chvprintf
itm_port
tcp_timer_needed
chSysHalt
malloc
free
memp_sizes
tcp_output
pbuf_free
pbuf_ref
tcp_zero_window_probe
tcp_rexmit_rto
tcp_keepalive
tcp_rst
tcp_send_fin
memset
ip_route
tcp_enqueue_flags
