ARM GAS  C:\Users\jo\AppData\Local\Temp\cc0tY1bm.s 			page 1


   1              		.syntax unified
   2              		.cpu cortex-m4
   3              		.fpu softvfp
   4              		.eabi_attribute 20, 1
   5              		.eabi_attribute 21, 1
   6              		.eabi_attribute 23, 3
   7              		.eabi_attribute 24, 1
   8              		.eabi_attribute 25, 1
   9              		.eabi_attribute 26, 1
  10              		.eabi_attribute 30, 2
  11              		.eabi_attribute 34, 1
  12              		.eabi_attribute 18, 4
  13              		.thumb
  14              		.file	"test.c"
  15              		.text
  16              	.Ltext0:
  17              		.cfi_sections	.debug_frame
  18              		.section	.text.tmr,"ax",%progbits
  19              		.align	2
  20              		.p2align 4,,15
  21              		.thumb
  22              		.thumb_func
  23              		.type	tmr, %function
  24              	tmr:
  25              	.LFB268:
  26              		.file 1 "../../../test/rt/test.c"
  27              		.loc 1 261 0
  28              		.cfi_startproc
  29              		@ args = 0, pretend = 0, frame = 0
  30              		@ frame_needed = 0, uses_anonymous_args = 0
  31              		@ link register save eliminated.
  32              	.LVL0:
  33              		.loc 1 264 0
  34 0000 014B     		ldr	r3, .L2
  35 0002 0122     		movs	r2, #1
  36 0004 1A70     		strb	r2, [r3]
  37 0006 7047     		bx	lr
  38              	.L3:
  39              		.align	2
  40              	.L2:
  41 0008 00000000 		.word	.LANCHOR0
  42              		.cfi_endproc
  43              	.LFE268:
  44              		.size	tmr, .-tmr
  45 000c AFF30080 		.section	.text.print_line,"ax",%progbits
  46              		.align	2
  47              		.p2align 4,,15
  48              		.thumb
  49              		.thumb_func
  50              		.type	print_line, %function
  51              	print_line:
  52              	.LFB271:
  53              		.loc 1 300 0
  54              		.cfi_startproc
  55              		@ args = 0, pretend = 0, frame = 0
  56              		@ frame_needed = 0, uses_anonymous_args = 0
  57              	.LVL1:
ARM GAS  C:\Users\jo\AppData\Local\Temp\cc0tY1bm.s 			page 2


  58 0000 70B5     		push	{r4, r5, r6, lr}
  59              		.cfi_def_cfa_offset 16
  60              		.cfi_offset 4, -16
  61              		.cfi_offset 5, -12
  62              		.cfi_offset 6, -8
  63              		.cfi_offset 14, -4
  64 0002 094E     		ldr	r6, .L9
  65              		.loc 1 300 0
  66 0004 4C24     		movs	r4, #76
  67              	.LVL2:
  68              	.L5:
  69              		.loc 1 304 0 discriminator 3
  70 0006 3068     		ldr	r0, [r6]
  71 0008 074D     		ldr	r5, .L9
  72 000a 0368     		ldr	r3, [r0]
  73 000c 2D21     		movs	r1, #45
  74 000e 9B68     		ldr	r3, [r3, #8]
  75 0010 9847     		blx	r3
  76              	.LVL3:
  77              		.loc 1 303 0 discriminator 3
  78 0012 013C     		subs	r4, r4, #1
  79              	.LVL4:
  80 0014 F7D1     		bne	.L5
  81              		.loc 1 305 0
  82 0016 2868     		ldr	r0, [r5]
  83 0018 0449     		ldr	r1, .L9+4
  84 001a 0368     		ldr	r3, [r0]
  85 001c 0222     		movs	r2, #2
  86 001e 1B68     		ldr	r3, [r3]
  87              		.loc 1 306 0
  88 0020 BDE87040 		pop	{r4, r5, r6, lr}
  89              		.cfi_restore 14
  90              		.cfi_restore 6
  91              		.cfi_restore 5
  92              		.cfi_restore 4
  93              		.cfi_def_cfa_offset 0
  94              	.LVL5:
  95              		.loc 1 305 0
  96 0024 1847     		bx	r3
  97              	.LVL6:
  98              	.L10:
  99 0026 00BF     		.align	2
 100              	.L9:
 101 0028 00000000 		.word	.LANCHOR1
 102 002c 00000000 		.word	.LC0
 103              		.cfi_endproc
 104              	.LFE271:
 105              		.size	print_line, .-print_line
 106              		.section	.text.test_printn,"ax",%progbits
 107              		.align	2
 108              		.p2align 4,,15
 109              		.global	test_printn
 110              		.thumb
 111              		.thumb_func
 112              		.type	test_printn, %function
 113              	test_printn:
 114              	.LFB255:
ARM GAS  C:\Users\jo\AppData\Local\Temp\cc0tY1bm.s 			page 3


 115              		.loc 1 91 0
 116              		.cfi_startproc
 117              		@ args = 0, pretend = 0, frame = 16
 118              		@ frame_needed = 0, uses_anonymous_args = 0
 119              	.LVL7:
 120              		.loc 1 94 0
 121 0000 10B3     		cbz	r0, .L20
 122              		.loc 1 91 0
 123 0002 70B5     		push	{r4, r5, r6, lr}
 124              		.cfi_def_cfa_offset 16
 125              		.cfi_offset 4, -16
 126              		.cfi_offset 5, -12
 127              		.cfi_offset 6, -8
 128              		.cfi_offset 14, -4
 129              		.loc 1 99 0
 130 0004 134A     		ldr	r2, .L22
 131              		.loc 1 91 0
 132 0006 84B0     		sub	sp, sp, #16
 133              		.cfi_def_cfa_offset 32
 134              		.loc 1 94 0
 135 0008 6D46     		mov	r5, sp
 136 000a 6C46     		mov	r4, sp
 137              	.L13:
 138              	.LVL8:
 139              		.loc 1 99 0
 140 000c A2FB0013 		umull	r1, r3, r2, r0
 141 0010 DB08     		lsrs	r3, r3, #3
 142 0012 03EB8301 		add	r1, r3, r3, lsl #2
 143 0016 A0EB4100 		sub	r0, r0, r1, lsl #1
 144              	.LVL9:
 145 001a 00F13001 		add	r1, r0, #48
 146 001e C9B2     		uxtb	r1, r1
 147 0020 04F8011B 		strb	r1, [r4], #1
 148              	.LVL10:
 149              		.loc 1 98 0
 150 0024 1846     		mov	r0, r3
 151 0026 002B     		cmp	r3, #0
 152 0028 F0D1     		bne	.L13
 153              		.loc 1 100 0
 154 002a AC42     		cmp	r4, r5
 155 002c 0AD9     		bls	.L11
 156 002e 0A4E     		ldr	r6, .L22+4
 157 0030 013C     		subs	r4, r4, #1
 158              	.LVL11:
 159 0032 01E0     		b	.L17
 160              	.LVL12:
 161              	.L21:
 162 0034 14F8011D 		ldrb	r1, [r4, #-1]!	@ zero_extendqisi2
 163              	.LVL13:
 164              	.L17:
 165              		.loc 1 101 0
 166 0038 3068     		ldr	r0, [r6]
 167              	.LVL14:
 168 003a 0368     		ldr	r3, [r0]
 169 003c 9B68     		ldr	r3, [r3, #8]
 170 003e 9847     		blx	r3
 171              	.LVL15:
ARM GAS  C:\Users\jo\AppData\Local\Temp\cc0tY1bm.s 			page 4


 172              		.loc 1 100 0
 173 0040 AC42     		cmp	r4, r5
 174 0042 F7D1     		bne	.L21
 175              	.LVL16:
 176              	.L11:
 177              		.loc 1 103 0
 178 0044 04B0     		add	sp, sp, #16
 179              		.cfi_def_cfa_offset 16
 180              		@ sp needed
 181 0046 70BD     		pop	{r4, r5, r6, pc}
 182              	.LVL17:
 183              	.L20:
 184              		.cfi_def_cfa_offset 0
 185              		.cfi_restore 4
 186              		.cfi_restore 5
 187              		.cfi_restore 6
 188              		.cfi_restore 14
 189              	.LBB107:
 190              	.LBB108:
 191              		.loc 1 95 0
 192 0048 034B     		ldr	r3, .L22+4
 193 004a 1868     		ldr	r0, [r3]
 194              	.LVL18:
 195 004c 0368     		ldr	r3, [r0]
 196 004e 3021     		movs	r1, #48
 197 0050 9B68     		ldr	r3, [r3, #8]
 198 0052 1847     		bx	r3
 199              	.LVL19:
 200              	.L23:
 201              		.align	2
 202              	.L22:
 203 0054 CDCCCCCC 		.word	-858993459
 204 0058 00000000 		.word	.LANCHOR1
 205              	.LBE108:
 206              	.LBE107:
 207              		.cfi_endproc
 208              	.LFE255:
 209              		.size	test_printn, .-test_printn
 210 005c AFF30080 		.section	.text.test_print,"ax",%progbits
 211              		.align	2
 212              		.p2align 4,,15
 213              		.global	test_print
 214              		.thumb
 215              		.thumb_func
 216              		.type	test_print, %function
 217              	test_print:
 218              	.LFB256:
 219              		.loc 1 110 0
 220              		.cfi_startproc
 221              		@ args = 0, pretend = 0, frame = 0
 222              		@ frame_needed = 0, uses_anonymous_args = 0
 223              	.LVL20:
 224 0000 38B5     		push	{r3, r4, r5, lr}
 225              		.cfi_def_cfa_offset 16
 226              		.cfi_offset 3, -16
 227              		.cfi_offset 4, -12
 228              		.cfi_offset 5, -8
ARM GAS  C:\Users\jo\AppData\Local\Temp\cc0tY1bm.s 			page 5


 229              		.cfi_offset 14, -4
 230              		.loc 1 112 0
 231 0002 0178     		ldrb	r1, [r0]	@ zero_extendqisi2
 232              		.loc 1 110 0
 233 0004 0446     		mov	r4, r0
 234              		.loc 1 112 0
 235 0006 41B1     		cbz	r1, .L24
 236 0008 044D     		ldr	r5, .L30
 237              	.LVL21:
 238              	.L26:
 239              		.loc 1 113 0
 240 000a 2868     		ldr	r0, [r5]
 241 000c 0368     		ldr	r3, [r0]
 242 000e 9B68     		ldr	r3, [r3, #8]
 243 0010 9847     		blx	r3
 244              	.LVL22:
 245              		.loc 1 112 0
 246 0012 14F8011F 		ldrb	r1, [r4, #1]!	@ zero_extendqisi2
 247              	.LVL23:
 248 0016 0029     		cmp	r1, #0
 249 0018 F7D1     		bne	.L26
 250              	.LVL24:
 251              	.L24:
 252 001a 38BD     		pop	{r3, r4, r5, pc}
 253              	.L31:
 254              		.align	2
 255              	.L30:
 256 001c 00000000 		.word	.LANCHOR1
 257              		.cfi_endproc
 258              	.LFE256:
 259              		.size	test_print, .-test_print
 260              		.section	.text.test_println,"ax",%progbits
 261              		.align	2
 262              		.p2align 4,,15
 263              		.global	test_println
 264              		.thumb
 265              		.thumb_func
 266              		.type	test_println, %function
 267              	test_println:
 268              	.LFB257:
 269              		.loc 1 121 0
 270              		.cfi_startproc
 271              		@ args = 0, pretend = 0, frame = 0
 272              		@ frame_needed = 0, uses_anonymous_args = 0
 273              	.LVL25:
 274 0000 70B5     		push	{r4, r5, r6, lr}
 275              		.cfi_def_cfa_offset 16
 276              		.cfi_offset 4, -16
 277              		.cfi_offset 5, -12
 278              		.cfi_offset 6, -8
 279              		.cfi_offset 14, -4
 280              	.LBB109:
 281              	.LBB110:
 282              		.loc 1 112 0
 283 0002 0178     		ldrb	r1, [r0]	@ zero_extendqisi2
 284 0004 094D     		ldr	r5, .L38
 285              	.LBE110:
ARM GAS  C:\Users\jo\AppData\Local\Temp\cc0tY1bm.s 			page 6


 286              	.LBE109:
 287              		.loc 1 121 0
 288 0006 0446     		mov	r4, r0
 289              	.LVL26:
 290              	.LBB112:
 291              	.LBB111:
 292              		.loc 1 112 0
 293 0008 39B1     		cbz	r1, .L35
 294              	.LVL27:
 295              	.L34:
 296              		.loc 1 113 0
 297 000a 2868     		ldr	r0, [r5]
 298 000c 0368     		ldr	r3, [r0]
 299 000e 9B68     		ldr	r3, [r3, #8]
 300 0010 9847     		blx	r3
 301              	.LVL28:
 302              		.loc 1 112 0
 303 0012 14F8011F 		ldrb	r1, [r4, #1]!	@ zero_extendqisi2
 304              	.LVL29:
 305 0016 0029     		cmp	r1, #0
 306 0018 F7D1     		bne	.L34
 307              	.LVL30:
 308              	.L35:
 309              	.LBE111:
 310              	.LBE112:
 311              		.loc 1 124 0
 312 001a 2868     		ldr	r0, [r5]
 313 001c 0449     		ldr	r1, .L38+4
 314 001e 0368     		ldr	r3, [r0]
 315 0020 0222     		movs	r2, #2
 316 0022 1B68     		ldr	r3, [r3]
 317              		.loc 1 125 0
 318 0024 BDE87040 		pop	{r4, r5, r6, lr}
 319              		.cfi_restore 14
 320              		.cfi_restore 6
 321              		.cfi_restore 5
 322              		.cfi_restore 4
 323              		.cfi_def_cfa_offset 0
 324              		.loc 1 124 0
 325 0028 1847     		bx	r3
 326              	.LVL31:
 327              	.L39:
 328 002a 00BF     		.align	2
 329              	.L38:
 330 002c 00000000 		.word	.LANCHOR1
 331 0030 00000000 		.word	.LC0
 332              		.cfi_endproc
 333              	.LFE257:
 334              		.size	test_println, .-test_println
 335 0034 AFF30080 		.section	.text.test_emit_token,"ax",%progbits
 335      AFF30080 
 335      AFF30080 
 336              		.align	2
 337              		.p2align 4,,15
 338              		.global	test_emit_token
 339              		.thumb
 340              		.thumb_func
ARM GAS  C:\Users\jo\AppData\Local\Temp\cc0tY1bm.s 			page 7


 341              		.type	test_emit_token, %function
 342              	test_emit_token:
 343              	.LFB260:
 344              		.loc 1 147 0
 345              		.cfi_startproc
 346              		@ args = 0, pretend = 0, frame = 0
 347              		@ frame_needed = 0, uses_anonymous_args = 0
 348              	.LVL32:
 349 0000 10B5     		push	{r4, lr}
 350              		.cfi_def_cfa_offset 8
 351              		.cfi_offset 4, -8
 352              		.cfi_offset 14, -4
 353              	.LBB123:
 354              	.LBB124:
 355              	.LBB125:
 356              	.LBB126:
 357              	.LBB127:
 358              		.file 2 "../../../os/ext/CMSIS/include/core_cmFunc.h"
 359              		.loc 2 546 0
 360 0002 2023     		movs	r3, #32
 361              	.LBE127:
 362              	.LBE126:
 363              	.LBE125:
 364              	.LBE124:
 365              	.LBE123:
 366              		.loc 1 147 0
 367 0004 0446     		mov	r4, r0
 368              	.LBB132:
 369              	.LBB131:
 370              	.LBB130:
 371              	.LBB129:
 372              	.LBB128:
 373              		.loc 2 546 0
 374              	@ 546 "../../../os/ext/CMSIS/include/core_cmFunc.h" 1
 375 0006 83F31188 		MSR basepri, r3
 376              	@ 0 "" 2
 377              		.thumb
 378              	.LBE128:
 379              	.LBE129:
 380              	.LBE130:
 381              		.file 3 "../../../os/rt/include/chsys.h"
 382              		.loc 3 300 0
 383 000a FFF7FEFF 		bl	_stats_start_measure_crit_thd
 384              	.LVL33:
 385              		.loc 3 301 0
 386 000e FFF7FEFF 		bl	_dbg_check_lock
 387              	.LVL34:
 388              	.LBE131:
 389              	.LBE132:
 390              		.loc 1 150 0
 391 0012 0D4A     		ldr	r2, .L43
 392 0014 1368     		ldr	r3, [r2]
 393 0016 1C70     		strb	r4, [r3]
 394 0018 0133     		adds	r3, r3, #1
 395 001a 1360     		str	r3, [r2]
 396              	.LBB133:
 397              	.LBB134:
ARM GAS  C:\Users\jo\AppData\Local\Temp\cc0tY1bm.s 			page 8


 398              		.loc 3 311 0
 399 001c FFF7FEFF 		bl	_dbg_check_unlock
 400              	.LVL35:
 401              		.loc 3 312 0
 402 0020 FFF7FEFF 		bl	_stats_stop_measure_crit_thd
 403              	.LVL36:
 404              		.loc 3 318 0
 405 0024 094B     		ldr	r3, .L43+4
 406 0026 9A69     		ldr	r2, [r3, #24]
 407 0028 1B68     		ldr	r3, [r3]
 408 002a 9268     		ldr	r2, [r2, #8]
 409 002c 9B68     		ldr	r3, [r3, #8]
 410 002e 9A42     		cmp	r2, r3
 411 0030 06D2     		bcs	.L41
 412 0032 0748     		ldr	r0, .L43+8
 413 0034 FFF7FEFF 		bl	puts
 414              	.LVL37:
 415              	@ 318 "../../../os/rt/include/chsys.h" 1
 416 0038 00BE     		BKPT #0
 417              	
 418              	@ 0 "" 2
 419              		.thumb
 420 003a 0648     		ldr	r0, .L43+12
 421 003c FFF7FEFF 		bl	chSysHalt
 422              	.LVL38:
 423              	.L41:
 424              	.LBB135:
 425              	.LBB136:
 426              	.LBB137:
 427              		.loc 2 546 0
 428 0040 0023     		movs	r3, #0
 429              	@ 546 "../../../os/ext/CMSIS/include/core_cmFunc.h" 1
 430 0042 83F31188 		MSR basepri, r3
 431              	@ 0 "" 2
 432              		.thumb
 433 0046 10BD     		pop	{r4, pc}
 434              	.L44:
 435              		.align	2
 436              	.L43:
 437 0048 00000000 		.word	.LANCHOR2
 438 004c 00000000 		.word	ch
 439 0050 04000000 		.word	.LC1
 440 0054 00000000 		.word	.LANCHOR3
 441              	.LBE137:
 442              	.LBE136:
 443              	.LBE135:
 444              	.LBE134:
 445              	.LBE133:
 446              		.cfi_endproc
 447              	.LFE260:
 448              		.size	test_emit_token, .-test_emit_token
 449 0058 AFF30080 		.section	.text._test_fail,"ax",%progbits
 449      AFF30080 
 450              		.align	2
 451              		.p2align 4,,15
 452              		.global	_test_fail
 453              		.thumb
ARM GAS  C:\Users\jo\AppData\Local\Temp\cc0tY1bm.s 			page 9


 454              		.thumb_func
 455              		.type	_test_fail, %function
 456              	_test_fail:
 457              	.LFB261:
 458              		.loc 1 157 0
 459              		.cfi_startproc
 460              		@ args = 0, pretend = 0, frame = 0
 461              		@ frame_needed = 0, uses_anonymous_args = 0
 462              		@ link register save eliminated.
 463              	.LVL39:
 464              		.loc 1 161 0
 465 0000 0349     		ldr	r1, .L46
 466              		.loc 1 159 0
 467 0002 044A     		ldr	r2, .L46+4
 468              		.loc 1 160 0
 469 0004 044B     		ldr	r3, .L46+8
 470              		.loc 1 161 0
 471 0006 0860     		str	r0, [r1]
 472              		.loc 1 159 0
 473 0008 0120     		movs	r0, #1
 474              	.LVL40:
 475 000a 1070     		strb	r0, [r2]
 476              		.loc 1 160 0
 477 000c 1870     		strb	r0, [r3]
 478              		.loc 1 163 0
 479 000e 7047     		bx	lr
 480              	.L47:
 481              		.align	2
 482              	.L46:
 483 0010 00000000 		.word	.LANCHOR6
 484 0014 00000000 		.word	.LANCHOR4
 485 0018 00000000 		.word	.LANCHOR5
 486              		.cfi_endproc
 487              	.LFE261:
 488              		.size	_test_fail, .-_test_fail
 489 001c AFF30080 		.section	.text._test_assert,"ax",%progbits
 490              		.align	2
 491              		.p2align 4,,15
 492              		.global	_test_assert
 493              		.thumb
 494              		.thumb_func
 495              		.type	_test_assert, %function
 496              	_test_assert:
 497              	.LFB262:
 498              		.loc 1 165 0
 499              		.cfi_startproc
 500              		@ args = 0, pretend = 0, frame = 0
 501              		@ frame_needed = 0, uses_anonymous_args = 0
 502              		@ link register save eliminated.
 503              	.LVL41:
 504              		.loc 1 167 0
 505 0000 59B9     		cbnz	r1, .L50
 506              	.LVL42:
 507              		.loc 1 165 0
 508 0002 10B4     		push	{r4}
 509              		.cfi_def_cfa_offset 4
 510              		.cfi_offset 4, -4
ARM GAS  C:\Users\jo\AppData\Local\Temp\cc0tY1bm.s 			page 10


 511              	.LBB138:
 512              	.LBB139:
 513              		.loc 1 160 0
 514 0004 0649     		ldr	r1, .L53
 515              	.LVL43:
 516              		.loc 1 159 0
 517 0006 074C     		ldr	r4, .L53+4
 518              		.loc 1 161 0
 519 0008 074A     		ldr	r2, .L53+8
 520              		.loc 1 159 0
 521 000a 0123     		movs	r3, #1
 522 000c 2370     		strb	r3, [r4]
 523              		.loc 1 161 0
 524 000e 1060     		str	r0, [r2]
 525              		.loc 1 160 0
 526 0010 0B70     		strb	r3, [r1]
 527              	.LBE139:
 528              	.LBE138:
 529              		.loc 1 170 0
 530 0012 1846     		mov	r0, r3
 531              	.LVL44:
 532 0014 5DF8044B 		ldr	r4, [sp], #4
 533              		.cfi_restore 4
 534              		.cfi_def_cfa_offset 0
 535 0018 7047     		bx	lr
 536              	.LVL45:
 537              	.L50:
 538              		.loc 1 169 0
 539 001a 0023     		movs	r3, #0
 540              		.loc 1 170 0
 541 001c 1846     		mov	r0, r3
 542              	.LVL46:
 543 001e 7047     		bx	lr
 544              	.L54:
 545              		.align	2
 546              	.L53:
 547 0020 00000000 		.word	.LANCHOR5
 548 0024 00000000 		.word	.LANCHOR4
 549 0028 00000000 		.word	.LANCHOR6
 550              		.cfi_endproc
 551              	.LFE262:
 552              		.size	_test_assert, .-_test_assert
 553 002c AFF30080 		.section	.text._test_assert_sequence,"ax",%progbits
 554              		.align	2
 555              		.p2align 4,,15
 556              		.global	_test_assert_sequence
 557              		.thumb
 558              		.thumb_func
 559              		.type	_test_assert_sequence, %function
 560              	_test_assert_sequence:
 561              	.LFB263:
 562              		.loc 1 172 0
 563              		.cfi_startproc
 564              		@ args = 0, pretend = 0, frame = 0
 565              		@ frame_needed = 0, uses_anonymous_args = 0
 566              		@ link register save eliminated.
 567              	.LVL47:
ARM GAS  C:\Users\jo\AppData\Local\Temp\cc0tY1bm.s 			page 11


 568 0000 F0B4     		push	{r4, r5, r6, r7}
 569              		.cfi_def_cfa_offset 16
 570              		.cfi_offset 4, -16
 571              		.cfi_offset 5, -12
 572              		.cfi_offset 6, -8
 573              		.cfi_offset 7, -4
 574 0002 0E4E     		ldr	r6, .L62
 575              		.loc 1 173 0
 576 0004 0E4F     		ldr	r7, .L62+4
 577 0006 3568     		ldr	r5, [r6]
 578 0008 3B46     		mov	r3, r7
 579              		.loc 1 174 0
 580 000a 05E0     		b	.L56
 581              	.LVL48:
 582              	.L58:
 583              		.loc 1 175 0
 584 000c 13F8014B 		ldrb	r4, [r3], #1	@ zero_extendqisi2
 585              	.LVL49:
 586 0010 11F8012B 		ldrb	r2, [r1], #1	@ zero_extendqisi2
 587              	.LVL50:
 588 0014 9442     		cmp	r4, r2
 589 0016 07D1     		bne	.L59
 590              	.LVL51:
 591              	.L56:
 592              		.loc 1 174 0
 593 0018 AB42     		cmp	r3, r5
 594 001a F7D3     		bcc	.L58
 595              		.loc 1 178 0
 596 001c 0B78     		ldrb	r3, [r1]	@ zero_extendqisi2
 597              	.LVL52:
 598 001e 1BB9     		cbnz	r3, .L59
 599              	.LBB140:
 600              	.LBB141:
 601              		.loc 1 132 0
 602 0020 3760     		str	r7, [r6]
 603              	.LBE141:
 604              	.LBE140:
 605              		.loc 1 182 0
 606 0022 1846     		mov	r0, r3
 607              	.LVL53:
 608 0024 F0BC     		pop	{r4, r5, r6, r7}
 609              		.cfi_remember_state
 610              		.cfi_restore 4
 611              		.cfi_restore 5
 612              		.cfi_restore 6
 613              		.cfi_restore 7
 614              		.cfi_def_cfa_offset 0
 615 0026 7047     		bx	lr
 616              	.LVL54:
 617              	.L59:
 618              		.cfi_restore_state
 619              	.LBB142:
 620              	.LBB143:
 621              		.loc 1 159 0
 622 0028 064C     		ldr	r4, .L62+8
 623              		.loc 1 160 0
 624 002a 0749     		ldr	r1, .L62+12
ARM GAS  C:\Users\jo\AppData\Local\Temp\cc0tY1bm.s 			page 12


 625              		.loc 1 161 0
 626 002c 074A     		ldr	r2, .L62+16
 627              		.loc 1 159 0
 628 002e 0123     		movs	r3, #1
 629 0030 2370     		strb	r3, [r4]
 630              		.loc 1 161 0
 631 0032 1060     		str	r0, [r2]
 632              		.loc 1 160 0
 633 0034 0B70     		strb	r3, [r1]
 634              	.LBE143:
 635              	.LBE142:
 636              		.loc 1 182 0
 637 0036 1846     		mov	r0, r3
 638              	.LVL55:
 639 0038 F0BC     		pop	{r4, r5, r6, r7}
 640              		.cfi_restore 7
 641              		.cfi_restore 6
 642              		.cfi_restore 5
 643              		.cfi_restore 4
 644              		.cfi_def_cfa_offset 0
 645 003a 7047     		bx	lr
 646              	.L63:
 647              		.align	2
 648              	.L62:
 649 003c 00000000 		.word	.LANCHOR2
 650 0040 00000000 		.word	.LANCHOR7
 651 0044 00000000 		.word	.LANCHOR4
 652 0048 00000000 		.word	.LANCHOR5
 653 004c 00000000 		.word	.LANCHOR6
 654              		.cfi_endproc
 655              	.LFE263:
 656              		.size	_test_assert_sequence, .-_test_assert_sequence
 657              		.section	.text._test_assert_time_window,"ax",%progbits
 658              		.align	2
 659              		.p2align 4,,15
 660              		.global	_test_assert_time_window
 661              		.thumb
 662              		.thumb_func
 663              		.type	_test_assert_time_window, %function
 664              	_test_assert_time_window:
 665              	.LFB264:
 666              		.loc 1 184 0
 667              		.cfi_startproc
 668              		@ args = 0, pretend = 0, frame = 0
 669              		@ frame_needed = 0, uses_anonymous_args = 0
 670              	.LVL56:
 671 0000 F8B5     		push	{r3, r4, r5, r6, r7, lr}
 672              		.cfi_def_cfa_offset 24
 673              		.cfi_offset 3, -24
 674              		.cfi_offset 4, -20
 675              		.cfi_offset 5, -16
 676              		.cfi_offset 6, -12
 677              		.cfi_offset 7, -8
 678              		.cfi_offset 14, -4
 679              		.loc 1 184 0
 680 0002 0646     		mov	r6, r0
 681 0004 0F46     		mov	r7, r1
ARM GAS  C:\Users\jo\AppData\Local\Temp\cc0tY1bm.s 			page 13


 682              	.LVL57:
 683 0006 1446     		mov	r4, r2
 684              	.LVL58:
 685              	.LBB168:
 686              	.LBB169:
 687              	.LBB170:
 688              	.LBB171:
 689              	.LBB172:
 690              	.LBB173:
 691              	.LBB174:
 692              	.LBB175:
 693              		.loc 2 546 0
 694 0008 2023     		movs	r3, #32
 695              	@ 546 "../../../os/ext/CMSIS/include/core_cmFunc.h" 1
 696 000a 83F31188 		MSR basepri, r3
 697              	@ 0 "" 2
 698              		.thumb
 699              	.LBE175:
 700              	.LBE174:
 701              	.LBE173:
 702              		.loc 3 300 0
 703 000e FFF7FEFF 		bl	_stats_start_measure_crit_thd
 704              	.LVL59:
 705              		.loc 3 301 0
 706 0012 FFF7FEFF 		bl	_dbg_check_lock
 707              	.LVL60:
 708              	.LBE172:
 709              	.LBE171:
 710              	.LBB176:
 711              	.LBB177:
 712              	.LBB178:
 713              	.LBB179:
 714              		.file 4 "../../../os/hal/ports/STM32/LLD/TIMv1/st_lld.h"
 715              		.loc 4 128 0
 716 0016 4FF08043 		mov	r3, #1073741824
 717 001a 5D6A     		ldr	r5, [r3, #36]
 718              	.LBE179:
 719              	.LBE178:
 720              	.LBE177:
 721              	.LBE176:
 722              	.LBB180:
 723              	.LBB181:
 724              		.loc 3 311 0
 725 001c FFF7FEFF 		bl	_dbg_check_unlock
 726              	.LVL61:
 727              		.loc 3 312 0
 728 0020 FFF7FEFF 		bl	_stats_stop_measure_crit_thd
 729              	.LVL62:
 730              		.loc 3 318 0
 731 0024 0E4B     		ldr	r3, .L69
 732 0026 9A69     		ldr	r2, [r3, #24]
 733 0028 1B68     		ldr	r3, [r3]
 734 002a 9268     		ldr	r2, [r2, #8]
 735 002c 9B68     		ldr	r3, [r3, #8]
 736 002e 9A42     		cmp	r2, r3
 737 0030 06D2     		bcs	.L65
 738 0032 0C48     		ldr	r0, .L69+4
ARM GAS  C:\Users\jo\AppData\Local\Temp\cc0tY1bm.s 			page 14


 739 0034 FFF7FEFF 		bl	puts
 740              	.LVL63:
 741              	@ 318 "../../../os/rt/include/chsys.h" 1
 742 0038 00BE     		BKPT #0
 743              	
 744              	@ 0 "" 2
 745              		.thumb
 746 003a 0B48     		ldr	r0, .L69+8
 747 003c FFF7FEFF 		bl	chSysHalt
 748              	.LVL64:
 749              	.L65:
 750              	.LBB182:
 751              	.LBB183:
 752              	.LBB184:
 753              		.loc 2 546 0
 754 0040 0020     		movs	r0, #0
 755              	@ 546 "../../../os/ext/CMSIS/include/core_cmFunc.h" 1
 756 0042 80F31188 		MSR basepri, r0
 757              	@ 0 "" 2
 758              	.LVL65:
 759              		.thumb
 760              	.LBE184:
 761              	.LBE183:
 762              	.LBE182:
 763              	.LBE181:
 764              	.LBE180:
 765              	.LBE170:
 766              	.LBE169:
 767              	.LBB185:
 768              	.LBB186:
 769              		.file 5 "../../../os/rt/include/chvt.h"
 770              		.loc 5 286 0
 771 0046 ED1B     		subs	r5, r5, r7
 772              	.LVL66:
 773 0048 E41B     		subs	r4, r4, r7
 774              	.LVL67:
 775              	.LBE186:
 776              	.LBE185:
 777              	.LBE168:
 778              	.LBB187:
 779              	.LBB188:
 780              		.loc 1 167 0
 781 004a A542     		cmp	r5, r4
 782 004c 06D3     		bcc	.L66
 783              	.LVL68:
 784              	.LBB189:
 785              	.LBB190:
 786              		.loc 1 159 0
 787 004e 0749     		ldr	r1, .L69+12
 788              		.loc 1 160 0
 789 0050 074A     		ldr	r2, .L69+16
 790              		.loc 1 161 0
 791 0052 084B     		ldr	r3, .L69+20
 792              		.loc 1 159 0
 793 0054 0120     		movs	r0, #1
 794 0056 0870     		strb	r0, [r1]
 795              		.loc 1 160 0
ARM GAS  C:\Users\jo\AppData\Local\Temp\cc0tY1bm.s 			page 15


 796 0058 1070     		strb	r0, [r2]
 797              		.loc 1 161 0
 798 005a 1E60     		str	r6, [r3]
 799              	.LVL69:
 800              	.L66:
 801              	.LBE190:
 802              	.LBE189:
 803              	.LBE188:
 804              	.LBE187:
 805              		.loc 1 187 0
 806 005c F8BD     		pop	{r3, r4, r5, r6, r7, pc}
 807              	.LVL70:
 808              	.L70:
 809 005e 00BF     		.align	2
 810              	.L69:
 811 0060 00000000 		.word	ch
 812 0064 04000000 		.word	.LC1
 813 0068 00000000 		.word	.LANCHOR3
 814 006c 00000000 		.word	.LANCHOR4
 815 0070 00000000 		.word	.LANCHOR5
 816 0074 00000000 		.word	.LANCHOR6
 817              		.cfi_endproc
 818              	.LFE264:
 819              		.size	_test_assert_time_window, .-_test_assert_time_window
 820 0078 AFF30080 		.section	.text.test_terminate_threads,"ax",%progbits
 820      AFF30080 
 821              		.align	2
 822              		.p2align 4,,15
 823              		.global	test_terminate_threads
 824              		.thumb
 825              		.thumb_func
 826              		.type	test_terminate_threads, %function
 827              	test_terminate_threads:
 828              	.LFB265:
 829              		.loc 1 196 0
 830              		.cfi_startproc
 831              		@ args = 0, pretend = 0, frame = 0
 832              		@ frame_needed = 0, uses_anonymous_args = 0
 833              	.LVL71:
 834 0000 38B5     		push	{r3, r4, r5, lr}
 835              		.cfi_def_cfa_offset 16
 836              		.cfi_offset 3, -16
 837              		.cfi_offset 4, -12
 838              		.cfi_offset 5, -8
 839              		.cfi_offset 14, -4
 840 0002 064C     		ldr	r4, .L79
 841 0004 04F11405 		add	r5, r4, #20
 842              	.LVL72:
 843              	.L73:
 844              		.loc 1 200 0
 845 0008 54F8043B 		ldr	r3, [r4], #4
 846              		.loc 1 201 0
 847 000c 1846     		mov	r0, r3
 848              		.loc 1 200 0
 849 000e 0BB1     		cbz	r3, .L72
 850              		.loc 1 201 0
 851 0010 FFF7FEFF 		bl	chThdTerminate
ARM GAS  C:\Users\jo\AppData\Local\Temp\cc0tY1bm.s 			page 16


 852              	.LVL73:
 853              	.L72:
 854              		.loc 1 199 0 discriminator 2
 855 0014 AC42     		cmp	r4, r5
 856 0016 F7D1     		bne	.L73
 857              		.loc 1 202 0
 858 0018 38BD     		pop	{r3, r4, r5, pc}
 859              	.L80:
 860 001a 00BF     		.align	2
 861              	.L79:
 862 001c 00000000 		.word	.LANCHOR8
 863              		.cfi_endproc
 864              	.LFE265:
 865              		.size	test_terminate_threads, .-test_terminate_threads
 866              		.section	.text.test_wait_threads,"ax",%progbits
 867              		.align	2
 868              		.p2align 4,,15
 869              		.global	test_wait_threads
 870              		.thumb
 871              		.thumb_func
 872              		.type	test_wait_threads, %function
 873              	test_wait_threads:
 874              	.LFB266:
 875              		.loc 1 207 0
 876              		.cfi_startproc
 877              		@ args = 0, pretend = 0, frame = 0
 878              		@ frame_needed = 0, uses_anonymous_args = 0
 879              	.LVL74:
 880 0000 70B5     		push	{r4, r5, r6, lr}
 881              		.cfi_def_cfa_offset 16
 882              		.cfi_offset 4, -16
 883              		.cfi_offset 5, -12
 884              		.cfi_offset 6, -8
 885              		.cfi_offset 14, -4
 886 0002 074C     		ldr	r4, .L89
 887              		.loc 1 213 0
 888 0004 0026     		movs	r6, #0
 889 0006 04F11405 		add	r5, r4, #20
 890              	.LVL75:
 891              	.L83:
 892              		.loc 1 211 0
 893 000a 54F8040B 		ldr	r0, [r4], #4
 894 000e 18B1     		cbz	r0, .L82
 895              		.loc 1 212 0
 896 0010 FFF7FEFF 		bl	chThdWait
 897              	.LVL76:
 898              		.loc 1 213 0
 899 0014 44F8046C 		str	r6, [r4, #-4]
 900              	.L82:
 901              		.loc 1 210 0 discriminator 2
 902 0018 AC42     		cmp	r4, r5
 903 001a F6D1     		bne	.L83
 904              		.loc 1 215 0
 905 001c 70BD     		pop	{r4, r5, r6, pc}
 906              	.L90:
 907 001e 00BF     		.align	2
 908              	.L89:
ARM GAS  C:\Users\jo\AppData\Local\Temp\cc0tY1bm.s 			page 17


 909 0020 00000000 		.word	.LANCHOR8
 910              		.cfi_endproc
 911              	.LFE266:
 912              		.size	test_wait_threads, .-test_wait_threads
 913 0024 AFF30080 		.section	.text.test_wait_tick,"ax",%progbits
 913      AFF30080 
 913      AFF30080 
 914              		.align	2
 915              		.p2align 4,,15
 916              		.global	test_wait_tick
 917              		.thumb
 918              		.thumb_func
 919              		.type	test_wait_tick, %function
 920              	test_wait_tick:
 921              	.LFB267:
 922              		.loc 1 245 0
 923              		.cfi_startproc
 924              		@ args = 0, pretend = 0, frame = 0
 925              		@ frame_needed = 0, uses_anonymous_args = 0
 926 0000 10B5     		push	{r4, lr}
 927              		.cfi_def_cfa_offset 8
 928              		.cfi_offset 4, -8
 929              		.cfi_offset 14, -4
 930              		.loc 1 247 0
 931 0002 0120     		movs	r0, #1
 932 0004 FFF7FEFF 		bl	chThdSleep
 933              	.LVL77:
 934              	.LBB207:
 935              	.LBB208:
 936              	.LBB209:
 937              	.LBB210:
 938              	.LBB211:
 939              	.LBB212:
 940              	.LBB213:
 941              		.loc 2 546 0
 942 0008 2023     		movs	r3, #32
 943              	@ 546 "../../../os/ext/CMSIS/include/core_cmFunc.h" 1
 944 000a 83F31188 		MSR basepri, r3
 945              	@ 0 "" 2
 946              		.thumb
 947              	.LBE213:
 948              	.LBE212:
 949              	.LBE211:
 950              		.loc 3 300 0
 951 000e FFF7FEFF 		bl	_stats_start_measure_crit_thd
 952              	.LVL78:
 953              		.loc 3 301 0
 954 0012 FFF7FEFF 		bl	_dbg_check_lock
 955              	.LVL79:
 956              	.LBE210:
 957              	.LBE209:
 958              	.LBB214:
 959              	.LBB215:
 960              	.LBB216:
 961              	.LBB217:
 962              		.loc 4 128 0
 963 0016 4FF08043 		mov	r3, #1073741824
ARM GAS  C:\Users\jo\AppData\Local\Temp\cc0tY1bm.s 			page 18


 964 001a 5C6A     		ldr	r4, [r3, #36]
 965              	.LBE217:
 966              	.LBE216:
 967              	.LBE215:
 968              	.LBE214:
 969              	.LBB218:
 970              	.LBB219:
 971              		.loc 3 311 0
 972 001c FFF7FEFF 		bl	_dbg_check_unlock
 973              	.LVL80:
 974              		.loc 3 312 0
 975 0020 FFF7FEFF 		bl	_stats_stop_measure_crit_thd
 976              	.LVL81:
 977              		.loc 3 318 0
 978 0024 094B     		ldr	r3, .L94
 979 0026 9A69     		ldr	r2, [r3, #24]
 980 0028 1B68     		ldr	r3, [r3]
 981 002a 9268     		ldr	r2, [r2, #8]
 982 002c 9B68     		ldr	r3, [r3, #8]
 983 002e 9A42     		cmp	r2, r3
 984 0030 06D2     		bcs	.L92
 985 0032 0748     		ldr	r0, .L94+4
 986 0034 FFF7FEFF 		bl	puts
 987              	.LVL82:
 988              	@ 318 "../../../os/rt/include/chsys.h" 1
 989 0038 00BE     		BKPT #0
 990              	
 991              	@ 0 "" 2
 992              		.thumb
 993 003a 0648     		ldr	r0, .L94+8
 994 003c FFF7FEFF 		bl	chSysHalt
 995              	.LVL83:
 996              	.L92:
 997              	.LBB220:
 998              	.LBB221:
 999              	.LBB222:
 1000              		.loc 2 546 0
 1001 0040 0023     		movs	r3, #0
 1002              	@ 546 "../../../os/ext/CMSIS/include/core_cmFunc.h" 1
 1003 0042 83F31188 		MSR basepri, r3
 1004              	@ 0 "" 2
 1005              		.thumb
 1006              	.LBE222:
 1007              	.LBE221:
 1008              	.LBE220:
 1009              	.LBE219:
 1010              	.LBE218:
 1011              	.LBE208:
 1012              	.LBE207:
 1013              		.loc 1 249 0
 1014 0046 2046     		mov	r0, r4
 1015 0048 10BD     		pop	{r4, pc}
 1016              	.L95:
 1017 004a 00BF     		.align	2
 1018              	.L94:
 1019 004c 00000000 		.word	ch
 1020 0050 04000000 		.word	.LC1
ARM GAS  C:\Users\jo\AppData\Local\Temp\cc0tY1bm.s 			page 19


 1021 0054 00000000 		.word	.LANCHOR3
 1022              		.cfi_endproc
 1023              	.LFE267:
 1024              		.size	test_wait_tick, .-test_wait_tick
 1025 0058 AFF30080 		.section	.text.test_start_timer,"ax",%progbits
 1025      AFF30080 
 1026              		.align	2
 1027              		.p2align 4,,15
 1028              		.global	test_start_timer
 1029              		.thumb
 1030              		.thumb_func
 1031              		.type	test_start_timer, %function
 1032              	test_start_timer:
 1033              	.LFB269:
 1034              		.loc 1 272 0
 1035              		.cfi_startproc
 1036              		@ args = 0, pretend = 0, frame = 0
 1037              		@ frame_needed = 0, uses_anonymous_args = 0
 1038              	.LVL84:
 1039              		.loc 1 274 0
 1040 0000 42F21073 		movw	r3, #10000
 1041              		.loc 1 272 0
 1042 0004 10B5     		push	{r4, lr}
 1043              		.cfi_def_cfa_offset 8
 1044              		.cfi_offset 4, -8
 1045              		.cfi_offset 14, -4
 1046              		.loc 1 274 0
 1047 0006 03FB00F0 		mul	r0, r3, r0
 1048              	.LVL85:
 1049 000a 194C     		ldr	r4, .L103
 1050              		.loc 1 275 0
 1051 000c 194A     		ldr	r2, .L103+4
 1052              		.loc 1 274 0
 1053 000e 0138     		subs	r0, r0, #1
 1054 0010 A4FB0034 		umull	r3, r4, r4, r0
 1055 0014 A409     		lsrs	r4, r4, #6
 1056              		.loc 1 275 0
 1057 0016 0023     		movs	r3, #0
 1058 0018 1370     		strb	r3, [r2]
 1059              		.loc 1 274 0
 1060 001a 0134     		adds	r4, r4, #1
 1061              	.LVL86:
 1062              	.LBB241:
 1063              	.LBB242:
 1064              	.LBB243:
 1065              	.LBB244:
 1066              	.LBB245:
 1067              	.LBB246:
 1068              		.loc 2 546 0
 1069 001c 2023     		movs	r3, #32
 1070              	@ 546 "../../../os/ext/CMSIS/include/core_cmFunc.h" 1
 1071 001e 83F31188 		MSR basepri, r3
 1072              	@ 0 "" 2
 1073              		.thumb
 1074              	.LBE246:
 1075              	.LBE245:
 1076              	.LBE244:
ARM GAS  C:\Users\jo\AppData\Local\Temp\cc0tY1bm.s 			page 20


 1077              		.loc 3 300 0
 1078 0022 FFF7FEFF 		bl	_stats_start_measure_crit_thd
 1079              	.LVL87:
 1080              		.loc 3 301 0
 1081 0026 FFF7FEFF 		bl	_dbg_check_lock
 1082              	.LVL88:
 1083              	.LBE243:
 1084              	.LBE242:
 1085              	.LBB247:
 1086              	.LBB248:
 1087              	.LBB249:
 1088              	.LBB250:
 1089              	.LBB251:
 1090              	.LBB252:
 1091              		.loc 5 337 0
 1092 002a FFF7FEFF 		bl	chDbgCheckClassI
 1093              	.LVL89:
 1094              		.loc 5 339 0
 1095 002e 1248     		ldr	r0, .L103+8
 1096              	.LBE252:
 1097              	.LBE251:
 1098              		.loc 5 354 0
 1099 0030 C368     		ldr	r3, [r0, #12]
 1100 0032 0BB1     		cbz	r3, .L97
 1101              		.loc 5 355 0
 1102 0034 FFF7FEFF 		bl	chVTDoResetI
 1103              	.LVL90:
 1104              	.L97:
 1105              	.LBE250:
 1106              	.LBE249:
 1107              		.loc 5 402 0
 1108 0038 104A     		ldr	r2, .L103+12
 1109 003a 0F48     		ldr	r0, .L103+8
 1110 003c 0023     		movs	r3, #0
 1111 003e 2146     		mov	r1, r4
 1112 0040 FFF7FEFF 		bl	chVTDoSetI
 1113              	.LVL91:
 1114              	.LBE248:
 1115              	.LBE247:
 1116              	.LBB253:
 1117              	.LBB254:
 1118              		.loc 3 311 0
 1119 0044 FFF7FEFF 		bl	_dbg_check_unlock
 1120              	.LVL92:
 1121              		.loc 3 312 0
 1122 0048 FFF7FEFF 		bl	_stats_stop_measure_crit_thd
 1123              	.LVL93:
 1124              		.loc 3 318 0
 1125 004c 0C4B     		ldr	r3, .L103+16
 1126 004e 9A69     		ldr	r2, [r3, #24]
 1127 0050 1B68     		ldr	r3, [r3]
 1128 0052 9268     		ldr	r2, [r2, #8]
 1129 0054 9B68     		ldr	r3, [r3, #8]
 1130 0056 9A42     		cmp	r2, r3
 1131 0058 06D2     		bcs	.L98
 1132 005a 0A48     		ldr	r0, .L103+20
 1133 005c FFF7FEFF 		bl	puts
ARM GAS  C:\Users\jo\AppData\Local\Temp\cc0tY1bm.s 			page 21


 1134              	.LVL94:
 1135              	@ 318 "../../../os/rt/include/chsys.h" 1
 1136 0060 00BE     		BKPT #0
 1137              	
 1138              	@ 0 "" 2
 1139              		.thumb
 1140 0062 0948     		ldr	r0, .L103+24
 1141 0064 FFF7FEFF 		bl	chSysHalt
 1142              	.LVL95:
 1143              	.L98:
 1144              	.LBB255:
 1145              	.LBB256:
 1146              	.LBB257:
 1147              		.loc 2 546 0
 1148 0068 0023     		movs	r3, #0
 1149              	@ 546 "../../../os/ext/CMSIS/include/core_cmFunc.h" 1
 1150 006a 83F31188 		MSR basepri, r3
 1151              	@ 0 "" 2
 1152              		.thumb
 1153 006e 10BD     		pop	{r4, pc}
 1154              	.LVL96:
 1155              	.L104:
 1156              		.align	2
 1157              	.L103:
 1158 0070 D34D6210 		.word	274877907
 1159 0074 00000000 		.word	.LANCHOR0
 1160 0078 00000000 		.word	.LANCHOR9
 1161 007c 00000000 		.word	tmr
 1162 0080 00000000 		.word	ch
 1163 0084 04000000 		.word	.LC1
 1164 0088 00000000 		.word	.LANCHOR3
 1165              	.LBE257:
 1166              	.LBE256:
 1167              	.LBE255:
 1168              	.LBE254:
 1169              	.LBE253:
 1170              	.LBE241:
 1171              		.cfi_endproc
 1172              	.LFE269:
 1173              		.size	test_start_timer, .-test_start_timer
 1174 008c AFF30080 		.section	.text.TestThread,"ax",%progbits
 1175              		.align	2
 1176              		.p2align 4,,15
 1177              		.global	TestThread
 1178              		.thumb
 1179              		.thumb_func
 1180              		.type	TestThread, %function
 1181              	TestThread:
 1182              	.LFB272:
 1183              		.loc 1 314 0
 1184              		.cfi_startproc
 1185              		@ args = 0, pretend = 0, frame = 8
 1186              		@ frame_needed = 0, uses_anonymous_args = 0
 1187              	.LVL97:
 1188 0000 2DE9F04F 		push	{r4, r5, r6, r7, r8, r9, r10, fp, lr}
 1189              		.cfi_def_cfa_offset 36
 1190              		.cfi_offset 4, -36
ARM GAS  C:\Users\jo\AppData\Local\Temp\cc0tY1bm.s 			page 22


 1191              		.cfi_offset 5, -32
 1192              		.cfi_offset 6, -28
 1193              		.cfi_offset 7, -24
 1194              		.cfi_offset 8, -20
 1195              		.cfi_offset 9, -16
 1196              		.cfi_offset 10, -12
 1197              		.cfi_offset 11, -8
 1198              		.cfi_offset 14, -4
 1199              		.loc 1 317 0
 1200 0004 A04C     		ldr	r4, .L190
 1201              		.loc 1 320 0
 1202 0006 A14D     		ldr	r5, .L190+4
 1203              		.loc 1 317 0
 1204 0008 2060     		str	r0, [r4]
 1205              		.loc 1 314 0
 1206 000a 83B0     		sub	sp, sp, #12
 1207              		.cfi_def_cfa_offset 48
 1208              		.loc 1 318 0
 1209 000c A048     		ldr	r0, .L190+8
 1210              	.LVL98:
 1211 000e FFF7FEFF 		bl	test_println
 1212              	.LVL99:
 1213              		.loc 1 319 0
 1214 0012 A048     		ldr	r0, .L190+12
 1215 0014 FFF7FEFF 		bl	test_println
 1216              	.LVL100:
 1217              		.loc 1 320 0
 1218 0018 9F48     		ldr	r0, .L190+16
 1219 001a FFF7FEFF 		bl	test_println
 1220              	.LVL101:
 1221 001e 2A21     		movs	r1, #42
 1222              	.LVL102:
 1223              	.L106:
 1224              	.LBB294:
 1225              	.LBB295:
 1226              		.loc 1 113 0
 1227 0020 2068     		ldr	r0, [r4]
 1228 0022 0368     		ldr	r3, [r0]
 1229 0024 9B68     		ldr	r3, [r3, #8]
 1230 0026 9847     		blx	r3
 1231              	.LVL103:
 1232              		.loc 1 112 0
 1233 0028 15F8011F 		ldrb	r1, [r5, #1]!	@ zero_extendqisi2
 1234              	.LVL104:
 1235 002c 0029     		cmp	r1, #0
 1236 002e F7D1     		bne	.L106
 1237              	.LBE295:
 1238              	.LBE294:
 1239              		.loc 1 322 0
 1240 0030 9A48     		ldr	r0, .L190+20
 1241 0032 9B4D     		ldr	r5, .L190+24
 1242              	.LVL105:
 1243 0034 FFF7FEFF 		bl	test_println
 1244              	.LVL106:
 1245 0038 2A21     		movs	r1, #42
 1246              	.LVL107:
 1247              	.L108:
ARM GAS  C:\Users\jo\AppData\Local\Temp\cc0tY1bm.s 			page 23


 1248              	.LBB296:
 1249              	.LBB297:
 1250              		.loc 1 113 0
 1251 003a 2068     		ldr	r0, [r4]
 1252 003c 0368     		ldr	r3, [r0]
 1253 003e 9B68     		ldr	r3, [r3, #8]
 1254 0040 9847     		blx	r3
 1255              	.LVL108:
 1256              		.loc 1 112 0
 1257 0042 15F8011F 		ldrb	r1, [r5, #1]!	@ zero_extendqisi2
 1258              	.LVL109:
 1259 0046 0029     		cmp	r1, #0
 1260 0048 F7D1     		bne	.L108
 1261              	.LBE297:
 1262              	.LBE296:
 1263              		.loc 1 324 0
 1264 004a 9648     		ldr	r0, .L190+28
 1265 004c 964D     		ldr	r5, .L190+32
 1266              	.LVL110:
 1267 004e FFF7FEFF 		bl	test_println
 1268              	.LVL111:
 1269 0052 2A21     		movs	r1, #42
 1270              	.LVL112:
 1271              	.L110:
 1272              	.LBB298:
 1273              	.LBB299:
 1274              		.loc 1 113 0
 1275 0054 2068     		ldr	r0, [r4]
 1276 0056 0368     		ldr	r3, [r0]
 1277 0058 9B68     		ldr	r3, [r3, #8]
 1278 005a 9847     		blx	r3
 1279              	.LVL113:
 1280              		.loc 1 112 0
 1281 005c 15F8011F 		ldrb	r1, [r5, #1]!	@ zero_extendqisi2
 1282              	.LVL114:
 1283 0060 0029     		cmp	r1, #0
 1284 0062 F7D1     		bne	.L110
 1285              	.LBE299:
 1286              	.LBE298:
 1287              		.loc 1 327 0
 1288 0064 9148     		ldr	r0, .L190+36
 1289 0066 924D     		ldr	r5, .L190+40
 1290              	.LVL115:
 1291 0068 FFF7FEFF 		bl	test_println
 1292              	.LVL116:
 1293 006c 2A21     		movs	r1, #42
 1294              	.LVL117:
 1295              	.L112:
 1296              	.LBB300:
 1297              	.LBB301:
 1298              		.loc 1 113 0
 1299 006e 2068     		ldr	r0, [r4]
 1300 0070 0368     		ldr	r3, [r0]
 1301 0072 9B68     		ldr	r3, [r3, #8]
 1302 0074 9847     		blx	r3
 1303              	.LVL118:
 1304              		.loc 1 112 0
ARM GAS  C:\Users\jo\AppData\Local\Temp\cc0tY1bm.s 			page 24


 1305 0076 15F8011F 		ldrb	r1, [r5, #1]!	@ zero_extendqisi2
 1306              	.LVL119:
 1307 007a 0029     		cmp	r1, #0
 1308 007c F7D1     		bne	.L112
 1309              	.LBE301:
 1310              	.LBE300:
 1311              		.loc 1 330 0
 1312 007e 8D48     		ldr	r0, .L190+44
 1313 0080 8D4D     		ldr	r5, .L190+48
 1314              	.LVL120:
 1315 0082 FFF7FEFF 		bl	test_println
 1316              	.LVL121:
 1317 0086 2A21     		movs	r1, #42
 1318              	.LVL122:
 1319              	.L114:
 1320              	.LBB302:
 1321              	.LBB303:
 1322              		.loc 1 113 0
 1323 0088 2068     		ldr	r0, [r4]
 1324 008a 0368     		ldr	r3, [r0]
 1325 008c 9B68     		ldr	r3, [r3, #8]
 1326 008e 9847     		blx	r3
 1327              	.LVL123:
 1328              		.loc 1 112 0
 1329 0090 15F8011F 		ldrb	r1, [r5, #1]!	@ zero_extendqisi2
 1330              	.LVL124:
 1331 0094 0029     		cmp	r1, #0
 1332 0096 F7D1     		bne	.L114
 1333              	.LBE303:
 1334              	.LBE302:
 1335              		.loc 1 333 0
 1336 0098 8848     		ldr	r0, .L190+52
 1337 009a 894D     		ldr	r5, .L190+56
 1338              	.LVL125:
 1339 009c FFF7FEFF 		bl	test_println
 1340              	.LVL126:
 1341 00a0 2A21     		movs	r1, #42
 1342              	.LVL127:
 1343              	.L116:
 1344              	.LBB304:
 1345              	.LBB305:
 1346              		.loc 1 113 0
 1347 00a2 2068     		ldr	r0, [r4]
 1348 00a4 0368     		ldr	r3, [r0]
 1349 00a6 9B68     		ldr	r3, [r3, #8]
 1350 00a8 9847     		blx	r3
 1351              	.LVL128:
 1352              		.loc 1 112 0
 1353 00aa 15F8011F 		ldrb	r1, [r5, #1]!	@ zero_extendqisi2
 1354              	.LVL129:
 1355 00ae 0029     		cmp	r1, #0
 1356 00b0 F7D1     		bne	.L116
 1357              	.LBE305:
 1358              	.LBE304:
 1359              		.loc 1 337 0
 1360 00b2 8448     		ldr	r0, .L190+60
 1361 00b4 844D     		ldr	r5, .L190+64
ARM GAS  C:\Users\jo\AppData\Local\Temp\cc0tY1bm.s 			page 25


 1362              	.LVL130:
 1363 00b6 FFF7FEFF 		bl	test_println
 1364              	.LVL131:
 1365 00ba 2A21     		movs	r1, #42
 1366              	.LVL132:
 1367              	.L118:
 1368              	.LBB306:
 1369              	.LBB307:
 1370              		.loc 1 113 0
 1371 00bc 2068     		ldr	r0, [r4]
 1372 00be 0368     		ldr	r3, [r0]
 1373 00c0 9B68     		ldr	r3, [r3, #8]
 1374 00c2 9847     		blx	r3
 1375              	.LVL133:
 1376              		.loc 1 112 0
 1377 00c4 15F8011F 		ldrb	r1, [r5, #1]!	@ zero_extendqisi2
 1378              	.LVL134:
 1379 00c8 0029     		cmp	r1, #0
 1380 00ca F7D1     		bne	.L118
 1381              	.LBE307:
 1382              	.LBE306:
 1383              		.loc 1 341 0
 1384 00cc 7F48     		ldr	r0, .L190+68
 1385 00ce 804D     		ldr	r5, .L190+72
 1386              	.LVL135:
 1387 00d0 FFF7FEFF 		bl	test_println
 1388              	.LVL136:
 1389 00d4 2A21     		movs	r1, #42
 1390              	.LVL137:
 1391              	.L120:
 1392              	.LBB308:
 1393              	.LBB309:
 1394              		.loc 1 113 0
 1395 00d6 2068     		ldr	r0, [r4]
 1396 00d8 0368     		ldr	r3, [r0]
 1397 00da 9B68     		ldr	r3, [r3, #8]
 1398 00dc 9847     		blx	r3
 1399              	.LVL138:
 1400              		.loc 1 112 0
 1401 00de 15F8011F 		ldrb	r1, [r5, #1]!	@ zero_extendqisi2
 1402              	.LVL139:
 1403 00e2 0029     		cmp	r1, #0
 1404 00e4 F7D1     		bne	.L120
 1405 00e6 7B4B     		ldr	r3, .L190+76
 1406              	.LBE309:
 1407              	.LBE308:
 1408              		.loc 1 345 0
 1409 00e8 7B48     		ldr	r0, .L190+80
 1410 00ea 0091     		str	r1, [sp]
 1411 00ec 0193     		str	r3, [sp, #4]
 1412 00ee FFF7FEFF 		bl	test_println
 1413              	.LVL140:
 1414              		.loc 1 347 0
 1415 00f2 6748     		ldr	r0, .L190+8
 1416              		.loc 1 349 0
 1417 00f4 DFF82082 		ldr	r8, .L190+144
 1418              	.LBB310:
ARM GAS  C:\Users\jo\AppData\Local\Temp\cc0tY1bm.s 			page 26


 1419              	.LBB311:
 1420              		.loc 1 113 0
 1421 00f8 DFF88CB1 		ldr	fp, .L190
 1422              	.LBE311:
 1423              	.LBE310:
 1424              		.loc 1 347 0
 1425 00fc FFF7FEFF 		bl	test_println
 1426              	.LVL141:
 1427              		.loc 1 349 0
 1428 0100 764B     		ldr	r3, .L190+84
 1429 0102 0099     		ldr	r1, [sp]
 1430 0104 1970     		strb	r1, [r3]
 1431              	.LVL142:
 1432              	.L144:
 1433 0106 009B     		ldr	r3, [sp]
 1434 0108 0133     		adds	r3, r3, #1
 1435 010a 0093     		str	r3, [sp]
 1436              	.LVL143:
 1437              	.LBB313:
 1438              	.LBB314:
 1439              		.loc 1 138 0
 1440 010c 0026     		movs	r6, #0
 1441              	.LVL144:
 1442              	.L140:
 1443              	.LBE314:
 1444              	.LBE313:
 1445              		.loc 1 353 0
 1446 010e 58F82630 		ldr	r3, [r8, r6, lsl #2]
 1447 0112 08EB8607 		add	r7, r8, r6, lsl #2
 1448 0116 002B     		cmp	r3, #0
 1449 0118 00F08780 		beq	.L188
 1450              	.L138:
 1451              		.loc 1 354 0
 1452 011c 704D     		ldr	r5, .L190+88
 1453 011e FFF7FEFF 		bl	print_line
 1454              	.LVL145:
 1455 0122 2D21     		movs	r1, #45
 1456              	.LVL146:
 1457              	.L122:
 1458              	.LBB316:
 1459              	.LBB312:
 1460              		.loc 1 113 0
 1461 0124 2068     		ldr	r0, [r4]
 1462 0126 0368     		ldr	r3, [r0]
 1463 0128 9B68     		ldr	r3, [r3, #8]
 1464 012a 9847     		blx	r3
 1465              	.LVL147:
 1466              		.loc 1 112 0
 1467 012c 15F8011F 		ldrb	r1, [r5, #1]!	@ zero_extendqisi2
 1468              	.LVL148:
 1469 0130 0029     		cmp	r1, #0
 1470 0132 F7D1     		bne	.L122
 1471              	.LBE312:
 1472              	.LBE316:
 1473              		.loc 1 356 0
 1474 0134 0098     		ldr	r0, [sp]
 1475              		.loc 1 358 0
ARM GAS  C:\Users\jo\AppData\Local\Temp\cc0tY1bm.s 			page 27


 1476 0136 6B4D     		ldr	r5, .L190+92
 1477              	.LVL149:
 1478              		.loc 1 356 0
 1479 0138 FFF7FEFF 		bl	test_printn
 1480              	.LVL150:
 1481              	.LBB317:
 1482              	.LBB318:
 1483              		.loc 1 113 0
 1484 013c DBF80000 		ldr	r0, [fp]
 1485              	.LVL151:
 1486 0140 0368     		ldr	r3, [r0]
 1487 0142 2E21     		movs	r1, #46
 1488 0144 9B68     		ldr	r3, [r3, #8]
 1489              	.LBE318:
 1490              	.LBE317:
 1491              		.loc 1 358 0
 1492 0146 0136     		adds	r6, r6, #1
 1493              	.LVL152:
 1494              	.LBB320:
 1495              	.LBB319:
 1496              		.loc 1 113 0
 1497 0148 9847     		blx	r3
 1498              	.LVL153:
 1499              	.LBE319:
 1500              	.LBE320:
 1501              		.loc 1 358 0
 1502 014a 3046     		mov	r0, r6
 1503 014c FFF7FEFF 		bl	test_printn
 1504              	.LVL154:
 1505 0150 2021     		movs	r1, #32
 1506              	.LVL155:
 1507              	.L124:
 1508              	.LBB321:
 1509              	.LBB322:
 1510              		.loc 1 113 0
 1511 0152 2068     		ldr	r0, [r4]
 1512 0154 0368     		ldr	r3, [r0]
 1513 0156 9B68     		ldr	r3, [r3, #8]
 1514 0158 9847     		blx	r3
 1515              	.LVL156:
 1516              		.loc 1 112 0
 1517 015a 15F8011F 		ldrb	r1, [r5, #1]!	@ zero_extendqisi2
 1518              	.LVL157:
 1519 015e 0029     		cmp	r1, #0
 1520 0160 F7D1     		bne	.L124
 1521              	.LBE322:
 1522              	.LBE321:
 1523              		.loc 1 360 0
 1524 0162 3B68     		ldr	r3, [r7]
 1525 0164 1D68     		ldr	r5, [r3]
 1526              	.LVL158:
 1527              	.LBB323:
 1528              	.LBB324:
 1529              		.loc 1 112 0
 1530 0166 2978     		ldrb	r1, [r5]	@ zero_extendqisi2
 1531 0168 39B1     		cbz	r1, .L129
 1532              	.LVL159:
ARM GAS  C:\Users\jo\AppData\Local\Temp\cc0tY1bm.s 			page 28


 1533              	.L128:
 1534              		.loc 1 113 0
 1535 016a 2068     		ldr	r0, [r4]
 1536 016c 0368     		ldr	r3, [r0]
 1537 016e 9B68     		ldr	r3, [r3, #8]
 1538 0170 9847     		blx	r3
 1539              	.LVL160:
 1540              		.loc 1 112 0
 1541 0172 15F8011F 		ldrb	r1, [r5, #1]!	@ zero_extendqisi2
 1542              	.LVL161:
 1543 0176 0029     		cmp	r1, #0
 1544 0178 F7D1     		bne	.L128
 1545              	.LVL162:
 1546              	.L129:
 1547              	.LBE324:
 1548              	.LBE323:
 1549              		.loc 1 361 0
 1550 017a 5B48     		ldr	r0, .L190+96
 1551              	.LBB325:
 1552              	.LBB326:
 1553              		.loc 1 287 0
 1554 017c DFF89C91 		ldr	r9, .L190+148
 1555              	.LBB327:
 1556              	.LBB328:
 1557              		.loc 1 132 0
 1558 0180 5A4D     		ldr	r5, .L190+100
 1559 0182 DFF87CA1 		ldr	r10, .L190+120
 1560              	.LBE328:
 1561              	.LBE327:
 1562              	.LBE326:
 1563              	.LBE325:
 1564              		.loc 1 361 0
 1565 0186 FFF7FEFF 		bl	test_println
 1566              	.LVL163:
 1567              		.loc 1 363 0
 1568 018a 4FF4FA60 		mov	r0, #2000
 1569 018e FFF7FEFF 		bl	chThdSleep
 1570              	.LVL164:
 1571              	.LBB333:
 1572              	.LBB331:
 1573              		.loc 1 289 0
 1574 0192 574A     		ldr	r2, .L190+104
 1575              	.LBE331:
 1576              	.LBE333:
 1577              		.loc 1 365 0
 1578 0194 3F68     		ldr	r7, [r7]
 1579              	.LVL165:
 1580              	.LBB334:
 1581              	.LBB332:
 1582              	.LBB330:
 1583              	.LBB329:
 1584              		.loc 1 132 0
 1585 0196 C5F800A0 		str	r10, [r5]
 1586              	.LBE329:
 1587              	.LBE330:
 1588              		.loc 1 287 0
 1589 019a 0023     		movs	r3, #0
ARM GAS  C:\Users\jo\AppData\Local\Temp\cc0tY1bm.s 			page 29


 1590              		.loc 1 289 0
 1591 019c 1360     		str	r3, [r2]
 1592 019e 5360     		str	r3, [r2, #4]
 1593 01a0 9360     		str	r3, [r2, #8]
 1594 01a2 D360     		str	r3, [r2, #12]
 1595 01a4 1361     		str	r3, [r2, #16]
 1596              		.loc 1 291 0
 1597 01a6 7A68     		ldr	r2, [r7, #4]
 1598              		.loc 1 287 0
 1599 01a8 89F80030 		strb	r3, [r9]
 1600              	.LVL166:
 1601              		.loc 1 291 0
 1602 01ac 02B1     		cbz	r2, .L127
 1603              		.loc 1 292 0
 1604 01ae 9047     		blx	r2
 1605              	.LVL167:
 1606              	.L127:
 1607              		.loc 1 293 0
 1608 01b0 FB68     		ldr	r3, [r7, #12]
 1609 01b2 9847     		blx	r3
 1610              	.LVL168:
 1611              		.loc 1 294 0
 1612 01b4 BB68     		ldr	r3, [r7, #8]
 1613 01b6 03B1     		cbz	r3, .L177
 1614              		.loc 1 295 0
 1615 01b8 9847     		blx	r3
 1616              	.LVL169:
 1617              	.L177:
 1618              		.loc 1 297 0
 1619 01ba FFF7FEFF 		bl	test_wait_threads
 1620              	.LVL170:
 1621              	.LBE332:
 1622              	.LBE334:
 1623              		.loc 1 366 0
 1624 01be 99F80030 		ldrb	r3, [r9]	@ zero_extendqisi2
 1625 01c2 002B     		cmp	r3, #0
 1626 01c4 53D0     		beq	.L131
 1627              	.LVL171:
 1628              		.loc 1 358 0
 1629 01c6 4B4F     		ldr	r7, .L190+108
 1630              	.LVL172:
 1631 01c8 2D21     		movs	r1, #45
 1632              	.LVL173:
 1633              	.L132:
 1634              	.LBB335:
 1635              	.LBB336:
 1636              		.loc 1 113 0
 1637 01ca 2068     		ldr	r0, [r4]
 1638 01cc 0368     		ldr	r3, [r0]
 1639 01ce 9B68     		ldr	r3, [r3, #8]
 1640 01d0 9847     		blx	r3
 1641              	.LVL174:
 1642              		.loc 1 112 0
 1643 01d2 17F8011F 		ldrb	r1, [r7, #1]!	@ zero_extendqisi2
 1644              	.LVL175:
 1645 01d6 0029     		cmp	r1, #0
 1646 01d8 F7D1     		bne	.L132
ARM GAS  C:\Users\jo\AppData\Local\Temp\cc0tY1bm.s 			page 30


 1647              	.LBE336:
 1648              	.LBE335:
 1649              		.loc 1 368 0
 1650 01da 474B     		ldr	r3, .L190+112
 1651 01dc 474F     		ldr	r7, .L190+116
 1652              	.LVL176:
 1653 01de 1868     		ldr	r0, [r3]
 1654 01e0 FFF7FEFF 		bl	test_printn
 1655              	.LVL177:
 1656 01e4 2021     		movs	r1, #32
 1657              	.LVL178:
 1658              	.L134:
 1659              	.LBB337:
 1660              	.LBB338:
 1661              		.loc 1 113 0
 1662 01e6 2068     		ldr	r0, [r4]
 1663 01e8 0368     		ldr	r3, [r0]
 1664 01ea 9B68     		ldr	r3, [r3, #8]
 1665 01ec 9847     		blx	r3
 1666              	.LVL179:
 1667              		.loc 1 112 0
 1668 01ee 17F8011F 		ldrb	r1, [r7, #1]!	@ zero_extendqisi2
 1669              	.LVL180:
 1670 01f2 0029     		cmp	r1, #0
 1671 01f4 F7D1     		bne	.L134
 1672              	.LVL181:
 1673              	.LBE338:
 1674              	.LBE337:
 1675              	.LBB339:
 1676              	.LBB315:
 1677              		.loc 1 138 0
 1678 01f6 2B68     		ldr	r3, [r5]
 1679 01f8 5345     		cmp	r3, r10
 1680 01fa 09D9     		bls	.L137
 1681 01fc 404F     		ldr	r7, .L190+120
 1682              	.LVL182:
 1683              	.L135:
 1684              		.loc 1 139 0
 1685 01fe 2068     		ldr	r0, [r4]
 1686 0200 17F8011B 		ldrb	r1, [r7], #1	@ zero_extendqisi2
 1687              	.LVL183:
 1688 0204 0368     		ldr	r3, [r0]
 1689 0206 9B68     		ldr	r3, [r3, #8]
 1690 0208 9847     		blx	r3
 1691              	.LVL184:
 1692              		.loc 1 138 0
 1693 020a 2B68     		ldr	r3, [r5]
 1694 020c 9F42     		cmp	r7, r3
 1695 020e F6D3     		bcc	.L135
 1696              	.LVL185:
 1697              	.L137:
 1698              	.LBE315:
 1699              	.LBE339:
 1700              		.loc 1 371 0
 1701 0210 3C48     		ldr	r0, .L190+124
 1702 0212 FFF7FEFF 		bl	test_println
 1703              	.LVL186:
ARM GAS  C:\Users\jo\AppData\Local\Temp\cc0tY1bm.s 			page 31


 1704 0216 019B     		ldr	r3, [sp, #4]
 1705 0218 D3F80080 		ldr	r8, [r3]
 1706              	.LVL187:
 1707              		.loc 1 353 0
 1708 021c 58F82630 		ldr	r3, [r8, r6, lsl #2]
 1709 0220 08EB8607 		add	r7, r8, r6, lsl #2
 1710 0224 002B     		cmp	r3, #0
 1711 0226 7FF479AF 		bne	.L138
 1712              	.LVL188:
 1713              	.L188:
 1714              		.loc 1 351 0
 1715 022a 019B     		ldr	r3, [sp, #4]
 1716 022c 53F8048F 		ldr	r8, [r3, #4]!
 1717 0230 0193     		str	r3, [sp, #4]
 1718 0232 B8F1000F 		cmp	r8, #0
 1719 0236 7FF466AF 		bne	.L144
 1720              		.loc 1 379 0
 1721 023a FFF7FEFF 		bl	print_line
 1722              	.LVL189:
 1723              		.loc 1 380 0
 1724 023e 324D     		ldr	r5, .L190+128
 1725 0240 1348     		ldr	r0, .L190+8
 1726 0242 FFF7FEFF 		bl	test_println
 1727              	.LVL190:
 1728 0246 4621     		movs	r1, #70
 1729              	.LVL191:
 1730              	.L141:
 1731              	.LBB340:
 1732              	.LBB341:
 1733              		.loc 1 113 0
 1734 0248 2068     		ldr	r0, [r4]
 1735 024a 0368     		ldr	r3, [r0]
 1736 024c 9B68     		ldr	r3, [r3, #8]
 1737 024e 9847     		blx	r3
 1738              	.LVL192:
 1739              		.loc 1 112 0
 1740 0250 15F8011F 		ldrb	r1, [r5, #1]!	@ zero_extendqisi2
 1741              	.LVL193:
 1742 0254 0029     		cmp	r1, #0
 1743 0256 F7D1     		bne	.L141
 1744              	.LBE341:
 1745              	.LBE340:
 1746              		.loc 1 382 0
 1747 0258 204B     		ldr	r3, .L190+84
 1748 025a 1B78     		ldrb	r3, [r3]	@ zero_extendqisi2
 1749 025c 5BB9     		cbnz	r3, .L189
 1750              		.loc 1 385 0
 1751 025e 2B48     		ldr	r0, .L190+132
 1752 0260 FFF7FEFF 		bl	test_println
 1753              	.LVL194:
 1754              		.loc 1 387 0
 1755 0264 1D4B     		ldr	r3, .L190+84
 1756 0266 1878     		ldrb	r0, [r3]	@ zero_extendqisi2
 1757              		.loc 1 388 0
 1758 0268 03B0     		add	sp, sp, #12
 1759              		.cfi_remember_state
 1760              		.cfi_def_cfa_offset 36
ARM GAS  C:\Users\jo\AppData\Local\Temp\cc0tY1bm.s 			page 32


 1761              	.LVL195:
 1762              		@ sp needed
 1763 026a BDE8F08F 		pop	{r4, r5, r6, r7, r8, r9, r10, fp, pc}
 1764              	.LVL196:
 1765              	.L131:
 1766              		.cfi_restore_state
 1767              		.loc 1 374 0
 1768 026e 2848     		ldr	r0, .L190+136
 1769 0270 FFF7FEFF 		bl	test_println
 1770              	.LVL197:
 1771 0274 4BE7     		b	.L140
 1772              	.LVL198:
 1773              	.L189:
 1774              		.loc 1 383 0
 1775 0276 2748     		ldr	r0, .L190+140
 1776 0278 FFF7FEFF 		bl	test_println
 1777              	.LVL199:
 1778              		.loc 1 387 0
 1779 027c 174B     		ldr	r3, .L190+84
 1780 027e 1878     		ldrb	r0, [r3]	@ zero_extendqisi2
 1781              		.loc 1 388 0
 1782 0280 03B0     		add	sp, sp, #12
 1783              		.cfi_def_cfa_offset 36
 1784              	.LVL200:
 1785              		@ sp needed
 1786 0282 BDE8F08F 		pop	{r4, r5, r6, r7, r8, r9, r10, fp, pc}
 1787              	.LVL201:
 1788              	.L191:
 1789 0286 00BF     		.align	2
 1790              	.L190:
 1791 0288 00000000 		.word	.LANCHOR1
 1792 028c 2C000000 		.word	.LC2
 1793 0290 0C010000 		.word	.LC15
 1794 0294 10010000 		.word	.LC16
 1795 0298 2C010000 		.word	.LC17
 1796 029c 5C010000 		.word	.LC23
 1797 02a0 40000000 		.word	.LC3
 1798 02a4 68010000 		.word	.LC24
 1799 02a8 54000000 		.word	.LC4
 1800 02ac 80010000 		.word	.LC25
 1801 02b0 68000000 		.word	.LC5
 1802 02b4 C8010000 		.word	.LC26
 1803 02b8 7C000000 		.word	.LC6
 1804 02bc D4010000 		.word	.LC27
 1805 02c0 90000000 		.word	.LC7
 1806 02c4 E0010000 		.word	.LC28
 1807 02c8 A4000000 		.word	.LC8
 1808 02cc F8010000 		.word	.LC29
 1809 02d0 B8000000 		.word	.LC9
 1810 02d4 00000000 		.word	.LANCHOR10
 1811 02d8 24020000 		.word	.LC30
 1812 02dc 00000000 		.word	.LANCHOR5
 1813 02e0 CC000000 		.word	.LC10
 1814 02e4 DC000000 		.word	.LC11
 1815 02e8 30010000 		.word	.LC18
 1816 02ec 00000000 		.word	.LANCHOR2
 1817 02f0 00000000 		.word	.LANCHOR8
ARM GAS  C:\Users\jo\AppData\Local\Temp\cc0tY1bm.s 			page 33


 1818 02f4 E0000000 		.word	.LC12
 1819 02f8 00000000 		.word	.LANCHOR6
 1820 02fc F8000000 		.word	.LC13
 1821 0300 00000000 		.word	.LANCHOR7
 1822 0304 34010000 		.word	.LC19
 1823 0308 FC000000 		.word	.LC14
 1824 030c 54010000 		.word	.LC22
 1825 0310 38010000 		.word	.LC20
 1826 0314 4C010000 		.word	.LC21
 1827 0318 00000000 		.word	patternthd
 1828 031c 00000000 		.word	.LANCHOR4
 1829              		.cfi_endproc
 1830              	.LFE272:
 1831              		.size	TestThread, .-TestThread
 1832              		.global	test_timer_done
 1833              		.global	wa
 1834              		.global	threads
 1835              		.global	test
 1836              		.section	.bss.test,"aw",%nobits
 1837              		.align	3
 1838              		.type	test, %object
 1839              		.size	test, 1800
 1840              	test:
 1841 0000 00000000 		.space	1800
 1841      00000000 
 1841      00000000 
 1841      00000000 
 1841      00000000 
 1842              		.section	.bss.failpoint,"aw",%nobits
 1843              		.align	2
 1844              		.set	.LANCHOR6,. + 0
 1845              		.type	failpoint, %object
 1846              		.size	failpoint, 4
 1847              	failpoint:
 1848 0000 00000000 		.space	4
 1849              		.section	.bss.local_fail,"aw",%nobits
 1850              		.set	.LANCHOR4,. + 0
 1851              		.type	local_fail, %object
 1852              		.size	local_fail, 1
 1853              	local_fail:
 1854 0000 00       		.space	1
 1855              		.section	.bss.test_timer_done,"aw",%nobits
 1856              		.set	.LANCHOR0,. + 0
 1857              		.type	test_timer_done, %object
 1858              		.size	test_timer_done, 1
 1859              	test_timer_done:
 1860 0000 00       		.space	1
 1861              		.section	.rodata.wa,"a",%progbits
 1862              		.align	2
 1863              		.type	wa, %object
 1864              		.size	wa, 20
 1865              	wa:
 1866 0000 00000000 		.word	test
 1867 0004 68010000 		.word	test+360
 1868 0008 D0020000 		.word	test+720
 1869 000c 38040000 		.word	test+1080
 1870 0010 A0050000 		.word	test+1440
ARM GAS  C:\Users\jo\AppData\Local\Temp\cc0tY1bm.s 			page 34


 1871              		.section	.bss.tokp,"aw",%nobits
 1872              		.align	2
 1873              		.set	.LANCHOR2,. + 0
 1874              		.type	tokp, %object
 1875              		.size	tokp, 4
 1876              	tokp:
 1877 0000 00000000 		.space	4
 1878              		.section	.bss.global_fail,"aw",%nobits
 1879              		.set	.LANCHOR5,. + 0
 1880              		.type	global_fail, %object
 1881              		.size	global_fail, 1
 1882              	global_fail:
 1883 0000 00       		.space	1
 1884              		.section	.rodata.str1.4,"aMS",%progbits,1
 1885              		.align	2
 1886              	.LC0:
 1887 0000 0D0A00   		.ascii	"\015\012\000"
 1888 0003 00       		.space	1
 1889              	.LC1:
 1890 0004 7072696F 		.ascii	"priority violation, missing reschedule\000"
 1890      72697479 
 1890      2076696F 
 1890      6C617469 
 1890      6F6E2C20 
 1891 002b 00       		.space	1
 1892              	.LC2:
 1893 002c 2A2A2A20 		.ascii	"*** Kernel:       \000"
 1893      4B65726E 
 1893      656C3A20 
 1893      20202020 
 1893      202000
 1894 003f 00       		.space	1
 1895              	.LC3:
 1896 0040 2A2A2A20 		.ascii	"*** Compiled:     \000"
 1896      436F6D70 
 1896      696C6564 
 1896      3A202020 
 1896      202000
 1897 0053 00       		.space	1
 1898              	.LC4:
 1899 0054 2A2A2A20 		.ascii	"*** Compiler:     \000"
 1899      436F6D70 
 1899      696C6572 
 1899      3A202020 
 1899      202000
 1900 0067 00       		.space	1
 1901              	.LC5:
 1902 0068 2A2A2A20 		.ascii	"*** Architecture: \000"
 1902      41726368 
 1902      69746563 
 1902      74757265 
 1902      3A2000
 1903 007b 00       		.space	1
 1904              	.LC6:
 1905 007c 2A2A2A20 		.ascii	"*** Core Variant: \000"
 1905      436F7265 
 1905      20566172 
ARM GAS  C:\Users\jo\AppData\Local\Temp\cc0tY1bm.s 			page 35


 1905      69616E74 
 1905      3A2000
 1906 008f 00       		.space	1
 1907              	.LC7:
 1908 0090 2A2A2A20 		.ascii	"*** Port Info:    \000"
 1908      506F7274 
 1908      20496E66 
 1908      6F3A2020 
 1908      202000
 1909 00a3 00       		.space	1
 1910              	.LC8:
 1911 00a4 2A2A2A20 		.ascii	"*** Platform:     \000"
 1911      506C6174 
 1911      666F726D 
 1911      3A202020 
 1911      202000
 1912 00b7 00       		.space	1
 1913              	.LC9:
 1914 00b8 2A2A2A20 		.ascii	"*** Test Board:   \000"
 1914      54657374 
 1914      20426F61 
 1914      72643A20 
 1914      202000
 1915 00cb 00       		.space	1
 1916              	.LC10:
 1917 00cc 2D2D2D20 		.ascii	"--- Test Case \000"
 1917      54657374 
 1917      20436173 
 1917      652000
 1918 00db 00       		.space	1
 1919              	.LC11:
 1920 00dc 202800   		.ascii	" (\000"
 1921 00df 00       		.space	1
 1922              	.LC12:
 1923 00e0 2D2D2D20 		.ascii	"--- Result: FAILURE (#\000"
 1923      52657375 
 1923      6C743A20 
 1923      4641494C 
 1923      55524520 
 1924 00f7 00       		.space	1
 1925              	.LC13:
 1926 00f8 205B00   		.ascii	" [\000"
 1927 00fb 00       		.space	1
 1928              	.LC14:
 1929 00fc 46696E61 		.ascii	"Final result: \000"
 1929      6C207265 
 1929      73756C74 
 1929      3A2000
 1930 010b 00       		.space	1
 1931              	.LC15:
 1932 010c 00       		.ascii	"\000"
 1933 010d 000000   		.space	3
 1934              	.LC16:
 1935 0110 2A2A2A20 		.ascii	"*** ChibiOS/RT test suite\000"
 1935      43686962 
 1935      694F532F 
 1935      52542074 
ARM GAS  C:\Users\jo\AppData\Local\Temp\cc0tY1bm.s 			page 36


 1935      65737420 
 1936 012a 0000     		.space	2
 1937              	.LC17:
 1938 012c 2A2A2A00 		.ascii	"***\000"
 1939              	.LC18:
 1940 0130 2900     		.ascii	")\000"
 1941 0132 0000     		.space	2
 1942              	.LC19:
 1943 0134 5D2900   		.ascii	"])\000"
 1944 0137 00       		.space	1
 1945              	.LC20:
 1946 0138 2D2D2D20 		.ascii	"--- Result: SUCCESS\000"
 1946      52657375 
 1946      6C743A20 
 1946      53554343 
 1946      45535300 
 1947              	.LC21:
 1948 014c 4641494C 		.ascii	"FAILURE\000"
 1948      55524500 
 1949              	.LC22:
 1950 0154 53554343 		.ascii	"SUCCESS\000"
 1950      45535300 
 1951              	.LC23:
 1952 015c 332E302E 		.ascii	"3.0.0dev\000"
 1952      30646576 
 1952      00
 1953 0165 000000   		.space	3
 1954              	.LC24:
 1955 0168 4A756E20 		.ascii	"Jun 25 2015 - 15:23:14\000"
 1955      32352032 
 1955      30313520 
 1955      2D203135 
 1955      3A32333A 
 1956 017f 00       		.space	1
 1957              	.LC25:
 1958 0180 47434320 		.ascii	"GCC 4.9.3 20141119 (release) [ARM/embedded-4_9-bran"
 1958      342E392E 
 1958      33203230 
 1958      31343131 
 1958      31392028 
 1959 01b3 63682072 		.ascii	"ch revision 218278]\000"
 1959      65766973 
 1959      696F6E20 
 1959      32313832 
 1959      37385D00 
 1960 01c7 00       		.space	1
 1961              	.LC26:
 1962 01c8 41524D76 		.ascii	"ARMv7-ME\000"
 1962      372D4D45 
 1962      00
 1963 01d1 000000   		.space	3
 1964              	.LC27:
 1965 01d4 436F7274 		.ascii	"Cortex-M4\000"
 1965      65782D4D 
 1965      3400
 1966 01de 0000     		.space	2
 1967              	.LC28:
ARM GAS  C:\Users\jo\AppData\Local\Temp\cc0tY1bm.s 			page 37


 1968 01e0 41647661 		.ascii	"Advanced kernel mode\000"
 1968      6E636564 
 1968      206B6572 
 1968      6E656C20 
 1968      6D6F6465 
 1969 01f5 000000   		.space	3
 1970              	.LC29:
 1971 01f8 53544D33 		.ascii	"STM32F407 High Performance with DSP and FPU\000"
 1971      32463430 
 1971      37204869 
 1971      67682050 
 1971      6572666F 
 1972              	.LC30:
 1973 0224 53544D69 		.ascii	"STMicroelectronics STM32F4-Discovery\000"
 1973      63726F65 
 1973      6C656374 
 1973      726F6E69 
 1973      63732053 
 1974 0249 000000   		.section	.bss.vt,"aw",%nobits
 1975              		.align	2
 1976              		.set	.LANCHOR9,. + 0
 1977              		.type	vt, %object
 1978              		.size	vt, 20
 1979              	vt:
 1980 0000 00000000 		.space	20
 1980      00000000 
 1980      00000000 
 1980      00000000 
 1980      00000000 
 1981              		.section	.bss.threads,"aw",%nobits
 1982              		.align	2
 1983              		.set	.LANCHOR8,. + 0
 1984              		.type	threads, %object
 1985              		.size	threads, 20
 1986              	threads:
 1987 0000 00000000 		.space	20
 1987      00000000 
 1987      00000000 
 1987      00000000 
 1987      00000000 
 1988              		.section	.rodata.__func__.6751,"a",%progbits
 1989              		.align	2
 1990              		.set	.LANCHOR3,. + 0
 1991              		.type	__func__.6751, %object
 1992              		.size	__func__.6751, 12
 1993              	__func__.6751:
 1994 0000 63685379 		.ascii	"chSysUnlock\000"
 1994      73556E6C 
 1994      6F636B00 
 1995              		.section	.rodata.patterns,"a",%progbits
 1996              		.align	2
 1997              		.set	.LANCHOR10,. + 0
 1998              		.type	patterns, %object
 1999              		.size	patterns, 48
 2000              	patterns:
 2001 0000 00000000 		.word	patternthd
 2002 0004 00000000 		.word	patternsem
ARM GAS  C:\Users\jo\AppData\Local\Temp\cc0tY1bm.s 			page 38


 2003 0008 00000000 		.word	patternmtx
 2004 000c 00000000 		.word	patternmsg
 2005 0010 00000000 		.word	patternmbox
 2006 0014 00000000 		.word	patternevt
 2007 0018 00000000 		.word	patternheap
 2008 001c 00000000 		.word	patternpools
 2009 0020 00000000 		.word	patterndyn
 2010 0024 00000000 		.word	patternqueues
 2011 0028 00000000 		.word	patternbmk
 2012 002c 00000000 		.word	0
 2013              		.section	.bss.chp,"aw",%nobits
 2014              		.align	2
 2015              		.set	.LANCHOR1,. + 0
 2016              		.type	chp, %object
 2017              		.size	chp, 4
 2018              	chp:
 2019 0000 00000000 		.space	4
 2020              		.section	.bss.tokens_buffer,"aw",%nobits
 2021              		.align	2
 2022              		.set	.LANCHOR7,. + 0
 2023              		.type	tokens_buffer, %object
 2024              		.size	tokens_buffer, 16
 2025              	tokens_buffer:
 2026 0000 00000000 		.space	16
 2026      00000000 
 2026      00000000 
 2026      00000000 
 2027              		.text
 2028              	.Letext0:
 2029              		.file 6 "c:\\program files\\gnu tools arm embedded\\4.9 2014q4\\lib\\gcc\\arm-none-eabi\\4.9.3\\in
 2030              		.file 7 "c:\\program files\\gnu tools arm embedded\\4.9 2014q4\\arm-none-eabi\\include\\machine\\_
 2031              		.file 8 "c:\\program files\\gnu tools arm embedded\\4.9 2014q4\\arm-none-eabi\\include\\stdint.h"
 2032              		.file 9 "../../../os/rt/ports/ARMCMx/compilers/GCC/chtypes.h"
 2033              		.file 10 "../../../os/rt/include/chsystypes.h"
 2034              		.file 11 "../../../os/rt/include/chschd.h"
 2035              		.file 12 "../../../os/rt/ports/ARMCMx/chcore.h"
 2036              		.file 13 "../../../os/rt/ports/ARMCMx/chcore_v7m.h"
 2037              		.file 14 "../../../os/hal/ports/STM32/LLD/TIMv1/stm32_tim.h"
 2038              		.file 15 "../../../os/rt/include/chdebug.h"
 2039              		.file 16 "../../../os/rt/include/chtm.h"
 2040              		.file 17 "../../../os/rt/include/chstats.h"
 2041              		.file 18 "../../../os/rt/include/chmtx.h"
 2042              		.file 19 "../../../os/rt/include/chstreams.h"
 2043              		.file 20 "../../../test/rt/test.h"
 2044              		.file 21 "../../../os/rt/ports/ARMCMx/chcore_timer.h"
 2045              		.file 22 "../../../os/ext/CMSIS/include/core_cm4.h"
 2046              		.file 23 "../../../test/rt/testthd.h"
 2047              		.file 24 "../../../test/rt/testsem.h"
 2048              		.file 25 "../../../test/rt/testmtx.h"
 2049              		.file 26 "../../../test/rt/testmsg.h"
 2050              		.file 27 "../../../test/rt/testmbox.h"
 2051              		.file 28 "../../../test/rt/testevt.h"
 2052              		.file 29 "../../../test/rt/testheap.h"
 2053              		.file 30 "../../../test/rt/testpools.h"
 2054              		.file 31 "../../../test/rt/testdyn.h"
 2055              		.file 32 "../../../test/rt/testqueues.h"
 2056              		.file 33 "../../../test/rt/testbmk.h"
ARM GAS  C:\Users\jo\AppData\Local\Temp\cc0tY1bm.s 			page 39


 2057              		.file 34 "../../../os/rt/include/chthreads.h"
 2058              		.file 35 "<built-in>"