ARM GAS  C:\Users\jo\AppData\Local\Temp\ccRjY7xX.s 			page 1


   1              		.syntax unified
   2              		.cpu cortex-m4
   3              		.fpu softvfp
   4              		.eabi_attribute 20, 1
   5              		.eabi_attribute 21, 1
   6              		.eabi_attribute 23, 3
   7              		.eabi_attribute 24, 1
   8              		.eabi_attribute 25, 1
   9              		.eabi_attribute 26, 1
  10              		.eabi_attribute 30, 2
  11              		.eabi_attribute 34, 1
  12              		.eabi_attribute 18, 4
  13              		.thumb
  14              		.file	"testpools.c"
  15              		.text
  16              	.Ltext0:
  17              		.cfi_sections	.debug_frame
  18              		.section	.text.null_provider,"ax",%progbits
  19              		.align	2
  20              		.p2align 4,,15
  21              		.thumb
  22              		.thumb_func
  23              		.type	null_provider, %function
  24              	null_provider:
  25              	.LFB226:
  26              		.file 1 "../../../test/rt/testpools.c"
  27              		.loc 1 60 0
  28              		.cfi_startproc
  29              		@ args = 0, pretend = 0, frame = 0
  30              		@ frame_needed = 0, uses_anonymous_args = 0
  31              		@ link register save eliminated.
  32              	.LVL0:
  33              		.loc 1 64 0
  34 0000 0020     		movs	r0, #0
  35              	.LVL1:
  36 0002 7047     		bx	lr
  37              		.cfi_endproc
  38              	.LFE226:
  39              		.size	null_provider, .-null_provider
  40 0004 AFF30080 		.section	.text.pools1_setup,"ax",%progbits
  40      AFF30080 
  40      AFF30080 
  41              		.align	2
  42              		.p2align 4,,15
  43              		.thumb
  44              		.thumb_func
  45              		.type	pools1_setup, %function
  46              	pools1_setup:
  47              	.LFB227:
  48              		.loc 1 66 0
  49              		.cfi_startproc
  50              		@ args = 0, pretend = 0, frame = 0
  51              		@ frame_needed = 0, uses_anonymous_args = 0
  52              		@ link register save eliminated.
  53              		.loc 1 68 0
  54 0000 0248     		ldr	r0, .L3
  55 0002 4FF4B471 		mov	r1, #360
ARM GAS  C:\Users\jo\AppData\Local\Temp\ccRjY7xX.s 			page 2


  56 0006 0022     		movs	r2, #0
  57 0008 FFF7FEBF 		b	chPoolObjectInit
  58              	.LVL2:
  59              	.L4:
  60              		.align	2
  61              	.L3:
  62 000c 00000000 		.word	.LANCHOR0
  63              		.cfi_endproc
  64              	.LFE227:
  65              		.size	pools1_setup, .-pools1_setup
  66              		.section	.text.pools1_execute,"ax",%progbits
  67              		.align	2
  68              		.p2align 4,,15
  69              		.thumb
  70              		.thumb_func
  71              		.type	pools1_execute, %function
  72              	pools1_execute:
  73              	.LFB228:
  74              		.loc 1 71 0
  75              		.cfi_startproc
  76              		@ args = 0, pretend = 0, frame = 0
  77              		@ frame_needed = 0, uses_anonymous_args = 0
  78 0000 38B5     		push	{r3, r4, r5, lr}
  79              		.cfi_def_cfa_offset 16
  80              		.cfi_offset 3, -16
  81              		.cfi_offset 4, -12
  82              		.cfi_offset 5, -8
  83              		.cfi_offset 14, -4
  84              		.loc 1 75 0
  85 0002 2B4B     		ldr	r3, .L19
  86 0004 2B48     		ldr	r0, .L19+4
  87 0006 1D68     		ldr	r5, [r3]
  88 0008 0522     		movs	r2, #5
  89 000a 2946     		mov	r1, r5
  90 000c FFF7FEFF 		bl	chPoolLoadArray
  91              	.LVL3:
  92 0010 0524     		movs	r4, #5
  93              	.LVL4:
  94              	.L8:
  95              		.loc 1 79 0
  96 0012 2848     		ldr	r0, .L19+4
  97 0014 FFF7FEFF 		bl	chPoolAlloc
  98              	.LVL5:
  99 0018 011C     		adds	r1, r0, #0
 100 001a 18BF     		it	ne
 101 001c 0121     		movne	r1, #1
 102 001e 0120     		movs	r0, #1
 103 0020 FFF7FEFF 		bl	_test_assert
 104              	.LVL6:
 105 0024 90BB     		cbnz	r0, .L5
 106              		.loc 1 78 0 discriminator 2
 107 0026 013C     		subs	r4, r4, #1
 108              	.LVL7:
 109 0028 F3D1     		bne	.L8
 110              		.loc 1 82 0
 111 002a 2248     		ldr	r0, .L19+4
 112 002c FFF7FEFF 		bl	chPoolAlloc
ARM GAS  C:\Users\jo\AppData\Local\Temp\ccRjY7xX.s 			page 3


 113              	.LVL8:
 114 0030 B0FA80F1 		clz	r1, r0
 115 0034 0220     		movs	r0, #2
 116 0036 4909     		lsrs	r1, r1, #5
 117 0038 FFF7FEFF 		bl	_test_assert
 118              	.LVL9:
 119 003c 30BB     		cbnz	r0, .L5
 120 003e 1C4C     		ldr	r4, .L19
 121              	.LVL10:
 122              	.LBB4:
 123              	.LBB5:
 124              		.loc 1 86 0
 125 0040 1C48     		ldr	r0, .L19+4
 126              	.LBE5:
 127              	.LBE4:
 128              		.loc 1 82 0
 129 0042 2946     		mov	r1, r5
 130 0044 04F11005 		add	r5, r4, #16
 131              	.LBB8:
 132              	.LBB6:
 133              		.loc 1 86 0
 134 0048 FFF7FEFF 		bl	chPoolFree
 135              	.LVL11:
 136              		.loc 1 85 0
 137 004c AC42     		cmp	r4, r5
 138 004e 06D0     		beq	.L12
 139              	.L17:
 140 0050 54F8041F 		ldr	r1, [r4, #4]!
 141              		.loc 1 86 0
 142 0054 1748     		ldr	r0, .L19+4
 143 0056 FFF7FEFF 		bl	chPoolFree
 144              	.LVL12:
 145              		.loc 1 85 0
 146 005a AC42     		cmp	r4, r5
 147 005c F8D1     		bne	.L17
 148              	.L12:
 149 005e 0524     		movs	r4, #5
 150              	.L10:
 151              	.LVL13:
 152              		.loc 1 90 0
 153 0060 1448     		ldr	r0, .L19+4
 154 0062 FFF7FEFF 		bl	chPoolAlloc
 155              	.LVL14:
 156 0066 011C     		adds	r1, r0, #0
 157 0068 18BF     		it	ne
 158 006a 0121     		movne	r1, #1
 159 006c 0320     		movs	r0, #3
 160 006e FFF7FEFF 		bl	_test_assert
 161              	.LVL15:
 162 0072 58B9     		cbnz	r0, .L5
 163              		.loc 1 89 0
 164 0074 013C     		subs	r4, r4, #1
 165              	.LVL16:
 166 0076 F3D1     		bne	.L10
 167              		.loc 1 93 0
 168 0078 0E48     		ldr	r0, .L19+4
 169 007a FFF7FEFF 		bl	chPoolAlloc
ARM GAS  C:\Users\jo\AppData\Local\Temp\ccRjY7xX.s 			page 4


 170              	.LVL17:
 171 007e B0FA80F1 		clz	r1, r0
 172 0082 0420     		movs	r0, #4
 173 0084 4909     		lsrs	r1, r1, #5
 174 0086 FFF7FEFF 		bl	_test_assert
 175              	.LVL18:
 176 008a 00B1     		cbz	r0, .L18
 177              	.LVL19:
 178              	.L5:
 179 008c 38BD     		pop	{r3, r4, r5, pc}
 180              	.LVL20:
 181              	.L18:
 182              		.loc 1 96 0
 183 008e 1021     		movs	r1, #16
 184 0090 0848     		ldr	r0, .L19+4
 185 0092 094A     		ldr	r2, .L19+8
 186 0094 FFF7FEFF 		bl	chPoolObjectInit
 187              	.LVL21:
 188              		.loc 1 97 0
 189 0098 0648     		ldr	r0, .L19+4
 190 009a FFF7FEFF 		bl	chPoolAlloc
 191              	.LVL22:
 192              	.LBE6:
 193              	.LBE8:
 194              		.loc 1 98 0
 195 009e BDE83840 		pop	{r3, r4, r5, lr}
 196              		.cfi_restore 14
 197              		.cfi_restore 5
 198              		.cfi_restore 4
 199              		.cfi_restore 3
 200              		.cfi_def_cfa_offset 0
 201              	.LVL23:
 202              	.LBB9:
 203              	.LBB7:
 204              		.loc 1 97 0
 205 00a2 B0FA80F1 		clz	r1, r0
 206 00a6 0520     		movs	r0, #5
 207 00a8 4909     		lsrs	r1, r1, #5
 208 00aa FFF7FEBF 		b	_test_assert
 209              	.LVL24:
 210              	.L20:
 211 00ae 00BF     		.align	2
 212              	.L19:
 213 00b0 00000000 		.word	wa
 214 00b4 00000000 		.word	.LANCHOR0
 215 00b8 00000000 		.word	null_provider
 216              	.LBE7:
 217              	.LBE9:
 218              		.cfi_endproc
 219              	.LFE228:
 220              		.size	pools1_execute, .-pools1_execute
 221              		.global	patternpools
 222              		.global	testpools1
 223 00bc AFF30080 		.section	.rodata.str1.4,"aMS",%progbits,1
 224              		.align	2
 225              	.LC0:
 226 0000 4D656D6F 		.ascii	"Memory Pools, queue/dequeue\000"
ARM GAS  C:\Users\jo\AppData\Local\Temp\ccRjY7xX.s 			page 5


 226      72792050 
 226      6F6F6C73 
 226      2C207175 
 226      6575652F 
 227              		.section	.rodata.patternpools,"a",%progbits
 228              		.align	2
 229              		.type	patternpools, %object
 230              		.size	patternpools, 8
 231              	patternpools:
 232 0000 00000000 		.word	testpools1
 233 0004 00000000 		.word	0
 234              		.section	.data.mp1,"aw",%progbits
 235              		.align	2
 236              		.set	.LANCHOR0,. + 0
 237              		.type	mp1, %object
 238              		.size	mp1, 12
 239              	mp1:
 240 0000 00000000 		.word	0
 241 0004 68010000 		.word	360
 242 0008 00000000 		.word	0
 243              		.section	.rodata.testpools1,"a",%progbits
 244              		.align	2
 245              		.type	testpools1, %object
 246              		.size	testpools1, 16
 247              	testpools1:
 248 0000 00000000 		.word	.LC0
 249 0004 00000000 		.word	pools1_setup
 250 0008 00000000 		.word	0
 251 000c 00000000 		.word	pools1_execute
 252              		.text
 253              	.Letext0:
 254              		.file 2 "c:\\program files\\gnu tools arm embedded\\4.9 2014q4\\lib\\gcc\\arm-none-eabi\\4.9.3\\in
 255              		.file 3 "c:\\program files\\gnu tools arm embedded\\4.9 2014q4\\arm-none-eabi\\include\\machine\\_
 256              		.file 4 "c:\\program files\\gnu tools arm embedded\\4.9 2014q4\\arm-none-eabi\\include\\stdint.h"
 257              		.file 5 "../../../os/rt/ports/ARMCMx/compilers/GCC/chtypes.h"
 258              		.file 6 "../../../os/rt/include/chsystypes.h"
 259              		.file 7 "../../../os/rt/include/chschd.h"
 260              		.file 8 "../../../os/rt/ports/ARMCMx/chcore.h"
 261              		.file 9 "../../../os/rt/ports/ARMCMx/chcore_v7m.h"
 262              		.file 10 "../../../os/rt/include/chdebug.h"
 263              		.file 11 "../../../os/rt/include/chtm.h"
 264              		.file 12 "../../../os/rt/include/chstats.h"
 265              		.file 13 "../../../os/rt/include/chmtx.h"
 266              		.file 14 "../../../os/rt/include/chmemcore.h"
 267              		.file 15 "../../../os/rt/include/chmempools.h"
 268              		.file 16 "../../../test/rt/test.h"
 269              		.file 17 "../../../os/ext/CMSIS/include/core_cm4.h"
 270              		.section	.debug_info,"",%progbits
 271              	.Ldebug_info0:
 272 0000 020B0000 		.4byte	0xb02
 273 0004 0400     		.2byte	0x4
 274 0006 00000000 		.4byte	.Ldebug_abbrev0
 275 000a 04       		.byte	0x4
 276 000b 01       		.uleb128 0x1
 277 000c F3020000 		.4byte	.LASF142
 278 0010 01       		.byte	0x1
 279 0011 B0060000 		.4byte	.LASF143
ARM GAS  C:\Users\jo\AppData\Local\Temp\ccRjY7xX.s 			page 6


 280 0015 08010000 		.4byte	.LASF144
 281 0019 20000000 		.4byte	.Ldebug_ranges0+0x20
 282 001d 00000000 		.4byte	0
 283 0021 00000000 		.4byte	.Ldebug_line0
 284 0025 02       		.uleb128 0x2
 285 0026 04       		.byte	0x4
 286 0027 05       		.byte	0x5
 287 0028 696E7400 		.ascii	"int\000"
 288 002c 03       		.uleb128 0x3
 289 002d 1C000000 		.4byte	.LASF2
 290 0031 02       		.byte	0x2
 291 0032 D4       		.byte	0xd4
 292 0033 37000000 		.4byte	0x37
 293 0037 04       		.uleb128 0x4
 294 0038 04       		.byte	0x4
 295 0039 07       		.byte	0x7
 296 003a 1F020000 		.4byte	.LASF0
 297 003e 04       		.uleb128 0x4
 298 003f 01       		.byte	0x1
 299 0040 06       		.byte	0x6
 300 0041 64010000 		.4byte	.LASF1
 301 0045 03       		.uleb128 0x3
 302 0046 40000000 		.4byte	.LASF3
 303 004a 03       		.byte	0x3
 304 004b 1D       		.byte	0x1d
 305 004c 50000000 		.4byte	0x50
 306 0050 04       		.uleb128 0x4
 307 0051 01       		.byte	0x1
 308 0052 08       		.byte	0x8
 309 0053 EB040000 		.4byte	.LASF4
 310 0057 04       		.uleb128 0x4
 311 0058 02       		.byte	0x2
 312 0059 05       		.byte	0x5
 313 005a 03050000 		.4byte	.LASF5
 314 005e 04       		.uleb128 0x4
 315 005f 02       		.byte	0x2
 316 0060 07       		.byte	0x7
 317 0061 61020000 		.4byte	.LASF6
 318 0065 03       		.uleb128 0x3
 319 0066 E9020000 		.4byte	.LASF7
 320 006a 03       		.byte	0x3
 321 006b 3F       		.byte	0x3f
 322 006c 70000000 		.4byte	0x70
 323 0070 04       		.uleb128 0x4
 324 0071 04       		.byte	0x4
 325 0072 05       		.byte	0x5
 326 0073 91010000 		.4byte	.LASF8
 327 0077 03       		.uleb128 0x3
 328 0078 E3050000 		.4byte	.LASF9
 329 007c 03       		.byte	0x3
 330 007d 41       		.byte	0x41
 331 007e 82000000 		.4byte	0x82
 332 0082 04       		.uleb128 0x4
 333 0083 04       		.byte	0x4
 334 0084 07       		.byte	0x7
 335 0085 8C050000 		.4byte	.LASF10
 336 0089 04       		.uleb128 0x4
ARM GAS  C:\Users\jo\AppData\Local\Temp\ccRjY7xX.s 			page 7


 337 008a 08       		.byte	0x8
 338 008b 05       		.byte	0x5
 339 008c 56010000 		.4byte	.LASF11
 340 0090 03       		.uleb128 0x3
 341 0091 78040000 		.4byte	.LASF12
 342 0095 03       		.byte	0x3
 343 0096 5B       		.byte	0x5b
 344 0097 9B000000 		.4byte	0x9b
 345 009b 04       		.uleb128 0x4
 346 009c 08       		.byte	0x8
 347 009d 07       		.byte	0x7
 348 009e 8F000000 		.4byte	.LASF13
 349 00a2 03       		.uleb128 0x3
 350 00a3 62060000 		.4byte	.LASF14
 351 00a7 04       		.byte	0x4
 352 00a8 15       		.byte	0x15
 353 00a9 45000000 		.4byte	0x45
 354 00ad 03       		.uleb128 0x3
 355 00ae E3040000 		.4byte	.LASF15
 356 00b2 04       		.byte	0x4
 357 00b3 2C       		.byte	0x2c
 358 00b4 65000000 		.4byte	0x65
 359 00b8 03       		.uleb128 0x3
 360 00b9 5F050000 		.4byte	.LASF16
 361 00bd 04       		.byte	0x4
 362 00be 2D       		.byte	0x2d
 363 00bf 77000000 		.4byte	0x77
 364 00c3 03       		.uleb128 0x3
 365 00c4 2A000000 		.4byte	.LASF17
 366 00c8 04       		.byte	0x4
 367 00c9 39       		.byte	0x39
 368 00ca 90000000 		.4byte	0x90
 369 00ce 05       		.uleb128 0x5
 370 00cf AD000000 		.4byte	0xad
 371 00d3 03       		.uleb128 0x3
 372 00d4 15060000 		.4byte	.LASF18
 373 00d8 05       		.byte	0x5
 374 00d9 45       		.byte	0x45
 375 00da B8000000 		.4byte	0xb8
 376 00de 03       		.uleb128 0x3
 377 00df F8000000 		.4byte	.LASF19
 378 00e3 05       		.byte	0x5
 379 00e4 46       		.byte	0x46
 380 00e5 C3000000 		.4byte	0xc3
 381 00e9 03       		.uleb128 0x3
 382 00ea AB020000 		.4byte	.LASF20
 383 00ee 05       		.byte	0x5
 384 00ef 48       		.byte	0x48
 385 00f0 A2000000 		.4byte	0xa2
 386 00f4 03       		.uleb128 0x3
 387 00f5 9A010000 		.4byte	.LASF21
 388 00f9 05       		.byte	0x5
 389 00fa 49       		.byte	0x49
 390 00fb A2000000 		.4byte	0xa2
 391 00ff 03       		.uleb128 0x3
 392 0100 8E040000 		.4byte	.LASF22
 393 0104 05       		.byte	0x5
ARM GAS  C:\Users\jo\AppData\Local\Temp\ccRjY7xX.s 			page 8


 394 0105 4A       		.byte	0x4a
 395 0106 A2000000 		.4byte	0xa2
 396 010a 03       		.uleb128 0x3
 397 010b BF040000 		.4byte	.LASF23
 398 010f 05       		.byte	0x5
 399 0110 4C       		.byte	0x4c
 400 0111 B8000000 		.4byte	0xb8
 401 0115 03       		.uleb128 0x3
 402 0116 8D020000 		.4byte	.LASF24
 403 011a 05       		.byte	0x5
 404 011b 4D       		.byte	0x4d
 405 011c AD000000 		.4byte	0xad
 406 0120 03       		.uleb128 0x3
 407 0121 DD020000 		.4byte	.LASF25
 408 0125 05       		.byte	0x5
 409 0126 4F       		.byte	0x4f
 410 0127 B8000000 		.4byte	0xb8
 411 012b 03       		.uleb128 0x3
 412 012c 0E020000 		.4byte	.LASF26
 413 0130 05       		.byte	0x5
 414 0131 51       		.byte	0x51
 415 0132 AD000000 		.4byte	0xad
 416 0136 03       		.uleb128 0x3
 417 0137 98020000 		.4byte	.LASF27
 418 013b 05       		.byte	0x5
 419 013c 52       		.byte	0x52
 420 013d B8000000 		.4byte	0xb8
 421 0141 03       		.uleb128 0x3
 422 0142 C5050000 		.4byte	.LASF28
 423 0146 06       		.byte	0x6
 424 0147 33       		.byte	0x33
 425 0148 B8000000 		.4byte	0xb8
 426 014c 03       		.uleb128 0x3
 427 014d B0050000 		.4byte	.LASF29
 428 0151 06       		.byte	0x6
 429 0152 3F       		.byte	0x3f
 430 0153 57010000 		.4byte	0x157
 431 0157 06       		.uleb128 0x6
 432 0158 83020000 		.4byte	.LASF50
 433 015c 60       		.byte	0x60
 434 015d 07       		.byte	0x7
 435 015e BE       		.byte	0xbe
 436 015f 5D020000 		.4byte	0x25d
 437 0163 07       		.uleb128 0x7
 438 0164 23050000 		.4byte	.LASF30
 439 0168 07       		.byte	0x7
 440 0169 BF       		.byte	0xbf
 441 016a AC050000 		.4byte	0x5ac
 442 016e 00       		.byte	0
 443 016f 07       		.uleb128 0x7
 444 0170 B0040000 		.4byte	.LASF31
 445 0174 07       		.byte	0x7
 446 0175 C1       		.byte	0xc1
 447 0176 AC050000 		.4byte	0x5ac
 448 017a 04       		.byte	0x4
 449 017b 07       		.uleb128 0x7
 450 017c 01010000 		.4byte	.LASF32
ARM GAS  C:\Users\jo\AppData\Local\Temp\ccRjY7xX.s 			page 9


 451 0180 07       		.byte	0x7
 452 0181 C3       		.byte	0xc3
 453 0182 0A010000 		.4byte	0x10a
 454 0186 08       		.byte	0x8
 455 0187 07       		.uleb128 0x7
 456 0188 16070000 		.4byte	.LASF33
 457 018c 07       		.byte	0x7
 458 018d C4       		.byte	0xc4
 459 018e C0040000 		.4byte	0x4c0
 460 0192 0C       		.byte	0xc
 461 0193 07       		.uleb128 0x7
 462 0194 A9010000 		.4byte	.LASF34
 463 0198 07       		.byte	0x7
 464 0199 C6       		.byte	0xc6
 465 019a AC050000 		.4byte	0x5ac
 466 019e 10       		.byte	0x10
 467 019f 07       		.uleb128 0x7
 468 01a0 25040000 		.4byte	.LASF35
 469 01a4 07       		.byte	0x7
 470 01a5 C7       		.byte	0xc7
 471 01a6 AC050000 		.4byte	0x5ac
 472 01aa 14       		.byte	0x14
 473 01ab 07       		.uleb128 0x7
 474 01ac CD040000 		.4byte	.LASF36
 475 01b0 07       		.byte	0x7
 476 01b1 CE       		.byte	0xce
 477 01b2 68050000 		.4byte	0x568
 478 01b6 18       		.byte	0x18
 479 01b7 07       		.uleb128 0x7
 480 01b8 14020000 		.4byte	.LASF37
 481 01bc 07       		.byte	0x7
 482 01bd D4       		.byte	0xd4
 483 01be F6060000 		.4byte	0x6f6
 484 01c2 1C       		.byte	0x1c
 485 01c3 07       		.uleb128 0x7
 486 01c4 0D050000 		.4byte	.LASF38
 487 01c8 07       		.byte	0x7
 488 01c9 D9       		.byte	0xd9
 489 01ca F4000000 		.4byte	0xf4
 490 01ce 20       		.byte	0x20
 491 01cf 07       		.uleb128 0x7
 492 01d0 2A050000 		.4byte	.LASF39
 493 01d4 07       		.byte	0x7
 494 01d5 DD       		.byte	0xdd
 495 01d6 E9000000 		.4byte	0xe9
 496 01da 21       		.byte	0x21
 497 01db 07       		.uleb128 0x7
 498 01dc 4D060000 		.4byte	.LASF40
 499 01e0 07       		.byte	0x7
 500 01e1 E2       		.byte	0xe2
 501 01e2 FF000000 		.4byte	0xff
 502 01e6 22       		.byte	0x22
 503 01e7 08       		.uleb128 0x8
 504 01e8 705F7500 		.ascii	"p_u\000"
 505 01ec 07       		.byte	0x7
 506 01ed 1401     		.2byte	0x114
 507 01ef BE060000 		.4byte	0x6be
ARM GAS  C:\Users\jo\AppData\Local\Temp\ccRjY7xX.s 			page 10


 508 01f3 24       		.byte	0x24
 509 01f4 09       		.uleb128 0x9
 510 01f5 D8030000 		.4byte	.LASF41
 511 01f9 07       		.byte	0x7
 512 01fa 1901     		.2byte	0x119
 513 01fc 5D020000 		.4byte	0x25d
 514 0200 28       		.byte	0x28
 515 0201 09       		.uleb128 0x9
 516 0202 34020000 		.4byte	.LASF42
 517 0206 07       		.byte	0x7
 518 0207 1F01     		.2byte	0x11f
 519 0209 81020000 		.4byte	0x281
 520 020d 2C       		.byte	0x2c
 521 020e 09       		.uleb128 0x9
 522 020f 0F060000 		.4byte	.LASF43
 523 0213 07       		.byte	0x7
 524 0214 2301     		.2byte	0x123
 525 0216 15010000 		.4byte	0x115
 526 021a 34       		.byte	0x34
 527 021b 09       		.uleb128 0x9
 528 021c 54050000 		.4byte	.LASF44
 529 0220 07       		.byte	0x7
 530 0221 2901     		.2byte	0x129
 531 0223 20010000 		.4byte	0x120
 532 0227 38       		.byte	0x38
 533 0228 09       		.uleb128 0x9
 534 0229 F9040000 		.4byte	.LASF45
 535 022d 07       		.byte	0x7
 536 022e 3001     		.2byte	0x130
 537 0230 2D070000 		.4byte	0x72d
 538 0234 3C       		.byte	0x3c
 539 0235 09       		.uleb128 0x9
 540 0236 CF050000 		.4byte	.LASF46
 541 023a 07       		.byte	0x7
 542 023b 3401     		.2byte	0x134
 543 023d 0A010000 		.4byte	0x10a
 544 0241 40       		.byte	0x40
 545 0242 09       		.uleb128 0x9
 546 0243 70010000 		.4byte	.LASF47
 547 0247 07       		.byte	0x7
 548 0248 3A01     		.2byte	0x13a
 549 024a 34030000 		.4byte	0x334
 550 024e 44       		.byte	0x44
 551 024f 09       		.uleb128 0x9
 552 0250 32050000 		.4byte	.LASF48
 553 0254 07       		.byte	0x7
 554 0255 4001     		.2byte	0x140
 555 0257 6F060000 		.4byte	0x66f
 556 025b 48       		.byte	0x48
 557 025c 00       		.byte	0
 558 025d 03       		.uleb128 0x3
 559 025e CD060000 		.4byte	.LASF49
 560 0262 06       		.byte	0x6
 561 0263 44       		.byte	0x44
 562 0264 68020000 		.4byte	0x268
 563 0268 06       		.uleb128 0x6
 564 0269 7C050000 		.4byte	.LASF51
ARM GAS  C:\Users\jo\AppData\Local\Temp\ccRjY7xX.s 			page 11


 565 026d 04       		.byte	0x4
 566 026e 07       		.byte	0x7
 567 026f AC       		.byte	0xac
 568 0270 81020000 		.4byte	0x281
 569 0274 07       		.uleb128 0x7
 570 0275 23050000 		.4byte	.LASF30
 571 0279 07       		.byte	0x7
 572 027a AD       		.byte	0xad
 573 027b AC050000 		.4byte	0x5ac
 574 027f 00       		.byte	0
 575 0280 00       		.byte	0
 576 0281 03       		.uleb128 0x3
 577 0282 31060000 		.4byte	.LASF52
 578 0286 06       		.byte	0x6
 579 0287 4B       		.byte	0x4b
 580 0288 8C020000 		.4byte	0x28c
 581 028c 06       		.uleb128 0x6
 582 028d 56000000 		.4byte	.LASF53
 583 0291 08       		.byte	0x8
 584 0292 07       		.byte	0x7
 585 0293 B3       		.byte	0xb3
 586 0294 B1020000 		.4byte	0x2b1
 587 0298 07       		.uleb128 0x7
 588 0299 23050000 		.4byte	.LASF30
 589 029d 07       		.byte	0x7
 590 029e B4       		.byte	0xb4
 591 029f AC050000 		.4byte	0x5ac
 592 02a3 00       		.byte	0
 593 02a4 07       		.uleb128 0x7
 594 02a5 B0040000 		.4byte	.LASF31
 595 02a9 07       		.byte	0x7
 596 02aa B5       		.byte	0xb5
 597 02ab AC050000 		.4byte	0x5ac
 598 02af 04       		.byte	0x4
 599 02b0 00       		.byte	0
 600 02b1 03       		.uleb128 0x3
 601 02b2 07000000 		.4byte	.LASF54
 602 02b6 06       		.byte	0x6
 603 02b7 52       		.byte	0x52
 604 02b8 BC020000 		.4byte	0x2bc
 605 02bc 0A       		.uleb128 0xa
 606 02bd CF020000 		.4byte	.LASF55
 607 02c1 1C       		.byte	0x1c
 608 02c2 07       		.byte	0x7
 609 02c3 7201     		.2byte	0x172
 610 02c5 18030000 		.4byte	0x318
 611 02c9 09       		.uleb128 0x9
 612 02ca 02040000 		.4byte	.LASF56
 613 02ce 07       		.byte	0x7
 614 02cf 7301     		.2byte	0x173
 615 02d1 81020000 		.4byte	0x281
 616 02d5 00       		.byte	0
 617 02d6 09       		.uleb128 0x9
 618 02d7 15050000 		.4byte	.LASF57
 619 02db 07       		.byte	0x7
 620 02dc 7401     		.2byte	0x174
 621 02de 0A010000 		.4byte	0x10a
ARM GAS  C:\Users\jo\AppData\Local\Temp\ccRjY7xX.s 			page 12


 622 02e2 08       		.byte	0x8
 623 02e3 09       		.uleb128 0x9
 624 02e4 2D040000 		.4byte	.LASF58
 625 02e8 07       		.byte	0x7
 626 02e9 7601     		.2byte	0x176
 627 02eb C0040000 		.4byte	0x4c0
 628 02ef 0C       		.byte	0xc
 629 02f0 09       		.uleb128 0x9
 630 02f1 B9010000 		.4byte	.LASF59
 631 02f5 07       		.byte	0x7
 632 02f6 7901     		.2byte	0x179
 633 02f8 AC050000 		.4byte	0x5ac
 634 02fc 10       		.byte	0x10
 635 02fd 09       		.uleb128 0x9
 636 02fe 63040000 		.4byte	.LASF60
 637 0302 07       		.byte	0x7
 638 0303 7A01     		.2byte	0x17a
 639 0305 AC050000 		.4byte	0x5ac
 640 0309 14       		.byte	0x14
 641 030a 09       		.uleb128 0x9
 642 030b 59040000 		.4byte	.LASF61
 643 030f 07       		.byte	0x7
 644 0310 7D01     		.2byte	0x17d
 645 0312 AC050000 		.4byte	0x5ac
 646 0316 18       		.byte	0x18
 647 0317 00       		.byte	0
 648 0318 03       		.uleb128 0x3
 649 0319 DA050000 		.4byte	.LASF62
 650 031d 06       		.byte	0x6
 651 031e 57       		.byte	0x57
 652 031f 23030000 		.4byte	0x323
 653 0323 0B       		.uleb128 0xb
 654 0324 04       		.byte	0x4
 655 0325 29030000 		.4byte	0x329
 656 0329 0C       		.uleb128 0xc
 657 032a 34030000 		.4byte	0x334
 658 032e 0D       		.uleb128 0xd
 659 032f 34030000 		.4byte	0x334
 660 0333 00       		.byte	0
 661 0334 0E       		.uleb128 0xe
 662 0335 04       		.byte	0x4
 663 0336 03       		.uleb128 0x3
 664 0337 A0040000 		.4byte	.LASF63
 665 033b 06       		.byte	0x6
 666 033c 5C       		.byte	0x5c
 667 033d 41030000 		.4byte	0x341
 668 0341 0A       		.uleb128 0xa
 669 0342 3A050000 		.4byte	.LASF64
 670 0346 14       		.byte	0x14
 671 0347 07       		.byte	0x7
 672 0348 4D01     		.2byte	0x14d
 673 034a 90030000 		.4byte	0x390
 674 034e 09       		.uleb128 0x9
 675 034f 2C020000 		.4byte	.LASF65
 676 0353 07       		.byte	0x7
 677 0354 4E01     		.2byte	0x14e
 678 0356 33070000 		.4byte	0x733
ARM GAS  C:\Users\jo\AppData\Local\Temp\ccRjY7xX.s 			page 13


 679 035a 00       		.byte	0
 680 035b 09       		.uleb128 0x9
 681 035c D6010000 		.4byte	.LASF66
 682 0360 07       		.byte	0x7
 683 0361 4F01     		.2byte	0x14f
 684 0363 33070000 		.4byte	0x733
 685 0367 04       		.byte	0x4
 686 0368 09       		.uleb128 0x9
 687 0369 73050000 		.4byte	.LASF67
 688 036d 07       		.byte	0x7
 689 036e 5001     		.2byte	0x150
 690 0370 41010000 		.4byte	0x141
 691 0374 08       		.byte	0x8
 692 0375 09       		.uleb128 0x9
 693 0376 1C070000 		.4byte	.LASF68
 694 037a 07       		.byte	0x7
 695 037b 5101     		.2byte	0x151
 696 037d 18030000 		.4byte	0x318
 697 0381 0C       		.byte	0xc
 698 0382 09       		.uleb128 0x9
 699 0383 2A060000 		.4byte	.LASF69
 700 0387 07       		.byte	0x7
 701 0388 5301     		.2byte	0x153
 702 038a 34030000 		.4byte	0x334
 703 038e 10       		.byte	0x10
 704 038f 00       		.byte	0
 705 0390 03       		.uleb128 0x3
 706 0391 D5000000 		.4byte	.LASF70
 707 0395 06       		.byte	0x6
 708 0396 61       		.byte	0x61
 709 0397 9B030000 		.4byte	0x39b
 710 039b 0A       		.uleb128 0xa
 711 039c EB030000 		.4byte	.LASF71
 712 03a0 10       		.byte	0x10
 713 03a1 07       		.byte	0x7
 714 03a2 5D01     		.2byte	0x15d
 715 03a4 DD030000 		.4byte	0x3dd
 716 03a8 09       		.uleb128 0x9
 717 03a9 2C020000 		.4byte	.LASF65
 718 03ad 07       		.byte	0x7
 719 03ae 5E01     		.2byte	0x15e
 720 03b0 33070000 		.4byte	0x733
 721 03b4 00       		.byte	0
 722 03b5 09       		.uleb128 0x9
 723 03b6 D6010000 		.4byte	.LASF66
 724 03ba 07       		.byte	0x7
 725 03bb 6001     		.2byte	0x160
 726 03bd 33070000 		.4byte	0x733
 727 03c1 04       		.byte	0x4
 728 03c2 09       		.uleb128 0x9
 729 03c3 73050000 		.4byte	.LASF67
 730 03c7 07       		.byte	0x7
 731 03c8 6201     		.2byte	0x162
 732 03ca 41010000 		.4byte	0x141
 733 03ce 08       		.byte	0x8
 734 03cf 09       		.uleb128 0x9
 735 03d0 19040000 		.4byte	.LASF72
ARM GAS  C:\Users\jo\AppData\Local\Temp\ccRjY7xX.s 			page 14


 736 03d4 07       		.byte	0x7
 737 03d5 6A01     		.2byte	0x16a
 738 03d7 41010000 		.4byte	0x141
 739 03db 0C       		.byte	0xc
 740 03dc 00       		.byte	0
 741 03dd 03       		.uleb128 0x3
 742 03de 67000000 		.4byte	.LASF73
 743 03e2 06       		.byte	0x6
 744 03e3 66       		.byte	0x66
 745 03e4 E8030000 		.4byte	0x3e8
 746 03e8 0F       		.uleb128 0xf
 747 03e9 DE010000 		.4byte	.LASF74
 748 03ed 1404     		.2byte	0x414
 749 03ef 07       		.byte	0x7
 750 03f0 8401     		.2byte	0x184
 751 03f2 2B040000 		.4byte	0x42b
 752 03f6 09       		.uleb128 0x9
 753 03f7 EE050000 		.4byte	.LASF75
 754 03fb 07       		.byte	0x7
 755 03fc 8C01     		.2byte	0x18c
 756 03fe 39070000 		.4byte	0x739
 757 0402 00       		.byte	0
 758 0403 09       		.uleb128 0x9
 759 0404 54060000 		.4byte	.LASF76
 760 0408 07       		.byte	0x7
 761 0409 9101     		.2byte	0x191
 762 040b 2B010000 		.4byte	0x12b
 763 040f 04       		.byte	0x4
 764 0410 09       		.uleb128 0x9
 765 0411 F6010000 		.4byte	.LASF77
 766 0415 07       		.byte	0x7
 767 0416 9501     		.2byte	0x195
 768 0418 2B010000 		.4byte	0x12b
 769 041c 08       		.byte	0x8
 770 041d 09       		.uleb128 0x9
 771 041e DC060000 		.4byte	.LASF78
 772 0422 07       		.byte	0x7
 773 0423 9B01     		.2byte	0x19b
 774 0425 01060000 		.4byte	0x601
 775 0429 0C       		.byte	0xc
 776 042a 00       		.byte	0
 777 042b 03       		.uleb128 0x3
 778 042c 9F020000 		.4byte	.LASF79
 779 0430 06       		.byte	0x6
 780 0431 6B       		.byte	0x6b
 781 0432 36040000 		.4byte	0x436
 782 0436 0F       		.uleb128 0xf
 783 0437 87010000 		.4byte	.LASF80
 784 043b D805     		.2byte	0x5d8
 785 043d 07       		.byte	0x7
 786 043e A401     		.2byte	0x1a4
 787 0440 A3040000 		.4byte	0x4a3
 788 0444 09       		.uleb128 0x9
 789 0445 5C060000 		.4byte	.LASF81
 790 0449 07       		.byte	0x7
 791 044a A801     		.2byte	0x1a8
 792 044c B1020000 		.4byte	0x2b1
ARM GAS  C:\Users\jo\AppData\Local\Temp\ccRjY7xX.s 			page 15


 793 0450 00       		.byte	0
 794 0451 09       		.uleb128 0x9
 795 0452 80010000 		.4byte	.LASF82
 796 0456 07       		.byte	0x7
 797 0457 AC01     		.2byte	0x1ac
 798 0459 90030000 		.4byte	0x390
 799 045d 1C       		.byte	0x1c
 800 045e 08       		.uleb128 0x8
 801 045f 64626700 		.ascii	"dbg\000"
 802 0463 07       		.byte	0x7
 803 0464 B001     		.2byte	0x1b0
 804 0466 DD030000 		.4byte	0x3dd
 805 046a 2C       		.byte	0x2c
 806 046b 10       		.uleb128 0x10
 807 046c CA000000 		.4byte	.LASF83
 808 0470 07       		.byte	0x7
 809 0471 B401     		.2byte	0x1b4
 810 0473 4C010000 		.4byte	0x14c
 811 0477 4004     		.2byte	0x440
 812 0479 11       		.uleb128 0x11
 813 047a 746D00   		.ascii	"tm\000"
 814 047d 07       		.byte	0x7
 815 047e B901     		.2byte	0x1b9
 816 0480 21060000 		.4byte	0x621
 817 0484 A004     		.2byte	0x4a0
 818 0486 10       		.uleb128 0x10
 819 0487 33000000 		.4byte	.LASF84
 820 048b 07       		.byte	0x7
 821 048c BF01     		.2byte	0x1bf
 822 048e B3060000 		.4byte	0x6b3
 823 0492 A804     		.2byte	0x4a8
 824 0494 10       		.uleb128 0x10
 825 0495 FF010000 		.4byte	.LASF85
 826 0499 07       		.byte	0x7
 827 049a C501     		.2byte	0x1c5
 828 049c 3E070000 		.4byte	0x73e
 829 04a0 E004     		.2byte	0x4e0
 830 04a2 00       		.byte	0
 831 04a3 04       		.uleb128 0x4
 832 04a4 04       		.byte	0x4
 833 04a5 07       		.byte	0x7
 834 04a6 E2030000 		.4byte	.LASF86
 835 04aa 03       		.uleb128 0x3
 836 04ab CD010000 		.4byte	.LASF87
 837 04af 08       		.byte	0x8
 838 04b0 85       		.byte	0x85
 839 04b1 34030000 		.4byte	0x334
 840 04b5 03       		.uleb128 0x3
 841 04b6 CD030000 		.4byte	.LASF88
 842 04ba 08       		.byte	0x8
 843 04bb 8D       		.byte	0x8d
 844 04bc C3000000 		.4byte	0xc3
 845 04c0 06       		.uleb128 0x6
 846 04c1 07060000 		.4byte	.LASF89
 847 04c5 04       		.byte	0x4
 848 04c6 08       		.byte	0x8
 849 04c7 A9       		.byte	0xa9
ARM GAS  C:\Users\jo\AppData\Local\Temp\ccRjY7xX.s 			page 16


 850 04c8 D9040000 		.4byte	0x4d9
 851 04cc 12       		.uleb128 0x12
 852 04cd 72313300 		.ascii	"r13\000"
 853 04d1 08       		.byte	0x8
 854 04d2 AA       		.byte	0xaa
 855 04d3 54050000 		.4byte	0x554
 856 04d7 00       		.byte	0
 857 04d8 00       		.byte	0
 858 04d9 06       		.uleb128 0x6
 859 04da 4A000000 		.4byte	.LASF90
 860 04de 24       		.byte	0x24
 861 04df 09       		.byte	0x9
 862 04e0 F4       		.byte	0xf4
 863 04e1 54050000 		.4byte	0x554
 864 04e5 08       		.uleb128 0x8
 865 04e6 723400   		.ascii	"r4\000"
 866 04e9 09       		.byte	0x9
 867 04ea 0701     		.2byte	0x107
 868 04ec AA040000 		.4byte	0x4aa
 869 04f0 00       		.byte	0
 870 04f1 08       		.uleb128 0x8
 871 04f2 723500   		.ascii	"r5\000"
 872 04f5 09       		.byte	0x9
 873 04f6 0801     		.2byte	0x108
 874 04f8 AA040000 		.4byte	0x4aa
 875 04fc 04       		.byte	0x4
 876 04fd 08       		.uleb128 0x8
 877 04fe 723600   		.ascii	"r6\000"
 878 0501 09       		.byte	0x9
 879 0502 0901     		.2byte	0x109
 880 0504 AA040000 		.4byte	0x4aa
 881 0508 08       		.byte	0x8
 882 0509 08       		.uleb128 0x8
 883 050a 723700   		.ascii	"r7\000"
 884 050d 09       		.byte	0x9
 885 050e 0A01     		.2byte	0x10a
 886 0510 AA040000 		.4byte	0x4aa
 887 0514 0C       		.byte	0xc
 888 0515 08       		.uleb128 0x8
 889 0516 723800   		.ascii	"r8\000"
 890 0519 09       		.byte	0x9
 891 051a 0B01     		.2byte	0x10b
 892 051c AA040000 		.4byte	0x4aa
 893 0520 10       		.byte	0x10
 894 0521 08       		.uleb128 0x8
 895 0522 723900   		.ascii	"r9\000"
 896 0525 09       		.byte	0x9
 897 0526 0C01     		.2byte	0x10c
 898 0528 AA040000 		.4byte	0x4aa
 899 052c 14       		.byte	0x14
 900 052d 08       		.uleb128 0x8
 901 052e 72313000 		.ascii	"r10\000"
 902 0532 09       		.byte	0x9
 903 0533 0D01     		.2byte	0x10d
 904 0535 AA040000 		.4byte	0x4aa
 905 0539 18       		.byte	0x18
 906 053a 08       		.uleb128 0x8
ARM GAS  C:\Users\jo\AppData\Local\Temp\ccRjY7xX.s 			page 17


 907 053b 72313100 		.ascii	"r11\000"
 908 053f 09       		.byte	0x9
 909 0540 0E01     		.2byte	0x10e
 910 0542 AA040000 		.4byte	0x4aa
 911 0546 1C       		.byte	0x1c
 912 0547 08       		.uleb128 0x8
 913 0548 6C7200   		.ascii	"lr\000"
 914 054b 09       		.byte	0x9
 915 054c 0F01     		.2byte	0x10f
 916 054e AA040000 		.4byte	0x4aa
 917 0552 20       		.byte	0x20
 918 0553 00       		.byte	0
 919 0554 0B       		.uleb128 0xb
 920 0555 04       		.byte	0x4
 921 0556 D9040000 		.4byte	0x4d9
 922 055a 0B       		.uleb128 0xb
 923 055b 04       		.byte	0x4
 924 055c 60050000 		.4byte	0x560
 925 0560 13       		.uleb128 0x13
 926 0561 04       		.uleb128 0x4
 927 0562 01       		.byte	0x1
 928 0563 08       		.byte	0x8
 929 0564 9E050000 		.4byte	.LASF91
 930 0568 0B       		.uleb128 0xb
 931 0569 04       		.byte	0x4
 932 056a 6E050000 		.4byte	0x56e
 933 056e 14       		.uleb128 0x14
 934 056f 61050000 		.4byte	0x561
 935 0573 15       		.uleb128 0x15
 936 0574 10       		.byte	0x10
 937 0575 0A       		.byte	0xa
 938 0576 57       		.byte	0x57
 939 0577 AC050000 		.4byte	0x5ac
 940 057b 07       		.uleb128 0x7
 941 057c 14000000 		.4byte	.LASF92
 942 0580 0A       		.byte	0xa
 943 0581 5B       		.byte	0x5b
 944 0582 41010000 		.4byte	0x141
 945 0586 00       		.byte	0
 946 0587 07       		.uleb128 0x7
 947 0588 A3010000 		.4byte	.LASF93
 948 058c 0A       		.byte	0xa
 949 058d 5F       		.byte	0x5f
 950 058e AC050000 		.4byte	0x5ac
 951 0592 04       		.byte	0x4
 952 0593 07       		.uleb128 0x7
 953 0594 0C070000 		.4byte	.LASF94
 954 0598 0A       		.byte	0xa
 955 0599 63       		.byte	0x63
 956 059a 34030000 		.4byte	0x334
 957 059e 08       		.byte	0x8
 958 059f 07       		.uleb128 0x7
 959 05a0 B8000000 		.4byte	.LASF95
 960 05a4 0A       		.byte	0xa
 961 05a5 67       		.byte	0x67
 962 05a6 A2000000 		.4byte	0xa2
 963 05aa 0C       		.byte	0xc
ARM GAS  C:\Users\jo\AppData\Local\Temp\ccRjY7xX.s 			page 18


 964 05ab 00       		.byte	0
 965 05ac 0B       		.uleb128 0xb
 966 05ad 04       		.byte	0x4
 967 05ae 4C010000 		.4byte	0x14c
 968 05b2 03       		.uleb128 0x3
 969 05b3 0A040000 		.4byte	.LASF96
 970 05b7 0A       		.byte	0xa
 971 05b8 68       		.byte	0x68
 972 05b9 73050000 		.4byte	0x573
 973 05bd 16       		.uleb128 0x16
 974 05be 0804     		.2byte	0x408
 975 05c0 0A       		.byte	0xa
 976 05c1 6D       		.byte	0x6d
 977 05c2 EB050000 		.4byte	0x5eb
 978 05c6 07       		.uleb128 0x7
 979 05c7 B1010000 		.4byte	.LASF97
 980 05cb 0A       		.byte	0xa
 981 05cc 71       		.byte	0x71
 982 05cd 37000000 		.4byte	0x37
 983 05d1 00       		.byte	0
 984 05d2 07       		.uleb128 0x7
 985 05d3 00000000 		.4byte	.LASF98
 986 05d7 0A       		.byte	0xa
 987 05d8 75       		.byte	0x75
 988 05d9 EB050000 		.4byte	0x5eb
 989 05dd 04       		.byte	0x4
 990 05de 07       		.uleb128 0x7
 991 05df 96040000 		.4byte	.LASF99
 992 05e3 0A       		.byte	0xa
 993 05e4 79       		.byte	0x79
 994 05e5 F1050000 		.4byte	0x5f1
 995 05e9 08       		.byte	0x8
 996 05ea 00       		.byte	0
 997 05eb 0B       		.uleb128 0xb
 998 05ec 04       		.byte	0x4
 999 05ed B2050000 		.4byte	0x5b2
 1000 05f1 17       		.uleb128 0x17
 1001 05f2 B2050000 		.4byte	0x5b2
 1002 05f6 01060000 		.4byte	0x601
 1003 05fa 18       		.uleb128 0x18
 1004 05fb A3040000 		.4byte	0x4a3
 1005 05ff 3F       		.byte	0x3f
 1006 0600 00       		.byte	0
 1007 0601 03       		.uleb128 0x3
 1008 0602 A6000000 		.4byte	.LASF100
 1009 0606 0A       		.byte	0xa
 1010 0607 7A       		.byte	0x7a
 1011 0608 BD050000 		.4byte	0x5bd
 1012 060c 15       		.uleb128 0x15
 1013 060d 04       		.byte	0x4
 1014 060e 0B       		.byte	0xb
 1015 060f 38       		.byte	0x38
 1016 0610 21060000 		.4byte	0x621
 1017 0614 07       		.uleb128 0x7
 1018 0615 F8050000 		.4byte	.LASF101
 1019 0619 0B       		.byte	0xb
 1020 061a 3C       		.byte	0x3c
ARM GAS  C:\Users\jo\AppData\Local\Temp\ccRjY7xX.s 			page 19


 1021 061b D3000000 		.4byte	0xd3
 1022 061f 00       		.byte	0
 1023 0620 00       		.byte	0
 1024 0621 03       		.uleb128 0x3
 1025 0622 42040000 		.4byte	.LASF102
 1026 0626 0B       		.byte	0xb
 1027 0627 3D       		.byte	0x3d
 1028 0628 0C060000 		.4byte	0x60c
 1029 062c 15       		.uleb128 0x15
 1030 062d 18       		.byte	0x18
 1031 062e 0B       		.byte	0xb
 1032 062f 48       		.byte	0x48
 1033 0630 6F060000 		.4byte	0x66f
 1034 0634 07       		.uleb128 0x7
 1035 0635 B9050000 		.4byte	.LASF103
 1036 0639 0B       		.byte	0xb
 1037 063a 49       		.byte	0x49
 1038 063b D3000000 		.4byte	0xd3
 1039 063f 00       		.byte	0
 1040 0640 07       		.uleb128 0x7
 1041 0641 76000000 		.4byte	.LASF104
 1042 0645 0B       		.byte	0xb
 1043 0646 4A       		.byte	0x4a
 1044 0647 D3000000 		.4byte	0xd3
 1045 064b 04       		.byte	0x4
 1046 064c 07       		.uleb128 0x7
 1047 064d 93020000 		.4byte	.LASF105
 1048 0651 0B       		.byte	0xb
 1049 0652 4B       		.byte	0x4b
 1050 0653 D3000000 		.4byte	0xd3
 1051 0657 08       		.byte	0x8
 1052 0658 12       		.uleb128 0x12
 1053 0659 6E00     		.ascii	"n\000"
 1054 065b 0B       		.byte	0xb
 1055 065c 4C       		.byte	0x4c
 1056 065d 36010000 		.4byte	0x136
 1057 0661 0C       		.byte	0xc
 1058 0662 07       		.uleb128 0x7
 1059 0663 83040000 		.4byte	.LASF106
 1060 0667 0B       		.byte	0xb
 1061 0668 4D       		.byte	0x4d
 1062 0669 DE000000 		.4byte	0xde
 1063 066d 10       		.byte	0x10
 1064 066e 00       		.byte	0
 1065 066f 03       		.uleb128 0x3
 1066 0670 7C000000 		.4byte	.LASF107
 1067 0674 0B       		.byte	0xb
 1068 0675 4E       		.byte	0x4e
 1069 0676 2C060000 		.4byte	0x62c
 1070 067a 15       		.uleb128 0x15
 1071 067b 38       		.byte	0x38
 1072 067c 0C       		.byte	0xc
 1073 067d 38       		.byte	0x38
 1074 067e B3060000 		.4byte	0x6b3
 1075 0682 07       		.uleb128 0x7
 1076 0683 56020000 		.4byte	.LASF108
 1077 0687 0C       		.byte	0xc
ARM GAS  C:\Users\jo\AppData\Local\Temp\ccRjY7xX.s 			page 20


 1078 0688 39       		.byte	0x39
 1079 0689 36010000 		.4byte	0x136
 1080 068d 00       		.byte	0
 1081 068e 07       		.uleb128 0x7
 1082 068f D4040000 		.4byte	.LASF109
 1083 0693 0C       		.byte	0xc
 1084 0694 3A       		.byte	0x3a
 1085 0695 36010000 		.4byte	0x136
 1086 0699 04       		.byte	0x4
 1087 069a 07       		.uleb128 0x7
 1088 069b F9060000 		.4byte	.LASF110
 1089 069f 0C       		.byte	0xc
 1090 06a0 3B       		.byte	0x3b
 1091 06a1 6F060000 		.4byte	0x66f
 1092 06a5 08       		.byte	0x8
 1093 06a6 07       		.uleb128 0x7
 1094 06a7 C4020000 		.4byte	.LASF111
 1095 06ab 0C       		.byte	0xc
 1096 06ac 3D       		.byte	0x3d
 1097 06ad 6F060000 		.4byte	0x66f
 1098 06b1 20       		.byte	0x20
 1099 06b2 00       		.byte	0
 1100 06b3 03       		.uleb128 0x3
 1101 06b4 74020000 		.4byte	.LASF112
 1102 06b8 0C       		.byte	0xc
 1103 06b9 3F       		.byte	0x3f
 1104 06ba 7A060000 		.4byte	0x67a
 1105 06be 19       		.uleb128 0x19
 1106 06bf 04       		.byte	0x4
 1107 06c0 07       		.byte	0x7
 1108 06c1 F6       		.byte	0xf6
 1109 06c2 F6060000 		.4byte	0x6f6
 1110 06c6 1A       		.uleb128 0x1a
 1111 06c7 23000000 		.4byte	.LASF113
 1112 06cb 07       		.byte	0x7
 1113 06cc FD       		.byte	0xfd
 1114 06cd 15010000 		.4byte	0x115
 1115 06d1 1B       		.uleb128 0x1b
 1116 06d2 C1000000 		.4byte	.LASF114
 1117 06d6 07       		.byte	0x7
 1118 06d7 0401     		.2byte	0x104
 1119 06d9 15010000 		.4byte	0x115
 1120 06dd 1B       		.uleb128 0x1b
 1121 06de 81060000 		.4byte	.LASF115
 1122 06e2 07       		.byte	0x7
 1123 06e3 0B01     		.2byte	0x10b
 1124 06e5 34030000 		.4byte	0x334
 1125 06e9 1B       		.uleb128 0x1b
 1126 06ea 1C050000 		.4byte	.LASF116
 1127 06ee 07       		.byte	0x7
 1128 06ef 1201     		.2byte	0x112
 1129 06f1 20010000 		.4byte	0x120
 1130 06f5 00       		.byte	0
 1131 06f6 0B       		.uleb128 0xb
 1132 06f7 04       		.byte	0x4
 1133 06f8 B5040000 		.4byte	0x4b5
 1134 06fc 06       		.uleb128 0x6
ARM GAS  C:\Users\jo\AppData\Local\Temp\ccRjY7xX.s 			page 21


 1135 06fd C7040000 		.4byte	.LASF117
 1136 0701 10       		.byte	0x10
 1137 0702 0D       		.byte	0xd
 1138 0703 39       		.byte	0x39
 1139 0704 2D070000 		.4byte	0x72d
 1140 0708 07       		.uleb128 0x7
 1141 0709 78010000 		.4byte	.LASF118
 1142 070d 0D       		.byte	0xd
 1143 070e 3A       		.byte	0x3a
 1144 070f 81020000 		.4byte	0x281
 1145 0713 00       		.byte	0
 1146 0714 07       		.uleb128 0x7
 1147 0715 04070000 		.4byte	.LASF119
 1148 0719 0D       		.byte	0xd
 1149 071a 3C       		.byte	0x3c
 1150 071b AC050000 		.4byte	0x5ac
 1151 071f 08       		.byte	0x8
 1152 0720 07       		.uleb128 0x7
 1153 0721 BE050000 		.4byte	.LASF120
 1154 0725 0D       		.byte	0xd
 1155 0726 3E       		.byte	0x3e
 1156 0727 59070000 		.4byte	0x759
 1157 072b 0C       		.byte	0xc
 1158 072c 00       		.byte	0
 1159 072d 0B       		.uleb128 0xb
 1160 072e 04       		.byte	0x4
 1161 072f FC060000 		.4byte	0x6fc
 1162 0733 0B       		.uleb128 0xb
 1163 0734 04       		.byte	0x4
 1164 0735 36030000 		.4byte	0x336
 1165 0739 05       		.uleb128 0x5
 1166 073a 68050000 		.4byte	0x568
 1167 073e 17       		.uleb128 0x17
 1168 073f B5040000 		.4byte	0x4b5
 1169 0743 4E070000 		.4byte	0x74e
 1170 0747 18       		.uleb128 0x18
 1171 0748 A3040000 		.4byte	0x4a3
 1172 074c 1E       		.byte	0x1e
 1173 074d 00       		.byte	0
 1174 074e 03       		.uleb128 0x3
 1175 074f EE010000 		.4byte	.LASF121
 1176 0753 0D       		.byte	0xd
 1177 0754 34       		.byte	0x34
 1178 0755 FC060000 		.4byte	0x6fc
 1179 0759 0B       		.uleb128 0xb
 1180 075a 04       		.byte	0x4
 1181 075b 4E070000 		.4byte	0x74e
 1182 075f 03       		.uleb128 0x3
 1183 0760 1D060000 		.4byte	.LASF122
 1184 0764 0E       		.byte	0xe
 1185 0765 36       		.byte	0x36
 1186 0766 6A070000 		.4byte	0x76a
 1187 076a 0B       		.uleb128 0xb
 1188 076b 04       		.byte	0x4
 1189 076c 70070000 		.4byte	0x770
 1190 0770 1C       		.uleb128 0x1c
 1191 0771 34030000 		.4byte	0x334
ARM GAS  C:\Users\jo\AppData\Local\Temp\ccRjY7xX.s 			page 22


 1192 0775 7F070000 		.4byte	0x77f
 1193 0779 0D       		.uleb128 0xd
 1194 077a 2C000000 		.4byte	0x2c
 1195 077e 00       		.byte	0
 1196 077f 06       		.uleb128 0x6
 1197 0780 41060000 		.4byte	.LASF123
 1198 0784 04       		.byte	0x4
 1199 0785 0F       		.byte	0xf
 1200 0786 38       		.byte	0x38
 1201 0787 98070000 		.4byte	0x798
 1202 078b 07       		.uleb128 0x7
 1203 078c 88060000 		.4byte	.LASF124
 1204 0790 0F       		.byte	0xf
 1205 0791 39       		.byte	0x39
 1206 0792 98070000 		.4byte	0x798
 1207 0796 00       		.byte	0
 1208 0797 00       		.byte	0
 1209 0798 0B       		.uleb128 0xb
 1210 0799 04       		.byte	0x4
 1211 079a 7F070000 		.4byte	0x77f
 1212 079e 15       		.uleb128 0x15
 1213 079f 0C       		.byte	0xc
 1214 07a0 0F       		.byte	0xf
 1215 07a1 40       		.byte	0x40
 1216 07a2 CB070000 		.4byte	0x7cb
 1217 07a6 07       		.uleb128 0x7
 1218 07a7 FF050000 		.4byte	.LASF125
 1219 07ab 0F       		.byte	0xf
 1220 07ac 41       		.byte	0x41
 1221 07ad 98070000 		.4byte	0x798
 1222 07b1 00       		.byte	0
 1223 07b2 07       		.uleb128 0x7
 1224 07b3 33040000 		.4byte	.LASF126
 1225 07b7 0F       		.byte	0xf
 1226 07b8 42       		.byte	0x42
 1227 07b9 2C000000 		.4byte	0x2c
 1228 07bd 04       		.byte	0x4
 1229 07be 07       		.uleb128 0x7
 1230 07bf C1010000 		.4byte	.LASF127
 1231 07c3 0F       		.byte	0xf
 1232 07c4 44       		.byte	0x44
 1233 07c5 5F070000 		.4byte	0x75f
 1234 07c9 08       		.byte	0x8
 1235 07ca 00       		.byte	0
 1236 07cb 03       		.uleb128 0x3
 1237 07cc 48020000 		.4byte	.LASF128
 1238 07d0 0F       		.byte	0xf
 1239 07d1 46       		.byte	0x46
 1240 07d2 9E070000 		.4byte	0x79e
 1241 07d6 06       		.uleb128 0x6
 1242 07d7 4B050000 		.4byte	.LASF129
 1243 07db 10       		.byte	0x10
 1244 07dc 10       		.byte	0x10
 1245 07dd 3B       		.byte	0x3b
 1246 07de 13080000 		.4byte	0x813
 1247 07e2 07       		.uleb128 0x7
 1248 07e3 5C020000 		.4byte	.LASF130
ARM GAS  C:\Users\jo\AppData\Local\Temp\ccRjY7xX.s 			page 23


 1249 07e7 10       		.byte	0x10
 1250 07e8 3C       		.byte	0x3c
 1251 07e9 68050000 		.4byte	0x568
 1252 07ed 00       		.byte	0
 1253 07ee 07       		.uleb128 0x7
 1254 07ef 53040000 		.4byte	.LASF131
 1255 07f3 10       		.byte	0x10
 1256 07f4 3D       		.byte	0x3d
 1257 07f5 5A050000 		.4byte	0x55a
 1258 07f9 04       		.byte	0x4
 1259 07fa 07       		.uleb128 0x7
 1260 07fb 3F020000 		.4byte	.LASF132
 1261 07ff 10       		.byte	0x10
 1262 0800 3E       		.byte	0x3e
 1263 0801 5A050000 		.4byte	0x55a
 1264 0805 08       		.byte	0x8
 1265 0806 07       		.uleb128 0x7
 1266 0807 B7040000 		.4byte	.LASF133
 1267 080b 10       		.byte	0x10
 1268 080c 3F       		.byte	0x3f
 1269 080d 5A050000 		.4byte	0x55a
 1270 0811 0C       		.byte	0xc
 1271 0812 00       		.byte	0
 1272 0813 1D       		.uleb128 0x1d
 1273 0814 24070000 		.4byte	.LASF145
 1274 0818 01       		.byte	0x1
 1275 0819 47       		.byte	0x47
 1276 081a 01       		.byte	0x1
 1277 081b 29080000 		.4byte	0x829
 1278 081f 1E       		.uleb128 0x1e
 1279 0820 6900     		.ascii	"i\000"
 1280 0822 01       		.byte	0x1
 1281 0823 48       		.byte	0x48
 1282 0824 25000000 		.4byte	0x25
 1283 0828 00       		.byte	0
 1284 0829 1F       		.uleb128 0x1f
 1285 082a 90060000 		.4byte	.LASF146
 1286 082e 01       		.byte	0x1
 1287 082f 3C       		.byte	0x3c
 1288 0830 34030000 		.4byte	0x334
 1289 0834 00000000 		.4byte	.LFB226
 1290 0838 04000000 		.4byte	.LFE226-.LFB226
 1291 083c 01       		.uleb128 0x1
 1292 083d 9C       		.byte	0x9c
 1293 083e 52080000 		.4byte	0x852
 1294 0842 20       		.uleb128 0x20
 1295 0843 9E060000 		.4byte	.LASF147
 1296 0847 01       		.byte	0x1
 1297 0848 3C       		.byte	0x3c
 1298 0849 2C000000 		.4byte	0x2c
 1299 084d 00000000 		.4byte	.LLST0
 1300 0851 00       		.byte	0
 1301 0852 21       		.uleb128 0x21
 1302 0853 A3050000 		.4byte	.LASF148
 1303 0857 01       		.byte	0x1
 1304 0858 42       		.byte	0x42
 1305 0859 00000000 		.4byte	.LFB227
ARM GAS  C:\Users\jo\AppData\Local\Temp\ccRjY7xX.s 			page 24


 1306 085d 10000000 		.4byte	.LFE227-.LFB227
 1307 0861 01       		.uleb128 0x1
 1308 0862 9C       		.byte	0x9c
 1309 0863 87080000 		.4byte	0x887
 1310 0867 22       		.uleb128 0x22
 1311 0868 0C000000 		.4byte	.LVL2
 1312 086c 810A0000 		.4byte	0xa81
 1313 0870 23       		.uleb128 0x23
 1314 0871 01       		.uleb128 0x1
 1315 0872 52       		.byte	0x52
 1316 0873 01       		.uleb128 0x1
 1317 0874 30       		.byte	0x30
 1318 0875 23       		.uleb128 0x23
 1319 0876 01       		.uleb128 0x1
 1320 0877 51       		.byte	0x51
 1321 0878 03       		.uleb128 0x3
 1322 0879 0A       		.byte	0xa
 1323 087a 6801     		.2byte	0x168
 1324 087c 23       		.uleb128 0x23
 1325 087d 01       		.uleb128 0x1
 1326 087e 50       		.byte	0x50
 1327 087f 05       		.uleb128 0x5
 1328 0880 03       		.byte	0x3
 1329 0881 00000000 		.4byte	.LANCHOR0
 1330 0885 00       		.byte	0
 1331 0886 00       		.byte	0
 1332 0887 24       		.uleb128 0x24
 1333 0888 13080000 		.4byte	0x813
 1334 088c 00000000 		.4byte	.LFB228
 1335 0890 BC000000 		.4byte	.LFE228-.LFB228
 1336 0894 01       		.uleb128 0x1
 1337 0895 9C       		.byte	0x9c
 1338 0896 FD090000 		.4byte	0x9fd
 1339 089a 25       		.uleb128 0x25
 1340 089b 1F080000 		.4byte	0x81f
 1341 089f 21000000 		.4byte	.LLST1
 1342 08a3 26       		.uleb128 0x26
 1343 08a4 00000000 		.4byte	.Ldebug_ranges0+0
 1344 08a8 8A090000 		.4byte	0x98a
 1345 08ac 25       		.uleb128 0x25
 1346 08ad 1F080000 		.4byte	0x81f
 1347 08b1 62000000 		.4byte	.LLST2
 1348 08b5 27       		.uleb128 0x27
 1349 08b6 4C000000 		.4byte	.LVL11
 1350 08ba A20A0000 		.4byte	0xaa2
 1351 08be D3080000 		.4byte	0x8d3
 1352 08c2 23       		.uleb128 0x23
 1353 08c3 01       		.uleb128 0x1
 1354 08c4 51       		.byte	0x51
 1355 08c5 03       		.uleb128 0x3
 1356 08c6 74       		.byte	0x74
 1357 08c7 00       		.sleb128 0
 1358 08c8 06       		.byte	0x6
 1359 08c9 23       		.uleb128 0x23
 1360 08ca 01       		.uleb128 0x1
 1361 08cb 50       		.byte	0x50
 1362 08cc 05       		.uleb128 0x5
ARM GAS  C:\Users\jo\AppData\Local\Temp\ccRjY7xX.s 			page 25


 1363 08cd 03       		.byte	0x3
 1364 08ce 00000000 		.4byte	.LANCHOR0
 1365 08d2 00       		.byte	0
 1366 08d3 27       		.uleb128 0x27
 1367 08d4 5A000000 		.4byte	.LVL12
 1368 08d8 A20A0000 		.4byte	0xaa2
 1369 08dc EA080000 		.4byte	0x8ea
 1370 08e0 23       		.uleb128 0x23
 1371 08e1 01       		.uleb128 0x1
 1372 08e2 50       		.byte	0x50
 1373 08e3 05       		.uleb128 0x5
 1374 08e4 03       		.byte	0x3
 1375 08e5 00000000 		.4byte	.LANCHOR0
 1376 08e9 00       		.byte	0
 1377 08ea 27       		.uleb128 0x27
 1378 08eb 66000000 		.4byte	.LVL14
 1379 08ef B80A0000 		.4byte	0xab8
 1380 08f3 01090000 		.4byte	0x901
 1381 08f7 23       		.uleb128 0x23
 1382 08f8 01       		.uleb128 0x1
 1383 08f9 50       		.byte	0x50
 1384 08fa 05       		.uleb128 0x5
 1385 08fb 03       		.byte	0x3
 1386 08fc 00000000 		.4byte	.LANCHOR0
 1387 0900 00       		.byte	0
 1388 0901 27       		.uleb128 0x27
 1389 0902 72000000 		.4byte	.LVL15
 1390 0906 CD0A0000 		.4byte	0xacd
 1391 090a 14090000 		.4byte	0x914
 1392 090e 23       		.uleb128 0x23
 1393 090f 01       		.uleb128 0x1
 1394 0910 50       		.byte	0x50
 1395 0911 01       		.uleb128 0x1
 1396 0912 33       		.byte	0x33
 1397 0913 00       		.byte	0
 1398 0914 27       		.uleb128 0x27
 1399 0915 7E000000 		.4byte	.LVL17
 1400 0919 B80A0000 		.4byte	0xab8
 1401 091d 2B090000 		.4byte	0x92b
 1402 0921 23       		.uleb128 0x23
 1403 0922 01       		.uleb128 0x1
 1404 0923 50       		.byte	0x50
 1405 0924 05       		.uleb128 0x5
 1406 0925 03       		.byte	0x3
 1407 0926 00000000 		.4byte	.LANCHOR0
 1408 092a 00       		.byte	0
 1409 092b 27       		.uleb128 0x27
 1410 092c 8A000000 		.4byte	.LVL18
 1411 0930 CD0A0000 		.4byte	0xacd
 1412 0934 3E090000 		.4byte	0x93e
 1413 0938 23       		.uleb128 0x23
 1414 0939 01       		.uleb128 0x1
 1415 093a 50       		.byte	0x50
 1416 093b 01       		.uleb128 0x1
 1417 093c 34       		.byte	0x34
 1418 093d 00       		.byte	0
 1419 093e 27       		.uleb128 0x27
ARM GAS  C:\Users\jo\AppData\Local\Temp\ccRjY7xX.s 			page 26


 1420 093f 98000000 		.4byte	.LVL21
 1421 0943 810A0000 		.4byte	0xa81
 1422 0947 63090000 		.4byte	0x963
 1423 094b 23       		.uleb128 0x23
 1424 094c 01       		.uleb128 0x1
 1425 094d 52       		.byte	0x52
 1426 094e 05       		.uleb128 0x5
 1427 094f 03       		.byte	0x3
 1428 0950 00000000 		.4byte	null_provider
 1429 0954 23       		.uleb128 0x23
 1430 0955 01       		.uleb128 0x1
 1431 0956 51       		.byte	0x51
 1432 0957 01       		.uleb128 0x1
 1433 0958 40       		.byte	0x40
 1434 0959 23       		.uleb128 0x23
 1435 095a 01       		.uleb128 0x1
 1436 095b 50       		.byte	0x50
 1437 095c 05       		.uleb128 0x5
 1438 095d 03       		.byte	0x3
 1439 095e 00000000 		.4byte	.LANCHOR0
 1440 0962 00       		.byte	0
 1441 0963 27       		.uleb128 0x27
 1442 0964 9E000000 		.4byte	.LVL22
 1443 0968 B80A0000 		.4byte	0xab8
 1444 096c 7A090000 		.4byte	0x97a
 1445 0970 23       		.uleb128 0x23
 1446 0971 01       		.uleb128 0x1
 1447 0972 50       		.byte	0x50
 1448 0973 05       		.uleb128 0x5
 1449 0974 03       		.byte	0x3
 1450 0975 00000000 		.4byte	.LANCHOR0
 1451 0979 00       		.byte	0
 1452 097a 22       		.uleb128 0x22
 1453 097b AE000000 		.4byte	.LVL24
 1454 097f CD0A0000 		.4byte	0xacd
 1455 0983 23       		.uleb128 0x23
 1456 0984 01       		.uleb128 0x1
 1457 0985 50       		.byte	0x50
 1458 0986 01       		.uleb128 0x1
 1459 0987 35       		.byte	0x35
 1460 0988 00       		.byte	0
 1461 0989 00       		.byte	0
 1462 098a 27       		.uleb128 0x27
 1463 098b 10000000 		.4byte	.LVL3
 1464 098f EE0A0000 		.4byte	0xaee
 1465 0993 AC090000 		.4byte	0x9ac
 1466 0997 23       		.uleb128 0x23
 1467 0998 01       		.uleb128 0x1
 1468 0999 52       		.byte	0x52
 1469 099a 01       		.uleb128 0x1
 1470 099b 35       		.byte	0x35
 1471 099c 23       		.uleb128 0x23
 1472 099d 01       		.uleb128 0x1
 1473 099e 51       		.byte	0x51
 1474 099f 02       		.uleb128 0x2
 1475 09a0 75       		.byte	0x75
 1476 09a1 00       		.sleb128 0
ARM GAS  C:\Users\jo\AppData\Local\Temp\ccRjY7xX.s 			page 27


 1477 09a2 23       		.uleb128 0x23
 1478 09a3 01       		.uleb128 0x1
 1479 09a4 50       		.byte	0x50
 1480 09a5 05       		.uleb128 0x5
 1481 09a6 03       		.byte	0x3
 1482 09a7 00000000 		.4byte	.LANCHOR0
 1483 09ab 00       		.byte	0
 1484 09ac 27       		.uleb128 0x27
 1485 09ad 18000000 		.4byte	.LVL5
 1486 09b1 B80A0000 		.4byte	0xab8
 1487 09b5 C3090000 		.4byte	0x9c3
 1488 09b9 23       		.uleb128 0x23
 1489 09ba 01       		.uleb128 0x1
 1490 09bb 50       		.byte	0x50
 1491 09bc 05       		.uleb128 0x5
 1492 09bd 03       		.byte	0x3
 1493 09be 00000000 		.4byte	.LANCHOR0
 1494 09c2 00       		.byte	0
 1495 09c3 27       		.uleb128 0x27
 1496 09c4 24000000 		.4byte	.LVL6
 1497 09c8 CD0A0000 		.4byte	0xacd
 1498 09cc D6090000 		.4byte	0x9d6
 1499 09d0 23       		.uleb128 0x23
 1500 09d1 01       		.uleb128 0x1
 1501 09d2 50       		.byte	0x50
 1502 09d3 01       		.uleb128 0x1
 1503 09d4 31       		.byte	0x31
 1504 09d5 00       		.byte	0
 1505 09d6 27       		.uleb128 0x27
 1506 09d7 30000000 		.4byte	.LVL8
 1507 09db B80A0000 		.4byte	0xab8
 1508 09df ED090000 		.4byte	0x9ed
 1509 09e3 23       		.uleb128 0x23
 1510 09e4 01       		.uleb128 0x1
 1511 09e5 50       		.byte	0x50
 1512 09e6 05       		.uleb128 0x5
 1513 09e7 03       		.byte	0x3
 1514 09e8 00000000 		.4byte	.LANCHOR0
 1515 09ec 00       		.byte	0
 1516 09ed 28       		.uleb128 0x28
 1517 09ee 3C000000 		.4byte	.LVL9
 1518 09f2 CD0A0000 		.4byte	0xacd
 1519 09f6 23       		.uleb128 0x23
 1520 09f7 01       		.uleb128 0x1
 1521 09f8 50       		.byte	0x50
 1522 09f9 01       		.uleb128 0x1
 1523 09fa 32       		.byte	0x32
 1524 09fb 00       		.byte	0
 1525 09fc 00       		.byte	0
 1526 09fd 29       		.uleb128 0x29
 1527 09fe 6D703100 		.ascii	"mp1\000"
 1528 0a02 01       		.byte	0x1
 1529 0a03 31       		.byte	0x31
 1530 0a04 CB070000 		.4byte	0x7cb
 1531 0a08 05       		.uleb128 0x5
 1532 0a09 03       		.byte	0x3
 1533 0a0a 00000000 		.4byte	mp1
ARM GAS  C:\Users\jo\AppData\Local\Temp\ccRjY7xX.s 			page 28


 1534 0a0e 2A       		.uleb128 0x2a
 1535 0a0f EB000000 		.4byte	.LASF134
 1536 0a13 11       		.byte	0x11
 1537 0a14 A706     		.2byte	0x6a7
 1538 0a16 CE000000 		.4byte	0xce
 1539 0a1a 2B       		.uleb128 0x2b
 1540 0a1b 636800   		.ascii	"ch\000"
 1541 0a1e 07       		.byte	0x7
 1542 0a1f EB01     		.2byte	0x1eb
 1543 0a21 2B040000 		.4byte	0x42b
 1544 0a25 17       		.uleb128 0x17
 1545 0a26 34030000 		.4byte	0x334
 1546 0a2a 300A0000 		.4byte	0xa30
 1547 0a2e 2C       		.uleb128 0x2c
 1548 0a2f 00       		.byte	0
 1549 0a30 2D       		.uleb128 0x2d
 1550 0a31 776100   		.ascii	"wa\000"
 1551 0a34 10       		.byte	0x10
 1552 0a35 A7       		.byte	0xa7
 1553 0a36 3A0A0000 		.4byte	0xa3a
 1554 0a3a 14       		.uleb128 0x14
 1555 0a3b 250A0000 		.4byte	0xa25
 1556 0a3f 2E       		.uleb128 0x2e
 1557 0a40 68050000 		.4byte	.LASF135
 1558 0a44 01       		.byte	0x1
 1559 0a45 64       		.byte	0x64
 1560 0a46 500A0000 		.4byte	0xa50
 1561 0a4a 05       		.uleb128 0x5
 1562 0a4b 03       		.byte	0x3
 1563 0a4c 00000000 		.4byte	testpools1
 1564 0a50 14       		.uleb128 0x14
 1565 0a51 D6070000 		.4byte	0x7d6
 1566 0a55 17       		.uleb128 0x17
 1567 0a56 650A0000 		.4byte	0xa65
 1568 0a5a 650A0000 		.4byte	0xa65
 1569 0a5e 18       		.uleb128 0x18
 1570 0a5f A3040000 		.4byte	0x4a3
 1571 0a63 01       		.byte	0x1
 1572 0a64 00       		.byte	0
 1573 0a65 0B       		.uleb128 0xb
 1574 0a66 04       		.byte	0x4
 1575 0a67 500A0000 		.4byte	0xa50
 1576 0a6b 2E       		.uleb128 0x2e
 1577 0a6c 6B040000 		.4byte	.LASF136
 1578 0a70 01       		.byte	0x1
 1579 0a71 70       		.byte	0x70
 1580 0a72 7C0A0000 		.4byte	0xa7c
 1581 0a76 05       		.uleb128 0x5
 1582 0a77 03       		.byte	0x3
 1583 0a78 00000000 		.4byte	patternpools
 1584 0a7c 14       		.uleb128 0x14
 1585 0a7d 550A0000 		.4byte	0xa55
 1586 0a81 2F       		.uleb128 0x2f
 1587 0a82 B3020000 		.4byte	.LASF137
 1588 0a86 0F       		.byte	0xf
 1589 0a87 6C       		.byte	0x6c
 1590 0a88 9C0A0000 		.4byte	0xa9c
ARM GAS  C:\Users\jo\AppData\Local\Temp\ccRjY7xX.s 			page 29


 1591 0a8c 0D       		.uleb128 0xd
 1592 0a8d 9C0A0000 		.4byte	0xa9c
 1593 0a91 0D       		.uleb128 0xd
 1594 0a92 2C000000 		.4byte	0x2c
 1595 0a96 0D       		.uleb128 0xd
 1596 0a97 5F070000 		.4byte	0x75f
 1597 0a9b 00       		.byte	0
 1598 0a9c 0B       		.uleb128 0xb
 1599 0a9d 04       		.byte	0x4
 1600 0a9e CB070000 		.4byte	0x7cb
 1601 0aa2 2F       		.uleb128 0x2f
 1602 0aa3 76060000 		.4byte	.LASF138
 1603 0aa7 0F       		.byte	0xf
 1604 0aa8 71       		.byte	0x71
 1605 0aa9 B80A0000 		.4byte	0xab8
 1606 0aad 0D       		.uleb128 0xd
 1607 0aae 9C0A0000 		.4byte	0xa9c
 1608 0ab2 0D       		.uleb128 0xd
 1609 0ab3 34030000 		.4byte	0x334
 1610 0ab7 00       		.byte	0
 1611 0ab8 30       		.uleb128 0x30
 1612 0ab9 6A060000 		.4byte	.LASF139
 1613 0abd 0F       		.byte	0xf
 1614 0abe 6F       		.byte	0x6f
 1615 0abf 34030000 		.4byte	0x334
 1616 0ac3 CD0A0000 		.4byte	0xacd
 1617 0ac7 0D       		.uleb128 0xd
 1618 0ac8 9C0A0000 		.4byte	0xa9c
 1619 0acc 00       		.byte	0
 1620 0acd 30       		.uleb128 0x30
 1621 0ace A3060000 		.4byte	.LASF140
 1622 0ad2 10       		.byte	0x10
 1623 0ad3 58       		.byte	0x58
 1624 0ad4 E70A0000 		.4byte	0xae7
 1625 0ad8 E70A0000 		.4byte	0xae7
 1626 0adc 0D       		.uleb128 0xd
 1627 0add 37000000 		.4byte	0x37
 1628 0ae1 0D       		.uleb128 0xd
 1629 0ae2 E70A0000 		.4byte	0xae7
 1630 0ae6 00       		.byte	0
 1631 0ae7 04       		.uleb128 0x4
 1632 0ae8 01       		.byte	0x1
 1633 0ae9 02       		.byte	0x2
 1634 0aea DD040000 		.4byte	.LASF141
 1635 0aee 31       		.uleb128 0x31
 1636 0aef E9060000 		.4byte	.LASF149
 1637 0af3 0F       		.byte	0xf
 1638 0af4 6D       		.byte	0x6d
 1639 0af5 0D       		.uleb128 0xd
 1640 0af6 9C0A0000 		.4byte	0xa9c
 1641 0afa 0D       		.uleb128 0xd
 1642 0afb 34030000 		.4byte	0x334
 1643 0aff 0D       		.uleb128 0xd
 1644 0b00 2C000000 		.4byte	0x2c
 1645 0b04 00       		.byte	0
 1646 0b05 00       		.byte	0
 1647              		.section	.debug_abbrev,"",%progbits
ARM GAS  C:\Users\jo\AppData\Local\Temp\ccRjY7xX.s 			page 30


 1648              	.Ldebug_abbrev0:
 1649 0000 01       		.uleb128 0x1
 1650 0001 11       		.uleb128 0x11
 1651 0002 01       		.byte	0x1
 1652 0003 25       		.uleb128 0x25
 1653 0004 0E       		.uleb128 0xe
 1654 0005 13       		.uleb128 0x13
 1655 0006 0B       		.uleb128 0xb
 1656 0007 03       		.uleb128 0x3
 1657 0008 0E       		.uleb128 0xe
 1658 0009 1B       		.uleb128 0x1b
 1659 000a 0E       		.uleb128 0xe
 1660 000b 55       		.uleb128 0x55
 1661 000c 17       		.uleb128 0x17
 1662 000d 11       		.uleb128 0x11
 1663 000e 01       		.uleb128 0x1
 1664 000f 10       		.uleb128 0x10
 1665 0010 17       		.uleb128 0x17
 1666 0011 00       		.byte	0
 1667 0012 00       		.byte	0
 1668 0013 02       		.uleb128 0x2
 1669 0014 24       		.uleb128 0x24
 1670 0015 00       		.byte	0
 1671 0016 0B       		.uleb128 0xb
 1672 0017 0B       		.uleb128 0xb
 1673 0018 3E       		.uleb128 0x3e
 1674 0019 0B       		.uleb128 0xb
 1675 001a 03       		.uleb128 0x3
 1676 001b 08       		.uleb128 0x8
 1677 001c 00       		.byte	0
 1678 001d 00       		.byte	0
 1679 001e 03       		.uleb128 0x3
 1680 001f 16       		.uleb128 0x16
 1681 0020 00       		.byte	0
 1682 0021 03       		.uleb128 0x3
 1683 0022 0E       		.uleb128 0xe
 1684 0023 3A       		.uleb128 0x3a
 1685 0024 0B       		.uleb128 0xb
 1686 0025 3B       		.uleb128 0x3b
 1687 0026 0B       		.uleb128 0xb
 1688 0027 49       		.uleb128 0x49
 1689 0028 13       		.uleb128 0x13
 1690 0029 00       		.byte	0
 1691 002a 00       		.byte	0
 1692 002b 04       		.uleb128 0x4
 1693 002c 24       		.uleb128 0x24
 1694 002d 00       		.byte	0
 1695 002e 0B       		.uleb128 0xb
 1696 002f 0B       		.uleb128 0xb
 1697 0030 3E       		.uleb128 0x3e
 1698 0031 0B       		.uleb128 0xb
 1699 0032 03       		.uleb128 0x3
 1700 0033 0E       		.uleb128 0xe
 1701 0034 00       		.byte	0
 1702 0035 00       		.byte	0
 1703 0036 05       		.uleb128 0x5
 1704 0037 35       		.uleb128 0x35
ARM GAS  C:\Users\jo\AppData\Local\Temp\ccRjY7xX.s 			page 31


 1705 0038 00       		.byte	0
 1706 0039 49       		.uleb128 0x49
 1707 003a 13       		.uleb128 0x13
 1708 003b 00       		.byte	0
 1709 003c 00       		.byte	0
 1710 003d 06       		.uleb128 0x6
 1711 003e 13       		.uleb128 0x13
 1712 003f 01       		.byte	0x1
 1713 0040 03       		.uleb128 0x3
 1714 0041 0E       		.uleb128 0xe
 1715 0042 0B       		.uleb128 0xb
 1716 0043 0B       		.uleb128 0xb
 1717 0044 3A       		.uleb128 0x3a
 1718 0045 0B       		.uleb128 0xb
 1719 0046 3B       		.uleb128 0x3b
 1720 0047 0B       		.uleb128 0xb
 1721 0048 01       		.uleb128 0x1
 1722 0049 13       		.uleb128 0x13
 1723 004a 00       		.byte	0
 1724 004b 00       		.byte	0
 1725 004c 07       		.uleb128 0x7
 1726 004d 0D       		.uleb128 0xd
 1727 004e 00       		.byte	0
 1728 004f 03       		.uleb128 0x3
 1729 0050 0E       		.uleb128 0xe
 1730 0051 3A       		.uleb128 0x3a
 1731 0052 0B       		.uleb128 0xb
 1732 0053 3B       		.uleb128 0x3b
 1733 0054 0B       		.uleb128 0xb
 1734 0055 49       		.uleb128 0x49
 1735 0056 13       		.uleb128 0x13
 1736 0057 38       		.uleb128 0x38
 1737 0058 0B       		.uleb128 0xb
 1738 0059 00       		.byte	0
 1739 005a 00       		.byte	0
 1740 005b 08       		.uleb128 0x8
 1741 005c 0D       		.uleb128 0xd
 1742 005d 00       		.byte	0
 1743 005e 03       		.uleb128 0x3
 1744 005f 08       		.uleb128 0x8
 1745 0060 3A       		.uleb128 0x3a
 1746 0061 0B       		.uleb128 0xb
 1747 0062 3B       		.uleb128 0x3b
 1748 0063 05       		.uleb128 0x5
 1749 0064 49       		.uleb128 0x49
 1750 0065 13       		.uleb128 0x13
 1751 0066 38       		.uleb128 0x38
 1752 0067 0B       		.uleb128 0xb
 1753 0068 00       		.byte	0
 1754 0069 00       		.byte	0
 1755 006a 09       		.uleb128 0x9
 1756 006b 0D       		.uleb128 0xd
 1757 006c 00       		.byte	0
 1758 006d 03       		.uleb128 0x3
 1759 006e 0E       		.uleb128 0xe
 1760 006f 3A       		.uleb128 0x3a
 1761 0070 0B       		.uleb128 0xb
ARM GAS  C:\Users\jo\AppData\Local\Temp\ccRjY7xX.s 			page 32


 1762 0071 3B       		.uleb128 0x3b
 1763 0072 05       		.uleb128 0x5
 1764 0073 49       		.uleb128 0x49
 1765 0074 13       		.uleb128 0x13
 1766 0075 38       		.uleb128 0x38
 1767 0076 0B       		.uleb128 0xb
 1768 0077 00       		.byte	0
 1769 0078 00       		.byte	0
 1770 0079 0A       		.uleb128 0xa
 1771 007a 13       		.uleb128 0x13
 1772 007b 01       		.byte	0x1
 1773 007c 03       		.uleb128 0x3
 1774 007d 0E       		.uleb128 0xe
 1775 007e 0B       		.uleb128 0xb
 1776 007f 0B       		.uleb128 0xb
 1777 0080 3A       		.uleb128 0x3a
 1778 0081 0B       		.uleb128 0xb
 1779 0082 3B       		.uleb128 0x3b
 1780 0083 05       		.uleb128 0x5
 1781 0084 01       		.uleb128 0x1
 1782 0085 13       		.uleb128 0x13
 1783 0086 00       		.byte	0
 1784 0087 00       		.byte	0
 1785 0088 0B       		.uleb128 0xb
 1786 0089 0F       		.uleb128 0xf
 1787 008a 00       		.byte	0
 1788 008b 0B       		.uleb128 0xb
 1789 008c 0B       		.uleb128 0xb
 1790 008d 49       		.uleb128 0x49
 1791 008e 13       		.uleb128 0x13
 1792 008f 00       		.byte	0
 1793 0090 00       		.byte	0
 1794 0091 0C       		.uleb128 0xc
 1795 0092 15       		.uleb128 0x15
 1796 0093 01       		.byte	0x1
 1797 0094 27       		.uleb128 0x27
 1798 0095 19       		.uleb128 0x19
 1799 0096 01       		.uleb128 0x1
 1800 0097 13       		.uleb128 0x13
 1801 0098 00       		.byte	0
 1802 0099 00       		.byte	0
 1803 009a 0D       		.uleb128 0xd
 1804 009b 05       		.uleb128 0x5
 1805 009c 00       		.byte	0
 1806 009d 49       		.uleb128 0x49
 1807 009e 13       		.uleb128 0x13
 1808 009f 00       		.byte	0
 1809 00a0 00       		.byte	0
 1810 00a1 0E       		.uleb128 0xe
 1811 00a2 0F       		.uleb128 0xf
 1812 00a3 00       		.byte	0
 1813 00a4 0B       		.uleb128 0xb
 1814 00a5 0B       		.uleb128 0xb
 1815 00a6 00       		.byte	0
 1816 00a7 00       		.byte	0
 1817 00a8 0F       		.uleb128 0xf
 1818 00a9 13       		.uleb128 0x13
ARM GAS  C:\Users\jo\AppData\Local\Temp\ccRjY7xX.s 			page 33


 1819 00aa 01       		.byte	0x1
 1820 00ab 03       		.uleb128 0x3
 1821 00ac 0E       		.uleb128 0xe
 1822 00ad 0B       		.uleb128 0xb
 1823 00ae 05       		.uleb128 0x5
 1824 00af 3A       		.uleb128 0x3a
 1825 00b0 0B       		.uleb128 0xb
 1826 00b1 3B       		.uleb128 0x3b
 1827 00b2 05       		.uleb128 0x5
 1828 00b3 01       		.uleb128 0x1
 1829 00b4 13       		.uleb128 0x13
 1830 00b5 00       		.byte	0
 1831 00b6 00       		.byte	0
 1832 00b7 10       		.uleb128 0x10
 1833 00b8 0D       		.uleb128 0xd
 1834 00b9 00       		.byte	0
 1835 00ba 03       		.uleb128 0x3
 1836 00bb 0E       		.uleb128 0xe
 1837 00bc 3A       		.uleb128 0x3a
 1838 00bd 0B       		.uleb128 0xb
 1839 00be 3B       		.uleb128 0x3b
 1840 00bf 05       		.uleb128 0x5
 1841 00c0 49       		.uleb128 0x49
 1842 00c1 13       		.uleb128 0x13
 1843 00c2 38       		.uleb128 0x38
 1844 00c3 05       		.uleb128 0x5
 1845 00c4 00       		.byte	0
 1846 00c5 00       		.byte	0
 1847 00c6 11       		.uleb128 0x11
 1848 00c7 0D       		.uleb128 0xd
 1849 00c8 00       		.byte	0
 1850 00c9 03       		.uleb128 0x3
 1851 00ca 08       		.uleb128 0x8
 1852 00cb 3A       		.uleb128 0x3a
 1853 00cc 0B       		.uleb128 0xb
 1854 00cd 3B       		.uleb128 0x3b
 1855 00ce 05       		.uleb128 0x5
 1856 00cf 49       		.uleb128 0x49
 1857 00d0 13       		.uleb128 0x13
 1858 00d1 38       		.uleb128 0x38
 1859 00d2 05       		.uleb128 0x5
 1860 00d3 00       		.byte	0
 1861 00d4 00       		.byte	0
 1862 00d5 12       		.uleb128 0x12
 1863 00d6 0D       		.uleb128 0xd
 1864 00d7 00       		.byte	0
 1865 00d8 03       		.uleb128 0x3
 1866 00d9 08       		.uleb128 0x8
 1867 00da 3A       		.uleb128 0x3a
 1868 00db 0B       		.uleb128 0xb
 1869 00dc 3B       		.uleb128 0x3b
 1870 00dd 0B       		.uleb128 0xb
 1871 00de 49       		.uleb128 0x49
 1872 00df 13       		.uleb128 0x13
 1873 00e0 38       		.uleb128 0x38
 1874 00e1 0B       		.uleb128 0xb
 1875 00e2 00       		.byte	0
ARM GAS  C:\Users\jo\AppData\Local\Temp\ccRjY7xX.s 			page 34


 1876 00e3 00       		.byte	0
 1877 00e4 13       		.uleb128 0x13
 1878 00e5 15       		.uleb128 0x15
 1879 00e6 00       		.byte	0
 1880 00e7 27       		.uleb128 0x27
 1881 00e8 19       		.uleb128 0x19
 1882 00e9 00       		.byte	0
 1883 00ea 00       		.byte	0
 1884 00eb 14       		.uleb128 0x14
 1885 00ec 26       		.uleb128 0x26
 1886 00ed 00       		.byte	0
 1887 00ee 49       		.uleb128 0x49
 1888 00ef 13       		.uleb128 0x13
 1889 00f0 00       		.byte	0
 1890 00f1 00       		.byte	0
 1891 00f2 15       		.uleb128 0x15
 1892 00f3 13       		.uleb128 0x13
 1893 00f4 01       		.byte	0x1
 1894 00f5 0B       		.uleb128 0xb
 1895 00f6 0B       		.uleb128 0xb
 1896 00f7 3A       		.uleb128 0x3a
 1897 00f8 0B       		.uleb128 0xb
 1898 00f9 3B       		.uleb128 0x3b
 1899 00fa 0B       		.uleb128 0xb
 1900 00fb 01       		.uleb128 0x1
 1901 00fc 13       		.uleb128 0x13
 1902 00fd 00       		.byte	0
 1903 00fe 00       		.byte	0
 1904 00ff 16       		.uleb128 0x16
 1905 0100 13       		.uleb128 0x13
 1906 0101 01       		.byte	0x1
 1907 0102 0B       		.uleb128 0xb
 1908 0103 05       		.uleb128 0x5
 1909 0104 3A       		.uleb128 0x3a
 1910 0105 0B       		.uleb128 0xb
 1911 0106 3B       		.uleb128 0x3b
 1912 0107 0B       		.uleb128 0xb
 1913 0108 01       		.uleb128 0x1
 1914 0109 13       		.uleb128 0x13
 1915 010a 00       		.byte	0
 1916 010b 00       		.byte	0
 1917 010c 17       		.uleb128 0x17
 1918 010d 01       		.uleb128 0x1
 1919 010e 01       		.byte	0x1
 1920 010f 49       		.uleb128 0x49
 1921 0110 13       		.uleb128 0x13
 1922 0111 01       		.uleb128 0x1
 1923 0112 13       		.uleb128 0x13
 1924 0113 00       		.byte	0
 1925 0114 00       		.byte	0
 1926 0115 18       		.uleb128 0x18
 1927 0116 21       		.uleb128 0x21
 1928 0117 00       		.byte	0
 1929 0118 49       		.uleb128 0x49
 1930 0119 13       		.uleb128 0x13
 1931 011a 2F       		.uleb128 0x2f
 1932 011b 0B       		.uleb128 0xb
ARM GAS  C:\Users\jo\AppData\Local\Temp\ccRjY7xX.s 			page 35


 1933 011c 00       		.byte	0
 1934 011d 00       		.byte	0
 1935 011e 19       		.uleb128 0x19
 1936 011f 17       		.uleb128 0x17
 1937 0120 01       		.byte	0x1
 1938 0121 0B       		.uleb128 0xb
 1939 0122 0B       		.uleb128 0xb
 1940 0123 3A       		.uleb128 0x3a
 1941 0124 0B       		.uleb128 0xb
 1942 0125 3B       		.uleb128 0x3b
 1943 0126 0B       		.uleb128 0xb
 1944 0127 01       		.uleb128 0x1
 1945 0128 13       		.uleb128 0x13
 1946 0129 00       		.byte	0
 1947 012a 00       		.byte	0
 1948 012b 1A       		.uleb128 0x1a
 1949 012c 0D       		.uleb128 0xd
 1950 012d 00       		.byte	0
 1951 012e 03       		.uleb128 0x3
 1952 012f 0E       		.uleb128 0xe
 1953 0130 3A       		.uleb128 0x3a
 1954 0131 0B       		.uleb128 0xb
 1955 0132 3B       		.uleb128 0x3b
 1956 0133 0B       		.uleb128 0xb
 1957 0134 49       		.uleb128 0x49
 1958 0135 13       		.uleb128 0x13
 1959 0136 00       		.byte	0
 1960 0137 00       		.byte	0
 1961 0138 1B       		.uleb128 0x1b
 1962 0139 0D       		.uleb128 0xd
 1963 013a 00       		.byte	0
 1964 013b 03       		.uleb128 0x3
 1965 013c 0E       		.uleb128 0xe
 1966 013d 3A       		.uleb128 0x3a
 1967 013e 0B       		.uleb128 0xb
 1968 013f 3B       		.uleb128 0x3b
 1969 0140 05       		.uleb128 0x5
 1970 0141 49       		.uleb128 0x49
 1971 0142 13       		.uleb128 0x13
 1972 0143 00       		.byte	0
 1973 0144 00       		.byte	0
 1974 0145 1C       		.uleb128 0x1c
 1975 0146 15       		.uleb128 0x15
 1976 0147 01       		.byte	0x1
 1977 0148 27       		.uleb128 0x27
 1978 0149 19       		.uleb128 0x19
 1979 014a 49       		.uleb128 0x49
 1980 014b 13       		.uleb128 0x13
 1981 014c 01       		.uleb128 0x1
 1982 014d 13       		.uleb128 0x13
 1983 014e 00       		.byte	0
 1984 014f 00       		.byte	0
 1985 0150 1D       		.uleb128 0x1d
 1986 0151 2E       		.uleb128 0x2e
 1987 0152 01       		.byte	0x1
 1988 0153 03       		.uleb128 0x3
 1989 0154 0E       		.uleb128 0xe
ARM GAS  C:\Users\jo\AppData\Local\Temp\ccRjY7xX.s 			page 36


 1990 0155 3A       		.uleb128 0x3a
 1991 0156 0B       		.uleb128 0xb
 1992 0157 3B       		.uleb128 0x3b
 1993 0158 0B       		.uleb128 0xb
 1994 0159 27       		.uleb128 0x27
 1995 015a 19       		.uleb128 0x19
 1996 015b 20       		.uleb128 0x20
 1997 015c 0B       		.uleb128 0xb
 1998 015d 01       		.uleb128 0x1
 1999 015e 13       		.uleb128 0x13
 2000 015f 00       		.byte	0
 2001 0160 00       		.byte	0
 2002 0161 1E       		.uleb128 0x1e
 2003 0162 34       		.uleb128 0x34
 2004 0163 00       		.byte	0
 2005 0164 03       		.uleb128 0x3
 2006 0165 08       		.uleb128 0x8
 2007 0166 3A       		.uleb128 0x3a
 2008 0167 0B       		.uleb128 0xb
 2009 0168 3B       		.uleb128 0x3b
 2010 0169 0B       		.uleb128 0xb
 2011 016a 49       		.uleb128 0x49
 2012 016b 13       		.uleb128 0x13
 2013 016c 00       		.byte	0
 2014 016d 00       		.byte	0
 2015 016e 1F       		.uleb128 0x1f
 2016 016f 2E       		.uleb128 0x2e
 2017 0170 01       		.byte	0x1
 2018 0171 03       		.uleb128 0x3
 2019 0172 0E       		.uleb128 0xe
 2020 0173 3A       		.uleb128 0x3a
 2021 0174 0B       		.uleb128 0xb
 2022 0175 3B       		.uleb128 0x3b
 2023 0176 0B       		.uleb128 0xb
 2024 0177 27       		.uleb128 0x27
 2025 0178 19       		.uleb128 0x19
 2026 0179 49       		.uleb128 0x49
 2027 017a 13       		.uleb128 0x13
 2028 017b 11       		.uleb128 0x11
 2029 017c 01       		.uleb128 0x1
 2030 017d 12       		.uleb128 0x12
 2031 017e 06       		.uleb128 0x6
 2032 017f 40       		.uleb128 0x40
 2033 0180 18       		.uleb128 0x18
 2034 0181 9742     		.uleb128 0x2117
 2035 0183 19       		.uleb128 0x19
 2036 0184 01       		.uleb128 0x1
 2037 0185 13       		.uleb128 0x13
 2038 0186 00       		.byte	0
 2039 0187 00       		.byte	0
 2040 0188 20       		.uleb128 0x20
 2041 0189 05       		.uleb128 0x5
 2042 018a 00       		.byte	0
 2043 018b 03       		.uleb128 0x3
 2044 018c 0E       		.uleb128 0xe
 2045 018d 3A       		.uleb128 0x3a
 2046 018e 0B       		.uleb128 0xb
ARM GAS  C:\Users\jo\AppData\Local\Temp\ccRjY7xX.s 			page 37


 2047 018f 3B       		.uleb128 0x3b
 2048 0190 0B       		.uleb128 0xb
 2049 0191 49       		.uleb128 0x49
 2050 0192 13       		.uleb128 0x13
 2051 0193 02       		.uleb128 0x2
 2052 0194 17       		.uleb128 0x17
 2053 0195 00       		.byte	0
 2054 0196 00       		.byte	0
 2055 0197 21       		.uleb128 0x21
 2056 0198 2E       		.uleb128 0x2e
 2057 0199 01       		.byte	0x1
 2058 019a 03       		.uleb128 0x3
 2059 019b 0E       		.uleb128 0xe
 2060 019c 3A       		.uleb128 0x3a
 2061 019d 0B       		.uleb128 0xb
 2062 019e 3B       		.uleb128 0x3b
 2063 019f 0B       		.uleb128 0xb
 2064 01a0 27       		.uleb128 0x27
 2065 01a1 19       		.uleb128 0x19
 2066 01a2 11       		.uleb128 0x11
 2067 01a3 01       		.uleb128 0x1
 2068 01a4 12       		.uleb128 0x12
 2069 01a5 06       		.uleb128 0x6
 2070 01a6 40       		.uleb128 0x40
 2071 01a7 18       		.uleb128 0x18
 2072 01a8 9742     		.uleb128 0x2117
 2073 01aa 19       		.uleb128 0x19
 2074 01ab 01       		.uleb128 0x1
 2075 01ac 13       		.uleb128 0x13
 2076 01ad 00       		.byte	0
 2077 01ae 00       		.byte	0
 2078 01af 22       		.uleb128 0x22
 2079 01b0 898201   		.uleb128 0x4109
 2080 01b3 01       		.byte	0x1
 2081 01b4 11       		.uleb128 0x11
 2082 01b5 01       		.uleb128 0x1
 2083 01b6 9542     		.uleb128 0x2115
 2084 01b8 19       		.uleb128 0x19
 2085 01b9 31       		.uleb128 0x31
 2086 01ba 13       		.uleb128 0x13
 2087 01bb 00       		.byte	0
 2088 01bc 00       		.byte	0
 2089 01bd 23       		.uleb128 0x23
 2090 01be 8A8201   		.uleb128 0x410a
 2091 01c1 00       		.byte	0
 2092 01c2 02       		.uleb128 0x2
 2093 01c3 18       		.uleb128 0x18
 2094 01c4 9142     		.uleb128 0x2111
 2095 01c6 18       		.uleb128 0x18
 2096 01c7 00       		.byte	0
 2097 01c8 00       		.byte	0
 2098 01c9 24       		.uleb128 0x24
 2099 01ca 2E       		.uleb128 0x2e
 2100 01cb 01       		.byte	0x1
 2101 01cc 31       		.uleb128 0x31
 2102 01cd 13       		.uleb128 0x13
 2103 01ce 11       		.uleb128 0x11
ARM GAS  C:\Users\jo\AppData\Local\Temp\ccRjY7xX.s 			page 38


 2104 01cf 01       		.uleb128 0x1
 2105 01d0 12       		.uleb128 0x12
 2106 01d1 06       		.uleb128 0x6
 2107 01d2 40       		.uleb128 0x40
 2108 01d3 18       		.uleb128 0x18
 2109 01d4 9742     		.uleb128 0x2117
 2110 01d6 19       		.uleb128 0x19
 2111 01d7 01       		.uleb128 0x1
 2112 01d8 13       		.uleb128 0x13
 2113 01d9 00       		.byte	0
 2114 01da 00       		.byte	0
 2115 01db 25       		.uleb128 0x25
 2116 01dc 34       		.uleb128 0x34
 2117 01dd 00       		.byte	0
 2118 01de 31       		.uleb128 0x31
 2119 01df 13       		.uleb128 0x13
 2120 01e0 02       		.uleb128 0x2
 2121 01e1 17       		.uleb128 0x17
 2122 01e2 00       		.byte	0
 2123 01e3 00       		.byte	0
 2124 01e4 26       		.uleb128 0x26
 2125 01e5 0B       		.uleb128 0xb
 2126 01e6 01       		.byte	0x1
 2127 01e7 55       		.uleb128 0x55
 2128 01e8 17       		.uleb128 0x17
 2129 01e9 01       		.uleb128 0x1
 2130 01ea 13       		.uleb128 0x13
 2131 01eb 00       		.byte	0
 2132 01ec 00       		.byte	0
 2133 01ed 27       		.uleb128 0x27
 2134 01ee 898201   		.uleb128 0x4109
 2135 01f1 01       		.byte	0x1
 2136 01f2 11       		.uleb128 0x11
 2137 01f3 01       		.uleb128 0x1
 2138 01f4 31       		.uleb128 0x31
 2139 01f5 13       		.uleb128 0x13
 2140 01f6 01       		.uleb128 0x1
 2141 01f7 13       		.uleb128 0x13
 2142 01f8 00       		.byte	0
 2143 01f9 00       		.byte	0
 2144 01fa 28       		.uleb128 0x28
 2145 01fb 898201   		.uleb128 0x4109
 2146 01fe 01       		.byte	0x1
 2147 01ff 11       		.uleb128 0x11
 2148 0200 01       		.uleb128 0x1
 2149 0201 31       		.uleb128 0x31
 2150 0202 13       		.uleb128 0x13
 2151 0203 00       		.byte	0
 2152 0204 00       		.byte	0
 2153 0205 29       		.uleb128 0x29
 2154 0206 34       		.uleb128 0x34
 2155 0207 00       		.byte	0
 2156 0208 03       		.uleb128 0x3
 2157 0209 08       		.uleb128 0x8
 2158 020a 3A       		.uleb128 0x3a
 2159 020b 0B       		.uleb128 0xb
 2160 020c 3B       		.uleb128 0x3b
ARM GAS  C:\Users\jo\AppData\Local\Temp\ccRjY7xX.s 			page 39


 2161 020d 0B       		.uleb128 0xb
 2162 020e 49       		.uleb128 0x49
 2163 020f 13       		.uleb128 0x13
 2164 0210 02       		.uleb128 0x2
 2165 0211 18       		.uleb128 0x18
 2166 0212 00       		.byte	0
 2167 0213 00       		.byte	0
 2168 0214 2A       		.uleb128 0x2a
 2169 0215 34       		.uleb128 0x34
 2170 0216 00       		.byte	0
 2171 0217 03       		.uleb128 0x3
 2172 0218 0E       		.uleb128 0xe
 2173 0219 3A       		.uleb128 0x3a
 2174 021a 0B       		.uleb128 0xb
 2175 021b 3B       		.uleb128 0x3b
 2176 021c 05       		.uleb128 0x5
 2177 021d 49       		.uleb128 0x49
 2178 021e 13       		.uleb128 0x13
 2179 021f 3F       		.uleb128 0x3f
 2180 0220 19       		.uleb128 0x19
 2181 0221 3C       		.uleb128 0x3c
 2182 0222 19       		.uleb128 0x19
 2183 0223 00       		.byte	0
 2184 0224 00       		.byte	0
 2185 0225 2B       		.uleb128 0x2b
 2186 0226 34       		.uleb128 0x34
 2187 0227 00       		.byte	0
 2188 0228 03       		.uleb128 0x3
 2189 0229 08       		.uleb128 0x8
 2190 022a 3A       		.uleb128 0x3a
 2191 022b 0B       		.uleb128 0xb
 2192 022c 3B       		.uleb128 0x3b
 2193 022d 05       		.uleb128 0x5
 2194 022e 49       		.uleb128 0x49
 2195 022f 13       		.uleb128 0x13
 2196 0230 3F       		.uleb128 0x3f
 2197 0231 19       		.uleb128 0x19
 2198 0232 3C       		.uleb128 0x3c
 2199 0233 19       		.uleb128 0x19
 2200 0234 00       		.byte	0
 2201 0235 00       		.byte	0
 2202 0236 2C       		.uleb128 0x2c
 2203 0237 21       		.uleb128 0x21
 2204 0238 00       		.byte	0
 2205 0239 00       		.byte	0
 2206 023a 00       		.byte	0
 2207 023b 2D       		.uleb128 0x2d
 2208 023c 34       		.uleb128 0x34
 2209 023d 00       		.byte	0
 2210 023e 03       		.uleb128 0x3
 2211 023f 08       		.uleb128 0x8
 2212 0240 3A       		.uleb128 0x3a
 2213 0241 0B       		.uleb128 0xb
 2214 0242 3B       		.uleb128 0x3b
 2215 0243 0B       		.uleb128 0xb
 2216 0244 49       		.uleb128 0x49
 2217 0245 13       		.uleb128 0x13
ARM GAS  C:\Users\jo\AppData\Local\Temp\ccRjY7xX.s 			page 40


 2218 0246 3F       		.uleb128 0x3f
 2219 0247 19       		.uleb128 0x19
 2220 0248 3C       		.uleb128 0x3c
 2221 0249 19       		.uleb128 0x19
 2222 024a 00       		.byte	0
 2223 024b 00       		.byte	0
 2224 024c 2E       		.uleb128 0x2e
 2225 024d 34       		.uleb128 0x34
 2226 024e 00       		.byte	0
 2227 024f 03       		.uleb128 0x3
 2228 0250 0E       		.uleb128 0xe
 2229 0251 3A       		.uleb128 0x3a
 2230 0252 0B       		.uleb128 0xb
 2231 0253 3B       		.uleb128 0x3b
 2232 0254 0B       		.uleb128 0xb
 2233 0255 49       		.uleb128 0x49
 2234 0256 13       		.uleb128 0x13
 2235 0257 3F       		.uleb128 0x3f
 2236 0258 19       		.uleb128 0x19
 2237 0259 02       		.uleb128 0x2
 2238 025a 18       		.uleb128 0x18
 2239 025b 00       		.byte	0
 2240 025c 00       		.byte	0
 2241 025d 2F       		.uleb128 0x2f
 2242 025e 2E       		.uleb128 0x2e
 2243 025f 01       		.byte	0x1
 2244 0260 3F       		.uleb128 0x3f
 2245 0261 19       		.uleb128 0x19
 2246 0262 03       		.uleb128 0x3
 2247 0263 0E       		.uleb128 0xe
 2248 0264 3A       		.uleb128 0x3a
 2249 0265 0B       		.uleb128 0xb
 2250 0266 3B       		.uleb128 0x3b
 2251 0267 0B       		.uleb128 0xb
 2252 0268 27       		.uleb128 0x27
 2253 0269 19       		.uleb128 0x19
 2254 026a 3C       		.uleb128 0x3c
 2255 026b 19       		.uleb128 0x19
 2256 026c 01       		.uleb128 0x1
 2257 026d 13       		.uleb128 0x13
 2258 026e 00       		.byte	0
 2259 026f 00       		.byte	0
 2260 0270 30       		.uleb128 0x30
 2261 0271 2E       		.uleb128 0x2e
 2262 0272 01       		.byte	0x1
 2263 0273 3F       		.uleb128 0x3f
 2264 0274 19       		.uleb128 0x19
 2265 0275 03       		.uleb128 0x3
 2266 0276 0E       		.uleb128 0xe
 2267 0277 3A       		.uleb128 0x3a
 2268 0278 0B       		.uleb128 0xb
 2269 0279 3B       		.uleb128 0x3b
 2270 027a 0B       		.uleb128 0xb
 2271 027b 27       		.uleb128 0x27
 2272 027c 19       		.uleb128 0x19
 2273 027d 49       		.uleb128 0x49
 2274 027e 13       		.uleb128 0x13
ARM GAS  C:\Users\jo\AppData\Local\Temp\ccRjY7xX.s 			page 41


 2275 027f 3C       		.uleb128 0x3c
 2276 0280 19       		.uleb128 0x19
 2277 0281 01       		.uleb128 0x1
 2278 0282 13       		.uleb128 0x13
 2279 0283 00       		.byte	0
 2280 0284 00       		.byte	0
 2281 0285 31       		.uleb128 0x31
 2282 0286 2E       		.uleb128 0x2e
 2283 0287 01       		.byte	0x1
 2284 0288 3F       		.uleb128 0x3f
 2285 0289 19       		.uleb128 0x19
 2286 028a 03       		.uleb128 0x3
 2287 028b 0E       		.uleb128 0xe
 2288 028c 3A       		.uleb128 0x3a
 2289 028d 0B       		.uleb128 0xb
 2290 028e 3B       		.uleb128 0x3b
 2291 028f 0B       		.uleb128 0xb
 2292 0290 27       		.uleb128 0x27
 2293 0291 19       		.uleb128 0x19
 2294 0292 3C       		.uleb128 0x3c
 2295 0293 19       		.uleb128 0x19
 2296 0294 00       		.byte	0
 2297 0295 00       		.byte	0
 2298 0296 00       		.byte	0
 2299              		.section	.debug_loc,"",%progbits
 2300              	.Ldebug_loc0:
 2301              	.LLST0:
 2302 0000 00000000 		.4byte	.LVL0
 2303 0004 02000000 		.4byte	.LVL1
 2304 0008 0100     		.2byte	0x1
 2305 000a 50       		.byte	0x50
 2306 000b 02000000 		.4byte	.LVL1
 2307 000f 04000000 		.4byte	.LFE226
 2308 0013 0400     		.2byte	0x4
 2309 0015 F3       		.byte	0xf3
 2310 0016 01       		.uleb128 0x1
 2311 0017 50       		.byte	0x50
 2312 0018 9F       		.byte	0x9f
 2313 0019 00000000 		.4byte	0
 2314 001d 00000000 		.4byte	0
 2315              	.LLST1:
 2316 0021 10000000 		.4byte	.LVL3
 2317 0025 12000000 		.4byte	.LVL4
 2318 0029 0200     		.2byte	0x2
 2319 002b 30       		.byte	0x30
 2320 002c 9F       		.byte	0x9f
 2321 002d 12000000 		.4byte	.LVL4
 2322 0031 24000000 		.4byte	.LVL6
 2323 0035 0500     		.2byte	0x5
 2324 0037 35       		.byte	0x35
 2325 0038 74       		.byte	0x74
 2326 0039 00       		.sleb128 0
 2327 003a 1C       		.byte	0x1c
 2328 003b 9F       		.byte	0x9f
 2329 003c 24000000 		.4byte	.LVL6
 2330 0040 28000000 		.4byte	.LVL7
 2331 0044 0500     		.2byte	0x5
ARM GAS  C:\Users\jo\AppData\Local\Temp\ccRjY7xX.s 			page 42


 2332 0046 36       		.byte	0x36
 2333 0047 74       		.byte	0x74
 2334 0048 00       		.sleb128 0
 2335 0049 1C       		.byte	0x1c
 2336 004a 9F       		.byte	0x9f
 2337 004b 28000000 		.4byte	.LVL7
 2338 004f 40000000 		.4byte	.LVL10
 2339 0053 0500     		.2byte	0x5
 2340 0055 35       		.byte	0x35
 2341 0056 74       		.byte	0x74
 2342 0057 00       		.sleb128 0
 2343 0058 1C       		.byte	0x1c
 2344 0059 9F       		.byte	0x9f
 2345 005a 00000000 		.4byte	0
 2346 005e 00000000 		.4byte	0
 2347              	.LLST2:
 2348 0062 60000000 		.4byte	.LVL13
 2349 0066 72000000 		.4byte	.LVL15
 2350 006a 0500     		.2byte	0x5
 2351 006c 35       		.byte	0x35
 2352 006d 74       		.byte	0x74
 2353 006e 00       		.sleb128 0
 2354 006f 1C       		.byte	0x1c
 2355 0070 9F       		.byte	0x9f
 2356 0071 72000000 		.4byte	.LVL15
 2357 0075 76000000 		.4byte	.LVL16
 2358 0079 0500     		.2byte	0x5
 2359 007b 36       		.byte	0x36
 2360 007c 74       		.byte	0x74
 2361 007d 00       		.sleb128 0
 2362 007e 1C       		.byte	0x1c
 2363 007f 9F       		.byte	0x9f
 2364 0080 76000000 		.4byte	.LVL16
 2365 0084 8C000000 		.4byte	.LVL19
 2366 0088 0500     		.2byte	0x5
 2367 008a 35       		.byte	0x35
 2368 008b 74       		.byte	0x74
 2369 008c 00       		.sleb128 0
 2370 008d 1C       		.byte	0x1c
 2371 008e 9F       		.byte	0x9f
 2372 008f 8E000000 		.4byte	.LVL20
 2373 0093 A2000000 		.4byte	.LVL23
 2374 0097 0500     		.2byte	0x5
 2375 0099 35       		.byte	0x35
 2376 009a 74       		.byte	0x74
 2377 009b 00       		.sleb128 0
 2378 009c 1C       		.byte	0x1c
 2379 009d 9F       		.byte	0x9f
 2380 009e 00000000 		.4byte	0
 2381 00a2 00000000 		.4byte	0
 2382              		.section	.debug_aranges,"",%progbits
 2383 0000 2C000000 		.4byte	0x2c
 2384 0004 0200     		.2byte	0x2
 2385 0006 00000000 		.4byte	.Ldebug_info0
 2386 000a 04       		.byte	0x4
 2387 000b 00       		.byte	0
 2388 000c 0000     		.2byte	0
ARM GAS  C:\Users\jo\AppData\Local\Temp\ccRjY7xX.s 			page 43


 2389 000e 0000     		.2byte	0
 2390 0010 00000000 		.4byte	.LFB226
 2391 0014 04000000 		.4byte	.LFE226-.LFB226
 2392 0018 00000000 		.4byte	.LFB227
 2393 001c 10000000 		.4byte	.LFE227-.LFB227
 2394 0020 00000000 		.4byte	.LFB228
 2395 0024 BC000000 		.4byte	.LFE228-.LFB228
 2396 0028 00000000 		.4byte	0
 2397 002c 00000000 		.4byte	0
 2398              		.section	.debug_ranges,"",%progbits
 2399              	.Ldebug_ranges0:
 2400 0000 40000000 		.4byte	.LBB5
 2401 0004 42000000 		.4byte	.LBE5
 2402 0008 48000000 		.4byte	.LBB6
 2403 000c 9E000000 		.4byte	.LBE6
 2404 0010 A2000000 		.4byte	.LBB7
 2405 0014 BC000000 		.4byte	.LBE7
 2406 0018 00000000 		.4byte	0
 2407 001c 00000000 		.4byte	0
 2408 0020 00000000 		.4byte	.LFB226
 2409 0024 04000000 		.4byte	.LFE226
 2410 0028 00000000 		.4byte	.LFB227
 2411 002c 10000000 		.4byte	.LFE227
 2412 0030 00000000 		.4byte	.LFB228
 2413 0034 BC000000 		.4byte	.LFE228
 2414 0038 00000000 		.4byte	0
 2415 003c 00000000 		.4byte	0
 2416              		.section	.debug_line,"",%progbits
 2417              	.Ldebug_line0:
 2418 0000 C2020000 		.section	.debug_str,"MS",%progbits,1
 2418      02007602 
 2418      00000201 
 2418      FB0E0D00 
 2418      01010101 
 2419              	.LASF98:
 2420 0000 74625F70 		.ascii	"tb_ptr\000"
 2420      747200
 2421              	.LASF54:
 2422 0007 72656164 		.ascii	"ready_list_t\000"
 2422      795F6C69 
 2422      73745F74 
 2422      00
 2423              	.LASF92:
 2424 0014 73655F74 		.ascii	"se_time\000"
 2424      696D6500 
 2425              	.LASF2:
 2426 001c 73697A65 		.ascii	"size_t\000"
 2426      5F7400
 2427              	.LASF113:
 2428 0023 7264796D 		.ascii	"rdymsg\000"
 2428      736700
 2429              	.LASF17:
 2430 002a 75696E74 		.ascii	"uint64_t\000"
 2430      36345F74 
 2430      00
 2431              	.LASF84:
 2432 0033 6B65726E 		.ascii	"kernel_stats\000"
ARM GAS  C:\Users\jo\AppData\Local\Temp\ccRjY7xX.s 			page 44


 2432      656C5F73 
 2432      74617473 
 2432      00
 2433              	.LASF3:
 2434 0040 5F5F7569 		.ascii	"__uint8_t\000"
 2434      6E74385F 
 2434      7400
 2435              	.LASF90:
 2436 004a 706F7274 		.ascii	"port_intctx\000"
 2436      5F696E74 
 2436      63747800 
 2437              	.LASF53:
 2438 0056 63685F74 		.ascii	"ch_threads_queue\000"
 2438      68726561 
 2438      64735F71 
 2438      75657565 
 2438      00
 2439              	.LASF73:
 2440 0067 73797374 		.ascii	"system_debug_t\000"
 2440      656D5F64 
 2440      65627567 
 2440      5F7400
 2441              	.LASF104:
 2442 0076 776F7273 		.ascii	"worst\000"
 2442      7400
 2443              	.LASF107:
 2444 007c 74696D65 		.ascii	"time_measurement_t\000"
 2444      5F6D6561 
 2444      73757265 
 2444      6D656E74 
 2444      5F7400
 2445              	.LASF13:
 2446 008f 6C6F6E67 		.ascii	"long long unsigned int\000"
 2446      206C6F6E 
 2446      6720756E 
 2446      7369676E 
 2446      65642069 
 2447              	.LASF100:
 2448 00a6 63685F74 		.ascii	"ch_trace_buffer_t\000"
 2448      72616365 
 2448      5F627566 
 2448      6665725F 
 2448      7400
 2449              	.LASF95:
 2450 00b8 73655F73 		.ascii	"se_state\000"
 2450      74617465 
 2450      00
 2451              	.LASF114:
 2452 00c1 65786974 		.ascii	"exitcode\000"
 2452      636F6465 
 2452      00
 2453              	.LASF83:
 2454 00ca 6D61696E 		.ascii	"mainthread\000"
 2454      74687265 
 2454      616400
 2455              	.LASF70:
 2456 00d5 76697274 		.ascii	"virtual_timers_list_t\000"
ARM GAS  C:\Users\jo\AppData\Local\Temp\ccRjY7xX.s 			page 45


 2456      75616C5F 
 2456      74696D65 
 2456      72735F6C 
 2456      6973745F 
 2457              	.LASF134:
 2458 00eb 49544D5F 		.ascii	"ITM_RxBuffer\000"
 2458      52784275 
 2458      66666572 
 2458      00
 2459              	.LASF19:
 2460 00f8 72747469 		.ascii	"rttime_t\000"
 2460      6D655F74 
 2460      00
 2461              	.LASF32:
 2462 0101 705F7072 		.ascii	"p_prio\000"
 2462      696F00
 2463              	.LASF144:
 2464 0108 433A5C55 		.ascii	"C:\\Users\\jo\\Documents\\GitHub\\ChibiOS\\demos\\S"
 2464      73657273 
 2464      5C6A6F5C 
 2464      446F6375 
 2464      6D656E74 
 2465 0134 544D3332 		.ascii	"TM32\\RT-STM32F407-DISCOVERY-uHttp\000"
 2465      5C52542D 
 2465      53544D33 
 2465      32463430 
 2465      372D4449 
 2466              	.LASF11:
 2467 0156 6C6F6E67 		.ascii	"long long int\000"
 2467      206C6F6E 
 2467      6720696E 
 2467      7400
 2468              	.LASF1:
 2469 0164 7369676E 		.ascii	"signed char\000"
 2469      65642063 
 2469      68617200 
 2470              	.LASF47:
 2471 0170 705F6D70 		.ascii	"p_mpool\000"
 2471      6F6F6C00 
 2472              	.LASF118:
 2473 0178 6D5F7175 		.ascii	"m_queue\000"
 2473      65756500 
 2474              	.LASF82:
 2475 0180 76746C69 		.ascii	"vtlist\000"
 2475      737400
 2476              	.LASF80:
 2477 0187 63685F73 		.ascii	"ch_system\000"
 2477      79737465 
 2477      6D00
 2478              	.LASF8:
 2479 0191 6C6F6E67 		.ascii	"long int\000"
 2479      20696E74 
 2479      00
 2480              	.LASF21:
 2481 019a 74737461 		.ascii	"tstate_t\000"
 2481      74655F74 
 2481      00
ARM GAS  C:\Users\jo\AppData\Local\Temp\ccRjY7xX.s 			page 46


 2482              	.LASF93:
 2483 01a3 73655F74 		.ascii	"se_tp\000"
 2483      7000
 2484              	.LASF34:
 2485 01a9 705F6E65 		.ascii	"p_newer\000"
 2485      77657200 
 2486              	.LASF97:
 2487 01b1 74625F73 		.ascii	"tb_size\000"
 2487      697A6500 
 2488              	.LASF59:
 2489 01b9 725F6E65 		.ascii	"r_newer\000"
 2489      77657200 
 2490              	.LASF127:
 2491 01c1 6D705F70 		.ascii	"mp_provider\000"
 2491      726F7669 
 2491      64657200 
 2492              	.LASF87:
 2493 01cd 72656761 		.ascii	"regarm_t\000"
 2493      726D5F74 
 2493      00
 2494              	.LASF66:
 2495 01d6 76745F70 		.ascii	"vt_prev\000"
 2495      72657600 
 2496              	.LASF74:
 2497 01de 63685F73 		.ascii	"ch_system_debug\000"
 2497      79737465 
 2497      6D5F6465 
 2497      62756700 
 2498              	.LASF121:
 2499 01ee 6D757465 		.ascii	"mutex_t\000"
 2499      785F7400 
 2500              	.LASF77:
 2501 01f6 6C6F636B 		.ascii	"lock_cnt\000"
 2501      5F636E74 
 2501      00
 2502              	.LASF85:
 2503 01ff 69646C65 		.ascii	"idle_thread_wa\000"
 2503      5F746872 
 2503      6561645F 
 2503      776100
 2504              	.LASF26:
 2505 020e 636E745F 		.ascii	"cnt_t\000"
 2505      7400
 2506              	.LASF37:
 2507 0214 705F7374 		.ascii	"p_stklimit\000"
 2507      6B6C696D 
 2507      697400
 2508              	.LASF0:
 2509 021f 756E7369 		.ascii	"unsigned int\000"
 2509      676E6564 
 2509      20696E74 
 2509      00
 2510              	.LASF65:
 2511 022c 76745F6E 		.ascii	"vt_next\000"
 2511      65787400 
 2512              	.LASF42:
 2513 0234 705F6D73 		.ascii	"p_msgqueue\000"
ARM GAS  C:\Users\jo\AppData\Local\Temp\ccRjY7xX.s 			page 47


 2513      67717565 
 2513      756500
 2514              	.LASF132:
 2515 023f 74656172 		.ascii	"teardown\000"
 2515      646F776E 
 2515      00
 2516              	.LASF128:
 2517 0248 6D656D6F 		.ascii	"memory_pool_t\000"
 2517      72795F70 
 2517      6F6F6C5F 
 2517      7400
 2518              	.LASF108:
 2519 0256 6E5F6972 		.ascii	"n_irq\000"
 2519      7100
 2520              	.LASF130:
 2521 025c 6E616D65 		.ascii	"name\000"
 2521      00
 2522              	.LASF6:
 2523 0261 73686F72 		.ascii	"short unsigned int\000"
 2523      7420756E 
 2523      7369676E 
 2523      65642069 
 2523      6E7400
 2524              	.LASF112:
 2525 0274 6B65726E 		.ascii	"kernel_stats_t\000"
 2525      656C5F73 
 2525      74617473 
 2525      5F7400
 2526              	.LASF50:
 2527 0283 63685F74 		.ascii	"ch_thread\000"
 2527      68726561 
 2527      6400
 2528              	.LASF24:
 2529 028d 6D73675F 		.ascii	"msg_t\000"
 2529      7400
 2530              	.LASF105:
 2531 0293 6C617374 		.ascii	"last\000"
 2531      00
 2532              	.LASF27:
 2533 0298 75636E74 		.ascii	"ucnt_t\000"
 2533      5F7400
 2534              	.LASF79:
 2535 029f 63685F73 		.ascii	"ch_system_t\000"
 2535      79737465 
 2535      6D5F7400 
 2536              	.LASF20:
 2537 02ab 746D6F64 		.ascii	"tmode_t\000"
 2537      655F7400 
 2538              	.LASF137:
 2539 02b3 6368506F 		.ascii	"chPoolObjectInit\000"
 2539      6F6C4F62 
 2539      6A656374 
 2539      496E6974 
 2539      00
 2540              	.LASF111:
 2541 02c4 6D5F6372 		.ascii	"m_crit_isr\000"
 2541      69745F69 
ARM GAS  C:\Users\jo\AppData\Local\Temp\ccRjY7xX.s 			page 48


 2541      737200
 2542              	.LASF55:
 2543 02cf 63685F72 		.ascii	"ch_ready_list\000"
 2543      65616479 
 2543      5F6C6973 
 2543      7400
 2544              	.LASF25:
 2545 02dd 6576656E 		.ascii	"eventmask_t\000"
 2545      746D6173 
 2545      6B5F7400 
 2546              	.LASF7:
 2547 02e9 5F5F696E 		.ascii	"__int32_t\000"
 2547      7433325F 
 2547      7400
 2548              	.LASF142:
 2549 02f3 474E5520 		.ascii	"GNU C 4.9.3 20141119 (release) [ARM/embedded-4_9-br"
 2549      4320342E 
 2549      392E3320 
 2549      32303134 
 2549      31313139 
 2550 0326 616E6368 		.ascii	"anch revision 218278] -mcpu=cortex-m4 -mno-thumb-in"
 2550      20726576 
 2550      6973696F 
 2550      6E203231 
 2550      38323738 
 2551 0359 74657277 		.ascii	"terwork -mthumb -ggdb -O2 -fomit-frame-pointer -fal"
 2551      6F726B20 
 2551      2D6D7468 
 2551      756D6220 
 2551      2D676764 
 2552 038c 69676E2D 		.ascii	"ign-functions=16 -ffunction-sections -fdata-section"
 2552      66756E63 
 2552      74696F6E 
 2552      733D3136 
 2552      202D6666 
 2553 03bf 73202D66 		.ascii	"s -fno-common\000"
 2553      6E6F2D63 
 2553      6F6D6D6F 
 2553      6E00
 2554              	.LASF88:
 2555 03cd 73746B61 		.ascii	"stkalign_t\000"
 2555      6C69676E 
 2555      5F7400
 2556              	.LASF41:
 2557 03d8 705F7761 		.ascii	"p_waiting\000"
 2557      6974696E 
 2557      6700
 2558              	.LASF86:
 2559 03e2 73697A65 		.ascii	"sizetype\000"
 2559      74797065 
 2559      00
 2560              	.LASF71:
 2561 03eb 63685F76 		.ascii	"ch_virtual_timers_list\000"
 2561      69727475 
 2561      616C5F74 
 2561      696D6572 
 2561      735F6C69 
ARM GAS  C:\Users\jo\AppData\Local\Temp\ccRjY7xX.s 			page 49


 2562              	.LASF56:
 2563 0402 725F7175 		.ascii	"r_queue\000"
 2563      65756500 
 2564              	.LASF96:
 2565 040a 63685F73 		.ascii	"ch_swc_event_t\000"
 2565      77635F65 
 2565      76656E74 
 2565      5F7400
 2566              	.LASF72:
 2567 0419 76745F6C 		.ascii	"vt_lasttime\000"
 2567      61737474 
 2567      696D6500 
 2568              	.LASF35:
 2569 0425 705F6F6C 		.ascii	"p_older\000"
 2569      64657200 
 2570              	.LASF58:
 2571 042d 725F6374 		.ascii	"r_ctx\000"
 2571      7800
 2572              	.LASF126:
 2573 0433 6D705F6F 		.ascii	"mp_object_size\000"
 2573      626A6563 
 2573      745F7369 
 2573      7A6500
 2574              	.LASF102:
 2575 0442 746D5F63 		.ascii	"tm_calibration_t\000"
 2575      616C6962 
 2575      72617469 
 2575      6F6E5F74 
 2575      00
 2576              	.LASF131:
 2577 0453 73657475 		.ascii	"setup\000"
 2577      7000
 2578              	.LASF61:
 2579 0459 725F6375 		.ascii	"r_current\000"
 2579      7272656E 
 2579      7400
 2580              	.LASF60:
 2581 0463 725F6F6C 		.ascii	"r_older\000"
 2581      64657200 
 2582              	.LASF136:
 2583 046b 70617474 		.ascii	"patternpools\000"
 2583      65726E70 
 2583      6F6F6C73 
 2583      00
 2584              	.LASF12:
 2585 0478 5F5F7569 		.ascii	"__uint64_t\000"
 2585      6E743634 
 2585      5F7400
 2586              	.LASF106:
 2587 0483 63756D75 		.ascii	"cumulative\000"
 2587      6C617469 
 2587      766500
 2588              	.LASF22:
 2589 048e 74726566 		.ascii	"trefs_t\000"
 2589      735F7400 
 2590              	.LASF99:
 2591 0496 74625F62 		.ascii	"tb_buffer\000"
ARM GAS  C:\Users\jo\AppData\Local\Temp\ccRjY7xX.s 			page 50


 2591      75666665 
 2591      7200
 2592              	.LASF63:
 2593 04a0 76697274 		.ascii	"virtual_timer_t\000"
 2593      75616C5F 
 2593      74696D65 
 2593      725F7400 
 2594              	.LASF31:
 2595 04b0 705F7072 		.ascii	"p_prev\000"
 2595      657600
 2596              	.LASF133:
 2597 04b7 65786563 		.ascii	"execute\000"
 2597      75746500 
 2598              	.LASF23:
 2599 04bf 74707269 		.ascii	"tprio_t\000"
 2599      6F5F7400 
 2600              	.LASF117:
 2601 04c7 6D757465 		.ascii	"mutex\000"
 2601      7800
 2602              	.LASF36:
 2603 04cd 705F6E61 		.ascii	"p_name\000"
 2603      6D6500
 2604              	.LASF109:
 2605 04d4 6E5F6374 		.ascii	"n_ctxswc\000"
 2605      78737763 
 2605      00
 2606              	.LASF141:
 2607 04dd 5F426F6F 		.ascii	"_Bool\000"
 2607      6C00
 2608              	.LASF15:
 2609 04e3 696E7433 		.ascii	"int32_t\000"
 2609      325F7400 
 2610              	.LASF4:
 2611 04eb 756E7369 		.ascii	"unsigned char\000"
 2611      676E6564 
 2611      20636861 
 2611      7200
 2612              	.LASF45:
 2613 04f9 705F6D74 		.ascii	"p_mtxlist\000"
 2613      786C6973 
 2613      7400
 2614              	.LASF5:
 2615 0503 73686F72 		.ascii	"short int\000"
 2615      7420696E 
 2615      7400
 2616              	.LASF38:
 2617 050d 705F7374 		.ascii	"p_state\000"
 2617      61746500 
 2618              	.LASF57:
 2619 0515 725F7072 		.ascii	"r_prio\000"
 2619      696F00
 2620              	.LASF116:
 2621 051c 65776D61 		.ascii	"ewmask\000"
 2621      736B00
 2622              	.LASF30:
 2623 0523 705F6E65 		.ascii	"p_next\000"
 2623      787400
ARM GAS  C:\Users\jo\AppData\Local\Temp\ccRjY7xX.s 			page 51


 2624              	.LASF39:
 2625 052a 705F666C 		.ascii	"p_flags\000"
 2625      61677300 
 2626              	.LASF48:
 2627 0532 705F7374 		.ascii	"p_stats\000"
 2627      61747300 
 2628              	.LASF64:
 2629 053a 63685F76 		.ascii	"ch_virtual_timer\000"
 2629      69727475 
 2629      616C5F74 
 2629      696D6572 
 2629      00
 2630              	.LASF129:
 2631 054b 74657374 		.ascii	"testcase\000"
 2631      63617365 
 2631      00
 2632              	.LASF44:
 2633 0554 705F6570 		.ascii	"p_epending\000"
 2633      656E6469 
 2633      6E6700
 2634              	.LASF16:
 2635 055f 75696E74 		.ascii	"uint32_t\000"
 2635      33325F74 
 2635      00
 2636              	.LASF135:
 2637 0568 74657374 		.ascii	"testpools1\000"
 2637      706F6F6C 
 2637      733100
 2638              	.LASF67:
 2639 0573 76745F64 		.ascii	"vt_delta\000"
 2639      656C7461 
 2639      00
 2640              	.LASF51:
 2641 057c 63685F74 		.ascii	"ch_threads_list\000"
 2641      68726561 
 2641      64735F6C 
 2641      69737400 
 2642              	.LASF10:
 2643 058c 6C6F6E67 		.ascii	"long unsigned int\000"
 2643      20756E73 
 2643      69676E65 
 2643      6420696E 
 2643      7400
 2644              	.LASF91:
 2645 059e 63686172 		.ascii	"char\000"
 2645      00
 2646              	.LASF148:
 2647 05a3 706F6F6C 		.ascii	"pools1_setup\000"
 2647      73315F73 
 2647      65747570 
 2647      00
 2648              	.LASF29:
 2649 05b0 74687265 		.ascii	"thread_t\000"
 2649      61645F74 
 2649      00
 2650              	.LASF103:
 2651 05b9 62657374 		.ascii	"best\000"
ARM GAS  C:\Users\jo\AppData\Local\Temp\ccRjY7xX.s 			page 52


 2651      00
 2652              	.LASF120:
 2653 05be 6D5F6E65 		.ascii	"m_next\000"
 2653      787400
 2654              	.LASF28:
 2655 05c5 73797374 		.ascii	"systime_t\000"
 2655      696D655F 
 2655      7400
 2656              	.LASF46:
 2657 05cf 705F7265 		.ascii	"p_realprio\000"
 2657      616C7072 
 2657      696F00
 2658              	.LASF62:
 2659 05da 76746675 		.ascii	"vtfunc_t\000"
 2659      6E635F74 
 2659      00
 2660              	.LASF9:
 2661 05e3 5F5F7569 		.ascii	"__uint32_t\000"
 2661      6E743332 
 2661      5F7400
 2662              	.LASF75:
 2663 05ee 70616E69 		.ascii	"panic_msg\000"
 2663      635F6D73 
 2663      6700
 2664              	.LASF101:
 2665 05f8 6F666673 		.ascii	"offset\000"
 2665      657400
 2666              	.LASF125:
 2667 05ff 6D705F6E 		.ascii	"mp_next\000"
 2667      65787400 
 2668              	.LASF89:
 2669 0607 636F6E74 		.ascii	"context\000"
 2669      65787400 
 2670              	.LASF43:
 2671 060f 705F6D73 		.ascii	"p_msg\000"
 2671      6700
 2672              	.LASF18:
 2673 0615 7274636E 		.ascii	"rtcnt_t\000"
 2673      745F7400 
 2674              	.LASF122:
 2675 061d 6D656D67 		.ascii	"memgetfunc_t\000"
 2675      65746675 
 2675      6E635F74 
 2675      00
 2676              	.LASF69:
 2677 062a 76745F70 		.ascii	"vt_par\000"
 2677      617200
 2678              	.LASF52:
 2679 0631 74687265 		.ascii	"threads_queue_t\000"
 2679      6164735F 
 2679      71756575 
 2679      655F7400 
 2680              	.LASF123:
 2681 0641 706F6F6C 		.ascii	"pool_header\000"
 2681      5F686561 
 2681      64657200 
 2682              	.LASF40:
ARM GAS  C:\Users\jo\AppData\Local\Temp\ccRjY7xX.s 			page 53


 2683 064d 705F7265 		.ascii	"p_refs\000"
 2683      667300
 2684              	.LASF76:
 2685 0654 6973725F 		.ascii	"isr_cnt\000"
 2685      636E7400 
 2686              	.LASF81:
 2687 065c 726C6973 		.ascii	"rlist\000"
 2687      7400
 2688              	.LASF14:
 2689 0662 75696E74 		.ascii	"uint8_t\000"
 2689      385F7400 
 2690              	.LASF139:
 2691 066a 6368506F 		.ascii	"chPoolAlloc\000"
 2691      6F6C416C 
 2691      6C6F6300 
 2692              	.LASF138:
 2693 0676 6368506F 		.ascii	"chPoolFree\000"
 2693      6F6C4672 
 2693      656500
 2694              	.LASF115:
 2695 0681 77746F62 		.ascii	"wtobjp\000"
 2695      6A7000
 2696              	.LASF124:
 2697 0688 70685F6E 		.ascii	"ph_next\000"
 2697      65787400 
 2698              	.LASF146:
 2699 0690 6E756C6C 		.ascii	"null_provider\000"
 2699      5F70726F 
 2699      76696465 
 2699      7200
 2700              	.LASF147:
 2701 069e 73697A65 		.ascii	"size\000"
 2701      00
 2702              	.LASF140:
 2703 06a3 5F746573 		.ascii	"_test_assert\000"
 2703      745F6173 
 2703      73657274 
 2703      00
 2704              	.LASF143:
 2705 06b0 2E2E2F2E 		.ascii	"../../../test/rt/testpools.c\000"
 2705      2E2F2E2E 
 2705      2F746573 
 2705      742F7274 
 2705      2F746573 
 2706              	.LASF49:
 2707 06cd 74687265 		.ascii	"threads_list_t\000"
 2707      6164735F 
 2707      6C697374 
 2707      5F7400
 2708              	.LASF78:
 2709 06dc 74726163 		.ascii	"trace_buffer\000"
 2709      655F6275 
 2709      66666572 
 2709      00
 2710              	.LASF149:
 2711 06e9 6368506F 		.ascii	"chPoolLoadArray\000"
 2711      6F6C4C6F 
ARM GAS  C:\Users\jo\AppData\Local\Temp\ccRjY7xX.s 			page 54


 2711      61644172 
 2711      72617900 
 2712              	.LASF110:
 2713 06f9 6D5F6372 		.ascii	"m_crit_thd\000"
 2713      69745F74 
 2713      686400
 2714              	.LASF119:
 2715 0704 6D5F6F77 		.ascii	"m_owner\000"
 2715      6E657200 
 2716              	.LASF94:
 2717 070c 73655F77 		.ascii	"se_wtobjp\000"
 2717      746F626A 
 2717      7000
 2718              	.LASF33:
 2719 0716 705F6374 		.ascii	"p_ctx\000"
 2719      7800
 2720              	.LASF68:
 2721 071c 76745F66 		.ascii	"vt_func\000"
 2721      756E6300 
 2722              	.LASF145:
 2723 0724 706F6F6C 		.ascii	"pools1_execute\000"
 2723      73315F65 
 2723      78656375 
 2723      746500
 2724              		.ident	"GCC: (GNU Tools for ARM Embedded Processors) 4.9.3 20141119 (release) [ARM/embedded-4_9-br
ARM GAS  C:\Users\jo\AppData\Local\Temp\ccRjY7xX.s 			page 55


DEFINED SYMBOLS
                            *ABS*:00000000 testpools.c
C:\Users\jo\AppData\Local\Temp\ccRjY7xX.s:19     .text.null_provider:00000000 $t
C:\Users\jo\AppData\Local\Temp\ccRjY7xX.s:24     .text.null_provider:00000000 null_provider
C:\Users\jo\AppData\Local\Temp\ccRjY7xX.s:41     .text.pools1_setup:00000000 $t
C:\Users\jo\AppData\Local\Temp\ccRjY7xX.s:46     .text.pools1_setup:00000000 pools1_setup
C:\Users\jo\AppData\Local\Temp\ccRjY7xX.s:62     .text.pools1_setup:0000000c $d
C:\Users\jo\AppData\Local\Temp\ccRjY7xX.s:67     .text.pools1_execute:00000000 $t
C:\Users\jo\AppData\Local\Temp\ccRjY7xX.s:72     .text.pools1_execute:00000000 pools1_execute
C:\Users\jo\AppData\Local\Temp\ccRjY7xX.s:213    .text.pools1_execute:000000b0 $d
C:\Users\jo\AppData\Local\Temp\ccRjY7xX.s:231    .rodata.patternpools:00000000 patternpools
C:\Users\jo\AppData\Local\Temp\ccRjY7xX.s:247    .rodata.testpools1:00000000 testpools1
C:\Users\jo\AppData\Local\Temp\ccRjY7xX.s:224    .rodata.str1.4:00000000 $d
C:\Users\jo\AppData\Local\Temp\ccRjY7xX.s:228    .rodata.patternpools:00000000 $d
C:\Users\jo\AppData\Local\Temp\ccRjY7xX.s:235    .data.mp1:00000000 $d
C:\Users\jo\AppData\Local\Temp\ccRjY7xX.s:239    .data.mp1:00000000 mp1
C:\Users\jo\AppData\Local\Temp\ccRjY7xX.s:244    .rodata.testpools1:00000000 $d
                     .debug_frame:00000010 $d
C:\Users\jo\AppData\Local\Temp\ccRjY7xX.s:223    .text.pools1_execute:000000bc $t

UNDEFINED SYMBOLS
chPoolObjectInit
chPoolLoadArray
chPoolAlloc
_test_assert
chPoolFree
wa
