ARM GAS  C:\Users\jo\AppData\Local\Temp\ccQFzMgk.s 			page 1


   1              		.syntax unified
   2              		.cpu cortex-m4
   3              		.fpu softvfp
   4              		.eabi_attribute 20, 1
   5              		.eabi_attribute 21, 1
   6              		.eabi_attribute 23, 3
   7              		.eabi_attribute 24, 1
   8              		.eabi_attribute 25, 1
   9              		.eabi_attribute 26, 1
  10              		.eabi_attribute 30, 2
  11              		.eabi_attribute 34, 1
  12              		.eabi_attribute 18, 4
  13              		.thumb
  14              		.file	"testevt.c"
  15              		.text
  16              	.Ltext0:
  17              		.cfi_sections	.debug_frame
  18              		.section	.text.h3,"ax",%progbits
  19              		.align	2
  20              		.p2align 4,,15
  21              		.thumb
  22              		.thumb_func
  23              		.type	h3, %function
  24              	h3:
  25              	.LFB229:
  26              		.file 1 "../../../test/rt/testevt.c"
  27              		.loc 1 82 0
  28              		.cfi_startproc
  29              		@ args = 0, pretend = 0, frame = 0
  30              		@ frame_needed = 0, uses_anonymous_args = 0
  31              		@ link register save eliminated.
  32              	.LVL0:
  33              		.loc 1 82 0
  34 0000 4320     		movs	r0, #67
  35              	.LVL1:
  36 0002 FFF7FEBF 		b	test_emit_token
  37              	.LVL2:
  38              		.cfi_endproc
  39              	.LFE229:
  40              		.size	h3, .-h3
  41 0006 00BFAFF3 		.section	.text.h2,"ax",%progbits
  41      0080AFF3 
  41      0080
  42              		.align	2
  43              		.p2align 4,,15
  44              		.thumb
  45              		.thumb_func
  46              		.type	h2, %function
  47              	h2:
  48              	.LFB228:
  49              		.loc 1 81 0
  50              		.cfi_startproc
  51              		@ args = 0, pretend = 0, frame = 0
  52              		@ frame_needed = 0, uses_anonymous_args = 0
  53              		@ link register save eliminated.
  54              	.LVL3:
  55              		.loc 1 81 0
ARM GAS  C:\Users\jo\AppData\Local\Temp\ccQFzMgk.s 			page 2


  56 0000 4220     		movs	r0, #66
  57              	.LVL4:
  58 0002 FFF7FEBF 		b	test_emit_token
  59              	.LVL5:
  60              		.cfi_endproc
  61              	.LFE228:
  62              		.size	h2, .-h2
  63 0006 00BFAFF3 		.section	.text.h1,"ax",%progbits
  63      0080AFF3 
  63      0080
  64              		.align	2
  65              		.p2align 4,,15
  66              		.thumb
  67              		.thumb_func
  68              		.type	h1, %function
  69              	h1:
  70              	.LFB227:
  71              		.loc 1 80 0
  72              		.cfi_startproc
  73              		@ args = 0, pretend = 0, frame = 0
  74              		@ frame_needed = 0, uses_anonymous_args = 0
  75              		@ link register save eliminated.
  76              	.LVL6:
  77              		.loc 1 80 0
  78 0000 4120     		movs	r0, #65
  79              	.LVL7:
  80 0002 FFF7FEBF 		b	test_emit_token
  81              	.LVL8:
  82              		.cfi_endproc
  83              	.LFE227:
  84              		.size	h1, .-h1
  85 0006 00BFAFF3 		.section	.text.evt1_execute,"ax",%progbits
  85      0080AFF3 
  85      0080
  86              		.align	2
  87              		.p2align 4,,15
  88              		.thumb
  89              		.thumb_func
  90              		.type	evt1_execute, %function
  91              	evt1_execute:
  92              	.LFB230:
  93              		.loc 1 85 0
  94              		.cfi_startproc
  95              		@ args = 0, pretend = 0, frame = 40
  96              		@ frame_needed = 0, uses_anonymous_args = 0
  97              	.LVL9:
  98 0000 10B5     		push	{r4, lr}
  99              		.cfi_def_cfa_offset 8
 100              		.cfi_offset 4, -8
 101              		.cfi_offset 14, -4
 102              	.LBB76:
 103              	.LBB77:
 104              		.file 2 "../../../os/rt/include/chevents.h"
 105              		.loc 2 172 0
 106 0002 1F4C     		ldr	r4, .L10
 107              	.LBE77:
 108              	.LBE76:
ARM GAS  C:\Users\jo\AppData\Local\Temp\ccQFzMgk.s 			page 3


 109              		.loc 1 85 0
 110 0004 8AB0     		sub	sp, sp, #40
 111              		.cfi_def_cfa_offset 48
 112              	.LBB79:
 113              	.LBB80:
 114              		.loc 2 193 0
 115 0006 2046     		mov	r0, r4
 116 0008 6946     		mov	r1, sp
 117 000a 0122     		movs	r2, #1
 118 000c 4FF0FF33 		mov	r3, #-1
 119              	.LBE80:
 120              	.LBE79:
 121              	.LBB82:
 122              	.LBB78:
 123              		.loc 2 172 0
 124 0010 2460     		str	r4, [r4]
 125              	.LVL10:
 126              	.LBE78:
 127              	.LBE82:
 128              	.LBB83:
 129              	.LBB81:
 130              		.loc 2 193 0
 131 0012 FFF7FEFF 		bl	chEvtRegisterMaskWithFlags
 132              	.LVL11:
 133              	.LBE81:
 134              	.LBE83:
 135              	.LBB84:
 136              	.LBB85:
 137 0016 2046     		mov	r0, r4
 138 0018 05A9     		add	r1, sp, #20
 139              	.LVL12:
 140 001a 0222     		movs	r2, #2
 141 001c 4FF0FF33 		mov	r3, #-1
 142 0020 FFF7FEFF 		bl	chEvtRegisterMaskWithFlags
 143              	.LVL13:
 144              	.LBE85:
 145              	.LBE84:
 146              	.LBB86:
 147              	.LBB87:
 148              		.loc 2 226 0
 149 0024 2168     		ldr	r1, [r4]
 150              	.LBE87:
 151              	.LBE86:
 152              		.loc 1 94 0
 153 0026 091B     		subs	r1, r1, r4
 154 0028 18BF     		it	ne
 155 002a 0121     		movne	r1, #1
 156 002c 0120     		movs	r0, #1
 157 002e FFF7FEFF 		bl	_test_assert
 158              	.LVL14:
 159 0032 08B1     		cbz	r0, .L9
 160              	.L4:
 161              		.loc 1 105 0
 162 0034 0AB0     		add	sp, sp, #40
 163              		.cfi_remember_state
 164              		.cfi_def_cfa_offset 8
 165              	.LVL15:
ARM GAS  C:\Users\jo\AppData\Local\Temp\ccQFzMgk.s 			page 4


 166              		@ sp needed
 167 0036 10BD     		pop	{r4, pc}
 168              	.LVL16:
 169              	.L9:
 170              		.cfi_restore_state
 171              		.loc 1 95 0
 172 0038 6946     		mov	r1, sp
 173 003a 2046     		mov	r0, r4
 174 003c FFF7FEFF 		bl	chEvtUnregister
 175              	.LVL17:
 176              	.LBB88:
 177              	.LBB89:
 178              		.loc 2 226 0
 179 0040 2168     		ldr	r1, [r4]
 180              	.LBE89:
 181              	.LBE88:
 182              		.loc 1 96 0
 183 0042 091B     		subs	r1, r1, r4
 184 0044 18BF     		it	ne
 185 0046 0121     		movne	r1, #1
 186 0048 0220     		movs	r0, #2
 187 004a FFF7FEFF 		bl	_test_assert
 188              	.LVL18:
 189 004e 0028     		cmp	r0, #0
 190 0050 F0D1     		bne	.L4
 191              		.loc 1 97 0
 192 0052 05A9     		add	r1, sp, #20
 193              	.LVL19:
 194 0054 2046     		mov	r0, r4
 195 0056 FFF7FEFF 		bl	chEvtUnregister
 196              	.LVL20:
 197              		.loc 1 98 0
 198 005a 2168     		ldr	r1, [r4]
 199 005c 0320     		movs	r0, #3
 200 005e 091B     		subs	r1, r1, r4
 201 0060 B1FA81F1 		clz	r1, r1
 202 0064 4909     		lsrs	r1, r1, #5
 203 0066 FFF7FEFF 		bl	_test_assert
 204              	.LVL21:
 205 006a 0028     		cmp	r0, #0
 206 006c E2D1     		bne	.L4
 207              		.loc 1 103 0
 208 006e 0548     		ldr	r0, .L10+4
 209 0070 0721     		movs	r1, #7
 210 0072 FFF7FEFF 		bl	chEvtDispatch
 211              	.LVL22:
 212              		.loc 1 104 0
 213 0076 0449     		ldr	r1, .L10+8
 214 0078 0420     		movs	r0, #4
 215 007a FFF7FEFF 		bl	_test_assert_sequence
 216              	.LVL23:
 217 007e D9E7     		b	.L4
 218              	.L11:
 219              		.align	2
 220              	.L10:
 221 0080 00000000 		.word	.LANCHOR0
 222 0084 00000000 		.word	.LANCHOR1
ARM GAS  C:\Users\jo\AppData\Local\Temp\ccQFzMgk.s 			page 5


 223 0088 00000000 		.word	.LC0
 224              		.cfi_endproc
 225              	.LFE230:
 226              		.size	evt1_execute, .-evt1_execute
 227 008c AFF30080 		.section	.text.evt1_setup,"ax",%progbits
 228              		.align	2
 229              		.p2align 4,,15
 230              		.thumb
 231              		.thumb_func
 232              		.type	evt1_setup, %function
 233              	evt1_setup:
 234              	.LFB226:
 235              		.loc 1 75 0
 236              		.cfi_startproc
 237              		@ args = 0, pretend = 0, frame = 0
 238              		@ frame_needed = 0, uses_anonymous_args = 0
 239              		@ link register save eliminated.
 240              		.loc 1 77 0
 241 0000 4FF0FF30 		mov	r0, #-1
 242 0004 FFF7FEBF 		b	chEvtGetAndClearEvents
 243              	.LVL24:
 244              		.cfi_endproc
 245              	.LFE226:
 246              		.size	evt1_setup, .-evt1_setup
 247 0008 AFF30080 		.section	.text.evt2_setup,"ax",%progbits
 247      AFF30080 
 248              		.align	2
 249              		.p2align 4,,15
 250              		.thumb
 251              		.thumb_func
 252              		.type	evt2_setup, %function
 253              	evt2_setup:
 254              	.LFB231:
 255              		.loc 1 128 0
 256              		.cfi_startproc
 257              		@ args = 0, pretend = 0, frame = 0
 258              		@ frame_needed = 0, uses_anonymous_args = 0
 259              		@ link register save eliminated.
 260              		.loc 1 130 0
 261 0000 4FF0FF30 		mov	r0, #-1
 262 0004 FFF7FEBF 		b	chEvtGetAndClearEvents
 263              	.LVL25:
 264              		.cfi_endproc
 265              	.LFE231:
 266              		.size	evt2_setup, .-evt2_setup
 267 0008 AFF30080 		.section	.text.evt3_setup,"ax",%progbits
 267      AFF30080 
 268              		.align	2
 269              		.p2align 4,,15
 270              		.thumb
 271              		.thumb_func
 272              		.type	evt3_setup, %function
 273              	evt3_setup:
 274              	.LFB235:
 275              		.loc 1 249 0
 276              		.cfi_startproc
 277              		@ args = 0, pretend = 0, frame = 0
ARM GAS  C:\Users\jo\AppData\Local\Temp\ccQFzMgk.s 			page 6


 278              		@ frame_needed = 0, uses_anonymous_args = 0
 279              		@ link register save eliminated.
 280              		.loc 1 251 0
 281 0000 4FF0FF30 		mov	r0, #-1
 282 0004 FFF7FEBF 		b	chEvtGetAndClearEvents
 283              	.LVL26:
 284              		.cfi_endproc
 285              	.LFE235:
 286              		.size	evt3_setup, .-evt3_setup
 287 0008 AFF30080 		.section	.text.thread2,"ax",%progbits
 287      AFF30080 
 288              		.align	2
 289              		.p2align 4,,15
 290              		.thumb
 291              		.thumb_func
 292              		.type	thread2, %function
 293              	thread2:
 294              	.LFB233:
 295              		.loc 1 140 0
 296              		.cfi_startproc
 297              		@ args = 0, pretend = 0, frame = 0
 298              		@ frame_needed = 0, uses_anonymous_args = 0
 299              	.LVL27:
 300 0000 08B5     		push	{r3, lr}
 301              		.cfi_def_cfa_offset 8
 302              		.cfi_offset 3, -8
 303              		.cfi_offset 14, -4
 304              	.LBB90:
 305              	.LBB91:
 306              		.loc 2 239 0
 307 0002 0021     		movs	r1, #0
 308 0004 0648     		ldr	r0, .L17
 309              	.LVL28:
 310 0006 FFF7FEFF 		bl	chEvtBroadcastFlags
 311              	.LVL29:
 312              	.LBE91:
 313              	.LBE90:
 314              		.loc 1 144 0
 315 000a 4FF4FA70 		mov	r0, #500
 316 000e FFF7FEFF 		bl	chThdSleep
 317              	.LVL30:
 318              	.LBB92:
 319              	.LBB93:
 320              		.loc 2 239 0
 321 0012 0448     		ldr	r0, .L17+4
 322 0014 0021     		movs	r1, #0
 323 0016 FFF7FEFF 		bl	chEvtBroadcastFlags
 324              	.LVL31:
 325              	.LBE93:
 326              	.LBE92:
 327              		.loc 1 147 0
 328 001a 0020     		movs	r0, #0
 329 001c 08BD     		pop	{r3, pc}
 330              	.L18:
 331 001e 00BF     		.align	2
 332              	.L17:
 333 0020 00000000 		.word	.LANCHOR0
ARM GAS  C:\Users\jo\AppData\Local\Temp\ccQFzMgk.s 			page 7


 334 0024 00000000 		.word	.LANCHOR2
 335              		.cfi_endproc
 336              	.LFE233:
 337              		.size	thread2, .-thread2
 338 0028 AFF30080 		.section	.text.thread1,"ax",%progbits
 338      AFF30080 
 339              		.align	2
 340              		.p2align 4,,15
 341              		.thumb
 342              		.thumb_func
 343              		.type	thread1, %function
 344              	thread1:
 345              	.LFB232:
 346              		.loc 1 133 0
 347              		.cfi_startproc
 348              		@ args = 0, pretend = 0, frame = 0
 349              		@ frame_needed = 0, uses_anonymous_args = 0
 350              	.LVL32:
 351 0000 10B5     		push	{r4, lr}
 352              		.cfi_def_cfa_offset 8
 353              		.cfi_offset 4, -8
 354              		.cfi_offset 14, -4
 355              		.loc 1 133 0
 356 0002 0446     		mov	r4, r0
 357              		.loc 1 135 0
 358 0004 4FF4FA70 		mov	r0, #500
 359              	.LVL33:
 360 0008 FFF7FEFF 		bl	chThdSleep
 361              	.LVL34:
 362              		.loc 1 136 0
 363 000c 2046     		mov	r0, r4
 364 000e 0121     		movs	r1, #1
 365 0010 FFF7FEFF 		bl	chEvtSignal
 366              	.LVL35:
 367              		.loc 1 138 0
 368 0014 0020     		movs	r0, #0
 369 0016 10BD     		pop	{r4, pc}
 370              		.cfi_endproc
 371              	.LFE232:
 372              		.size	thread1, .-thread1
 373 0018 AFF30080 		.section	.text.chVTGetSystemTime,"ax",%progbits
 373      AFF30080 
 374              		.align	2
 375              		.p2align 4,,15
 376              		.thumb
 377              		.thumb_func
 378              		.type	chVTGetSystemTime, %function
 379              	chVTGetSystemTime:
 380              	.LFB165:
 381              		.file 3 "../../../os/rt/include/chvt.h"
 382              		.loc 3 245 0
 383              		.cfi_startproc
 384              		@ args = 0, pretend = 0, frame = 0
 385              		@ frame_needed = 0, uses_anonymous_args = 0
 386              	.LVL36:
 387 0000 10B5     		push	{r4, lr}
 388              		.cfi_def_cfa_offset 8
ARM GAS  C:\Users\jo\AppData\Local\Temp\ccQFzMgk.s 			page 8


 389              		.cfi_offset 4, -8
 390              		.cfi_offset 14, -4
 391              	.LBB117:
 392              	.LBB118:
 393              	.LBB119:
 394              	.LBB120:
 395              	.LBB121:
 396              		.file 4 "../../../os/ext/CMSIS/include/core_cmFunc.h"
 397              		.loc 4 546 0
 398 0002 2023     		movs	r3, #32
 399              	@ 546 "../../../os/ext/CMSIS/include/core_cmFunc.h" 1
 400 0004 83F31188 		MSR basepri, r3
 401              	@ 0 "" 2
 402              		.thumb
 403              	.LBE121:
 404              	.LBE120:
 405              	.LBE119:
 406              		.file 5 "../../../os/rt/include/chsys.h"
 407              		.loc 5 300 0
 408 0008 FFF7FEFF 		bl	_stats_start_measure_crit_thd
 409              	.LVL37:
 410              		.loc 5 301 0
 411 000c FFF7FEFF 		bl	_dbg_check_lock
 412              	.LVL38:
 413              	.LBE118:
 414              	.LBE117:
 415              	.LBB122:
 416              	.LBB123:
 417              	.LBB124:
 418              	.LBB125:
 419              		.file 6 "../../../os/hal/ports/STM32/LLD/TIMv1/st_lld.h"
 420              		.loc 6 128 0
 421 0010 4FF08043 		mov	r3, #1073741824
 422 0014 5C6A     		ldr	r4, [r3, #36]
 423              	.LBE125:
 424              	.LBE124:
 425              	.LBE123:
 426              	.LBE122:
 427              	.LBB126:
 428              	.LBB127:
 429              		.loc 5 311 0
 430 0016 FFF7FEFF 		bl	_dbg_check_unlock
 431              	.LVL39:
 432              		.loc 5 312 0
 433 001a FFF7FEFF 		bl	_stats_stop_measure_crit_thd
 434              	.LVL40:
 435              		.loc 5 318 0
 436 001e 094B     		ldr	r3, .L24
 437 0020 9A69     		ldr	r2, [r3, #24]
 438 0022 1B68     		ldr	r3, [r3]
 439 0024 9268     		ldr	r2, [r2, #8]
 440 0026 9B68     		ldr	r3, [r3, #8]
 441 0028 9A42     		cmp	r2, r3
 442 002a 06D2     		bcs	.L22
 443 002c 0648     		ldr	r0, .L24+4
 444 002e FFF7FEFF 		bl	puts
 445              	.LVL41:
ARM GAS  C:\Users\jo\AppData\Local\Temp\ccQFzMgk.s 			page 9


 446              	@ 318 "../../../os/rt/include/chsys.h" 1
 447 0032 00BE     		BKPT #0
 448              	
 449              	@ 0 "" 2
 450              		.thumb
 451 0034 0548     		ldr	r0, .L24+8
 452 0036 FFF7FEFF 		bl	chSysHalt
 453              	.LVL42:
 454              	.L22:
 455              	.LBB128:
 456              	.LBB129:
 457              	.LBB130:
 458              		.loc 4 546 0
 459 003a 0023     		movs	r3, #0
 460              	@ 546 "../../../os/ext/CMSIS/include/core_cmFunc.h" 1
 461 003c 83F31188 		MSR basepri, r3
 462              	@ 0 "" 2
 463              		.thumb
 464              	.LBE130:
 465              	.LBE129:
 466              	.LBE128:
 467              	.LBE127:
 468              	.LBE126:
 469              		.loc 3 253 0
 470 0040 2046     		mov	r0, r4
 471 0042 10BD     		pop	{r4, pc}
 472              	.L25:
 473              		.align	2
 474              	.L24:
 475 0044 00000000 		.word	ch
 476 0048 04000000 		.word	.LC1
 477 004c 00000000 		.word	.LANCHOR3
 478              		.cfi_endproc
 479              	.LFE165:
 480              		.size	chVTGetSystemTime, .-chVTGetSystemTime
 481              		.section	.text.evt3_execute,"ax",%progbits
 482              		.align	2
 483              		.p2align 4,,15
 484              		.thumb
 485              		.thumb_func
 486              		.type	evt3_execute, %function
 487              	evt3_execute:
 488              	.LFB236:
 489              		.loc 1 254 0
 490              		.cfi_startproc
 491              		@ args = 0, pretend = 0, frame = 0
 492              		@ frame_needed = 0, uses_anonymous_args = 0
 493 0000 08B5     		push	{r3, lr}
 494              		.cfi_def_cfa_offset 8
 495              		.cfi_offset 3, -8
 496              		.cfi_offset 14, -4
 497              		.loc 1 260 0
 498 0002 0021     		movs	r1, #0
 499 0004 4FF0FF30 		mov	r0, #-1
 500 0008 FFF7FEFF 		bl	chEvtWaitOneTimeout
 501              	.LVL43:
 502              		.loc 1 261 0
ARM GAS  C:\Users\jo\AppData\Local\Temp\ccQFzMgk.s 			page 10


 503 000c B0FA80F1 		clz	r1, r0
 504 0010 0120     		movs	r0, #1
 505              	.LVL44:
 506 0012 4909     		lsrs	r1, r1, #5
 507 0014 FFF7FEFF 		bl	_test_assert
 508              	.LVL45:
 509 0018 00B1     		cbz	r0, .L31
 510              	.L26:
 511 001a 08BD     		pop	{r3, pc}
 512              	.L31:
 513              		.loc 1 262 0
 514 001c 0146     		mov	r1, r0
 515 001e 4FF0FF30 		mov	r0, #-1
 516 0022 FFF7FEFF 		bl	chEvtWaitAnyTimeout
 517              	.LVL46:
 518              		.loc 1 263 0
 519 0026 B0FA80F1 		clz	r1, r0
 520 002a 0220     		movs	r0, #2
 521              	.LVL47:
 522 002c 4909     		lsrs	r1, r1, #5
 523 002e FFF7FEFF 		bl	_test_assert
 524              	.LVL48:
 525 0032 0028     		cmp	r0, #0
 526 0034 F1D1     		bne	.L26
 527              		.loc 1 264 0
 528 0036 0146     		mov	r1, r0
 529 0038 4FF0FF30 		mov	r0, #-1
 530 003c FFF7FEFF 		bl	chEvtWaitAllTimeout
 531              	.LVL49:
 532              		.loc 1 265 0
 533 0040 B0FA80F1 		clz	r1, r0
 534 0044 0320     		movs	r0, #3
 535              	.LVL50:
 536 0046 4909     		lsrs	r1, r1, #5
 537 0048 FFF7FEFF 		bl	_test_assert
 538              	.LVL51:
 539 004c 0028     		cmp	r0, #0
 540 004e E4D1     		bne	.L26
 541              	.LBB133:
 542              	.LBB134:
 543              		.loc 1 266 0
 544 0050 0A21     		movs	r1, #10
 545 0052 4FF0FF30 		mov	r0, #-1
 546 0056 FFF7FEFF 		bl	chEvtWaitOneTimeout
 547              	.LVL52:
 548              		.loc 1 267 0
 549 005a B0FA80F1 		clz	r1, r0
 550 005e 0420     		movs	r0, #4
 551              	.LVL53:
 552 0060 4909     		lsrs	r1, r1, #5
 553 0062 FFF7FEFF 		bl	_test_assert
 554              	.LVL54:
 555 0066 0028     		cmp	r0, #0
 556 0068 D7D1     		bne	.L26
 557              		.loc 1 268 0
 558 006a 0A21     		movs	r1, #10
 559 006c 4FF0FF30 		mov	r0, #-1
ARM GAS  C:\Users\jo\AppData\Local\Temp\ccQFzMgk.s 			page 11


 560 0070 FFF7FEFF 		bl	chEvtWaitAnyTimeout
 561              	.LVL55:
 562              		.loc 1 269 0
 563 0074 B0FA80F1 		clz	r1, r0
 564 0078 0520     		movs	r0, #5
 565              	.LVL56:
 566 007a 4909     		lsrs	r1, r1, #5
 567 007c FFF7FEFF 		bl	_test_assert
 568              	.LVL57:
 569 0080 0028     		cmp	r0, #0
 570 0082 CAD1     		bne	.L26
 571              		.loc 1 270 0
 572 0084 0A21     		movs	r1, #10
 573 0086 4FF0FF30 		mov	r0, #-1
 574 008a FFF7FEFF 		bl	chEvtWaitAllTimeout
 575              	.LVL58:
 576              	.LBE134:
 577              	.LBE133:
 578              		.loc 1 272 0
 579 008e BDE80840 		pop	{r3, lr}
 580              		.cfi_restore 14
 581              		.cfi_restore 3
 582              		.cfi_def_cfa_offset 0
 583              	.LBB136:
 584              	.LBB135:
 585              		.loc 1 271 0
 586 0092 B0FA80F1 		clz	r1, r0
 587 0096 0620     		movs	r0, #6
 588              	.LVL59:
 589 0098 4909     		lsrs	r1, r1, #5
 590 009a FFF7FEBF 		b	_test_assert
 591              	.LVL60:
 592              	.LBE135:
 593              	.LBE136:
 594              		.cfi_endproc
 595              	.LFE236:
 596              		.size	evt3_execute, .-evt3_execute
 597 009e 00BF     		.section	.text.evt2_execute,"ax",%progbits
 598              		.align	2
 599              		.p2align 4,,15
 600              		.thumb
 601              		.thumb_func
 602              		.type	evt2_execute, %function
 603              	evt2_execute:
 604              	.LFB234:
 605              		.loc 1 149 0
 606              		.cfi_startproc
 607              		@ args = 0, pretend = 0, frame = 40
 608              		@ frame_needed = 0, uses_anonymous_args = 0
 609 0000 2DE9F041 		push	{r4, r5, r6, r7, r8, lr}
 610              		.cfi_def_cfa_offset 24
 611              		.cfi_offset 4, -24
 612              		.cfi_offset 5, -20
 613              		.cfi_offset 6, -16
 614              		.cfi_offset 7, -12
 615              		.cfi_offset 8, -8
 616              		.cfi_offset 14, -4
ARM GAS  C:\Users\jo\AppData\Local\Temp\ccQFzMgk.s 			page 12


 617              		.loc 1 157 0
 618 0004 0720     		movs	r0, #7
 619              		.loc 1 149 0
 620 0006 8CB0     		sub	sp, sp, #48
 621              		.cfi_def_cfa_offset 72
 622              		.loc 1 157 0
 623 0008 FFF7FEFF 		bl	chEvtAddEvents
 624              	.LVL61:
 625              		.loc 1 158 0
 626 000c 4FF0FF30 		mov	r0, #-1
 627 0010 FFF7FEFF 		bl	chEvtWaitOne
 628              	.LVL62:
 629              		.loc 1 159 0
 630 0014 A0F10101 		sub	r1, r0, #1
 631 0018 0120     		movs	r0, #1
 632              	.LVL63:
 633 001a B1FA81F1 		clz	r1, r1
 634              	.LVL64:
 635 001e 4909     		lsrs	r1, r1, #5
 636 0020 FFF7FEFF 		bl	_test_assert
 637              	.LVL65:
 638 0024 10B1     		cbz	r0, .L37
 639              	.L32:
 640              		.loc 1 224 0
 641 0026 0CB0     		add	sp, sp, #48
 642              		.cfi_remember_state
 643              		.cfi_def_cfa_offset 24
 644              		@ sp needed
 645 0028 BDE8F081 		pop	{r4, r5, r6, r7, r8, pc}
 646              	.L37:
 647              		.cfi_restore_state
 648              		.loc 1 160 0
 649 002c 4FF0FF30 		mov	r0, #-1
 650 0030 FFF7FEFF 		bl	chEvtWaitOne
 651              	.LVL66:
 652              		.loc 1 161 0
 653 0034 A0F10201 		sub	r1, r0, #2
 654 0038 0220     		movs	r0, #2
 655              	.LVL67:
 656 003a B1FA81F1 		clz	r1, r1
 657              	.LVL68:
 658 003e 4909     		lsrs	r1, r1, #5
 659 0040 FFF7FEFF 		bl	_test_assert
 660              	.LVL69:
 661 0044 0028     		cmp	r0, #0
 662 0046 EED1     		bne	.L32
 663              		.loc 1 162 0
 664 0048 4FF0FF30 		mov	r0, #-1
 665 004c FFF7FEFF 		bl	chEvtWaitOne
 666              	.LVL70:
 667              		.loc 1 163 0
 668 0050 A0F10401 		sub	r1, r0, #4
 669 0054 0320     		movs	r0, #3
 670              	.LVL71:
 671 0056 B1FA81F1 		clz	r1, r1
 672              	.LVL72:
 673 005a 4909     		lsrs	r1, r1, #5
ARM GAS  C:\Users\jo\AppData\Local\Temp\ccQFzMgk.s 			page 13


 674 005c FFF7FEFF 		bl	_test_assert
 675              	.LVL73:
 676 0060 0028     		cmp	r0, #0
 677 0062 E0D1     		bne	.L32
 678              		.loc 1 164 0
 679 0064 4FF0FF30 		mov	r0, #-1
 680 0068 FFF7FEFF 		bl	chEvtGetAndClearEvents
 681              	.LVL74:
 682              		.loc 1 165 0
 683 006c B0FA80F1 		clz	r1, r0
 684 0070 0420     		movs	r0, #4
 685              	.LVL75:
 686 0072 4909     		lsrs	r1, r1, #5
 687 0074 FFF7FEFF 		bl	_test_assert
 688              	.LVL76:
 689 0078 0028     		cmp	r0, #0
 690 007a D4D1     		bne	.L32
 691              		.loc 1 170 0
 692 007c FFF7FEFF 		bl	test_wait_tick
 693              	.LVL77:
 694              	.LBB177:
 695              	.LBB178:
 696              	.LBB179:
 697              	.LBB180:
 698              	.LBB181:
 699              	.LBB182:
 700              	.LBB183:
 701              		.loc 4 546 0
 702 0080 2023     		movs	r3, #32
 703              	@ 546 "../../../os/ext/CMSIS/include/core_cmFunc.h" 1
 704 0082 83F31188 		MSR basepri, r3
 705              	@ 0 "" 2
 706              		.thumb
 707              	.LBE183:
 708              	.LBE182:
 709              	.LBE181:
 710              		.loc 5 300 0
 711 0086 FFF7FEFF 		bl	_stats_start_measure_crit_thd
 712              	.LVL78:
 713              	.LBE180:
 714              	.LBE179:
 715              	.LBB185:
 716              	.LBB186:
 717              		.loc 5 318 0
 718 008a 804C     		ldr	r4, .L38
 719              	.LBE186:
 720              	.LBE185:
 721              	.LBB191:
 722              	.LBB184:
 723              		.loc 5 301 0
 724 008c FFF7FEFF 		bl	_dbg_check_lock
 725              	.LVL79:
 726              	.LBE184:
 727              	.LBE191:
 728              	.LBB192:
 729              	.LBB193:
 730              	.LBB194:
ARM GAS  C:\Users\jo\AppData\Local\Temp\ccQFzMgk.s 			page 14


 731              	.LBB195:
 732              		.loc 6 128 0
 733 0090 4FF08043 		mov	r3, #1073741824
 734 0094 5D6A     		ldr	r5, [r3, #36]
 735              	.LBE195:
 736              	.LBE194:
 737              	.LBE193:
 738              	.LBE192:
 739              	.LBB196:
 740              	.LBB190:
 741              		.loc 5 311 0
 742 0096 FFF7FEFF 		bl	_dbg_check_unlock
 743              	.LVL80:
 744              		.loc 5 312 0
 745 009a FFF7FEFF 		bl	_stats_stop_measure_crit_thd
 746              	.LVL81:
 747              		.loc 5 318 0
 748 009e A269     		ldr	r2, [r4, #24]
 749 00a0 2368     		ldr	r3, [r4]
 750 00a2 9268     		ldr	r2, [r2, #8]
 751 00a4 9B68     		ldr	r3, [r3, #8]
 752 00a6 9A42     		cmp	r2, r3
 753 00a8 06D2     		bcs	.L34
 754 00aa 7948     		ldr	r0, .L38+4
 755 00ac FFF7FEFF 		bl	puts
 756              	.LVL82:
 757              	@ 318 "../../../os/rt/include/chsys.h" 1
 758 00b0 00BE     		BKPT #0
 759              	
 760              	@ 0 "" 2
 761              		.thumb
 762 00b2 7848     		ldr	r0, .L38+8
 763 00b4 FFF7FEFF 		bl	chSysHalt
 764              	.LVL83:
 765              	.L34:
 766              	.LBB187:
 767              	.LBB188:
 768              	.LBB189:
 769              		.loc 4 546 0
 770 00b8 0023     		movs	r3, #0
 771              	@ 546 "../../../os/ext/CMSIS/include/core_cmFunc.h" 1
 772 00ba 83F31188 		MSR basepri, r3
 773              	@ 0 "" 2
 774              	.LVL84:
 775              		.thumb
 776              	.LBE189:
 777              	.LBE188:
 778              	.LBE187:
 779              	.LBE190:
 780              	.LBE196:
 781              	.LBE178:
 782              	.LBE177:
 783              		.loc 1 172 0
 784 00be 764B     		ldr	r3, .L38+12
 785              	.LBB197:
 786              	.LBB198:
 787              	.LBB199:
ARM GAS  C:\Users\jo\AppData\Local\Temp\ccQFzMgk.s 			page 15


 788              	.LBB200:
 789              		.file 7 "../../../os/rt/include/chthreads.h"
 790              		.loc 7 179 0
 791 00c0 A169     		ldr	r1, [r4, #24]
 792              	.LBE200:
 793              	.LBE199:
 794              	.LBE198:
 795              	.LBE197:
 796              		.loc 1 172 0
 797 00c2 1E68     		ldr	r6, [r3]
 798 00c4 8A68     		ldr	r2, [r1, #8]
 799 00c6 754B     		ldr	r3, .L38+16
 800 00c8 0091     		str	r1, [sp]
 801 00ca 013A     		subs	r2, r2, #1
 802 00cc 4FF4B471 		mov	r1, #360
 803 00d0 3046     		mov	r0, r6
 804 00d2 FFF7FEFF 		bl	chThdCreateStatic
 805              	.LVL85:
 806 00d6 724C     		ldr	r4, .L38+20
 807              	.LBB204:
 808              	.LBB203:
 809              	.LBB202:
 810              	.LBB201:
 811              		.loc 7 179 0
 812 00d8 6C4F     		ldr	r7, .L38
 813              	.LBE201:
 814              	.LBE202:
 815              	.LBE203:
 816              	.LBE204:
 817              		.loc 1 172 0
 818 00da 2060     		str	r0, [r4]
 819              		.loc 1 174 0
 820 00dc 4FF0FF30 		mov	r0, #-1
 821 00e0 FFF7FEFF 		bl	chEvtWaitOne
 822              	.LVL86:
 823              		.loc 1 175 0
 824 00e4 05F5FA71 		add	r1, r5, #500
 825              	.LVL87:
 826              		.loc 1 174 0
 827 00e8 8046     		mov	r8, r0
 828              	.LVL88:
 829              		.loc 1 175 0
 830 00ea 05F22622 		addw	r2, r5, #550
 831 00ee 0520     		movs	r0, #5
 832              	.LVL89:
 833 00f0 FFF7FEFF 		bl	_test_assert_time_window
 834              	.LVL90:
 835 00f4 0028     		cmp	r0, #0
 836 00f6 96D1     		bne	.L32
 837              		.loc 1 176 0
 838 00f8 A8F10101 		sub	r1, r8, #1
 839 00fc 0620     		movs	r0, #6
 840 00fe B1FA81F1 		clz	r1, r1
 841 0102 4909     		lsrs	r1, r1, #5
 842 0104 FFF7FEFF 		bl	_test_assert
 843              	.LVL91:
 844 0108 0028     		cmp	r0, #0
ARM GAS  C:\Users\jo\AppData\Local\Temp\ccQFzMgk.s 			page 16


 845 010a 8CD1     		bne	.L32
 846              		.loc 1 177 0
 847 010c 4FF0FF30 		mov	r0, #-1
 848 0110 FFF7FEFF 		bl	chEvtGetAndClearEvents
 849              	.LVL92:
 850              		.loc 1 178 0
 851 0114 B0FA80F1 		clz	r1, r0
 852 0118 0720     		movs	r0, #7
 853              	.LVL93:
 854 011a 4909     		lsrs	r1, r1, #5
 855 011c FFF7FEFF 		bl	_test_assert
 856              	.LVL94:
 857 0120 0028     		cmp	r0, #0
 858 0122 80D1     		bne	.L32
 859              		.loc 1 179 0
 860 0124 FFF7FEFF 		bl	test_wait_threads
 861              	.LVL95:
 862              		.loc 1 184 0
 863 0128 0520     		movs	r0, #5
 864 012a FFF7FEFF 		bl	chEvtAddEvents
 865              	.LVL96:
 866              		.loc 1 185 0
 867 012e 4FF0FF30 		mov	r0, #-1
 868 0132 FFF7FEFF 		bl	chEvtWaitAny
 869              	.LVL97:
 870              		.loc 1 186 0
 871 0136 451F     		subs	r5, r0, #5
 872              	.LVL98:
 873 0138 6942     		rsbs	r1, r5, #0
 874 013a 6941     		adcs	r1, r1, r5
 875 013c 0820     		movs	r0, #8
 876              	.LVL99:
 877 013e FFF7FEFF 		bl	_test_assert
 878              	.LVL100:
 879 0142 0028     		cmp	r0, #0
 880 0144 7FF46FAF 		bne	.L32
 881              		.loc 1 187 0
 882 0148 4FF0FF30 		mov	r0, #-1
 883 014c FFF7FEFF 		bl	chEvtGetAndClearEvents
 884              	.LVL101:
 885              		.loc 1 188 0
 886 0150 B0FA80F1 		clz	r1, r0
 887 0154 0920     		movs	r0, #9
 888              	.LVL102:
 889 0156 4909     		lsrs	r1, r1, #5
 890 0158 FFF7FEFF 		bl	_test_assert
 891              	.LVL103:
 892 015c 0028     		cmp	r0, #0
 893 015e 7FF462AF 		bne	.L32
 894              		.loc 1 193 0
 895 0162 FFF7FEFF 		bl	test_wait_tick
 896              	.LVL104:
 897              		.loc 1 194 0
 898 0166 FFF7FEFF 		bl	chVTGetSystemTime
 899              	.LVL105:
 900              	.LBB205:
 901              	.LBB206:
ARM GAS  C:\Users\jo\AppData\Local\Temp\ccQFzMgk.s 			page 17


 902              	.LBB207:
 903              	.LBB208:
 904              		.loc 7 179 0
 905 016a B969     		ldr	r1, [r7, #24]
 906              	.LBE208:
 907              	.LBE207:
 908              	.LBE206:
 909              	.LBE205:
 910              		.loc 1 195 0
 911 016c 4B4B     		ldr	r3, .L38+16
 912 016e 8A68     		ldr	r2, [r1, #8]
 913 0170 0091     		str	r1, [sp]
 914              		.loc 1 194 0
 915 0172 0546     		mov	r5, r0
 916              	.LVL106:
 917              		.loc 1 195 0
 918 0174 013A     		subs	r2, r2, #1
 919 0176 4FF4B471 		mov	r1, #360
 920 017a 3046     		mov	r0, r6
 921              	.LVL107:
 922 017c FFF7FEFF 		bl	chThdCreateStatic
 923              	.LVL108:
 924 0180 2060     		str	r0, [r4]
 925              		.loc 1 197 0
 926 0182 4FF0FF30 		mov	r0, #-1
 927 0186 FFF7FEFF 		bl	chEvtWaitAny
 928              	.LVL109:
 929              		.loc 1 198 0
 930 018a 05F5FA71 		add	r1, r5, #500
 931              	.LVL110:
 932              		.loc 1 197 0
 933 018e 8046     		mov	r8, r0
 934              	.LVL111:
 935              		.loc 1 198 0
 936 0190 05F22622 		addw	r2, r5, #550
 937 0194 0A20     		movs	r0, #10
 938              	.LVL112:
 939 0196 FFF7FEFF 		bl	_test_assert_time_window
 940              	.LVL113:
 941 019a 0028     		cmp	r0, #0
 942 019c 7FF443AF 		bne	.L32
 943              		.loc 1 199 0
 944 01a0 08F1FF30 		add	r0, r8, #-1
 945 01a4 4142     		rsbs	r1, r0, #0
 946 01a6 4141     		adcs	r1, r1, r0
 947 01a8 0B20     		movs	r0, #11
 948 01aa FFF7FEFF 		bl	_test_assert
 949              	.LVL114:
 950 01ae 0028     		cmp	r0, #0
 951 01b0 7FF439AF 		bne	.L32
 952              		.loc 1 200 0
 953 01b4 4FF0FF30 		mov	r0, #-1
 954 01b8 FFF7FEFF 		bl	chEvtGetAndClearEvents
 955              	.LVL115:
 956              		.loc 1 201 0
 957 01bc B0FA80F1 		clz	r1, r0
 958 01c0 0C20     		movs	r0, #12
ARM GAS  C:\Users\jo\AppData\Local\Temp\ccQFzMgk.s 			page 18


 959              	.LVL116:
 960 01c2 4909     		lsrs	r1, r1, #5
 961 01c4 FFF7FEFF 		bl	_test_assert
 962              	.LVL117:
 963 01c8 0028     		cmp	r0, #0
 964 01ca 7FF42CAF 		bne	.L32
 965              	.LBB209:
 966              	.LBB210:
 967              		.loc 2 172 0
 968 01ce 354D     		ldr	r5, .L38+24
 969              	.LVL118:
 970              	.LBE210:
 971              	.LBE209:
 972              	.LBB212:
 973              	.LBB213:
 974 01d0 DFF8DC80 		ldr	r8, .L38+36
 975              	.LBE213:
 976              	.LBE212:
 977              		.loc 1 202 0
 978 01d4 FFF7FEFF 		bl	test_wait_threads
 979              	.LVL119:
 980              	.LBB215:
 981              	.LBB216:
 982              		.loc 2 193 0
 983 01d8 2846     		mov	r0, r5
 984 01da 02A9     		add	r1, sp, #8
 985 01dc 0122     		movs	r2, #1
 986 01de 4FF0FF33 		mov	r3, #-1
 987              	.LBE216:
 988              	.LBE215:
 989              	.LBB218:
 990              	.LBB214:
 991              		.loc 2 172 0
 992 01e2 C8F80080 		str	r8, [r8]
 993              	.LBE214:
 994              	.LBE218:
 995              	.LBB219:
 996              	.LBB211:
 997 01e6 2D60     		str	r5, [r5]
 998              	.LVL120:
 999              	.LBE211:
 1000              	.LBE219:
 1001              	.LBB220:
 1002              	.LBB217:
 1003              		.loc 2 193 0
 1004 01e8 FFF7FEFF 		bl	chEvtRegisterMaskWithFlags
 1005              	.LVL121:
 1006              	.LBE217:
 1007              	.LBE220:
 1008              	.LBB221:
 1009              	.LBB222:
 1010 01ec 07A9     		add	r1, sp, #28
 1011              	.LVL122:
 1012 01ee 0422     		movs	r2, #4
 1013 01f0 4FF0FF33 		mov	r3, #-1
 1014 01f4 4046     		mov	r0, r8
 1015 01f6 FFF7FEFF 		bl	chEvtRegisterMaskWithFlags
ARM GAS  C:\Users\jo\AppData\Local\Temp\ccQFzMgk.s 			page 19


 1016              	.LVL123:
 1017              	.LBE222:
 1018              	.LBE221:
 1019              		.loc 1 211 0
 1020 01fa FFF7FEFF 		bl	test_wait_tick
 1021              	.LVL124:
 1022              		.loc 1 212 0
 1023 01fe FFF7FEFF 		bl	chVTGetSystemTime
 1024              	.LVL125:
 1025              	.LBB223:
 1026              	.LBB224:
 1027              		.loc 7 192 0
 1028 0202 BB69     		ldr	r3, [r7, #24]
 1029              	.LBE224:
 1030              	.LBE223:
 1031              		.loc 1 213 0
 1032 0204 2849     		ldr	r1, .L38+28
 1033 0206 9A68     		ldr	r2, [r3, #8]
 1034 0208 284B     		ldr	r3, .L38+32
 1035 020a 0091     		str	r1, [sp]
 1036              		.loc 1 212 0
 1037 020c 8046     		mov	r8, r0
 1038              	.LVL126:
 1039              		.loc 1 213 0
 1040 020e 013A     		subs	r2, r2, #1
 1041 0210 4FF4B471 		mov	r1, #360
 1042 0214 3046     		mov	r0, r6
 1043              	.LVL127:
 1044 0216 FFF7FEFF 		bl	chThdCreateStatic
 1045              	.LVL128:
 1046 021a 2060     		str	r0, [r4]
 1047              		.loc 1 215 0
 1048 021c 0520     		movs	r0, #5
 1049 021e FFF7FEFF 		bl	chEvtWaitAll
 1050              	.LVL129:
 1051              		.loc 1 216 0
 1052 0222 08F5FA71 		add	r1, r8, #500
 1053              	.LVL130:
 1054 0226 08F22622 		addw	r2, r8, #550
 1055 022a 0D20     		movs	r0, #13
 1056 022c FFF7FEFF 		bl	_test_assert_time_window
 1057              	.LVL131:
 1058 0230 0028     		cmp	r0, #0
 1059 0232 7FF4F8AE 		bne	.L32
 1060              		.loc 1 217 0
 1061 0236 4FF0FF30 		mov	r0, #-1
 1062 023a FFF7FEFF 		bl	chEvtGetAndClearEvents
 1063              	.LVL132:
 1064              		.loc 1 218 0
 1065 023e B0FA80F1 		clz	r1, r0
 1066 0242 0E20     		movs	r0, #14
 1067              	.LVL133:
 1068 0244 4909     		lsrs	r1, r1, #5
 1069 0246 FFF7FEFF 		bl	_test_assert
 1070              	.LVL134:
 1071 024a 0028     		cmp	r0, #0
 1072 024c 7FF4EBAE 		bne	.L32
ARM GAS  C:\Users\jo\AppData\Local\Temp\ccQFzMgk.s 			page 20


 1073              		.loc 1 221 0
 1074 0250 174C     		ldr	r4, .L38+36
 1075              		.loc 1 219 0
 1076 0252 FFF7FEFF 		bl	test_wait_threads
 1077              	.LVL135:
 1078              		.loc 1 220 0
 1079 0256 02A9     		add	r1, sp, #8
 1080              	.LVL136:
 1081 0258 2846     		mov	r0, r5
 1082 025a FFF7FEFF 		bl	chEvtUnregister
 1083              	.LVL137:
 1084              		.loc 1 221 0
 1085 025e 07A9     		add	r1, sp, #28
 1086              	.LVL138:
 1087 0260 2046     		mov	r0, r4
 1088 0262 FFF7FEFF 		bl	chEvtUnregister
 1089              	.LVL139:
 1090              		.loc 1 222 0
 1091 0266 2968     		ldr	r1, [r5]
 1092 0268 4A1B     		subs	r2, r1, r5
 1093 026a 5142     		rsbs	r1, r2, #0
 1094 026c 5141     		adcs	r1, r1, r2
 1095 026e 0F20     		movs	r0, #15
 1096 0270 FFF7FEFF 		bl	_test_assert
 1097              	.LVL140:
 1098 0274 0028     		cmp	r0, #0
 1099 0276 7FF4D6AE 		bne	.L32
 1100              	.LVL141:
 1101              		.loc 1 223 0
 1102 027a 2168     		ldr	r1, [r4]
 1103 027c 0B1B     		subs	r3, r1, r4
 1104 027e 5942     		rsbs	r1, r3, #0
 1105 0280 5941     		adcs	r1, r1, r3
 1106 0282 1020     		movs	r0, #16
 1107 0284 FFF7FEFF 		bl	_test_assert
 1108              	.LVL142:
 1109 0288 CDE6     		b	.L32
 1110              	.L39:
 1111 028a 00BF     		.align	2
 1112              	.L38:
 1113 028c 00000000 		.word	ch
 1114 0290 04000000 		.word	.LC1
 1115 0294 00000000 		.word	.LANCHOR3
 1116 0298 00000000 		.word	wa
 1117 029c 00000000 		.word	thread1
 1118 02a0 00000000 		.word	threads
 1119 02a4 00000000 		.word	.LANCHOR0
 1120 02a8 2C000000 		.word	.LC2
 1121 02ac 00000000 		.word	thread2
 1122 02b0 00000000 		.word	.LANCHOR2
 1123              		.cfi_endproc
 1124              	.LFE234:
 1125              		.size	evt2_execute, .-evt2_execute
 1126              		.global	patternevt
 1127              		.global	testevt3
 1128              		.global	testevt2
 1129              		.global	testevt1
ARM GAS  C:\Users\jo\AppData\Local\Temp\ccQFzMgk.s 			page 21


 1130 02b4 AFF30080 		.section	.rodata.patternevt,"a",%progbits
 1130      AFF30080 
 1130      AFF30080 
 1131              		.align	2
 1132              		.type	patternevt, %object
 1133              		.size	patternevt, 16
 1134              	patternevt:
 1135 0000 00000000 		.word	testevt1
 1136 0004 00000000 		.word	testevt2
 1137 0008 00000000 		.word	testevt3
 1138 000c 00000000 		.word	0
 1139              		.section	.rodata.testevt2,"a",%progbits
 1140              		.align	2
 1141              		.type	testevt2, %object
 1142              		.size	testevt2, 16
 1143              	testevt2:
 1144 0000 44000000 		.word	.LC4
 1145 0004 00000000 		.word	evt2_setup
 1146 0008 00000000 		.word	0
 1147 000c 00000000 		.word	evt2_execute
 1148              		.section	.rodata.str1.4,"aMS",%progbits,1
 1149              		.align	2
 1150              	.LC0:
 1151 0000 41424300 		.ascii	"ABC\000"
 1152              	.LC1:
 1153 0004 7072696F 		.ascii	"priority violation, missing reschedule\000"
 1153      72697479 
 1153      2076696F 
 1153      6C617469 
 1153      6F6E2C20 
 1154 002b 00       		.space	1
 1155              	.LC2:
 1156 002c 4100     		.ascii	"A\000"
 1157 002e 0000     		.space	2
 1158              	.LC3:
 1159 0030 4576656E 		.ascii	"Events, timeouts\000"
 1159      74732C20 
 1159      74696D65 
 1159      6F757473 
 1159      00
 1160 0041 000000   		.space	3
 1161              	.LC4:
 1162 0044 4576656E 		.ascii	"Events, wait and broadcast\000"
 1162      74732C20 
 1162      77616974 
 1162      20616E64 
 1162      2062726F 
 1163 005f 00       		.space	1
 1164              	.LC5:
 1165 0060 4576656E 		.ascii	"Events, registration and dispatch\000"
 1165      74732C20 
 1165      72656769 
 1165      73747261 
 1165      74696F6E 
 1166 0082 0000     		.section	.rodata.testevt1,"a",%progbits
 1167              		.align	2
 1168              		.type	testevt1, %object
ARM GAS  C:\Users\jo\AppData\Local\Temp\ccQFzMgk.s 			page 22


 1169              		.size	testevt1, 16
 1170              	testevt1:
 1171 0000 60000000 		.word	.LC5
 1172 0004 00000000 		.word	evt1_setup
 1173 0008 00000000 		.word	0
 1174 000c 00000000 		.word	evt1_execute
 1175              		.section	.rodata.evhndl,"a",%progbits
 1176              		.align	2
 1177              		.set	.LANCHOR1,. + 0
 1178              		.type	evhndl, %object
 1179              		.size	evhndl, 12
 1180              	evhndl:
 1181 0000 00000000 		.word	h1
 1182 0004 00000000 		.word	h2
 1183 0008 00000000 		.word	h3
 1184              		.section	.rodata.testevt3,"a",%progbits
 1185              		.align	2
 1186              		.type	testevt3, %object
 1187              		.size	testevt3, 16
 1188              	testevt3:
 1189 0000 30000000 		.word	.LC3
 1190 0004 00000000 		.word	evt3_setup
 1191 0008 00000000 		.word	0
 1192 000c 00000000 		.word	evt3_execute
 1193              		.section	.rodata.__func__.6751,"a",%progbits
 1194              		.align	2
 1195              		.set	.LANCHOR3,. + 0
 1196              		.type	__func__.6751, %object
 1197              		.size	__func__.6751, 12
 1198              	__func__.6751:
 1199 0000 63685379 		.ascii	"chSysUnlock\000"
 1199      73556E6C 
 1199      6F636B00 
 1200              		.section	.data.es1,"aw",%progbits
 1201              		.align	2
 1202              		.set	.LANCHOR0,. + 0
 1203              		.type	es1, %object
 1204              		.size	es1, 4
 1205              	es1:
 1206 0000 00000000 		.word	es1
 1207              		.section	.data.es2,"aw",%progbits
 1208              		.align	2
 1209              		.set	.LANCHOR2,. + 0
 1210              		.type	es2, %object
 1211              		.size	es2, 4
 1212              	es2:
 1213 0000 00000000 		.word	es2
 1214              		.text
 1215              	.Letext0:
 1216              		.file 8 "c:\\program files\\gnu tools arm embedded\\4.9 2014q4\\lib\\gcc\\arm-none-eabi\\4.9.3\\in
 1217              		.file 9 "c:\\program files\\gnu tools arm embedded\\4.9 2014q4\\arm-none-eabi\\include\\machine\\_
 1218              		.file 10 "c:\\program files\\gnu tools arm embedded\\4.9 2014q4\\arm-none-eabi\\include\\stdint.h"
 1219              		.file 11 "../../../os/rt/ports/ARMCMx/compilers/GCC/chtypes.h"
 1220              		.file 12 "../../../os/rt/include/chsystypes.h"
 1221              		.file 13 "../../../os/rt/include/chschd.h"
 1222              		.file 14 "../../../os/rt/ports/ARMCMx/chcore.h"
 1223              		.file 15 "../../../os/rt/ports/ARMCMx/chcore_v7m.h"
ARM GAS  C:\Users\jo\AppData\Local\Temp\ccQFzMgk.s 			page 23


 1224              		.file 16 "../../../os/hal/ports/STM32/LLD/TIMv1/stm32_tim.h"
 1225              		.file 17 "../../../os/rt/include/chdebug.h"
 1226              		.file 18 "../../../os/rt/include/chtm.h"
 1227              		.file 19 "../../../os/rt/include/chstats.h"
 1228              		.file 20 "../../../os/rt/include/chmtx.h"
 1229              		.file 21 "../../../test/rt/test.h"
 1230              		.file 22 "../../../os/rt/ports/ARMCMx/chcore_timer.h"
 1231              		.file 23 "../../../os/ext/CMSIS/include/core_cm4.h"
 1232              		.file 24 "<built-in>"