ARM GAS  C:\Users\jo\AppData\Local\Temp\cc063HaK.s 			page 1


   1              		.syntax unified
   2              		.cpu cortex-m4
   3              		.fpu softvfp
   4              		.eabi_attribute 20, 1
   5              		.eabi_attribute 21, 1
   6              		.eabi_attribute 23, 3
   7              		.eabi_attribute 24, 1
   8              		.eabi_attribute 25, 1
   9              		.eabi_attribute 26, 1
  10              		.eabi_attribute 30, 2
  11              		.eabi_attribute 34, 1
  12              		.eabi_attribute 18, 4
  13              		.thumb
  14              		.file	"testmbox.c"
  15              		.text
  16              	.Ltext0:
  17              		.cfi_sections	.debug_frame
  18              		.section	.text.chSysUnlock,"ax",%progbits
  19              		.align	2
  20              		.p2align 4,,15
  21              		.thumb
  22              		.thumb_func
  23              		.type	chSysUnlock, %function
  24              	chSysUnlock:
  25              	.LFB157:
  26              		.file 1 "../../../os/rt/include/chsys.h"
  27              		.loc 1 309 0
  28              		.cfi_startproc
  29              		@ args = 0, pretend = 0, frame = 0
  30              		@ frame_needed = 0, uses_anonymous_args = 0
  31 0000 08B5     		push	{r3, lr}
  32              		.cfi_def_cfa_offset 8
  33              		.cfi_offset 3, -8
  34              		.cfi_offset 14, -4
  35              		.loc 1 311 0
  36 0002 FFF7FEFF 		bl	_dbg_check_unlock
  37              	.LVL0:
  38              		.loc 1 312 0
  39 0006 FFF7FEFF 		bl	_stats_stop_measure_crit_thd
  40              	.LVL1:
  41              		.loc 1 318 0
  42 000a 094B     		ldr	r3, .L5
  43 000c 9A69     		ldr	r2, [r3, #24]
  44 000e 1B68     		ldr	r3, [r3]
  45 0010 9268     		ldr	r2, [r2, #8]
  46 0012 9B68     		ldr	r3, [r3, #8]
  47 0014 9A42     		cmp	r2, r3
  48 0016 06D2     		bcs	.L2
  49              		.loc 1 318 0 is_stmt 0 discriminator 1
  50 0018 0648     		ldr	r0, .L5+4
  51 001a FFF7FEFF 		bl	puts
  52              	.LVL2:
  53              	@ 318 "../../../os/rt/include/chsys.h" 1
  54 001e 00BE     		BKPT #0
  55              	
  56              	@ 0 "" 2
  57              		.thumb
ARM GAS  C:\Users\jo\AppData\Local\Temp\cc063HaK.s 			page 2


  58 0020 0548     		ldr	r0, .L5+8
  59 0022 FFF7FEFF 		bl	chSysHalt
  60              	.LVL3:
  61              	.L2:
  62              	.LBB175:
  63              	.LBB176:
  64              	.LBB177:
  65              		.file 2 "../../../os/ext/CMSIS/include/core_cmFunc.h"
  66              		.loc 2 546 0 is_stmt 1
  67 0026 0023     		movs	r3, #0
  68              	@ 546 "../../../os/ext/CMSIS/include/core_cmFunc.h" 1
  69 0028 83F31188 		MSR basepri, r3
  70              	@ 0 "" 2
  71              		.thumb
  72 002c 08BD     		pop	{r3, pc}
  73              	.L6:
  74 002e 00BF     		.align	2
  75              	.L5:
  76 0030 00000000 		.word	ch
  77 0034 00000000 		.word	.LC0
  78 0038 00000000 		.word	.LANCHOR0
  79              	.LBE177:
  80              	.LBE176:
  81              	.LBE175:
  82              		.cfi_endproc
  83              	.LFE157:
  84              		.size	chSysUnlock, .-chSysUnlock
  85 003c AFF30080 		.section	.text.mbox1_setup,"ax",%progbits
  86              		.align	2
  87              		.p2align 4,,15
  88              		.thumb
  89              		.thumb_func
  90              		.type	mbox1_setup, %function
  91              	mbox1_setup:
  92              	.LFB226:
  93              		.file 3 "../../../test/rt/testmbox.c"
  94              		.loc 3 71 0
  95              		.cfi_startproc
  96              		@ args = 0, pretend = 0, frame = 0
  97              		@ frame_needed = 0, uses_anonymous_args = 0
  98              		@ link register save eliminated.
  99              		.loc 3 73 0
 100 0000 0248     		ldr	r0, .L8
 101 0002 0349     		ldr	r1, .L8+4
 102 0004 0522     		movs	r2, #5
 103 0006 FFF7FEBF 		b	chMBObjectInit
 104              	.LVL4:
 105              	.L9:
 106 000a 00BF     		.align	2
 107              	.L8:
 108 000c 00000000 		.word	.LANCHOR1
 109 0010 00000000 		.word	test
 110              		.cfi_endproc
 111              	.LFE226:
 112              		.size	mbox1_setup, .-mbox1_setup
 113 0014 AFF30080 		.section	.text.mbox1_execute,"ax",%progbits
 113      AFF30080 
ARM GAS  C:\Users\jo\AppData\Local\Temp\cc063HaK.s 			page 3


 113      AFF30080 
 114              		.align	2
 115              		.p2align 4,,15
 116              		.thumb
 117              		.thumb_func
 118              		.type	mbox1_execute, %function
 119              	mbox1_execute:
 120              	.LFB227:
 121              		.loc 3 76 0
 122              		.cfi_startproc
 123              		@ args = 0, pretend = 0, frame = 8
 124              		@ frame_needed = 0, uses_anonymous_args = 0
 125              	.LVL5:
 126 0000 2DE9F041 		push	{r4, r5, r6, r7, r8, lr}
 127              		.cfi_def_cfa_offset 24
 128              		.cfi_offset 4, -24
 129              		.cfi_offset 5, -20
 130              		.cfi_offset 6, -16
 131              		.cfi_offset 7, -12
 132              		.cfi_offset 8, -8
 133              		.cfi_offset 14, -4
 134              	.LBB352:
 135              	.LBB353:
 136              	.LBB354:
 137              	.LBB355:
 138              	.LBB356:
 139              		.loc 2 546 0
 140 0004 2023     		movs	r3, #32
 141              	.LBE356:
 142              	.LBE355:
 143              	.LBE354:
 144              	.LBE353:
 145              	.LBE352:
 146              		.loc 3 76 0
 147 0006 82B0     		sub	sp, sp, #8
 148              		.cfi_def_cfa_offset 32
 149              	.LBB362:
 150              	.LBB360:
 151              	.LBB359:
 152              	.LBB358:
 153              	.LBB357:
 154              		.loc 2 546 0
 155              	@ 546 "../../../os/ext/CMSIS/include/core_cmFunc.h" 1
 156 0008 83F31188 		MSR basepri, r3
 157              	@ 0 "" 2
 158              		.thumb
 159              	.LBE357:
 160              	.LBE358:
 161              	.LBE359:
 162              	.LBE360:
 163              	.LBE362:
 164              	.LBB363:
 165              	.LBB364:
 166              	.LBB365:
 167              	.LBB366:
 168              		.file 4 "../../../os/rt/include/chsem.h"
 169              		.loc 4 153 0
ARM GAS  C:\Users\jo\AppData\Local\Temp\cc063HaK.s 			page 4


 170 000c 124D     		ldr	r5, .L33
 171              	.LBE366:
 172              	.LBE365:
 173              	.LBE364:
 174              	.LBE363:
 175              	.LBB370:
 176              	.LBB361:
 177              		.loc 1 300 0
 178 000e FFF7FEFF 		bl	_stats_start_measure_crit_thd
 179              	.LVL6:
 180              		.loc 1 301 0
 181 0012 FFF7FEFF 		bl	_dbg_check_lock
 182              	.LVL7:
 183              	.LBE361:
 184              	.LBE370:
 185              	.LBB371:
 186              	.LBB369:
 187              		.file 5 "../../../os/rt/include/chmboxes.h"
 188              		.loc 5 157 0
 189 0016 FFF7FEFF 		bl	chDbgCheckClassI
 190              	.LVL8:
 191              	.LBB368:
 192              	.LBB367:
 193              		.loc 4 151 0
 194 001a FFF7FEFF 		bl	chDbgCheckClassI
 195              	.LVL9:
 196              	.LBE367:
 197              	.LBE368:
 198              	.LBE369:
 199              	.LBE371:
 200              		.loc 3 83 0
 201 001e 696A     		ldr	r1, [r5, #36]
 202 0020 0120     		movs	r0, #1
 203 0022 A1F10501 		sub	r1, #5
 204 0026 B1FA81F1 		clz	r1, r1
 205 002a 4909     		lsrs	r1, r1, #5
 206 002c FFF7FEFF 		bl	_test_assert
 207              	.LVL10:
 208 0030 B0B1     		cbz	r0, .L11
 209              	.LBB372:
 210              	.LBB373:
 211              		.loc 1 311 0
 212 0032 FFF7FEFF 		bl	_dbg_check_unlock
 213              	.LVL11:
 214              		.loc 1 312 0
 215 0036 FFF7FEFF 		bl	_stats_stop_measure_crit_thd
 216              	.LVL12:
 217              		.loc 1 318 0
 218 003a 084B     		ldr	r3, .L33+4
 219 003c 9A69     		ldr	r2, [r3, #24]
 220 003e 1B68     		ldr	r3, [r3]
 221 0040 9268     		ldr	r2, [r2, #8]
 222 0042 9B68     		ldr	r3, [r3, #8]
 223 0044 9A42     		cmp	r2, r3
 224 0046 C0F07B83 		bcc	.L31
 225              	.L12:
 226              	.LVL13:
ARM GAS  C:\Users\jo\AppData\Local\Temp\cc063HaK.s 			page 5


 227              	.LBB374:
 228              	.LBB375:
 229              	.LBB376:
 230              		.loc 2 546 0
 231 004a 0023     		movs	r3, #0
 232              	@ 546 "../../../os/ext/CMSIS/include/core_cmFunc.h" 1
 233 004c 83F31188 		MSR basepri, r3
 234              	@ 0 "" 2
 235              	.LVL14:
 236              		.thumb
 237              	.L10:
 238              	.LBE376:
 239              	.LBE375:
 240              	.LBE374:
 241              	.LBE373:
 242              	.LBE372:
 243              		.loc 3 220 0
 244 0050 02B0     		add	sp, sp, #8
 245              		.cfi_remember_state
 246              		.cfi_def_cfa_offset 24
 247              		@ sp needed
 248 0052 BDE8F081 		pop	{r4, r5, r6, r7, r8, pc}
 249              	.L34:
 250 0056 00BF     		.align	2
 251              	.L33:
 252 0058 00000000 		.word	.LANCHOR1
 253 005c 00000000 		.word	ch
 254              	.LVL15:
 255              	.L11:
 256              		.cfi_restore_state
 257              	.LBB378:
 258              	.LBB379:
 259              		.loc 1 318 0
 260 0060 D04E     		ldr	r6, .L35
 261              		.loc 1 311 0
 262 0062 FFF7FEFF 		bl	_dbg_check_unlock
 263              	.LVL16:
 264              		.loc 1 312 0
 265 0066 FFF7FEFF 		bl	_stats_stop_measure_crit_thd
 266              	.LVL17:
 267              		.loc 1 318 0
 268 006a B269     		ldr	r2, [r6, #24]
 269 006c 3368     		ldr	r3, [r6]
 270 006e 9268     		ldr	r2, [r2, #8]
 271 0070 9B68     		ldr	r3, [r3, #8]
 272 0072 9A42     		cmp	r2, r3
 273 0074 C0F05C83 		bcc	.L32
 274              	.L14:
 275              	.LVL18:
 276              	.LBB380:
 277              	.LBB381:
 278              	.LBB382:
 279              		.loc 2 546 0
 280 0078 0023     		movs	r3, #0
 281              	@ 546 "../../../os/ext/CMSIS/include/core_cmFunc.h" 1
 282 007a 83F31188 		MSR basepri, r3
 283              	@ 0 "" 2
ARM GAS  C:\Users\jo\AppData\Local\Temp\cc063HaK.s 			page 6


 284              	.LVL19:
 285              		.thumb
 286 007e 4224     		movs	r4, #66
 287              	.LVL20:
 288              	.L16:
 289              	.LBE382:
 290              	.LBE381:
 291              	.LBE380:
 292              	.LBE379:
 293              	.LBE378:
 294              		.loc 3 89 0
 295 0080 2146     		mov	r1, r4
 296 0082 4FF0FF32 		mov	r2, #-1
 297 0086 C848     		ldr	r0, .L35+4
 298 0088 FFF7FEFF 		bl	chMBPost
 299              	.LVL21:
 300              		.loc 3 90 0
 301 008c B0FA80F1 		clz	r1, r0
 302 0090 0220     		movs	r0, #2
 303              	.LVL22:
 304 0092 4909     		lsrs	r1, r1, #5
 305 0094 FFF7FEFF 		bl	_test_assert
 306              	.LVL23:
 307 0098 0134     		adds	r4, r4, #1
 308              	.LVL24:
 309 009a 0028     		cmp	r0, #0
 310 009c D8D1     		bne	.L10
 311              		.loc 3 88 0 discriminator 2
 312 009e 462C     		cmp	r4, #70
 313 00a0 EED1     		bne	.L16
 314              		.loc 3 92 0
 315 00a2 4121     		movs	r1, #65
 316 00a4 C048     		ldr	r0, .L35+4
 317 00a6 4FF0FF32 		mov	r2, #-1
 318 00aa FFF7FEFF 		bl	chMBPostAhead
 319              	.LVL25:
 320              		.loc 3 93 0
 321 00ae B0FA80F1 		clz	r1, r0
 322 00b2 0320     		movs	r0, #3
 323              	.LVL26:
 324 00b4 4909     		lsrs	r1, r1, #5
 325 00b6 FFF7FEFF 		bl	_test_assert
 326              	.LVL27:
 327 00ba 0028     		cmp	r0, #0
 328 00bc C8D1     		bne	.L10
 329              		.loc 3 98 0
 330 00be 5821     		movs	r1, #88
 331 00c0 B948     		ldr	r0, .L35+4
 332 00c2 0122     		movs	r2, #1
 333 00c4 FFF7FEFF 		bl	chMBPost
 334              	.LVL28:
 335              		.loc 3 99 0
 336 00c8 A0F1FF31 		sub	r1, r0, #-1
 337 00cc 0420     		movs	r0, #4
 338              	.LVL29:
 339 00ce B1FA81F1 		clz	r1, r1
 340              	.LVL30:
ARM GAS  C:\Users\jo\AppData\Local\Temp\cc063HaK.s 			page 7


 341 00d2 4909     		lsrs	r1, r1, #5
 342 00d4 FFF7FEFF 		bl	_test_assert
 343              	.LVL31:
 344 00d8 0028     		cmp	r0, #0
 345 00da B9D1     		bne	.L10
 346              	.LVL32:
 347              	.LBB384:
 348              	.LBB385:
 349              	.LBB386:
 350              	.LBB387:
 351              	.LBB388:
 352              		.loc 2 546 0
 353 00dc 2023     		movs	r3, #32
 354              	@ 546 "../../../os/ext/CMSIS/include/core_cmFunc.h" 1
 355 00de 83F31188 		MSR basepri, r3
 356              	@ 0 "" 2
 357              		.thumb
 358              	.LBE388:
 359              	.LBE387:
 360              	.LBE386:
 361              		.loc 1 300 0
 362 00e2 FFF7FEFF 		bl	_stats_start_measure_crit_thd
 363              	.LVL33:
 364              		.loc 1 301 0
 365 00e6 FFF7FEFF 		bl	_dbg_check_lock
 366              	.LVL34:
 367              	.LBE385:
 368              	.LBE384:
 369              		.loc 3 101 0
 370 00ea 5821     		movs	r1, #88
 371 00ec AE48     		ldr	r0, .L35+4
 372 00ee FFF7FEFF 		bl	chMBPostI
 373              	.LVL35:
 374 00f2 0446     		mov	r4, r0
 375              	.LVL36:
 376              	.LBB389:
 377              	.LBB390:
 378              		.loc 1 311 0
 379 00f4 FFF7FEFF 		bl	_dbg_check_unlock
 380              	.LVL37:
 381              		.loc 1 312 0
 382 00f8 FFF7FEFF 		bl	_stats_stop_measure_crit_thd
 383              	.LVL38:
 384              		.loc 1 318 0
 385 00fc B269     		ldr	r2, [r6, #24]
 386 00fe 3368     		ldr	r3, [r6]
 387 0100 9268     		ldr	r2, [r2, #8]
 388 0102 9B68     		ldr	r3, [r3, #8]
 389 0104 9A42     		cmp	r2, r3
 390 0106 06D2     		bcs	.L17
 391 0108 A848     		ldr	r0, .L35+8
 392 010a FFF7FEFF 		bl	puts
 393              	.LVL39:
 394              	@ 318 "../../../os/rt/include/chsys.h" 1
 395 010e 00BE     		BKPT #0
 396              	
 397              	@ 0 "" 2
ARM GAS  C:\Users\jo\AppData\Local\Temp\cc063HaK.s 			page 8


 398              		.thumb
 399 0110 A748     		ldr	r0, .L35+12
 400 0112 FFF7FEFF 		bl	chSysHalt
 401              	.LVL40:
 402              	.L17:
 403              	.LBB391:
 404              	.LBB392:
 405              	.LBB393:
 406              		.loc 2 546 0
 407 0116 0023     		movs	r3, #0
 408              	@ 546 "../../../os/ext/CMSIS/include/core_cmFunc.h" 1
 409 0118 83F31188 		MSR basepri, r3
 410              	@ 0 "" 2
 411              		.thumb
 412              	.LBE393:
 413              	.LBE392:
 414              	.LBE391:
 415              	.LBE390:
 416              	.LBE389:
 417              		.loc 3 103 0
 418 011c 0520     		movs	r0, #5
 419 011e A4F1FF31 		sub	r1, r4, #-1
 420 0122 B1FA81F1 		clz	r1, r1
 421 0126 4909     		lsrs	r1, r1, #5
 422 0128 FFF7FEFF 		bl	_test_assert
 423              	.LVL41:
 424 012c 0028     		cmp	r0, #0
 425 012e 8FD1     		bne	.L10
 426              		.loc 3 104 0
 427 0130 5821     		movs	r1, #88
 428 0132 9D48     		ldr	r0, .L35+4
 429 0134 0122     		movs	r2, #1
 430 0136 FFF7FEFF 		bl	chMBPostAhead
 431              	.LVL42:
 432              		.loc 3 105 0
 433 013a A0F1FF31 		sub	r1, r0, #-1
 434 013e 0620     		movs	r0, #6
 435              	.LVL43:
 436 0140 B1FA81F1 		clz	r1, r1
 437              	.LVL44:
 438 0144 4909     		lsrs	r1, r1, #5
 439 0146 FFF7FEFF 		bl	_test_assert
 440              	.LVL45:
 441 014a 0028     		cmp	r0, #0
 442 014c 80D1     		bne	.L10
 443              	.LVL46:
 444              	.LBB394:
 445              	.LBB395:
 446              	.LBB396:
 447              	.LBB397:
 448              	.LBB398:
 449              		.loc 2 546 0
 450 014e 2023     		movs	r3, #32
 451              	@ 546 "../../../os/ext/CMSIS/include/core_cmFunc.h" 1
 452 0150 83F31188 		MSR basepri, r3
 453              	@ 0 "" 2
 454              		.thumb
ARM GAS  C:\Users\jo\AppData\Local\Temp\cc063HaK.s 			page 9


 455              	.LBE398:
 456              	.LBE397:
 457              	.LBE396:
 458              		.loc 1 300 0
 459 0154 FFF7FEFF 		bl	_stats_start_measure_crit_thd
 460              	.LVL47:
 461              		.loc 1 301 0
 462 0158 FFF7FEFF 		bl	_dbg_check_lock
 463              	.LVL48:
 464              	.LBE395:
 465              	.LBE394:
 466              		.loc 3 107 0
 467 015c 5821     		movs	r1, #88
 468 015e 9248     		ldr	r0, .L35+4
 469 0160 FFF7FEFF 		bl	chMBPostAheadI
 470              	.LVL49:
 471 0164 0446     		mov	r4, r0
 472              	.LVL50:
 473              	.LBB399:
 474              	.LBB400:
 475              		.loc 1 311 0
 476 0166 FFF7FEFF 		bl	_dbg_check_unlock
 477              	.LVL51:
 478              		.loc 1 312 0
 479 016a FFF7FEFF 		bl	_stats_stop_measure_crit_thd
 480              	.LVL52:
 481              		.loc 1 318 0
 482 016e B269     		ldr	r2, [r6, #24]
 483 0170 3368     		ldr	r3, [r6]
 484 0172 9268     		ldr	r2, [r2, #8]
 485 0174 9B68     		ldr	r3, [r3, #8]
 486 0176 9A42     		cmp	r2, r3
 487 0178 06D2     		bcs	.L18
 488 017a 8C48     		ldr	r0, .L35+8
 489 017c FFF7FEFF 		bl	puts
 490              	.LVL53:
 491              	@ 318 "../../../os/rt/include/chsys.h" 1
 492 0180 00BE     		BKPT #0
 493              	
 494              	@ 0 "" 2
 495              		.thumb
 496 0182 8B48     		ldr	r0, .L35+12
 497 0184 FFF7FEFF 		bl	chSysHalt
 498              	.LVL54:
 499              	.L18:
 500              	.LBB401:
 501              	.LBB402:
 502              	.LBB403:
 503              		.loc 2 546 0
 504 0188 0023     		movs	r3, #0
 505              	@ 546 "../../../os/ext/CMSIS/include/core_cmFunc.h" 1
 506 018a 83F31188 		MSR basepri, r3
 507              	@ 0 "" 2
 508              		.thumb
 509              	.LBE403:
 510              	.LBE402:
 511              	.LBE401:
ARM GAS  C:\Users\jo\AppData\Local\Temp\cc063HaK.s 			page 10


 512              	.LBE400:
 513              	.LBE399:
 514              		.loc 3 109 0
 515 018e 0720     		movs	r0, #7
 516 0190 A4F1FF31 		sub	r1, r4, #-1
 517 0194 B1FA81F1 		clz	r1, r1
 518 0198 4909     		lsrs	r1, r1, #5
 519 019a FFF7FEFF 		bl	_test_assert
 520              	.LVL55:
 521 019e 0028     		cmp	r0, #0
 522 01a0 7FF456AF 		bne	.L10
 523              	.LVL56:
 524              	.LBB404:
 525              	.LBB405:
 526              	.LBB406:
 527              	.LBB407:
 528              	.LBB408:
 529              		.loc 2 546 0
 530 01a4 2026     		movs	r6, #32
 531              	@ 546 "../../../os/ext/CMSIS/include/core_cmFunc.h" 1
 532 01a6 86F31188 		MSR basepri, r6
 533              	@ 0 "" 2
 534              		.thumb
 535              	.LBE408:
 536              	.LBE407:
 537              	.LBE406:
 538              		.loc 1 300 0
 539 01aa FFF7FEFF 		bl	_stats_start_measure_crit_thd
 540              	.LVL57:
 541              		.loc 1 301 0
 542 01ae FFF7FEFF 		bl	_dbg_check_lock
 543              	.LVL58:
 544              	.LBE405:
 545              	.LBE404:
 546              	.LBB409:
 547              	.LBB410:
 548              		.loc 5 157 0
 549 01b2 FFF7FEFF 		bl	chDbgCheckClassI
 550              	.LVL59:
 551              	.LBB411:
 552              	.LBB412:
 553              		.loc 4 151 0
 554 01b6 FFF7FEFF 		bl	chDbgCheckClassI
 555              	.LVL60:
 556              	.LBE412:
 557              	.LBE411:
 558              	.LBE410:
 559              	.LBE409:
 560              		.loc 3 114 0
 561 01ba 696A     		ldr	r1, [r5, #36]
 562 01bc B1FA81F1 		clz	r1, r1
 563 01c0 0820     		movs	r0, #8
 564 01c2 4909     		lsrs	r1, r1, #5
 565              	.LBB416:
 566              	.LBB415:
 567              	.LBB414:
 568              	.LBB413:
ARM GAS  C:\Users\jo\AppData\Local\Temp\cc063HaK.s 			page 11


 569              		.loc 4 153 0
 570 01c4 784C     		ldr	r4, .L35+4
 571              	.LVL61:
 572              	.LBE413:
 573              	.LBE414:
 574              	.LBE415:
 575              	.LBE416:
 576              		.loc 3 114 0
 577 01c6 FFF7FEFF 		bl	_test_assert
 578              	.LVL62:
 579 01ca 0028     		cmp	r0, #0
 580 01cc 40F0AD82 		bne	.L30
 581              		.loc 3 114 0 is_stmt 0 discriminator 2
 582 01d0 FFF7FEFF 		bl	chSysUnlock
 583              	.LVL63:
 584              	.LBB417:
 585              	.LBB418:
 586              	.LBB419:
 587              	.LBB420:
 588              	.LBB421:
 589              		.loc 2 546 0 is_stmt 1 discriminator 2
 590              	@ 546 "../../../os/ext/CMSIS/include/core_cmFunc.h" 1
 591 01d4 86F31188 		MSR basepri, r6
 592              	@ 0 "" 2
 593              		.thumb
 594              	.LBE421:
 595              	.LBE420:
 596              	.LBE419:
 597              		.loc 1 300 0 discriminator 2
 598 01d8 FFF7FEFF 		bl	_stats_start_measure_crit_thd
 599              	.LVL64:
 600              		.loc 1 301 0 discriminator 2
 601 01dc FFF7FEFF 		bl	_dbg_check_lock
 602              	.LVL65:
 603              	.LBE418:
 604              	.LBE417:
 605              	.LBB422:
 606              	.LBB423:
 607              		.loc 5 176 0 discriminator 2
 608 01e0 FFF7FEFF 		bl	chDbgCheckClassI
 609              	.LVL66:
 610              	.LBB424:
 611              	.LBB425:
 612              		.loc 4 151 0 discriminator 2
 613 01e4 FFF7FEFF 		bl	chDbgCheckClassI
 614              	.LVL67:
 615              	.LBE425:
 616              	.LBE424:
 617              	.LBE423:
 618              	.LBE422:
 619              		.loc 3 115 0 discriminator 2
 620 01e8 A169     		ldr	r1, [r4, #24]
 621 01ea 4F1F     		subs	r7, r1, #5
 622 01ec 7942     		rsbs	r1, r7, #0
 623 01ee 7941     		adcs	r1, r1, r7
 624 01f0 0920     		movs	r0, #9
 625 01f2 FFF7FEFF 		bl	_test_assert
ARM GAS  C:\Users\jo\AppData\Local\Temp\cc063HaK.s 			page 12


 626              	.LVL68:
 627 01f6 0028     		cmp	r0, #0
 628 01f8 40F09782 		bne	.L30
 629 01fc FFF7FEFF 		bl	chSysUnlock
 630              	.LVL69:
 631              	.LBB426:
 632              	.LBB427:
 633              	.LBB428:
 634              	.LBB429:
 635              	.LBB430:
 636              		.loc 2 546 0 discriminator 2
 637              	@ 546 "../../../os/ext/CMSIS/include/core_cmFunc.h" 1
 638 0200 86F31188 		MSR basepri, r6
 639              	@ 0 "" 2
 640              		.thumb
 641              	.LBE430:
 642              	.LBE429:
 643              	.LBE428:
 644              		.loc 1 300 0 discriminator 2
 645 0204 FFF7FEFF 		bl	_stats_start_measure_crit_thd
 646              	.LVL70:
 647              		.loc 1 301 0 discriminator 2
 648 0208 FFF7FEFF 		bl	_dbg_check_lock
 649              	.LVL71:
 650              	.LBE427:
 651              	.LBE426:
 652              		.loc 3 116 0 discriminator 2
 653 020c E168     		ldr	r1, [r4, #12]
 654 020e A368     		ldr	r3, [r4, #8]
 655 0210 CA1A     		subs	r2, r1, r3
 656 0212 5142     		rsbs	r1, r2, #0
 657 0214 5141     		adcs	r1, r1, r2
 658 0216 0A20     		movs	r0, #10
 659 0218 FFF7FEFF 		bl	_test_assert
 660              	.LVL72:
 661 021c 0028     		cmp	r0, #0
 662 021e 40F08482 		bne	.L30
 663 0222 FFF7FEFF 		bl	chSysUnlock
 664              	.LVL73:
 665 0226 0526     		movs	r6, #5
 666              	.LVL74:
 667              	.L21:
 668              		.loc 3 122 0
 669 0228 5F4C     		ldr	r4, .L35+4
 670 022a 01A9     		add	r1, sp, #4
 671 022c 2046     		mov	r0, r4
 672 022e 4FF0FF32 		mov	r2, #-1
 673 0232 FFF7FEFF 		bl	chMBFetch
 674              	.LVL75:
 675              		.loc 3 123 0
 676 0236 B0FA80F1 		clz	r1, r0
 677 023a 0B20     		movs	r0, #11
 678              	.LVL76:
 679 023c 4909     		lsrs	r1, r1, #5
 680 023e FFF7FEFF 		bl	_test_assert
 681              	.LVL77:
 682 0242 0028     		cmp	r0, #0
ARM GAS  C:\Users\jo\AppData\Local\Temp\cc063HaK.s 			page 13


 683 0244 7FF404AF 		bne	.L10
 684              		.loc 3 124 0 discriminator 2
 685 0248 9DF80400 		ldrb	r0, [sp, #4]	@ zero_extendqisi2
 686 024c FFF7FEFF 		bl	test_emit_token
 687              	.LVL78:
 688              		.loc 3 121 0 discriminator 2
 689 0250 013E     		subs	r6, r6, #1
 690              	.LVL79:
 691 0252 E9D1     		bne	.L21
 692              		.loc 3 126 0
 693 0254 0C20     		movs	r0, #12
 694 0256 5749     		ldr	r1, .L35+16
 695 0258 FFF7FEFF 		bl	_test_assert_sequence
 696              	.LVL80:
 697 025c 0028     		cmp	r0, #0
 698 025e 7FF4F7AE 		bne	.L10
 699              		.loc 3 131 0
 700 0262 4721     		movs	r1, #71
 701 0264 2046     		mov	r0, r4
 702 0266 4FF0FF32 		mov	r2, #-1
 703 026a FFF7FEFF 		bl	chMBPost
 704              	.LVL81:
 705              		.loc 3 132 0
 706 026e B0FA80F1 		clz	r1, r0
 707 0272 0D20     		movs	r0, #13
 708              	.LVL82:
 709 0274 4909     		lsrs	r1, r1, #5
 710 0276 FFF7FEFF 		bl	_test_assert
 711              	.LVL83:
 712 027a 0028     		cmp	r0, #0
 713 027c 7FF4E8AE 		bne	.L10
 714              		.loc 3 133 0
 715 0280 01A9     		add	r1, sp, #4
 716 0282 2046     		mov	r0, r4
 717 0284 4FF0FF32 		mov	r2, #-1
 718 0288 FFF7FEFF 		bl	chMBFetch
 719              	.LVL84:
 720              		.loc 3 134 0
 721 028c B0FA80F1 		clz	r1, r0
 722 0290 0E20     		movs	r0, #14
 723              	.LVL85:
 724 0292 4909     		lsrs	r1, r1, #5
 725 0294 FFF7FEFF 		bl	_test_assert
 726              	.LVL86:
 727 0298 0028     		cmp	r0, #0
 728 029a 7FF4D9AE 		bne	.L10
 729              		.loc 3 135 0
 730 029e 2168     		ldr	r1, [r4]
 731 02a0 A368     		ldr	r3, [r4, #8]
 732 02a2 CB1A     		subs	r3, r1, r3
 733 02a4 5942     		rsbs	r1, r3, #0
 734 02a6 5941     		adcs	r1, r1, r3
 735 02a8 0F20     		movs	r0, #15
 736 02aa FFF7FEFF 		bl	_test_assert
 737              	.LVL87:
 738 02ae 0028     		cmp	r0, #0
 739 02b0 7FF4CEAE 		bne	.L10
ARM GAS  C:\Users\jo\AppData\Local\Temp\cc063HaK.s 			page 14


 740              		.loc 3 136 0
 741 02b4 2168     		ldr	r1, [r4]
 742 02b6 E368     		ldr	r3, [r4, #12]
 743 02b8 C3EB0108 		rsb	r8, r3, r1
 744 02bc D8F10001 		rsbs	r1, r8, #0
 745 02c0 41EB0801 		adc	r1, r1, r8
 746 02c4 1020     		movs	r0, #16
 747 02c6 FFF7FEFF 		bl	_test_assert
 748              	.LVL88:
 749 02ca 0028     		cmp	r0, #0
 750 02cc 7FF4C0AE 		bne	.L10
 751              		.loc 3 141 0
 752 02d0 01A9     		add	r1, sp, #4
 753 02d2 2046     		mov	r0, r4
 754 02d4 0122     		movs	r2, #1
 755 02d6 FFF7FEFF 		bl	chMBFetch
 756              	.LVL89:
 757              		.loc 3 142 0
 758 02da 00F1010C 		add	ip, r0, #1
 759 02de DCF10001 		rsbs	r1, ip, #0
 760 02e2 41EB0C01 		adc	r1, r1, ip
 761 02e6 1120     		movs	r0, #17
 762              	.LVL90:
 763 02e8 FFF7FEFF 		bl	_test_assert
 764              	.LVL91:
 765 02ec 0028     		cmp	r0, #0
 766 02ee 7FF4AFAE 		bne	.L10
 767              	.LVL92:
 768              	.LBB431:
 769              	.LBB432:
 770              	.LBB433:
 771              	.LBB434:
 772              	.LBB435:
 773              		.loc 2 546 0
 774 02f2 2026     		movs	r6, #32
 775              	.LVL93:
 776              	@ 546 "../../../os/ext/CMSIS/include/core_cmFunc.h" 1
 777 02f4 86F31188 		MSR basepri, r6
 778              	@ 0 "" 2
 779              		.thumb
 780              	.LBE435:
 781              	.LBE434:
 782              	.LBE433:
 783              		.loc 1 300 0
 784 02f8 FFF7FEFF 		bl	_stats_start_measure_crit_thd
 785              	.LVL94:
 786              		.loc 1 301 0
 787 02fc FFF7FEFF 		bl	_dbg_check_lock
 788              	.LVL95:
 789              	.LBE432:
 790              	.LBE431:
 791              		.loc 3 144 0
 792 0300 01A9     		add	r1, sp, #4
 793 0302 2046     		mov	r0, r4
 794 0304 FFF7FEFF 		bl	chMBFetchI
 795              	.LVL96:
 796 0308 0746     		mov	r7, r0
ARM GAS  C:\Users\jo\AppData\Local\Temp\cc063HaK.s 			page 15


 797              	.LVL97:
 798              		.loc 3 145 0
 799 030a FFF7FEFF 		bl	chSysUnlock
 800              	.LVL98:
 801              		.loc 3 146 0
 802 030e 07F1010E 		add	lr, r7, #1
 803 0312 DEF10001 		rsbs	r1, lr, #0
 804 0316 41EB0E01 		adc	r1, r1, lr
 805 031a 1220     		movs	r0, #18
 806 031c FFF7FEFF 		bl	_test_assert
 807              	.LVL99:
 808 0320 0028     		cmp	r0, #0
 809 0322 7FF495AE 		bne	.L10
 810              	.LVL100:
 811              	.LBB436:
 812              	.LBB437:
 813              	.LBB438:
 814              	.LBB439:
 815              	.LBB440:
 816              		.loc 2 546 0
 817              	@ 546 "../../../os/ext/CMSIS/include/core_cmFunc.h" 1
 818 0326 86F31188 		MSR basepri, r6
 819              	@ 0 "" 2
 820              		.thumb
 821              	.LBE440:
 822              	.LBE439:
 823              	.LBE438:
 824              		.loc 1 300 0
 825 032a FFF7FEFF 		bl	_stats_start_measure_crit_thd
 826              	.LVL101:
 827              		.loc 1 301 0
 828 032e FFF7FEFF 		bl	_dbg_check_lock
 829              	.LVL102:
 830              	.LBE437:
 831              	.LBE436:
 832              	.LBB441:
 833              	.LBB442:
 834              		.loc 5 157 0
 835 0332 FFF7FEFF 		bl	chDbgCheckClassI
 836              	.LVL103:
 837              	.LBB443:
 838              	.LBB444:
 839              		.loc 4 151 0
 840 0336 FFF7FEFF 		bl	chDbgCheckClassI
 841              	.LVL104:
 842              	.LBE444:
 843              	.LBE443:
 844              	.LBE442:
 845              	.LBE441:
 846              		.loc 3 151 0
 847 033a 616A     		ldr	r1, [r4, #36]
 848 033c 4F1F     		subs	r7, r1, #5
 849              	.LVL105:
 850 033e 7942     		rsbs	r1, r7, #0
 851 0340 7941     		adcs	r1, r1, r7
 852 0342 1320     		movs	r0, #19
 853 0344 FFF7FEFF 		bl	_test_assert
ARM GAS  C:\Users\jo\AppData\Local\Temp\cc063HaK.s 			page 16


 854              	.LVL106:
 855 0348 0028     		cmp	r0, #0
 856 034a 40F0EE81 		bne	.L30
 857              		.loc 3 151 0 is_stmt 0 discriminator 2
 858 034e FFF7FEFF 		bl	chSysUnlock
 859              	.LVL107:
 860              	.LBB445:
 861              	.LBB446:
 862              	.LBB447:
 863              	.LBB448:
 864              	.LBB449:
 865              		.loc 2 546 0 is_stmt 1 discriminator 2
 866              	@ 546 "../../../os/ext/CMSIS/include/core_cmFunc.h" 1
 867 0352 86F31188 		MSR basepri, r6
 868              	@ 0 "" 2
 869              		.thumb
 870              	.LBE449:
 871              	.LBE448:
 872              	.LBE447:
 873              		.loc 1 300 0 discriminator 2
 874 0356 FFF7FEFF 		bl	_stats_start_measure_crit_thd
 875              	.LVL108:
 876              		.loc 1 301 0 discriminator 2
 877 035a FFF7FEFF 		bl	_dbg_check_lock
 878              	.LVL109:
 879              	.LBE446:
 880              	.LBE445:
 881              	.LBB450:
 882              	.LBB451:
 883              		.loc 5 176 0 discriminator 2
 884 035e FFF7FEFF 		bl	chDbgCheckClassI
 885              	.LVL110:
 886              	.LBB452:
 887              	.LBB453:
 888              		.loc 4 151 0 discriminator 2
 889 0362 FFF7FEFF 		bl	chDbgCheckClassI
 890              	.LVL111:
 891              	.LBE453:
 892              	.LBE452:
 893              	.LBE451:
 894              	.LBE450:
 895              		.loc 3 152 0 discriminator 2
 896 0366 A969     		ldr	r1, [r5, #24]
 897 0368 B1FA81F1 		clz	r1, r1
 898 036c 1420     		movs	r0, #20
 899 036e 4909     		lsrs	r1, r1, #5
 900 0370 FFF7FEFF 		bl	_test_assert
 901              	.LVL112:
 902 0374 0028     		cmp	r0, #0
 903 0376 40F0D881 		bne	.L30
 904 037a FFF7FEFF 		bl	chSysUnlock
 905              	.LVL113:
 906              	.LBB454:
 907              	.LBB455:
 908              	.LBB456:
 909              	.LBB457:
 910              	.LBB458:
ARM GAS  C:\Users\jo\AppData\Local\Temp\cc063HaK.s 			page 17


 911              		.loc 2 546 0 discriminator 2
 912              	@ 546 "../../../os/ext/CMSIS/include/core_cmFunc.h" 1
 913 037e 86F31188 		MSR basepri, r6
 914              	@ 0 "" 2
 915              		.thumb
 916              	.LBE458:
 917              	.LBE457:
 918              	.LBE456:
 919              		.loc 1 300 0 discriminator 2
 920 0382 FFF7FEFF 		bl	_stats_start_measure_crit_thd
 921              	.LVL114:
 922              		.loc 1 301 0 discriminator 2
 923 0386 FFF7FEFF 		bl	_dbg_check_lock
 924              	.LVL115:
 925              	.LBE455:
 926              	.LBE454:
 927              		.loc 3 153 0 discriminator 2
 928 038a E168     		ldr	r1, [r4, #12]
 929 038c A368     		ldr	r3, [r4, #8]
 930 038e CD1A     		subs	r5, r1, r3
 931 0390 6942     		rsbs	r1, r5, #0
 932 0392 6941     		adcs	r1, r1, r5
 933 0394 1520     		movs	r0, #21
 934 0396 FFF7FEFF 		bl	_test_assert
 935              	.LVL116:
 936 039a 0028     		cmp	r0, #0
 937 039c 40F0C581 		bne	.L30
 938 03a0 0AE0     		b	.L36
 939              	.L37:
 940 03a2 00BF     		.align	2
 941              	.L35:
 942 03a4 00000000 		.word	ch
 943 03a8 00000000 		.word	.LANCHOR1
 944 03ac 00000000 		.word	.LC0
 945 03b0 00000000 		.word	.LANCHOR0
 946 03b4 28000000 		.word	.LC1
 947              	.L36:
 948 03b8 FFF7FEFF 		bl	chSysUnlock
 949              	.LVL117:
 950              	.LBB459:
 951              	.LBB460:
 952              	.LBB461:
 953              	.LBB462:
 954              	.LBB463:
 955              		.loc 2 546 0 discriminator 2
 956              	@ 546 "../../../os/ext/CMSIS/include/core_cmFunc.h" 1
 957 03bc 86F31188 		MSR basepri, r6
 958              	@ 0 "" 2
 959              		.thumb
 960              	.LBE463:
 961              	.LBE462:
 962              	.LBE461:
 963              		.loc 1 300 0 discriminator 2
 964 03c0 FFF7FEFF 		bl	_stats_start_measure_crit_thd
 965              	.LVL118:
 966              		.loc 1 301 0 discriminator 2
 967 03c4 FFF7FEFF 		bl	_dbg_check_lock
ARM GAS  C:\Users\jo\AppData\Local\Temp\cc063HaK.s 			page 18


 968              	.LVL119:
 969              	.LBE460:
 970              	.LBE459:
 971              		.loc 3 159 0 discriminator 2
 972 03c8 4121     		movs	r1, #65
 973 03ca 2046     		mov	r0, r4
 974 03cc FFF7FEFF 		bl	chMBPostI
 975              	.LVL120:
 976              		.loc 3 160 0 discriminator 2
 977 03d0 B0FA80F1 		clz	r1, r0
 978 03d4 1620     		movs	r0, #22
 979              	.LVL121:
 980 03d6 4909     		lsrs	r1, r1, #5
 981 03d8 FFF7FEFF 		bl	_test_assert
 982              	.LVL122:
 983 03dc 0028     		cmp	r0, #0
 984 03de 7FF437AE 		bne	.L10
 985              		.loc 3 161 0
 986 03e2 4221     		movs	r1, #66
 987 03e4 2046     		mov	r0, r4
 988 03e6 FFF7FEFF 		bl	chMBPostI
 989              	.LVL123:
 990              		.loc 3 162 0
 991 03ea B0FA80F1 		clz	r1, r0
 992 03ee 1720     		movs	r0, #23
 993              	.LVL124:
 994 03f0 4909     		lsrs	r1, r1, #5
 995 03f2 FFF7FEFF 		bl	_test_assert
 996              	.LVL125:
 997 03f6 0028     		cmp	r0, #0
 998 03f8 7FF42AAE 		bne	.L10
 999              		.loc 3 163 0
 1000 03fc 4321     		movs	r1, #67
 1001 03fe 2046     		mov	r0, r4
 1002 0400 FFF7FEFF 		bl	chMBPostI
 1003              	.LVL126:
 1004              		.loc 3 164 0
 1005 0404 B0FA80F1 		clz	r1, r0
 1006 0408 1820     		movs	r0, #24
 1007              	.LVL127:
 1008 040a 4909     		lsrs	r1, r1, #5
 1009 040c FFF7FEFF 		bl	_test_assert
 1010              	.LVL128:
 1011 0410 0028     		cmp	r0, #0
 1012 0412 7FF41DAE 		bne	.L10
 1013              		.loc 3 165 0
 1014 0416 4421     		movs	r1, #68
 1015 0418 2046     		mov	r0, r4
 1016 041a FFF7FEFF 		bl	chMBPostI
 1017              	.LVL129:
 1018              		.loc 3 166 0
 1019 041e B0FA80F1 		clz	r1, r0
 1020 0422 1920     		movs	r0, #25
 1021              	.LVL130:
 1022 0424 4909     		lsrs	r1, r1, #5
 1023 0426 FFF7FEFF 		bl	_test_assert
 1024              	.LVL131:
ARM GAS  C:\Users\jo\AppData\Local\Temp\cc063HaK.s 			page 19


 1025 042a 0028     		cmp	r0, #0
 1026 042c 7FF410AE 		bne	.L10
 1027              		.loc 3 167 0
 1028 0430 4521     		movs	r1, #69
 1029 0432 2046     		mov	r0, r4
 1030 0434 FFF7FEFF 		bl	chMBPostI
 1031              	.LVL132:
 1032 0438 0546     		mov	r5, r0
 1033              	.LVL133:
 1034              		.loc 3 168 0
 1035 043a FFF7FEFF 		bl	chSysUnlock
 1036              	.LVL134:
 1037              		.loc 3 169 0
 1038 043e B5FA85F1 		clz	r1, r5
 1039 0442 1A20     		movs	r0, #26
 1040 0444 4909     		lsrs	r1, r1, #5
 1041 0446 FFF7FEFF 		bl	_test_assert
 1042              	.LVL135:
 1043 044a 0028     		cmp	r0, #0
 1044 044c 7FF400AE 		bne	.L10
 1045              		.loc 3 170 0
 1046 0450 E168     		ldr	r1, [r4, #12]
 1047 0452 A368     		ldr	r3, [r4, #8]
 1048 0454 CA1A     		subs	r2, r1, r3
 1049 0456 5142     		rsbs	r1, r2, #0
 1050 0458 5141     		adcs	r1, r1, r2
 1051 045a 1B20     		movs	r0, #27
 1052 045c FFF7FEFF 		bl	_test_assert
 1053              	.LVL136:
 1054 0460 0028     		cmp	r0, #0
 1055 0462 7FF4F5AD 		bne	.L10
 1056 0466 0527     		movs	r7, #5
 1057              	.LVL137:
 1058              	.L22:
 1059              	.LBB464:
 1060              	.LBB465:
 1061              	.LBB466:
 1062              	.LBB467:
 1063              	.LBB468:
 1064              		.loc 2 546 0
 1065 0468 2025     		movs	r5, #32
 1066              	@ 546 "../../../os/ext/CMSIS/include/core_cmFunc.h" 1
 1067 046a 86F31188 		MSR basepri, r6
 1068              	@ 0 "" 2
 1069              		.thumb
 1070              	.LBE468:
 1071              	.LBE467:
 1072              	.LBE466:
 1073              	.LBE465:
 1074              	.LBE464:
 1075              		.loc 3 173 0
 1076 046e B84C     		ldr	r4, .L38
 1077              	.LBB470:
 1078              	.LBB469:
 1079              		.loc 1 300 0
 1080 0470 FFF7FEFF 		bl	_stats_start_measure_crit_thd
 1081              	.LVL138:
ARM GAS  C:\Users\jo\AppData\Local\Temp\cc063HaK.s 			page 20


 1082              		.loc 1 301 0
 1083 0474 FFF7FEFF 		bl	_dbg_check_lock
 1084              	.LVL139:
 1085              	.LBE469:
 1086              	.LBE470:
 1087              		.loc 3 173 0
 1088 0478 01A9     		add	r1, sp, #4
 1089 047a 2046     		mov	r0, r4
 1090 047c FFF7FEFF 		bl	chMBFetchI
 1091              	.LVL140:
 1092 0480 8046     		mov	r8, r0
 1093              	.LVL141:
 1094              		.loc 3 174 0
 1095 0482 FFF7FEFF 		bl	chSysUnlock
 1096              	.LVL142:
 1097              		.loc 3 175 0
 1098 0486 B8FA88F1 		clz	r1, r8
 1099 048a 1C20     		movs	r0, #28
 1100 048c 4909     		lsrs	r1, r1, #5
 1101 048e FFF7FEFF 		bl	_test_assert
 1102              	.LVL143:
 1103 0492 0028     		cmp	r0, #0
 1104 0494 7FF4DCAD 		bne	.L10
 1105              		.loc 3 176 0 discriminator 2
 1106 0498 9DF80400 		ldrb	r0, [sp, #4]	@ zero_extendqisi2
 1107 049c FFF7FEFF 		bl	test_emit_token
 1108              	.LVL144:
 1109              		.loc 3 171 0 discriminator 2
 1110 04a0 013F     		subs	r7, r7, #1
 1111              	.LVL145:
 1112 04a2 E1D1     		bne	.L22
 1113              		.loc 3 178 0
 1114 04a4 1D20     		movs	r0, #29
 1115 04a6 AB49     		ldr	r1, .L38+4
 1116 04a8 FFF7FEFF 		bl	_test_assert_sequence
 1117              	.LVL146:
 1118 04ac 0028     		cmp	r0, #0
 1119 04ae 7FF4CFAD 		bne	.L10
 1120              	.LVL147:
 1121              	.LBB471:
 1122              	.LBB472:
 1123              	.LBB473:
 1124              	.LBB474:
 1125              	.LBB475:
 1126              		.loc 2 546 0
 1127              	@ 546 "../../../os/ext/CMSIS/include/core_cmFunc.h" 1
 1128 04b2 85F31188 		MSR basepri, r5
 1129              	@ 0 "" 2
 1130              		.thumb
 1131              	.LBE475:
 1132              	.LBE474:
 1133              	.LBE473:
 1134              		.loc 1 300 0
 1135 04b6 FFF7FEFF 		bl	_stats_start_measure_crit_thd
 1136              	.LVL148:
 1137              		.loc 1 301 0
 1138 04ba FFF7FEFF 		bl	_dbg_check_lock
ARM GAS  C:\Users\jo\AppData\Local\Temp\cc063HaK.s 			page 21


 1139              	.LVL149:
 1140              	.LBE472:
 1141              	.LBE471:
 1142              	.LBB476:
 1143              	.LBB477:
 1144              		.loc 5 157 0
 1145 04be FFF7FEFF 		bl	chDbgCheckClassI
 1146              	.LVL150:
 1147              	.LBB478:
 1148              	.LBB479:
 1149              		.loc 4 151 0
 1150 04c2 FFF7FEFF 		bl	chDbgCheckClassI
 1151              	.LVL151:
 1152              	.LBE479:
 1153              	.LBE478:
 1154              	.LBE477:
 1155              	.LBE476:
 1156              		.loc 3 179 0
 1157 04c6 616A     		ldr	r1, [r4, #36]
 1158 04c8 4B1F     		subs	r3, r1, #5
 1159 04ca 5942     		rsbs	r1, r3, #0
 1160 04cc 5941     		adcs	r1, r1, r3
 1161 04ce 1E20     		movs	r0, #30
 1162 04d0 FFF7FEFF 		bl	_test_assert
 1163              	.LVL152:
 1164 04d4 0028     		cmp	r0, #0
 1165 04d6 40F02881 		bne	.L30
 1166              		.loc 3 179 0 is_stmt 0 discriminator 2
 1167 04da FFF7FEFF 		bl	chSysUnlock
 1168              	.LVL153:
 1169              	.LBB480:
 1170              	.LBB481:
 1171              	.LBB482:
 1172              	.LBB483:
 1173              	.LBB484:
 1174              		.loc 2 546 0 is_stmt 1 discriminator 2
 1175              	@ 546 "../../../os/ext/CMSIS/include/core_cmFunc.h" 1
 1176 04de 85F31188 		MSR basepri, r5
 1177              	@ 0 "" 2
 1178              		.thumb
 1179              	.LBE484:
 1180              	.LBE483:
 1181              	.LBE482:
 1182              		.loc 1 300 0 discriminator 2
 1183 04e2 FFF7FEFF 		bl	_stats_start_measure_crit_thd
 1184              	.LVL154:
 1185              		.loc 1 301 0 discriminator 2
 1186 04e6 FFF7FEFF 		bl	_dbg_check_lock
 1187              	.LVL155:
 1188              	.LBE481:
 1189              	.LBE480:
 1190              	.LBB485:
 1191              	.LBB486:
 1192              		.loc 5 176 0 discriminator 2
 1193 04ea FFF7FEFF 		bl	chDbgCheckClassI
 1194              	.LVL156:
 1195              	.LBB487:
ARM GAS  C:\Users\jo\AppData\Local\Temp\cc063HaK.s 			page 22


 1196              	.LBB488:
 1197              		.loc 4 151 0 discriminator 2
 1198 04ee FFF7FEFF 		bl	chDbgCheckClassI
 1199              	.LVL157:
 1200              	.LBE488:
 1201              	.LBE487:
 1202              	.LBE486:
 1203              	.LBE485:
 1204              		.loc 3 180 0 discriminator 2
 1205 04f2 A169     		ldr	r1, [r4, #24]
 1206 04f4 B1FA81F1 		clz	r1, r1
 1207 04f8 1F20     		movs	r0, #31
 1208 04fa 4909     		lsrs	r1, r1, #5
 1209 04fc FFF7FEFF 		bl	_test_assert
 1210              	.LVL158:
 1211 0500 0028     		cmp	r0, #0
 1212 0502 40F01281 		bne	.L30
 1213 0506 FFF7FEFF 		bl	chSysUnlock
 1214              	.LVL159:
 1215              		.loc 3 181 0 discriminator 2
 1216 050a E168     		ldr	r1, [r4, #12]
 1217 050c A368     		ldr	r3, [r4, #8]
 1218 050e C3EB0108 		rsb	r8, r3, r1
 1219              	.LVL160:
 1220 0512 D8F10001 		rsbs	r1, r8, #0
 1221 0516 41EB0801 		adc	r1, r1, r8
 1222 051a 2846     		mov	r0, r5
 1223 051c FFF7FEFF 		bl	_test_assert
 1224              	.LVL161:
 1225 0520 0028     		cmp	r0, #0
 1226 0522 7FF495AD 		bne	.L10
 1227              	.LVL162:
 1228              	.LBB489:
 1229              	.LBB490:
 1230              	.LBB491:
 1231              	.LBB492:
 1232              	.LBB493:
 1233              		.loc 2 546 0
 1234              	@ 546 "../../../os/ext/CMSIS/include/core_cmFunc.h" 1
 1235 0526 85F31188 		MSR basepri, r5
 1236              	@ 0 "" 2
 1237              		.thumb
 1238              	.LBE493:
 1239              	.LBE492:
 1240              	.LBE491:
 1241              		.loc 1 300 0
 1242 052a FFF7FEFF 		bl	_stats_start_measure_crit_thd
 1243              	.LVL163:
 1244              		.loc 1 301 0
 1245 052e FFF7FEFF 		bl	_dbg_check_lock
 1246              	.LVL164:
 1247              	.LBE490:
 1248              	.LBE489:
 1249              		.loc 3 184 0
 1250 0532 4521     		movs	r1, #69
 1251 0534 2046     		mov	r0, r4
 1252 0536 FFF7FEFF 		bl	chMBPostAheadI
ARM GAS  C:\Users\jo\AppData\Local\Temp\cc063HaK.s 			page 23


 1253              	.LVL165:
 1254              		.loc 3 185 0
 1255 053a B0FA80F1 		clz	r1, r0
 1256 053e 2120     		movs	r0, #33
 1257              	.LVL166:
 1258 0540 4909     		lsrs	r1, r1, #5
 1259 0542 FFF7FEFF 		bl	_test_assert
 1260              	.LVL167:
 1261 0546 0028     		cmp	r0, #0
 1262 0548 7FF482AD 		bne	.L10
 1263              		.loc 3 186 0
 1264 054c 4421     		movs	r1, #68
 1265 054e 2046     		mov	r0, r4
 1266 0550 FFF7FEFF 		bl	chMBPostAheadI
 1267              	.LVL168:
 1268              		.loc 3 187 0
 1269 0554 B0FA80F1 		clz	r1, r0
 1270 0558 2220     		movs	r0, #34
 1271              	.LVL169:
 1272 055a 4909     		lsrs	r1, r1, #5
 1273 055c FFF7FEFF 		bl	_test_assert
 1274              	.LVL170:
 1275 0560 0028     		cmp	r0, #0
 1276 0562 7FF475AD 		bne	.L10
 1277              		.loc 3 188 0
 1278 0566 4321     		movs	r1, #67
 1279 0568 2046     		mov	r0, r4
 1280 056a FFF7FEFF 		bl	chMBPostAheadI
 1281              	.LVL171:
 1282              		.loc 3 189 0
 1283 056e B0FA80F1 		clz	r1, r0
 1284 0572 2320     		movs	r0, #35
 1285              	.LVL172:
 1286 0574 4909     		lsrs	r1, r1, #5
 1287 0576 FFF7FEFF 		bl	_test_assert
 1288              	.LVL173:
 1289 057a 0028     		cmp	r0, #0
 1290 057c 7FF468AD 		bne	.L10
 1291              		.loc 3 190 0
 1292 0580 4221     		movs	r1, #66
 1293 0582 2046     		mov	r0, r4
 1294 0584 FFF7FEFF 		bl	chMBPostAheadI
 1295              	.LVL174:
 1296              		.loc 3 191 0
 1297 0588 B0FA80F1 		clz	r1, r0
 1298 058c 2420     		movs	r0, #36
 1299              	.LVL175:
 1300 058e 4909     		lsrs	r1, r1, #5
 1301 0590 FFF7FEFF 		bl	_test_assert
 1302              	.LVL176:
 1303 0594 0028     		cmp	r0, #0
 1304 0596 7FF45BAD 		bne	.L10
 1305              		.loc 3 192 0
 1306 059a 4121     		movs	r1, #65
 1307 059c 2046     		mov	r0, r4
 1308 059e FFF7FEFF 		bl	chMBPostAheadI
 1309              	.LVL177:
ARM GAS  C:\Users\jo\AppData\Local\Temp\cc063HaK.s 			page 24


 1310 05a2 0546     		mov	r5, r0
 1311              	.LVL178:
 1312              		.loc 3 193 0
 1313 05a4 FFF7FEFF 		bl	chSysUnlock
 1314              	.LVL179:
 1315              		.loc 3 194 0
 1316 05a8 B5FA85F1 		clz	r1, r5
 1317 05ac 2520     		movs	r0, #37
 1318 05ae 4909     		lsrs	r1, r1, #5
 1319 05b0 FFF7FEFF 		bl	_test_assert
 1320              	.LVL180:
 1321 05b4 0028     		cmp	r0, #0
 1322 05b6 7FF44BAD 		bne	.L10
 1323              		.loc 3 195 0
 1324 05ba E168     		ldr	r1, [r4, #12]
 1325 05bc A368     		ldr	r3, [r4, #8]
 1326 05be C3EB010C 		rsb	ip, r3, r1
 1327 05c2 DCF10001 		rsbs	r1, ip, #0
 1328 05c6 41EB0C01 		adc	r1, r1, ip
 1329 05ca 2620     		movs	r0, #38
 1330 05cc FFF7FEFF 		bl	_test_assert
 1331              	.LVL181:
 1332 05d0 0028     		cmp	r0, #0
 1333 05d2 7FF43DAD 		bne	.L10
 1334 05d6 0526     		movs	r6, #5
 1335              	.LBB494:
 1336              	.LBB495:
 1337              	.LBB496:
 1338              	.LBB497:
 1339              	.LBB498:
 1340              		.loc 2 546 0
 1341 05d8 2027     		movs	r7, #32
 1342              	.LVL182:
 1343              	.L23:
 1344 05da 2025     		movs	r5, #32
 1345              	@ 546 "../../../os/ext/CMSIS/include/core_cmFunc.h" 1
 1346 05dc 87F31188 		MSR basepri, r7
 1347              	@ 0 "" 2
 1348              		.thumb
 1349              	.LBE498:
 1350              	.LBE497:
 1351              	.LBE496:
 1352              	.LBE495:
 1353              	.LBE494:
 1354              		.loc 3 198 0
 1355 05e0 5B4C     		ldr	r4, .L38
 1356              	.LBB500:
 1357              	.LBB499:
 1358              		.loc 1 300 0
 1359 05e2 FFF7FEFF 		bl	_stats_start_measure_crit_thd
 1360              	.LVL183:
 1361              		.loc 1 301 0
 1362 05e6 FFF7FEFF 		bl	_dbg_check_lock
 1363              	.LVL184:
 1364              	.LBE499:
 1365              	.LBE500:
 1366              		.loc 3 198 0
ARM GAS  C:\Users\jo\AppData\Local\Temp\cc063HaK.s 			page 25


 1367 05ea 01A9     		add	r1, sp, #4
 1368 05ec 2046     		mov	r0, r4
 1369 05ee FFF7FEFF 		bl	chMBFetchI
 1370              	.LVL185:
 1371 05f2 8046     		mov	r8, r0
 1372              	.LVL186:
 1373              		.loc 3 199 0
 1374 05f4 FFF7FEFF 		bl	chSysUnlock
 1375              	.LVL187:
 1376              		.loc 3 200 0
 1377 05f8 B8FA88F1 		clz	r1, r8
 1378 05fc 2720     		movs	r0, #39
 1379 05fe 4909     		lsrs	r1, r1, #5
 1380 0600 FFF7FEFF 		bl	_test_assert
 1381              	.LVL188:
 1382 0604 0028     		cmp	r0, #0
 1383 0606 7FF423AD 		bne	.L10
 1384              		.loc 3 201 0 discriminator 2
 1385 060a 9DF80400 		ldrb	r0, [sp, #4]	@ zero_extendqisi2
 1386 060e FFF7FEFF 		bl	test_emit_token
 1387              	.LVL189:
 1388              		.loc 3 196 0 discriminator 2
 1389 0612 013E     		subs	r6, r6, #1
 1390              	.LVL190:
 1391 0614 E1D1     		bne	.L23
 1392              		.loc 3 203 0
 1393 0616 2820     		movs	r0, #40
 1394 0618 4E49     		ldr	r1, .L38+4
 1395 061a FFF7FEFF 		bl	_test_assert_sequence
 1396              	.LVL191:
 1397 061e 0028     		cmp	r0, #0
 1398 0620 7FF416AD 		bne	.L10
 1399              	.LVL192:
 1400              	.LBB501:
 1401              	.LBB502:
 1402              	.LBB503:
 1403              	.LBB504:
 1404              	.LBB505:
 1405              		.loc 2 546 0
 1406              	@ 546 "../../../os/ext/CMSIS/include/core_cmFunc.h" 1
 1407 0624 85F31188 		MSR basepri, r5
 1408              	@ 0 "" 2
 1409              		.thumb
 1410              	.LBE505:
 1411              	.LBE504:
 1412              	.LBE503:
 1413              		.loc 1 300 0
 1414 0628 FFF7FEFF 		bl	_stats_start_measure_crit_thd
 1415              	.LVL193:
 1416              		.loc 1 301 0
 1417 062c FFF7FEFF 		bl	_dbg_check_lock
 1418              	.LVL194:
 1419              	.LBE502:
 1420              	.LBE501:
 1421              	.LBB506:
 1422              	.LBB507:
 1423              		.loc 5 157 0
ARM GAS  C:\Users\jo\AppData\Local\Temp\cc063HaK.s 			page 26


 1424 0630 FFF7FEFF 		bl	chDbgCheckClassI
 1425              	.LVL195:
 1426              	.LBB508:
 1427              	.LBB509:
 1428              		.loc 4 151 0
 1429 0634 FFF7FEFF 		bl	chDbgCheckClassI
 1430              	.LVL196:
 1431              	.LBE509:
 1432              	.LBE508:
 1433              	.LBE507:
 1434              	.LBE506:
 1435              		.loc 3 204 0
 1436 0638 616A     		ldr	r1, [r4, #36]
 1437 063a A1F1050E 		sub	lr, r1, #5
 1438 063e DEF10001 		rsbs	r1, lr, #0
 1439 0642 41EB0E01 		adc	r1, r1, lr
 1440 0646 2920     		movs	r0, #41
 1441 0648 FFF7FEFF 		bl	_test_assert
 1442              	.LVL197:
 1443 064c 0028     		cmp	r0, #0
 1444 064e 6CD1     		bne	.L30
 1445              		.loc 3 204 0 is_stmt 0 discriminator 2
 1446 0650 FFF7FEFF 		bl	chSysUnlock
 1447              	.LVL198:
 1448              	.LBB510:
 1449              	.LBB511:
 1450              	.LBB512:
 1451              	.LBB513:
 1452              	.LBB514:
 1453              		.loc 2 546 0 is_stmt 1 discriminator 2
 1454              	@ 546 "../../../os/ext/CMSIS/include/core_cmFunc.h" 1
 1455 0654 85F31188 		MSR basepri, r5
 1456              	@ 0 "" 2
 1457              		.thumb
 1458              	.LBE514:
 1459              	.LBE513:
 1460              	.LBE512:
 1461              		.loc 1 300 0 discriminator 2
 1462 0658 FFF7FEFF 		bl	_stats_start_measure_crit_thd
 1463              	.LVL199:
 1464              		.loc 1 301 0 discriminator 2
 1465 065c FFF7FEFF 		bl	_dbg_check_lock
 1466              	.LVL200:
 1467              	.LBE511:
 1468              	.LBE510:
 1469              	.LBB515:
 1470              	.LBB516:
 1471              		.loc 5 176 0 discriminator 2
 1472 0660 FFF7FEFF 		bl	chDbgCheckClassI
 1473              	.LVL201:
 1474              	.LBB517:
 1475              	.LBB518:
 1476              		.loc 4 151 0 discriminator 2
 1477 0664 FFF7FEFF 		bl	chDbgCheckClassI
 1478              	.LVL202:
 1479              	.LBE518:
 1480              	.LBE517:
ARM GAS  C:\Users\jo\AppData\Local\Temp\cc063HaK.s 			page 27


 1481              	.LBE516:
 1482              	.LBE515:
 1483              		.loc 3 205 0 discriminator 2
 1484 0668 A169     		ldr	r1, [r4, #24]
 1485 066a B1FA81F1 		clz	r1, r1
 1486 066e 2A20     		movs	r0, #42
 1487 0670 4909     		lsrs	r1, r1, #5
 1488 0672 FFF7FEFF 		bl	_test_assert
 1489              	.LVL203:
 1490 0676 0028     		cmp	r0, #0
 1491 0678 57D1     		bne	.L30
 1492 067a FFF7FEFF 		bl	chSysUnlock
 1493              	.LVL204:
 1494              		.loc 3 206 0 discriminator 2
 1495 067e E168     		ldr	r1, [r4, #12]
 1496 0680 A368     		ldr	r3, [r4, #8]
 1497 0682 CF1A     		subs	r7, r1, r3
 1498 0684 7942     		rsbs	r1, r7, #0
 1499 0686 7941     		adcs	r1, r1, r7
 1500 0688 2B20     		movs	r0, #43
 1501 068a FFF7FEFF 		bl	_test_assert
 1502              	.LVL205:
 1503 068e 0028     		cmp	r0, #0
 1504 0690 7FF4DEAC 		bne	.L10
 1505              		.loc 3 211 0
 1506 0694 2046     		mov	r0, r4
 1507 0696 FFF7FEFF 		bl	chMBReset
 1508              	.LVL206:
 1509              	.LBB519:
 1510              	.LBB520:
 1511              	.LBB521:
 1512              	.LBB522:
 1513              	.LBB523:
 1514              		.loc 2 546 0
 1515              	@ 546 "../../../os/ext/CMSIS/include/core_cmFunc.h" 1
 1516 069a 85F31188 		MSR basepri, r5
 1517              	@ 0 "" 2
 1518              		.thumb
 1519              	.LBE523:
 1520              	.LBE522:
 1521              	.LBE521:
 1522              		.loc 1 300 0
 1523 069e FFF7FEFF 		bl	_stats_start_measure_crit_thd
 1524              	.LVL207:
 1525              		.loc 1 301 0
 1526 06a2 FFF7FEFF 		bl	_dbg_check_lock
 1527              	.LVL208:
 1528              	.LBE520:
 1529              	.LBE519:
 1530              	.LBB524:
 1531              	.LBB525:
 1532              		.loc 5 157 0
 1533 06a6 FFF7FEFF 		bl	chDbgCheckClassI
 1534              	.LVL209:
 1535              	.LBB526:
 1536              	.LBB527:
 1537              		.loc 4 151 0
ARM GAS  C:\Users\jo\AppData\Local\Temp\cc063HaK.s 			page 28


 1538 06aa FFF7FEFF 		bl	chDbgCheckClassI
 1539              	.LVL210:
 1540              	.LBE527:
 1541              	.LBE526:
 1542              	.LBE525:
 1543              	.LBE524:
 1544              		.loc 3 216 0
 1545 06ae 616A     		ldr	r1, [r4, #36]
 1546 06b0 4E1F     		subs	r6, r1, #5
 1547              	.LVL211:
 1548 06b2 7142     		rsbs	r1, r6, #0
 1549 06b4 7141     		adcs	r1, r1, r6
 1550 06b6 2C20     		movs	r0, #44
 1551 06b8 FFF7FEFF 		bl	_test_assert
 1552              	.LVL212:
 1553 06bc A8BB     		cbnz	r0, .L30
 1554              		.loc 3 216 0 is_stmt 0 discriminator 2
 1555 06be FFF7FEFF 		bl	chSysUnlock
 1556              	.LVL213:
 1557              	.LBB528:
 1558              	.LBB529:
 1559              	.LBB530:
 1560              	.LBB531:
 1561              	.LBB532:
 1562              		.loc 2 546 0 is_stmt 1 discriminator 2
 1563              	@ 546 "../../../os/ext/CMSIS/include/core_cmFunc.h" 1
 1564 06c2 85F31188 		MSR basepri, r5
 1565              	@ 0 "" 2
 1566              		.thumb
 1567              	.LBE532:
 1568              	.LBE531:
 1569              	.LBE530:
 1570              		.loc 1 300 0 discriminator 2
 1571 06c6 FFF7FEFF 		bl	_stats_start_measure_crit_thd
 1572              	.LVL214:
 1573              		.loc 1 301 0 discriminator 2
 1574 06ca FFF7FEFF 		bl	_dbg_check_lock
 1575              	.LVL215:
 1576              	.LBE529:
 1577              	.LBE528:
 1578              	.LBB533:
 1579              	.LBB534:
 1580              		.loc 5 176 0 discriminator 2
 1581 06ce FFF7FEFF 		bl	chDbgCheckClassI
 1582              	.LVL216:
 1583              	.LBB535:
 1584              	.LBB536:
 1585              		.loc 4 151 0 discriminator 2
 1586 06d2 FFF7FEFF 		bl	chDbgCheckClassI
 1587              	.LVL217:
 1588              	.LBE536:
 1589              	.LBE535:
 1590              	.LBE534:
 1591              	.LBE533:
 1592              		.loc 3 217 0 discriminator 2
 1593 06d6 A169     		ldr	r1, [r4, #24]
 1594 06d8 B1FA81F1 		clz	r1, r1
ARM GAS  C:\Users\jo\AppData\Local\Temp\cc063HaK.s 			page 29


 1595 06dc 2D20     		movs	r0, #45
 1596 06de 4909     		lsrs	r1, r1, #5
 1597 06e0 FFF7FEFF 		bl	_test_assert
 1598              	.LVL218:
 1599 06e4 08BB     		cbnz	r0, .L30
 1600 06e6 FFF7FEFF 		bl	chSysUnlock
 1601              	.LVL219:
 1602              	.LBB537:
 1603              	.LBB538:
 1604              	.LBB539:
 1605              	.LBB540:
 1606              	.LBB541:
 1607              		.loc 2 546 0 discriminator 2
 1608              	@ 546 "../../../os/ext/CMSIS/include/core_cmFunc.h" 1
 1609 06ea 85F31188 		MSR basepri, r5
 1610              	@ 0 "" 2
 1611              		.thumb
 1612              	.LBE541:
 1613              	.LBE540:
 1614              	.LBE539:
 1615              		.loc 1 300 0 discriminator 2
 1616 06ee FFF7FEFF 		bl	_stats_start_measure_crit_thd
 1617              	.LVL220:
 1618              		.loc 1 301 0 discriminator 2
 1619 06f2 FFF7FEFF 		bl	_dbg_check_lock
 1620              	.LVL221:
 1621              	.LBE538:
 1622              	.LBE537:
 1623              		.loc 3 218 0 discriminator 2
 1624 06f6 2168     		ldr	r1, [r4]
 1625 06f8 A368     		ldr	r3, [r4, #8]
 1626 06fa CA1A     		subs	r2, r1, r3
 1627 06fc 5142     		rsbs	r1, r2, #0
 1628 06fe 5141     		adcs	r1, r1, r2
 1629 0700 2E20     		movs	r0, #46
 1630 0702 FFF7FEFF 		bl	_test_assert
 1631              	.LVL222:
 1632 0706 80B9     		cbnz	r0, .L30
 1633 0708 FFF7FEFF 		bl	chSysUnlock
 1634              	.LVL223:
 1635              	.LBB542:
 1636              	.LBB543:
 1637              	.LBB544:
 1638              	.LBB545:
 1639              	.LBB546:
 1640              		.loc 2 546 0 discriminator 2
 1641              	@ 546 "../../../os/ext/CMSIS/include/core_cmFunc.h" 1
 1642 070c 85F31188 		MSR basepri, r5
 1643              	@ 0 "" 2
 1644              		.thumb
 1645              	.LBE546:
 1646              	.LBE545:
 1647              	.LBE544:
 1648              		.loc 1 300 0 discriminator 2
 1649 0710 FFF7FEFF 		bl	_stats_start_measure_crit_thd
 1650              	.LVL224:
 1651              		.loc 1 301 0 discriminator 2
ARM GAS  C:\Users\jo\AppData\Local\Temp\cc063HaK.s 			page 30


 1652 0714 FFF7FEFF 		bl	_dbg_check_lock
 1653              	.LVL225:
 1654              	.LBE543:
 1655              	.LBE542:
 1656              		.loc 3 219 0 discriminator 2
 1657 0718 2168     		ldr	r1, [r4]
 1658 071a E368     		ldr	r3, [r4, #12]
 1659 071c CB1A     		subs	r3, r1, r3
 1660 071e 5942     		rsbs	r1, r3, #0
 1661 0720 4FF02F00 		mov	r0, #47
 1662 0724 5941     		adcs	r1, r1, r3
 1663 0726 FFF7FEFF 		bl	_test_assert
 1664              	.LVL226:
 1665              	.L30:
 1666 072a FFF7FEFF 		bl	chSysUnlock
 1667              	.LVL227:
 1668 072e 8FE4     		b	.L10
 1669              	.LVL228:
 1670              	.L32:
 1671              	.LBB547:
 1672              	.LBB383:
 1673              		.loc 1 318 0
 1674 0730 0948     		ldr	r0, .L38+8
 1675 0732 FFF7FEFF 		bl	puts
 1676              	.LVL229:
 1677              	@ 318 "../../../os/rt/include/chsys.h" 1
 1678 0736 00BE     		BKPT #0
 1679              	
 1680              	@ 0 "" 2
 1681              		.thumb
 1682 0738 0848     		ldr	r0, .L38+12
 1683 073a FFF7FEFF 		bl	chSysHalt
 1684              	.LVL230:
 1685 073e 9BE4     		b	.L14
 1686              	.L31:
 1687              	.LBE383:
 1688              	.LBE547:
 1689              	.LBB548:
 1690              	.LBB377:
 1691 0740 0548     		ldr	r0, .L38+8
 1692 0742 FFF7FEFF 		bl	puts
 1693              	.LVL231:
 1694              	@ 318 "../../../os/rt/include/chsys.h" 1
 1695 0746 00BE     		BKPT #0
 1696              	
 1697              	@ 0 "" 2
 1698              		.thumb
 1699 0748 0448     		ldr	r0, .L38+12
 1700 074a FFF7FEFF 		bl	chSysHalt
 1701              	.LVL232:
 1702 074e 7CE4     		b	.L12
 1703              	.L39:
 1704              		.align	2
 1705              	.L38:
 1706 0750 00000000 		.word	.LANCHOR1
 1707 0754 28000000 		.word	.LC1
 1708 0758 00000000 		.word	.LC0
ARM GAS  C:\Users\jo\AppData\Local\Temp\cc063HaK.s 			page 31


 1709 075c 00000000 		.word	.LANCHOR0
 1710              	.LBE377:
 1711              	.LBE548:
 1712              		.cfi_endproc
 1713              	.LFE227:
 1714              		.size	mbox1_execute, .-mbox1_execute
 1715              		.global	patternmbox
 1716              		.global	testmbox1
 1717              		.section	.rodata.str1.4,"aMS",%progbits,1
 1718              		.align	2
 1719              	.LC0:
 1720 0000 7072696F 		.ascii	"priority violation, missing reschedule\000"
 1720      72697479 
 1720      2076696F 
 1720      6C617469 
 1720      6F6E2C20 
 1721 0027 00       		.space	1
 1722              	.LC1:
 1723 0028 41424344 		.ascii	"ABCDE\000"
 1723      4500
 1724 002e 0000     		.space	2
 1725              	.LC2:
 1726 0030 4D61696C 		.ascii	"Mailboxes, queuing and timeouts\000"
 1726      626F7865 
 1726      732C2071 
 1726      75657569 
 1726      6E672061 
 1727              		.section	.rodata.patternmbox,"a",%progbits
 1728              		.align	2
 1729              		.type	patternmbox, %object
 1730              		.size	patternmbox, 8
 1731              	patternmbox:
 1732 0000 00000000 		.word	testmbox1
 1733 0004 00000000 		.word	0
 1734              		.section	.rodata.__func__.6751,"a",%progbits
 1735              		.align	2
 1736              		.set	.LANCHOR0,. + 0
 1737              		.type	__func__.6751, %object
 1738              		.size	__func__.6751, 12
 1739              	__func__.6751:
 1740 0000 63685379 		.ascii	"chSysUnlock\000"
 1740      73556E6C 
 1740      6F636B00 
 1741              		.section	.rodata.testmbox1,"a",%progbits
 1742              		.align	2
 1743              		.type	testmbox1, %object
 1744              		.size	testmbox1, 16
 1745              	testmbox1:
 1746 0000 30000000 		.word	.LC2
 1747 0004 00000000 		.word	mbox1_setup
 1748 0008 00000000 		.word	0
 1749 000c 00000000 		.word	mbox1_execute
 1750              		.section	.data.mb1,"aw",%progbits
 1751              		.align	2
 1752              		.set	.LANCHOR1,. + 0
 1753              		.type	mb1, %object
 1754              		.size	mb1, 40
ARM GAS  C:\Users\jo\AppData\Local\Temp\cc063HaK.s 			page 32


 1755              	mb1:
 1756 0000 00000000 		.word	test
 1757 0004 14000000 		.word	test+20
 1758 0008 00000000 		.word	test
 1759 000c 00000000 		.word	test
 1760 0010 10000000 		.word	mb1+16
 1761 0014 10000000 		.word	mb1+16
 1762 0018 00000000 		.word	0
 1763 001c 1C000000 		.word	mb1+28
 1764 0020 1C000000 		.word	mb1+28
 1765 0024 05000000 		.word	5
 1766              		.text
 1767              	.Letext0:
 1768              		.file 6 "c:\\program files\\gnu tools arm embedded\\4.9 2014q4\\lib\\gcc\\arm-none-eabi\\4.9.3\\in
 1769              		.file 7 "c:\\program files\\gnu tools arm embedded\\4.9 2014q4\\arm-none-eabi\\include\\machine\\_
 1770              		.file 8 "c:\\program files\\gnu tools arm embedded\\4.9 2014q4\\arm-none-eabi\\include\\stdint.h"
 1771              		.file 9 "../../../os/rt/ports/ARMCMx/compilers/GCC/chtypes.h"
 1772              		.file 10 "../../../os/rt/include/chsystypes.h"
 1773              		.file 11 "../../../os/rt/include/chschd.h"
 1774              		.file 12 "../../../os/rt/ports/ARMCMx/chcore.h"
 1775              		.file 13 "../../../os/rt/ports/ARMCMx/chcore_v7m.h"
 1776              		.file 14 "../../../os/rt/include/chdebug.h"
 1777              		.file 15 "../../../os/rt/include/chtm.h"
 1778              		.file 16 "../../../os/rt/include/chstats.h"
 1779              		.file 17 "../../../os/rt/include/chmtx.h"
 1780              		.file 18 "../../../test/rt/test.h"
 1781              		.file 19 "../../../os/ext/CMSIS/include/core_cm4.h"
 1782              		.file 20 "<built-in>"