ARM GAS  C:\Users\jo\AppData\Local\Temp\ccijNLXD.s 			page 1


   1              		.syntax unified
   2              		.cpu cortex-m4
   3              		.fpu softvfp
   4              		.eabi_attribute 20, 1
   5              		.eabi_attribute 21, 1
   6              		.eabi_attribute 23, 3
   7              		.eabi_attribute 24, 1
   8              		.eabi_attribute 25, 1
   9              		.eabi_attribute 26, 1
  10              		.eabi_attribute 30, 2
  11              		.eabi_attribute 34, 1
  12              		.eabi_attribute 18, 4
  13              		.thumb
  14              		.file	"testqueues.c"
  15              		.text
  16              	.Ltext0:
  17              		.cfi_sections	.debug_frame
  18              		.section	.text.notify,"ax",%progbits
  19              		.align	2
  20              		.p2align 4,,15
  21              		.thumb
  22              		.thumb_func
  23              		.type	notify, %function
  24              	notify:
  25              	.LFB226:
  26              		.file 1 "../../../test/rt/testqueues.c"
  27              		.loc 1 57 0
  28              		.cfi_startproc
  29              		@ args = 0, pretend = 0, frame = 0
  30              		@ frame_needed = 0, uses_anonymous_args = 0
  31              		@ link register save eliminated.
  32              	.LVL0:
  33 0000 7047     		bx	lr
  34              		.cfi_endproc
  35              	.LFE226:
  36              		.size	notify, .-notify
  37 0002 00BFAFF3 		.section	.text.thread1,"ax",%progbits
  37      0080AFF3 
  37      0080AFF3 
  37      0080
  38              		.align	2
  39              		.p2align 4,,15
  40              		.thumb
  41              		.thumb_func
  42              		.type	thread1, %function
  43              	thread1:
  44              	.LFB228:
  45              		.loc 1 83 0
  46              		.cfi_startproc
  47              		@ args = 0, pretend = 0, frame = 0
  48              		@ frame_needed = 0, uses_anonymous_args = 0
  49              	.LVL1:
  50              		.loc 1 83 0
  51 0000 08B5     		push	{r3, lr}
  52              		.cfi_def_cfa_offset 8
  53              		.cfi_offset 3, -8
  54              		.cfi_offset 14, -4
ARM GAS  C:\Users\jo\AppData\Local\Temp\ccijNLXD.s 			page 2


  55              		.loc 1 86 0
  56 0002 4FF4FA61 		mov	r1, #2000
  57 0006 0248     		ldr	r0, .L4
  58              	.LVL2:
  59 0008 FFF7FEFF 		bl	chIQGetTimeout
  60              	.LVL3:
  61              		.loc 1 88 0
  62 000c 0020     		movs	r0, #0
  63 000e 08BD     		pop	{r3, pc}
  64              	.L5:
  65              		.align	2
  66              	.L4:
  67 0010 00000000 		.word	.LANCHOR0
  68              		.cfi_endproc
  69              	.LFE228:
  70              		.size	thread1, .-thread1
  71 0014 AFF30080 		.section	.text.chSysUnlock,"ax",%progbits
  71      AFF30080 
  71      AFF30080 
  72              		.align	2
  73              		.p2align 4,,15
  74              		.thumb
  75              		.thumb_func
  76              		.type	chSysUnlock, %function
  77              	chSysUnlock:
  78              	.LFB157:
  79              		.file 2 "../../../os/rt/include/chsys.h"
  80              		.loc 2 309 0
  81              		.cfi_startproc
  82              		@ args = 0, pretend = 0, frame = 0
  83              		@ frame_needed = 0, uses_anonymous_args = 0
  84 0000 08B5     		push	{r3, lr}
  85              		.cfi_def_cfa_offset 8
  86              		.cfi_offset 3, -8
  87              		.cfi_offset 14, -4
  88              		.loc 2 311 0
  89 0002 FFF7FEFF 		bl	_dbg_check_unlock
  90              	.LVL4:
  91              		.loc 2 312 0
  92 0006 FFF7FEFF 		bl	_stats_stop_measure_crit_thd
  93              	.LVL5:
  94              		.loc 2 318 0
  95 000a 094B     		ldr	r3, .L10
  96 000c 9A69     		ldr	r2, [r3, #24]
  97 000e 1B68     		ldr	r3, [r3]
  98 0010 9268     		ldr	r2, [r2, #8]
  99 0012 9B68     		ldr	r3, [r3, #8]
 100 0014 9A42     		cmp	r2, r3
 101 0016 06D2     		bcs	.L7
 102              		.loc 2 318 0 is_stmt 0 discriminator 1
 103 0018 0648     		ldr	r0, .L10+4
 104 001a FFF7FEFF 		bl	puts
 105              	.LVL6:
 106              	@ 318 "../../../os/rt/include/chsys.h" 1
 107 001e 00BE     		BKPT #0
 108              	
 109              	@ 0 "" 2
ARM GAS  C:\Users\jo\AppData\Local\Temp\ccijNLXD.s 			page 3


 110              		.thumb
 111 0020 0548     		ldr	r0, .L10+8
 112 0022 FFF7FEFF 		bl	chSysHalt
 113              	.LVL7:
 114              	.L7:
 115              	.LBB321:
 116              	.LBB322:
 117              	.LBB323:
 118              		.file 3 "../../../os/ext/CMSIS/include/core_cmFunc.h"
 119              		.loc 3 546 0 is_stmt 1
 120 0026 0023     		movs	r3, #0
 121              	@ 546 "../../../os/ext/CMSIS/include/core_cmFunc.h" 1
 122 0028 83F31188 		MSR basepri, r3
 123              	@ 0 "" 2
 124              		.thumb
 125 002c 08BD     		pop	{r3, pc}
 126              	.L11:
 127 002e 00BF     		.align	2
 128              	.L10:
 129 0030 00000000 		.word	ch
 130 0034 00000000 		.word	.LC0
 131 0038 00000000 		.word	.LANCHOR1
 132              	.LBE323:
 133              	.LBE322:
 134              	.LBE321:
 135              		.cfi_endproc
 136              	.LFE157:
 137              		.size	chSysUnlock, .-chSysUnlock
 138 003c AFF30080 		.section	.text.queues1_setup,"ax",%progbits
 139              		.align	2
 140              		.p2align 4,,15
 141              		.thumb
 142              		.thumb_func
 143              		.type	queues1_setup, %function
 144              	queues1_setup:
 145              	.LFB227:
 146              		.loc 1 78 0
 147              		.cfi_startproc
 148              		@ args = 0, pretend = 0, frame = 0
 149              		@ frame_needed = 0, uses_anonymous_args = 0
 150 0000 00B5     		push	{lr}
 151              		.cfi_def_cfa_offset 4
 152              		.cfi_offset 14, -4
 153              		.loc 1 80 0
 154 0002 064B     		ldr	r3, .L14
 155 0004 0648     		ldr	r0, .L14+4
 156 0006 1968     		ldr	r1, [r3]
 157 0008 064B     		ldr	r3, .L14+8
 158              		.loc 1 78 0
 159 000a 83B0     		sub	sp, sp, #12
 160              		.cfi_def_cfa_offset 16
 161              		.loc 1 80 0
 162 000c 0022     		movs	r2, #0
 163 000e 0092     		str	r2, [sp]
 164 0010 0422     		movs	r2, #4
 165 0012 FFF7FEFF 		bl	chIQObjectInit
 166              	.LVL8:
ARM GAS  C:\Users\jo\AppData\Local\Temp\ccijNLXD.s 			page 4


 167              		.loc 1 81 0
 168 0016 03B0     		add	sp, sp, #12
 169              		.cfi_def_cfa_offset 4
 170              		@ sp needed
 171 0018 5DF804FB 		ldr	pc, [sp], #4
 172              	.L15:
 173              		.align	2
 174              	.L14:
 175 001c 00000000 		.word	wa
 176 0020 00000000 		.word	.LANCHOR0
 177 0024 00000000 		.word	notify
 178              		.cfi_endproc
 179              	.LFE227:
 180              		.size	queues1_setup, .-queues1_setup
 181 0028 AFF30080 		.section	.text.thread2,"ax",%progbits
 181      AFF30080 
 182              		.align	2
 183              		.p2align 4,,15
 184              		.thumb
 185              		.thumb_func
 186              		.type	thread2, %function
 187              	thread2:
 188              	.LFB231:
 189              		.loc 1 170 0
 190              		.cfi_startproc
 191              		@ args = 0, pretend = 0, frame = 0
 192              		@ frame_needed = 0, uses_anonymous_args = 0
 193              	.LVL9:
 194 0000 08B5     		push	{r3, lr}
 195              		.cfi_def_cfa_offset 8
 196              		.cfi_offset 3, -8
 197              		.cfi_offset 14, -4
 198              		.loc 1 173 0
 199 0002 0021     		movs	r1, #0
 200 0004 4FF4FA62 		mov	r2, #2000
 201 0008 0248     		ldr	r0, .L18
 202              	.LVL10:
 203 000a FFF7FEFF 		bl	chOQPutTimeout
 204              	.LVL11:
 205              		.loc 1 175 0
 206 000e 0020     		movs	r0, #0
 207 0010 08BD     		pop	{r3, pc}
 208              	.L19:
 209 0012 00BF     		.align	2
 210              	.L18:
 211 0014 00000000 		.word	.LANCHOR2
 212              		.cfi_endproc
 213              	.LFE231:
 214              		.size	thread2, .-thread2
 215 0018 AFF30080 		.section	.text.queues2_setup,"ax",%progbits
 215      AFF30080 
 216              		.align	2
 217              		.p2align 4,,15
 218              		.thumb
 219              		.thumb_func
 220              		.type	queues2_setup, %function
 221              	queues2_setup:
ARM GAS  C:\Users\jo\AppData\Local\Temp\ccijNLXD.s 			page 5


 222              	.LFB230:
 223              		.loc 1 165 0
 224              		.cfi_startproc
 225              		@ args = 0, pretend = 0, frame = 0
 226              		@ frame_needed = 0, uses_anonymous_args = 0
 227 0000 00B5     		push	{lr}
 228              		.cfi_def_cfa_offset 4
 229              		.cfi_offset 14, -4
 230              		.loc 1 167 0
 231 0002 064B     		ldr	r3, .L22
 232 0004 0648     		ldr	r0, .L22+4
 233 0006 1968     		ldr	r1, [r3]
 234 0008 064B     		ldr	r3, .L22+8
 235              		.loc 1 165 0
 236 000a 83B0     		sub	sp, sp, #12
 237              		.cfi_def_cfa_offset 16
 238              		.loc 1 167 0
 239 000c 0022     		movs	r2, #0
 240 000e 0092     		str	r2, [sp]
 241 0010 0422     		movs	r2, #4
 242 0012 FFF7FEFF 		bl	chOQObjectInit
 243              	.LVL12:
 244              		.loc 1 168 0
 245 0016 03B0     		add	sp, sp, #12
 246              		.cfi_def_cfa_offset 4
 247              		@ sp needed
 248 0018 5DF804FB 		ldr	pc, [sp], #4
 249              	.L23:
 250              		.align	2
 251              	.L22:
 252 001c 00000000 		.word	wa
 253 0020 00000000 		.word	.LANCHOR2
 254 0024 00000000 		.word	notify
 255              		.cfi_endproc
 256              	.LFE230:
 257              		.size	queues2_setup, .-queues2_setup
 258 0028 AFF30080 		.section	.text.queues1_execute,"ax",%progbits
 258      AFF30080 
 259              		.align	2
 260              		.p2align 4,,15
 261              		.thumb
 262              		.thumb_func
 263              		.type	queues1_execute, %function
 264              	queues1_execute:
 265              	.LFB229:
 266              		.loc 1 90 0
 267              		.cfi_startproc
 268              		@ args = 0, pretend = 0, frame = 0
 269              		@ frame_needed = 0, uses_anonymous_args = 0
 270              	.LVL13:
 271 0000 2DE9F041 		push	{r4, r5, r6, r7, r8, lr}
 272              		.cfi_def_cfa_offset 24
 273              		.cfi_offset 4, -24
 274              		.cfi_offset 5, -20
 275              		.cfi_offset 6, -16
 276              		.cfi_offset 7, -12
 277              		.cfi_offset 8, -8
ARM GAS  C:\Users\jo\AppData\Local\Temp\ccijNLXD.s 			page 6


 278              		.cfi_offset 14, -4
 279              	.LBB478:
 280              	.LBB479:
 281              	.LBB480:
 282              	.LBB481:
 283              	.LBB482:
 284              		.loc 3 546 0
 285 0004 2023     		movs	r3, #32
 286              	.LBE482:
 287              	.LBE481:
 288              	.LBE480:
 289              	.LBE479:
 290              	.LBE478:
 291              		.loc 1 90 0
 292 0006 82B0     		sub	sp, sp, #8
 293              		.cfi_def_cfa_offset 32
 294              	.LBB488:
 295              	.LBB486:
 296              	.LBB485:
 297              	.LBB484:
 298              	.LBB483:
 299              		.loc 3 546 0
 300              	@ 546 "../../../os/ext/CMSIS/include/core_cmFunc.h" 1
 301 0008 83F31188 		MSR basepri, r3
 302              	@ 0 "" 2
 303              		.thumb
 304              	.LBE483:
 305              	.LBE484:
 306              	.LBE485:
 307              	.LBE486:
 308              	.LBE488:
 309              	.LBB489:
 310              	.LBB490:
 311              		.file 4 "../../../os/rt/include/chqueues.h"
 312              		.loc 4 304 0
 313 000c BC4E     		ldr	r6, .L69
 314              	.LBE490:
 315              	.LBE489:
 316              	.LBB492:
 317              	.LBB487:
 318              		.loc 2 300 0
 319 000e FFF7FEFF 		bl	_stats_start_measure_crit_thd
 320              	.LVL14:
 321              		.loc 2 301 0
 322 0012 FFF7FEFF 		bl	_dbg_check_lock
 323              	.LVL15:
 324              	.LBE487:
 325              	.LBE492:
 326              	.LBB493:
 327              	.LBB491:
 328              		.loc 4 302 0
 329 0016 FFF7FEFF 		bl	chDbgCheckClassI
 330              	.LVL16:
 331              		.loc 4 304 0
 332 001a B168     		ldr	r1, [r6, #8]
 333              	.LBE491:
 334              	.LBE493:
ARM GAS  C:\Users\jo\AppData\Local\Temp\ccijNLXD.s 			page 7


 335              		.loc 1 95 0
 336 001c B1FA81F1 		clz	r1, r1
 337 0020 0120     		movs	r0, #1
 338 0022 4909     		lsrs	r1, r1, #5
 339 0024 FFF7FEFF 		bl	_test_assert
 340              	.LVL17:
 341 0028 0746     		mov	r7, r0
 342 002a 0028     		cmp	r0, #0
 343 002c 40F0E881 		bne	.L63
 344              	.LBB494:
 345              	.LBB495:
 346              	.LBB496:
 347              	.LBB497:
 348              		.loc 2 318 0
 349 0030 B44D     		ldr	r5, .L69+4
 350              		.loc 2 311 0
 351 0032 FFF7FEFF 		bl	_dbg_check_unlock
 352              	.LVL18:
 353              		.loc 2 312 0
 354 0036 FFF7FEFF 		bl	_stats_stop_measure_crit_thd
 355              	.LVL19:
 356              		.loc 2 318 0
 357 003a AA69     		ldr	r2, [r5, #24]
 358 003c 2B68     		ldr	r3, [r5]
 359 003e 9268     		ldr	r2, [r2, #8]
 360 0040 9B68     		ldr	r3, [r3, #8]
 361 0042 9A42     		cmp	r2, r3
 362 0044 C0F0D481 		bcc	.L64
 363              	.L28:
 364              	.LVL20:
 365              	.LBB498:
 366              	.LBB499:
 367              	.LBB500:
 368              		.loc 3 546 0
 369 0048 0023     		movs	r3, #0
 370              	@ 546 "../../../os/ext/CMSIS/include/core_cmFunc.h" 1
 371 004a 83F31188 		MSR basepri, r3
 372              	@ 0 "" 2
 373              	.LVL21:
 374              		.thumb
 375              	.LBE500:
 376              	.LBE499:
 377              	.LBE498:
 378              	.LBE497:
 379              	.LBE496:
 380              	.LBB502:
 381              	.LBB503:
 382              	.LBB504:
 383              	.LBB505:
 384              	.LBB506:
 385 004e 2023     		movs	r3, #32
 386              	@ 546 "../../../os/ext/CMSIS/include/core_cmFunc.h" 1
 387 0050 83F31188 		MSR basepri, r3
 388              	@ 0 "" 2
 389              		.thumb
 390              	.LBE506:
 391              	.LBE505:
ARM GAS  C:\Users\jo\AppData\Local\Temp\ccijNLXD.s 			page 8


 392              	.LBE504:
 393              		.loc 2 300 0
 394 0054 FFF7FEFF 		bl	_stats_start_measure_crit_thd
 395              	.LVL22:
 396              		.loc 2 301 0
 397 0058 FFF7FEFF 		bl	_dbg_check_lock
 398              	.LVL23:
 399 005c 4124     		movs	r4, #65
 400              	.LVL24:
 401              	.L29:
 402              	.LBE503:
 403              	.LBE502:
 404              		.loc 1 100 0
 405 005e 2146     		mov	r1, r4
 406 0060 0134     		adds	r4, r4, #1
 407 0062 A748     		ldr	r0, .L69
 408 0064 E4B2     		uxtb	r4, r4
 409 0066 FFF7FEFF 		bl	chIQPutI
 410              	.LVL25:
 411              		.loc 1 99 0
 412 006a 452C     		cmp	r4, #69
 413 006c F7D1     		bne	.L29
 414              	.LBB507:
 415              	.LBB508:
 416              		.loc 2 311 0
 417 006e FFF7FEFF 		bl	_dbg_check_unlock
 418              	.LVL26:
 419              		.loc 2 312 0
 420 0072 FFF7FEFF 		bl	_stats_stop_measure_crit_thd
 421              	.LVL27:
 422              		.loc 2 318 0
 423 0076 AA69     		ldr	r2, [r5, #24]
 424 0078 2B68     		ldr	r3, [r5]
 425 007a 9268     		ldr	r2, [r2, #8]
 426 007c 9B68     		ldr	r3, [r3, #8]
 427 007e 9A42     		cmp	r2, r3
 428 0080 C0F0AE81 		bcc	.L65
 429              	.L30:
 430              	.LVL28:
 431              	.LBB509:
 432              	.LBB510:
 433              	.LBB511:
 434              		.loc 3 546 0
 435 0084 0023     		movs	r3, #0
 436              	@ 546 "../../../os/ext/CMSIS/include/core_cmFunc.h" 1
 437 0086 83F31188 		MSR basepri, r3
 438              	@ 0 "" 2
 439              	.LVL29:
 440              		.thumb
 441              	.LBE511:
 442              	.LBE510:
 443              	.LBE509:
 444              	.LBE508:
 445              	.LBE507:
 446              	.LBB513:
 447              	.LBB514:
 448              	.LBB515:
ARM GAS  C:\Users\jo\AppData\Local\Temp\ccijNLXD.s 			page 9


 449              	.LBB516:
 450              	.LBB517:
 451 008a 2023     		movs	r3, #32
 452              	@ 546 "../../../os/ext/CMSIS/include/core_cmFunc.h" 1
 453 008c 83F31188 		MSR basepri, r3
 454              	@ 0 "" 2
 455              		.thumb
 456              	.LBE517:
 457              	.LBE516:
 458              	.LBE515:
 459              		.loc 2 300 0
 460 0090 FFF7FEFF 		bl	_stats_start_measure_crit_thd
 461              	.LVL30:
 462              		.loc 2 301 0
 463 0094 FFF7FEFF 		bl	_dbg_check_lock
 464              	.LVL31:
 465              	.LBE514:
 466              	.LBE513:
 467              	.LBB518:
 468              	.LBB519:
 469              		.loc 4 319 0
 470 0098 FFF7FEFF 		bl	chDbgCheckClassI
 471              	.LVL32:
 472              		.loc 4 321 0
 473 009c 7269     		ldr	r2, [r6, #20]
 474 009e B369     		ldr	r3, [r6, #24]
 475 00a0 9749     		ldr	r1, .L69
 476 00a2 9A42     		cmp	r2, r3
 477 00a4 00F0C781 		beq	.L66
 478              	.L31:
 479              	.LBE519:
 480              	.LBE518:
 481              		.loc 1 102 0
 482 00a8 3946     		mov	r1, r7
 483 00aa 0220     		movs	r0, #2
 484 00ac FFF7FEFF 		bl	_test_assert
 485              	.LVL33:
 486 00b0 0028     		cmp	r0, #0
 487 00b2 40F08581 		bne	.L60
 488              	.LBB521:
 489              	.LBB522:
 490              		.loc 2 311 0
 491 00b6 FFF7FEFF 		bl	_dbg_check_unlock
 492              	.LVL34:
 493              		.loc 2 312 0
 494 00ba FFF7FEFF 		bl	_stats_stop_measure_crit_thd
 495              	.LVL35:
 496              		.loc 2 318 0
 497 00be AA69     		ldr	r2, [r5, #24]
 498 00c0 2B68     		ldr	r3, [r5]
 499 00c2 9268     		ldr	r2, [r2, #8]
 500 00c4 9B68     		ldr	r3, [r3, #8]
 501 00c6 9A42     		cmp	r2, r3
 502 00c8 06D2     		bcs	.L34
 503 00ca 8F48     		ldr	r0, .L69+8
 504 00cc FFF7FEFF 		bl	puts
 505              	.LVL36:
ARM GAS  C:\Users\jo\AppData\Local\Temp\ccijNLXD.s 			page 10


 506              	@ 318 "../../../os/rt/include/chsys.h" 1
 507 00d0 00BE     		BKPT #0
 508              	
 509              	@ 0 "" 2
 510              		.thumb
 511 00d2 8E48     		ldr	r0, .L69+12
 512 00d4 FFF7FEFF 		bl	chSysHalt
 513              	.LVL37:
 514              	.L34:
 515              	.LBB523:
 516              	.LBB524:
 517              	.LBB525:
 518              		.loc 3 546 0
 519 00d8 0024     		movs	r4, #0
 520              	@ 546 "../../../os/ext/CMSIS/include/core_cmFunc.h" 1
 521 00da 84F31188 		MSR basepri, r4
 522              	@ 0 "" 2
 523              	.LVL38:
 524              		.thumb
 525              	.LBE525:
 526              	.LBE524:
 527              	.LBE523:
 528              	.LBE522:
 529              	.LBE521:
 530              	.LBB526:
 531              	.LBB527:
 532              	.LBB528:
 533              	.LBB529:
 534              	.LBB530:
 535 00de 2023     		movs	r3, #32
 536              	@ 546 "../../../os/ext/CMSIS/include/core_cmFunc.h" 1
 537 00e0 83F31188 		MSR basepri, r3
 538              	@ 0 "" 2
 539              		.thumb
 540              	.LBE530:
 541              	.LBE529:
 542              	.LBE528:
 543              		.loc 2 300 0
 544 00e4 FFF7FEFF 		bl	_stats_start_measure_crit_thd
 545              	.LVL39:
 546              		.loc 2 301 0
 547 00e8 FFF7FEFF 		bl	_dbg_check_lock
 548              	.LVL40:
 549              	.LBE527:
 550              	.LBE526:
 551              		.loc 1 103 0
 552 00ec 2146     		mov	r1, r4
 553 00ee 8448     		ldr	r0, .L69
 554 00f0 FFF7FEFF 		bl	chIQPutI
 555              	.LVL41:
 556 00f4 0430     		adds	r0, r0, #4
 557 00f6 14BF     		ite	ne
 558 00f8 0021     		movne	r1, #0
 559 00fa 0121     		moveq	r1, #1
 560 00fc 0320     		movs	r0, #3
 561 00fe FFF7FEFF 		bl	_test_assert
 562              	.LVL42:
ARM GAS  C:\Users\jo\AppData\Local\Temp\ccijNLXD.s 			page 11


 563 0102 0028     		cmp	r0, #0
 564 0104 40F05C81 		bne	.L60
 565              	.LBB531:
 566              	.LBB532:
 567              		.loc 2 311 0
 568 0108 FFF7FEFF 		bl	_dbg_check_unlock
 569              	.LVL43:
 570              		.loc 2 312 0
 571 010c FFF7FEFF 		bl	_stats_stop_measure_crit_thd
 572              	.LVL44:
 573              		.loc 2 318 0
 574 0110 AA69     		ldr	r2, [r5, #24]
 575 0112 2B68     		ldr	r3, [r5]
 576 0114 9268     		ldr	r2, [r2, #8]
 577 0116 9B68     		ldr	r3, [r3, #8]
 578 0118 9A42     		cmp	r2, r3
 579 011a C0F08481 		bcc	.L67
 580              	.L37:
 581              	.LVL45:
 582              	.LBB533:
 583              	.LBB534:
 584              	.LBB535:
 585              		.loc 3 546 0
 586 011e 0023     		movs	r3, #0
 587              	@ 546 "../../../os/ext/CMSIS/include/core_cmFunc.h" 1
 588 0120 83F31188 		MSR basepri, r3
 589              	@ 0 "" 2
 590              	.LVL46:
 591              		.thumb
 592 0124 0424     		movs	r4, #4
 593              	.LVL47:
 594              	.L38:
 595              	.LBE535:
 596              	.LBE534:
 597              	.LBE533:
 598              	.LBE532:
 599              	.LBE531:
 600              	.LBB537:
 601              	.LBB538:
 602              		.loc 4 338 0
 603 0126 764E     		ldr	r6, .L69
 604 0128 4FF0FF31 		mov	r1, #-1
 605 012c 3046     		mov	r0, r6
 606 012e FFF7FEFF 		bl	chIQGetTimeout
 607              	.LVL48:
 608              	.LBE538:
 609              	.LBE537:
 610              		.loc 1 107 0
 611 0132 C0B2     		uxtb	r0, r0
 612 0134 FFF7FEFF 		bl	test_emit_token
 613              	.LVL49:
 614              		.loc 1 106 0
 615 0138 013C     		subs	r4, r4, #1
 616              	.LVL50:
 617 013a F4D1     		bne	.L38
 618              	.LVL51:
 619              	.LBB539:
ARM GAS  C:\Users\jo\AppData\Local\Temp\ccijNLXD.s 			page 12


 620              	.LBB540:
 621              	.LBB541:
 622              	.LBB542:
 623              	.LBB543:
 624              		.loc 3 546 0
 625 013c 2023     		movs	r3, #32
 626              	@ 546 "../../../os/ext/CMSIS/include/core_cmFunc.h" 1
 627 013e 83F31188 		MSR basepri, r3
 628              	@ 0 "" 2
 629              		.thumb
 630              	.LBE543:
 631              	.LBE542:
 632              	.LBE541:
 633              		.loc 2 300 0
 634 0142 FFF7FEFF 		bl	_stats_start_measure_crit_thd
 635              	.LVL52:
 636              		.loc 2 301 0
 637 0146 FFF7FEFF 		bl	_dbg_check_lock
 638              	.LVL53:
 639              	.LBE540:
 640              	.LBE539:
 641              	.LBB544:
 642              	.LBB545:
 643              		.loc 4 302 0
 644 014a FFF7FEFF 		bl	chDbgCheckClassI
 645              	.LVL54:
 646              		.loc 4 304 0
 647 014e B168     		ldr	r1, [r6, #8]
 648              	.LBE545:
 649              	.LBE544:
 650              		.loc 1 108 0
 651 0150 B1FA81F1 		clz	r1, r1
 652 0154 0420     		movs	r0, #4
 653 0156 4909     		lsrs	r1, r1, #5
 654 0158 FFF7FEFF 		bl	_test_assert
 655              	.LVL55:
 656 015c 0028     		cmp	r0, #0
 657 015e 40F02F81 		bne	.L60
 658              	.LBB546:
 659              	.LBB547:
 660              		.loc 2 311 0
 661 0162 FFF7FEFF 		bl	_dbg_check_unlock
 662              	.LVL56:
 663              		.loc 2 312 0
 664 0166 FFF7FEFF 		bl	_stats_stop_measure_crit_thd
 665              	.LVL57:
 666              		.loc 2 318 0
 667 016a AA69     		ldr	r2, [r5, #24]
 668 016c 2B68     		ldr	r3, [r5]
 669 016e 9268     		ldr	r2, [r2, #8]
 670 0170 9B68     		ldr	r3, [r3, #8]
 671 0172 9A42     		cmp	r2, r3
 672 0174 06D2     		bcs	.L41
 673 0176 6448     		ldr	r0, .L69+8
 674 0178 FFF7FEFF 		bl	puts
 675              	.LVL58:
 676              	@ 318 "../../../os/rt/include/chsys.h" 1
ARM GAS  C:\Users\jo\AppData\Local\Temp\ccijNLXD.s 			page 13


 677 017c 00BE     		BKPT #0
 678              	
 679              	@ 0 "" 2
 680              		.thumb
 681 017e 6348     		ldr	r0, .L69+12
 682 0180 FFF7FEFF 		bl	chSysHalt
 683              	.LVL59:
 684              	.L41:
 685              	.LBB548:
 686              	.LBB549:
 687              	.LBB550:
 688              		.loc 3 546 0
 689 0184 0023     		movs	r3, #0
 690              	@ 546 "../../../os/ext/CMSIS/include/core_cmFunc.h" 1
 691 0186 83F31188 		MSR basepri, r3
 692              	@ 0 "" 2
 693              		.thumb
 694              	.LBE550:
 695              	.LBE549:
 696              	.LBE548:
 697              	.LBE547:
 698              	.LBE546:
 699              		.loc 1 109 0
 700 018a 0520     		movs	r0, #5
 701 018c 6049     		ldr	r1, .L69+16
 702 018e FFF7FEFF 		bl	_test_assert_sequence
 703              	.LVL60:
 704 0192 0028     		cmp	r0, #0
 705 0194 40F02181 		bne	.L24
 706              	.LVL61:
 707              	.LBB551:
 708              	.LBB552:
 709              	.LBB553:
 710              	.LBB554:
 711              	.LBB555:
 712              		.loc 3 546 0
 713 0198 2023     		movs	r3, #32
 714              	@ 546 "../../../os/ext/CMSIS/include/core_cmFunc.h" 1
 715 019a 83F31188 		MSR basepri, r3
 716              	@ 0 "" 2
 717              		.thumb
 718              	.LBE555:
 719              	.LBE554:
 720              	.LBE553:
 721              		.loc 2 300 0
 722 019e FFF7FEFF 		bl	_stats_start_measure_crit_thd
 723              	.LVL62:
 724              		.loc 2 301 0
 725 01a2 FFF7FEFF 		bl	_dbg_check_lock
 726              	.LVL63:
 727 01a6 4124     		movs	r4, #65
 728              	.LVL64:
 729              	.L43:
 730              	.LBE552:
 731              	.LBE551:
 732              		.loc 1 114 0
 733 01a8 2146     		mov	r1, r4
ARM GAS  C:\Users\jo\AppData\Local\Temp\ccijNLXD.s 			page 14


 734 01aa 0134     		adds	r4, r4, #1
 735 01ac 5448     		ldr	r0, .L69
 736 01ae E4B2     		uxtb	r4, r4
 737 01b0 FFF7FEFF 		bl	chIQPutI
 738              	.LVL65:
 739              		.loc 1 113 0
 740 01b4 452C     		cmp	r4, #69
 741 01b6 F7D1     		bne	.L43
 742              	.LBB556:
 743              	.LBB557:
 744              		.loc 2 311 0
 745 01b8 FFF7FEFF 		bl	_dbg_check_unlock
 746              	.LVL66:
 747              		.loc 2 312 0
 748 01bc FFF7FEFF 		bl	_stats_stop_measure_crit_thd
 749              	.LVL67:
 750              		.loc 2 318 0
 751 01c0 AA69     		ldr	r2, [r5, #24]
 752 01c2 2B68     		ldr	r3, [r5]
 753 01c4 9268     		ldr	r2, [r2, #8]
 754 01c6 9B68     		ldr	r3, [r3, #8]
 755 01c8 9A42     		cmp	r2, r3
 756 01ca C0F03981 		bcc	.L68
 757              	.L44:
 758              	.LVL68:
 759              	.LBB558:
 760              	.LBB559:
 761              	.LBB560:
 762              		.loc 3 546 0
 763 01ce 0023     		movs	r3, #0
 764              	@ 546 "../../../os/ext/CMSIS/include/core_cmFunc.h" 1
 765 01d0 83F31188 		MSR basepri, r3
 766              	@ 0 "" 2
 767              		.thumb
 768              	.LBE560:
 769              	.LBE559:
 770              	.LBE558:
 771              	.LBE557:
 772              	.LBE556:
 773              		.loc 1 118 0
 774 01d4 4A4C     		ldr	r4, .L69
 775 01d6 4F4E     		ldr	r6, .L69+20
 776 01d8 2046     		mov	r0, r4
 777 01da 7168     		ldr	r1, [r6, #4]
 778 01dc 0822     		movs	r2, #8
 779 01de FFF7FEFF 		bl	chIQReadTimeout
 780              	.LVL69:
 781              		.loc 1 119 0
 782 01e2 A0F10401 		sub	r1, r0, #4
 783 01e6 0620     		movs	r0, #6
 784              	.LVL70:
 785 01e8 B1FA81F1 		clz	r1, r1
 786              	.LVL71:
 787 01ec 4909     		lsrs	r1, r1, #5
 788 01ee FFF7FEFF 		bl	_test_assert
 789              	.LVL72:
 790 01f2 0028     		cmp	r0, #0
ARM GAS  C:\Users\jo\AppData\Local\Temp\ccijNLXD.s 			page 15


 791 01f4 40F0F180 		bne	.L24
 792              	.LVL73:
 793              	.LBB562:
 794              	.LBB563:
 795              	.LBB564:
 796              	.LBB565:
 797              	.LBB566:
 798              		.loc 3 546 0
 799 01f8 2023     		movs	r3, #32
 800              	@ 546 "../../../os/ext/CMSIS/include/core_cmFunc.h" 1
 801 01fa 83F31188 		MSR basepri, r3
 802              	@ 0 "" 2
 803              		.thumb
 804              	.LBE566:
 805              	.LBE565:
 806              	.LBE564:
 807              		.loc 2 300 0
 808 01fe FFF7FEFF 		bl	_stats_start_measure_crit_thd
 809              	.LVL74:
 810              		.loc 2 301 0
 811 0202 FFF7FEFF 		bl	_dbg_check_lock
 812              	.LVL75:
 813              	.LBE563:
 814              	.LBE562:
 815              	.LBB567:
 816              	.LBB568:
 817              		.loc 4 302 0
 818 0206 FFF7FEFF 		bl	chDbgCheckClassI
 819              	.LVL76:
 820              		.loc 4 304 0
 821 020a A168     		ldr	r1, [r4, #8]
 822              	.LBE568:
 823              	.LBE567:
 824              		.loc 1 120 0
 825 020c B1FA81F1 		clz	r1, r1
 826 0210 0720     		movs	r0, #7
 827 0212 4909     		lsrs	r1, r1, #5
 828 0214 FFF7FEFF 		bl	_test_assert
 829              	.LVL77:
 830 0218 0028     		cmp	r0, #0
 831 021a 40F0D180 		bne	.L60
 832              	.LBB569:
 833              	.LBB570:
 834              		.loc 2 311 0
 835 021e FFF7FEFF 		bl	_dbg_check_unlock
 836              	.LVL78:
 837              		.loc 2 312 0
 838 0222 FFF7FEFF 		bl	_stats_stop_measure_crit_thd
 839              	.LVL79:
 840              		.loc 2 318 0
 841 0226 AA69     		ldr	r2, [r5, #24]
 842 0228 2B68     		ldr	r3, [r5]
 843 022a 9268     		ldr	r2, [r2, #8]
 844 022c 9B68     		ldr	r3, [r3, #8]
 845 022e 9A42     		cmp	r2, r3
 846 0230 06D2     		bcs	.L48
 847 0232 3548     		ldr	r0, .L69+8
ARM GAS  C:\Users\jo\AppData\Local\Temp\ccijNLXD.s 			page 16


 848 0234 FFF7FEFF 		bl	puts
 849              	.LVL80:
 850              	@ 318 "../../../os/rt/include/chsys.h" 1
 851 0238 00BE     		BKPT #0
 852              	
 853              	@ 0 "" 2
 854              		.thumb
 855 023a 3448     		ldr	r0, .L69+12
 856 023c FFF7FEFF 		bl	chSysHalt
 857              	.LVL81:
 858              	.L48:
 859              	.LBB571:
 860              	.LBB572:
 861              	.LBB573:
 862              		.loc 3 546 0
 863 0240 0023     		movs	r3, #0
 864              	@ 546 "../../../os/ext/CMSIS/include/core_cmFunc.h" 1
 865 0242 83F31188 		MSR basepri, r3
 866              	@ 0 "" 2
 867              	.LVL82:
 868              		.thumb
 869              	.LBE573:
 870              	.LBE572:
 871              	.LBE571:
 872              	.LBE570:
 873              	.LBE569:
 874              	.LBB574:
 875              	.LBB575:
 876              	.LBB576:
 877              	.LBB577:
 878              	.LBB578:
 879 0246 2023     		movs	r3, #32
 880              	@ 546 "../../../os/ext/CMSIS/include/core_cmFunc.h" 1
 881 0248 83F31188 		MSR basepri, r3
 882              	@ 0 "" 2
 883              		.thumb
 884              	.LBE578:
 885              	.LBE577:
 886              	.LBE576:
 887              		.loc 2 300 0
 888 024c FFF7FEFF 		bl	_stats_start_measure_crit_thd
 889              	.LVL83:
 890              		.loc 2 301 0
 891 0250 FFF7FEFF 		bl	_dbg_check_lock
 892              	.LVL84:
 893 0254 4124     		movs	r4, #65
 894              	.LVL85:
 895              	.L49:
 896              	.LBE575:
 897              	.LBE574:
 898              		.loc 1 125 0
 899 0256 2146     		mov	r1, r4
 900 0258 0134     		adds	r4, r4, #1
 901 025a 2948     		ldr	r0, .L69
 902 025c E4B2     		uxtb	r4, r4
 903 025e FFF7FEFF 		bl	chIQPutI
 904              	.LVL86:
ARM GAS  C:\Users\jo\AppData\Local\Temp\ccijNLXD.s 			page 17


 905              		.loc 1 124 0
 906 0262 452C     		cmp	r4, #69
 907 0264 F7D1     		bne	.L49
 908              	.LBB579:
 909              	.LBB580:
 910              		.loc 2 311 0
 911 0266 FFF7FEFF 		bl	_dbg_check_unlock
 912              	.LVL87:
 913              		.loc 2 312 0
 914 026a FFF7FEFF 		bl	_stats_stop_measure_crit_thd
 915              	.LVL88:
 916              		.loc 2 318 0
 917 026e AA69     		ldr	r2, [r5, #24]
 918 0270 2B68     		ldr	r3, [r5]
 919 0272 9268     		ldr	r2, [r2, #8]
 920 0274 9B68     		ldr	r3, [r3, #8]
 921 0276 9A42     		cmp	r2, r3
 922 0278 06D2     		bcs	.L50
 923 027a 2348     		ldr	r0, .L69+8
 924 027c FFF7FEFF 		bl	puts
 925              	.LVL89:
 926              	@ 318 "../../../os/rt/include/chsys.h" 1
 927 0280 00BE     		BKPT #0
 928              	
 929              	@ 0 "" 2
 930              		.thumb
 931 0282 2248     		ldr	r0, .L69+12
 932 0284 FFF7FEFF 		bl	chSysHalt
 933              	.LVL90:
 934              	.L50:
 935              	.LBB581:
 936              	.LBB582:
 937              	.LBB583:
 938              		.loc 3 546 0
 939 0288 0023     		movs	r3, #0
 940              	@ 546 "../../../os/ext/CMSIS/include/core_cmFunc.h" 1
 941 028a 83F31188 		MSR basepri, r3
 942              	@ 0 "" 2
 943              		.thumb
 944              	.LBE583:
 945              	.LBE582:
 946              	.LBE581:
 947              	.LBE580:
 948              	.LBE579:
 949              		.loc 1 129 0
 950 028e 1C4C     		ldr	r4, .L69
 951 0290 7668     		ldr	r6, [r6, #4]
 952 0292 204F     		ldr	r7, .L69+20
 953 0294 3146     		mov	r1, r6
 954 0296 2046     		mov	r0, r4
 955 0298 0222     		movs	r2, #2
 956 029a FFF7FEFF 		bl	chIQReadTimeout
 957              	.LVL91:
 958              		.loc 1 130 0
 959 029e A0F10201 		sub	r1, r0, #2
 960 02a2 0820     		movs	r0, #8
 961              	.LVL92:
ARM GAS  C:\Users\jo\AppData\Local\Temp\ccijNLXD.s 			page 18


 962 02a4 B1FA81F1 		clz	r1, r1
 963              	.LVL93:
 964 02a8 4909     		lsrs	r1, r1, #5
 965 02aa FFF7FEFF 		bl	_test_assert
 966              	.LVL94:
 967 02ae 0028     		cmp	r0, #0
 968 02b0 40F09380 		bne	.L24
 969              		.loc 1 131 0
 970 02b4 3146     		mov	r1, r6
 971 02b6 0346     		mov	r3, r0
 972 02b8 0222     		movs	r2, #2
 973 02ba 2046     		mov	r0, r4
 974 02bc FFF7FEFF 		bl	chIQReadTimeout
 975              	.LVL95:
 976              		.loc 1 132 0
 977 02c0 A0F10201 		sub	r1, r0, #2
 978 02c4 0920     		movs	r0, #9
 979              	.LVL96:
 980 02c6 B1FA81F1 		clz	r1, r1
 981              	.LVL97:
 982 02ca 4909     		lsrs	r1, r1, #5
 983 02cc FFF7FEFF 		bl	_test_assert
 984              	.LVL98:
 985 02d0 0028     		cmp	r0, #0
 986 02d2 40F08280 		bne	.L24
 987              	.LVL99:
 988              	.LBB584:
 989              	.LBB585:
 990              	.LBB586:
 991              	.LBB587:
 992              	.LBB588:
 993              		.loc 3 546 0
 994 02d6 2026     		movs	r6, #32
 995              	@ 546 "../../../os/ext/CMSIS/include/core_cmFunc.h" 1
 996 02d8 86F31188 		MSR basepri, r6
 997              	@ 0 "" 2
 998              		.thumb
 999              	.LBE588:
 1000              	.LBE587:
 1001              	.LBE586:
 1002              		.loc 2 300 0
 1003 02dc FFF7FEFF 		bl	_stats_start_measure_crit_thd
 1004              	.LVL100:
 1005              		.loc 2 301 0
 1006 02e0 FFF7FEFF 		bl	_dbg_check_lock
 1007              	.LVL101:
 1008              	.LBE585:
 1009              	.LBE584:
 1010              	.LBB589:
 1011              	.LBB590:
 1012              		.loc 4 302 0
 1013 02e4 FFF7FEFF 		bl	chDbgCheckClassI
 1014              	.LVL102:
 1015              		.loc 4 304 0
 1016 02e8 A168     		ldr	r1, [r4, #8]
 1017              	.LBE590:
 1018              	.LBE589:
ARM GAS  C:\Users\jo\AppData\Local\Temp\ccijNLXD.s 			page 19


 1019              		.loc 1 133 0
 1020 02ea B1FA81F1 		clz	r1, r1
 1021 02ee 0A20     		movs	r0, #10
 1022 02f0 4909     		lsrs	r1, r1, #5
 1023 02f2 FFF7FEFF 		bl	_test_assert
 1024              	.LVL103:
 1025 02f6 8046     		mov	r8, r0
 1026 02f8 0028     		cmp	r0, #0
 1027 02fa 40F0A980 		bne	.L52
 1028 02fe 0BE0     		b	.L70
 1029              	.L71:
 1030              		.align	2
 1031              	.L69:
 1032 0300 00000000 		.word	.LANCHOR0
 1033 0304 00000000 		.word	ch
 1034 0308 00000000 		.word	.LC0
 1035 030c 00000000 		.word	.LANCHOR1
 1036 0310 28000000 		.word	.LC1
 1037 0314 00000000 		.word	wa
 1038              	.L70:
 1039 0318 FFF7FEFF 		bl	chSysUnlock
 1040              	.LVL104:
 1041              	.LBB591:
 1042              	.LBB592:
 1043              	.LBB593:
 1044              	.LBB594:
 1045              	.LBB595:
 1046              		.loc 3 546 0
 1047              	@ 546 "../../../os/ext/CMSIS/include/core_cmFunc.h" 1
 1048 031c 86F31188 		MSR basepri, r6
 1049              	@ 0 "" 2
 1050              		.thumb
 1051              	.LBE595:
 1052              	.LBE594:
 1053              	.LBE593:
 1054              		.loc 2 300 0
 1055 0320 FFF7FEFF 		bl	_stats_start_measure_crit_thd
 1056              	.LVL105:
 1057              		.loc 2 301 0
 1058 0324 FFF7FEFF 		bl	_dbg_check_lock
 1059              	.LVL106:
 1060              	.LBE592:
 1061              	.LBE591:
 1062              		.loc 1 137 0
 1063 0328 4146     		mov	r1, r8
 1064 032a 2046     		mov	r0, r4
 1065 032c FFF7FEFF 		bl	chIQPutI
 1066              	.LVL107:
 1067              		.loc 1 138 0
 1068 0330 2046     		mov	r0, r4
 1069 0332 FFF7FEFF 		bl	chIQResetI
 1070              	.LVL108:
 1071              		.loc 1 139 0
 1072 0336 FFF7FEFF 		bl	chSysUnlock
 1073              	.LVL109:
 1074              	.LBB596:
 1075              	.LBB597:
ARM GAS  C:\Users\jo\AppData\Local\Temp\ccijNLXD.s 			page 20


 1076              	.LBB598:
 1077              	.LBB599:
 1078              	.LBB600:
 1079              		.loc 3 546 0
 1080              	@ 546 "../../../os/ext/CMSIS/include/core_cmFunc.h" 1
 1081 033a 86F31188 		MSR basepri, r6
 1082              	@ 0 "" 2
 1083              		.thumb
 1084              	.LBE600:
 1085              	.LBE599:
 1086              	.LBE598:
 1087              		.loc 2 300 0
 1088 033e FFF7FEFF 		bl	_stats_start_measure_crit_thd
 1089              	.LVL110:
 1090              		.loc 2 301 0
 1091 0342 FFF7FEFF 		bl	_dbg_check_lock
 1092              	.LVL111:
 1093              	.LBE597:
 1094              	.LBE596:
 1095              	.LBB601:
 1096              	.LBB602:
 1097              		.loc 4 269 0
 1098 0346 FFF7FEFF 		bl	chDbgCheckClassI
 1099              	.LVL112:
 1100              	.LBE602:
 1101              	.LBE601:
 1102              		.loc 1 140 0
 1103 034a A168     		ldr	r1, [r4, #8]
 1104 034c B1FA81F1 		clz	r1, r1
 1105 0350 0B20     		movs	r0, #11
 1106 0352 4909     		lsrs	r1, r1, #5
 1107 0354 FFF7FEFF 		bl	_test_assert
 1108              	.LVL113:
 1109 0358 8046     		mov	r8, r0
 1110 035a 0028     		cmp	r0, #0
 1111 035c 78D1     		bne	.L52
 1112 035e FFF7FEFF 		bl	chSysUnlock
 1113              	.LVL114:
 1114              	.LBB603:
 1115              	.LBB604:
 1116              		.file 5 "../../../os/rt/include/chthreads.h"
 1117              		.loc 5 192 0
 1118 0362 AB69     		ldr	r3, [r5, #24]
 1119              	.LBE604:
 1120              	.LBE603:
 1121              		.loc 1 141 0
 1122 0364 3868     		ldr	r0, [r7]
 1123 0366 9A68     		ldr	r2, [r3, #8]
 1124 0368 3C4B     		ldr	r3, .L72
 1125 036a CDF80080 		str	r8, [sp]
 1126 036e 0132     		adds	r2, r2, #1
 1127 0370 4FF4B471 		mov	r1, #360
 1128 0374 FFF7FEFF 		bl	chThdCreateStatic
 1129              	.LVL115:
 1130 0378 394B     		ldr	r3, .L72+4
 1131 037a 1860     		str	r0, [r3]
 1132              	.LVL116:
ARM GAS  C:\Users\jo\AppData\Local\Temp\ccijNLXD.s 			page 21


 1133              	.LBB605:
 1134              	.LBB606:
 1135              	.LBB607:
 1136              	.LBB608:
 1137              	.LBB609:
 1138              		.loc 3 546 0
 1139              	@ 546 "../../../os/ext/CMSIS/include/core_cmFunc.h" 1
 1140 037c 86F31188 		MSR basepri, r6
 1141              	@ 0 "" 2
 1142              		.thumb
 1143              	.LBE609:
 1144              	.LBE608:
 1145              	.LBE607:
 1146              		.loc 2 300 0
 1147 0380 FFF7FEFF 		bl	_stats_start_measure_crit_thd
 1148              	.LVL117:
 1149              		.loc 2 301 0
 1150 0384 FFF7FEFF 		bl	_dbg_check_lock
 1151              	.LVL118:
 1152              	.LBE606:
 1153              	.LBE605:
 1154              	.LBB610:
 1155              	.LBB611:
 1156              		.loc 4 269 0
 1157 0388 FFF7FEFF 		bl	chDbgCheckClassI
 1158              	.LVL119:
 1159              	.LBE611:
 1160              	.LBE610:
 1161              		.loc 1 142 0
 1162 038c A168     		ldr	r1, [r4, #8]
 1163 038e B1FA81F1 		clz	r1, r1
 1164 0392 0C20     		movs	r0, #12
 1165 0394 4909     		lsrs	r1, r1, #5
 1166 0396 FFF7FEFF 		bl	_test_assert
 1167              	.LVL120:
 1168 039a 0028     		cmp	r0, #0
 1169 039c 58D1     		bne	.L52
 1170 039e FFF7FEFF 		bl	chSysUnlock
 1171              	.LVL121:
 1172              		.loc 1 143 0
 1173 03a2 FFF7FEFF 		bl	test_wait_threads
 1174              	.LVL122:
 1175              		.loc 1 146 0
 1176 03a6 2046     		mov	r0, r4
 1177 03a8 0A21     		movs	r1, #10
 1178 03aa FFF7FEFF 		bl	chIQGetTimeout
 1179              	.LVL123:
 1180 03ae 431C     		adds	r3, r0, #1
 1181 03b0 5942     		rsbs	r1, r3, #0
 1182 03b2 5941     		adcs	r1, r1, r3
 1183 03b4 0D20     		movs	r0, #13
 1184              	.LBE495:
 1185              	.LBE494:
 1186              		.loc 1 147 0
 1187 03b6 02B0     		add	sp, sp, #8
 1188              		.cfi_remember_state
 1189              		.cfi_def_cfa_offset 24
ARM GAS  C:\Users\jo\AppData\Local\Temp\ccijNLXD.s 			page 22


 1190              		@ sp needed
 1191 03b8 BDE8F041 		pop	{r4, r5, r6, r7, r8, lr}
 1192              		.cfi_restore 14
 1193              		.cfi_restore 8
 1194              		.cfi_restore 7
 1195              		.cfi_restore 6
 1196              		.cfi_restore 5
 1197              		.cfi_restore 4
 1198              		.cfi_def_cfa_offset 0
 1199              	.LBB628:
 1200              	.LBB624:
 1201              		.loc 1 146 0
 1202 03bc FFF7FEBF 		b	_test_assert
 1203              	.LVL124:
 1204              	.L60:
 1205              		.cfi_restore_state
 1206              	.LBB612:
 1207              	.LBB613:
 1208              		.loc 2 311 0
 1209 03c0 FFF7FEFF 		bl	_dbg_check_unlock
 1210              	.LVL125:
 1211              		.loc 2 312 0
 1212 03c4 FFF7FEFF 		bl	_stats_stop_measure_crit_thd
 1213              	.LVL126:
 1214              		.loc 2 318 0
 1215 03c8 AA69     		ldr	r2, [r5, #24]
 1216 03ca 2B68     		ldr	r3, [r5]
 1217 03cc 9268     		ldr	r2, [r2, #8]
 1218 03ce 9B68     		ldr	r3, [r3, #8]
 1219 03d0 9A42     		cmp	r2, r3
 1220 03d2 20D3     		bcc	.L58
 1221              	.LVL127:
 1222              	.L47:
 1223              	.LBB614:
 1224              	.LBB615:
 1225              	.LBB616:
 1226              		.loc 3 546 0
 1227 03d4 0023     		movs	r3, #0
 1228              	@ 546 "../../../os/ext/CMSIS/include/core_cmFunc.h" 1
 1229 03d6 83F31188 		MSR basepri, r3
 1230              	@ 0 "" 2
 1231              	.LVL128:
 1232              		.thumb
 1233              	.L24:
 1234              	.LBE616:
 1235              	.LBE615:
 1236              	.LBE614:
 1237              	.LBE613:
 1238              	.LBE612:
 1239              	.LBE624:
 1240              	.LBE628:
 1241              		.loc 1 147 0
 1242 03da 02B0     		add	sp, sp, #8
 1243              		.cfi_remember_state
 1244              		.cfi_def_cfa_offset 24
 1245              		@ sp needed
 1246 03dc BDE8F081 		pop	{r4, r5, r6, r7, r8, pc}
ARM GAS  C:\Users\jo\AppData\Local\Temp\ccijNLXD.s 			page 23


 1247              	.LVL129:
 1248              	.L65:
 1249              		.cfi_restore_state
 1250              	.LBB629:
 1251              	.LBB625:
 1252              	.LBB618:
 1253              	.LBB512:
 1254              		.loc 2 318 0
 1255 03e0 2048     		ldr	r0, .L72+8
 1256 03e2 FFF7FEFF 		bl	puts
 1257              	.LVL130:
 1258              	@ 318 "../../../os/rt/include/chsys.h" 1
 1259 03e6 00BE     		BKPT #0
 1260              	
 1261              	@ 0 "" 2
 1262              		.thumb
 1263 03e8 1F48     		ldr	r0, .L72+12
 1264 03ea FFF7FEFF 		bl	chSysHalt
 1265              	.LVL131:
 1266 03ee 49E6     		b	.L30
 1267              	.LVL132:
 1268              	.L64:
 1269              	.LBE512:
 1270              	.LBE618:
 1271              	.LBB619:
 1272              	.LBB501:
 1273 03f0 1C48     		ldr	r0, .L72+8
 1274 03f2 FFF7FEFF 		bl	puts
 1275              	.LVL133:
 1276              	@ 318 "../../../os/rt/include/chsys.h" 1
 1277 03f6 00BE     		BKPT #0
 1278              	
 1279              	@ 0 "" 2
 1280              		.thumb
 1281 03f8 1B48     		ldr	r0, .L72+12
 1282 03fa FFF7FEFF 		bl	chSysHalt
 1283              	.LVL134:
 1284 03fe 23E6     		b	.L28
 1285              	.L63:
 1286              	.LBE501:
 1287              	.LBE619:
 1288              	.LBE625:
 1289              	.LBE629:
 1290              	.LBB630:
 1291              	.LBB631:
 1292              		.loc 2 311 0
 1293 0400 FFF7FEFF 		bl	_dbg_check_unlock
 1294              	.LVL135:
 1295              		.loc 2 312 0
 1296 0404 FFF7FEFF 		bl	_stats_stop_measure_crit_thd
 1297              	.LVL136:
 1298              		.loc 2 318 0
 1299 0408 184B     		ldr	r3, .L72+16
 1300 040a 9A69     		ldr	r2, [r3, #24]
 1301 040c 1B68     		ldr	r3, [r3]
 1302 040e 9268     		ldr	r2, [r2, #8]
 1303 0410 9B68     		ldr	r3, [r3, #8]
ARM GAS  C:\Users\jo\AppData\Local\Temp\ccijNLXD.s 			page 24


 1304 0412 9A42     		cmp	r2, r3
 1305 0414 DED2     		bcs	.L47
 1306              	.L58:
 1307              	.LBE631:
 1308              	.LBE630:
 1309              	.LBB632:
 1310              	.LBB626:
 1311              	.LBB620:
 1312              	.LBB617:
 1313 0416 1348     		ldr	r0, .L72+8
 1314 0418 FFF7FEFF 		bl	puts
 1315              	.LVL137:
 1316              	@ 318 "../../../os/rt/include/chsys.h" 1
 1317 041c 00BE     		BKPT #0
 1318              	
 1319              	@ 0 "" 2
 1320              		.thumb
 1321 041e 1248     		ldr	r0, .L72+12
 1322 0420 FFF7FEFF 		bl	chSysHalt
 1323              	.LVL138:
 1324 0424 D6E7     		b	.L47
 1325              	.LVL139:
 1326              	.L67:
 1327              	.LBE617:
 1328              	.LBE620:
 1329              	.LBB621:
 1330              	.LBB536:
 1331 0426 0F48     		ldr	r0, .L72+8
 1332 0428 FFF7FEFF 		bl	puts
 1333              	.LVL140:
 1334              	@ 318 "../../../os/rt/include/chsys.h" 1
 1335 042c 00BE     		BKPT #0
 1336              	
 1337              	@ 0 "" 2
 1338              		.thumb
 1339 042e 0E48     		ldr	r0, .L72+12
 1340 0430 FFF7FEFF 		bl	chSysHalt
 1341              	.LVL141:
 1342 0434 73E6     		b	.L37
 1343              	.LVL142:
 1344              	.L66:
 1345              	.LBE536:
 1346              	.LBE621:
 1347              	.LBB622:
 1348              	.LBB520:
 1349              		.loc 4 321 0
 1350 0436 8F68     		ldr	r7, [r1, #8]
 1351 0438 0037     		adds	r7, r7, #0
 1352 043a 18BF     		it	ne
 1353 043c 0127     		movne	r7, #1
 1354 043e 33E6     		b	.L31
 1355              	.LVL143:
 1356              	.L68:
 1357              	.LBE520:
 1358              	.LBE622:
 1359              	.LBB623:
 1360              	.LBB561:
ARM GAS  C:\Users\jo\AppData\Local\Temp\ccijNLXD.s 			page 25


 1361              		.loc 2 318 0
 1362 0440 0848     		ldr	r0, .L72+8
 1363 0442 FFF7FEFF 		bl	puts
 1364              	.LVL144:
 1365              	@ 318 "../../../os/rt/include/chsys.h" 1
 1366 0446 00BE     		BKPT #0
 1367              	
 1368              	@ 0 "" 2
 1369              		.thumb
 1370 0448 0748     		ldr	r0, .L72+12
 1371 044a FFF7FEFF 		bl	chSysHalt
 1372              	.LVL145:
 1373 044e BEE6     		b	.L44
 1374              	.LVL146:
 1375              	.L52:
 1376              	.LBE561:
 1377              	.LBE623:
 1378              	.LBE626:
 1379              	.LBE632:
 1380              		.loc 1 147 0
 1381 0450 02B0     		add	sp, sp, #8
 1382              		.cfi_def_cfa_offset 24
 1383              		@ sp needed
 1384 0452 BDE8F041 		pop	{r4, r5, r6, r7, r8, lr}
 1385              		.cfi_restore 14
 1386              		.cfi_restore 8
 1387              		.cfi_restore 7
 1388              		.cfi_restore 6
 1389              		.cfi_restore 5
 1390              		.cfi_restore 4
 1391              		.cfi_def_cfa_offset 0
 1392              	.LBB633:
 1393              	.LBB627:
 1394              		.loc 1 133 0
 1395 0456 FFF7FEBF 		b	chSysUnlock
 1396              	.LVL147:
 1397              	.L73:
 1398 045a 00BF     		.align	2
 1399              	.L72:
 1400 045c 00000000 		.word	thread1
 1401 0460 00000000 		.word	threads
 1402 0464 00000000 		.word	.LC0
 1403 0468 00000000 		.word	.LANCHOR1
 1404 046c 00000000 		.word	ch
 1405              	.LBE627:
 1406              	.LBE633:
 1407              		.cfi_endproc
 1408              	.LFE229:
 1409              		.size	queues1_execute, .-queues1_execute
 1410              		.section	.text.queues2_execute,"ax",%progbits
 1411              		.align	2
 1412              		.p2align 4,,15
 1413              		.thumb
 1414              		.thumb_func
 1415              		.type	queues2_execute, %function
 1416              	queues2_execute:
 1417              	.LFB232:
ARM GAS  C:\Users\jo\AppData\Local\Temp\ccijNLXD.s 			page 26


 1418              		.loc 1 177 0
 1419              		.cfi_startproc
 1420              		@ args = 0, pretend = 0, frame = 0
 1421              		@ frame_needed = 0, uses_anonymous_args = 0
 1422              	.LVL148:
 1423 0000 2DE9F041 		push	{r4, r5, r6, r7, r8, lr}
 1424              		.cfi_def_cfa_offset 24
 1425              		.cfi_offset 4, -24
 1426              		.cfi_offset 5, -20
 1427              		.cfi_offset 6, -16
 1428              		.cfi_offset 7, -12
 1429              		.cfi_offset 8, -8
 1430              		.cfi_offset 14, -4
 1431              	.LBB794:
 1432              	.LBB795:
 1433              	.LBB796:
 1434              	.LBB797:
 1435              	.LBB798:
 1436              		.loc 3 546 0
 1437 0004 2023     		movs	r3, #32
 1438              	.LBE798:
 1439              	.LBE797:
 1440              	.LBE796:
 1441              	.LBE795:
 1442              	.LBE794:
 1443              		.loc 1 177 0
 1444 0006 82B0     		sub	sp, sp, #8
 1445              		.cfi_def_cfa_offset 32
 1446              	.LBB804:
 1447              	.LBB802:
 1448              	.LBB801:
 1449              	.LBB800:
 1450              	.LBB799:
 1451              		.loc 3 546 0
 1452              	@ 546 "../../../os/ext/CMSIS/include/core_cmFunc.h" 1
 1453 0008 83F31188 		MSR basepri, r3
 1454              	@ 0 "" 2
 1455              		.thumb
 1456              	.LBE799:
 1457              	.LBE800:
 1458              	.LBE801:
 1459              	.LBE802:
 1460              	.LBE804:
 1461              	.LBB805:
 1462              	.LBB806:
 1463              		.loc 4 387 0
 1464 000c C14F     		ldr	r7, .L124
 1465              	.LBE806:
 1466              	.LBE805:
 1467              	.LBB809:
 1468              	.LBB803:
 1469              		.loc 2 300 0
 1470 000e FFF7FEFF 		bl	_stats_start_measure_crit_thd
 1471              	.LVL149:
 1472              		.loc 2 301 0
 1473 0012 FFF7FEFF 		bl	_dbg_check_lock
 1474              	.LVL150:
ARM GAS  C:\Users\jo\AppData\Local\Temp\ccijNLXD.s 			page 27


 1475              	.LBE803:
 1476              	.LBE809:
 1477              	.LBB810:
 1478              	.LBB807:
 1479              		.loc 4 385 0
 1480 0016 FFF7FEFF 		bl	chDbgCheckClassI
 1481              	.LVL151:
 1482              		.loc 4 387 0
 1483 001a 7A69     		ldr	r2, [r7, #20]
 1484 001c BB69     		ldr	r3, [r7, #24]
 1485 001e 9A42     		cmp	r2, r3
 1486 0020 00F00182 		beq	.L116
 1487 0024 0021     		movs	r1, #0
 1488              	.L75:
 1489              	.LBE807:
 1490              	.LBE810:
 1491              		.loc 1 182 0
 1492 0026 0120     		movs	r0, #1
 1493 0028 FFF7FEFF 		bl	_test_assert
 1494              	.LVL152:
 1495 002c 0028     		cmp	r0, #0
 1496 002e 40F0DF81 		bne	.L117
 1497              	.LBB811:
 1498              	.LBB812:
 1499              	.LBB813:
 1500              	.LBB814:
 1501              		.loc 2 318 0
 1502 0032 B94D     		ldr	r5, .L124+4
 1503              		.loc 2 311 0
 1504 0034 FFF7FEFF 		bl	_dbg_check_unlock
 1505              	.LVL153:
 1506              		.loc 2 312 0
 1507 0038 FFF7FEFF 		bl	_stats_stop_measure_crit_thd
 1508              	.LVL154:
 1509              		.loc 2 318 0
 1510 003c AA69     		ldr	r2, [r5, #24]
 1511 003e 2B68     		ldr	r3, [r5]
 1512 0040 9268     		ldr	r2, [r2, #8]
 1513 0042 9B68     		ldr	r3, [r3, #8]
 1514 0044 9A42     		cmp	r2, r3
 1515 0046 C0F0CB81 		bcc	.L118
 1516              	.L79:
 1517              	.LVL155:
 1518              	.LBB815:
 1519              	.LBB816:
 1520              	.LBB817:
 1521              		.loc 3 546 0
 1522 004a 0023     		movs	r3, #0
 1523              	@ 546 "../../../os/ext/CMSIS/include/core_cmFunc.h" 1
 1524 004c 83F31188 		MSR basepri, r3
 1525              	@ 0 "" 2
 1526              	.LVL156:
 1527              		.thumb
 1528 0050 4124     		movs	r4, #65
 1529              	.LVL157:
 1530              	.L80:
 1531              	.LBE817:
ARM GAS  C:\Users\jo\AppData\Local\Temp\ccijNLXD.s 			page 28


 1532              	.LBE816:
 1533              	.LBE815:
 1534              	.LBE814:
 1535              	.LBE813:
 1536              	.LBB819:
 1537              	.LBB820:
 1538              		.loc 4 423 0
 1539 0052 B04E     		ldr	r6, .L124
 1540 0054 2146     		mov	r1, r4
 1541 0056 0134     		adds	r4, r4, #1
 1542              	.LVL158:
 1543 0058 3046     		mov	r0, r6
 1544 005a 4FF0FF32 		mov	r2, #-1
 1545 005e E4B2     		uxtb	r4, r4
 1546 0060 FFF7FEFF 		bl	chOQPutTimeout
 1547              	.LVL159:
 1548              	.LBE820:
 1549              	.LBE819:
 1550              		.loc 1 185 0
 1551 0064 452C     		cmp	r4, #69
 1552 0066 F4D1     		bne	.L80
 1553              	.LVL160:
 1554              	.LBB821:
 1555              	.LBB822:
 1556              	.LBB823:
 1557              	.LBB824:
 1558              	.LBB825:
 1559              		.loc 3 546 0
 1560 0068 2023     		movs	r3, #32
 1561              	@ 546 "../../../os/ext/CMSIS/include/core_cmFunc.h" 1
 1562 006a 83F31188 		MSR basepri, r3
 1563              	@ 0 "" 2
 1564              		.thumb
 1565              	.LBE825:
 1566              	.LBE824:
 1567              	.LBE823:
 1568              		.loc 2 300 0
 1569 006e FFF7FEFF 		bl	_stats_start_measure_crit_thd
 1570              	.LVL161:
 1571              		.loc 2 301 0
 1572 0072 FFF7FEFF 		bl	_dbg_check_lock
 1573              	.LVL162:
 1574              	.LBE822:
 1575              	.LBE821:
 1576              	.LBB826:
 1577              	.LBB827:
 1578              		.loc 4 402 0
 1579 0076 FFF7FEFF 		bl	chDbgCheckClassI
 1580              	.LVL163:
 1581              		.loc 4 404 0
 1582 007a B168     		ldr	r1, [r6, #8]
 1583              	.LBE827:
 1584              	.LBE826:
 1585              		.loc 1 187 0
 1586 007c B1FA81F1 		clz	r1, r1
 1587 0080 0220     		movs	r0, #2
 1588 0082 4909     		lsrs	r1, r1, #5
ARM GAS  C:\Users\jo\AppData\Local\Temp\ccijNLXD.s 			page 29


 1589 0084 FFF7FEFF 		bl	_test_assert
 1590              	.LVL164:
 1591 0088 8046     		mov	r8, r0
 1592 008a 0028     		cmp	r0, #0
 1593 008c 40F09881 		bne	.L112
 1594              	.LBB828:
 1595              	.LBB829:
 1596              		.loc 2 311 0
 1597 0090 FFF7FEFF 		bl	_dbg_check_unlock
 1598              	.LVL165:
 1599              		.loc 2 312 0
 1600 0094 FFF7FEFF 		bl	_stats_stop_measure_crit_thd
 1601              	.LVL166:
 1602              		.loc 2 318 0
 1603 0098 AA69     		ldr	r2, [r5, #24]
 1604 009a 2B68     		ldr	r3, [r5]
 1605 009c 9268     		ldr	r2, [r2, #8]
 1606 009e 9B68     		ldr	r3, [r3, #8]
 1607 00a0 9A42     		cmp	r2, r3
 1608 00a2 06D2     		bcs	.L83
 1609 00a4 9D48     		ldr	r0, .L124+8
 1610 00a6 FFF7FEFF 		bl	puts
 1611              	.LVL167:
 1612              	@ 318 "../../../os/rt/include/chsys.h" 1
 1613 00aa 00BE     		BKPT #0
 1614              	
 1615              	@ 0 "" 2
 1616              		.thumb
 1617 00ac 9C48     		ldr	r0, .L124+12
 1618 00ae FFF7FEFF 		bl	chSysHalt
 1619              	.LVL168:
 1620              	.L83:
 1621              	.LBB830:
 1622              	.LBB831:
 1623              	.LBB832:
 1624              		.loc 3 546 0
 1625 00b2 0023     		movs	r3, #0
 1626              	@ 546 "../../../os/ext/CMSIS/include/core_cmFunc.h" 1
 1627 00b4 83F31188 		MSR basepri, r3
 1628              	@ 0 "" 2
 1629              	.LVL169:
 1630              		.thumb
 1631 00b8 0424     		movs	r4, #4
 1632              	.LVL170:
 1633              	.L85:
 1634              	.LBE832:
 1635              	.LBE831:
 1636              	.LBE830:
 1637              	.LBE829:
 1638              	.LBE828:
 1639              	.LBB833:
 1640              	.LBB834:
 1641              	.LBB835:
 1642              	.LBB836:
 1643              	.LBB837:
 1644              	.LBB838:
 1645 00ba 2023     		movs	r3, #32
ARM GAS  C:\Users\jo\AppData\Local\Temp\ccijNLXD.s 			page 30


 1646              	@ 546 "../../../os/ext/CMSIS/include/core_cmFunc.h" 1
 1647 00bc 83F31188 		MSR basepri, r3
 1648              	@ 0 "" 2
 1649              		.thumb
 1650              	.LBE838:
 1651              	.LBE837:
 1652              	.LBE836:
 1653              		.loc 2 300 0
 1654 00c0 FFF7FEFF 		bl	_stats_start_measure_crit_thd
 1655              	.LVL171:
 1656              		.loc 2 301 0
 1657 00c4 FFF7FEFF 		bl	_dbg_check_lock
 1658              	.LVL172:
 1659              	.LBE835:
 1660              	.LBE834:
 1661              		.loc 1 194 0
 1662 00c8 9248     		ldr	r0, .L124
 1663 00ca FFF7FEFF 		bl	chOQGetI
 1664              	.LVL173:
 1665 00ce C6B2     		uxtb	r6, r0
 1666              	.LVL174:
 1667              	.LBB839:
 1668              	.LBB840:
 1669              		.loc 2 311 0
 1670 00d0 FFF7FEFF 		bl	_dbg_check_unlock
 1671              	.LVL175:
 1672              		.loc 2 312 0
 1673 00d4 FFF7FEFF 		bl	_stats_stop_measure_crit_thd
 1674              	.LVL176:
 1675              		.loc 2 318 0
 1676 00d8 AA69     		ldr	r2, [r5, #24]
 1677 00da 2B68     		ldr	r3, [r5]
 1678 00dc 9268     		ldr	r2, [r2, #8]
 1679 00de 9B68     		ldr	r3, [r3, #8]
 1680 00e0 9A42     		cmp	r2, r3
 1681 00e2 06D2     		bcs	.L84
 1682 00e4 8D48     		ldr	r0, .L124+8
 1683 00e6 FFF7FEFF 		bl	puts
 1684              	.LVL177:
 1685              	@ 318 "../../../os/rt/include/chsys.h" 1
 1686 00ea 00BE     		BKPT #0
 1687              	
 1688              	@ 0 "" 2
 1689              		.thumb
 1690 00ec 8C48     		ldr	r0, .L124+12
 1691 00ee FFF7FEFF 		bl	chSysHalt
 1692              	.LVL178:
 1693              	.L84:
 1694              	.LBB841:
 1695              	.LBB842:
 1696              	.LBB843:
 1697              		.loc 3 546 0
 1698 00f2 0023     		movs	r3, #0
 1699              	@ 546 "../../../os/ext/CMSIS/include/core_cmFunc.h" 1
 1700 00f4 83F31188 		MSR basepri, r3
 1701              	@ 0 "" 2
 1702              		.thumb
ARM GAS  C:\Users\jo\AppData\Local\Temp\ccijNLXD.s 			page 31


 1703              	.LBE843:
 1704              	.LBE842:
 1705              	.LBE841:
 1706              	.LBE840:
 1707              	.LBE839:
 1708              		.loc 1 196 0
 1709 00f8 3046     		mov	r0, r6
 1710 00fa FFF7FEFF 		bl	test_emit_token
 1711              	.LVL179:
 1712              	.LBE833:
 1713              		.loc 1 190 0
 1714 00fe 013C     		subs	r4, r4, #1
 1715              	.LVL180:
 1716 0100 DBD1     		bne	.L85
 1717              	.LVL181:
 1718              	.LBB844:
 1719              	.LBB845:
 1720              	.LBB846:
 1721              	.LBB847:
 1722              	.LBB848:
 1723              		.loc 3 546 0
 1724 0102 2023     		movs	r3, #32
 1725              	@ 546 "../../../os/ext/CMSIS/include/core_cmFunc.h" 1
 1726 0104 83F31188 		MSR basepri, r3
 1727              	@ 0 "" 2
 1728              		.thumb
 1729              	.LBE848:
 1730              	.LBE847:
 1731              	.LBE846:
 1732              		.loc 2 300 0
 1733 0108 FFF7FEFF 		bl	_stats_start_measure_crit_thd
 1734              	.LVL182:
 1735              		.loc 2 301 0
 1736 010c FFF7FEFF 		bl	_dbg_check_lock
 1737              	.LVL183:
 1738              	.LBE845:
 1739              	.LBE844:
 1740              	.LBB849:
 1741              	.LBB850:
 1742              		.loc 4 385 0
 1743 0110 FFF7FEFF 		bl	chDbgCheckClassI
 1744              	.LVL184:
 1745              		.loc 4 387 0
 1746 0114 7A69     		ldr	r2, [r7, #20]
 1747 0116 BB69     		ldr	r3, [r7, #24]
 1748 0118 7E49     		ldr	r1, .L124
 1749 011a 9A42     		cmp	r2, r3
 1750 011c 00F08881 		beq	.L119
 1751              	.L86:
 1752              	.LBE850:
 1753              	.LBE849:
 1754              		.loc 1 198 0
 1755 0120 4146     		mov	r1, r8
 1756 0122 0320     		movs	r0, #3
 1757 0124 FFF7FEFF 		bl	_test_assert
 1758              	.LVL185:
 1759 0128 0028     		cmp	r0, #0
ARM GAS  C:\Users\jo\AppData\Local\Temp\ccijNLXD.s 			page 32


 1760 012a 40F04981 		bne	.L112
 1761              	.LBB852:
 1762              	.LBB853:
 1763              		.loc 2 311 0
 1764 012e FFF7FEFF 		bl	_dbg_check_unlock
 1765              	.LVL186:
 1766              		.loc 2 312 0
 1767 0132 FFF7FEFF 		bl	_stats_stop_measure_crit_thd
 1768              	.LVL187:
 1769              		.loc 2 318 0
 1770 0136 AA69     		ldr	r2, [r5, #24]
 1771 0138 2B68     		ldr	r3, [r5]
 1772 013a 9268     		ldr	r2, [r2, #8]
 1773 013c 9B68     		ldr	r3, [r3, #8]
 1774 013e 9A42     		cmp	r2, r3
 1775 0140 C0F06981 		bcc	.L120
 1776              	.L89:
 1777              	.LVL188:
 1778              	.LBB854:
 1779              	.LBB855:
 1780              	.LBB856:
 1781              		.loc 3 546 0
 1782 0144 0023     		movs	r3, #0
 1783              	@ 546 "../../../os/ext/CMSIS/include/core_cmFunc.h" 1
 1784 0146 83F31188 		MSR basepri, r3
 1785              	@ 0 "" 2
 1786              		.thumb
 1787              	.LBE856:
 1788              	.LBE855:
 1789              	.LBE854:
 1790              	.LBE853:
 1791              	.LBE852:
 1792              		.loc 1 199 0
 1793 014a 0420     		movs	r0, #4
 1794 014c 7549     		ldr	r1, .L124+16
 1795 014e FFF7FEFF 		bl	_test_assert_sequence
 1796              	.LVL189:
 1797 0152 0028     		cmp	r0, #0
 1798 0154 40F04181 		bne	.L74
 1799              	.LVL190:
 1800              	.LBB858:
 1801              	.LBB859:
 1802              	.LBB860:
 1803              	.LBB861:
 1804              	.LBB862:
 1805              		.loc 3 546 0
 1806 0158 2023     		movs	r3, #32
 1807              	@ 546 "../../../os/ext/CMSIS/include/core_cmFunc.h" 1
 1808 015a 83F31188 		MSR basepri, r3
 1809              	@ 0 "" 2
 1810              		.thumb
 1811              	.LBE862:
 1812              	.LBE861:
 1813              	.LBE860:
 1814              		.loc 2 300 0
 1815 015e FFF7FEFF 		bl	_stats_start_measure_crit_thd
 1816              	.LVL191:
ARM GAS  C:\Users\jo\AppData\Local\Temp\ccijNLXD.s 			page 33


 1817              		.loc 2 301 0
 1818 0162 FFF7FEFF 		bl	_dbg_check_lock
 1819              	.LVL192:
 1820              	.LBE859:
 1821              	.LBE858:
 1822              		.loc 1 200 0
 1823 0166 6B48     		ldr	r0, .L124
 1824 0168 FFF7FEFF 		bl	chOQGetI
 1825              	.LVL193:
 1826 016c 0330     		adds	r0, r0, #3
 1827 016e 14BF     		ite	ne
 1828 0170 0021     		movne	r1, #0
 1829 0172 0121     		moveq	r1, #1
 1830 0174 0520     		movs	r0, #5
 1831 0176 FFF7FEFF 		bl	_test_assert
 1832              	.LVL194:
 1833 017a 0028     		cmp	r0, #0
 1834 017c 40F02081 		bne	.L112
 1835              	.LBB863:
 1836              	.LBB864:
 1837              		.loc 2 311 0
 1838 0180 FFF7FEFF 		bl	_dbg_check_unlock
 1839              	.LVL195:
 1840              		.loc 2 312 0
 1841 0184 FFF7FEFF 		bl	_stats_stop_measure_crit_thd
 1842              	.LVL196:
 1843              		.loc 2 318 0
 1844 0188 AA69     		ldr	r2, [r5, #24]
 1845 018a 2B68     		ldr	r3, [r5]
 1846 018c 9268     		ldr	r2, [r2, #8]
 1847 018e 9B68     		ldr	r3, [r3, #8]
 1848 0190 9A42     		cmp	r2, r3
 1849 0192 C0F05481 		bcc	.L121
 1850              	.L93:
 1851              	.LVL197:
 1852              	.LBB865:
 1853              	.LBB866:
 1854              	.LBB867:
 1855              		.loc 3 546 0
 1856 0196 0023     		movs	r3, #0
 1857              	@ 546 "../../../os/ext/CMSIS/include/core_cmFunc.h" 1
 1858 0198 83F31188 		MSR basepri, r3
 1859              	@ 0 "" 2
 1860              		.thumb
 1861              	.LBE867:
 1862              	.LBE866:
 1863              	.LBE865:
 1864              	.LBE864:
 1865              	.LBE863:
 1866              		.loc 1 203 0
 1867 019c 5D4C     		ldr	r4, .L124
 1868              	.LVL198:
 1869 019e 624E     		ldr	r6, .L124+20
 1870              	.LVL199:
 1871 01a0 2046     		mov	r0, r4
 1872 01a2 7168     		ldr	r1, [r6, #4]
 1873 01a4 0822     		movs	r2, #8
ARM GAS  C:\Users\jo\AppData\Local\Temp\ccijNLXD.s 			page 34


 1874 01a6 FFF7FEFF 		bl	chOQWriteTimeout
 1875              	.LVL200:
 1876              		.loc 1 204 0
 1877 01aa A0F10401 		sub	r1, r0, #4
 1878 01ae 0620     		movs	r0, #6
 1879              	.LVL201:
 1880 01b0 B1FA81F1 		clz	r1, r1
 1881              	.LVL202:
 1882 01b4 4909     		lsrs	r1, r1, #5
 1883 01b6 FFF7FEFF 		bl	_test_assert
 1884              	.LVL203:
 1885 01ba 0028     		cmp	r0, #0
 1886 01bc 40F00D81 		bne	.L74
 1887              	.LVL204:
 1888              	.LBB869:
 1889              	.LBB870:
 1890              	.LBB871:
 1891              	.LBB872:
 1892              	.LBB873:
 1893              		.loc 3 546 0
 1894 01c0 2023     		movs	r3, #32
 1895              	@ 546 "../../../os/ext/CMSIS/include/core_cmFunc.h" 1
 1896 01c2 83F31188 		MSR basepri, r3
 1897              	@ 0 "" 2
 1898              		.thumb
 1899              	.LBE873:
 1900              	.LBE872:
 1901              	.LBE871:
 1902              		.loc 2 300 0
 1903 01c6 FFF7FEFF 		bl	_stats_start_measure_crit_thd
 1904              	.LVL205:
 1905              		.loc 2 301 0
 1906 01ca FFF7FEFF 		bl	_dbg_check_lock
 1907              	.LVL206:
 1908              	.LBE870:
 1909              	.LBE869:
 1910              	.LBB874:
 1911              	.LBB875:
 1912              		.loc 4 402 0
 1913 01ce FFF7FEFF 		bl	chDbgCheckClassI
 1914              	.LVL207:
 1915              		.loc 4 404 0
 1916 01d2 A168     		ldr	r1, [r4, #8]
 1917              	.LBE875:
 1918              	.LBE874:
 1919              		.loc 1 205 0
 1920 01d4 B1FA81F1 		clz	r1, r1
 1921 01d8 0720     		movs	r0, #7
 1922 01da 4909     		lsrs	r1, r1, #5
 1923 01dc FFF7FEFF 		bl	_test_assert
 1924              	.LVL208:
 1925 01e0 0028     		cmp	r0, #0
 1926 01e2 40F0ED80 		bne	.L112
 1927              	.LBB876:
 1928              	.LBB877:
 1929              		.loc 2 311 0
 1930 01e6 FFF7FEFF 		bl	_dbg_check_unlock
ARM GAS  C:\Users\jo\AppData\Local\Temp\ccijNLXD.s 			page 35


 1931              	.LVL209:
 1932              		.loc 2 312 0
 1933 01ea FFF7FEFF 		bl	_stats_stop_measure_crit_thd
 1934              	.LVL210:
 1935              		.loc 2 318 0
 1936 01ee AA69     		ldr	r2, [r5, #24]
 1937 01f0 2B68     		ldr	r3, [r5]
 1938 01f2 9268     		ldr	r2, [r2, #8]
 1939 01f4 9B68     		ldr	r3, [r3, #8]
 1940 01f6 9A42     		cmp	r2, r3
 1941 01f8 06D2     		bcs	.L97
 1942 01fa 4848     		ldr	r0, .L124+8
 1943 01fc FFF7FEFF 		bl	puts
 1944              	.LVL211:
 1945              	@ 318 "../../../os/rt/include/chsys.h" 1
 1946 0200 00BE     		BKPT #0
 1947              	
 1948              	@ 0 "" 2
 1949              		.thumb
 1950 0202 4748     		ldr	r0, .L124+12
 1951 0204 FFF7FEFF 		bl	chSysHalt
 1952              	.LVL212:
 1953              	.L97:
 1954              	.LBB878:
 1955              	.LBB879:
 1956              	.LBB880:
 1957              		.loc 3 546 0
 1958 0208 0021     		movs	r1, #0
 1959              	@ 546 "../../../os/ext/CMSIS/include/core_cmFunc.h" 1
 1960 020a 81F31188 		MSR basepri, r1
 1961              	@ 0 "" 2
 1962              		.thumb
 1963              	.LBE880:
 1964              	.LBE879:
 1965              	.LBE878:
 1966              	.LBE877:
 1967              	.LBE876:
 1968              	.LBB881:
 1969              	.LBB882:
 1970              		.loc 5 192 0
 1971 020e AB69     		ldr	r3, [r5, #24]
 1972              	.LBE882:
 1973              	.LBE881:
 1974              		.loc 1 206 0
 1975 0210 3068     		ldr	r0, [r6]
 1976 0212 9A68     		ldr	r2, [r3, #8]
 1977 0214 0091     		str	r1, [sp]
 1978 0216 454B     		ldr	r3, .L124+24
 1979              	.LBB886:
 1980              	.LBB885:
 1981              	.LBB883:
 1982              	.LBB884:
 1983              		.loc 5 179 0
 1984 0218 3F4C     		ldr	r4, .L124+4
 1985              	.LBE884:
 1986              	.LBE883:
 1987              	.LBE885:
ARM GAS  C:\Users\jo\AppData\Local\Temp\ccijNLXD.s 			page 36


 1988              	.LBE886:
 1989              		.loc 1 206 0
 1990 021a 0132     		adds	r2, r2, #1
 1991 021c 4FF4B471 		mov	r1, #360
 1992 0220 FFF7FEFF 		bl	chThdCreateStatic
 1993              	.LVL213:
 1994 0224 424B     		ldr	r3, .L124+28
 1995 0226 1860     		str	r0, [r3]
 1996              	.LVL214:
 1997              	.LBB887:
 1998              	.LBB888:
 1999              	.LBB889:
 2000              	.LBB890:
 2001              	.LBB891:
 2002              		.loc 3 546 0
 2003 0228 2023     		movs	r3, #32
 2004              	@ 546 "../../../os/ext/CMSIS/include/core_cmFunc.h" 1
 2005 022a 83F31188 		MSR basepri, r3
 2006              	@ 0 "" 2
 2007              		.thumb
 2008              	.LBE891:
 2009              	.LBE890:
 2010              	.LBE889:
 2011              		.loc 2 300 0
 2012 022e FFF7FEFF 		bl	_stats_start_measure_crit_thd
 2013              	.LVL215:
 2014              		.loc 2 301 0
 2015 0232 FFF7FEFF 		bl	_dbg_check_lock
 2016              	.LVL216:
 2017              	.LBE888:
 2018              	.LBE887:
 2019              	.LBB892:
 2020              	.LBB893:
 2021              		.loc 4 352 0
 2022 0236 FFF7FEFF 		bl	chDbgCheckClassI
 2023              	.LVL217:
 2024              		.loc 4 354 0
 2025 023a F968     		ldr	r1, [r7, #12]
 2026 023c 3B69     		ldr	r3, [r7, #16]
 2027 023e BA68     		ldr	r2, [r7, #8]
 2028 0240 5B1A     		subs	r3, r3, r1
 2029 0242 991A     		subs	r1, r3, r2
 2030              	.LBE893:
 2031              	.LBE892:
 2032              		.loc 1 207 0
 2033 0244 A1F10401 		sub	r1, #4
 2034 0248 0820     		movs	r0, #8
 2035 024a B1FA81F1 		clz	r1, r1
 2036 024e 4909     		lsrs	r1, r1, #5
 2037 0250 FFF7FEFF 		bl	_test_assert
 2038              	.LVL218:
 2039 0254 0028     		cmp	r0, #0
 2040 0256 40F0FA80 		bne	.L122
 2041              	.LBB894:
 2042              	.LBB895:
 2043              		.loc 2 311 0
 2044 025a FFF7FEFF 		bl	_dbg_check_unlock
ARM GAS  C:\Users\jo\AppData\Local\Temp\ccijNLXD.s 			page 37


 2045              	.LVL219:
 2046              		.loc 2 312 0
 2047 025e FFF7FEFF 		bl	_stats_stop_measure_crit_thd
 2048              	.LVL220:
 2049              		.loc 2 318 0
 2050 0262 A269     		ldr	r2, [r4, #24]
 2051 0264 2368     		ldr	r3, [r4]
 2052 0266 9268     		ldr	r2, [r2, #8]
 2053 0268 9B68     		ldr	r3, [r3, #8]
 2054 026a 9A42     		cmp	r2, r3
 2055 026c 06D2     		bcs	.L100
 2056 026e 2B48     		ldr	r0, .L124+8
 2057 0270 FFF7FEFF 		bl	puts
 2058              	.LVL221:
 2059              	@ 318 "../../../os/rt/include/chsys.h" 1
 2060 0274 00BE     		BKPT #0
 2061              	
 2062              	@ 0 "" 2
 2063              		.thumb
 2064 0276 2A48     		ldr	r0, .L124+12
 2065 0278 FFF7FEFF 		bl	chSysHalt
 2066              	.LVL222:
 2067              	.L100:
 2068              	.LBB896:
 2069              	.LBB897:
 2070              	.LBB898:
 2071              		.loc 3 546 0
 2072 027c 0023     		movs	r3, #0
 2073              	@ 546 "../../../os/ext/CMSIS/include/core_cmFunc.h" 1
 2074 027e 83F31188 		MSR basepri, r3
 2075              	@ 0 "" 2
 2076              		.thumb
 2077              	.LBE898:
 2078              	.LBE897:
 2079              	.LBE896:
 2080              	.LBE895:
 2081              	.LBE894:
 2082              		.loc 1 208 0
 2083 0282 FFF7FEFF 		bl	test_wait_threads
 2084              	.LVL223:
 2085              	.LBB899:
 2086              	.LBB900:
 2087              	.LBB901:
 2088              	.LBB902:
 2089              	.LBB903:
 2090              		.loc 3 546 0
 2091 0286 2023     		movs	r3, #32
 2092              	@ 546 "../../../os/ext/CMSIS/include/core_cmFunc.h" 1
 2093 0288 83F31188 		MSR basepri, r3
 2094              	@ 0 "" 2
 2095              		.thumb
 2096              	.LBE903:
 2097              	.LBE902:
 2098              	.LBE901:
 2099              		.loc 2 300 0
 2100 028c FFF7FEFF 		bl	_stats_start_measure_crit_thd
 2101              	.LVL224:
ARM GAS  C:\Users\jo\AppData\Local\Temp\ccijNLXD.s 			page 38


 2102              		.loc 2 301 0
 2103 0290 FFF7FEFF 		bl	_dbg_check_lock
 2104              	.LVL225:
 2105              	.LBE900:
 2106              	.LBE899:
 2107              		.loc 1 212 0
 2108 0294 1F48     		ldr	r0, .L124
 2109 0296 FFF7FEFF 		bl	chOQResetI
 2110              	.LVL226:
 2111              	.LBB904:
 2112              	.LBB905:
 2113              		.loc 2 311 0
 2114 029a FFF7FEFF 		bl	_dbg_check_unlock
 2115              	.LVL227:
 2116              		.loc 2 312 0
 2117 029e FFF7FEFF 		bl	_stats_stop_measure_crit_thd
 2118              	.LVL228:
 2119              		.loc 2 318 0
 2120 02a2 AA69     		ldr	r2, [r5, #24]
 2121 02a4 2B68     		ldr	r3, [r5]
 2122 02a6 9268     		ldr	r2, [r2, #8]
 2123 02a8 9B68     		ldr	r3, [r3, #8]
 2124 02aa 9A42     		cmp	r2, r3
 2125 02ac 06D2     		bcs	.L101
 2126 02ae 1B48     		ldr	r0, .L124+8
 2127 02b0 FFF7FEFF 		bl	puts
 2128              	.LVL229:
 2129              	@ 318 "../../../os/rt/include/chsys.h" 1
 2130 02b4 00BE     		BKPT #0
 2131              	
 2132              	@ 0 "" 2
 2133              		.thumb
 2134 02b6 1A48     		ldr	r0, .L124+12
 2135 02b8 FFF7FEFF 		bl	chSysHalt
 2136              	.LVL230:
 2137              	.L101:
 2138              	.LBB906:
 2139              	.LBB907:
 2140              	.LBB908:
 2141              		.loc 3 546 0
 2142 02bc 0023     		movs	r3, #0
 2143              	@ 546 "../../../os/ext/CMSIS/include/core_cmFunc.h" 1
 2144 02be 83F31188 		MSR basepri, r3
 2145              	@ 0 "" 2
 2146              	.LVL231:
 2147              		.thumb
 2148              	.LBE908:
 2149              	.LBE907:
 2150              	.LBE906:
 2151              	.LBE905:
 2152              	.LBE904:
 2153              	.LBB909:
 2154              	.LBB910:
 2155              	.LBB911:
 2156              	.LBB912:
 2157              	.LBB913:
 2158 02c2 2023     		movs	r3, #32
ARM GAS  C:\Users\jo\AppData\Local\Temp\ccijNLXD.s 			page 39


 2159              	@ 546 "../../../os/ext/CMSIS/include/core_cmFunc.h" 1
 2160 02c4 83F31188 		MSR basepri, r3
 2161              	@ 0 "" 2
 2162              		.thumb
 2163              	.LBE913:
 2164              	.LBE912:
 2165              	.LBE911:
 2166              		.loc 2 300 0
 2167 02c8 FFF7FEFF 		bl	_stats_start_measure_crit_thd
 2168              	.LVL232:
 2169              		.loc 2 301 0
 2170 02cc FFF7FEFF 		bl	_dbg_check_lock
 2171              	.LVL233:
 2172              	.LBE910:
 2173              	.LBE909:
 2174              	.LBB914:
 2175              	.LBB915:
 2176              		.loc 4 352 0
 2177 02d0 FFF7FEFF 		bl	chDbgCheckClassI
 2178              	.LVL234:
 2179              	.LBE915:
 2180              	.LBE914:
 2181              		.loc 1 214 0
 2182 02d4 07F10801 		add	r1, r7, #8
 2183 02d8 0EC9     		ldmia	r1, {r1, r2, r3}
 2184              	.LBB917:
 2185              	.LBB916:
 2186              		.loc 4 354 0
 2187 02da 9B1A     		subs	r3, r3, r2
 2188              	.LBE916:
 2189              	.LBE917:
 2190              		.loc 1 214 0
 2191 02dc 591A     		subs	r1, r3, r1
 2192 02de 0920     		movs	r0, #9
 2193 02e0 B1FA81F1 		clz	r1, r1
 2194 02e4 4909     		lsrs	r1, r1, #5
 2195 02e6 FFF7FEFF 		bl	_test_assert
 2196              	.LVL235:
 2197 02ea 0028     		cmp	r0, #0
 2198 02ec 68D1     		bne	.L112
 2199              	.LBB918:
 2200              	.LBB919:
 2201              		.loc 2 311 0
 2202 02ee FFF7FEFF 		bl	_dbg_check_unlock
 2203              	.LVL236:
 2204              		.loc 2 312 0
 2205 02f2 FFF7FEFF 		bl	_stats_stop_measure_crit_thd
 2206              	.LVL237:
 2207              		.loc 2 318 0
 2208 02f6 AA69     		ldr	r2, [r5, #24]
 2209 02f8 2B68     		ldr	r3, [r5]
 2210 02fa 9268     		ldr	r2, [r2, #8]
 2211 02fc 9B68     		ldr	r3, [r3, #8]
 2212 02fe 9A42     		cmp	r2, r3
 2213 0300 18D2     		bcs	.L104
 2214 0302 0648     		ldr	r0, .L124+8
 2215 0304 FFF7FEFF 		bl	puts
ARM GAS  C:\Users\jo\AppData\Local\Temp\ccijNLXD.s 			page 40


 2216              	.LVL238:
 2217              	@ 318 "../../../os/rt/include/chsys.h" 1
 2218 0308 00BE     		BKPT #0
 2219              	
 2220              	@ 0 "" 2
 2221              		.thumb
 2222 030a 0548     		ldr	r0, .L124+12
 2223 030c FFF7FEFF 		bl	chSysHalt
 2224              	.LVL239:
 2225 0310 10E0     		b	.L125
 2226              	.L126:
 2227 0312 00BF     		.align	2
 2228              	.L124:
 2229 0314 00000000 		.word	.LANCHOR2
 2230 0318 00000000 		.word	ch
 2231 031c 00000000 		.word	.LC0
 2232 0320 00000000 		.word	.LANCHOR1
 2233 0324 28000000 		.word	.LC1
 2234 0328 00000000 		.word	wa
 2235 032c 00000000 		.word	thread2
 2236 0330 00000000 		.word	threads
 2237              	.L125:
 2238              	.L104:
 2239              	.LVL240:
 2240              	.LBB920:
 2241              	.LBB921:
 2242              	.LBB922:
 2243              		.loc 3 546 0
 2244 0334 0023     		movs	r3, #0
 2245              	@ 546 "../../../os/ext/CMSIS/include/core_cmFunc.h" 1
 2246 0336 83F31188 		MSR basepri, r3
 2247              	@ 0 "" 2
 2248              		.thumb
 2249              	.LBE922:
 2250              	.LBE921:
 2251              	.LBE920:
 2252              	.LBE919:
 2253              	.LBE918:
 2254              		.loc 1 217 0
 2255 033a 4D4C     		ldr	r4, .L127
 2256 033c 7568     		ldr	r5, [r6, #4]
 2257 033e 0222     		movs	r2, #2
 2258 0340 2946     		mov	r1, r5
 2259 0342 2046     		mov	r0, r4
 2260 0344 FFF7FEFF 		bl	chOQWriteTimeout
 2261              	.LVL241:
 2262              		.loc 1 218 0
 2263 0348 A0F10201 		sub	r1, r0, #2
 2264 034c 0A20     		movs	r0, #10
 2265              	.LVL242:
 2266 034e B1FA81F1 		clz	r1, r1
 2267              	.LVL243:
 2268 0352 4909     		lsrs	r1, r1, #5
 2269 0354 FFF7FEFF 		bl	_test_assert
 2270              	.LVL244:
 2271 0358 0346     		mov	r3, r0
 2272 035a 0028     		cmp	r0, #0
ARM GAS  C:\Users\jo\AppData\Local\Temp\ccijNLXD.s 			page 41


 2273 035c 3DD1     		bne	.L74
 2274              		.loc 1 219 0
 2275 035e 2946     		mov	r1, r5
 2276 0360 2046     		mov	r0, r4
 2277 0362 0222     		movs	r2, #2
 2278 0364 FFF7FEFF 		bl	chOQWriteTimeout
 2279              	.LVL245:
 2280              		.loc 1 220 0
 2281 0368 A0F10201 		sub	r1, r0, #2
 2282 036c 0B20     		movs	r0, #11
 2283              	.LVL246:
 2284 036e B1FA81F1 		clz	r1, r1
 2285              	.LVL247:
 2286 0372 4909     		lsrs	r1, r1, #5
 2287 0374 FFF7FEFF 		bl	_test_assert
 2288              	.LVL248:
 2289 0378 78BB     		cbnz	r0, .L74
 2290              	.LVL249:
 2291              	.LBB923:
 2292              	.LBB924:
 2293              	.LBB925:
 2294              	.LBB926:
 2295              	.LBB927:
 2296              		.loc 3 546 0
 2297 037a 2023     		movs	r3, #32
 2298              	@ 546 "../../../os/ext/CMSIS/include/core_cmFunc.h" 1
 2299 037c 83F31188 		MSR basepri, r3
 2300              	@ 0 "" 2
 2301              		.thumb
 2302              	.LBE927:
 2303              	.LBE926:
 2304              	.LBE925:
 2305              		.loc 2 300 0
 2306 0380 FFF7FEFF 		bl	_stats_start_measure_crit_thd
 2307              	.LVL250:
 2308              		.loc 2 301 0
 2309 0384 FFF7FEFF 		bl	_dbg_check_lock
 2310              	.LVL251:
 2311              	.LBE924:
 2312              	.LBE923:
 2313              	.LBB928:
 2314              	.LBB929:
 2315              		.loc 4 402 0
 2316 0388 FFF7FEFF 		bl	chDbgCheckClassI
 2317              	.LVL252:
 2318              		.loc 4 404 0
 2319 038c A168     		ldr	r1, [r4, #8]
 2320              	.LBE929:
 2321              	.LBE928:
 2322              		.loc 1 221 0
 2323 038e B1FA81F1 		clz	r1, r1
 2324 0392 0C20     		movs	r0, #12
 2325 0394 4909     		lsrs	r1, r1, #5
 2326 0396 FFF7FEFF 		bl	_test_assert
 2327              	.LVL253:
 2328 039a 0546     		mov	r5, r0
 2329 039c 0028     		cmp	r0, #0
ARM GAS  C:\Users\jo\AppData\Local\Temp\ccijNLXD.s 			page 42


 2330 039e 61D1     		bne	.L123
 2331 03a0 FFF7FEFF 		bl	chSysUnlock
 2332              	.LVL254:
 2333              		.loc 1 224 0
 2334 03a4 2946     		mov	r1, r5
 2335 03a6 2046     		mov	r0, r4
 2336 03a8 0A22     		movs	r2, #10
 2337 03aa FFF7FEFF 		bl	chOQPutTimeout
 2338              	.LVL255:
 2339 03ae 431C     		adds	r3, r0, #1
 2340 03b0 5942     		rsbs	r1, r3, #0
 2341 03b2 5941     		adcs	r1, r1, r3
 2342 03b4 0D20     		movs	r0, #13
 2343              	.LBE812:
 2344              	.LBE811:
 2345              		.loc 1 225 0
 2346 03b6 02B0     		add	sp, sp, #8
 2347              		.cfi_remember_state
 2348              		.cfi_def_cfa_offset 24
 2349              		@ sp needed
 2350 03b8 BDE8F041 		pop	{r4, r5, r6, r7, r8, lr}
 2351              		.cfi_restore 14
 2352              		.cfi_restore 8
 2353              		.cfi_restore 7
 2354              		.cfi_restore 6
 2355              		.cfi_restore 5
 2356              		.cfi_restore 4
 2357              		.cfi_def_cfa_offset 0
 2358              	.LBB948:
 2359              	.LBB943:
 2360              		.loc 1 224 0
 2361 03bc FFF7FEBF 		b	_test_assert
 2362              	.LVL256:
 2363              	.L112:
 2364              		.cfi_restore_state
 2365              	.LBB930:
 2366              	.LBB931:
 2367              		.loc 2 311 0
 2368 03c0 FFF7FEFF 		bl	_dbg_check_unlock
 2369              	.LVL257:
 2370              		.loc 2 312 0
 2371 03c4 FFF7FEFF 		bl	_stats_stop_measure_crit_thd
 2372              	.LVL258:
 2373              		.loc 2 318 0
 2374 03c8 AA69     		ldr	r2, [r5, #24]
 2375 03ca 2B68     		ldr	r3, [r5]
 2376 03cc 9268     		ldr	r2, [r2, #8]
 2377 03ce 9B68     		ldr	r3, [r3, #8]
 2378 03d0 9A42     		cmp	r2, r3
 2379 03d2 18D3     		bcc	.L110
 2380              	.LVL259:
 2381              	.L103:
 2382              	.LBB932:
 2383              	.LBB933:
 2384              	.LBB934:
 2385              		.loc 3 546 0
 2386 03d4 0023     		movs	r3, #0
ARM GAS  C:\Users\jo\AppData\Local\Temp\ccijNLXD.s 			page 43


 2387              	@ 546 "../../../os/ext/CMSIS/include/core_cmFunc.h" 1
 2388 03d6 83F31188 		MSR basepri, r3
 2389              	@ 0 "" 2
 2390              	.LVL260:
 2391              		.thumb
 2392              	.L74:
 2393              	.LBE934:
 2394              	.LBE933:
 2395              	.LBE932:
 2396              	.LBE931:
 2397              	.LBE930:
 2398              	.LBE943:
 2399              	.LBE948:
 2400              		.loc 1 225 0
 2401 03da 02B0     		add	sp, sp, #8
 2402              		.cfi_remember_state
 2403              		.cfi_def_cfa_offset 24
 2404              		@ sp needed
 2405 03dc BDE8F081 		pop	{r4, r5, r6, r7, r8, pc}
 2406              	.L118:
 2407              		.cfi_restore_state
 2408              	.LBB949:
 2409              	.LBB944:
 2410              	.LBB936:
 2411              	.LBB818:
 2412              		.loc 2 318 0
 2413 03e0 2448     		ldr	r0, .L127+4
 2414 03e2 FFF7FEFF 		bl	puts
 2415              	.LVL261:
 2416              	@ 318 "../../../os/rt/include/chsys.h" 1
 2417 03e6 00BE     		BKPT #0
 2418              	
 2419              	@ 0 "" 2
 2420              		.thumb
 2421 03e8 2348     		ldr	r0, .L127+8
 2422 03ea FFF7FEFF 		bl	chSysHalt
 2423              	.LVL262:
 2424 03ee 2CE6     		b	.L79
 2425              	.L117:
 2426              	.LBE818:
 2427              	.LBE936:
 2428              	.LBE944:
 2429              	.LBE949:
 2430              	.LBB950:
 2431              	.LBB951:
 2432              		.loc 2 311 0
 2433 03f0 FFF7FEFF 		bl	_dbg_check_unlock
 2434              	.LVL263:
 2435              		.loc 2 312 0
 2436 03f4 FFF7FEFF 		bl	_stats_stop_measure_crit_thd
 2437              	.LVL264:
 2438              		.loc 2 318 0
 2439 03f8 204B     		ldr	r3, .L127+12
 2440 03fa 9A69     		ldr	r2, [r3, #24]
 2441 03fc 1B68     		ldr	r3, [r3]
 2442 03fe 9268     		ldr	r2, [r2, #8]
 2443 0400 9B68     		ldr	r3, [r3, #8]
ARM GAS  C:\Users\jo\AppData\Local\Temp\ccijNLXD.s 			page 44


 2444 0402 9A42     		cmp	r2, r3
 2445 0404 E6D2     		bcs	.L103
 2446              	.L110:
 2447              	.LBE951:
 2448              	.LBE950:
 2449              	.LBB952:
 2450              	.LBB945:
 2451              	.LBB937:
 2452              	.LBB935:
 2453 0406 1B48     		ldr	r0, .L127+4
 2454 0408 FFF7FEFF 		bl	puts
 2455              	.LVL265:
 2456              	@ 318 "../../../os/rt/include/chsys.h" 1
 2457 040c 00BE     		BKPT #0
 2458              	
 2459              	@ 0 "" 2
 2460              		.thumb
 2461 040e 1A48     		ldr	r0, .L127+8
 2462 0410 FFF7FEFF 		bl	chSysHalt
 2463              	.LVL266:
 2464 0414 DEE7     		b	.L103
 2465              	.LVL267:
 2466              	.L120:
 2467              	.LBE935:
 2468              	.LBE937:
 2469              	.LBB938:
 2470              	.LBB857:
 2471 0416 1748     		ldr	r0, .L127+4
 2472 0418 FFF7FEFF 		bl	puts
 2473              	.LVL268:
 2474              	@ 318 "../../../os/rt/include/chsys.h" 1
 2475 041c 00BE     		BKPT #0
 2476              	
 2477              	@ 0 "" 2
 2478              		.thumb
 2479 041e 1648     		ldr	r0, .L127+8
 2480 0420 FFF7FEFF 		bl	chSysHalt
 2481              	.LVL269:
 2482 0424 8EE6     		b	.L89
 2483              	.LVL270:
 2484              	.L116:
 2485              	.LBE857:
 2486              	.LBE938:
 2487              	.LBE945:
 2488              	.LBE952:
 2489              	.LBB953:
 2490              	.LBB808:
 2491              		.loc 4 387 0
 2492 0426 B968     		ldr	r1, [r7, #8]
 2493 0428 0031     		adds	r1, r1, #0
 2494 042a 18BF     		it	ne
 2495 042c 0121     		movne	r1, #1
 2496 042e FAE5     		b	.L75
 2497              	.LVL271:
 2498              	.L119:
 2499              	.LBE808:
 2500              	.LBE953:
ARM GAS  C:\Users\jo\AppData\Local\Temp\ccijNLXD.s 			page 45


 2501              	.LBB954:
 2502              	.LBB946:
 2503              	.LBB939:
 2504              	.LBB851:
 2505 0430 8B68     		ldr	r3, [r1, #8]
 2506 0432 13F10008 		adds	r8, r3, #0
 2507 0436 18BF     		it	ne
 2508 0438 4FF00108 		movne	r8, #1
 2509 043c 70E6     		b	.L86
 2510              	.LVL272:
 2511              	.L121:
 2512              	.LBE851:
 2513              	.LBE939:
 2514              	.LBB940:
 2515              	.LBB868:
 2516              		.loc 2 318 0
 2517 043e 0D48     		ldr	r0, .L127+4
 2518 0440 FFF7FEFF 		bl	puts
 2519              	.LVL273:
 2520              	@ 318 "../../../os/rt/include/chsys.h" 1
 2521 0444 00BE     		BKPT #0
 2522              	
 2523              	@ 0 "" 2
 2524              		.thumb
 2525 0446 0C48     		ldr	r0, .L127+8
 2526 0448 FFF7FEFF 		bl	chSysHalt
 2527              	.LVL274:
 2528 044c A3E6     		b	.L93
 2529              	.LVL275:
 2530              	.L122:
 2531              	.LBE868:
 2532              	.LBE940:
 2533              	.LBB941:
 2534              	.LBB942:
 2535              		.loc 2 311 0
 2536 044e FFF7FEFF 		bl	_dbg_check_unlock
 2537              	.LVL276:
 2538              		.loc 2 312 0
 2539 0452 FFF7FEFF 		bl	_stats_stop_measure_crit_thd
 2540              	.LVL277:
 2541              		.loc 2 318 0
 2542 0456 A269     		ldr	r2, [r4, #24]
 2543 0458 2368     		ldr	r3, [r4]
 2544 045a 9268     		ldr	r2, [r2, #8]
 2545 045c 9B68     		ldr	r3, [r3, #8]
 2546 045e 9A42     		cmp	r2, r3
 2547 0460 B8D2     		bcs	.L103
 2548 0462 D0E7     		b	.L110
 2549              	.LVL278:
 2550              	.L123:
 2551              	.LBE942:
 2552              	.LBE941:
 2553              	.LBE946:
 2554              	.LBE954:
 2555              		.loc 1 225 0
 2556 0464 02B0     		add	sp, sp, #8
 2557              		.cfi_def_cfa_offset 24
ARM GAS  C:\Users\jo\AppData\Local\Temp\ccijNLXD.s 			page 46


 2558              		@ sp needed
 2559 0466 BDE8F041 		pop	{r4, r5, r6, r7, r8, lr}
 2560              		.cfi_restore 14
 2561              		.cfi_restore 8
 2562              		.cfi_restore 7
 2563              		.cfi_restore 6
 2564              		.cfi_restore 5
 2565              		.cfi_restore 4
 2566              		.cfi_def_cfa_offset 0
 2567              	.LBB955:
 2568              	.LBB947:
 2569              		.loc 1 221 0
 2570 046a FFF7FEBF 		b	chSysUnlock
 2571              	.LVL279:
 2572              	.L128:
 2573 046e 00BF     		.align	2
 2574              	.L127:
 2575 0470 00000000 		.word	.LANCHOR2
 2576 0474 00000000 		.word	.LC0
 2577 0478 00000000 		.word	.LANCHOR1
 2578 047c 00000000 		.word	ch
 2579              	.LBE947:
 2580              	.LBE955:
 2581              		.cfi_endproc
 2582              	.LFE232:
 2583              		.size	queues2_execute, .-queues2_execute
 2584              		.global	patternqueues
 2585              		.global	testqueues2
 2586              		.global	testqueues1
 2587              		.section	.rodata.testqueues1,"a",%progbits
 2588              		.align	2
 2589              		.type	testqueues1, %object
 2590              		.size	testqueues1, 16
 2591              	testqueues1:
 2592 0000 48000000 		.word	.LC3
 2593 0004 00000000 		.word	queues1_setup
 2594 0008 00000000 		.word	0
 2595 000c 00000000 		.word	queues1_execute
 2596              		.section	.rodata.testqueues2,"a",%progbits
 2597              		.align	2
 2598              		.type	testqueues2, %object
 2599              		.size	testqueues2, 16
 2600              	testqueues2:
 2601 0000 30000000 		.word	.LC2
 2602 0004 00000000 		.word	queues2_setup
 2603 0008 00000000 		.word	0
 2604 000c 00000000 		.word	queues2_execute
 2605              		.section	.rodata.str1.4,"aMS",%progbits,1
 2606              		.align	2
 2607              	.LC0:
 2608 0000 7072696F 		.ascii	"priority violation, missing reschedule\000"
 2608      72697479 
 2608      2076696F 
 2608      6C617469 
 2608      6F6E2C20 
 2609 0027 00       		.space	1
 2610              	.LC1:
ARM GAS  C:\Users\jo\AppData\Local\Temp\ccijNLXD.s 			page 47


 2611 0028 41424344 		.ascii	"ABCD\000"
 2611      00
 2612 002d 000000   		.space	3
 2613              	.LC2:
 2614 0030 51756575 		.ascii	"Queues, output queues\000"
 2614      65732C20 
 2614      6F757470 
 2614      75742071 
 2614      75657565 
 2615 0046 0000     		.space	2
 2616              	.LC3:
 2617 0048 51756575 		.ascii	"Queues, input queues\000"
 2617      65732C20 
 2617      696E7075 
 2617      74207175 
 2617      65756573 
 2618 005d 000000   		.section	.rodata.patternqueues,"a",%progbits
 2619              		.align	2
 2620              		.type	patternqueues, %object
 2621              		.size	patternqueues, 12
 2622              	patternqueues:
 2623 0000 00000000 		.word	testqueues1
 2624 0004 00000000 		.word	testqueues2
 2625 0008 00000000 		.word	0
 2626              		.section	.rodata.__func__.6751,"a",%progbits
 2627              		.align	2
 2628              		.set	.LANCHOR1,. + 0
 2629              		.type	__func__.6751, %object
 2630              		.size	__func__.6751, 12
 2631              	__func__.6751:
 2632 0000 63685379 		.ascii	"chSysUnlock\000"
 2632      73556E6C 
 2632      6F636B00 
 2633              		.section	.data.oq,"aw",%progbits
 2634              		.align	2
 2635              		.set	.LANCHOR2,. + 0
 2636              		.type	oq, %object
 2637              		.size	oq, 36
 2638              	oq:
 2639 0000 00000000 		.word	oq
 2640 0004 00000000 		.word	oq
 2641 0008 04000000 		.word	4
 2642 000c 68010000 		.word	test+360
 2643 0010 6C010000 		.word	test+364
 2644 0014 68010000 		.word	test+360
 2645 0018 68010000 		.word	test+360
 2646 001c 00000000 		.word	notify
 2647 0020 00000000 		.word	0
 2648              		.section	.data.iq,"aw",%progbits
 2649              		.align	2
 2650              		.set	.LANCHOR0,. + 0
 2651              		.type	iq, %object
 2652              		.size	iq, 36
 2653              	iq:
 2654 0000 00000000 		.word	iq
 2655 0004 00000000 		.word	iq
 2656 0008 00000000 		.word	0
ARM GAS  C:\Users\jo\AppData\Local\Temp\ccijNLXD.s 			page 48


 2657 000c 00000000 		.word	test
 2658 0010 04000000 		.word	test+4
 2659 0014 00000000 		.word	test
 2660 0018 00000000 		.word	test
 2661 001c 00000000 		.word	notify
 2662 0020 00000000 		.word	0
 2663              		.text
 2664              	.Letext0:
 2665              		.file 6 "c:\\program files\\gnu tools arm embedded\\4.9 2014q4\\lib\\gcc\\arm-none-eabi\\4.9.3\\in
 2666              		.file 7 "c:\\program files\\gnu tools arm embedded\\4.9 2014q4\\arm-none-eabi\\include\\machine\\_
 2667              		.file 8 "c:\\program files\\gnu tools arm embedded\\4.9 2014q4\\arm-none-eabi\\include\\stdint.h"
 2668              		.file 9 "../../../os/rt/ports/ARMCMx/compilers/GCC/chtypes.h"
 2669              		.file 10 "../../../os/rt/include/chsystypes.h"
 2670              		.file 11 "../../../os/rt/include/chschd.h"
 2671              		.file 12 "../../../os/rt/ports/ARMCMx/chcore.h"
 2672              		.file 13 "../../../os/rt/ports/ARMCMx/chcore_v7m.h"
 2673              		.file 14 "../../../os/rt/include/chdebug.h"
 2674              		.file 15 "../../../os/rt/include/chtm.h"
 2675              		.file 16 "../../../os/rt/include/chstats.h"
 2676              		.file 17 "../../../os/rt/include/chmtx.h"
 2677              		.file 18 "../../../test/rt/test.h"
 2678              		.file 19 "../../../os/ext/CMSIS/include/core_cm4.h"
 2679              		.file 20 "<built-in>"