ARM GAS  C:\Users\jo\AppData\Local\Temp\ccRjY7xX.s 			page 1


   1              		.syntax unified
   2              		.cpu cortex-m4
   3              		.fpu softvfp
   4              		.eabi_attribute 20, 1
   5              		.eabi_attribute 21, 1
   6              		.eabi_attribute 23, 3
   7              		.eabi_attribute 24, 1
   8              		.eabi_attribute 25, 1
   9              		.eabi_attribute 26, 1
  10              		.eabi_attribute 30, 2
  11              		.eabi_attribute 34, 1
  12              		.eabi_attribute 18, 4
  13              		.thumb
  14              		.file	"testpools.c"
  15              		.text
  16              	.Ltext0:
  17              		.cfi_sections	.debug_frame
  18              		.section	.text.null_provider,"ax",%progbits
  19              		.align	2
  20              		.p2align 4,,15
  21              		.thumb
  22              		.thumb_func
  23              		.type	null_provider, %function
  24              	null_provider:
  25              	.LFB226:
  26              		.file 1 "../../../test/rt/testpools.c"
  27              		.loc 1 60 0
  28              		.cfi_startproc
  29              		@ args = 0, pretend = 0, frame = 0
  30              		@ frame_needed = 0, uses_anonymous_args = 0
  31              		@ link register save eliminated.
  32              	.LVL0:
  33              		.loc 1 64 0
  34 0000 0020     		movs	r0, #0
  35              	.LVL1:
  36 0002 7047     		bx	lr
  37              		.cfi_endproc
  38              	.LFE226:
  39              		.size	null_provider, .-null_provider
  40 0004 AFF30080 		.section	.text.pools1_setup,"ax",%progbits
  40      AFF30080 
  40      AFF30080 
  41              		.align	2
  42              		.p2align 4,,15
  43              		.thumb
  44              		.thumb_func
  45              		.type	pools1_setup, %function
  46              	pools1_setup:
  47              	.LFB227:
  48              		.loc 1 66 0
  49              		.cfi_startproc
  50              		@ args = 0, pretend = 0, frame = 0
  51              		@ frame_needed = 0, uses_anonymous_args = 0
  52              		@ link register save eliminated.
  53              		.loc 1 68 0
  54 0000 0248     		ldr	r0, .L3
  55 0002 4FF4B471 		mov	r1, #360
ARM GAS  C:\Users\jo\AppData\Local\Temp\ccRjY7xX.s 			page 2


  56 0006 0022     		movs	r2, #0
  57 0008 FFF7FEBF 		b	chPoolObjectInit
  58              	.LVL2:
  59              	.L4:
  60              		.align	2
  61              	.L3:
  62 000c 00000000 		.word	.LANCHOR0
  63              		.cfi_endproc
  64              	.LFE227:
  65              		.size	pools1_setup, .-pools1_setup
  66              		.section	.text.pools1_execute,"ax",%progbits
  67              		.align	2
  68              		.p2align 4,,15
  69              		.thumb
  70              		.thumb_func
  71              		.type	pools1_execute, %function
  72              	pools1_execute:
  73              	.LFB228:
  74              		.loc 1 71 0
  75              		.cfi_startproc
  76              		@ args = 0, pretend = 0, frame = 0
  77              		@ frame_needed = 0, uses_anonymous_args = 0
  78 0000 38B5     		push	{r3, r4, r5, lr}
  79              		.cfi_def_cfa_offset 16
  80              		.cfi_offset 3, -16
  81              		.cfi_offset 4, -12
  82              		.cfi_offset 5, -8
  83              		.cfi_offset 14, -4
  84              		.loc 1 75 0
  85 0002 2B4B     		ldr	r3, .L19
  86 0004 2B48     		ldr	r0, .L19+4
  87 0006 1D68     		ldr	r5, [r3]
  88 0008 0522     		movs	r2, #5
  89 000a 2946     		mov	r1, r5
  90 000c FFF7FEFF 		bl	chPoolLoadArray
  91              	.LVL3:
  92 0010 0524     		movs	r4, #5
  93              	.LVL4:
  94              	.L8:
  95              		.loc 1 79 0
  96 0012 2848     		ldr	r0, .L19+4
  97 0014 FFF7FEFF 		bl	chPoolAlloc
  98              	.LVL5:
  99 0018 011C     		adds	r1, r0, #0
 100 001a 18BF     		it	ne
 101 001c 0121     		movne	r1, #1
 102 001e 0120     		movs	r0, #1
 103 0020 FFF7FEFF 		bl	_test_assert
 104              	.LVL6:
 105 0024 90BB     		cbnz	r0, .L5
 106              		.loc 1 78 0 discriminator 2
 107 0026 013C     		subs	r4, r4, #1
 108              	.LVL7:
 109 0028 F3D1     		bne	.L8
 110              		.loc 1 82 0
 111 002a 2248     		ldr	r0, .L19+4
 112 002c FFF7FEFF 		bl	chPoolAlloc
ARM GAS  C:\Users\jo\AppData\Local\Temp\ccRjY7xX.s 			page 3


 113              	.LVL8:
 114 0030 B0FA80F1 		clz	r1, r0
 115 0034 0220     		movs	r0, #2
 116 0036 4909     		lsrs	r1, r1, #5
 117 0038 FFF7FEFF 		bl	_test_assert
 118              	.LVL9:
 119 003c 30BB     		cbnz	r0, .L5
 120 003e 1C4C     		ldr	r4, .L19
 121              	.LVL10:
 122              	.LBB4:
 123              	.LBB5:
 124              		.loc 1 86 0
 125 0040 1C48     		ldr	r0, .L19+4
 126              	.LBE5:
 127              	.LBE4:
 128              		.loc 1 82 0
 129 0042 2946     		mov	r1, r5
 130 0044 04F11005 		add	r5, r4, #16
 131              	.LBB8:
 132              	.LBB6:
 133              		.loc 1 86 0
 134 0048 FFF7FEFF 		bl	chPoolFree
 135              	.LVL11:
 136              		.loc 1 85 0
 137 004c AC42     		cmp	r4, r5
 138 004e 06D0     		beq	.L12
 139              	.L17:
 140 0050 54F8041F 		ldr	r1, [r4, #4]!
 141              		.loc 1 86 0
 142 0054 1748     		ldr	r0, .L19+4
 143 0056 FFF7FEFF 		bl	chPoolFree
 144              	.LVL12:
 145              		.loc 1 85 0
 146 005a AC42     		cmp	r4, r5
 147 005c F8D1     		bne	.L17
 148              	.L12:
 149 005e 0524     		movs	r4, #5
 150              	.L10:
 151              	.LVL13:
 152              		.loc 1 90 0
 153 0060 1448     		ldr	r0, .L19+4
 154 0062 FFF7FEFF 		bl	chPoolAlloc
 155              	.LVL14:
 156 0066 011C     		adds	r1, r0, #0
 157 0068 18BF     		it	ne
 158 006a 0121     		movne	r1, #1
 159 006c 0320     		movs	r0, #3
 160 006e FFF7FEFF 		bl	_test_assert
 161              	.LVL15:
 162 0072 58B9     		cbnz	r0, .L5
 163              		.loc 1 89 0
 164 0074 013C     		subs	r4, r4, #1
 165              	.LVL16:
 166 0076 F3D1     		bne	.L10
 167              		.loc 1 93 0
 168 0078 0E48     		ldr	r0, .L19+4
 169 007a FFF7FEFF 		bl	chPoolAlloc
ARM GAS  C:\Users\jo\AppData\Local\Temp\ccRjY7xX.s 			page 4


 170              	.LVL17:
 171 007e B0FA80F1 		clz	r1, r0
 172 0082 0420     		movs	r0, #4
 173 0084 4909     		lsrs	r1, r1, #5
 174 0086 FFF7FEFF 		bl	_test_assert
 175              	.LVL18:
 176 008a 00B1     		cbz	r0, .L18
 177              	.LVL19:
 178              	.L5:
 179 008c 38BD     		pop	{r3, r4, r5, pc}
 180              	.LVL20:
 181              	.L18:
 182              		.loc 1 96 0
 183 008e 1021     		movs	r1, #16
 184 0090 0848     		ldr	r0, .L19+4
 185 0092 094A     		ldr	r2, .L19+8
 186 0094 FFF7FEFF 		bl	chPoolObjectInit
 187              	.LVL21:
 188              		.loc 1 97 0
 189 0098 0648     		ldr	r0, .L19+4
 190 009a FFF7FEFF 		bl	chPoolAlloc
 191              	.LVL22:
 192              	.LBE6:
 193              	.LBE8:
 194              		.loc 1 98 0
 195 009e BDE83840 		pop	{r3, r4, r5, lr}
 196              		.cfi_restore 14
 197              		.cfi_restore 5
 198              		.cfi_restore 4
 199              		.cfi_restore 3
 200              		.cfi_def_cfa_offset 0
 201              	.LVL23:
 202              	.LBB9:
 203              	.LBB7:
 204              		.loc 1 97 0
 205 00a2 B0FA80F1 		clz	r1, r0
 206 00a6 0520     		movs	r0, #5
 207 00a8 4909     		lsrs	r1, r1, #5
 208 00aa FFF7FEBF 		b	_test_assert
 209              	.LVL24:
 210              	.L20:
 211 00ae 00BF     		.align	2
 212              	.L19:
 213 00b0 00000000 		.word	wa
 214 00b4 00000000 		.word	.LANCHOR0
 215 00b8 00000000 		.word	null_provider
 216              	.LBE7:
 217              	.LBE9:
 218              		.cfi_endproc
 219              	.LFE228:
 220              		.size	pools1_execute, .-pools1_execute
 221              		.global	patternpools
 222              		.global	testpools1
 223 00bc AFF30080 		.section	.rodata.str1.4,"aMS",%progbits,1
 224              		.align	2
 225              	.LC0:
 226 0000 4D656D6F 		.ascii	"Memory Pools, queue/dequeue\000"
ARM GAS  C:\Users\jo\AppData\Local\Temp\ccRjY7xX.s 			page 5


 226      72792050 
 226      6F6F6C73 
 226      2C207175 
 226      6575652F 
 227              		.section	.rodata.patternpools,"a",%progbits
 228              		.align	2
 229              		.type	patternpools, %object
 230              		.size	patternpools, 8
 231              	patternpools:
 232 0000 00000000 		.word	testpools1
 233 0004 00000000 		.word	0
 234              		.section	.data.mp1,"aw",%progbits
 235              		.align	2
 236              		.set	.LANCHOR0,. + 0
 237              		.type	mp1, %object
 238              		.size	mp1, 12
 239              	mp1:
 240 0000 00000000 		.word	0
 241 0004 68010000 		.word	360
 242 0008 00000000 		.word	0
 243              		.section	.rodata.testpools1,"a",%progbits
 244              		.align	2
 245              		.type	testpools1, %object
 246              		.size	testpools1, 16
 247              	testpools1:
 248 0000 00000000 		.word	.LC0
 249 0004 00000000 		.word	pools1_setup
 250 0008 00000000 		.word	0
 251 000c 00000000 		.word	pools1_execute
 252              		.text
 253              	.Letext0:
 254              		.file 2 "c:\\program files\\gnu tools arm embedded\\4.9 2014q4\\lib\\gcc\\arm-none-eabi\\4.9.3\\in
 255              		.file 3 "c:\\program files\\gnu tools arm embedded\\4.9 2014q4\\arm-none-eabi\\include\\machine\\_
 256              		.file 4 "c:\\program files\\gnu tools arm embedded\\4.9 2014q4\\arm-none-eabi\\include\\stdint.h"
 257              		.file 5 "../../../os/rt/ports/ARMCMx/compilers/GCC/chtypes.h"
 258              		.file 6 "../../../os/rt/include/chsystypes.h"
 259              		.file 7 "../../../os/rt/include/chschd.h"
 260              		.file 8 "../../../os/rt/ports/ARMCMx/chcore.h"
 261              		.file 9 "../../../os/rt/ports/ARMCMx/chcore_v7m.h"
 262              		.file 10 "../../../os/rt/include/chdebug.h"
 263              		.file 11 "../../../os/rt/include/chtm.h"
 264              		.file 12 "../../../os/rt/include/chstats.h"
 265              		.file 13 "../../../os/rt/include/chmtx.h"
 266              		.file 14 "../../../os/rt/include/chmemcore.h"
 267              		.file 15 "../../../os/rt/include/chmempools.h"
 268              		.file 16 "../../../test/rt/test.h"
 269              		.file 17 "../../../os/ext/CMSIS/include/core_cm4.h"