ARM GAS  C:\Users\jo\AppData\Local\Temp\ccpSQ3Dm.s 			page 1


   1              		.syntax unified
   2              		.cpu cortex-m4
   3              		.fpu softvfp
   4              		.eabi_attribute 20, 1
   5              		.eabi_attribute 21, 1
   6              		.eabi_attribute 23, 3
   7              		.eabi_attribute 24, 1
   8              		.eabi_attribute 25, 1
   9              		.eabi_attribute 26, 1
  10              		.eabi_attribute 30, 2
  11              		.eabi_attribute 34, 1
  12              		.eabi_attribute 18, 4
  13              		.thumb
  14              		.file	"testsem.c"
  15              		.text
  16              	.Ltext0:
  17              		.cfi_sections	.debug_frame
  18              		.section	.text.thread3,"ax",%progbits
  19              		.align	2
  20              		.p2align 4,,15
  21              		.thumb
  22              		.thumb_func
  23              		.type	thread3, %function
  24              	thread3:
  25              	.LFB233:
  26              		.file 1 "../../../test/rt/testsem.c"
  27              		.loc 1 209 0
  28              		.cfi_startproc
  29              		@ args = 0, pretend = 0, frame = 0
  30              		@ frame_needed = 0, uses_anonymous_args = 0
  31              	.LVL0:
  32 0000 10B5     		push	{r4, lr}
  33              		.cfi_def_cfa_offset 8
  34              		.cfi_offset 4, -8
  35              		.cfi_offset 14, -4
  36              		.loc 1 212 0
  37 0002 044C     		ldr	r4, .L3
  38 0004 2046     		mov	r0, r4
  39              	.LVL1:
  40 0006 FFF7FEFF 		bl	chSemWait
  41              	.LVL2:
  42              		.loc 1 213 0
  43 000a 2046     		mov	r0, r4
  44 000c FFF7FEFF 		bl	chSemSignal
  45              	.LVL3:
  46              		.loc 1 215 0
  47 0010 0020     		movs	r0, #0
  48 0012 10BD     		pop	{r4, pc}
  49              	.L4:
  50              		.align	2
  51              	.L3:
  52 0014 00000000 		.word	.LANCHOR0
  53              		.cfi_endproc
  54              	.LFE233:
  55              		.size	thread3, .-thread3
  56 0018 AFF30080 		.section	.text.thread1,"ax",%progbits
  56      AFF30080 
ARM GAS  C:\Users\jo\AppData\Local\Temp\ccpSQ3Dm.s 			page 2


  57              		.align	2
  58              		.p2align 4,,15
  59              		.thumb
  60              		.thumb_func
  61              		.type	thread1, %function
  62              	thread1:
  63              	.LFB227:
  64              		.loc 1 77 0
  65              		.cfi_startproc
  66              		@ args = 0, pretend = 0, frame = 0
  67              		@ frame_needed = 0, uses_anonymous_args = 0
  68              	.LVL4:
  69 0000 10B5     		push	{r4, lr}
  70              		.cfi_def_cfa_offset 8
  71              		.cfi_offset 4, -8
  72              		.cfi_offset 14, -4
  73              		.loc 1 77 0
  74 0002 0446     		mov	r4, r0
  75              		.loc 1 79 0
  76 0004 0348     		ldr	r0, .L7
  77              	.LVL5:
  78 0006 FFF7FEFF 		bl	chSemWait
  79              	.LVL6:
  80              		.loc 1 80 0
  81 000a 2078     		ldrb	r0, [r4]	@ zero_extendqisi2
  82 000c FFF7FEFF 		bl	test_emit_token
  83              	.LVL7:
  84              		.loc 1 82 0
  85 0010 0020     		movs	r0, #0
  86 0012 10BD     		pop	{r4, pc}
  87              	.LVL8:
  88              	.L8:
  89              		.align	2
  90              	.L7:
  91 0014 00000000 		.word	.LANCHOR0
  92              		.cfi_endproc
  93              	.LFE227:
  94              		.size	thread1, .-thread1
  95 0018 AFF30080 		.section	.text.sem1_setup,"ax",%progbits
  95      AFF30080 
  96              		.align	2
  97              		.p2align 4,,15
  98              		.thumb
  99              		.thumb_func
 100              		.type	sem1_setup, %function
 101              	sem1_setup:
 102              	.LFB226:
 103              		.loc 1 72 0
 104              		.cfi_startproc
 105              		@ args = 0, pretend = 0, frame = 0
 106              		@ frame_needed = 0, uses_anonymous_args = 0
 107              		@ link register save eliminated.
 108              		.loc 1 74 0
 109 0000 0148     		ldr	r0, .L10
 110 0002 0021     		movs	r1, #0
 111 0004 FFF7FEBF 		b	chSemObjectInit
 112              	.LVL9:
ARM GAS  C:\Users\jo\AppData\Local\Temp\ccpSQ3Dm.s 			page 3


 113              	.L11:
 114              		.align	2
 115              	.L10:
 116 0008 00000000 		.word	.LANCHOR0
 117              		.cfi_endproc
 118              	.LFE226:
 119              		.size	sem1_setup, .-sem1_setup
 120 000c AFF30080 		.section	.text.sem2_setup,"ax",%progbits
 121              		.align	2
 122              		.p2align 4,,15
 123              		.thumb
 124              		.thumb_func
 125              		.type	sem2_setup, %function
 126              	sem2_setup:
 127              	.LFB229:
 128              		.loc 1 129 0
 129              		.cfi_startproc
 130              		@ args = 0, pretend = 0, frame = 0
 131              		@ frame_needed = 0, uses_anonymous_args = 0
 132              		@ link register save eliminated.
 133              		.loc 1 131 0
 134 0000 0148     		ldr	r0, .L13
 135 0002 0021     		movs	r1, #0
 136 0004 FFF7FEBF 		b	chSemObjectInit
 137              	.LVL10:
 138              	.L14:
 139              		.align	2
 140              	.L13:
 141 0008 00000000 		.word	.LANCHOR0
 142              		.cfi_endproc
 143              	.LFE229:
 144              		.size	sem2_setup, .-sem2_setup
 145 000c AFF30080 		.section	.text.sem3_setup,"ax",%progbits
 146              		.align	2
 147              		.p2align 4,,15
 148              		.thumb
 149              		.thumb_func
 150              		.type	sem3_setup, %function
 151              	sem3_setup:
 152              	.LFB232:
 153              		.loc 1 204 0
 154              		.cfi_startproc
 155              		@ args = 0, pretend = 0, frame = 0
 156              		@ frame_needed = 0, uses_anonymous_args = 0
 157              		@ link register save eliminated.
 158              		.loc 1 206 0
 159 0000 0148     		ldr	r0, .L16
 160 0002 0021     		movs	r1, #0
 161 0004 FFF7FEBF 		b	chSemObjectInit
 162              	.LVL11:
 163              	.L17:
 164              		.align	2
 165              	.L16:
 166 0008 00000000 		.word	.LANCHOR0
 167              		.cfi_endproc
 168              	.LFE232:
 169              		.size	sem3_setup, .-sem3_setup
ARM GAS  C:\Users\jo\AppData\Local\Temp\ccpSQ3Dm.s 			page 4


 170 000c AFF30080 		.section	.text.sem3_execute,"ax",%progbits
 171              		.align	2
 172              		.p2align 4,,15
 173              		.thumb
 174              		.thumb_func
 175              		.type	sem3_execute, %function
 176              	sem3_execute:
 177              	.LFB234:
 178              		.loc 1 217 0
 179              		.cfi_startproc
 180              		@ args = 0, pretend = 0, frame = 0
 181              		@ frame_needed = 0, uses_anonymous_args = 0
 182 0000 10B5     		push	{r4, lr}
 183              		.cfi_def_cfa_offset 8
 184              		.cfi_offset 4, -8
 185              		.cfi_offset 14, -4
 186              	.LBB182:
 187              	.LBB183:
 188              	.LBB184:
 189              	.LBB185:
 190              		.file 2 "../../../os/rt/include/chthreads.h"
 191              		.loc 2 179 0
 192 0002 204B     		ldr	r3, .L25
 193              	.LBE185:
 194              	.LBE184:
 195              	.LBE183:
 196              	.LBE182:
 197              		.loc 1 219 0
 198 0004 204A     		ldr	r2, .L25+4
 199              	.LBB187:
 200              	.LBB186:
 201              		.loc 2 192 0
 202 0006 9B69     		ldr	r3, [r3, #24]
 203              	.LBE186:
 204              	.LBE187:
 205              		.loc 1 219 0
 206 0008 1068     		ldr	r0, [r2]
 207 000a 9A68     		ldr	r2, [r3, #8]
 208 000c 1F4B     		ldr	r3, .L25+8
 209              		.loc 1 220 0
 210 000e 204C     		ldr	r4, .L25+12
 211              		.loc 1 217 0
 212 0010 82B0     		sub	sp, sp, #8
 213              		.cfi_def_cfa_offset 16
 214              		.loc 1 219 0
 215 0012 0021     		movs	r1, #0
 216 0014 0132     		adds	r2, r2, #1
 217 0016 0091     		str	r1, [sp]
 218 0018 4FF4B471 		mov	r1, #360
 219 001c FFF7FEFF 		bl	chThdCreateStatic
 220              	.LVL12:
 221 0020 1C4B     		ldr	r3, .L25+16
 222              		.loc 1 220 0
 223 0022 2146     		mov	r1, r4
 224              		.loc 1 219 0
 225 0024 1860     		str	r0, [r3]
 226              		.loc 1 220 0
ARM GAS  C:\Users\jo\AppData\Local\Temp\ccpSQ3Dm.s 			page 5


 227 0026 2046     		mov	r0, r4
 228 0028 FFF7FEFF 		bl	chSemSignalWait
 229              	.LVL13:
 230              	.LBB188:
 231              	.LBB189:
 232              		.file 3 "../../../os/rt/include/chschd.h"
 233              		.loc 3 587 0
 234 002c 2168     		ldr	r1, [r4]
 235              	.LBE189:
 236              	.LBE188:
 237              		.loc 1 221 0
 238 002e 0120     		movs	r0, #1
 239 0030 091B     		subs	r1, r1, r4
 240 0032 B1FA81F1 		clz	r1, r1
 241 0036 4909     		lsrs	r1, r1, #5
 242 0038 FFF7FEFF 		bl	_test_assert
 243              	.LVL14:
 244 003c 08B1     		cbz	r0, .L24
 245              	.L18:
 246              		.loc 1 227 0
 247 003e 02B0     		add	sp, sp, #8
 248              		.cfi_remember_state
 249              		.cfi_def_cfa_offset 8
 250              		@ sp needed
 251 0040 10BD     		pop	{r4, pc}
 252              	.L24:
 253              		.cfi_restore_state
 254              		.loc 1 222 0
 255 0042 A168     		ldr	r1, [r4, #8]
 256 0044 B1FA81F1 		clz	r1, r1
 257 0048 0220     		movs	r0, #2
 258 004a 4909     		lsrs	r1, r1, #5
 259 004c FFF7FEFF 		bl	_test_assert
 260              	.LVL15:
 261 0050 0028     		cmp	r0, #0
 262 0052 F4D1     		bne	.L18
 263              	.LBB190:
 264              	.LBB191:
 265              		.loc 1 224 0
 266 0054 2146     		mov	r1, r4
 267 0056 2046     		mov	r0, r4
 268 0058 FFF7FEFF 		bl	chSemSignalWait
 269              	.LVL16:
 270              	.LBB192:
 271              	.LBB193:
 272              		.loc 3 587 0
 273 005c 2168     		ldr	r1, [r4]
 274              	.LBE193:
 275              	.LBE192:
 276              		.loc 1 225 0
 277 005e 0320     		movs	r0, #3
 278 0060 091B     		subs	r1, r1, r4
 279 0062 B1FA81F1 		clz	r1, r1
 280 0066 4909     		lsrs	r1, r1, #5
 281 0068 FFF7FEFF 		bl	_test_assert
 282              	.LVL17:
 283 006c 0028     		cmp	r0, #0
ARM GAS  C:\Users\jo\AppData\Local\Temp\ccpSQ3Dm.s 			page 6


 284 006e E6D1     		bne	.L18
 285              		.loc 1 226 0
 286 0070 A168     		ldr	r1, [r4, #8]
 287 0072 B1FA81F1 		clz	r1, r1
 288 0076 0420     		movs	r0, #4
 289 0078 4909     		lsrs	r1, r1, #5
 290              	.LBE191:
 291              	.LBE190:
 292              		.loc 1 227 0
 293 007a 02B0     		add	sp, sp, #8
 294              		.cfi_def_cfa_offset 8
 295              		@ sp needed
 296 007c BDE81040 		pop	{r4, lr}
 297              		.cfi_restore 14
 298              		.cfi_restore 4
 299              		.cfi_def_cfa_offset 0
 300              	.LBB195:
 301              	.LBB194:
 302              		.loc 1 226 0
 303 0080 FFF7FEBF 		b	_test_assert
 304              	.LVL18:
 305              	.L26:
 306              		.align	2
 307              	.L25:
 308 0084 00000000 		.word	ch
 309 0088 00000000 		.word	wa
 310 008c 00000000 		.word	thread3
 311 0090 00000000 		.word	.LANCHOR0
 312 0094 00000000 		.word	threads
 313              	.LBE194:
 314              	.LBE195:
 315              		.cfi_endproc
 316              	.LFE234:
 317              		.size	sem3_execute, .-sem3_execute
 318 0098 AFF30080 		.section	.text.thread4,"ax",%progbits
 318      AFF30080 
 319              		.align	2
 320              		.p2align 4,,15
 321              		.thumb
 322              		.thumb_func
 323              		.type	thread4, %function
 324              	thread4:
 325              	.LFB235:
 326              		.loc 1 244 0
 327              		.cfi_startproc
 328              		@ args = 0, pretend = 0, frame = 0
 329              		@ frame_needed = 0, uses_anonymous_args = 0
 330              	.LVL19:
 331 0000 10B5     		push	{r4, lr}
 332              		.cfi_def_cfa_offset 8
 333              		.cfi_offset 4, -8
 334              		.cfi_offset 14, -4
 335              	.LBB210:
 336              	.LBB211:
 337              	.LBB212:
 338              	.LBB213:
 339              	.LBB214:
ARM GAS  C:\Users\jo\AppData\Local\Temp\ccpSQ3Dm.s 			page 7


 340              	.LBB215:
 341              	.LBB216:
 342              		.file 4 "../../../os/ext/CMSIS/include/core_cmFunc.h"
 343              		.loc 4 546 0
 344 0002 2023     		movs	r3, #32
 345              	.LBE216:
 346              	.LBE215:
 347              	.LBE214:
 348              	.LBE213:
 349              	.LBE212:
 350              	.LBE211:
 351              	.LBE210:
 352              		.loc 1 244 0
 353 0004 0446     		mov	r4, r0
 354              	.LVL20:
 355              	.LBB233:
 356              	.LBB231:
 357              	.LBB221:
 358              	.LBB220:
 359              	.LBB219:
 360              	.LBB218:
 361              	.LBB217:
 362              		.loc 4 546 0
 363              	@ 546 "../../../os/ext/CMSIS/include/core_cmFunc.h" 1
 364 0006 83F31188 		MSR basepri, r3
 365              	@ 0 "" 2
 366              		.thumb
 367              	.LBE217:
 368              	.LBE218:
 369              	.LBE219:
 370              		.file 5 "../../../os/rt/include/chsys.h"
 371              		.loc 5 300 0
 372 000a FFF7FEFF 		bl	_stats_start_measure_crit_thd
 373              	.LVL21:
 374              		.loc 5 301 0
 375 000e FFF7FEFF 		bl	_dbg_check_lock
 376              	.LVL22:
 377              	.LBE220:
 378              	.LBE221:
 379              	.LBB222:
 380              	.LBB223:
 381              		.file 6 "../../../os/rt/include/chbsem.h"
 382              		.loc 6 268 0
 383 0012 FFF7FEFF 		bl	chDbgCheckClassI
 384              	.LVL23:
 385              		.loc 6 270 0
 386 0016 A368     		ldr	r3, [r4, #8]
 387 0018 002B     		cmp	r3, #0
 388 001a 17DD     		ble	.L31
 389              	.L28:
 390              	.LBE223:
 391              	.LBE222:
 392              		.loc 6 286 0
 393 001c FFF7FEFF 		bl	chSchRescheduleS
 394              	.LVL24:
 395              	.LBB225:
 396              	.LBB226:
ARM GAS  C:\Users\jo\AppData\Local\Temp\ccpSQ3Dm.s 			page 8


 397              		.loc 5 311 0
 398 0020 FFF7FEFF 		bl	_dbg_check_unlock
 399              	.LVL25:
 400              		.loc 5 312 0
 401 0024 FFF7FEFF 		bl	_stats_stop_measure_crit_thd
 402              	.LVL26:
 403              		.loc 5 318 0
 404 0028 0A4B     		ldr	r3, .L32
 405 002a 9A69     		ldr	r2, [r3, #24]
 406 002c 1B68     		ldr	r3, [r3]
 407 002e 9268     		ldr	r2, [r2, #8]
 408 0030 9B68     		ldr	r3, [r3, #8]
 409 0032 9A42     		cmp	r2, r3
 410 0034 06D2     		bcs	.L29
 411 0036 0848     		ldr	r0, .L32+4
 412 0038 FFF7FEFF 		bl	puts
 413              	.LVL27:
 414              	@ 318 "../../../os/rt/include/chsys.h" 1
 415 003c 00BE     		BKPT #0
 416              	
 417              	@ 0 "" 2
 418              		.thumb
 419 003e 0748     		ldr	r0, .L32+8
 420 0040 FFF7FEFF 		bl	chSysHalt
 421              	.LVL28:
 422              	.L29:
 423              	.LBB227:
 424              	.LBB228:
 425              	.LBB229:
 426              		.loc 4 546 0
 427 0044 0020     		movs	r0, #0
 428              	@ 546 "../../../os/ext/CMSIS/include/core_cmFunc.h" 1
 429 0046 80F31188 		MSR basepri, r0
 430              	@ 0 "" 2
 431              		.thumb
 432              	.LBE229:
 433              	.LBE228:
 434              	.LBE227:
 435              	.LBE226:
 436              	.LBE225:
 437              	.LBE231:
 438              	.LBE233:
 439              		.loc 1 248 0
 440 004a 10BD     		pop	{r4, pc}
 441              	.LVL29:
 442              	.L31:
 443              	.LBB234:
 444              	.LBB232:
 445              	.LBB230:
 446              	.LBB224:
 447              		.loc 6 271 0
 448 004c 2046     		mov	r0, r4
 449 004e FFF7FEFF 		bl	chSemSignalI
 450              	.LVL30:
 451 0052 E3E7     		b	.L28
 452              	.L33:
 453              		.align	2
ARM GAS  C:\Users\jo\AppData\Local\Temp\ccpSQ3Dm.s 			page 9


 454              	.L32:
 455 0054 00000000 		.word	ch
 456 0058 00000000 		.word	.LC0
 457 005c 00000000 		.word	.LANCHOR1
 458              	.LBE224:
 459              	.LBE230:
 460              	.LBE232:
 461              	.LBE234:
 462              		.cfi_endproc
 463              	.LFE235:
 464              		.size	thread4, .-thread4
 465              		.section	.text.thread2,"ax",%progbits
 466              		.align	2
 467              		.p2align 4,,15
 468              		.thumb
 469              		.thumb_func
 470              		.type	thread2, %function
 471              	thread2:
 472              	.LFB230:
 473              		.loc 1 134 0
 474              		.cfi_startproc
 475              		@ args = 0, pretend = 0, frame = 0
 476              		@ frame_needed = 0, uses_anonymous_args = 0
 477              	.LVL31:
 478 0000 08B5     		push	{r3, lr}
 479              		.cfi_def_cfa_offset 8
 480              		.cfi_offset 3, -8
 481              		.cfi_offset 14, -4
 482              		.loc 1 137 0
 483 0002 4FF4FA70 		mov	r0, #500
 484              	.LVL32:
 485 0006 FFF7FEFF 		bl	chThdSleep
 486              	.LVL33:
 487              	.LBB245:
 488              	.LBB246:
 489              	.LBB247:
 490              	.LBB248:
 491              	.LBB249:
 492              		.loc 4 546 0
 493 000a 2023     		movs	r3, #32
 494              	@ 546 "../../../os/ext/CMSIS/include/core_cmFunc.h" 1
 495 000c 83F31188 		MSR basepri, r3
 496              	@ 0 "" 2
 497              		.thumb
 498              	.LBE249:
 499              	.LBE248:
 500              	.LBE247:
 501              		.loc 5 300 0
 502 0010 FFF7FEFF 		bl	_stats_start_measure_crit_thd
 503              	.LVL34:
 504              		.loc 5 301 0
 505 0014 FFF7FEFF 		bl	_dbg_check_lock
 506              	.LVL35:
 507              	.LBE246:
 508              	.LBE245:
 509              		.loc 1 139 0
 510 0018 0D48     		ldr	r0, .L37
ARM GAS  C:\Users\jo\AppData\Local\Temp\ccpSQ3Dm.s 			page 10


 511 001a FFF7FEFF 		bl	chSemSignalI
 512              	.LVL36:
 513              		.loc 1 140 0
 514 001e FFF7FEFF 		bl	chSchRescheduleS
 515              	.LVL37:
 516              	.LBB250:
 517              	.LBB251:
 518              		.loc 5 311 0
 519 0022 FFF7FEFF 		bl	_dbg_check_unlock
 520              	.LVL38:
 521              		.loc 5 312 0
 522 0026 FFF7FEFF 		bl	_stats_stop_measure_crit_thd
 523              	.LVL39:
 524              		.loc 5 318 0
 525 002a 0A4B     		ldr	r3, .L37+4
 526 002c 9A69     		ldr	r2, [r3, #24]
 527 002e 1B68     		ldr	r3, [r3]
 528 0030 9268     		ldr	r2, [r2, #8]
 529 0032 9B68     		ldr	r3, [r3, #8]
 530 0034 9A42     		cmp	r2, r3
 531 0036 06D2     		bcs	.L35
 532 0038 0748     		ldr	r0, .L37+8
 533 003a FFF7FEFF 		bl	puts
 534              	.LVL40:
 535              	@ 318 "../../../os/rt/include/chsys.h" 1
 536 003e 00BE     		BKPT #0
 537              	
 538              	@ 0 "" 2
 539              		.thumb
 540 0040 0648     		ldr	r0, .L37+12
 541 0042 FFF7FEFF 		bl	chSysHalt
 542              	.LVL41:
 543              	.L35:
 544              	.LBB252:
 545              	.LBB253:
 546              	.LBB254:
 547              		.loc 4 546 0
 548 0046 0020     		movs	r0, #0
 549              	@ 546 "../../../os/ext/CMSIS/include/core_cmFunc.h" 1
 550 0048 80F31188 		MSR basepri, r0
 551              	@ 0 "" 2
 552              		.thumb
 553              	.LBE254:
 554              	.LBE253:
 555              	.LBE252:
 556              	.LBE251:
 557              	.LBE250:
 558              		.loc 1 143 0
 559 004c 08BD     		pop	{r3, pc}
 560              	.L38:
 561 004e 00BF     		.align	2
 562              	.L37:
 563 0050 00000000 		.word	.LANCHOR0
 564 0054 00000000 		.word	ch
 565 0058 00000000 		.word	.LC0
 566 005c 00000000 		.word	.LANCHOR1
 567              		.cfi_endproc
ARM GAS  C:\Users\jo\AppData\Local\Temp\ccpSQ3Dm.s 			page 11


 568              	.LFE230:
 569              		.size	thread2, .-thread2
 570              		.section	.text.sem1_execute,"ax",%progbits
 571              		.align	2
 572              		.p2align 4,,15
 573              		.thumb
 574              		.thumb_func
 575              		.type	sem1_execute, %function
 576              	sem1_execute:
 577              	.LFB228:
 578              		.loc 1 84 0
 579              		.cfi_startproc
 580              		@ args = 0, pretend = 0, frame = 0
 581              		@ frame_needed = 0, uses_anonymous_args = 0
 582 0000 2DE9F043 		push	{r4, r5, r6, r7, r8, r9, lr}
 583              		.cfi_def_cfa_offset 28
 584              		.cfi_offset 4, -28
 585              		.cfi_offset 5, -24
 586              		.cfi_offset 6, -20
 587              		.cfi_offset 7, -16
 588              		.cfi_offset 8, -12
 589              		.cfi_offset 9, -8
 590              		.cfi_offset 14, -4
 591              	.LBB306:
 592              	.LBB307:
 593              	.LBB308:
 594              	.LBB309:
 595              		.loc 2 179 0
 596 0004 5C4C     		ldr	r4, .L49
 597              	.LBE309:
 598              	.LBE308:
 599              	.LBE307:
 600              	.LBE306:
 601              		.loc 1 86 0
 602 0006 5D4F     		ldr	r7, .L49+4
 603              	.LBB311:
 604              	.LBB310:
 605              		.loc 2 192 0
 606 0008 A369     		ldr	r3, [r4, #24]
 607              	.LBE310:
 608              	.LBE311:
 609              		.loc 1 86 0
 610 000a D7F80080 		ldr	r8, [r7]
 611 000e 9A68     		ldr	r2, [r3, #8]
 612 0010 DFF89491 		ldr	r9, .L49+48
 613 0014 5A4B     		ldr	r3, .L49+8
 614 0016 5B4E     		ldr	r6, .L49+12
 615              		.loc 1 91 0
 616 0018 5B4D     		ldr	r5, .L49+16
 617              		.loc 1 84 0
 618 001a 83B0     		sub	sp, sp, #12
 619              		.cfi_def_cfa_offset 40
 620              		.loc 1 86 0
 621 001c 0532     		adds	r2, r2, #5
 622 001e 4FF4B471 		mov	r1, #360
 623 0022 CDF80090 		str	r9, [sp]
 624 0026 4046     		mov	r0, r8
ARM GAS  C:\Users\jo\AppData\Local\Temp\ccpSQ3Dm.s 			page 12


 625 0028 FFF7FEFF 		bl	chThdCreateStatic
 626              	.LVL42:
 627              	.LBB312:
 628              	.LBB313:
 629              		.loc 2 192 0
 630 002c A369     		ldr	r3, [r4, #24]
 631              	.LBE313:
 632              	.LBE312:
 633              		.loc 1 87 0
 634 002e 7968     		ldr	r1, [r7, #4]
 635 0030 9A68     		ldr	r2, [r3, #8]
 636 0032 564B     		ldr	r3, .L49+20
 637              		.loc 1 86 0
 638 0034 3060     		str	r0, [r6]
 639              		.loc 1 87 0
 640 0036 0132     		adds	r2, r2, #1
 641 0038 0846     		mov	r0, r1
 642 003a 0093     		str	r3, [sp]
 643 003c 4FF4B471 		mov	r1, #360
 644 0040 4F4B     		ldr	r3, .L49+8
 645 0042 FFF7FEFF 		bl	chThdCreateStatic
 646              	.LVL43:
 647              	.LBB314:
 648              	.LBB315:
 649              		.loc 2 192 0
 650 0046 A369     		ldr	r3, [r4, #24]
 651              	.LBE315:
 652              	.LBE314:
 653              		.loc 1 88 0
 654 0048 B968     		ldr	r1, [r7, #8]
 655 004a 9A68     		ldr	r2, [r3, #8]
 656 004c 504B     		ldr	r3, .L49+24
 657              		.loc 1 87 0
 658 004e 7060     		str	r0, [r6, #4]
 659              		.loc 1 88 0
 660 0050 0332     		adds	r2, r2, #3
 661 0052 0846     		mov	r0, r1
 662 0054 0093     		str	r3, [sp]
 663 0056 4FF4B471 		mov	r1, #360
 664 005a 494B     		ldr	r3, .L49+8
 665 005c FFF7FEFF 		bl	chThdCreateStatic
 666              	.LVL44:
 667              	.LBB316:
 668              	.LBB317:
 669              		.loc 2 192 0
 670 0060 A369     		ldr	r3, [r4, #24]
 671              	.LBE317:
 672              	.LBE316:
 673              		.loc 1 89 0
 674 0062 F968     		ldr	r1, [r7, #12]
 675 0064 9A68     		ldr	r2, [r3, #8]
 676 0066 4B4B     		ldr	r3, .L49+28
 677              		.loc 1 88 0
 678 0068 B060     		str	r0, [r6, #8]
 679              		.loc 1 89 0
 680 006a 0432     		adds	r2, r2, #4
 681 006c 0846     		mov	r0, r1
ARM GAS  C:\Users\jo\AppData\Local\Temp\ccpSQ3Dm.s 			page 13


 682 006e 0093     		str	r3, [sp]
 683 0070 4FF4B471 		mov	r1, #360
 684 0074 424B     		ldr	r3, .L49+8
 685 0076 FFF7FEFF 		bl	chThdCreateStatic
 686              	.LVL45:
 687              	.LBB318:
 688              	.LBB319:
 689              		.loc 2 192 0
 690 007a A369     		ldr	r3, [r4, #24]
 691              	.LBE319:
 692              	.LBE318:
 693              		.loc 1 90 0
 694 007c 3969     		ldr	r1, [r7, #16]
 695 007e 9A68     		ldr	r2, [r3, #8]
 696 0080 454B     		ldr	r3, .L49+32
 697              		.loc 1 89 0
 698 0082 F060     		str	r0, [r6, #12]
 699              		.loc 1 90 0
 700 0084 0232     		adds	r2, r2, #2
 701 0086 0846     		mov	r0, r1
 702 0088 0093     		str	r3, [sp]
 703 008a 4FF4B471 		mov	r1, #360
 704 008e 3C4B     		ldr	r3, .L49+8
 705 0090 FFF7FEFF 		bl	chThdCreateStatic
 706              	.LVL46:
 707 0094 3061     		str	r0, [r6, #16]
 708              		.loc 1 91 0
 709 0096 2846     		mov	r0, r5
 710 0098 FFF7FEFF 		bl	chSemSignal
 711              	.LVL47:
 712              		.loc 1 92 0
 713 009c 2846     		mov	r0, r5
 714 009e FFF7FEFF 		bl	chSemSignal
 715              	.LVL48:
 716              		.loc 1 93 0
 717 00a2 2846     		mov	r0, r5
 718 00a4 FFF7FEFF 		bl	chSemSignal
 719              	.LVL49:
 720              		.loc 1 94 0
 721 00a8 2846     		mov	r0, r5
 722 00aa FFF7FEFF 		bl	chSemSignal
 723              	.LVL50:
 724              		.loc 1 95 0
 725 00ae 2846     		mov	r0, r5
 726 00b0 FFF7FEFF 		bl	chSemSignal
 727              	.LVL51:
 728              		.loc 1 96 0
 729 00b4 FFF7FEFF 		bl	test_wait_threads
 730              	.LVL52:
 731              		.loc 1 100 0
 732 00b8 0120     		movs	r0, #1
 733 00ba 3849     		ldr	r1, .L49+36
 734 00bc FFF7FEFF 		bl	_test_assert_sequence
 735              	.LVL53:
 736 00c0 10B1     		cbz	r0, .L48
 737              		.loc 1 109 0
 738 00c2 03B0     		add	sp, sp, #12
ARM GAS  C:\Users\jo\AppData\Local\Temp\ccpSQ3Dm.s 			page 14


 739              		.cfi_remember_state
 740              		.cfi_def_cfa_offset 28
 741              		@ sp needed
 742 00c4 BDE8F083 		pop	{r4, r5, r6, r7, r8, r9, pc}
 743              	.L48:
 744              		.cfi_restore_state
 745              	.LBB320:
 746              	.LBB321:
 747              		.loc 2 192 0
 748 00c8 A269     		ldr	r2, [r4, #24]
 749              	.LBE321:
 750              	.LBE320:
 751              		.loc 1 102 0
 752 00ca 2D4B     		ldr	r3, .L49+8
 753 00cc 9268     		ldr	r2, [r2, #8]
 754 00ce CDF80090 		str	r9, [sp]
 755 00d2 4046     		mov	r0, r8
 756 00d4 0532     		adds	r2, r2, #5
 757 00d6 4FF4B471 		mov	r1, #360
 758 00da FFF7FEFF 		bl	chThdCreateStatic
 759              	.LVL54:
 760              	.LBB322:
 761              	.LBB323:
 762              	.LBB324:
 763              	.LBB325:
 764              	.LBB326:
 765              		.loc 4 546 0
 766 00de 2023     		movs	r3, #32
 767              	.LBE326:
 768              	.LBE325:
 769              	.LBE324:
 770              	.LBE323:
 771              	.LBE322:
 772              		.loc 1 102 0
 773 00e0 3060     		str	r0, [r6]
 774              	.LVL55:
 775              	.LBB331:
 776              	.LBB330:
 777              	.LBB329:
 778              	.LBB328:
 779              	.LBB327:
 780              		.loc 4 546 0
 781              	@ 546 "../../../os/ext/CMSIS/include/core_cmFunc.h" 1
 782 00e2 83F31188 		MSR basepri, r3
 783              	@ 0 "" 2
 784              		.thumb
 785              	.LBE327:
 786              	.LBE328:
 787              	.LBE329:
 788              		.loc 5 300 0
 789 00e6 FFF7FEFF 		bl	_stats_start_measure_crit_thd
 790              	.LVL56:
 791              		.loc 5 301 0
 792 00ea FFF7FEFF 		bl	_dbg_check_lock
 793              	.LVL57:
 794              	.LBE330:
 795              	.LBE331:
ARM GAS  C:\Users\jo\AppData\Local\Temp\ccpSQ3Dm.s 			page 15


 796              		.loc 1 104 0
 797 00ee 2846     		mov	r0, r5
 798 00f0 0221     		movs	r1, #2
 799 00f2 FFF7FEFF 		bl	chSemAddCounterI
 800              	.LVL58:
 801              		.loc 1 105 0
 802 00f6 FFF7FEFF 		bl	chSchRescheduleS
 803              	.LVL59:
 804              	.LBB332:
 805              	.LBB333:
 806              		.loc 5 311 0
 807 00fa FFF7FEFF 		bl	_dbg_check_unlock
 808              	.LVL60:
 809              		.loc 5 312 0
 810 00fe FFF7FEFF 		bl	_stats_stop_measure_crit_thd
 811              	.LVL61:
 812              		.loc 5 318 0
 813 0102 A269     		ldr	r2, [r4, #24]
 814 0104 2368     		ldr	r3, [r4]
 815 0106 9268     		ldr	r2, [r2, #8]
 816 0108 9B68     		ldr	r3, [r3, #8]
 817 010a 9A42     		cmp	r2, r3
 818 010c 06D2     		bcs	.L41
 819 010e 2448     		ldr	r0, .L49+40
 820 0110 FFF7FEFF 		bl	puts
 821              	.LVL62:
 822              	@ 318 "../../../os/rt/include/chsys.h" 1
 823 0114 00BE     		BKPT #0
 824              	
 825              	@ 0 "" 2
 826              		.thumb
 827 0116 2348     		ldr	r0, .L49+44
 828 0118 FFF7FEFF 		bl	chSysHalt
 829              	.LVL63:
 830              	.L41:
 831              	.LBB334:
 832              	.LBB335:
 833              	.LBB336:
 834              		.loc 4 546 0
 835 011c 0023     		movs	r3, #0
 836              	@ 546 "../../../os/ext/CMSIS/include/core_cmFunc.h" 1
 837 011e 83F31188 		MSR basepri, r3
 838              	@ 0 "" 2
 839              		.thumb
 840              	.LBE336:
 841              	.LBE335:
 842              	.LBE334:
 843              	.LBE333:
 844              	.LBE332:
 845              		.loc 1 107 0
 846 0122 FFF7FEFF 		bl	test_wait_threads
 847              	.LVL64:
 848              	.LBB337:
 849              	.LBB338:
 850              	.LBB339:
 851              	.LBB340:
 852              	.LBB341:
ARM GAS  C:\Users\jo\AppData\Local\Temp\ccpSQ3Dm.s 			page 16


 853              		.loc 4 546 0
 854 0126 2023     		movs	r3, #32
 855              	@ 546 "../../../os/ext/CMSIS/include/core_cmFunc.h" 1
 856 0128 83F31188 		MSR basepri, r3
 857              	@ 0 "" 2
 858              		.thumb
 859              	.LBE341:
 860              	.LBE340:
 861              	.LBE339:
 862              		.loc 5 300 0
 863 012c FFF7FEFF 		bl	_stats_start_measure_crit_thd
 864              	.LVL65:
 865              		.loc 5 301 0
 866 0130 FFF7FEFF 		bl	_dbg_check_lock
 867              	.LVL66:
 868              	.LBE338:
 869              	.LBE337:
 870              	.LBB342:
 871              	.LBB343:
 872              		.file 7 "../../../os/rt/include/chsem.h"
 873              		.loc 7 151 0
 874 0134 FFF7FEFF 		bl	chDbgCheckClassI
 875              	.LVL67:
 876              	.LBE343:
 877              	.LBE342:
 878              		.loc 1 108 0
 879 0138 A968     		ldr	r1, [r5, #8]
 880 013a 0220     		movs	r0, #2
 881 013c A1F10101 		sub	r1, #1
 882 0140 B1FA81F1 		clz	r1, r1
 883 0144 4909     		lsrs	r1, r1, #5
 884 0146 FFF7FEFF 		bl	_test_assert
 885              	.LVL68:
 886              	.LBB344:
 887              	.LBB345:
 888              		.loc 5 311 0
 889 014a FFF7FEFF 		bl	_dbg_check_unlock
 890              	.LVL69:
 891              		.loc 5 312 0
 892 014e FFF7FEFF 		bl	_stats_stop_measure_crit_thd
 893              	.LVL70:
 894              		.loc 5 318 0
 895 0152 A269     		ldr	r2, [r4, #24]
 896 0154 2368     		ldr	r3, [r4]
 897 0156 9268     		ldr	r2, [r2, #8]
 898 0158 9B68     		ldr	r3, [r3, #8]
 899 015a 9A42     		cmp	r2, r3
 900 015c 06D2     		bcs	.L44
 901 015e 1048     		ldr	r0, .L49+40
 902 0160 FFF7FEFF 		bl	puts
 903              	.LVL71:
 904              	@ 318 "../../../os/rt/include/chsys.h" 1
 905 0164 00BE     		BKPT #0
 906              	
 907              	@ 0 "" 2
 908              		.thumb
 909 0166 0F48     		ldr	r0, .L49+44
ARM GAS  C:\Users\jo\AppData\Local\Temp\ccpSQ3Dm.s 			page 17


 910 0168 FFF7FEFF 		bl	chSysHalt
 911              	.LVL72:
 912              	.L44:
 913              	.LBB346:
 914              	.LBB347:
 915              	.LBB348:
 916              		.loc 4 546 0
 917 016c 0023     		movs	r3, #0
 918              	@ 546 "../../../os/ext/CMSIS/include/core_cmFunc.h" 1
 919 016e 83F31188 		MSR basepri, r3
 920              	@ 0 "" 2
 921              		.thumb
 922              	.LBE348:
 923              	.LBE347:
 924              	.LBE346:
 925              	.LBE345:
 926              	.LBE344:
 927              		.loc 1 109 0
 928 0172 03B0     		add	sp, sp, #12
 929              		.cfi_def_cfa_offset 28
 930              		@ sp needed
 931 0174 BDE8F083 		pop	{r4, r5, r6, r7, r8, r9, pc}
 932              	.L50:
 933              		.align	2
 934              	.L49:
 935 0178 00000000 		.word	ch
 936 017c 00000000 		.word	wa
 937 0180 00000000 		.word	thread1
 938 0184 00000000 		.word	threads
 939 0188 00000000 		.word	.LANCHOR0
 940 018c 2C000000 		.word	.LC2
 941 0190 30000000 		.word	.LC3
 942 0194 34000000 		.word	.LC4
 943 0198 38000000 		.word	.LC5
 944 019c 3C000000 		.word	.LC6
 945 01a0 00000000 		.word	.LC0
 946 01a4 00000000 		.word	.LANCHOR1
 947 01a8 28000000 		.word	.LC1
 948              		.cfi_endproc
 949              	.LFE228:
 950              		.size	sem1_execute, .-sem1_execute
 951 01ac AFF30080 		.section	.text.sem2_execute,"ax",%progbits
 952              		.align	2
 953              		.p2align 4,,15
 954              		.thumb
 955              		.thumb_func
 956              		.type	sem2_execute, %function
 957              	sem2_execute:
 958              	.LFB231:
 959              		.loc 1 145 0
 960              		.cfi_startproc
 961              		@ args = 0, pretend = 0, frame = 0
 962              		@ frame_needed = 0, uses_anonymous_args = 0
 963 0000 70B5     		push	{r4, r5, r6, lr}
 964              		.cfi_def_cfa_offset 16
 965              		.cfi_offset 4, -16
 966              		.cfi_offset 5, -12
ARM GAS  C:\Users\jo\AppData\Local\Temp\ccpSQ3Dm.s 			page 18


 967              		.cfi_offset 6, -8
 968              		.cfi_offset 14, -4
 969              		.loc 1 153 0
 970 0002 5A4C     		ldr	r4, .L60
 971              		.loc 1 145 0
 972 0004 82B0     		sub	sp, sp, #8
 973              		.cfi_def_cfa_offset 24
 974              		.loc 1 153 0
 975 0006 0021     		movs	r1, #0
 976 0008 2046     		mov	r0, r4
 977 000a FFF7FEFF 		bl	chSemWaitTimeout
 978              	.LVL73:
 979              		.loc 1 154 0
 980 000e A0F1FF31 		sub	r1, r0, #-1
 981 0012 0120     		movs	r0, #1
 982              	.LVL74:
 983 0014 B1FA81F1 		clz	r1, r1
 984              	.LVL75:
 985 0018 4909     		lsrs	r1, r1, #5
 986 001a FFF7FEFF 		bl	_test_assert
 987              	.LVL76:
 988 001e 08B1     		cbz	r0, .L59
 989              	.L51:
 990              		.loc 1 183 0
 991 0020 02B0     		add	sp, sp, #8
 992              		.cfi_remember_state
 993              		.cfi_def_cfa_offset 16
 994              		@ sp needed
 995 0022 70BD     		pop	{r4, r5, r6, pc}
 996              	.L59:
 997              		.cfi_restore_state
 998              	.LVL77:
 999              	.LBB379:
 1000              	.LBB380:
 1001              		.loc 3 587 0
 1002 0024 2168     		ldr	r1, [r4]
 1003              	.LBE380:
 1004              	.LBE379:
 1005              		.loc 1 155 0
 1006 0026 0220     		movs	r0, #2
 1007 0028 091B     		subs	r1, r1, r4
 1008 002a B1FA81F1 		clz	r1, r1
 1009 002e 4909     		lsrs	r1, r1, #5
 1010 0030 FFF7FEFF 		bl	_test_assert
 1011              	.LVL78:
 1012 0034 0028     		cmp	r0, #0
 1013 0036 F3D1     		bne	.L51
 1014              		.loc 1 156 0
 1015 0038 A168     		ldr	r1, [r4, #8]
 1016 003a B1FA81F1 		clz	r1, r1
 1017 003e 0320     		movs	r0, #3
 1018 0040 4909     		lsrs	r1, r1, #5
 1019 0042 FFF7FEFF 		bl	_test_assert
 1020              	.LVL79:
 1021 0046 0028     		cmp	r0, #0
 1022 0048 EAD1     		bne	.L51
 1023              	.LBB381:
ARM GAS  C:\Users\jo\AppData\Local\Temp\ccpSQ3Dm.s 			page 19


 1024              	.LBB382:
 1025              	.LBB383:
 1026              	.LBB384:
 1027              	.LBB385:
 1028              	.LBB386:
 1029              		.loc 2 179 0
 1030 004a 494D     		ldr	r5, .L60+4
 1031              	.LBE386:
 1032              	.LBE385:
 1033              	.LBE384:
 1034              	.LBE383:
 1035              		.loc 1 161 0
 1036 004c 494A     		ldr	r2, .L60+8
 1037              	.LBB388:
 1038              	.LBB387:
 1039              		.loc 2 192 0
 1040 004e AB69     		ldr	r3, [r5, #24]
 1041              	.LBE387:
 1042              	.LBE388:
 1043              		.loc 1 161 0
 1044 0050 1168     		ldr	r1, [r2]
 1045 0052 9A68     		ldr	r2, [r3, #8]
 1046 0054 484B     		ldr	r3, .L60+12
 1047 0056 0090     		str	r0, [sp]
 1048 0058 013A     		subs	r2, r2, #1
 1049 005a 0846     		mov	r0, r1
 1050 005c 4FF4B471 		mov	r1, #360
 1051 0060 FFF7FEFF 		bl	chThdCreateStatic
 1052              	.LVL80:
 1053 0064 454B     		ldr	r3, .L60+16
 1054              		.loc 1 163 0
 1055 0066 41F28831 		movw	r1, #5000
 1056              		.loc 1 161 0
 1057 006a 1860     		str	r0, [r3]
 1058              		.loc 1 163 0
 1059 006c 2046     		mov	r0, r4
 1060 006e FFF7FEFF 		bl	chSemWaitTimeout
 1061              	.LVL81:
 1062 0072 0646     		mov	r6, r0
 1063              	.LVL82:
 1064              		.loc 1 164 0
 1065 0074 FFF7FEFF 		bl	test_wait_threads
 1066              	.LVL83:
 1067              		.loc 1 165 0
 1068 0078 B6FA86F1 		clz	r1, r6
 1069 007c 0420     		movs	r0, #4
 1070 007e 4909     		lsrs	r1, r1, #5
 1071 0080 FFF7FEFF 		bl	_test_assert
 1072              	.LVL84:
 1073 0084 0028     		cmp	r0, #0
 1074 0086 CBD1     		bne	.L51
 1075              	.LVL85:
 1076              	.LBB389:
 1077              	.LBB390:
 1078              		.loc 3 587 0
 1079 0088 2168     		ldr	r1, [r4]
 1080              	.LBE390:
ARM GAS  C:\Users\jo\AppData\Local\Temp\ccpSQ3Dm.s 			page 20


 1081              	.LBE389:
 1082              		.loc 1 166 0
 1083 008a 0520     		movs	r0, #5
 1084 008c 091B     		subs	r1, r1, r4
 1085 008e B1FA81F1 		clz	r1, r1
 1086 0092 4909     		lsrs	r1, r1, #5
 1087 0094 FFF7FEFF 		bl	_test_assert
 1088              	.LVL86:
 1089 0098 0028     		cmp	r0, #0
 1090 009a C1D1     		bne	.L51
 1091              		.loc 1 167 0
 1092 009c A168     		ldr	r1, [r4, #8]
 1093 009e B1FA81F1 		clz	r1, r1
 1094 00a2 0620     		movs	r0, #6
 1095 00a4 4909     		lsrs	r1, r1, #5
 1096 00a6 FFF7FEFF 		bl	_test_assert
 1097              	.LVL87:
 1098 00aa 0028     		cmp	r0, #0
 1099 00ac B8D1     		bne	.L51
 1100              		.loc 1 172 0
 1101 00ae FFF7FEFF 		bl	test_wait_tick
 1102              	.LVL88:
 1103              	.LBB391:
 1104              	.LBB392:
 1105              	.LBB393:
 1106              	.LBB394:
 1107              	.LBB395:
 1108              	.LBB396:
 1109              	.LBB397:
 1110              		.loc 4 546 0
 1111 00b2 2023     		movs	r3, #32
 1112              	@ 546 "../../../os/ext/CMSIS/include/core_cmFunc.h" 1
 1113 00b4 83F31188 		MSR basepri, r3
 1114              	@ 0 "" 2
 1115              		.thumb
 1116              	.LBE397:
 1117              	.LBE396:
 1118              	.LBE395:
 1119              		.loc 5 300 0
 1120 00b8 FFF7FEFF 		bl	_stats_start_measure_crit_thd
 1121              	.LVL89:
 1122              		.loc 5 301 0
 1123 00bc FFF7FEFF 		bl	_dbg_check_lock
 1124              	.LVL90:
 1125              	.LBE394:
 1126              	.LBE393:
 1127              	.LBB398:
 1128              	.LBB399:
 1129              	.LBB400:
 1130              	.LBB401:
 1131              		.file 8 "../../../os/hal/ports/STM32/LLD/TIMv1/st_lld.h"
 1132              		.loc 8 128 0
 1133 00c0 4FF08043 		mov	r3, #1073741824
 1134 00c4 5E6A     		ldr	r6, [r3, #36]
 1135              	.LVL91:
 1136              	.LBE401:
 1137              	.LBE400:
ARM GAS  C:\Users\jo\AppData\Local\Temp\ccpSQ3Dm.s 			page 21


 1138              	.LBE399:
 1139              	.LBE398:
 1140              	.LBB402:
 1141              	.LBB403:
 1142              		.loc 5 311 0
 1143 00c6 FFF7FEFF 		bl	_dbg_check_unlock
 1144              	.LVL92:
 1145              		.loc 5 312 0
 1146 00ca FFF7FEFF 		bl	_stats_stop_measure_crit_thd
 1147              	.LVL93:
 1148              		.loc 5 318 0
 1149 00ce AA69     		ldr	r2, [r5, #24]
 1150 00d0 2B68     		ldr	r3, [r5]
 1151 00d2 9268     		ldr	r2, [r2, #8]
 1152 00d4 9B68     		ldr	r3, [r3, #8]
 1153 00d6 9A42     		cmp	r2, r3
 1154 00d8 06D2     		bcs	.L55
 1155 00da 2948     		ldr	r0, .L60+20
 1156 00dc FFF7FEFF 		bl	puts
 1157              	.LVL94:
 1158              	@ 318 "../../../os/rt/include/chsys.h" 1
 1159 00e0 00BE     		BKPT #0
 1160              	
 1161              	@ 0 "" 2
 1162              		.thumb
 1163 00e2 2848     		ldr	r0, .L60+24
 1164 00e4 FFF7FEFF 		bl	chSysHalt
 1165              	.LVL95:
 1166              	.L55:
 1167              	.LBB404:
 1168              	.LBB405:
 1169              	.LBB406:
 1170              		.loc 4 546 0
 1171 00e8 0023     		movs	r3, #0
 1172              	@ 546 "../../../os/ext/CMSIS/include/core_cmFunc.h" 1
 1173 00ea 83F31188 		MSR basepri, r3
 1174              	@ 0 "" 2
 1175              	.LVL96:
 1176              		.thumb
 1177              	.LBE406:
 1178              	.LBE405:
 1179              	.LBE404:
 1180              	.LBE403:
 1181              	.LBE402:
 1182              	.LBE392:
 1183              	.LBE391:
 1184              		.loc 1 176 0
 1185 00ee 1F4D     		ldr	r5, .L60
 1186              	.LBB413:
 1187              	.LBB412:
 1188              	.LBB411:
 1189              	.LBB410:
 1190              	.LBB409:
 1191              	.LBB408:
 1192              	.LBB407:
 1193              		.loc 4 546 0
 1194 00f0 4124     		movs	r4, #65
ARM GAS  C:\Users\jo\AppData\Local\Temp\ccpSQ3Dm.s 			page 22


 1195              	.LVL97:
 1196              	.L56:
 1197              	.LBE407:
 1198              	.LBE408:
 1199              	.LBE409:
 1200              	.LBE410:
 1201              	.LBE411:
 1202              	.LBE412:
 1203              	.LBE413:
 1204              		.loc 1 175 0
 1205 00f2 2046     		mov	r0, r4
 1206 00f4 FFF7FEFF 		bl	test_emit_token
 1207              	.LVL98:
 1208              		.loc 1 176 0
 1209 00f8 4FF4FA71 		mov	r1, #500
 1210 00fc 1B48     		ldr	r0, .L60
 1211 00fe FFF7FEFF 		bl	chSemWaitTimeout
 1212              	.LVL99:
 1213              		.loc 1 177 0
 1214 0102 A0F1FF31 		sub	r1, r0, #-1
 1215 0106 0720     		movs	r0, #7
 1216              	.LVL100:
 1217 0108 B1FA81F1 		clz	r1, r1
 1218              	.LVL101:
 1219 010c 4909     		lsrs	r1, r1, #5
 1220 010e FFF7FEFF 		bl	_test_assert
 1221              	.LVL102:
 1222 0112 0028     		cmp	r0, #0
 1223 0114 84D1     		bne	.L51
 1224              	.LBB414:
 1225              	.LBB415:
 1226              		.loc 3 587 0
 1227 0116 2968     		ldr	r1, [r5]
 1228              	.LBE415:
 1229              	.LBE414:
 1230              		.loc 1 178 0
 1231 0118 0820     		movs	r0, #8
 1232 011a 491B     		subs	r1, r1, r5
 1233 011c B1FA81F1 		clz	r1, r1
 1234 0120 4909     		lsrs	r1, r1, #5
 1235 0122 FFF7FEFF 		bl	_test_assert
 1236              	.LVL103:
 1237 0126 0028     		cmp	r0, #0
 1238 0128 7FF47AAF 		bne	.L51
 1239              		.loc 1 179 0
 1240 012c A968     		ldr	r1, [r5, #8]
 1241 012e B1FA81F1 		clz	r1, r1
 1242 0132 0920     		movs	r0, #9
 1243 0134 4909     		lsrs	r1, r1, #5
 1244 0136 FFF7FEFF 		bl	_test_assert
 1245              	.LVL104:
 1246 013a 0134     		adds	r4, r4, #1
 1247 013c E4B2     		uxtb	r4, r4
 1248 013e 0028     		cmp	r0, #0
 1249 0140 7FF46EAF 		bne	.L51
 1250              		.loc 1 174 0
 1251 0144 462C     		cmp	r4, #70
ARM GAS  C:\Users\jo\AppData\Local\Temp\ccpSQ3Dm.s 			page 23


 1252 0146 D4D1     		bne	.L56
 1253              		.loc 1 181 0
 1254 0148 0A20     		movs	r0, #10
 1255 014a 0F49     		ldr	r1, .L60+28
 1256 014c FFF7FEFF 		bl	_test_assert_sequence
 1257              	.LVL105:
 1258 0150 0028     		cmp	r0, #0
 1259 0152 7FF465AF 		bne	.L51
 1260              		.loc 1 182 0
 1261 0156 0B20     		movs	r0, #11
 1262 0158 06F6C411 		addw	r1, r6, #2500
 1263 015c 06F6D812 		addw	r2, r6, #2520
 1264              	.LBE382:
 1265              	.LBE381:
 1266              		.loc 1 183 0
 1267 0160 02B0     		add	sp, sp, #8
 1268              		.cfi_def_cfa_offset 16
 1269              		@ sp needed
 1270 0162 BDE87040 		pop	{r4, r5, r6, lr}
 1271              		.cfi_restore 14
 1272              		.cfi_restore 6
 1273              		.cfi_restore 5
 1274              		.cfi_restore 4
 1275              		.cfi_def_cfa_offset 0
 1276              	.LVL106:
 1277              	.LBB417:
 1278              	.LBB416:
 1279              		.loc 1 182 0
 1280 0166 FFF7FEBF 		b	_test_assert_time_window
 1281              	.LVL107:
 1282              	.L61:
 1283 016a 00BF     		.align	2
 1284              	.L60:
 1285 016c 00000000 		.word	.LANCHOR0
 1286 0170 00000000 		.word	ch
 1287 0174 00000000 		.word	wa
 1288 0178 00000000 		.word	thread2
 1289 017c 00000000 		.word	threads
 1290 0180 00000000 		.word	.LC0
 1291 0184 00000000 		.word	.LANCHOR1
 1292 0188 3C000000 		.word	.LC6
 1293              	.LBE416:
 1294              	.LBE417:
 1295              		.cfi_endproc
 1296              	.LFE231:
 1297              		.size	sem2_execute, .-sem2_execute
 1298 018c AFF30080 		.section	.text.sem4_execute,"ax",%progbits
 1299              		.align	2
 1300              		.p2align 4,,15
 1301              		.thumb
 1302              		.thumb_func
 1303              		.type	sem4_execute, %function
 1304              	sem4_execute:
 1305              	.LFB236:
 1306              		.loc 1 250 0
 1307              		.cfi_startproc
 1308              		@ args = 0, pretend = 0, frame = 16
ARM GAS  C:\Users\jo\AppData\Local\Temp\ccpSQ3Dm.s 			page 24


 1309              		@ frame_needed = 0, uses_anonymous_args = 0
 1310 0000 30B5     		push	{r4, r5, lr}
 1311              		.cfi_def_cfa_offset 12
 1312              		.cfi_offset 4, -12
 1313              		.cfi_offset 5, -8
 1314              		.cfi_offset 14, -4
 1315 0002 87B0     		sub	sp, sp, #28
 1316              		.cfi_def_cfa_offset 40
 1317              	.LVL108:
 1318              	.LBB558:
 1319              	.LBB559:
 1320              		.loc 6 126 0
 1321 0004 03A8     		add	r0, sp, #12
 1322              	.LVL109:
 1323 0006 0021     		movs	r1, #0
 1324 0008 FFF7FEFF 		bl	chSemObjectInit
 1325              	.LVL110:
 1326              	.LBE559:
 1327              	.LBE558:
 1328              	.LBB560:
 1329              	.LBB561:
 1330              		.loc 6 255 0
 1331 000c 03A8     		add	r0, sp, #12
 1332              	.LVL111:
 1333 000e 0021     		movs	r1, #0
 1334 0010 FFF7FEFF 		bl	chSemReset
 1335              	.LVL112:
 1336              	.LBE561:
 1337              	.LBE560:
 1338              	.LBB562:
 1339              	.LBB563:
 1340              	.LBB564:
 1341              	.LBB565:
 1342              	.LBB566:
 1343              		.loc 4 546 0
 1344 0014 2023     		movs	r3, #32
 1345              	@ 546 "../../../os/ext/CMSIS/include/core_cmFunc.h" 1
 1346 0016 83F31188 		MSR basepri, r3
 1347              	@ 0 "" 2
 1348              		.thumb
 1349              	.LBE566:
 1350              	.LBE565:
 1351              	.LBE564:
 1352              		.loc 5 300 0
 1353 001a FFF7FEFF 		bl	_stats_start_measure_crit_thd
 1354              	.LVL113:
 1355              		.loc 5 301 0
 1356 001e FFF7FEFF 		bl	_dbg_check_lock
 1357              	.LVL114:
 1358              	.LBE563:
 1359              	.LBE562:
 1360              	.LBB567:
 1361              	.LBB568:
 1362              		.loc 6 302 0
 1363 0022 FFF7FEFF 		bl	chDbgCheckClassI
 1364              	.LVL115:
 1365              		.loc 6 304 0
ARM GAS  C:\Users\jo\AppData\Local\Temp\ccpSQ3Dm.s 			page 25


 1366 0026 0599     		ldr	r1, [sp, #20]
 1367              	.LBE568:
 1368              	.LBE567:
 1369              		.loc 1 256 0
 1370 0028 0029     		cmp	r1, #0
 1371 002a CCBF     		ite	gt
 1372 002c 0021     		movgt	r1, #0
 1373 002e 0121     		movle	r1, #1
 1374 0030 0120     		movs	r0, #1
 1375 0032 FFF7FEFF 		bl	_test_assert
 1376              	.LVL116:
 1377 0036 78B1     		cbz	r0, .L63
 1378              	.LBB569:
 1379              	.LBB570:
 1380              		.loc 5 311 0
 1381 0038 FFF7FEFF 		bl	_dbg_check_unlock
 1382              	.LVL117:
 1383              		.loc 5 312 0
 1384 003c FFF7FEFF 		bl	_stats_stop_measure_crit_thd
 1385              	.LVL118:
 1386              		.loc 5 318 0
 1387 0040 AE4B     		ldr	r3, .L101
 1388 0042 9A69     		ldr	r2, [r3, #24]
 1389 0044 1B68     		ldr	r3, [r3]
 1390 0046 9268     		ldr	r2, [r2, #8]
 1391 0048 9B68     		ldr	r3, [r3, #8]
 1392 004a 9A42     		cmp	r2, r3
 1393 004c 41D3     		bcc	.L88
 1394              	.L85:
 1395              	.LVL119:
 1396              	.LBE570:
 1397              	.LBE569:
 1398              	.LBB571:
 1399              	.LBB572:
 1400              	.LBB573:
 1401              	.LBB574:
 1402              	.LBB575:
 1403              		.loc 4 546 0
 1404 004e 0023     		movs	r3, #0
 1405              	@ 546 "../../../os/ext/CMSIS/include/core_cmFunc.h" 1
 1406 0050 83F31188 		MSR basepri, r3
 1407              	@ 0 "" 2
 1408              		.thumb
 1409              	.LBE575:
 1410              	.LBE574:
 1411              	.LBE573:
 1412              	.LBE572:
 1413              	.LBE571:
 1414              		.loc 1 278 0
 1415 0054 07B0     		add	sp, sp, #28
 1416              		.cfi_remember_state
 1417              		.cfi_def_cfa_offset 12
 1418              		@ sp needed
 1419 0056 30BD     		pop	{r4, r5, pc}
 1420              	.LVL120:
 1421              	.L63:
 1422              		.cfi_restore_state
ARM GAS  C:\Users\jo\AppData\Local\Temp\ccpSQ3Dm.s 			page 26


 1423              	.LBB584:
 1424              	.LBB585:
 1425              		.loc 5 318 0
 1426 0058 A84C     		ldr	r4, .L101
 1427              		.loc 5 311 0
 1428 005a FFF7FEFF 		bl	_dbg_check_unlock
 1429              	.LVL121:
 1430              		.loc 5 312 0
 1431 005e FFF7FEFF 		bl	_stats_stop_measure_crit_thd
 1432              	.LVL122:
 1433              		.loc 5 318 0
 1434 0062 A269     		ldr	r2, [r4, #24]
 1435 0064 2368     		ldr	r3, [r4]
 1436 0066 9268     		ldr	r2, [r2, #8]
 1437 0068 9B68     		ldr	r3, [r3, #8]
 1438 006a 9A42     		cmp	r2, r3
 1439 006c C0F01681 		bcc	.L94
 1440              	.L66:
 1441              	.LVL123:
 1442              	.LBB586:
 1443              	.LBB587:
 1444              	.LBB588:
 1445              		.loc 4 546 0
 1446 0070 0023     		movs	r3, #0
 1447              	@ 546 "../../../os/ext/CMSIS/include/core_cmFunc.h" 1
 1448 0072 83F31188 		MSR basepri, r3
 1449              	@ 0 "" 2
 1450              		.thumb
 1451              	.LBE588:
 1452              	.LBE587:
 1453              	.LBE586:
 1454              	.LBE585:
 1455              	.LBE584:
 1456              		.loc 1 259 0
 1457 0076 A24A     		ldr	r2, .L101+4
 1458              	.LBB590:
 1459              	.LBB591:
 1460              		.loc 2 192 0
 1461 0078 A369     		ldr	r3, [r4, #24]
 1462              	.LBE591:
 1463              	.LBE590:
 1464              		.loc 1 259 0
 1465 007a 1068     		ldr	r0, [r2]
 1466 007c 9A68     		ldr	r2, [r3, #8]
 1467 007e A14B     		ldr	r3, .L101+8
 1468              	.LBB595:
 1469              	.LBB594:
 1470              	.LBB592:
 1471              	.LBB593:
 1472              		.loc 2 179 0
 1473 0080 9E4D     		ldr	r5, .L101
 1474              	.LBE593:
 1475              	.LBE592:
 1476              	.LBE594:
 1477              	.LBE595:
 1478              		.loc 1 259 0
 1479 0082 03A9     		add	r1, sp, #12
ARM GAS  C:\Users\jo\AppData\Local\Temp\ccpSQ3Dm.s 			page 27


 1480              	.LVL124:
 1481 0084 0091     		str	r1, [sp]
 1482 0086 013A     		subs	r2, r2, #1
 1483 0088 4FF4B471 		mov	r1, #360
 1484              	.LVL125:
 1485 008c FFF7FEFF 		bl	chThdCreateStatic
 1486              	.LVL126:
 1487 0090 9D4B     		ldr	r3, .L101+12
 1488 0092 1860     		str	r0, [r3]
 1489              	.LVL127:
 1490              	.LBB596:
 1491              	.LBB597:
 1492              		.loc 6 143 0
 1493 0094 03A8     		add	r0, sp, #12
 1494              	.LVL128:
 1495 0096 FFF7FEFF 		bl	chSemWait
 1496              	.LVL129:
 1497              	.LBE597:
 1498              	.LBE596:
 1499              	.LBB598:
 1500              	.LBB599:
 1501              	.LBB600:
 1502              	.LBB601:
 1503              	.LBB602:
 1504              		.loc 4 546 0
 1505 009a 2023     		movs	r3, #32
 1506              	@ 546 "../../../os/ext/CMSIS/include/core_cmFunc.h" 1
 1507 009c 83F31188 		MSR basepri, r3
 1508              	@ 0 "" 2
 1509              		.thumb
 1510              	.LBE602:
 1511              	.LBE601:
 1512              	.LBE600:
 1513              		.loc 5 300 0
 1514 00a0 FFF7FEFF 		bl	_stats_start_measure_crit_thd
 1515              	.LVL130:
 1516              		.loc 5 301 0
 1517 00a4 FFF7FEFF 		bl	_dbg_check_lock
 1518              	.LVL131:
 1519              	.LBE599:
 1520              	.LBE598:
 1521              	.LBB603:
 1522              	.LBB604:
 1523              		.loc 6 302 0
 1524 00a8 FFF7FEFF 		bl	chDbgCheckClassI
 1525              	.LVL132:
 1526              		.loc 6 304 0
 1527 00ac 0599     		ldr	r1, [sp, #20]
 1528              	.LBE604:
 1529              	.LBE603:
 1530              		.loc 1 266 0
 1531 00ae 0029     		cmp	r1, #0
 1532 00b0 CCBF     		ite	gt
 1533 00b2 0021     		movgt	r1, #0
 1534 00b4 0121     		movle	r1, #1
 1535 00b6 0220     		movs	r0, #2
 1536 00b8 FFF7FEFF 		bl	_test_assert
ARM GAS  C:\Users\jo\AppData\Local\Temp\ccpSQ3Dm.s 			page 28


 1537              	.LVL133:
 1538 00bc A8B1     		cbz	r0, .L67
 1539              	.LBB605:
 1540              	.LBB606:
 1541              		.loc 5 311 0
 1542 00be FFF7FEFF 		bl	_dbg_check_unlock
 1543              	.LVL134:
 1544              		.loc 5 312 0
 1545 00c2 FFF7FEFF 		bl	_stats_stop_measure_crit_thd
 1546              	.LVL135:
 1547              		.loc 5 318 0
 1548 00c6 AA69     		ldr	r2, [r5, #24]
 1549 00c8 2B68     		ldr	r3, [r5]
 1550 00ca 9268     		ldr	r2, [r2, #8]
 1551 00cc 9B68     		ldr	r3, [r3, #8]
 1552 00ce 9A42     		cmp	r2, r3
 1553 00d0 BDD2     		bcs	.L85
 1554              	.LVL136:
 1555              	.L88:
 1556              	.LBE606:
 1557              	.LBE605:
 1558              	.LBB607:
 1559              	.LBB582:
 1560 00d2 8E48     		ldr	r0, .L101+16
 1561 00d4 FFF7FEFF 		bl	puts
 1562              	.LVL137:
 1563              	@ 318 "../../../os/rt/include/chsys.h" 1
 1564 00d8 00BE     		BKPT #0
 1565              	
 1566              	@ 0 "" 2
 1567              		.thumb
 1568 00da 8D48     		ldr	r0, .L101+20
 1569 00dc FFF7FEFF 		bl	chSysHalt
 1570              	.LVL138:
 1571              	.LBB580:
 1572              	.LBB578:
 1573              	.LBB576:
 1574              		.loc 4 546 0
 1575 00e0 0023     		movs	r3, #0
 1576              	@ 546 "../../../os/ext/CMSIS/include/core_cmFunc.h" 1
 1577 00e2 83F31188 		MSR basepri, r3
 1578              	@ 0 "" 2
 1579              		.thumb
 1580              	.LBE576:
 1581              	.LBE578:
 1582              	.LBE580:
 1583              	.LBE582:
 1584              	.LBE607:
 1585              		.loc 1 278 0
 1586 00e6 07B0     		add	sp, sp, #28
 1587              		.cfi_remember_state
 1588              		.cfi_def_cfa_offset 12
 1589              		@ sp needed
 1590 00e8 30BD     		pop	{r4, r5, pc}
 1591              	.LVL139:
 1592              	.L67:
 1593              		.cfi_restore_state
ARM GAS  C:\Users\jo\AppData\Local\Temp\ccpSQ3Dm.s 			page 29


 1594              	.LBB608:
 1595              	.LBB609:
 1596              		.loc 5 311 0
 1597 00ea FFF7FEFF 		bl	_dbg_check_unlock
 1598              	.LVL140:
 1599              		.loc 5 312 0
 1600 00ee FFF7FEFF 		bl	_stats_stop_measure_crit_thd
 1601              	.LVL141:
 1602              		.loc 5 318 0
 1603 00f2 AA69     		ldr	r2, [r5, #24]
 1604 00f4 2B68     		ldr	r3, [r5]
 1605 00f6 9268     		ldr	r2, [r2, #8]
 1606 00f8 9B68     		ldr	r3, [r3, #8]
 1607 00fa 9A42     		cmp	r2, r3
 1608 00fc C0F0D680 		bcc	.L95
 1609              	.L69:
 1610              	.LVL142:
 1611              	.LBB610:
 1612              	.LBB611:
 1613              	.LBB612:
 1614              		.loc 4 546 0
 1615 0100 0023     		movs	r3, #0
 1616              	@ 546 "../../../os/ext/CMSIS/include/core_cmFunc.h" 1
 1617 0102 83F31188 		MSR basepri, r3
 1618              	@ 0 "" 2
 1619              	.LVL143:
 1620              		.thumb
 1621              	.LBE612:
 1622              	.LBE611:
 1623              	.LBE610:
 1624              	.LBE609:
 1625              	.LBE608:
 1626              	.LBB614:
 1627              	.LBB615:
 1628              	.LBB616:
 1629              	.LBB617:
 1630              	.LBB618:
 1631              	.LBB619:
 1632              	.LBB620:
 1633 0106 2023     		movs	r3, #32
 1634              	@ 546 "../../../os/ext/CMSIS/include/core_cmFunc.h" 1
 1635 0108 83F31188 		MSR basepri, r3
 1636              	@ 0 "" 2
 1637              		.thumb
 1638              	.LBE620:
 1639              	.LBE619:
 1640              	.LBE618:
 1641              		.loc 5 300 0
 1642 010c FFF7FEFF 		bl	_stats_start_measure_crit_thd
 1643              	.LVL144:
 1644              		.loc 5 301 0
 1645 0110 FFF7FEFF 		bl	_dbg_check_lock
 1646              	.LVL145:
 1647              	.LBE617:
 1648              	.LBE616:
 1649              	.LBB621:
 1650              	.LBB622:
ARM GAS  C:\Users\jo\AppData\Local\Temp\ccpSQ3Dm.s 			page 30


 1651              		.loc 6 268 0
 1652 0114 FFF7FEFF 		bl	chDbgCheckClassI
 1653              	.LVL146:
 1654              		.loc 6 270 0
 1655 0118 059B     		ldr	r3, [sp, #20]
 1656 011a 002B     		cmp	r3, #0
 1657 011c 40F3E680 		ble	.L96
 1658              	.L70:
 1659              	.LBE622:
 1660              	.LBE621:
 1661              		.loc 6 286 0
 1662 0120 FFF7FEFF 		bl	chSchRescheduleS
 1663              	.LVL147:
 1664              	.LBB624:
 1665              	.LBB625:
 1666              		.loc 5 311 0
 1667 0124 FFF7FEFF 		bl	_dbg_check_unlock
 1668              	.LVL148:
 1669              		.loc 5 312 0
 1670 0128 FFF7FEFF 		bl	_stats_stop_measure_crit_thd
 1671              	.LVL149:
 1672              		.loc 5 318 0
 1673 012c A269     		ldr	r2, [r4, #24]
 1674 012e 2368     		ldr	r3, [r4]
 1675 0130 9268     		ldr	r2, [r2, #8]
 1676 0132 9B68     		ldr	r3, [r3, #8]
 1677 0134 9A42     		cmp	r2, r3
 1678 0136 C0F0C180 		bcc	.L97
 1679              	.L71:
 1680              	.LVL150:
 1681              	.LBB626:
 1682              	.LBB627:
 1683              	.LBB628:
 1684              		.loc 4 546 0
 1685 013a 0023     		movs	r3, #0
 1686              	@ 546 "../../../os/ext/CMSIS/include/core_cmFunc.h" 1
 1687 013c 83F31188 		MSR basepri, r3
 1688              	@ 0 "" 2
 1689              	.LVL151:
 1690              		.thumb
 1691              	.LBE628:
 1692              	.LBE627:
 1693              	.LBE626:
 1694              	.LBE625:
 1695              	.LBE624:
 1696              	.LBE615:
 1697              	.LBE614:
 1698              	.LBB634:
 1699              	.LBB635:
 1700              	.LBB636:
 1701              	.LBB637:
 1702              	.LBB638:
 1703 0140 2023     		movs	r3, #32
 1704              	@ 546 "../../../os/ext/CMSIS/include/core_cmFunc.h" 1
 1705 0142 83F31188 		MSR basepri, r3
 1706              	@ 0 "" 2
 1707              		.thumb
ARM GAS  C:\Users\jo\AppData\Local\Temp\ccpSQ3Dm.s 			page 31


 1708              	.LBE638:
 1709              	.LBE637:
 1710              	.LBE636:
 1711              		.loc 5 300 0
 1712 0146 FFF7FEFF 		bl	_stats_start_measure_crit_thd
 1713              	.LVL152:
 1714              		.loc 5 301 0
 1715 014a FFF7FEFF 		bl	_dbg_check_lock
 1716              	.LVL153:
 1717              	.LBE635:
 1718              	.LBE634:
 1719              	.LBB639:
 1720              	.LBB640:
 1721              		.loc 6 302 0
 1722 014e FFF7FEFF 		bl	chDbgCheckClassI
 1723              	.LVL154:
 1724              	.LBE640:
 1725              	.LBE639:
 1726              		.loc 1 271 0
 1727 0152 0599     		ldr	r1, [sp, #20]
 1728 0154 0029     		cmp	r1, #0
 1729 0156 D4BF     		ite	le
 1730 0158 0021     		movle	r1, #0
 1731 015a 0121     		movgt	r1, #1
 1732 015c 0320     		movs	r0, #3
 1733 015e FFF7FEFF 		bl	_test_assert
 1734              	.LVL155:
 1735 0162 0028     		cmp	r0, #0
 1736 0164 40F08A80 		bne	.L83
 1737              	.LBB641:
 1738              	.LBB642:
 1739              		.loc 5 311 0
 1740 0168 FFF7FEFF 		bl	_dbg_check_unlock
 1741              	.LVL156:
 1742              		.loc 5 312 0
 1743 016c FFF7FEFF 		bl	_stats_stop_measure_crit_thd
 1744              	.LVL157:
 1745              		.loc 5 318 0
 1746 0170 A269     		ldr	r2, [r4, #24]
 1747 0172 2368     		ldr	r3, [r4]
 1748 0174 9268     		ldr	r2, [r2, #8]
 1749 0176 9B68     		ldr	r3, [r3, #8]
 1750 0178 9A42     		cmp	r2, r3
 1751 017a 06D2     		bcs	.L74
 1752 017c 6348     		ldr	r0, .L101+16
 1753 017e FFF7FEFF 		bl	puts
 1754              	.LVL158:
 1755              	@ 318 "../../../os/rt/include/chsys.h" 1
 1756 0182 00BE     		BKPT #0
 1757              	
 1758              	@ 0 "" 2
 1759              		.thumb
 1760 0184 6248     		ldr	r0, .L101+20
 1761 0186 FFF7FEFF 		bl	chSysHalt
 1762              	.LVL159:
 1763              	.L74:
 1764              	.LBB643:
ARM GAS  C:\Users\jo\AppData\Local\Temp\ccpSQ3Dm.s 			page 32


 1765              	.LBB644:
 1766              	.LBB645:
 1767              		.loc 4 546 0
 1768 018a 0023     		movs	r3, #0
 1769              	@ 546 "../../../os/ext/CMSIS/include/core_cmFunc.h" 1
 1770 018c 83F31188 		MSR basepri, r3
 1771              	@ 0 "" 2
 1772              	.LVL160:
 1773              		.thumb
 1774              	.LBE645:
 1775              	.LBE644:
 1776              	.LBE643:
 1777              	.LBE642:
 1778              	.LBE641:
 1779              	.LBB646:
 1780              	.LBB647:
 1781              	.LBB648:
 1782              	.LBB649:
 1783              	.LBB650:
 1784 0190 2023     		movs	r3, #32
 1785              	@ 546 "../../../os/ext/CMSIS/include/core_cmFunc.h" 1
 1786 0192 83F31188 		MSR basepri, r3
 1787              	@ 0 "" 2
 1788              		.thumb
 1789              	.LBE650:
 1790              	.LBE649:
 1791              	.LBE648:
 1792              		.loc 5 300 0
 1793 0196 FFF7FEFF 		bl	_stats_start_measure_crit_thd
 1794              	.LVL161:
 1795              		.loc 5 301 0
 1796 019a FFF7FEFF 		bl	_dbg_check_lock
 1797              	.LVL162:
 1798              	.LBE647:
 1799              	.LBE646:
 1800              	.LBB651:
 1801              	.LBB652:
 1802              		.loc 7 151 0
 1803 019e FFF7FEFF 		bl	chDbgCheckClassI
 1804              	.LVL163:
 1805              	.LBE652:
 1806              	.LBE651:
 1807              		.loc 1 272 0
 1808 01a2 0599     		ldr	r1, [sp, #20]
 1809 01a4 0420     		movs	r0, #4
 1810 01a6 A1F10101 		sub	r1, #1
 1811 01aa B1FA81F1 		clz	r1, r1
 1812 01ae 4909     		lsrs	r1, r1, #5
 1813 01b0 FFF7FEFF 		bl	_test_assert
 1814              	.LVL164:
 1815 01b4 0028     		cmp	r0, #0
 1816 01b6 61D1     		bne	.L83
 1817              	.LBB653:
 1818              	.LBB654:
 1819              		.loc 5 311 0
 1820 01b8 FFF7FEFF 		bl	_dbg_check_unlock
 1821              	.LVL165:
ARM GAS  C:\Users\jo\AppData\Local\Temp\ccpSQ3Dm.s 			page 33


 1822              		.loc 5 312 0
 1823 01bc FFF7FEFF 		bl	_stats_stop_measure_crit_thd
 1824              	.LVL166:
 1825              		.loc 5 318 0
 1826 01c0 A269     		ldr	r2, [r4, #24]
 1827 01c2 2368     		ldr	r3, [r4]
 1828 01c4 9268     		ldr	r2, [r2, #8]
 1829 01c6 9B68     		ldr	r3, [r3, #8]
 1830 01c8 9A42     		cmp	r2, r3
 1831 01ca C0F08780 		bcc	.L98
 1832              	.L77:
 1833              	.LVL167:
 1834              	.LBB655:
 1835              	.LBB656:
 1836              	.LBB657:
 1837              		.loc 4 546 0
 1838 01ce 0023     		movs	r3, #0
 1839              	@ 546 "../../../os/ext/CMSIS/include/core_cmFunc.h" 1
 1840 01d0 83F31188 		MSR basepri, r3
 1841              	@ 0 "" 2
 1842              	.LVL168:
 1843              		.thumb
 1844              	.LBE657:
 1845              	.LBE656:
 1846              	.LBE655:
 1847              	.LBE654:
 1848              	.LBE653:
 1849              	.LBB659:
 1850              	.LBB660:
 1851              	.LBB661:
 1852              	.LBB662:
 1853              	.LBB663:
 1854              	.LBB664:
 1855              	.LBB665:
 1856 01d4 2023     		movs	r3, #32
 1857              	@ 546 "../../../os/ext/CMSIS/include/core_cmFunc.h" 1
 1858 01d6 83F31188 		MSR basepri, r3
 1859              	@ 0 "" 2
 1860              		.thumb
 1861              	.LBE665:
 1862              	.LBE664:
 1863              	.LBE663:
 1864              		.loc 5 300 0
 1865 01da FFF7FEFF 		bl	_stats_start_measure_crit_thd
 1866              	.LVL169:
 1867              		.loc 5 301 0
 1868 01de FFF7FEFF 		bl	_dbg_check_lock
 1869              	.LVL170:
 1870              	.LBE662:
 1871              	.LBE661:
 1872              	.LBB666:
 1873              	.LBB667:
 1874              		.loc 6 268 0
 1875 01e2 FFF7FEFF 		bl	chDbgCheckClassI
 1876              	.LVL171:
 1877              		.loc 6 270 0
 1878 01e6 059B     		ldr	r3, [sp, #20]
ARM GAS  C:\Users\jo\AppData\Local\Temp\ccpSQ3Dm.s 			page 34


 1879 01e8 002B     		cmp	r3, #0
 1880 01ea 40F38380 		ble	.L99
 1881              	.L78:
 1882              	.LBE667:
 1883              	.LBE666:
 1884              		.loc 6 286 0
 1885 01ee FFF7FEFF 		bl	chSchRescheduleS
 1886              	.LVL172:
 1887              	.LBB669:
 1888              	.LBB670:
 1889              		.loc 5 311 0
 1890 01f2 FFF7FEFF 		bl	_dbg_check_unlock
 1891              	.LVL173:
 1892              		.loc 5 312 0
 1893 01f6 FFF7FEFF 		bl	_stats_stop_measure_crit_thd
 1894              	.LVL174:
 1895              		.loc 5 318 0
 1896 01fa A269     		ldr	r2, [r4, #24]
 1897 01fc 2368     		ldr	r3, [r4]
 1898 01fe 9268     		ldr	r2, [r2, #8]
 1899 0200 9B68     		ldr	r3, [r3, #8]
 1900 0202 9A42     		cmp	r2, r3
 1901 0204 62D3     		bcc	.L100
 1902              	.L79:
 1903              	.LVL175:
 1904              	.LBB671:
 1905              	.LBB672:
 1906              	.LBB673:
 1907              		.loc 4 546 0
 1908 0206 0023     		movs	r3, #0
 1909              	@ 546 "../../../os/ext/CMSIS/include/core_cmFunc.h" 1
 1910 0208 83F31188 		MSR basepri, r3
 1911              	@ 0 "" 2
 1912              	.LVL176:
 1913              		.thumb
 1914              	.LBE673:
 1915              	.LBE672:
 1916              	.LBE671:
 1917              	.LBE670:
 1918              	.LBE669:
 1919              	.LBE660:
 1920              	.LBE659:
 1921              	.LBB679:
 1922              	.LBB680:
 1923              	.LBB681:
 1924              	.LBB682:
 1925              	.LBB683:
 1926 020c 2023     		movs	r3, #32
 1927              	@ 546 "../../../os/ext/CMSIS/include/core_cmFunc.h" 1
 1928 020e 83F31188 		MSR basepri, r3
 1929              	@ 0 "" 2
 1930              		.thumb
 1931              	.LBE683:
 1932              	.LBE682:
 1933              	.LBE681:
 1934              		.loc 5 300 0
 1935 0212 FFF7FEFF 		bl	_stats_start_measure_crit_thd
ARM GAS  C:\Users\jo\AppData\Local\Temp\ccpSQ3Dm.s 			page 35


 1936              	.LVL177:
 1937              		.loc 5 301 0
 1938 0216 FFF7FEFF 		bl	_dbg_check_lock
 1939              	.LVL178:
 1940              	.LBE680:
 1941              	.LBE679:
 1942              	.LBB684:
 1943              	.LBB685:
 1944              		.loc 6 302 0
 1945 021a FFF7FEFF 		bl	chDbgCheckClassI
 1946              	.LVL179:
 1947              	.LBE685:
 1948              	.LBE684:
 1949              		.loc 1 276 0
 1950 021e 0599     		ldr	r1, [sp, #20]
 1951 0220 0029     		cmp	r1, #0
 1952 0222 D4BF     		ite	le
 1953 0224 0021     		movle	r1, #0
 1954 0226 0121     		movgt	r1, #1
 1955 0228 0320     		movs	r0, #3
 1956 022a FFF7FEFF 		bl	_test_assert
 1957              	.LVL180:
 1958 022e 28BB     		cbnz	r0, .L83
 1959              	.LBB686:
 1960              	.LBB687:
 1961              		.loc 5 311 0
 1962 0230 FFF7FEFF 		bl	_dbg_check_unlock
 1963              	.LVL181:
 1964              		.loc 5 312 0
 1965 0234 FFF7FEFF 		bl	_stats_stop_measure_crit_thd
 1966              	.LVL182:
 1967              		.loc 5 318 0
 1968 0238 A269     		ldr	r2, [r4, #24]
 1969 023a 2368     		ldr	r3, [r4]
 1970 023c 9268     		ldr	r2, [r2, #8]
 1971 023e 9B68     		ldr	r3, [r3, #8]
 1972 0240 9A42     		cmp	r2, r3
 1973 0242 06D2     		bcs	.L82
 1974 0244 3148     		ldr	r0, .L101+16
 1975 0246 FFF7FEFF 		bl	puts
 1976              	.LVL183:
 1977              	@ 318 "../../../os/rt/include/chsys.h" 1
 1978 024a 00BE     		BKPT #0
 1979              	
 1980              	@ 0 "" 2
 1981              		.thumb
 1982 024c 3048     		ldr	r0, .L101+20
 1983 024e FFF7FEFF 		bl	chSysHalt
 1984              	.LVL184:
 1985              	.L82:
 1986              	.LBB688:
 1987              	.LBB689:
 1988              	.LBB690:
 1989              		.loc 4 546 0
 1990 0252 0023     		movs	r3, #0
 1991              	@ 546 "../../../os/ext/CMSIS/include/core_cmFunc.h" 1
 1992 0254 83F31188 		MSR basepri, r3
ARM GAS  C:\Users\jo\AppData\Local\Temp\ccpSQ3Dm.s 			page 36


 1993              	@ 0 "" 2
 1994              	.LVL185:
 1995              		.thumb
 1996              	.LBE690:
 1997              	.LBE689:
 1998              	.LBE688:
 1999              	.LBE687:
 2000              	.LBE686:
 2001              	.LBB691:
 2002              	.LBB692:
 2003              	.LBB693:
 2004              	.LBB694:
 2005              	.LBB695:
 2006 0258 2023     		movs	r3, #32
 2007              	@ 546 "../../../os/ext/CMSIS/include/core_cmFunc.h" 1
 2008 025a 83F31188 		MSR basepri, r3
 2009              	@ 0 "" 2
 2010              		.thumb
 2011              	.LBE695:
 2012              	.LBE694:
 2013              	.LBE693:
 2014              		.loc 5 300 0
 2015 025e FFF7FEFF 		bl	_stats_start_measure_crit_thd
 2016              	.LVL186:
 2017              		.loc 5 301 0
 2018 0262 FFF7FEFF 		bl	_dbg_check_lock
 2019              	.LVL187:
 2020              	.LBE692:
 2021              	.LBE691:
 2022              	.LBB696:
 2023              	.LBB697:
 2024              		.loc 7 151 0
 2025 0266 FFF7FEFF 		bl	chDbgCheckClassI
 2026              	.LVL188:
 2027              	.LBE697:
 2028              	.LBE696:
 2029              		.loc 1 277 0
 2030 026a 0599     		ldr	r1, [sp, #20]
 2031 026c 0520     		movs	r0, #5
 2032 026e A1F10101 		sub	r1, #1
 2033 0272 B1FA81F1 		clz	r1, r1
 2034 0276 4909     		lsrs	r1, r1, #5
 2035 0278 FFF7FEFF 		bl	_test_assert
 2036              	.LVL189:
 2037              	.L83:
 2038              	.LBB698:
 2039              	.LBB583:
 2040              		.loc 5 311 0
 2041 027c FFF7FEFF 		bl	_dbg_check_unlock
 2042              	.LVL190:
 2043              		.loc 5 312 0
 2044 0280 FFF7FEFF 		bl	_stats_stop_measure_crit_thd
 2045              	.LVL191:
 2046              		.loc 5 318 0
 2047 0284 A269     		ldr	r2, [r4, #24]
 2048 0286 2368     		ldr	r3, [r4]
 2049 0288 9268     		ldr	r2, [r2, #8]
ARM GAS  C:\Users\jo\AppData\Local\Temp\ccpSQ3Dm.s 			page 37


 2050 028a 9B68     		ldr	r3, [r3, #8]
 2051 028c 9A42     		cmp	r2, r3
 2052 028e FFF420AF 		bcc	.L88
 2053              	.LVL192:
 2054              	.LBB581:
 2055              	.LBB579:
 2056              	.LBB577:
 2057              		.loc 4 546 0
 2058 0292 0023     		movs	r3, #0
 2059              	@ 546 "../../../os/ext/CMSIS/include/core_cmFunc.h" 1
 2060 0294 83F31188 		MSR basepri, r3
 2061              	@ 0 "" 2
 2062              		.thumb
 2063              	.LBE577:
 2064              	.LBE579:
 2065              	.LBE581:
 2066              	.LBE583:
 2067              	.LBE698:
 2068              		.loc 1 278 0
 2069 0298 07B0     		add	sp, sp, #28
 2070              		.cfi_remember_state
 2071              		.cfi_def_cfa_offset 12
 2072              		@ sp needed
 2073 029a 30BD     		pop	{r4, r5, pc}
 2074              	.LVL193:
 2075              	.L94:
 2076              		.cfi_restore_state
 2077              	.LBB699:
 2078              	.LBB589:
 2079              		.loc 5 318 0
 2080 029c 1B48     		ldr	r0, .L101+16
 2081 029e FFF7FEFF 		bl	puts
 2082              	.LVL194:
 2083              	@ 318 "../../../os/rt/include/chsys.h" 1
 2084 02a2 00BE     		BKPT #0
 2085              	
 2086              	@ 0 "" 2
 2087              		.thumb
 2088 02a4 1A48     		ldr	r0, .L101+20
 2089 02a6 FFF7FEFF 		bl	chSysHalt
 2090              	.LVL195:
 2091 02aa E1E6     		b	.L66
 2092              	.LVL196:
 2093              	.L95:
 2094              	.LBE589:
 2095              	.LBE699:
 2096              	.LBB700:
 2097              	.LBB613:
 2098 02ac 1748     		ldr	r0, .L101+16
 2099 02ae FFF7FEFF 		bl	puts
 2100              	.LVL197:
 2101              	@ 318 "../../../os/rt/include/chsys.h" 1
 2102 02b2 00BE     		BKPT #0
 2103              	
 2104              	@ 0 "" 2
 2105              		.thumb
 2106 02b4 1648     		ldr	r0, .L101+20
ARM GAS  C:\Users\jo\AppData\Local\Temp\ccpSQ3Dm.s 			page 38


 2107 02b6 FFF7FEFF 		bl	chSysHalt
 2108              	.LVL198:
 2109 02ba 21E7     		b	.L69
 2110              	.LVL199:
 2111              	.L97:
 2112              	.LBE613:
 2113              	.LBE700:
 2114              	.LBB701:
 2115              	.LBB632:
 2116              	.LBB630:
 2117              	.LBB629:
 2118 02bc 1348     		ldr	r0, .L101+16
 2119 02be FFF7FEFF 		bl	puts
 2120              	.LVL200:
 2121              	@ 318 "../../../os/rt/include/chsys.h" 1
 2122 02c2 00BE     		BKPT #0
 2123              	
 2124              	@ 0 "" 2
 2125              		.thumb
 2126 02c4 1248     		ldr	r0, .L101+20
 2127 02c6 FFF7FEFF 		bl	chSysHalt
 2128              	.LVL201:
 2129 02ca 36E7     		b	.L71
 2130              	.LVL202:
 2131              	.L100:
 2132              	.LBE629:
 2133              	.LBE630:
 2134              	.LBE632:
 2135              	.LBE701:
 2136              	.LBB702:
 2137              	.LBB677:
 2138              	.LBB675:
 2139              	.LBB674:
 2140 02cc 0F48     		ldr	r0, .L101+16
 2141 02ce FFF7FEFF 		bl	puts
 2142              	.LVL203:
 2143              	@ 318 "../../../os/rt/include/chsys.h" 1
 2144 02d2 00BE     		BKPT #0
 2145              	
 2146              	@ 0 "" 2
 2147              		.thumb
 2148 02d4 0E48     		ldr	r0, .L101+20
 2149 02d6 FFF7FEFF 		bl	chSysHalt
 2150              	.LVL204:
 2151 02da 94E7     		b	.L79
 2152              	.LVL205:
 2153              	.L98:
 2154              	.LBE674:
 2155              	.LBE675:
 2156              	.LBE677:
 2157              	.LBE702:
 2158              	.LBB703:
 2159              	.LBB658:
 2160 02dc 0B48     		ldr	r0, .L101+16
 2161 02de FFF7FEFF 		bl	puts
 2162              	.LVL206:
 2163              	@ 318 "../../../os/rt/include/chsys.h" 1
ARM GAS  C:\Users\jo\AppData\Local\Temp\ccpSQ3Dm.s 			page 39


 2164 02e2 00BE     		BKPT #0
 2165              	
 2166              	@ 0 "" 2
 2167              		.thumb
 2168 02e4 0A48     		ldr	r0, .L101+20
 2169 02e6 FFF7FEFF 		bl	chSysHalt
 2170              	.LVL207:
 2171 02ea 70E7     		b	.L77
 2172              	.LVL208:
 2173              	.L96:
 2174              	.LBE658:
 2175              	.LBE703:
 2176              	.LBB704:
 2177              	.LBB633:
 2178              	.LBB631:
 2179              	.LBB623:
 2180              		.loc 6 271 0
 2181 02ec 03A8     		add	r0, sp, #12
 2182              	.LVL209:
 2183 02ee FFF7FEFF 		bl	chSemSignalI
 2184              	.LVL210:
 2185 02f2 15E7     		b	.L70
 2186              	.LVL211:
 2187              	.L99:
 2188              	.LBE623:
 2189              	.LBE631:
 2190              	.LBE633:
 2191              	.LBE704:
 2192              	.LBB705:
 2193              	.LBB678:
 2194              	.LBB676:
 2195              	.LBB668:
 2196 02f4 03A8     		add	r0, sp, #12
 2197              	.LVL212:
 2198 02f6 FFF7FEFF 		bl	chSemSignalI
 2199              	.LVL213:
 2200 02fa 78E7     		b	.L78
 2201              	.L102:
 2202              		.align	2
 2203              	.L101:
 2204 02fc 00000000 		.word	ch
 2205 0300 00000000 		.word	wa
 2206 0304 00000000 		.word	thread4
 2207 0308 00000000 		.word	threads
 2208 030c 00000000 		.word	.LC0
 2209 0310 00000000 		.word	.LANCHOR1
 2210              	.LBE668:
 2211              	.LBE676:
 2212              	.LBE678:
 2213              	.LBE705:
 2214              		.cfi_endproc
 2215              	.LFE236:
 2216              		.size	sem4_execute, .-sem4_execute
 2217              		.global	patternsem
 2218              		.global	testsem4
 2219              		.global	testsem3
 2220              		.global	testsem2
ARM GAS  C:\Users\jo\AppData\Local\Temp\ccpSQ3Dm.s 			page 40


 2221              		.global	testsem1
 2222 0314 AFF30080 		.section	.rodata.testsem1,"a",%progbits
 2222      AFF30080 
 2222      AFF30080 
 2223              		.align	2
 2224              		.type	testsem1, %object
 2225              		.size	testsem1, 16
 2226              	testsem1:
 2227 0000 9C000000 		.word	.LC10
 2228 0004 00000000 		.word	sem1_setup
 2229 0008 00000000 		.word	0
 2230 000c 00000000 		.word	sem1_execute
 2231              		.section	.rodata.testsem2,"a",%progbits
 2232              		.align	2
 2233              		.type	testsem2, %object
 2234              		.size	testsem2, 16
 2235              	testsem2:
 2236 0000 88000000 		.word	.LC9
 2237 0004 00000000 		.word	sem2_setup
 2238 0008 00000000 		.word	0
 2239 000c 00000000 		.word	sem2_execute
 2240              		.section	.rodata.testsem3,"a",%progbits
 2241              		.align	2
 2242              		.type	testsem3, %object
 2243              		.size	testsem3, 16
 2244              	testsem3:
 2245 0000 68000000 		.word	.LC8
 2246 0004 00000000 		.word	sem3_setup
 2247 0008 00000000 		.word	0
 2248 000c 00000000 		.word	sem3_execute
 2249              		.section	.rodata.testsem4,"a",%progbits
 2250              		.align	2
 2251              		.type	testsem4, %object
 2252              		.size	testsem4, 16
 2253              	testsem4:
 2254 0000 44000000 		.word	.LC7
 2255 0004 00000000 		.word	0
 2256 0008 00000000 		.word	0
 2257 000c 00000000 		.word	sem4_execute
 2258              		.section	.data.sem1,"aw",%progbits
 2259              		.align	2
 2260              		.set	.LANCHOR0,. + 0
 2261              		.type	sem1, %object
 2262              		.size	sem1, 12
 2263              	sem1:
 2264 0000 00000000 		.word	sem1
 2265 0004 00000000 		.word	sem1
 2266 0008 00000000 		.word	0
 2267              		.section	.rodata.patternsem,"a",%progbits
 2268              		.align	2
 2269              		.type	patternsem, %object
 2270              		.size	patternsem, 20
 2271              	patternsem:
 2272 0000 00000000 		.word	testsem1
 2273 0004 00000000 		.word	testsem2
 2274 0008 00000000 		.word	testsem3
 2275 000c 00000000 		.word	testsem4
ARM GAS  C:\Users\jo\AppData\Local\Temp\ccpSQ3Dm.s 			page 41


 2276 0010 00000000 		.word	0
 2277              		.section	.rodata.str1.4,"aMS",%progbits,1
 2278              		.align	2
 2279              	.LC0:
 2280 0000 7072696F 		.ascii	"priority violation, missing reschedule\000"
 2280      72697479 
 2280      2076696F 
 2280      6C617469 
 2280      6F6E2C20 
 2281 0027 00       		.space	1
 2282              	.LC1:
 2283 0028 4100     		.ascii	"A\000"
 2284 002a 0000     		.space	2
 2285              	.LC2:
 2286 002c 4200     		.ascii	"B\000"
 2287 002e 0000     		.space	2
 2288              	.LC3:
 2289 0030 4300     		.ascii	"C\000"
 2290 0032 0000     		.space	2
 2291              	.LC4:
 2292 0034 4400     		.ascii	"D\000"
 2293 0036 0000     		.space	2
 2294              	.LC5:
 2295 0038 4500     		.ascii	"E\000"
 2296 003a 0000     		.space	2
 2297              	.LC6:
 2298 003c 41424344 		.ascii	"ABCDE\000"
 2298      4500
 2299 0042 0000     		.space	2
 2300              	.LC7:
 2301 0044 42696E61 		.ascii	"Binary Semaphores, functionality\000"
 2301      72792053 
 2301      656D6170 
 2301      686F7265 
 2301      732C2066 
 2302 0065 000000   		.space	3
 2303              	.LC8:
 2304 0068 53656D61 		.ascii	"Semaphores, atomic signal-wait\000"
 2304      70686F72 
 2304      65732C20 
 2304      61746F6D 
 2304      69632073 
 2305 0087 00       		.space	1
 2306              	.LC9:
 2307 0088 53656D61 		.ascii	"Semaphores, timeout\000"
 2307      70686F72 
 2307      65732C20 
 2307      74696D65 
 2307      6F757400 
 2308              	.LC10:
 2309 009c 53656D61 		.ascii	"Semaphores, enqueuing\000"
 2309      70686F72 
 2309      65732C20 
 2309      656E7175 
 2309      6575696E 
 2310 00b2 0000     		.section	.rodata.__func__.6751,"a",%progbits
 2311              		.align	2
ARM GAS  C:\Users\jo\AppData\Local\Temp\ccpSQ3Dm.s 			page 42


 2312              		.set	.LANCHOR1,. + 0
 2313              		.type	__func__.6751, %object
 2314              		.size	__func__.6751, 12
 2315              	__func__.6751:
 2316 0000 63685379 		.ascii	"chSysUnlock\000"
 2316      73556E6C 
 2316      6F636B00 
 2317              		.text
 2318              	.Letext0:
 2319              		.file 9 "c:\\program files\\gnu tools arm embedded\\4.9 2014q4\\lib\\gcc\\arm-none-eabi\\4.9.3\\in
 2320              		.file 10 "c:\\program files\\gnu tools arm embedded\\4.9 2014q4\\arm-none-eabi\\include\\machine\\
 2321              		.file 11 "c:\\program files\\gnu tools arm embedded\\4.9 2014q4\\arm-none-eabi\\include\\stdint.h"
 2322              		.file 12 "../../../os/rt/ports/ARMCMx/compilers/GCC/chtypes.h"
 2323              		.file 13 "../../../os/rt/include/chsystypes.h"
 2324              		.file 14 "../../../os/rt/ports/ARMCMx/chcore.h"
 2325              		.file 15 "../../../os/rt/ports/ARMCMx/chcore_v7m.h"
 2326              		.file 16 "../../../os/hal/ports/STM32/LLD/TIMv1/stm32_tim.h"
 2327              		.file 17 "../../../os/rt/include/chdebug.h"
 2328              		.file 18 "../../../os/rt/include/chtm.h"
 2329              		.file 19 "../../../os/rt/include/chstats.h"
 2330              		.file 20 "../../../os/rt/include/chmtx.h"
 2331              		.file 21 "../../../test/rt/test.h"
 2332              		.file 22 "../../../os/rt/ports/ARMCMx/chcore_timer.h"
 2333              		.file 23 "../../../os/rt/include/chvt.h"
 2334              		.file 24 "../../../os/ext/CMSIS/include/core_cm4.h"
 2335              		.file 25 "<built-in>"