ARM GAS  C:\Users\jo\AppData\Local\Temp\ccTgSZM2.s 			page 1


   1              		.syntax unified
   2              		.cpu cortex-m4
   3              		.fpu softvfp
   4              		.eabi_attribute 20, 1
   5              		.eabi_attribute 21, 1
   6              		.eabi_attribute 23, 3
   7              		.eabi_attribute 24, 1
   8              		.eabi_attribute 25, 1
   9              		.eabi_attribute 26, 1
  10              		.eabi_attribute 30, 2
  11              		.eabi_attribute 34, 1
  12              		.eabi_attribute 18, 4
  13              		.thumb
  14              		.file	"uart_lld.c"
  15              		.text
  16              	.Ltext0:
  17              		.cfi_sections	.debug_frame
  18              		.section	.text.VectorDC,"ax",%progbits
  19              		.align	2
  20              		.p2align 4,,15
  21              		.global	VectorDC
  22              		.thumb
  23              		.thumb_func
  24              		.type	VectorDC, %function
  25              	VectorDC:
  26              	.LFB259:
  27              		.file 1 "../../../os/hal/ports/STM32/LLD/USARTv1/uart_lld.c"
  28              		.loc 1 458 0
  29              		.cfi_startproc
  30              		@ args = 0, pretend = 0, frame = 0
  31              		@ frame_needed = 0, uses_anonymous_args = 0
  32 0000 F8B5     		push	{r3, r4, r5, r6, r7, lr}
  33              		.cfi_def_cfa_offset 24
  34              		.cfi_offset 3, -24
  35              		.cfi_offset 4, -20
  36              		.cfi_offset 5, -16
  37              		.cfi_offset 6, -12
  38              		.cfi_offset 7, -8
  39              		.cfi_offset 14, -4
  40              	.LBB32:
  41              	.LBB33:
  42              		.loc 1 323 0
  43 0002 2B4E     		ldr	r6, .L62
  44              	.LBE33:
  45              	.LBE32:
  46              		.loc 1 460 0
  47 0004 FFF7FEFF 		bl	_stats_increase_irq
  48              	.LVL0:
  49 0008 FFF7FEFF 		bl	_dbg_check_enter_isr
  50              	.LVL1:
  51              	.LBB38:
  52              	.LBB36:
  53              		.loc 1 323 0
  54 000c B768     		ldr	r7, [r6, #8]
  55              	.LVL2:
  56              		.loc 1 326 0
  57 000e 3C68     		ldr	r4, [r7]
ARM GAS  C:\Users\jo\AppData\Local\Temp\ccTgSZM2.s 			page 2


  58              	.LVL3:
  59              		.loc 1 330 0
  60 0010 2507     		lsls	r5, r4, #28
  61 0012 19D0     		beq	.L2
  62              		.loc 1 332 0
  63 0014 7368     		ldr	r3, [r6, #4]
  64 0016 1B69     		ldr	r3, [r3, #16]
  65 0018 B3B1     		cbz	r3, .L2
  66              	.LVL4:
  67              	.LBB34:
  68              	.LBB35:
  69              		.loc 1 114 0
  70 001a 14F0080F 		tst	r4, #8
  71 001e 0CBF     		ite	eq
  72 0020 0021     		moveq	r1, #0
  73 0022 1021     		movne	r1, #16
  74              	.LVL5:
  75              		.loc 1 115 0
  76 0024 E007     		lsls	r0, r4, #31
  77              		.loc 1 116 0
  78 0026 48BF     		it	mi
  79 0028 41F00401 		orrmi	r1, r1, #4
  80              	.LVL6:
  81              		.loc 1 117 0
  82 002c A207     		lsls	r2, r4, #30
  83              		.loc 1 118 0
  84 002e 48BF     		it	mi
  85 0030 41F00801 		orrmi	r1, r1, #8
  86              	.LVL7:
  87              		.loc 1 119 0
  88 0034 6507     		lsls	r5, r4, #29
  89              		.loc 1 120 0
  90 0036 48BF     		it	mi
  91 0038 41F02001 		orrmi	r1, r1, #32
  92              	.LVL8:
  93              		.loc 1 121 0
  94 003c E005     		lsls	r0, r4, #23
  95              		.loc 1 122 0
  96 003e 48BF     		it	mi
  97 0040 41F04001 		orrmi	r1, r1, #64
  98              	.LVL9:
  99              	.LBE35:
 100              	.LBE34:
 101              		.loc 1 333 0
 102 0044 1A48     		ldr	r0, .L62
 103 0046 9847     		blx	r3
 104              	.LVL10:
 105              	.L2:
 106              		.loc 1 337 0
 107 0048 FD68     		ldr	r5, [r7, #12]
 108              	.LVL11:
 109              		.loc 1 340 0
 110 004a AA06     		lsls	r2, r5, #26
 111 004c 01D5     		bpl	.L8
 112 004e A306     		lsls	r3, r4, #26
 113 0050 25D4     		bmi	.L60
 114              	.L8:
ARM GAS  C:\Users\jo\AppData\Local\Temp\ccTgSZM2.s 			page 3


 115              		.loc 1 370 0
 116 0052 2806     		lsls	r0, r5, #24
 117 0054 01D5     		bpl	.L10
 118 0056 2106     		lsls	r1, r4, #24
 119 0058 15D4     		bmi	.L61
 120              	.L10:
 121              		.loc 1 389 0
 122 005a 6A06     		lsls	r2, r5, #25
 123 005c 0DD5     		bpl	.L13
 124 005e 6306     		lsls	r3, r4, #25
 125 0060 0BD5     		bpl	.L13
 126              		.loc 1 391 0
 127 0062 144A     		ldr	r2, .L62+4
 128              		.loc 1 392 0
 129 0064 7368     		ldr	r3, [r6, #4]
 130              		.loc 1 391 0
 131 0066 4FF48071 		mov	r1, #256
 132 006a 5183     		strh	r1, [r2, #26]	@ movhi
 133              		.loc 1 392 0
 134 006c 5B68     		ldr	r3, [r3, #4]
 135 006e 0BB1     		cbz	r3, .L14
 136              		.loc 1 393 0
 137 0070 0F48     		ldr	r0, .L62
 138 0072 9847     		blx	r3
 139              	.LVL12:
 140              	.L14:
 141              		.loc 1 394 0
 142 0074 25F04005 		bic	r5, r5, #64
 143              	.LVL13:
 144 0078 FD60     		str	r5, [r7, #12]
 145              	.L13:
 146              	.LBE36:
 147              	.LBE38:
 148              		.loc 1 464 0
 149 007a FFF7FEFF 		bl	_dbg_check_leave_isr
 150              	.LVL14:
 151              		.loc 1 465 0
 152 007e BDE8F840 		pop	{r3, r4, r5, r6, r7, lr}
 153              		.cfi_remember_state
 154              		.cfi_restore 14
 155              		.cfi_restore 7
 156              		.cfi_restore 6
 157              		.cfi_restore 5
 158              		.cfi_restore 4
 159              		.cfi_restore 3
 160              		.cfi_def_cfa_offset 0
 161              	.LVL15:
 162              		.loc 1 464 0
 163 0082 FFF7FEBF 		b	_port_irq_epilogue
 164              	.LVL16:
 165              	.L61:
 166              		.cfi_restore_state
 167              	.LBB39:
 168              	.LBB37:
 169              		.loc 1 378 0
 170 0086 7368     		ldr	r3, [r6, #4]
 171 0088 1B68     		ldr	r3, [r3]
ARM GAS  C:\Users\jo\AppData\Local\Temp\ccTgSZM2.s 			page 4


 172 008a 0BB1     		cbz	r3, .L12
 173              		.loc 1 379 0
 174 008c 0848     		ldr	r0, .L62
 175 008e 9847     		blx	r3
 176              	.LVL17:
 177              	.L12:
 178              		.loc 1 383 0
 179 0090 7378     		ldrb	r3, [r6, #1]	@ zero_extendqisi2
 180 0092 074A     		ldr	r2, .L62
 181 0094 022B     		cmp	r3, #2
 182              		.loc 1 384 0
 183 0096 04BF     		itt	eq
 184 0098 0023     		moveq	r3, #0
 185 009a 5370     		strbeq	r3, [r2, #1]
 186 009c DDE7     		b	.L10
 187              	.L60:
 188              		.loc 1 364 0
 189 009e 7368     		ldr	r3, [r6, #4]
 190 00a0 0348     		ldr	r0, .L62
 191 00a2 DB68     		ldr	r3, [r3, #12]
 192 00a4 002B     		cmp	r3, #0
 193 00a6 D4D0     		beq	.L8
 194              		.loc 1 365 0
 195 00a8 8189     		ldrh	r1, [r0, #12]
 196 00aa 89B2     		uxth	r1, r1
 197 00ac 9847     		blx	r3
 198              	.LVL18:
 199 00ae D0E7     		b	.L8
 200              	.L63:
 201              		.align	2
 202              	.L62:
 203 00b0 00000000 		.word	.LANCHOR0
 204 00b4 00180240 		.word	1073879040
 205              	.LBE37:
 206              	.LBE39:
 207              		.cfi_endproc
 208              	.LFE259:
 209              		.size	VectorDC, .-VectorDC
 210 00b8 AFF30080 		.section	.text.uart_lld_init,"ax",%progbits
 210      AFF30080 
 211              		.align	2
 212              		.p2align 4,,15
 213              		.global	uart_lld_init
 214              		.thumb
 215              		.thumb_func
 216              		.type	uart_lld_init, %function
 217              	uart_lld_init:
 218              	.LFB260:
 219              		.loc 1 477 0
 220              		.cfi_startproc
 221              		@ args = 0, pretend = 0, frame = 0
 222              		@ frame_needed = 0, uses_anonymous_args = 0
 223 0000 10B5     		push	{r4, lr}
 224              		.cfi_def_cfa_offset 8
 225              		.cfi_offset 4, -8
 226              		.cfi_offset 14, -4
 227              		.loc 1 500 0
ARM GAS  C:\Users\jo\AppData\Local\Temp\ccTgSZM2.s 			page 5


 228 0002 034C     		ldr	r4, .L66
 229 0004 2046     		mov	r0, r4
 230 0006 FFF7FEFF 		bl	uartObjectInit
 231              	.LVL19:
 232              		.loc 1 501 0
 233 000a 024B     		ldr	r3, .L66+4
 234 000c A360     		str	r3, [r4, #8]
 235 000e 10BD     		pop	{r4, pc}
 236              	.L67:
 237              		.align	2
 238              	.L66:
 239 0010 00000000 		.word	.LANCHOR0
 240 0014 00480040 		.word	1073760256
 241              		.cfi_endproc
 242              	.LFE260:
 243              		.size	uart_lld_init, .-uart_lld_init
 244 0018 AFF30080 		.section	.text.uart_lld_start,"ax",%progbits
 244      AFF30080 
 245              		.align	2
 246              		.p2align 4,,15
 247              		.global	uart_lld_start
 248              		.thumb
 249              		.thumb_func
 250              		.type	uart_lld_start, %function
 251              	uart_lld_start:
 252              	.LFB261:
 253              		.loc 1 517 0
 254              		.cfi_startproc
 255              		@ args = 0, pretend = 0, frame = 0
 256              		@ frame_needed = 0, uses_anonymous_args = 0
 257              	.LVL20:
 258 0000 38B5     		push	{r3, r4, r5, lr}
 259              		.cfi_def_cfa_offset 16
 260              		.cfi_offset 3, -16
 261              		.cfi_offset 4, -12
 262              		.cfi_offset 5, -8
 263              		.cfi_offset 14, -4
 264              		.loc 1 519 0
 265 0002 0378     		ldrb	r3, [r0]	@ zero_extendqisi2
 266 0004 012B     		cmp	r3, #1
 267              		.loc 1 517 0
 268 0006 0446     		mov	r4, r0
 269              		.loc 1 519 0
 270 0008 21D0     		beq	.L74
 271              	.LVL21:
 272              	.L69:
 273              	.LBB45:
 274              	.LBB46:
 275              		.loc 1 182 0
 276 000a A368     		ldr	r3, [r4, #8]
 277              		.loc 1 194 0
 278 000c 1949     		ldr	r1, .L76
 279              	.LBE46:
 280              	.LBE45:
 281              		.loc 1 608 0
 282 000e 0022     		movs	r2, #0
 283              	.LBB51:
ARM GAS  C:\Users\jo\AppData\Local\Temp\ccTgSZM2.s 			page 6


 284              	.LBB49:
 285              		.loc 1 194 0
 286 0010 8B42     		cmp	r3, r1
 287              		.loc 1 195 0
 288 0012 6168     		ldr	r1, [r4, #4]
 289              	.LBE49:
 290              	.LBE51:
 291              		.loc 1 608 0
 292 0014 A270     		strb	r2, [r4, #2]
 293              		.loc 1 609 0
 294 0016 6270     		strb	r2, [r4, #1]
 295              	.LVL22:
 296              	.LBB52:
 297              	.LBB50:
 298              	.LBB47:
 299              	.LBB48:
 300              		.loc 1 168 0
 301 0018 DA60     		str	r2, [r3, #12]
 302              		.loc 1 169 0
 303 001a 1A61     		str	r2, [r3, #16]
 304              		.loc 1 170 0
 305 001c 5A61     		str	r2, [r3, #20]
 306              	.LBE48:
 307              	.LBE47:
 308              		.loc 1 197 0
 309 001e 4869     		ldr	r0, [r1, #20]
 310              		.loc 1 195 0
 311 0020 0CBF     		ite	eq
 312 0022 154A     		ldreq	r2, .L76+4
 313              		.loc 1 197 0
 314 0024 154A     		ldrne	r2, .L76+8
 315 0026 B2FBF0F2 		udiv	r2, r2, r0
 316 002a 9A60     		str	r2, [r3, #8]
 317              		.loc 1 221 0
 318 002c 8A69     		ldr	r2, [r1, #24]
 319              		.loc 1 219 0
 320 002e 086A     		ldr	r0, [r1, #32]
 321              		.loc 1 207 0
 322 0030 CC69     		ldr	r4, [r1, #28]
 323              	.LVL23:
 324              		.loc 1 201 0
 325 0032 1968     		ldr	r1, [r3]
 326              		.loc 1 202 0
 327 0034 5968     		ldr	r1, [r3, #4]
 328              		.loc 1 221 0
 329 0036 42F40452 		orr	r2, r2, #8448
 330              		.loc 1 203 0
 331 003a 0025     		movs	r5, #0
 332              		.loc 1 221 0
 333 003c 42F02C02 		orr	r2, r2, #44
 334              		.loc 1 219 0
 335 0040 40F00101 		orr	r1, r0, #1
 336              		.loc 1 203 0
 337 0044 1D60     		str	r5, [r3]
 338              		.loc 1 207 0
 339 0046 1C61     		str	r4, [r3, #16]
 340              		.loc 1 219 0
ARM GAS  C:\Users\jo\AppData\Local\Temp\ccTgSZM2.s 			page 7


 341 0048 5961     		str	r1, [r3, #20]
 342              		.loc 1 220 0
 343 004a DA60     		str	r2, [r3, #12]
 344 004c 38BD     		pop	{r3, r4, r5, pc}
 345              	.LVL24:
 346              	.L74:
 347              	.LBE50:
 348              	.LBE52:
 349              		.loc 1 570 0
 350 004e 0C4B     		ldr	r3, .L76+12
 351 0050 9842     		cmp	r0, r3
 352 0052 04D0     		beq	.L75
 353              	.LVL25:
 354              	.L70:
 355              		.loc 1 601 0
 356 0054 0023     		movs	r3, #0
 357 0056 A381     		strh	r3, [r4, #12]	@ movhi
 358              		.loc 1 604 0
 359 0058 A361     		str	r3, [r4, #24]
 360              		.loc 1 603 0
 361 005a A382     		strh	r3, [r4, #20]	@ movhi
 362 005c D5E7     		b	.L69
 363              	.LVL26:
 364              	.L75:
 365              	.LBB53:
 366              		.loc 1 584 0
 367 005e 094A     		ldr	r2, .L76+16
 368 0060 136C     		ldr	r3, [r2, #64]
 369 0062 43F48023 		orr	r3, r3, #262144
 370 0066 1364     		str	r3, [r2, #64]
 371              		.loc 1 585 0
 372 0068 2720     		movs	r0, #39
 373              	.LVL27:
 374 006a 0C21     		movs	r1, #12
 375 006c FFF7FEFF 		bl	nvicEnableVector
 376              	.LVL28:
 377 0070 F0E7     		b	.L70
 378              	.L77:
 379 0072 00BF     		.align	2
 380              	.L76:
 381 0074 00100140 		.word	1073811456
 382 0078 C0687804 		.word	75000000
 383 007c 60343C02 		.word	37500000
 384 0080 00000000 		.word	.LANCHOR0
 385 0084 00380240 		.word	1073887232
 386              	.LBE53:
 387              		.cfi_endproc
 388              	.LFE261:
 389              		.size	uart_lld_start, .-uart_lld_start
 390 0088 AFF30080 		.section	.text.uart_lld_stop,"ax",%progbits
 390      AFF30080 
 391              		.align	2
 392              		.p2align 4,,15
 393              		.global	uart_lld_stop
 394              		.thumb
 395              		.thumb_func
 396              		.type	uart_lld_stop, %function
ARM GAS  C:\Users\jo\AppData\Local\Temp\ccTgSZM2.s 			page 8


 397              	uart_lld_stop:
 398              	.LFB262:
 399              		.loc 1 620 0
 400              		.cfi_startproc
 401              		@ args = 0, pretend = 0, frame = 0
 402              		@ frame_needed = 0, uses_anonymous_args = 0
 403              	.LVL29:
 404 0000 08B5     		push	{r3, lr}
 405              		.cfi_def_cfa_offset 8
 406              		.cfi_offset 3, -8
 407              		.cfi_offset 14, -4
 408              		.loc 1 622 0
 409 0002 0378     		ldrb	r3, [r0]	@ zero_extendqisi2
 410 0004 022B     		cmp	r3, #2
 411 0006 00D0     		beq	.L83
 412              	.LVL30:
 413              	.L78:
 414 0008 08BD     		pop	{r3, pc}
 415              	.LVL31:
 416              	.L83:
 417              		.loc 1 646 0
 418 000a 0849     		ldr	r1, .L84
 419              	.LBB54:
 420              	.LBB55:
 421              		.loc 1 168 0
 422 000c 8368     		ldr	r3, [r0, #8]
 423 000e 0022     		movs	r2, #0
 424              	.LBE55:
 425              	.LBE54:
 426              		.loc 1 646 0
 427 0010 8842     		cmp	r0, r1
 428              	.LBB57:
 429              	.LBB56:
 430              		.loc 1 168 0
 431 0012 DA60     		str	r2, [r3, #12]
 432              		.loc 1 169 0
 433 0014 1A61     		str	r2, [r3, #16]
 434              		.loc 1 170 0
 435 0016 5A61     		str	r2, [r3, #20]
 436              	.LBE56:
 437              	.LBE57:
 438              		.loc 1 646 0
 439 0018 F6D1     		bne	.L78
 440              		.loc 1 647 0
 441 001a 2720     		movs	r0, #39
 442              	.LVL32:
 443 001c FFF7FEFF 		bl	nvicDisableVector
 444              	.LVL33:
 445              		.loc 1 648 0
 446 0020 034A     		ldr	r2, .L84+4
 447 0022 136C     		ldr	r3, [r2, #64]
 448 0024 23F48023 		bic	r3, r3, #262144
 449 0028 1364     		str	r3, [r2, #64]
 450              		.loc 1 649 0
 451 002a EDE7     		b	.L78
 452              	.L85:
 453              		.align	2
ARM GAS  C:\Users\jo\AppData\Local\Temp\ccTgSZM2.s 			page 9


 454              	.L84:
 455 002c 00000000 		.word	.LANCHOR0
 456 0030 00380240 		.word	1073887232
 457              		.cfi_endproc
 458              	.LFE262:
 459              		.size	uart_lld_stop, .-uart_lld_stop
 460 0034 AFF30080 		.section	.text.uart_lld_start_send,"ax",%progbits
 460      AFF30080 
 460      AFF30080 
 461              		.align	2
 462              		.p2align 4,,15
 463              		.global	uart_lld_start_send
 464              		.thumb
 465              		.thumb_func
 466              		.type	uart_lld_start_send, %function
 467              	uart_lld_start_send:
 468              	.LFB263:
 469              		.loc 1 666 0
 470              		.cfi_startproc
 471              		@ args = 0, pretend = 0, frame = 0
 472              		@ frame_needed = 0, uses_anonymous_args = 0
 473              		@ link register save eliminated.
 474              		.loc 1 677 0
 475 0000 C389     		ldrh	r3, [r0, #14]
 476 0002 9BB2     		uxth	r3, r3
 477 0004 53B9     		cbnz	r3, .L90
 478              		.loc 1 666 0
 479 0006 10B4     		push	{r4}
 480              		.cfi_def_cfa_offset 4
 481              		.cfi_offset 4, -4
 482              		.loc 1 688 0
 483 0008 89B2     		uxth	r1, r1
 484              		.loc 1 692 0
 485 000a 8468     		ldr	r4, [r0, #8]
 486              		.loc 1 688 0
 487 000c C181     		strh	r1, [r0, #14]	@ movhi
 488              		.loc 1 692 0
 489 000e E368     		ldr	r3, [r4, #12]
 490              		.loc 1 681 0
 491 0010 0261     		str	r2, [r0, #16]
 492              		.loc 1 692 0
 493 0012 43F08003 		orr	r3, r3, #128
 494 0016 E360     		str	r3, [r4, #12]
 495              		.loc 1 694 0
 496 0018 5DF8044B 		ldr	r4, [sp], #4
 497              		.cfi_restore 4
 498              		.cfi_def_cfa_offset 0
 499              	.L90:
 500 001c 7047     		bx	lr
 501              		.cfi_endproc
 502              	.LFE263:
 503              		.size	uart_lld_start_send, .-uart_lld_start_send
 504 001e 00BF     		.section	.text.uart_lld_stop_send,"ax",%progbits
 505              		.align	2
 506              		.p2align 4,,15
 507              		.global	uart_lld_stop_send
 508              		.thumb
ARM GAS  C:\Users\jo\AppData\Local\Temp\ccTgSZM2.s 			page 10


 509              		.thumb_func
 510              		.type	uart_lld_stop_send, %function
 511              	uart_lld_stop_send:
 512              	.LFB264:
 513              		.loc 1 707 0
 514              		.cfi_startproc
 515              		@ args = 0, pretend = 0, frame = 0
 516              		@ frame_needed = 0, uses_anonymous_args = 0
 517              		@ link register save eliminated.
 518              	.LVL34:
 519 0000 10B4     		push	{r4}
 520              		.cfi_def_cfa_offset 4
 521              		.cfi_offset 4, -4
 522              		.loc 1 714 0
 523 0002 8468     		ldr	r4, [r0, #8]
 524              		.loc 1 707 0
 525 0004 0346     		mov	r3, r0
 526              		.loc 1 713 0
 527 0006 C089     		ldrh	r0, [r0, #14]
 528              	.LVL35:
 529              		.loc 1 714 0
 530 0008 E268     		ldr	r2, [r4, #12]
 531              		.loc 1 715 0
 532 000a 0021     		movs	r1, #0
 533              		.loc 1 714 0
 534 000c 22F0C002 		bic	r2, r2, #192
 535 0010 E260     		str	r2, [r4, #12]
 536              		.loc 1 719 0
 537 0012 80B2     		uxth	r0, r0
 538              	.LVL36:
 539              		.loc 1 715 0
 540 0014 D981     		strh	r1, [r3, #14]	@ movhi
 541              		.loc 1 716 0
 542 0016 1961     		str	r1, [r3, #16]
 543              		.loc 1 719 0
 544 0018 5DF8044B 		ldr	r4, [sp], #4
 545              		.cfi_restore 4
 546              		.cfi_def_cfa_offset 0
 547 001c 7047     		bx	lr
 548              		.cfi_endproc
 549              	.LFE264:
 550              		.size	uart_lld_stop_send, .-uart_lld_stop_send
 551 001e 00BF     		.section	.text.uart_lld_start_receive,"ax",%progbits
 552              		.align	2
 553              		.p2align 4,,15
 554              		.global	uart_lld_start_receive
 555              		.thumb
 556              		.thumb_func
 557              		.type	uart_lld_start_receive, %function
 558              	uart_lld_start_receive:
 559              	.LFB265:
 560              		.loc 1 732 0
 561              		.cfi_startproc
 562              		@ args = 0, pretend = 0, frame = 0
 563              		@ frame_needed = 0, uses_anonymous_args = 0
 564              	.LVL37:
 565 0000 70B5     		push	{r4, r5, r6, lr}
ARM GAS  C:\Users\jo\AppData\Local\Temp\ccTgSZM2.s 			page 11


 566              		.cfi_def_cfa_offset 16
 567              		.cfi_offset 4, -16
 568              		.cfi_offset 5, -12
 569              		.cfi_offset 6, -8
 570              		.cfi_offset 14, -4
 571              	.LBB68:
 572              	.LBB69:
 573              	.LBB70:
 574              	.LBB71:
 575              	.LBB72:
 576              		.file 2 "../../../os/ext/CMSIS/include/core_cmFunc.h"
 577              		.loc 2 546 0
 578 0002 2023     		movs	r3, #32
 579              	.LBE72:
 580              	.LBE71:
 581              	.LBE70:
 582              	.LBE69:
 583              	.LBE68:
 584              		.loc 1 732 0
 585 0004 0446     		mov	r4, r0
 586 0006 0D46     		mov	r5, r1
 587 0008 1646     		mov	r6, r2
 588              	.LBB78:
 589              	.LBB76:
 590              	.LBB75:
 591              	.LBB74:
 592              	.LBB73:
 593              		.loc 2 546 0
 594              	@ 546 "../../../os/ext/CMSIS/include/core_cmFunc.h" 1
 595 000a 83F31188 		MSR basepri, r3
 596              	@ 0 "" 2
 597              		.thumb
 598              	.LBE73:
 599              	.LBE74:
 600              	.LBE75:
 601              		.file 3 "../../../os/rt/include/chsys.h"
 602              		.loc 3 300 0
 603 000e FFF7FEFF 		bl	_stats_start_measure_crit_thd
 604              	.LVL38:
 605              	.LBE76:
 606              	.LBE78:
 607              		.loc 1 748 0
 608 0012 ADB2     		uxth	r5, r5
 609              	.LVL39:
 610              	.LBB79:
 611              	.LBB77:
 612              		.loc 3 301 0
 613 0014 FFF7FEFF 		bl	_dbg_check_lock
 614              	.LVL40:
 615              	.LBE77:
 616              	.LBE79:
 617              		.loc 1 749 0
 618 0018 0123     		movs	r3, #1
 619 001a A370     		strb	r3, [r4, #2]
 620              		.loc 1 748 0
 621 001c A582     		strh	r5, [r4, #20]	@ movhi
 622              		.loc 1 747 0
ARM GAS  C:\Users\jo\AppData\Local\Temp\ccTgSZM2.s 			page 12


 623 001e A661     		str	r6, [r4, #24]
 624              	.LBB80:
 625              	.LBB81:
 626              		.loc 3 311 0
 627 0020 FFF7FEFF 		bl	_dbg_check_unlock
 628              	.LVL41:
 629              		.loc 3 312 0
 630 0024 FFF7FEFF 		bl	_stats_stop_measure_crit_thd
 631              	.LVL42:
 632              		.loc 3 318 0
 633 0028 084B     		ldr	r3, .L96
 634 002a 9A69     		ldr	r2, [r3, #24]
 635 002c 1B68     		ldr	r3, [r3]
 636 002e 9268     		ldr	r2, [r2, #8]
 637 0030 9B68     		ldr	r3, [r3, #8]
 638 0032 9A42     		cmp	r2, r3
 639 0034 06D2     		bcs	.L94
 640 0036 0648     		ldr	r0, .L96+4
 641 0038 FFF7FEFF 		bl	puts
 642              	.LVL43:
 643              	@ 318 "../../../os/rt/include/chsys.h" 1
 644 003c 00BE     		BKPT #0
 645              	
 646              	@ 0 "" 2
 647              		.thumb
 648 003e 0548     		ldr	r0, .L96+8
 649 0040 FFF7FEFF 		bl	chSysHalt
 650              	.LVL44:
 651              	.L94:
 652              	.LBB82:
 653              	.LBB83:
 654              	.LBB84:
 655              		.loc 2 546 0
 656 0044 0023     		movs	r3, #0
 657              	@ 546 "../../../os/ext/CMSIS/include/core_cmFunc.h" 1
 658 0046 83F31188 		MSR basepri, r3
 659              	@ 0 "" 2
 660              		.thumb
 661 004a 70BD     		pop	{r4, r5, r6, pc}
 662              	.LVL45:
 663              	.L97:
 664              		.align	2
 665              	.L96:
 666 004c 00000000 		.word	ch
 667 0050 00000000 		.word	.LC0
 668 0054 00000000 		.word	.LANCHOR1
 669              	.LBE84:
 670              	.LBE83:
 671              	.LBE82:
 672              	.LBE81:
 673              	.LBE80:
 674              		.cfi_endproc
 675              	.LFE265:
 676              		.size	uart_lld_start_receive, .-uart_lld_start_receive
 677 0058 AFF30080 		.section	.text.uart_lld_stop_receive,"ax",%progbits
 677      AFF30080 
 678              		.align	2
ARM GAS  C:\Users\jo\AppData\Local\Temp\ccTgSZM2.s 			page 13


 679              		.p2align 4,,15
 680              		.global	uart_lld_stop_receive
 681              		.thumb
 682              		.thumb_func
 683              		.type	uart_lld_stop_receive, %function
 684              	uart_lld_stop_receive:
 685              	.LFB266:
 686              		.loc 1 765 0
 687              		.cfi_startproc
 688              		@ args = 0, pretend = 0, frame = 0
 689              		@ frame_needed = 0, uses_anonymous_args = 0
 690              	.LVL46:
 691 0000 10B5     		push	{r4, lr}
 692              		.cfi_def_cfa_offset 8
 693              		.cfi_offset 4, -8
 694              		.cfi_offset 14, -4
 695              	.LBB95:
 696              	.LBB96:
 697              	.LBB97:
 698              	.LBB98:
 699              	.LBB99:
 700              		.loc 2 546 0
 701 0002 2023     		movs	r3, #32
 702              	.LBE99:
 703              	.LBE98:
 704              	.LBE97:
 705              	.LBE96:
 706              	.LBE95:
 707              		.loc 1 765 0
 708 0004 0446     		mov	r4, r0
 709              	.LBB104:
 710              	.LBB103:
 711              	.LBB102:
 712              	.LBB101:
 713              	.LBB100:
 714              		.loc 2 546 0
 715              	@ 546 "../../../os/ext/CMSIS/include/core_cmFunc.h" 1
 716 0006 83F31188 		MSR basepri, r3
 717              	@ 0 "" 2
 718              		.thumb
 719              	.LBE100:
 720              	.LBE101:
 721              	.LBE102:
 722              		.loc 3 300 0
 723 000a FFF7FEFF 		bl	_stats_start_measure_crit_thd
 724              	.LVL47:
 725              		.loc 3 301 0
 726 000e FFF7FEFF 		bl	_dbg_check_lock
 727              	.LVL48:
 728              	.LBE103:
 729              	.LBE104:
 730              		.loc 1 775 0
 731 0012 0022     		movs	r2, #0
 732              		.loc 1 776 0
 733 0014 A38A     		ldrh	r3, [r4, #20]
 734              		.loc 1 775 0
 735 0016 A261     		str	r2, [r4, #24]
ARM GAS  C:\Users\jo\AppData\Local\Temp\ccTgSZM2.s 			page 14


 736              		.loc 1 777 0
 737 0018 A282     		strh	r2, [r4, #20]	@ movhi
 738              		.loc 1 778 0
 739 001a A270     		strb	r2, [r4, #2]
 740              		.loc 1 776 0
 741 001c 9CB2     		uxth	r4, r3
 742              	.LVL49:
 743              	.LBB105:
 744              	.LBB106:
 745              		.loc 3 311 0
 746 001e FFF7FEFF 		bl	_dbg_check_unlock
 747              	.LVL50:
 748              		.loc 3 312 0
 749 0022 FFF7FEFF 		bl	_stats_stop_measure_crit_thd
 750              	.LVL51:
 751              		.loc 3 318 0
 752 0026 094B     		ldr	r3, .L101
 753 0028 9A69     		ldr	r2, [r3, #24]
 754 002a 1B68     		ldr	r3, [r3]
 755 002c 9268     		ldr	r2, [r2, #8]
 756 002e 9B68     		ldr	r3, [r3, #8]
 757 0030 9A42     		cmp	r2, r3
 758 0032 06D2     		bcs	.L99
 759 0034 0648     		ldr	r0, .L101+4
 760 0036 FFF7FEFF 		bl	puts
 761              	.LVL52:
 762              	@ 318 "../../../os/rt/include/chsys.h" 1
 763 003a 00BE     		BKPT #0
 764              	
 765              	@ 0 "" 2
 766              		.thumb
 767 003c 0548     		ldr	r0, .L101+8
 768 003e FFF7FEFF 		bl	chSysHalt
 769              	.LVL53:
 770              	.L99:
 771              	.LBB107:
 772              	.LBB108:
 773              	.LBB109:
 774              		.loc 2 546 0
 775 0042 0023     		movs	r3, #0
 776              	@ 546 "../../../os/ext/CMSIS/include/core_cmFunc.h" 1
 777 0044 83F31188 		MSR basepri, r3
 778              	@ 0 "" 2
 779              		.thumb
 780              	.LBE109:
 781              	.LBE108:
 782              	.LBE107:
 783              	.LBE106:
 784              	.LBE105:
 785              		.loc 1 782 0
 786 0048 2046     		mov	r0, r4
 787 004a 10BD     		pop	{r4, pc}
 788              	.LVL54:
 789              	.L102:
 790              		.align	2
 791              	.L101:
 792 004c 00000000 		.word	ch
ARM GAS  C:\Users\jo\AppData\Local\Temp\ccTgSZM2.s 			page 15


 793 0050 00000000 		.word	.LC0
 794 0054 00000000 		.word	.LANCHOR1
 795              		.cfi_endproc
 796              	.LFE266:
 797              		.size	uart_lld_stop_receive, .-uart_lld_stop_receive
 798              		.global	UARTD3
 799 0058 AFF30080 		.section	.rodata.str1.4,"aMS",%progbits,1
 799      AFF30080 
 800              		.align	2
 801              	.LC0:
 802 0000 7072696F 		.ascii	"priority violation, missing reschedule\000"
 802      72697479 
 802      2076696F 
 802      6C617469 
 802      6F6E2C20 
 803 0027 00       		.section	.bss.UARTD3,"aw",%nobits
 804              		.align	2
 805              		.set	.LANCHOR0,. + 0
 806              		.type	UARTD3, %object
 807              		.size	UARTD3, 28
 808              	UARTD3:
 809 0000 00000000 		.space	28
 809      00000000 
 809      00000000 
 809      00000000 
 809      00000000 
 810              		.section	.rodata.__func__.6751,"a",%progbits
 811              		.align	2
 812              		.set	.LANCHOR1,. + 0
 813              		.type	__func__.6751, %object
 814              		.size	__func__.6751, 12
 815              	__func__.6751:
 816 0000 63685379 		.ascii	"chSysUnlock\000"
 816      73556E6C 
 816      6F636B00 
 817              		.text
 818              	.Letext0:
 819              		.file 4 "c:\\program files\\gnu tools arm embedded\\4.9 2014q4\\lib\\gcc\\arm-none-eabi\\4.9.3\\in
 820              		.file 5 "c:\\program files\\gnu tools arm embedded\\4.9 2014q4\\arm-none-eabi\\include\\machine\\_
 821              		.file 6 "c:\\program files\\gnu tools arm embedded\\4.9 2014q4\\arm-none-eabi\\include\\stdint.h"
 822              		.file 7 "../../../os/rt/ports/ARMCMx/compilers/GCC/chtypes.h"
 823              		.file 8 "../../../os/rt/include/chsystypes.h"
 824              		.file 9 "../../../os/rt/include/chschd.h"
 825              		.file 10 "../../../os/ext/CMSIS/ST/stm32f407xx.h"
 826              		.file 11 "../../../os/rt/ports/ARMCMx/chcore.h"
 827              		.file 12 "../../../os/rt/ports/ARMCMx/chcore_v7m.h"
 828              		.file 13 "../../../os/rt/include/chdebug.h"
 829              		.file 14 "../../../os/rt/include/chtm.h"
 830              		.file 15 "../../../os/rt/include/chstats.h"
 831              		.file 16 "../../../os/rt/include/chmtx.h"
 832              		.file 17 "../../../os/hal/ports/STM32/LLD/GPIOv2/pal_lld.h"
 833              		.file 18 "../../../os/hal/include/uart.h"
 834              		.file 19 "../../../os/hal/ports/STM32/LLD/USARTv1/uart_lld.h"
 835              		.file 20 "../../../os/ext/CMSIS/include/core_cm4.h"
 836              		.file 21 "../../../os/hal/ports/common/ARMCMx/nvic.h"
 837              		.file 22 "<built-in>"
 838              		.section	.debug_info,"",%progbits
ARM GAS  C:\Users\jo\AppData\Local\Temp\ccTgSZM2.s 			page 16


 839              	.Ldebug_info0:
 840 0000 20130000 		.4byte	0x1320
 841 0004 0400     		.2byte	0x4
 842 0006 00000000 		.4byte	.Ldebug_abbrev0
 843 000a 04       		.byte	0x4
 844 000b 01       		.uleb128 0x1
 845 000c 16090000 		.4byte	.LASF233
 846 0010 01       		.byte	0x1
 847 0011 45000000 		.4byte	.LASF234
 848 0015 C20A0000 		.4byte	.LASF235
 849 0019 C0000000 		.4byte	.Ldebug_ranges0+0xc0
 850 001d 00000000 		.4byte	0
 851 0021 00000000 		.4byte	.Ldebug_line0
 852 0025 02       		.uleb128 0x2
 853 0026 04       		.byte	0x4
 854 0027 05       		.byte	0x5
 855 0028 696E7400 		.ascii	"int\000"
 856 002c 03       		.uleb128 0x3
 857 002d 08000000 		.4byte	.LASF2
 858 0031 04       		.byte	0x4
 859 0032 D4       		.byte	0xd4
 860 0033 37000000 		.4byte	0x37
 861 0037 04       		.uleb128 0x4
 862 0038 04       		.byte	0x4
 863 0039 07       		.byte	0x7
 864 003a 1C060000 		.4byte	.LASF0
 865 003e 04       		.uleb128 0x4
 866 003f 01       		.byte	0x1
 867 0040 06       		.byte	0x6
 868 0041 27020000 		.4byte	.LASF1
 869 0045 03       		.uleb128 0x3
 870 0046 35010000 		.4byte	.LASF3
 871 004a 05       		.byte	0x5
 872 004b 1D       		.byte	0x1d
 873 004c 50000000 		.4byte	0x50
 874 0050 04       		.uleb128 0x4
 875 0051 01       		.byte	0x1
 876 0052 08       		.byte	0x8
 877 0053 6A020000 		.4byte	.LASF4
 878 0057 04       		.uleb128 0x4
 879 0058 02       		.byte	0x2
 880 0059 05       		.byte	0x5
 881 005a 8F080000 		.4byte	.LASF5
 882 005e 03       		.uleb128 0x3
 883 005f 00030000 		.4byte	.LASF6
 884 0063 05       		.byte	0x5
 885 0064 2B       		.byte	0x2b
 886 0065 69000000 		.4byte	0x69
 887 0069 04       		.uleb128 0x4
 888 006a 02       		.byte	0x2
 889 006b 07       		.byte	0x7
 890 006c 3F0A0000 		.4byte	.LASF7
 891 0070 03       		.uleb128 0x3
 892 0071 820A0000 		.4byte	.LASF8
 893 0075 05       		.byte	0x5
 894 0076 3F       		.byte	0x3f
 895 0077 7B000000 		.4byte	0x7b
ARM GAS  C:\Users\jo\AppData\Local\Temp\ccTgSZM2.s 			page 17


 896 007b 04       		.uleb128 0x4
 897 007c 04       		.byte	0x4
 898 007d 05       		.byte	0x5
 899 007e 7C010000 		.4byte	.LASF9
 900 0082 03       		.uleb128 0x3
 901 0083 4E050000 		.4byte	.LASF10
 902 0087 05       		.byte	0x5
 903 0088 41       		.byte	0x41
 904 0089 8D000000 		.4byte	0x8d
 905 008d 04       		.uleb128 0x4
 906 008e 04       		.byte	0x4
 907 008f 07       		.byte	0x7
 908 0090 10040000 		.4byte	.LASF11
 909 0094 04       		.uleb128 0x4
 910 0095 08       		.byte	0x8
 911 0096 05       		.byte	0x5
 912 0097 59050000 		.4byte	.LASF12
 913 009b 03       		.uleb128 0x3
 914 009c F9030000 		.4byte	.LASF13
 915 00a0 05       		.byte	0x5
 916 00a1 5B       		.byte	0x5b
 917 00a2 A6000000 		.4byte	0xa6
 918 00a6 04       		.uleb128 0x4
 919 00a7 08       		.byte	0x8
 920 00a8 07       		.byte	0x7
 921 00a9 13070000 		.4byte	.LASF14
 922 00ad 03       		.uleb128 0x3
 923 00ae 3A020000 		.4byte	.LASF15
 924 00b2 06       		.byte	0x6
 925 00b3 15       		.byte	0x15
 926 00b4 45000000 		.4byte	0x45
 927 00b8 03       		.uleb128 0x3
 928 00b9 42070000 		.4byte	.LASF16
 929 00bd 06       		.byte	0x6
 930 00be 21       		.byte	0x21
 931 00bf 5E000000 		.4byte	0x5e
 932 00c3 03       		.uleb128 0x3
 933 00c4 89000000 		.4byte	.LASF17
 934 00c8 06       		.byte	0x6
 935 00c9 2C       		.byte	0x2c
 936 00ca 70000000 		.4byte	0x70
 937 00ce 03       		.uleb128 0x3
 938 00cf 140A0000 		.4byte	.LASF18
 939 00d3 06       		.byte	0x6
 940 00d4 2D       		.byte	0x2d
 941 00d5 82000000 		.4byte	0x82
 942 00d9 03       		.uleb128 0x3
 943 00da 99080000 		.4byte	.LASF19
 944 00de 06       		.byte	0x6
 945 00df 39       		.byte	0x39
 946 00e0 9B000000 		.4byte	0x9b
 947 00e4 05       		.uleb128 0x5
 948 00e5 AD000000 		.4byte	0xad
 949 00e9 05       		.uleb128 0x5
 950 00ea B8000000 		.4byte	0xb8
 951 00ee 05       		.uleb128 0x5
 952 00ef C3000000 		.4byte	0xc3
ARM GAS  C:\Users\jo\AppData\Local\Temp\ccTgSZM2.s 			page 18


 953 00f3 05       		.uleb128 0x5
 954 00f4 CE000000 		.4byte	0xce
 955 00f8 03       		.uleb128 0x3
 956 00f9 29060000 		.4byte	.LASF20
 957 00fd 07       		.byte	0x7
 958 00fe 45       		.byte	0x45
 959 00ff CE000000 		.4byte	0xce
 960 0103 03       		.uleb128 0x3
 961 0104 BC010000 		.4byte	.LASF21
 962 0108 07       		.byte	0x7
 963 0109 46       		.byte	0x46
 964 010a D9000000 		.4byte	0xd9
 965 010e 03       		.uleb128 0x3
 966 010f 32080000 		.4byte	.LASF22
 967 0113 07       		.byte	0x7
 968 0114 48       		.byte	0x48
 969 0115 AD000000 		.4byte	0xad
 970 0119 03       		.uleb128 0x3
 971 011a B3010000 		.4byte	.LASF23
 972 011e 07       		.byte	0x7
 973 011f 49       		.byte	0x49
 974 0120 AD000000 		.4byte	0xad
 975 0124 03       		.uleb128 0x3
 976 0125 EB080000 		.4byte	.LASF24
 977 0129 07       		.byte	0x7
 978 012a 4A       		.byte	0x4a
 979 012b AD000000 		.4byte	0xad
 980 012f 03       		.uleb128 0x3
 981 0130 3D000000 		.4byte	.LASF25
 982 0134 07       		.byte	0x7
 983 0135 4C       		.byte	0x4c
 984 0136 CE000000 		.4byte	0xce
 985 013a 03       		.uleb128 0x3
 986 013b 5A070000 		.4byte	.LASF26
 987 013f 07       		.byte	0x7
 988 0140 4D       		.byte	0x4d
 989 0141 C3000000 		.4byte	0xc3
 990 0145 03       		.uleb128 0x3
 991 0146 42020000 		.4byte	.LASF27
 992 014a 07       		.byte	0x7
 993 014b 4F       		.byte	0x4f
 994 014c CE000000 		.4byte	0xce
 995 0150 03       		.uleb128 0x3
 996 0151 62030000 		.4byte	.LASF28
 997 0155 07       		.byte	0x7
 998 0156 51       		.byte	0x51
 999 0157 C3000000 		.4byte	0xc3
 1000 015b 03       		.uleb128 0x3
 1001 015c B4040000 		.4byte	.LASF29
 1002 0160 07       		.byte	0x7
 1003 0161 52       		.byte	0x52
 1004 0162 CE000000 		.4byte	0xce
 1005 0166 03       		.uleb128 0x3
 1006 0167 18000000 		.4byte	.LASF30
 1007 016b 08       		.byte	0x8
 1008 016c 33       		.byte	0x33
 1009 016d CE000000 		.4byte	0xce
ARM GAS  C:\Users\jo\AppData\Local\Temp\ccTgSZM2.s 			page 19


 1010 0171 03       		.uleb128 0x3
 1011 0172 8C060000 		.4byte	.LASF31
 1012 0176 08       		.byte	0x8
 1013 0177 3F       		.byte	0x3f
 1014 0178 7C010000 		.4byte	0x17c
 1015 017c 06       		.uleb128 0x6
 1016 017d 37040000 		.4byte	.LASF52
 1017 0181 60       		.byte	0x60
 1018 0182 09       		.byte	0x9
 1019 0183 BE       		.byte	0xbe
 1020 0184 82020000 		.4byte	0x282
 1021 0188 07       		.uleb128 0x7
 1022 0189 85010000 		.4byte	.LASF32
 1023 018d 09       		.byte	0x9
 1024 018e BF       		.byte	0xbf
 1025 018f E4070000 		.4byte	0x7e4
 1026 0193 00       		.byte	0
 1027 0194 07       		.uleb128 0x7
 1028 0195 AC010000 		.4byte	.LASF33
 1029 0199 09       		.byte	0x9
 1030 019a C1       		.byte	0xc1
 1031 019b E4070000 		.4byte	0x7e4
 1032 019f 04       		.byte	0x4
 1033 01a0 07       		.uleb128 0x7
 1034 01a1 F9020000 		.4byte	.LASF34
 1035 01a5 09       		.byte	0x9
 1036 01a6 C3       		.byte	0xc3
 1037 01a7 2F010000 		.4byte	0x12f
 1038 01ab 08       		.byte	0x8
 1039 01ac 07       		.uleb128 0x7
 1040 01ad 37000000 		.4byte	.LASF35
 1041 01b1 09       		.byte	0x9
 1042 01b2 C4       		.byte	0xc4
 1043 01b3 FF060000 		.4byte	0x6ff
 1044 01b7 0C       		.byte	0xc
 1045 01b8 07       		.uleb128 0x7
 1046 01b9 69010000 		.4byte	.LASF36
 1047 01bd 09       		.byte	0x9
 1048 01be C6       		.byte	0xc6
 1049 01bf E4070000 		.4byte	0x7e4
 1050 01c3 10       		.byte	0x10
 1051 01c4 07       		.uleb128 0x7
 1052 01c5 3A070000 		.4byte	.LASF37
 1053 01c9 09       		.byte	0x9
 1054 01ca C7       		.byte	0xc7
 1055 01cb E4070000 		.4byte	0x7e4
 1056 01cf 14       		.byte	0x14
 1057 01d0 07       		.uleb128 0x7
 1058 01d1 9F0A0000 		.4byte	.LASF38
 1059 01d5 09       		.byte	0x9
 1060 01d6 CE       		.byte	0xce
 1061 01d7 A0070000 		.4byte	0x7a0
 1062 01db 18       		.byte	0x18
 1063 01dc 07       		.uleb128 0x7
 1064 01dd 700A0000 		.4byte	.LASF39
 1065 01e1 09       		.byte	0x9
 1066 01e2 D4       		.byte	0xd4
ARM GAS  C:\Users\jo\AppData\Local\Temp\ccTgSZM2.s 			page 20


 1067 01e3 2E090000 		.4byte	0x92e
 1068 01e7 1C       		.byte	0x1c
 1069 01e8 07       		.uleb128 0x7
 1070 01e9 2A0B0000 		.4byte	.LASF40
 1071 01ed 09       		.byte	0x9
 1072 01ee D9       		.byte	0xd9
 1073 01ef 19010000 		.4byte	0x119
 1074 01f3 20       		.byte	0x20
 1075 01f4 07       		.uleb128 0x7
 1076 01f5 FC050000 		.4byte	.LASF41
 1077 01f9 09       		.byte	0x9
 1078 01fa DD       		.byte	0xdd
 1079 01fb 0E010000 		.4byte	0x10e
 1080 01ff 21       		.byte	0x21
 1081 0200 07       		.uleb128 0x7
 1082 0201 39060000 		.4byte	.LASF42
 1083 0205 09       		.byte	0x9
 1084 0206 E2       		.byte	0xe2
 1085 0207 24010000 		.4byte	0x124
 1086 020b 22       		.byte	0x22
 1087 020c 08       		.uleb128 0x8
 1088 020d 705F7500 		.ascii	"p_u\000"
 1089 0211 09       		.byte	0x9
 1090 0212 1401     		.2byte	0x114
 1091 0214 F6080000 		.4byte	0x8f6
 1092 0218 24       		.byte	0x24
 1093 0219 09       		.uleb128 0x9
 1094 021a DC050000 		.4byte	.LASF43
 1095 021e 09       		.byte	0x9
 1096 021f 1901     		.2byte	0x119
 1097 0221 82020000 		.4byte	0x282
 1098 0225 28       		.byte	0x28
 1099 0226 09       		.uleb128 0x9
 1100 0227 78000000 		.4byte	.LASF44
 1101 022b 09       		.byte	0x9
 1102 022c 1F01     		.2byte	0x11f
 1103 022e A6020000 		.4byte	0x2a6
 1104 0232 2C       		.byte	0x2c
 1105 0233 09       		.uleb128 0x9
 1106 0234 240B0000 		.4byte	.LASF45
 1107 0238 09       		.byte	0x9
 1108 0239 2301     		.2byte	0x123
 1109 023b 3A010000 		.4byte	0x13a
 1110 023f 34       		.byte	0x34
 1111 0240 09       		.uleb128 0x9
 1112 0241 92030000 		.4byte	.LASF46
 1113 0245 09       		.byte	0x9
 1114 0246 2901     		.2byte	0x129
 1115 0248 45010000 		.4byte	0x145
 1116 024c 38       		.byte	0x38
 1117 024d 09       		.uleb128 0x9
 1118 024e D5010000 		.4byte	.LASF47
 1119 0252 09       		.byte	0x9
 1120 0253 3001     		.2byte	0x130
 1121 0255 65090000 		.4byte	0x965
 1122 0259 3C       		.byte	0x3c
 1123 025a 09       		.uleb128 0x9
ARM GAS  C:\Users\jo\AppData\Local\Temp\ccTgSZM2.s 			page 21


 1124 025b A7060000 		.4byte	.LASF48
 1125 025f 09       		.byte	0x9
 1126 0260 3401     		.2byte	0x134
 1127 0262 2F010000 		.4byte	0x12f
 1128 0266 40       		.byte	0x40
 1129 0267 09       		.uleb128 0x9
 1130 0268 31060000 		.4byte	.LASF49
 1131 026c 09       		.byte	0x9
 1132 026d 3A01     		.2byte	0x13a
 1133 026f 59030000 		.4byte	0x359
 1134 0273 44       		.byte	0x44
 1135 0274 09       		.uleb128 0x9
 1136 0275 00000000 		.4byte	.LASF50
 1137 0279 09       		.byte	0x9
 1138 027a 4001     		.2byte	0x140
 1139 027c A7080000 		.4byte	0x8a7
 1140 0280 48       		.byte	0x48
 1141 0281 00       		.byte	0
 1142 0282 03       		.uleb128 0x3
 1143 0283 07090000 		.4byte	.LASF51
 1144 0287 08       		.byte	0x8
 1145 0288 44       		.byte	0x44
 1146 0289 8D020000 		.4byte	0x28d
 1147 028d 06       		.uleb128 0x6
 1148 028e EB040000 		.4byte	.LASF53
 1149 0292 04       		.byte	0x4
 1150 0293 09       		.byte	0x9
 1151 0294 AC       		.byte	0xac
 1152 0295 A6020000 		.4byte	0x2a6
 1153 0299 07       		.uleb128 0x7
 1154 029a 85010000 		.4byte	.LASF32
 1155 029e 09       		.byte	0x9
 1156 029f AD       		.byte	0xad
 1157 02a0 E4070000 		.4byte	0x7e4
 1158 02a4 00       		.byte	0
 1159 02a5 00       		.byte	0
 1160 02a6 03       		.uleb128 0x3
 1161 02a7 C5010000 		.4byte	.LASF54
 1162 02ab 08       		.byte	0x8
 1163 02ac 4B       		.byte	0x4b
 1164 02ad B1020000 		.4byte	0x2b1
 1165 02b1 06       		.uleb128 0x6
 1166 02b2 60070000 		.4byte	.LASF55
 1167 02b6 08       		.byte	0x8
 1168 02b7 09       		.byte	0x9
 1169 02b8 B3       		.byte	0xb3
 1170 02b9 D6020000 		.4byte	0x2d6
 1171 02bd 07       		.uleb128 0x7
 1172 02be 85010000 		.4byte	.LASF32
 1173 02c2 09       		.byte	0x9
 1174 02c3 B4       		.byte	0xb4
 1175 02c4 E4070000 		.4byte	0x7e4
 1176 02c8 00       		.byte	0
 1177 02c9 07       		.uleb128 0x7
 1178 02ca AC010000 		.4byte	.LASF33
 1179 02ce 09       		.byte	0x9
 1180 02cf B5       		.byte	0xb5
ARM GAS  C:\Users\jo\AppData\Local\Temp\ccTgSZM2.s 			page 22


 1181 02d0 E4070000 		.4byte	0x7e4
 1182 02d4 04       		.byte	0x4
 1183 02d5 00       		.byte	0
 1184 02d6 03       		.uleb128 0x3
 1185 02d7 87040000 		.4byte	.LASF56
 1186 02db 08       		.byte	0x8
 1187 02dc 52       		.byte	0x52
 1188 02dd E1020000 		.4byte	0x2e1
 1189 02e1 0A       		.uleb128 0xa
 1190 02e2 9D030000 		.4byte	.LASF57
 1191 02e6 1C       		.byte	0x1c
 1192 02e7 09       		.byte	0x9
 1193 02e8 7201     		.2byte	0x172
 1194 02ea 3D030000 		.4byte	0x33d
 1195 02ee 09       		.uleb128 0x9
 1196 02ef 13080000 		.4byte	.LASF58
 1197 02f3 09       		.byte	0x9
 1198 02f4 7301     		.2byte	0x173
 1199 02f6 A6020000 		.4byte	0x2a6
 1200 02fa 00       		.byte	0
 1201 02fb 09       		.uleb128 0x9
 1202 02fc AA080000 		.4byte	.LASF59
 1203 0300 09       		.byte	0x9
 1204 0301 7401     		.2byte	0x174
 1205 0303 2F010000 		.4byte	0x12f
 1206 0307 08       		.byte	0x8
 1207 0308 09       		.uleb128 0x9
 1208 0309 83000000 		.4byte	.LASF60
 1209 030d 09       		.byte	0x9
 1210 030e 7601     		.2byte	0x176
 1211 0310 FF060000 		.4byte	0x6ff
 1212 0314 0C       		.byte	0xc
 1213 0315 09       		.uleb128 0x9
 1214 0316 C4020000 		.4byte	.LASF61
 1215 031a 09       		.byte	0x9
 1216 031b 7901     		.2byte	0x179
 1217 031d E4070000 		.4byte	0x7e4
 1218 0321 10       		.byte	0x10
 1219 0322 09       		.uleb128 0x9
 1220 0323 57080000 		.4byte	.LASF62
 1221 0327 09       		.byte	0x9
 1222 0328 7A01     		.2byte	0x17a
 1223 032a E4070000 		.4byte	0x7e4
 1224 032e 14       		.byte	0x14
 1225 032f 09       		.uleb128 0x9
 1226 0330 84070000 		.4byte	.LASF63
 1227 0334 09       		.byte	0x9
 1228 0335 7D01     		.2byte	0x17d
 1229 0337 E4070000 		.4byte	0x7e4
 1230 033b 18       		.byte	0x18
 1231 033c 00       		.byte	0
 1232 033d 03       		.uleb128 0x3
 1233 033e 91000000 		.4byte	.LASF64
 1234 0342 08       		.byte	0x8
 1235 0343 57       		.byte	0x57
 1236 0344 48030000 		.4byte	0x348
 1237 0348 0B       		.uleb128 0xb
ARM GAS  C:\Users\jo\AppData\Local\Temp\ccTgSZM2.s 			page 23


 1238 0349 04       		.byte	0x4
 1239 034a 4E030000 		.4byte	0x34e
 1240 034e 0C       		.uleb128 0xc
 1241 034f 59030000 		.4byte	0x359
 1242 0353 0D       		.uleb128 0xd
 1243 0354 59030000 		.4byte	0x359
 1244 0358 00       		.byte	0
 1245 0359 0E       		.uleb128 0xe
 1246 035a 04       		.byte	0x4
 1247 035b 03       		.uleb128 0x3
 1248 035c 77040000 		.4byte	.LASF65
 1249 0360 08       		.byte	0x8
 1250 0361 5C       		.byte	0x5c
 1251 0362 66030000 		.4byte	0x366
 1252 0366 0A       		.uleb128 0xa
 1253 0367 ED060000 		.4byte	.LASF66
 1254 036b 14       		.byte	0x14
 1255 036c 09       		.byte	0x9
 1256 036d 4D01     		.2byte	0x14d
 1257 036f B5030000 		.4byte	0x3b5
 1258 0373 09       		.uleb128 0x9
 1259 0374 75050000 		.4byte	.LASF67
 1260 0378 09       		.byte	0x9
 1261 0379 4E01     		.2byte	0x14e
 1262 037b 6B090000 		.4byte	0x96b
 1263 037f 00       		.byte	0
 1264 0380 09       		.uleb128 0x9
 1265 0381 92050000 		.4byte	.LASF68
 1266 0385 09       		.byte	0x9
 1267 0386 4F01     		.2byte	0x14f
 1268 0388 6B090000 		.4byte	0x96b
 1269 038c 04       		.byte	0x4
 1270 038d 09       		.uleb128 0x9
 1271 038e DB060000 		.4byte	.LASF69
 1272 0392 09       		.byte	0x9
 1273 0393 5001     		.2byte	0x150
 1274 0395 66010000 		.4byte	0x166
 1275 0399 08       		.byte	0x8
 1276 039a 09       		.uleb128 0x9
 1277 039b 72030000 		.4byte	.LASF70
 1278 039f 09       		.byte	0x9
 1279 03a0 5101     		.2byte	0x151
 1280 03a2 3D030000 		.4byte	0x33d
 1281 03a6 0C       		.byte	0xc
 1282 03a7 09       		.uleb128 0x9
 1283 03a8 19010000 		.4byte	.LASF71
 1284 03ac 09       		.byte	0x9
 1285 03ad 5301     		.2byte	0x153
 1286 03af 59030000 		.4byte	0x359
 1287 03b3 10       		.byte	0x10
 1288 03b4 00       		.byte	0
 1289 03b5 03       		.uleb128 0x3
 1290 03b6 41040000 		.4byte	.LASF72
 1291 03ba 08       		.byte	0x8
 1292 03bb 61       		.byte	0x61
 1293 03bc C0030000 		.4byte	0x3c0
 1294 03c0 0A       		.uleb128 0xa
ARM GAS  C:\Users\jo\AppData\Local\Temp\ccTgSZM2.s 			page 24


 1295 03c1 9A000000 		.4byte	.LASF73
 1296 03c5 10       		.byte	0x10
 1297 03c6 09       		.byte	0x9
 1298 03c7 5D01     		.2byte	0x15d
 1299 03c9 02040000 		.4byte	0x402
 1300 03cd 09       		.uleb128 0x9
 1301 03ce 75050000 		.4byte	.LASF67
 1302 03d2 09       		.byte	0x9
 1303 03d3 5E01     		.2byte	0x15e
 1304 03d5 6B090000 		.4byte	0x96b
 1305 03d9 00       		.byte	0
 1306 03da 09       		.uleb128 0x9
 1307 03db 92050000 		.4byte	.LASF68
 1308 03df 09       		.byte	0x9
 1309 03e0 6001     		.2byte	0x160
 1310 03e2 6B090000 		.4byte	0x96b
 1311 03e6 04       		.byte	0x4
 1312 03e7 09       		.uleb128 0x9
 1313 03e8 DB060000 		.4byte	.LASF69
 1314 03ec 09       		.byte	0x9
 1315 03ed 6201     		.2byte	0x162
 1316 03ef 66010000 		.4byte	0x166
 1317 03f3 08       		.byte	0x8
 1318 03f4 09       		.uleb128 0x9
 1319 03f5 330A0000 		.4byte	.LASF74
 1320 03f9 09       		.byte	0x9
 1321 03fa 6A01     		.2byte	0x16a
 1322 03fc 66010000 		.4byte	0x166
 1323 0400 0C       		.byte	0xc
 1324 0401 00       		.byte	0
 1325 0402 03       		.uleb128 0x3
 1326 0403 CC020000 		.4byte	.LASF75
 1327 0407 08       		.byte	0x8
 1328 0408 66       		.byte	0x66
 1329 0409 0D040000 		.4byte	0x40d
 1330 040d 0F       		.uleb128 0xf
 1331 040e BD080000 		.4byte	.LASF76
 1332 0412 1404     		.2byte	0x414
 1333 0414 09       		.byte	0x9
 1334 0415 8401     		.2byte	0x184
 1335 0417 50040000 		.4byte	0x450
 1336 041b 09       		.uleb128 0x9
 1337 041c AD020000 		.4byte	.LASF77
 1338 0420 09       		.byte	0x9
 1339 0421 8C01     		.2byte	0x18c
 1340 0423 71090000 		.4byte	0x971
 1341 0427 00       		.byte	0
 1342 0428 09       		.uleb128 0x9
 1343 0429 C9030000 		.4byte	.LASF78
 1344 042d 09       		.byte	0x9
 1345 042e 9101     		.2byte	0x191
 1346 0430 50010000 		.4byte	0x150
 1347 0434 04       		.byte	0x4
 1348 0435 09       		.uleb128 0x9
 1349 0436 C7000000 		.4byte	.LASF79
 1350 043a 09       		.byte	0x9
 1351 043b 9501     		.2byte	0x195
ARM GAS  C:\Users\jo\AppData\Local\Temp\ccTgSZM2.s 			page 25


 1352 043d 50010000 		.4byte	0x150
 1353 0441 08       		.byte	0x8
 1354 0442 09       		.uleb128 0x9
 1355 0443 B7020000 		.4byte	.LASF80
 1356 0447 09       		.byte	0x9
 1357 0448 9B01     		.2byte	0x19b
 1358 044a 39080000 		.4byte	0x839
 1359 044e 0C       		.byte	0xc
 1360 044f 00       		.byte	0
 1361 0450 03       		.uleb128 0x3
 1362 0451 5A0A0000 		.4byte	.LASF81
 1363 0455 08       		.byte	0x8
 1364 0456 6B       		.byte	0x6b
 1365 0457 5B040000 		.4byte	0x45b
 1366 045b 0F       		.uleb128 0xf
 1367 045c F9090000 		.4byte	.LASF82
 1368 0460 D805     		.2byte	0x5d8
 1369 0462 09       		.byte	0x9
 1370 0463 A401     		.2byte	0x1a4
 1371 0465 C8040000 		.4byte	0x4c8
 1372 0469 09       		.uleb128 0x9
 1373 046a 2C080000 		.4byte	.LASF83
 1374 046e 09       		.byte	0x9
 1375 046f A801     		.2byte	0x1a8
 1376 0471 D6020000 		.4byte	0x2d6
 1377 0475 00       		.byte	0
 1378 0476 09       		.uleb128 0x9
 1379 0477 D2080000 		.4byte	.LASF84
 1380 047b 09       		.byte	0x9
 1381 047c AC01     		.2byte	0x1ac
 1382 047e B5030000 		.4byte	0x3b5
 1383 0482 1C       		.byte	0x1c
 1384 0483 08       		.uleb128 0x8
 1385 0484 64626700 		.ascii	"dbg\000"
 1386 0488 09       		.byte	0x9
 1387 0489 B001     		.2byte	0x1b0
 1388 048b 02040000 		.4byte	0x402
 1389 048f 2C       		.byte	0x2c
 1390 0490 10       		.uleb128 0x10
 1391 0491 CC070000 		.4byte	.LASF85
 1392 0495 09       		.byte	0x9
 1393 0496 B401     		.2byte	0x1b4
 1394 0498 71010000 		.4byte	0x171
 1395 049c 4004     		.2byte	0x440
 1396 049e 11       		.uleb128 0x11
 1397 049f 746D00   		.ascii	"tm\000"
 1398 04a2 09       		.byte	0x9
 1399 04a3 B901     		.2byte	0x1b9
 1400 04a5 59080000 		.4byte	0x859
 1401 04a9 A004     		.2byte	0x4a0
 1402 04ab 10       		.uleb128 0x10
 1403 04ac 06070000 		.4byte	.LASF86
 1404 04b0 09       		.byte	0x9
 1405 04b1 BF01     		.2byte	0x1bf
 1406 04b3 EB080000 		.4byte	0x8eb
 1407 04b7 A804     		.2byte	0x4a8
 1408 04b9 10       		.uleb128 0x10
ARM GAS  C:\Users\jo\AppData\Local\Temp\ccTgSZM2.s 			page 26


 1409 04ba 04060000 		.4byte	.LASF87
 1410 04be 09       		.byte	0x9
 1411 04bf C501     		.2byte	0x1c5
 1412 04c1 76090000 		.4byte	0x976
 1413 04c5 E004     		.2byte	0x4e0
 1414 04c7 00       		.byte	0
 1415 04c8 04       		.uleb128 0x4
 1416 04c9 04       		.byte	0x4
 1417 04ca 07       		.byte	0x7
 1418 04cb 0F000000 		.4byte	.LASF88
 1419 04cf 12       		.uleb128 0x12
 1420 04d0 CE000000 		.4byte	0xce
 1421 04d4 DF040000 		.4byte	0x4df
 1422 04d8 13       		.uleb128 0x13
 1423 04d9 C8040000 		.4byte	0x4c8
 1424 04dd 01       		.byte	0x1
 1425 04de 00       		.byte	0
 1426 04df 14       		.uleb128 0x14
 1427 04e0 88       		.byte	0x88
 1428 04e1 0A       		.byte	0xa
 1429 04e2 6702     		.2byte	0x267
 1430 04e4 6E060000 		.4byte	0x66e
 1431 04e8 08       		.uleb128 0x8
 1432 04e9 435200   		.ascii	"CR\000"
 1433 04ec 0A       		.byte	0xa
 1434 04ed 6902     		.2byte	0x269
 1435 04ef F3000000 		.4byte	0xf3
 1436 04f3 00       		.byte	0
 1437 04f4 09       		.uleb128 0x9
 1438 04f5 40050000 		.4byte	.LASF89
 1439 04f9 0A       		.byte	0xa
 1440 04fa 6A02     		.2byte	0x26a
 1441 04fc F3000000 		.4byte	0xf3
 1442 0500 04       		.byte	0x4
 1443 0501 09       		.uleb128 0x9
 1444 0502 B1030000 		.4byte	.LASF90
 1445 0506 0A       		.byte	0xa
 1446 0507 6B02     		.2byte	0x26b
 1447 0509 F3000000 		.4byte	0xf3
 1448 050d 08       		.byte	0x8
 1449 050e 08       		.uleb128 0x8
 1450 050f 43495200 		.ascii	"CIR\000"
 1451 0513 0A       		.byte	0xa
 1452 0514 6C02     		.2byte	0x26c
 1453 0516 F3000000 		.4byte	0xf3
 1454 051a 0C       		.byte	0xc
 1455 051b 09       		.uleb128 0x9
 1456 051c F0020000 		.4byte	.LASF91
 1457 0520 0A       		.byte	0xa
 1458 0521 6D02     		.2byte	0x26d
 1459 0523 F3000000 		.4byte	0xf3
 1460 0527 10       		.byte	0x10
 1461 0528 09       		.uleb128 0x9
 1462 0529 70080000 		.4byte	.LASF92
 1463 052d 0A       		.byte	0xa
 1464 052e 6E02     		.2byte	0x26e
 1465 0530 F3000000 		.4byte	0xf3
ARM GAS  C:\Users\jo\AppData\Local\Temp\ccTgSZM2.s 			page 27


 1466 0534 14       		.byte	0x14
 1467 0535 09       		.uleb128 0x9
 1468 0536 83060000 		.4byte	.LASF93
 1469 053a 0A       		.byte	0xa
 1470 053b 6F02     		.2byte	0x26f
 1471 053d F3000000 		.4byte	0xf3
 1472 0541 18       		.byte	0x18
 1473 0542 09       		.uleb128 0x9
 1474 0543 56020000 		.4byte	.LASF94
 1475 0547 0A       		.byte	0xa
 1476 0548 7002     		.2byte	0x270
 1477 054a CE000000 		.4byte	0xce
 1478 054e 1C       		.byte	0x1c
 1479 054f 09       		.uleb128 0x9
 1480 0550 E4060000 		.4byte	.LASF95
 1481 0554 0A       		.byte	0xa
 1482 0555 7102     		.2byte	0x271
 1483 0557 F3000000 		.4byte	0xf3
 1484 055b 20       		.byte	0x20
 1485 055c 09       		.uleb128 0x9
 1486 055d 9F050000 		.4byte	.LASF96
 1487 0561 0A       		.byte	0xa
 1488 0562 7202     		.2byte	0x272
 1489 0564 F3000000 		.4byte	0xf3
 1490 0568 24       		.byte	0x24
 1491 0569 09       		.uleb128 0x9
 1492 056a 60020000 		.4byte	.LASF97
 1493 056e 0A       		.byte	0xa
 1494 056f 7302     		.2byte	0x273
 1495 0571 CF040000 		.4byte	0x4cf
 1496 0575 28       		.byte	0x28
 1497 0576 09       		.uleb128 0x9
 1498 0577 3A080000 		.4byte	.LASF98
 1499 057b 0A       		.byte	0xa
 1500 057c 7402     		.2byte	0x274
 1501 057e F3000000 		.4byte	0xf3
 1502 0582 30       		.byte	0x30
 1503 0583 09       		.uleb128 0x9
 1504 0584 0B030000 		.4byte	.LASF99
 1505 0588 0A       		.byte	0xa
 1506 0589 7502     		.2byte	0x275
 1507 058b F3000000 		.4byte	0xf3
 1508 058f 34       		.byte	0x34
 1509 0590 09       		.uleb128 0x9
 1510 0591 4F080000 		.4byte	.LASF100
 1511 0595 0A       		.byte	0xa
 1512 0596 7602     		.2byte	0x276
 1513 0598 F3000000 		.4byte	0xf3
 1514 059c 38       		.byte	0x38
 1515 059d 09       		.uleb128 0x9
 1516 059e E1020000 		.4byte	.LASF101
 1517 05a2 0A       		.byte	0xa
 1518 05a3 7702     		.2byte	0x277
 1519 05a5 CE000000 		.4byte	0xce
 1520 05a9 3C       		.byte	0x3c
 1521 05aa 09       		.uleb128 0x9
 1522 05ab FE060000 		.4byte	.LASF102
ARM GAS  C:\Users\jo\AppData\Local\Temp\ccTgSZM2.s 			page 28


 1523 05af 0A       		.byte	0xa
 1524 05b0 7802     		.2byte	0x278
 1525 05b2 F3000000 		.4byte	0xf3
 1526 05b6 40       		.byte	0x40
 1527 05b7 09       		.uleb128 0x9
 1528 05b8 F6010000 		.4byte	.LASF103
 1529 05bc 0A       		.byte	0xa
 1530 05bd 7902     		.2byte	0x279
 1531 05bf F3000000 		.4byte	0xf3
 1532 05c3 44       		.byte	0x44
 1533 05c4 09       		.uleb128 0x9
 1534 05c5 78020000 		.4byte	.LASF104
 1535 05c9 0A       		.byte	0xa
 1536 05ca 7A02     		.2byte	0x27a
 1537 05cc CF040000 		.4byte	0x4cf
 1538 05d0 48       		.byte	0x48
 1539 05d1 09       		.uleb128 0x9
 1540 05d2 FE010000 		.4byte	.LASF105
 1541 05d6 0A       		.byte	0xa
 1542 05d7 7B02     		.2byte	0x27b
 1543 05d9 F3000000 		.4byte	0xf3
 1544 05dd 50       		.byte	0x50
 1545 05de 09       		.uleb128 0x9
 1546 05df 3F010000 		.4byte	.LASF106
 1547 05e3 0A       		.byte	0xa
 1548 05e4 7C02     		.2byte	0x27c
 1549 05e6 F3000000 		.4byte	0xf3
 1550 05ea 54       		.byte	0x54
 1551 05eb 09       		.uleb128 0x9
 1552 05ec D7070000 		.4byte	.LASF107
 1553 05f0 0A       		.byte	0xa
 1554 05f1 7D02     		.2byte	0x27d
 1555 05f3 F3000000 		.4byte	0xf3
 1556 05f7 58       		.byte	0x58
 1557 05f8 09       		.uleb128 0x9
 1558 05f9 82020000 		.4byte	.LASF108
 1559 05fd 0A       		.byte	0xa
 1560 05fe 7E02     		.2byte	0x27e
 1561 0600 CE000000 		.4byte	0xce
 1562 0604 5C       		.byte	0x5c
 1563 0605 09       		.uleb128 0x9
 1564 0606 6F060000 		.4byte	.LASF109
 1565 060a 0A       		.byte	0xa
 1566 060b 7F02     		.2byte	0x27f
 1567 060d F3000000 		.4byte	0xf3
 1568 0611 60       		.byte	0x60
 1569 0612 09       		.uleb128 0x9
 1570 0613 D2050000 		.4byte	.LASF110
 1571 0617 0A       		.byte	0xa
 1572 0618 8002     		.2byte	0x280
 1573 061a F3000000 		.4byte	0xf3
 1574 061e 64       		.byte	0x64
 1575 061f 09       		.uleb128 0x9
 1576 0620 8C020000 		.4byte	.LASF111
 1577 0624 0A       		.byte	0xa
 1578 0625 8102     		.2byte	0x281
 1579 0627 CF040000 		.4byte	0x4cf
ARM GAS  C:\Users\jo\AppData\Local\Temp\ccTgSZM2.s 			page 29


 1580 062b 68       		.byte	0x68
 1581 062c 09       		.uleb128 0x9
 1582 062d 4F030000 		.4byte	.LASF112
 1583 0631 0A       		.byte	0xa
 1584 0632 8202     		.2byte	0x282
 1585 0634 F3000000 		.4byte	0xf3
 1586 0638 70       		.byte	0x70
 1587 0639 08       		.uleb128 0x8
 1588 063a 43535200 		.ascii	"CSR\000"
 1589 063e 0A       		.byte	0xa
 1590 063f 8302     		.2byte	0x283
 1591 0641 F3000000 		.4byte	0xf3
 1592 0645 74       		.byte	0x74
 1593 0646 09       		.uleb128 0x9
 1594 0647 96020000 		.4byte	.LASF113
 1595 064b 0A       		.byte	0xa
 1596 064c 8402     		.2byte	0x284
 1597 064e CF040000 		.4byte	0x4cf
 1598 0652 78       		.byte	0x78
 1599 0653 09       		.uleb128 0x9
 1600 0654 6F050000 		.4byte	.LASF114
 1601 0658 0A       		.byte	0xa
 1602 0659 8502     		.2byte	0x285
 1603 065b F3000000 		.4byte	0xf3
 1604 065f 80       		.byte	0x80
 1605 0660 09       		.uleb128 0x9
 1606 0661 2C000000 		.4byte	.LASF115
 1607 0665 0A       		.byte	0xa
 1608 0666 8602     		.2byte	0x286
 1609 0668 F3000000 		.4byte	0xf3
 1610 066c 84       		.byte	0x84
 1611 066d 00       		.byte	0
 1612 066e 15       		.uleb128 0x15
 1613 066f 83080000 		.4byte	.LASF116
 1614 0673 0A       		.byte	0xa
 1615 0674 8802     		.2byte	0x288
 1616 0676 DF040000 		.4byte	0x4df
 1617 067a 14       		.uleb128 0x14
 1618 067b 1C       		.byte	0x1c
 1619 067c 0A       		.byte	0xa
 1620 067d 0903     		.2byte	0x309
 1621 067f DD060000 		.4byte	0x6dd
 1622 0683 08       		.uleb128 0x8
 1623 0684 535200   		.ascii	"SR\000"
 1624 0687 0A       		.byte	0xa
 1625 0688 0B03     		.2byte	0x30b
 1626 068a F3000000 		.4byte	0xf3
 1627 068e 00       		.byte	0
 1628 068f 08       		.uleb128 0x8
 1629 0690 445200   		.ascii	"DR\000"
 1630 0693 0A       		.byte	0xa
 1631 0694 0C03     		.2byte	0x30c
 1632 0696 F3000000 		.4byte	0xf3
 1633 069a 04       		.byte	0x4
 1634 069b 08       		.uleb128 0x8
 1635 069c 42525200 		.ascii	"BRR\000"
 1636 06a0 0A       		.byte	0xa
ARM GAS  C:\Users\jo\AppData\Local\Temp\ccTgSZM2.s 			page 30


 1637 06a1 0D03     		.2byte	0x30d
 1638 06a3 F3000000 		.4byte	0xf3
 1639 06a7 08       		.byte	0x8
 1640 06a8 08       		.uleb128 0x8
 1641 06a9 43523100 		.ascii	"CR1\000"
 1642 06ad 0A       		.byte	0xa
 1643 06ae 0E03     		.2byte	0x30e
 1644 06b0 F3000000 		.4byte	0xf3
 1645 06b4 0C       		.byte	0xc
 1646 06b5 08       		.uleb128 0x8
 1647 06b6 43523200 		.ascii	"CR2\000"
 1648 06ba 0A       		.byte	0xa
 1649 06bb 0F03     		.2byte	0x30f
 1650 06bd F3000000 		.4byte	0xf3
 1651 06c1 10       		.byte	0x10
 1652 06c2 08       		.uleb128 0x8
 1653 06c3 43523300 		.ascii	"CR3\000"
 1654 06c7 0A       		.byte	0xa
 1655 06c8 1003     		.2byte	0x310
 1656 06ca F3000000 		.4byte	0xf3
 1657 06ce 14       		.byte	0x14
 1658 06cf 09       		.uleb128 0x9
 1659 06d0 9A050000 		.4byte	.LASF117
 1660 06d4 0A       		.byte	0xa
 1661 06d5 1103     		.2byte	0x311
 1662 06d7 F3000000 		.4byte	0xf3
 1663 06db 18       		.byte	0x18
 1664 06dc 00       		.byte	0
 1665 06dd 15       		.uleb128 0x15
 1666 06de 2E030000 		.4byte	.LASF118
 1667 06e2 0A       		.byte	0xa
 1668 06e3 1203     		.2byte	0x312
 1669 06e5 7A060000 		.4byte	0x67a
 1670 06e9 03       		.uleb128 0x3
 1671 06ea E5010000 		.4byte	.LASF119
 1672 06ee 0B       		.byte	0xb
 1673 06ef 85       		.byte	0x85
 1674 06f0 59030000 		.4byte	0x359
 1675 06f4 03       		.uleb128 0x3
 1676 06f5 23030000 		.4byte	.LASF120
 1677 06f9 0B       		.byte	0xb
 1678 06fa 8D       		.byte	0x8d
 1679 06fb D9000000 		.4byte	0xd9
 1680 06ff 06       		.uleb128 0x6
 1681 0700 4E020000 		.4byte	.LASF121
 1682 0704 04       		.byte	0x4
 1683 0705 0B       		.byte	0xb
 1684 0706 A9       		.byte	0xa9
 1685 0707 18070000 		.4byte	0x718
 1686 070b 16       		.uleb128 0x16
 1687 070c 72313300 		.ascii	"r13\000"
 1688 0710 0B       		.byte	0xb
 1689 0711 AA       		.byte	0xaa
 1690 0712 93070000 		.4byte	0x793
 1691 0716 00       		.byte	0
 1692 0717 00       		.byte	0
 1693 0718 06       		.uleb128 0x6
ARM GAS  C:\Users\jo\AppData\Local\Temp\ccTgSZM2.s 			page 31


 1694 0719 CF060000 		.4byte	.LASF122
 1695 071d 24       		.byte	0x24
 1696 071e 0C       		.byte	0xc
 1697 071f F4       		.byte	0xf4
 1698 0720 93070000 		.4byte	0x793
 1699 0724 08       		.uleb128 0x8
 1700 0725 723400   		.ascii	"r4\000"
 1701 0728 0C       		.byte	0xc
 1702 0729 0701     		.2byte	0x107
 1703 072b E9060000 		.4byte	0x6e9
 1704 072f 00       		.byte	0
 1705 0730 08       		.uleb128 0x8
 1706 0731 723500   		.ascii	"r5\000"
 1707 0734 0C       		.byte	0xc
 1708 0735 0801     		.2byte	0x108
 1709 0737 E9060000 		.4byte	0x6e9
 1710 073b 04       		.byte	0x4
 1711 073c 08       		.uleb128 0x8
 1712 073d 723600   		.ascii	"r6\000"
 1713 0740 0C       		.byte	0xc
 1714 0741 0901     		.2byte	0x109
 1715 0743 E9060000 		.4byte	0x6e9
 1716 0747 08       		.byte	0x8
 1717 0748 08       		.uleb128 0x8
 1718 0749 723700   		.ascii	"r7\000"
 1719 074c 0C       		.byte	0xc
 1720 074d 0A01     		.2byte	0x10a
 1721 074f E9060000 		.4byte	0x6e9
 1722 0753 0C       		.byte	0xc
 1723 0754 08       		.uleb128 0x8
 1724 0755 723800   		.ascii	"r8\000"
 1725 0758 0C       		.byte	0xc
 1726 0759 0B01     		.2byte	0x10b
 1727 075b E9060000 		.4byte	0x6e9
 1728 075f 10       		.byte	0x10
 1729 0760 08       		.uleb128 0x8
 1730 0761 723900   		.ascii	"r9\000"
 1731 0764 0C       		.byte	0xc
 1732 0765 0C01     		.2byte	0x10c
 1733 0767 E9060000 		.4byte	0x6e9
 1734 076b 14       		.byte	0x14
 1735 076c 08       		.uleb128 0x8
 1736 076d 72313000 		.ascii	"r10\000"
 1737 0771 0C       		.byte	0xc
 1738 0772 0D01     		.2byte	0x10d
 1739 0774 E9060000 		.4byte	0x6e9
 1740 0778 18       		.byte	0x18
 1741 0779 08       		.uleb128 0x8
 1742 077a 72313100 		.ascii	"r11\000"
 1743 077e 0C       		.byte	0xc
 1744 077f 0E01     		.2byte	0x10e
 1745 0781 E9060000 		.4byte	0x6e9
 1746 0785 1C       		.byte	0x1c
 1747 0786 08       		.uleb128 0x8
 1748 0787 6C7200   		.ascii	"lr\000"
 1749 078a 0C       		.byte	0xc
 1750 078b 0F01     		.2byte	0x10f
ARM GAS  C:\Users\jo\AppData\Local\Temp\ccTgSZM2.s 			page 32


 1751 078d E9060000 		.4byte	0x6e9
 1752 0791 20       		.byte	0x20
 1753 0792 00       		.byte	0
 1754 0793 0B       		.uleb128 0xb
 1755 0794 04       		.byte	0x4
 1756 0795 18070000 		.4byte	0x718
 1757 0799 04       		.uleb128 0x4
 1758 079a 01       		.byte	0x1
 1759 079b 08       		.byte	0x8
 1760 079c EB020000 		.4byte	.LASF123
 1761 07a0 0B       		.uleb128 0xb
 1762 07a1 04       		.byte	0x4
 1763 07a2 A6070000 		.4byte	0x7a6
 1764 07a6 17       		.uleb128 0x17
 1765 07a7 99070000 		.4byte	0x799
 1766 07ab 18       		.uleb128 0x18
 1767 07ac 10       		.byte	0x10
 1768 07ad 0D       		.byte	0xd
 1769 07ae 57       		.byte	0x57
 1770 07af E4070000 		.4byte	0x7e4
 1771 07b3 07       		.uleb128 0x7
 1772 07b4 970A0000 		.4byte	.LASF124
 1773 07b8 0D       		.byte	0xd
 1774 07b9 5B       		.byte	0x5b
 1775 07ba 66010000 		.4byte	0x166
 1776 07be 00       		.byte	0
 1777 07bf 07       		.uleb128 0x7
 1778 07c0 DD000000 		.4byte	.LASF125
 1779 07c4 0D       		.byte	0xd
 1780 07c5 5F       		.byte	0x5f
 1781 07c6 E4070000 		.4byte	0x7e4
 1782 07ca 04       		.byte	0x4
 1783 07cb 07       		.uleb128 0x7
 1784 07cc F2050000 		.4byte	.LASF126
 1785 07d0 0D       		.byte	0xd
 1786 07d1 63       		.byte	0x63
 1787 07d2 59030000 		.4byte	0x359
 1788 07d6 08       		.byte	0x8
 1789 07d7 07       		.uleb128 0x7
 1790 07d8 DC030000 		.4byte	.LASF127
 1791 07dc 0D       		.byte	0xd
 1792 07dd 67       		.byte	0x67
 1793 07de AD000000 		.4byte	0xad
 1794 07e2 0C       		.byte	0xc
 1795 07e3 00       		.byte	0
 1796 07e4 0B       		.uleb128 0xb
 1797 07e5 04       		.byte	0x4
 1798 07e6 71010000 		.4byte	0x171
 1799 07ea 03       		.uleb128 0x3
 1800 07eb 0C050000 		.4byte	.LASF128
 1801 07ef 0D       		.byte	0xd
 1802 07f0 68       		.byte	0x68
 1803 07f1 AB070000 		.4byte	0x7ab
 1804 07f5 19       		.uleb128 0x19
 1805 07f6 0804     		.2byte	0x408
 1806 07f8 0D       		.byte	0xd
 1807 07f9 6D       		.byte	0x6d
ARM GAS  C:\Users\jo\AppData\Local\Temp\ccTgSZM2.s 			page 33


 1808 07fa 23080000 		.4byte	0x823
 1809 07fe 07       		.uleb128 0x7
 1810 07ff A8050000 		.4byte	.LASF129
 1811 0803 0D       		.byte	0xd
 1812 0804 71       		.byte	0x71
 1813 0805 37000000 		.4byte	0x37
 1814 0809 00       		.byte	0
 1815 080a 07       		.uleb128 0x7
 1816 080b BB0A0000 		.4byte	.LASF130
 1817 080f 0D       		.byte	0xd
 1818 0810 75       		.byte	0x75
 1819 0811 23080000 		.4byte	0x823
 1820 0815 04       		.byte	0x4
 1821 0816 07       		.uleb128 0x7
 1822 0817 79060000 		.4byte	.LASF131
 1823 081b 0D       		.byte	0xd
 1824 081c 79       		.byte	0x79
 1825 081d 29080000 		.4byte	0x829
 1826 0821 08       		.byte	0x8
 1827 0822 00       		.byte	0
 1828 0823 0B       		.uleb128 0xb
 1829 0824 04       		.byte	0x4
 1830 0825 EA070000 		.4byte	0x7ea
 1831 0829 12       		.uleb128 0x12
 1832 082a EA070000 		.4byte	0x7ea
 1833 082e 39080000 		.4byte	0x839
 1834 0832 13       		.uleb128 0x13
 1835 0833 C8040000 		.4byte	0x4c8
 1836 0837 3F       		.byte	0x3f
 1837 0838 00       		.byte	0
 1838 0839 03       		.uleb128 0x3
 1839 083a 7A030000 		.4byte	.LASF132
 1840 083e 0D       		.byte	0xd
 1841 083f 7A       		.byte	0x7a
 1842 0840 F5070000 		.4byte	0x7f5
 1843 0844 18       		.uleb128 0x18
 1844 0845 04       		.byte	0x4
 1845 0846 0E       		.byte	0xe
 1846 0847 38       		.byte	0x38
 1847 0848 59080000 		.4byte	0x859
 1848 084c 07       		.uleb128 0x7
 1849 084d 68060000 		.4byte	.LASF133
 1850 0851 0E       		.byte	0xe
 1851 0852 3C       		.byte	0x3c
 1852 0853 F8000000 		.4byte	0xf8
 1853 0857 00       		.byte	0
 1854 0858 00       		.byte	0
 1855 0859 03       		.uleb128 0x3
 1856 085a 5F080000 		.4byte	.LASF134
 1857 085e 0E       		.byte	0xe
 1858 085f 3D       		.byte	0x3d
 1859 0860 44080000 		.4byte	0x844
 1860 0864 18       		.uleb128 0x18
 1861 0865 18       		.byte	0x18
 1862 0866 0E       		.byte	0xe
 1863 0867 48       		.byte	0x48
 1864 0868 A7080000 		.4byte	0x8a7
ARM GAS  C:\Users\jo\AppData\Local\Temp\ccTgSZM2.s 			page 34


 1865 086c 07       		.uleb128 0x7
 1866 086d 0E080000 		.4byte	.LASF135
 1867 0871 0E       		.byte	0xe
 1868 0872 49       		.byte	0x49
 1869 0873 F8000000 		.4byte	0xf8
 1870 0877 00       		.byte	0
 1871 0878 07       		.uleb128 0x7
 1872 0879 3C030000 		.4byte	.LASF136
 1873 087d 0E       		.byte	0xe
 1874 087e 4A       		.byte	0x4a
 1875 087f F8000000 		.4byte	0xf8
 1876 0883 04       		.byte	0x4
 1877 0884 07       		.uleb128 0x7
 1878 0885 1F0B0000 		.4byte	.LASF137
 1879 0889 0E       		.byte	0xe
 1880 088a 4B       		.byte	0x4b
 1881 088b F8000000 		.4byte	0xf8
 1882 088f 08       		.byte	0x8
 1883 0890 16       		.uleb128 0x16
 1884 0891 6E00     		.ascii	"n\000"
 1885 0893 0E       		.byte	0xe
 1886 0894 4C       		.byte	0x4c
 1887 0895 5B010000 		.4byte	0x15b
 1888 0899 0C       		.byte	0xc
 1889 089a 07       		.uleb128 0x7
 1890 089b 1C020000 		.4byte	.LASF138
 1891 089f 0E       		.byte	0xe
 1892 08a0 4D       		.byte	0x4d
 1893 08a1 03010000 		.4byte	0x103
 1894 08a5 10       		.byte	0x10
 1895 08a6 00       		.byte	0
 1896 08a7 03       		.uleb128 0x3
 1897 08a8 E3000000 		.4byte	.LASF139
 1898 08ac 0E       		.byte	0xe
 1899 08ad 4E       		.byte	0x4e
 1900 08ae 64080000 		.4byte	0x864
 1901 08b2 18       		.uleb128 0x18
 1902 08b3 38       		.byte	0x38
 1903 08b4 0F       		.byte	0xf
 1904 08b5 38       		.byte	0x38
 1905 08b6 EB080000 		.4byte	0x8eb
 1906 08ba 07       		.uleb128 0x7
 1907 08bb 32050000 		.4byte	.LASF140
 1908 08bf 0F       		.byte	0xf
 1909 08c0 39       		.byte	0x39
 1910 08c1 5B010000 		.4byte	0x15b
 1911 08c5 00       		.byte	0
 1912 08c6 07       		.uleb128 0x7
 1913 08c7 1A030000 		.4byte	.LASF141
 1914 08cb 0F       		.byte	0xf
 1915 08cc 3A       		.byte	0x3a
 1916 08cd 5B010000 		.4byte	0x15b
 1917 08d1 04       		.byte	0x4
 1918 08d2 07       		.uleb128 0x7
 1919 08d3 EE030000 		.4byte	.LASF142
 1920 08d7 0F       		.byte	0xf
 1921 08d8 3B       		.byte	0x3b
ARM GAS  C:\Users\jo\AppData\Local\Temp\ccTgSZM2.s 			page 35


 1922 08d9 A7080000 		.4byte	0x8a7
 1923 08dd 08       		.byte	0x8
 1924 08de 07       		.uleb128 0x7
 1925 08df D1030000 		.4byte	.LASF143
 1926 08e3 0F       		.byte	0xf
 1927 08e4 3D       		.byte	0x3d
 1928 08e5 A7080000 		.4byte	0x8a7
 1929 08e9 20       		.byte	0x20
 1930 08ea 00       		.byte	0
 1931 08eb 03       		.uleb128 0x3
 1932 08ec 40060000 		.4byte	.LASF144
 1933 08f0 0F       		.byte	0xf
 1934 08f1 3F       		.byte	0x3f
 1935 08f2 B2080000 		.4byte	0x8b2
 1936 08f6 1A       		.uleb128 0x1a
 1937 08f7 04       		.byte	0x4
 1938 08f8 09       		.byte	0x9
 1939 08f9 F6       		.byte	0xf6
 1940 08fa 2E090000 		.4byte	0x92e
 1941 08fe 1B       		.uleb128 0x1b
 1942 08ff 2C0A0000 		.4byte	.LASF145
 1943 0903 09       		.byte	0x9
 1944 0904 FD       		.byte	0xfd
 1945 0905 3A010000 		.4byte	0x13a
 1946 0909 1C       		.uleb128 0x1c
 1947 090a 2C010000 		.4byte	.LASF146
 1948 090e 09       		.byte	0x9
 1949 090f 0401     		.2byte	0x104
 1950 0911 3A010000 		.4byte	0x13a
 1951 0915 1C       		.uleb128 0x1c
 1952 0916 13030000 		.4byte	.LASF147
 1953 091a 09       		.byte	0x9
 1954 091b 0B01     		.2byte	0x10b
 1955 091d 59030000 		.4byte	0x359
 1956 0921 1C       		.uleb128 0x1c
 1957 0922 33020000 		.4byte	.LASF148
 1958 0926 09       		.byte	0x9
 1959 0927 1201     		.2byte	0x112
 1960 0929 45010000 		.4byte	0x145
 1961 092d 00       		.byte	0
 1962 092e 0B       		.uleb128 0xb
 1963 092f 04       		.byte	0x4
 1964 0930 F4060000 		.4byte	0x6f4
 1965 0934 06       		.uleb128 0x6
 1966 0935 BF050000 		.4byte	.LASF149
 1967 0939 10       		.byte	0x10
 1968 093a 10       		.byte	0x10
 1969 093b 39       		.byte	0x39
 1970 093c 65090000 		.4byte	0x965
 1971 0940 07       		.uleb128 0x7
 1972 0941 67050000 		.4byte	.LASF150
 1973 0945 10       		.byte	0x10
 1974 0946 3A       		.byte	0x3a
 1975 0947 A6020000 		.4byte	0x2a6
 1976 094b 00       		.byte	0
 1977 094c 07       		.uleb128 0x7
 1978 094d 11010000 		.4byte	.LASF151
ARM GAS  C:\Users\jo\AppData\Local\Temp\ccTgSZM2.s 			page 36


 1979 0951 10       		.byte	0x10
 1980 0952 3C       		.byte	0x3c
 1981 0953 E4070000 		.4byte	0x7e4
 1982 0957 08       		.byte	0x8
 1983 0958 07       		.uleb128 0x7
 1984 0959 B40A0000 		.4byte	.LASF152
 1985 095d 10       		.byte	0x10
 1986 095e 3E       		.byte	0x3e
 1987 095f 91090000 		.4byte	0x991
 1988 0963 0C       		.byte	0xc
 1989 0964 00       		.byte	0
 1990 0965 0B       		.uleb128 0xb
 1991 0966 04       		.byte	0x4
 1992 0967 34090000 		.4byte	0x934
 1993 096b 0B       		.uleb128 0xb
 1994 096c 04       		.byte	0x4
 1995 096d 5B030000 		.4byte	0x35b
 1996 0971 05       		.uleb128 0x5
 1997 0972 A0070000 		.4byte	0x7a0
 1998 0976 12       		.uleb128 0x12
 1999 0977 F4060000 		.4byte	0x6f4
 2000 097b 86090000 		.4byte	0x986
 2001 097f 13       		.uleb128 0x13
 2002 0980 C8040000 		.4byte	0x4c8
 2003 0984 1E       		.byte	0x1e
 2004 0985 00       		.byte	0
 2005 0986 03       		.uleb128 0x3
 2006 0987 E3080000 		.4byte	.LASF153
 2007 098b 10       		.byte	0x10
 2008 098c 34       		.byte	0x34
 2009 098d 34090000 		.4byte	0x934
 2010 0991 0B       		.uleb128 0xb
 2011 0992 04       		.byte	0x4
 2012 0993 86090000 		.4byte	0x986
 2013 0997 04       		.uleb128 0x4
 2014 0998 01       		.byte	0x1
 2015 0999 02       		.byte	0x2
 2016 099a DB020000 		.4byte	.LASF154
 2017 099e 18       		.uleb128 0x18
 2018 099f 04       		.byte	0x4
 2019 09a0 11       		.byte	0x11
 2020 09a1 B3       		.byte	0xb3
 2021 09a2 BF090000 		.4byte	0x9bf
 2022 09a6 16       		.uleb128 0x16
 2023 09a7 73657400 		.ascii	"set\000"
 2024 09ab 11       		.byte	0x11
 2025 09ac B4       		.byte	0xb4
 2026 09ad B8000000 		.4byte	0xb8
 2027 09b1 00       		.byte	0
 2028 09b2 07       		.uleb128 0x7
 2029 09b3 AB030000 		.4byte	.LASF155
 2030 09b7 11       		.byte	0x11
 2031 09b8 B5       		.byte	0xb5
 2032 09b9 B8000000 		.4byte	0xb8
 2033 09bd 02       		.byte	0x2
 2034 09be 00       		.byte	0
 2035 09bf 1A       		.uleb128 0x1a
ARM GAS  C:\Users\jo\AppData\Local\Temp\ccTgSZM2.s 			page 37


 2036 09c0 04       		.byte	0x4
 2037 09c1 11       		.byte	0x11
 2038 09c2 B1       		.byte	0xb1
 2039 09c3 DA090000 		.4byte	0x9da
 2040 09c7 1D       		.uleb128 0x1d
 2041 09c8 5700     		.ascii	"W\000"
 2042 09ca 11       		.byte	0x11
 2043 09cb B2       		.byte	0xb2
 2044 09cc CE000000 		.4byte	0xce
 2045 09d0 1D       		.uleb128 0x1d
 2046 09d1 4800     		.ascii	"H\000"
 2047 09d3 11       		.byte	0x11
 2048 09d4 B6       		.byte	0xb6
 2049 09d5 9E090000 		.4byte	0x99e
 2050 09d9 00       		.byte	0
 2051 09da 18       		.uleb128 0x18
 2052 09db 2C       		.byte	0x2c
 2053 09dc 11       		.byte	0x11
 2054 09dd A9       		.byte	0xa9
 2055 09de 670A0000 		.4byte	0xa67
 2056 09e2 07       		.uleb128 0x7
 2057 09e3 1D0A0000 		.4byte	.LASF156
 2058 09e7 11       		.byte	0x11
 2059 09e8 AB       		.byte	0xab
 2060 09e9 F3000000 		.4byte	0xf3
 2061 09ed 00       		.byte	0
 2062 09ee 07       		.uleb128 0x7
 2063 09ef 25080000 		.4byte	.LASF157
 2064 09f3 11       		.byte	0x11
 2065 09f4 AC       		.byte	0xac
 2066 09f5 F3000000 		.4byte	0xf3
 2067 09f9 04       		.byte	0x4
 2068 09fa 07       		.uleb128 0x7
 2069 09fb 38050000 		.4byte	.LASF158
 2070 09ff 11       		.byte	0x11
 2071 0a00 AD       		.byte	0xad
 2072 0a01 F3000000 		.4byte	0xf3
 2073 0a05 08       		.byte	0x8
 2074 0a06 07       		.uleb128 0x7
 2075 0a07 49010000 		.4byte	.LASF159
 2076 0a0b 11       		.byte	0x11
 2077 0a0c AE       		.byte	0xae
 2078 0a0d F3000000 		.4byte	0xf3
 2079 0a11 0C       		.byte	0xc
 2080 0a12 16       		.uleb128 0x16
 2081 0a13 49445200 		.ascii	"IDR\000"
 2082 0a17 11       		.byte	0x11
 2083 0a18 AF       		.byte	0xaf
 2084 0a19 F3000000 		.4byte	0xf3
 2085 0a1d 10       		.byte	0x10
 2086 0a1e 16       		.uleb128 0x16
 2087 0a1f 4F445200 		.ascii	"ODR\000"
 2088 0a23 11       		.byte	0x11
 2089 0a24 B0       		.byte	0xb0
 2090 0a25 F3000000 		.4byte	0xf3
 2091 0a29 14       		.byte	0x14
 2092 0a2a 07       		.uleb128 0x7
ARM GAS  C:\Users\jo\AppData\Local\Temp\ccTgSZM2.s 			page 38


 2093 0a2b CD080000 		.4byte	.LASF160
 2094 0a2f 11       		.byte	0x11
 2095 0a30 B7       		.byte	0xb7
 2096 0a31 670A0000 		.4byte	0xa67
 2097 0a35 18       		.byte	0x18
 2098 0a36 07       		.uleb128 0x7
 2099 0a37 AF040000 		.4byte	.LASF161
 2100 0a3b 11       		.byte	0x11
 2101 0a3c B8       		.byte	0xb8
 2102 0a3d F3000000 		.4byte	0xf3
 2103 0a41 1C       		.byte	0x1c
 2104 0a42 07       		.uleb128 0x7
 2105 0a43 99070000 		.4byte	.LASF162
 2106 0a47 11       		.byte	0x11
 2107 0a48 B9       		.byte	0xb9
 2108 0a49 F3000000 		.4byte	0xf3
 2109 0a4d 20       		.byte	0x20
 2110 0a4e 07       		.uleb128 0x7
 2111 0a4f 94070000 		.4byte	.LASF163
 2112 0a53 11       		.byte	0x11
 2113 0a54 BA       		.byte	0xba
 2114 0a55 F3000000 		.4byte	0xf3
 2115 0a59 24       		.byte	0x24
 2116 0a5a 16       		.uleb128 0x16
 2117 0a5b 42525200 		.ascii	"BRR\000"
 2118 0a5f 11       		.byte	0x11
 2119 0a60 BB       		.byte	0xbb
 2120 0a61 F3000000 		.4byte	0xf3
 2121 0a65 28       		.byte	0x28
 2122 0a66 00       		.byte	0
 2123 0a67 05       		.uleb128 0x5
 2124 0a68 BF090000 		.4byte	0x9bf
 2125 0a6c 03       		.uleb128 0x3
 2126 0a6d A0020000 		.4byte	.LASF164
 2127 0a71 11       		.byte	0x11
 2128 0a72 BC       		.byte	0xbc
 2129 0a73 DA090000 		.4byte	0x9da
 2130 0a77 15       		.uleb128 0x15
 2131 0a78 42030000 		.4byte	.LASF165
 2132 0a7c 11       		.byte	0x11
 2133 0a7d 0E01     		.2byte	0x10e
 2134 0a7f CE000000 		.4byte	0xce
 2135 0a83 0B       		.uleb128 0xb
 2136 0a84 04       		.byte	0x4
 2137 0a85 DD060000 		.4byte	0x6dd
 2138 0a89 1E       		.uleb128 0x1e
 2139 0a8a 01       		.byte	0x1
 2140 0a8b 12       		.byte	0x12
 2141 0a8c 40       		.byte	0x40
 2142 0a8d A40A0000 		.4byte	0xaa4
 2143 0a91 1F       		.uleb128 0x1f
 2144 0a92 DF040000 		.4byte	.LASF166
 2145 0a96 00       		.sleb128 0
 2146 0a97 1F       		.uleb128 0x1f
 2147 0a98 22000000 		.4byte	.LASF167
 2148 0a9c 01       		.sleb128 1
 2149 0a9d 1F       		.uleb128 0x1f
ARM GAS  C:\Users\jo\AppData\Local\Temp\ccTgSZM2.s 			page 39


 2150 0a9e 8C0A0000 		.4byte	.LASF168
 2151 0aa2 02       		.sleb128 2
 2152 0aa3 00       		.byte	0
 2153 0aa4 03       		.uleb128 0x3
 2154 0aa5 B1080000 		.4byte	.LASF169
 2155 0aa9 12       		.byte	0x12
 2156 0aaa 44       		.byte	0x44
 2157 0aab 890A0000 		.4byte	0xa89
 2158 0aaf 1E       		.uleb128 0x1e
 2159 0ab0 01       		.byte	0x1
 2160 0ab1 12       		.byte	0x12
 2161 0ab2 49       		.byte	0x49
 2162 0ab3 CA0A0000 		.4byte	0xaca
 2163 0ab7 1F       		.uleb128 0x1f
 2164 0ab8 77070000 		.4byte	.LASF170
 2165 0abc 00       		.sleb128 0
 2166 0abd 1F       		.uleb128 0x1f
 2167 0abe 5A010000 		.4byte	.LASF171
 2168 0ac2 01       		.sleb128 1
 2169 0ac3 1F       		.uleb128 0x1f
 2170 0ac4 EF070000 		.4byte	.LASF172
 2171 0ac8 02       		.sleb128 2
 2172 0ac9 00       		.byte	0
 2173 0aca 03       		.uleb128 0x3
 2174 0acb 08020000 		.4byte	.LASF173
 2175 0acf 12       		.byte	0x12
 2176 0ad0 4D       		.byte	0x4d
 2177 0ad1 AF0A0000 		.4byte	0xaaf
 2178 0ad5 1E       		.uleb128 0x1e
 2179 0ad6 01       		.byte	0x1
 2180 0ad7 12       		.byte	0x12
 2181 0ad8 52       		.byte	0x52
 2182 0ad9 F00A0000 		.4byte	0xaf0
 2183 0add 1F       		.uleb128 0x1f
 2184 0ade 42080000 		.4byte	.LASF174
 2185 0ae2 00       		.sleb128 0
 2186 0ae3 1F       		.uleb128 0x1f
 2187 0ae4 4B070000 		.4byte	.LASF175
 2188 0ae8 01       		.sleb128 1
 2189 0ae9 1F       		.uleb128 0x1f
 2190 0aea FB040000 		.4byte	.LASF176
 2191 0aee 02       		.sleb128 2
 2192 0aef 00       		.byte	0
 2193 0af0 03       		.uleb128 0x3
 2194 0af1 00080000 		.4byte	.LASF177
 2195 0af5 12       		.byte	0x12
 2196 0af6 56       		.byte	0x56
 2197 0af7 D50A0000 		.4byte	0xad5
 2198 0afb 15       		.uleb128 0x15
 2199 0afc E6050000 		.4byte	.LASF178
 2200 0b00 13       		.byte	0x13
 2201 0b01 2D01     		.2byte	0x12d
 2202 0b03 CE000000 		.4byte	0xce
 2203 0b07 15       		.uleb128 0x15
 2204 0b08 71010000 		.4byte	.LASF179
 2205 0b0c 13       		.byte	0x13
 2206 0b0d 3201     		.2byte	0x132
ARM GAS  C:\Users\jo\AppData\Local\Temp\ccTgSZM2.s 			page 40


 2207 0b0f 130B0000 		.4byte	0xb13
 2208 0b13 0A       		.uleb128 0xa
 2209 0b14 71010000 		.4byte	.LASF179
 2210 0b18 1C       		.byte	0x1c
 2211 0b19 13       		.byte	0x13
 2212 0b1a 7A01     		.2byte	0x17a
 2213 0b1c A30B0000 		.4byte	0xba3
 2214 0b20 09       		.uleb128 0x9
 2215 0b21 C1000000 		.4byte	.LASF180
 2216 0b25 13       		.byte	0x13
 2217 0b26 7E01     		.2byte	0x17e
 2218 0b28 A40A0000 		.4byte	0xaa4
 2219 0b2c 00       		.byte	0
 2220 0b2d 09       		.uleb128 0x9
 2221 0b2e EE010000 		.4byte	.LASF181
 2222 0b32 13       		.byte	0x13
 2223 0b33 8201     		.2byte	0x182
 2224 0b35 CA0A0000 		.4byte	0xaca
 2225 0b39 01       		.byte	0x1
 2226 0b3a 09       		.uleb128 0x9
 2227 0b3b D5000000 		.4byte	.LASF182
 2228 0b3f 13       		.byte	0x13
 2229 0b40 8601     		.2byte	0x186
 2230 0b42 F00A0000 		.4byte	0xaf0
 2231 0b46 02       		.byte	0x2
 2232 0b47 09       		.uleb128 0x9
 2233 0b48 BA000000 		.4byte	.LASF183
 2234 0b4c 13       		.byte	0x13
 2235 0b4d 8A01     		.2byte	0x18a
 2236 0b4f 950C0000 		.4byte	0xc95
 2237 0b53 04       		.byte	0x4
 2238 0b54 09       		.uleb128 0x9
 2239 0b55 16020000 		.4byte	.LASF184
 2240 0b59 13       		.byte	0x13
 2241 0b5a 9201     		.2byte	0x192
 2242 0b5c 830A0000 		.4byte	0xa83
 2243 0b60 08       		.byte	0x8
 2244 0b61 09       		.uleb128 0x9
 2245 0b62 48050000 		.4byte	.LASF185
 2246 0b66 13       		.byte	0x13
 2247 0b67 A501     		.2byte	0x1a5
 2248 0b69 E9000000 		.4byte	0xe9
 2249 0b6d 0C       		.byte	0xc
 2250 0b6e 09       		.uleb128 0x9
 2251 0b6f 520A0000 		.4byte	.LASF186
 2252 0b73 13       		.byte	0x13
 2253 0b74 A701     		.2byte	0x1a7
 2254 0b76 E9000000 		.4byte	0xe9
 2255 0b7a 0E       		.byte	0xe
 2256 0b7b 09       		.uleb128 0x9
 2257 0b7c 8E070000 		.4byte	.LASF187
 2258 0b80 13       		.byte	0x13
 2259 0b81 A801     		.2byte	0x1a8
 2260 0b83 A00C0000 		.4byte	0xca0
 2261 0b87 10       		.byte	0x10
 2262 0b88 09       		.uleb128 0x9
 2263 0b89 A2080000 		.4byte	.LASF188
ARM GAS  C:\Users\jo\AppData\Local\Temp\ccTgSZM2.s 			page 41


 2264 0b8d 13       		.byte	0x13
 2265 0b8e A901     		.2byte	0x1a9
 2266 0b90 E9000000 		.4byte	0xe9
 2267 0b94 14       		.byte	0x14
 2268 0b95 09       		.uleb128 0x9
 2269 0b96 E5030000 		.4byte	.LASF189
 2270 0b9a 13       		.byte	0x13
 2271 0b9b AA01     		.2byte	0x1aa
 2272 0b9d A00C0000 		.4byte	0xca0
 2273 0ba1 18       		.byte	0x18
 2274 0ba2 00       		.byte	0
 2275 0ba3 15       		.uleb128 0x15
 2276 0ba4 F0090000 		.4byte	.LASF190
 2277 0ba8 13       		.byte	0x13
 2278 0ba9 3901     		.2byte	0x139
 2279 0bab AF0B0000 		.4byte	0xbaf
 2280 0baf 0B       		.uleb128 0xb
 2281 0bb0 04       		.byte	0x4
 2282 0bb1 B50B0000 		.4byte	0xbb5
 2283 0bb5 0C       		.uleb128 0xc
 2284 0bb6 C00B0000 		.4byte	0xbc0
 2285 0bba 0D       		.uleb128 0xd
 2286 0bbb C00B0000 		.4byte	0xbc0
 2287 0bbf 00       		.byte	0
 2288 0bc0 0B       		.uleb128 0xb
 2289 0bc1 04       		.byte	0x4
 2290 0bc2 070B0000 		.4byte	0xb07
 2291 0bc6 15       		.uleb128 0x15
 2292 0bc7 1B080000 		.4byte	.LASF191
 2293 0bcb 13       		.byte	0x13
 2294 0bcc 4101     		.2byte	0x141
 2295 0bce D20B0000 		.4byte	0xbd2
 2296 0bd2 0B       		.uleb128 0xb
 2297 0bd3 04       		.byte	0x4
 2298 0bd4 D80B0000 		.4byte	0xbd8
 2299 0bd8 0C       		.uleb128 0xc
 2300 0bd9 E80B0000 		.4byte	0xbe8
 2301 0bdd 0D       		.uleb128 0xd
 2302 0bde C00B0000 		.4byte	0xbc0
 2303 0be2 0D       		.uleb128 0xd
 2304 0be3 B8000000 		.4byte	0xb8
 2305 0be7 00       		.byte	0
 2306 0be8 15       		.uleb128 0x15
 2307 0be9 A5040000 		.4byte	.LASF192
 2308 0bed 13       		.byte	0x13
 2309 0bee 4901     		.2byte	0x149
 2310 0bf0 F40B0000 		.4byte	0xbf4
 2311 0bf4 0B       		.uleb128 0xb
 2312 0bf5 04       		.byte	0x4
 2313 0bf6 FA0B0000 		.4byte	0xbfa
 2314 0bfa 0C       		.uleb128 0xc
 2315 0bfb 0A0C0000 		.4byte	0xc0a
 2316 0bff 0D       		.uleb128 0xd
 2317 0c00 C00B0000 		.4byte	0xbc0
 2318 0c04 0D       		.uleb128 0xd
 2319 0c05 FB0A0000 		.4byte	0xafb
 2320 0c09 00       		.byte	0
ARM GAS  C:\Users\jo\AppData\Local\Temp\ccTgSZM2.s 			page 42


 2321 0c0a 14       		.uleb128 0x14
 2322 0c0b 24       		.byte	0x24
 2323 0c0c 13       		.byte	0x13
 2324 0c0d 4F01     		.2byte	0x14f
 2325 0c0f 890C0000 		.4byte	0xc89
 2326 0c13 09       		.uleb128 0x9
 2327 0c14 660A0000 		.4byte	.LASF193
 2328 0c18 13       		.byte	0x13
 2329 0c19 5301     		.2byte	0x153
 2330 0c1b A30B0000 		.4byte	0xba3
 2331 0c1f 00       		.byte	0
 2332 0c20 09       		.uleb128 0x9
 2333 0c21 57040000 		.4byte	.LASF194
 2334 0c25 13       		.byte	0x13
 2335 0c26 5701     		.2byte	0x157
 2336 0c28 A30B0000 		.4byte	0xba3
 2337 0c2c 04       		.byte	0x4
 2338 0c2d 09       		.uleb128 0x9
 2339 0c2e F6000000 		.4byte	.LASF195
 2340 0c32 13       		.byte	0x13
 2341 0c33 5B01     		.2byte	0x15b
 2342 0c35 A30B0000 		.4byte	0xba3
 2343 0c39 08       		.byte	0x8
 2344 0c3a 09       		.uleb128 0x9
 2345 0c3b 68030000 		.4byte	.LASF196
 2346 0c3f 13       		.byte	0x13
 2347 0c40 5F01     		.2byte	0x15f
 2348 0c42 C60B0000 		.4byte	0xbc6
 2349 0c46 0C       		.byte	0xc
 2350 0c47 09       		.uleb128 0x9
 2351 0c48 13060000 		.4byte	.LASF197
 2352 0c4c 13       		.byte	0x13
 2353 0c4d 6301     		.2byte	0x163
 2354 0c4f E80B0000 		.4byte	0xbe8
 2355 0c53 10       		.byte	0x10
 2356 0c54 09       		.uleb128 0x9
 2357 0c55 8C030000 		.4byte	.LASF198
 2358 0c59 13       		.byte	0x13
 2359 0c5a 6801     		.2byte	0x168
 2360 0c5c CE000000 		.4byte	0xce
 2361 0c60 14       		.byte	0x14
 2362 0c61 08       		.uleb128 0x8
 2363 0c62 63723100 		.ascii	"cr1\000"
 2364 0c66 13       		.byte	0x13
 2365 0c67 6C01     		.2byte	0x16c
 2366 0c69 CE000000 		.4byte	0xce
 2367 0c6d 18       		.byte	0x18
 2368 0c6e 08       		.uleb128 0x8
 2369 0c6f 63723200 		.ascii	"cr2\000"
 2370 0c73 13       		.byte	0x13
 2371 0c74 7001     		.2byte	0x170
 2372 0c76 CE000000 		.4byte	0xce
 2373 0c7a 1C       		.byte	0x1c
 2374 0c7b 08       		.uleb128 0x8
 2375 0c7c 63723300 		.ascii	"cr3\000"
 2376 0c80 13       		.byte	0x13
 2377 0c81 7401     		.2byte	0x174
ARM GAS  C:\Users\jo\AppData\Local\Temp\ccTgSZM2.s 			page 43


 2378 0c83 CE000000 		.4byte	0xce
 2379 0c87 20       		.byte	0x20
 2380 0c88 00       		.byte	0
 2381 0c89 15       		.uleb128 0x15
 2382 0c8a 2C040000 		.4byte	.LASF199
 2383 0c8e 13       		.byte	0x13
 2384 0c8f 7501     		.2byte	0x175
 2385 0c91 0A0C0000 		.4byte	0xc0a
 2386 0c95 0B       		.uleb128 0xb
 2387 0c96 04       		.byte	0x4
 2388 0c97 9B0C0000 		.4byte	0xc9b
 2389 0c9b 17       		.uleb128 0x17
 2390 0c9c 890C0000 		.4byte	0xc89
 2391 0ca0 0B       		.uleb128 0xb
 2392 0ca1 04       		.byte	0x4
 2393 0ca2 E4000000 		.4byte	0xe4
 2394 0ca6 20       		.uleb128 0x20
 2395 0ca7 E1070000 		.4byte	.LASF200
 2396 0cab 02       		.byte	0x2
 2397 0cac 2002     		.2byte	0x220
 2398 0cae 03       		.byte	0x3
 2399 0caf C00C0000 		.4byte	0xcc0
 2400 0cb3 21       		.uleb128 0x21
 2401 0cb4 71070000 		.4byte	.LASF202
 2402 0cb8 02       		.byte	0x2
 2403 0cb9 2002     		.2byte	0x220
 2404 0cbb CE000000 		.4byte	0xce
 2405 0cbf 00       		.byte	0
 2406 0cc0 22       		.uleb128 0x22
 2407 0cc1 4F010000 		.4byte	.LASF201
 2408 0cc5 01       		.byte	0x1
 2409 0cc6 9F       		.byte	0x9f
 2410 0cc7 01       		.byte	0x1
 2411 0cc8 D80C0000 		.4byte	0xcd8
 2412 0ccc 23       		.uleb128 0x23
 2413 0ccd 62060000 		.4byte	.LASF203
 2414 0cd1 01       		.byte	0x1
 2415 0cd2 9F       		.byte	0x9f
 2416 0cd3 C00B0000 		.4byte	0xbc0
 2417 0cd7 00       		.byte	0
 2418 0cd8 24       		.uleb128 0x24
 2419 0cd9 79080000 		.4byte	.LASF204
 2420 0cdd 0C       		.byte	0xc
 2421 0cde BB01     		.2byte	0x1bb
 2422 0ce0 03       		.byte	0x3
 2423 0ce1 24       		.uleb128 0x24
 2424 0ce2 A0010000 		.4byte	.LASF205
 2425 0ce6 0C       		.byte	0xc
 2426 0ce7 C901     		.2byte	0x1c9
 2427 0ce9 03       		.byte	0x3
 2428 0cea 24       		.uleb128 0x24
 2429 0ceb 22040000 		.4byte	.LASF206
 2430 0cef 03       		.byte	0x3
 2431 0cf0 2901     		.2byte	0x129
 2432 0cf2 03       		.byte	0x3
 2433 0cf3 20       		.uleb128 0x20
 2434 0cf4 2A070000 		.4byte	.LASF207
ARM GAS  C:\Users\jo\AppData\Local\Temp\ccTgSZM2.s 			page 44


 2435 0cf8 01       		.byte	0x1
 2436 0cf9 4001     		.2byte	0x140
 2437 0cfb 01       		.byte	0x1
 2438 0cfc 2F0D0000 		.4byte	0xd2f
 2439 0d00 21       		.uleb128 0x21
 2440 0d01 62060000 		.4byte	.LASF203
 2441 0d05 01       		.byte	0x1
 2442 0d06 4001     		.2byte	0x140
 2443 0d08 C00B0000 		.4byte	0xbc0
 2444 0d0c 25       		.uleb128 0x25
 2445 0d0d 69737200 		.ascii	"isr\000"
 2446 0d11 01       		.byte	0x1
 2447 0d12 4201     		.2byte	0x142
 2448 0d14 CE000000 		.4byte	0xce
 2449 0d18 25       		.uleb128 0x25
 2450 0d19 7500     		.ascii	"u\000"
 2451 0d1b 01       		.byte	0x1
 2452 0d1c 4301     		.2byte	0x143
 2453 0d1e 830A0000 		.4byte	0xa83
 2454 0d22 25       		.uleb128 0x25
 2455 0d23 63723100 		.ascii	"cr1\000"
 2456 0d27 01       		.byte	0x1
 2457 0d28 5101     		.2byte	0x151
 2458 0d2a CE000000 		.4byte	0xce
 2459 0d2e 00       		.byte	0
 2460 0d2f 26       		.uleb128 0x26
 2461 0d30 94040000 		.4byte	.LASF236
 2462 0d34 01       		.byte	0x1
 2463 0d35 6D       		.byte	0x6d
 2464 0d36 FB0A0000 		.4byte	0xafb
 2465 0d3a 01       		.byte	0x1
 2466 0d3b 560D0000 		.4byte	0xd56
 2467 0d3f 27       		.uleb128 0x27
 2468 0d40 69737200 		.ascii	"isr\000"
 2469 0d44 01       		.byte	0x1
 2470 0d45 6D       		.byte	0x6d
 2471 0d46 CE000000 		.4byte	0xce
 2472 0d4a 28       		.uleb128 0x28
 2473 0d4b 73747300 		.ascii	"sts\000"
 2474 0d4f 01       		.byte	0x1
 2475 0d50 6F       		.byte	0x6f
 2476 0d51 FB0A0000 		.4byte	0xafb
 2477 0d55 00       		.byte	0
 2478 0d56 29       		.uleb128 0x29
 2479 0d57 230A0000 		.4byte	.LASF208
 2480 0d5b 01       		.byte	0x1
 2481 0d5c CA01     		.2byte	0x1ca
 2482 0d5e 00000000 		.4byte	.LFB259
 2483 0d62 B8000000 		.4byte	.LFE259-.LFB259
 2484 0d66 01       		.uleb128 0x1
 2485 0d67 9C       		.byte	0x9c
 2486 0d68 400E0000 		.4byte	0xe40
 2487 0d6c 2A       		.uleb128 0x2a
 2488 0d6d F30C0000 		.4byte	0xcf3
 2489 0d71 02000000 		.4byte	.LBB32
 2490 0d75 00000000 		.4byte	.Ldebug_ranges0+0
 2491 0d79 01       		.byte	0x1
ARM GAS  C:\Users\jo\AppData\Local\Temp\ccTgSZM2.s 			page 45


 2492 0d7a CE01     		.2byte	0x1ce
 2493 0d7c 1B0E0000 		.4byte	0xe1b
 2494 0d80 2B       		.uleb128 0x2b
 2495 0d81 000D0000 		.4byte	0xd00
 2496 0d85 06       		.uleb128 0x6
 2497 0d86 03       		.byte	0x3
 2498 0d87 00000000 		.4byte	UARTD3
 2499 0d8b 9F       		.byte	0x9f
 2500 0d8c 2C       		.uleb128 0x2c
 2501 0d8d 00000000 		.4byte	.Ldebug_ranges0+0
 2502 0d91 2D       		.uleb128 0x2d
 2503 0d92 0C0D0000 		.4byte	0xd0c
 2504 0d96 00000000 		.4byte	.LLST0
 2505 0d9a 2D       		.uleb128 0x2d
 2506 0d9b 180D0000 		.4byte	0xd18
 2507 0d9f 1E000000 		.4byte	.LLST1
 2508 0da3 2D       		.uleb128 0x2d
 2509 0da4 220D0000 		.4byte	0xd22
 2510 0da8 3C000000 		.4byte	.LLST2
 2511 0dac 2E       		.uleb128 0x2e
 2512 0dad 2F0D0000 		.4byte	0xd2f
 2513 0db1 1A000000 		.4byte	.LBB34
 2514 0db5 2A000000 		.4byte	.LBE34-.LBB34
 2515 0db9 01       		.byte	0x1
 2516 0dba 4D01     		.2byte	0x14d
 2517 0dbc DD0D0000 		.4byte	0xddd
 2518 0dc0 2F       		.uleb128 0x2f
 2519 0dc1 3F0D0000 		.4byte	0xd3f
 2520 0dc5 5A000000 		.4byte	.LLST3
 2521 0dc9 30       		.uleb128 0x30
 2522 0dca 1A000000 		.4byte	.LBB35
 2523 0dce 2A000000 		.4byte	.LBE35-.LBB35
 2524 0dd2 2D       		.uleb128 0x2d
 2525 0dd3 4A0D0000 		.4byte	0xd4a
 2526 0dd7 6D000000 		.4byte	.LLST4
 2527 0ddb 00       		.byte	0
 2528 0ddc 00       		.byte	0
 2529 0ddd 31       		.uleb128 0x31
 2530 0dde 48000000 		.4byte	.LVL10
 2531 0de2 ED0D0000 		.4byte	0xded
 2532 0de6 32       		.uleb128 0x32
 2533 0de7 01       		.uleb128 0x1
 2534 0de8 50       		.byte	0x50
 2535 0de9 02       		.uleb128 0x2
 2536 0dea 76       		.byte	0x76
 2537 0deb 00       		.sleb128 0
 2538 0dec 00       		.byte	0
 2539 0ded 31       		.uleb128 0x31
 2540 0dee 74000000 		.4byte	.LVL12
 2541 0df2 FD0D0000 		.4byte	0xdfd
 2542 0df6 32       		.uleb128 0x32
 2543 0df7 01       		.uleb128 0x1
 2544 0df8 50       		.byte	0x50
 2545 0df9 02       		.uleb128 0x2
 2546 0dfa 76       		.byte	0x76
 2547 0dfb 00       		.sleb128 0
 2548 0dfc 00       		.byte	0
ARM GAS  C:\Users\jo\AppData\Local\Temp\ccTgSZM2.s 			page 46


 2549 0dfd 31       		.uleb128 0x31
 2550 0dfe 90000000 		.4byte	.LVL17
 2551 0e02 0D0E0000 		.4byte	0xe0d
 2552 0e06 32       		.uleb128 0x32
 2553 0e07 01       		.uleb128 0x1
 2554 0e08 50       		.byte	0x50
 2555 0e09 02       		.uleb128 0x2
 2556 0e0a 76       		.byte	0x76
 2557 0e0b 00       		.sleb128 0
 2558 0e0c 00       		.byte	0
 2559 0e0d 33       		.uleb128 0x33
 2560 0e0e AE000000 		.4byte	.LVL18
 2561 0e12 32       		.uleb128 0x32
 2562 0e13 01       		.uleb128 0x1
 2563 0e14 50       		.byte	0x50
 2564 0e15 02       		.uleb128 0x2
 2565 0e16 76       		.byte	0x76
 2566 0e17 00       		.sleb128 0
 2567 0e18 00       		.byte	0
 2568 0e19 00       		.byte	0
 2569 0e1a 00       		.byte	0
 2570 0e1b 34       		.uleb128 0x34
 2571 0e1c 08000000 		.4byte	.LVL0
 2572 0e20 8C120000 		.4byte	0x128c
 2573 0e24 34       		.uleb128 0x34
 2574 0e25 0C000000 		.4byte	.LVL1
 2575 0e29 93120000 		.4byte	0x1293
 2576 0e2d 34       		.uleb128 0x34
 2577 0e2e 7E000000 		.4byte	.LVL14
 2578 0e32 9A120000 		.4byte	0x129a
 2579 0e36 35       		.uleb128 0x35
 2580 0e37 86000000 		.4byte	.LVL16
 2581 0e3b A1120000 		.4byte	0x12a1
 2582 0e3f 00       		.byte	0
 2583 0e40 29       		.uleb128 0x29
 2584 0e41 54030000 		.4byte	.LASF209
 2585 0e45 01       		.byte	0x1
 2586 0e46 DD01     		.2byte	0x1dd
 2587 0e48 00000000 		.4byte	.LFB260
 2588 0e4c 18000000 		.4byte	.LFE260-.LFB260
 2589 0e50 01       		.uleb128 0x1
 2590 0e51 9C       		.byte	0x9c
 2591 0e52 670E0000 		.4byte	0xe67
 2592 0e56 36       		.uleb128 0x36
 2593 0e57 0A000000 		.4byte	.LVL19
 2594 0e5b A9120000 		.4byte	0x12a9
 2595 0e5f 32       		.uleb128 0x32
 2596 0e60 01       		.uleb128 0x1
 2597 0e61 50       		.byte	0x50
 2598 0e62 02       		.uleb128 0x2
 2599 0e63 74       		.byte	0x74
 2600 0e64 00       		.sleb128 0
 2601 0e65 00       		.byte	0
 2602 0e66 00       		.byte	0
 2603 0e67 22       		.uleb128 0x22
 2604 0e68 20010000 		.4byte	.LASF210
 2605 0e6c 01       		.byte	0x1
ARM GAS  C:\Users\jo\AppData\Local\Temp\ccTgSZM2.s 			page 47


 2606 0e6d B4       		.byte	0xb4
 2607 0e6e 01       		.byte	0x1
 2608 0e6f 880E0000 		.4byte	0xe88
 2609 0e73 23       		.uleb128 0x23
 2610 0e74 62060000 		.4byte	.LASF203
 2611 0e78 01       		.byte	0x1
 2612 0e79 B4       		.byte	0xb4
 2613 0e7a C00B0000 		.4byte	0xbc0
 2614 0e7e 28       		.uleb128 0x28
 2615 0e7f 7500     		.ascii	"u\000"
 2616 0e81 01       		.byte	0x1
 2617 0e82 B6       		.byte	0xb6
 2618 0e83 830A0000 		.4byte	0xa83
 2619 0e87 00       		.byte	0
 2620 0e88 29       		.uleb128 0x29
 2621 0e89 100B0000 		.4byte	.LASF211
 2622 0e8d 01       		.byte	0x1
 2623 0e8e 0502     		.2byte	0x205
 2624 0e90 00000000 		.4byte	.LFB261
 2625 0e94 88000000 		.4byte	.LFE261-.LFB261
 2626 0e98 01       		.uleb128 0x1
 2627 0e99 9C       		.byte	0x9c
 2628 0e9a 1E0F0000 		.4byte	0xf1e
 2629 0e9e 37       		.uleb128 0x37
 2630 0e9f 62060000 		.4byte	.LASF203
 2631 0ea3 01       		.byte	0x1
 2632 0ea4 0502     		.2byte	0x205
 2633 0ea6 C00B0000 		.4byte	0xbc0
 2634 0eaa 8C000000 		.4byte	.LLST5
 2635 0eae 2A       		.uleb128 0x2a
 2636 0eaf 670E0000 		.4byte	0xe67
 2637 0eb3 0A000000 		.4byte	.LBB45
 2638 0eb7 20000000 		.4byte	.Ldebug_ranges0+0x20
 2639 0ebb 01       		.byte	0x1
 2640 0ebc 6202     		.2byte	0x262
 2641 0ebe F40E0000 		.4byte	0xef4
 2642 0ec2 2F       		.uleb128 0x2f
 2643 0ec3 730E0000 		.4byte	0xe73
 2644 0ec7 E4000000 		.4byte	.LLST6
 2645 0ecb 2C       		.uleb128 0x2c
 2646 0ecc 20000000 		.4byte	.Ldebug_ranges0+0x20
 2647 0ed0 2D       		.uleb128 0x2d
 2648 0ed1 7E0E0000 		.4byte	0xe7e
 2649 0ed5 05010000 		.4byte	.LLST7
 2650 0ed9 38       		.uleb128 0x38
 2651 0eda C00C0000 		.4byte	0xcc0
 2652 0ede 18000000 		.4byte	.LBB47
 2653 0ee2 06000000 		.4byte	.LBE47-.LBB47
 2654 0ee6 01       		.byte	0x1
 2655 0ee7 B9       		.byte	0xb9
 2656 0ee8 2F       		.uleb128 0x2f
 2657 0ee9 CC0C0000 		.4byte	0xccc
 2658 0eed E4000000 		.4byte	.LLST6
 2659 0ef1 00       		.byte	0
 2660 0ef2 00       		.byte	0
 2661 0ef3 00       		.byte	0
 2662 0ef4 30       		.uleb128 0x30
ARM GAS  C:\Users\jo\AppData\Local\Temp\ccTgSZM2.s 			page 48


 2663 0ef5 5E000000 		.4byte	.LBB53
 2664 0ef9 2A000000 		.4byte	.LBE53-.LBB53
 2665 0efd 25       		.uleb128 0x25
 2666 0efe 6200     		.ascii	"b\000"
 2667 0f00 01       		.byte	0x1
 2668 0f01 3B02     		.2byte	0x23b
 2669 0f03 97090000 		.4byte	0x997
 2670 0f07 36       		.uleb128 0x36
 2671 0f08 70000000 		.4byte	.LVL28
 2672 0f0c BA120000 		.4byte	0x12ba
 2673 0f10 32       		.uleb128 0x32
 2674 0f11 01       		.uleb128 0x1
 2675 0f12 51       		.byte	0x51
 2676 0f13 01       		.uleb128 0x1
 2677 0f14 3C       		.byte	0x3c
 2678 0f15 32       		.uleb128 0x32
 2679 0f16 01       		.uleb128 0x1
 2680 0f17 50       		.byte	0x50
 2681 0f18 02       		.uleb128 0x2
 2682 0f19 08       		.byte	0x8
 2683 0f1a 27       		.byte	0x27
 2684 0f1b 00       		.byte	0
 2685 0f1c 00       		.byte	0
 2686 0f1d 00       		.byte	0
 2687 0f1e 29       		.uleb128 0x29
 2688 0f1f A60A0000 		.4byte	.LASF212
 2689 0f23 01       		.byte	0x1
 2690 0f24 6C02     		.2byte	0x26c
 2691 0f26 00000000 		.4byte	.LFB262
 2692 0f2a 34000000 		.4byte	.LFE262-.LFB262
 2693 0f2e 01       		.uleb128 0x1
 2694 0f2f 9C       		.byte	0x9c
 2695 0f30 730F0000 		.4byte	0xf73
 2696 0f34 37       		.uleb128 0x37
 2697 0f35 62060000 		.4byte	.LASF203
 2698 0f39 01       		.byte	0x1
 2699 0f3a 6C02     		.2byte	0x26c
 2700 0f3c C00B0000 		.4byte	0xbc0
 2701 0f40 18010000 		.4byte	.LLST9
 2702 0f44 2A       		.uleb128 0x2a
 2703 0f45 C00C0000 		.4byte	0xcc0
 2704 0f49 0C000000 		.4byte	.LBB54
 2705 0f4d 40000000 		.4byte	.Ldebug_ranges0+0x40
 2706 0f51 01       		.byte	0x1
 2707 0f52 6F02     		.2byte	0x26f
 2708 0f54 620F0000 		.4byte	0xf62
 2709 0f58 2F       		.uleb128 0x2f
 2710 0f59 CC0C0000 		.4byte	0xccc
 2711 0f5d 52010000 		.4byte	.LLST10
 2712 0f61 00       		.byte	0
 2713 0f62 36       		.uleb128 0x36
 2714 0f63 20000000 		.4byte	.LVL33
 2715 0f67 D0120000 		.4byte	0x12d0
 2716 0f6b 32       		.uleb128 0x32
 2717 0f6c 01       		.uleb128 0x1
 2718 0f6d 50       		.byte	0x50
 2719 0f6e 02       		.uleb128 0x2
ARM GAS  C:\Users\jo\AppData\Local\Temp\ccTgSZM2.s 			page 49


 2720 0f6f 08       		.byte	0x8
 2721 0f70 27       		.byte	0x27
 2722 0f71 00       		.byte	0
 2723 0f72 00       		.byte	0
 2724 0f73 29       		.uleb128 0x29
 2725 0f74 F3080000 		.4byte	.LASF213
 2726 0f78 01       		.byte	0x1
 2727 0f79 9A02     		.2byte	0x29a
 2728 0f7b 00000000 		.4byte	.LFB263
 2729 0f7f 1E000000 		.4byte	.LFE263-.LFB263
 2730 0f83 01       		.uleb128 0x1
 2731 0f84 9C       		.byte	0x9c
 2732 0f85 B20F0000 		.4byte	0xfb2
 2733 0f89 39       		.uleb128 0x39
 2734 0f8a 62060000 		.4byte	.LASF203
 2735 0f8e 01       		.byte	0x1
 2736 0f8f 9A02     		.2byte	0x29a
 2737 0f91 C00B0000 		.4byte	0xbc0
 2738 0f95 01       		.uleb128 0x1
 2739 0f96 50       		.byte	0x50
 2740 0f97 3A       		.uleb128 0x3a
 2741 0f98 6E00     		.ascii	"n\000"
 2742 0f9a 01       		.byte	0x1
 2743 0f9b 9A02     		.2byte	0x29a
 2744 0f9d 2C000000 		.4byte	0x2c
 2745 0fa1 01       		.uleb128 0x1
 2746 0fa2 51       		.byte	0x51
 2747 0fa3 39       		.uleb128 0x39
 2748 0fa4 DF010000 		.4byte	.LASF214
 2749 0fa8 01       		.byte	0x1
 2750 0fa9 9A02     		.2byte	0x29a
 2751 0fab B20F0000 		.4byte	0xfb2
 2752 0faf 01       		.uleb128 0x1
 2753 0fb0 52       		.byte	0x52
 2754 0fb1 00       		.byte	0
 2755 0fb2 0B       		.uleb128 0xb
 2756 0fb3 04       		.byte	0x4
 2757 0fb4 B80F0000 		.4byte	0xfb8
 2758 0fb8 3B       		.uleb128 0x3b
 2759 0fb9 3C       		.uleb128 0x3c
 2760 0fba B6030000 		.4byte	.LASF218
 2761 0fbe 01       		.byte	0x1
 2762 0fbf C302     		.2byte	0x2c3
 2763 0fc1 2C000000 		.4byte	0x2c
 2764 0fc5 00000000 		.4byte	.LFB264
 2765 0fc9 1E000000 		.4byte	.LFE264-.LFB264
 2766 0fcd 01       		.uleb128 0x1
 2767 0fce 9C       		.byte	0x9c
 2768 0fcf F40F0000 		.4byte	0xff4
 2769 0fd3 37       		.uleb128 0x37
 2770 0fd4 62060000 		.4byte	.LASF203
 2771 0fd8 01       		.byte	0x1
 2772 0fd9 C302     		.2byte	0x2c3
 2773 0fdb C00B0000 		.4byte	0xbc0
 2774 0fdf 73010000 		.4byte	.LLST11
 2775 0fe3 3D       		.uleb128 0x3d
 2776 0fe4 72656D00 		.ascii	"rem\000"
ARM GAS  C:\Users\jo\AppData\Local\Temp\ccTgSZM2.s 			page 50


 2777 0fe8 01       		.byte	0x1
 2778 0fe9 C902     		.2byte	0x2c9
 2779 0feb 2C000000 		.4byte	0x2c
 2780 0fef 91010000 		.4byte	.LLST12
 2781 0ff3 00       		.byte	0
 2782 0ff4 20       		.uleb128 0x20
 2783 0ff5 04040000 		.4byte	.LASF215
 2784 0ff9 03       		.byte	0x3
 2785 0ffa 3501     		.2byte	0x135
 2786 0ffc 03       		.byte	0x3
 2787 0ffd 0F100000 		.4byte	0x100f
 2788 1001 3E       		.uleb128 0x3e
 2789 1002 B1000000 		.4byte	.LASF216
 2790 1006 1F100000 		.4byte	0x101f
 2791 100a 04040000 		.4byte	.LASF215
 2792 100e 00       		.byte	0
 2793 100f 12       		.uleb128 0x12
 2794 1010 99070000 		.4byte	0x799
 2795 1014 1F100000 		.4byte	0x101f
 2796 1018 13       		.uleb128 0x13
 2797 1019 C8040000 		.4byte	0x4c8
 2798 101d 0B       		.byte	0xb
 2799 101e 00       		.byte	0
 2800 101f 17       		.uleb128 0x17
 2801 1020 0F100000 		.4byte	0x100f
 2802 1024 29       		.uleb128 0x29
 2803 1025 1B050000 		.4byte	.LASF217
 2804 1029 01       		.byte	0x1
 2805 102a DC02     		.2byte	0x2dc
 2806 102c 00000000 		.4byte	.LFB265
 2807 1030 58000000 		.4byte	.LFE265-.LFB265
 2808 1034 01       		.uleb128 0x1
 2809 1035 9C       		.byte	0x9c
 2810 1036 4A110000 		.4byte	0x114a
 2811 103a 37       		.uleb128 0x37
 2812 103b 62060000 		.4byte	.LASF203
 2813 103f 01       		.byte	0x1
 2814 1040 DC02     		.2byte	0x2dc
 2815 1042 C00B0000 		.4byte	0xbc0
 2816 1046 B5010000 		.4byte	.LLST13
 2817 104a 3F       		.uleb128 0x3f
 2818 104b 6E00     		.ascii	"n\000"
 2819 104d 01       		.byte	0x1
 2820 104e DC02     		.2byte	0x2dc
 2821 1050 2C000000 		.4byte	0x2c
 2822 1054 E1010000 		.4byte	.LLST14
 2823 1058 37       		.uleb128 0x37
 2824 1059 48050000 		.4byte	.LASF185
 2825 105d 01       		.byte	0x1
 2826 105e DC02     		.2byte	0x2dc
 2827 1060 59030000 		.4byte	0x359
 2828 1064 0D020000 		.4byte	.LLST15
 2829 1068 2A       		.uleb128 0x2a
 2830 1069 EA0C0000 		.4byte	0xcea
 2831 106d 02000000 		.4byte	.LBB68
 2832 1071 58000000 		.4byte	.Ldebug_ranges0+0x58
 2833 1075 01       		.byte	0x1
ARM GAS  C:\Users\jo\AppData\Local\Temp\ccTgSZM2.s 			page 51


 2834 1076 EA02     		.2byte	0x2ea
 2835 1078 BB100000 		.4byte	0x10bb
 2836 107c 2A       		.uleb128 0x2a
 2837 107d D80C0000 		.4byte	0xcd8
 2838 1081 02000000 		.4byte	.LBB70
 2839 1085 78000000 		.4byte	.Ldebug_ranges0+0x78
 2840 1089 03       		.byte	0x3
 2841 108a 2B01     		.2byte	0x12b
 2842 108c A8100000 		.4byte	0x10a8
 2843 1090 40       		.uleb128 0x40
 2844 1091 A60C0000 		.4byte	0xca6
 2845 1095 02000000 		.4byte	.LBB71
 2846 1099 78000000 		.4byte	.Ldebug_ranges0+0x78
 2847 109d 0C       		.byte	0xc
 2848 109e BE01     		.2byte	0x1be
 2849 10a0 41       		.uleb128 0x41
 2850 10a1 B30C0000 		.4byte	0xcb3
 2851 10a5 20       		.byte	0x20
 2852 10a6 00       		.byte	0
 2853 10a7 00       		.byte	0
 2854 10a8 34       		.uleb128 0x34
 2855 10a9 12000000 		.4byte	.LVL38
 2856 10ad E1120000 		.4byte	0x12e1
 2857 10b1 34       		.uleb128 0x34
 2858 10b2 18000000 		.4byte	.LVL40
 2859 10b6 E8120000 		.4byte	0x12e8
 2860 10ba 00       		.byte	0
 2861 10bb 42       		.uleb128 0x42
 2862 10bc F40F0000 		.4byte	0xff4
 2863 10c0 20000000 		.4byte	.LBB80
 2864 10c4 38000000 		.4byte	.LBE80-.LBB80
 2865 10c8 01       		.byte	0x1
 2866 10c9 EE02     		.2byte	0x2ee
 2867 10cb 30       		.uleb128 0x30
 2868 10cc 20000000 		.4byte	.LBB81
 2869 10d0 38000000 		.4byte	.LBE81-.LBB81
 2870 10d4 43       		.uleb128 0x43
 2871 10d5 01100000 		.4byte	0x1001
 2872 10d9 05       		.uleb128 0x5
 2873 10da 03       		.byte	0x3
 2874 10db 00000000 		.4byte	__func__.6751
 2875 10df 2E       		.uleb128 0x2e
 2876 10e0 E10C0000 		.4byte	0xce1
 2877 10e4 44000000 		.4byte	.LBB82
 2878 10e8 14000000 		.4byte	.LBE82-.LBB82
 2879 10ec 03       		.byte	0x3
 2880 10ed 4101     		.2byte	0x141
 2881 10ef 0B110000 		.4byte	0x110b
 2882 10f3 42       		.uleb128 0x42
 2883 10f4 A60C0000 		.4byte	0xca6
 2884 10f8 44000000 		.4byte	.LBB83
 2885 10fc 14000000 		.4byte	.LBE83-.LBB83
 2886 1100 0C       		.byte	0xc
 2887 1101 CC01     		.2byte	0x1cc
 2888 1103 41       		.uleb128 0x41
 2889 1104 B30C0000 		.4byte	0xcb3
 2890 1108 00       		.byte	0
ARM GAS  C:\Users\jo\AppData\Local\Temp\ccTgSZM2.s 			page 52


 2891 1109 00       		.byte	0
 2892 110a 00       		.byte	0
 2893 110b 34       		.uleb128 0x34
 2894 110c 24000000 		.4byte	.LVL41
 2895 1110 EF120000 		.4byte	0x12ef
 2896 1114 34       		.uleb128 0x34
 2897 1115 28000000 		.4byte	.LVL42
 2898 1119 F6120000 		.4byte	0x12f6
 2899 111d 44       		.uleb128 0x44
 2900 111e 3C000000 		.4byte	.LVL43
 2901 1122 FD120000 		.4byte	0x12fd
 2902 1126 34110000 		.4byte	0x1134
 2903 112a 32       		.uleb128 0x32
 2904 112b 01       		.uleb128 0x1
 2905 112c 50       		.byte	0x50
 2906 112d 05       		.uleb128 0x5
 2907 112e 03       		.byte	0x3
 2908 112f 00000000 		.4byte	.LC0
 2909 1133 00       		.byte	0
 2910 1134 36       		.uleb128 0x36
 2911 1135 44000000 		.4byte	.LVL44
 2912 1139 16130000 		.4byte	0x1316
 2913 113d 32       		.uleb128 0x32
 2914 113e 01       		.uleb128 0x1
 2915 113f 50       		.byte	0x50
 2916 1140 05       		.uleb128 0x5
 2917 1141 03       		.byte	0x3
 2918 1142 00000000 		.4byte	.LANCHOR1
 2919 1146 00       		.byte	0
 2920 1147 00       		.byte	0
 2921 1148 00       		.byte	0
 2922 1149 00       		.byte	0
 2923 114a 3C       		.uleb128 0x3c
 2924 114b 61040000 		.4byte	.LASF219
 2925 114f 01       		.byte	0x1
 2926 1150 FD02     		.2byte	0x2fd
 2927 1152 2C000000 		.4byte	0x2c
 2928 1156 00000000 		.4byte	.LFB266
 2929 115a 58000000 		.4byte	.LFE266-.LFB266
 2930 115e 01       		.uleb128 0x1
 2931 115f 9C       		.byte	0x9c
 2932 1160 64120000 		.4byte	0x1264
 2933 1164 37       		.uleb128 0x37
 2934 1165 62060000 		.4byte	.LASF203
 2935 1169 01       		.byte	0x1
 2936 116a FD02     		.2byte	0x2fd
 2937 116c C00B0000 		.4byte	0xbc0
 2938 1170 39020000 		.4byte	.LLST16
 2939 1174 3D       		.uleb128 0x3d
 2940 1175 6E00     		.ascii	"n\000"
 2941 1177 01       		.byte	0x1
 2942 1178 FE02     		.2byte	0x2fe
 2943 117a 2C000000 		.4byte	0x2c
 2944 117e 65020000 		.4byte	.LLST17
 2945 1182 2A       		.uleb128 0x2a
 2946 1183 EA0C0000 		.4byte	0xcea
 2947 1187 02000000 		.4byte	.LBB95
ARM GAS  C:\Users\jo\AppData\Local\Temp\ccTgSZM2.s 			page 53


 2948 118b 90000000 		.4byte	.Ldebug_ranges0+0x90
 2949 118f 01       		.byte	0x1
 2950 1190 0603     		.2byte	0x306
 2951 1192 D5110000 		.4byte	0x11d5
 2952 1196 2A       		.uleb128 0x2a
 2953 1197 D80C0000 		.4byte	0xcd8
 2954 119b 02000000 		.4byte	.LBB97
 2955 119f A8000000 		.4byte	.Ldebug_ranges0+0xa8
 2956 11a3 03       		.byte	0x3
 2957 11a4 2B01     		.2byte	0x12b
 2958 11a6 C2110000 		.4byte	0x11c2
 2959 11aa 40       		.uleb128 0x40
 2960 11ab A60C0000 		.4byte	0xca6
 2961 11af 02000000 		.4byte	.LBB98
 2962 11b3 A8000000 		.4byte	.Ldebug_ranges0+0xa8
 2963 11b7 0C       		.byte	0xc
 2964 11b8 BE01     		.2byte	0x1be
 2965 11ba 41       		.uleb128 0x41
 2966 11bb B30C0000 		.4byte	0xcb3
 2967 11bf 20       		.byte	0x20
 2968 11c0 00       		.byte	0
 2969 11c1 00       		.byte	0
 2970 11c2 34       		.uleb128 0x34
 2971 11c3 0E000000 		.4byte	.LVL47
 2972 11c7 E1120000 		.4byte	0x12e1
 2973 11cb 34       		.uleb128 0x34
 2974 11cc 12000000 		.4byte	.LVL48
 2975 11d0 E8120000 		.4byte	0x12e8
 2976 11d4 00       		.byte	0
 2977 11d5 42       		.uleb128 0x42
 2978 11d6 F40F0000 		.4byte	0xff4
 2979 11da 1E000000 		.4byte	.LBB105
 2980 11de 2A000000 		.4byte	.LBE105-.LBB105
 2981 11e2 01       		.byte	0x1
 2982 11e3 0B03     		.2byte	0x30b
 2983 11e5 30       		.uleb128 0x30
 2984 11e6 1E000000 		.4byte	.LBB106
 2985 11ea 2A000000 		.4byte	.LBE106-.LBB106
 2986 11ee 43       		.uleb128 0x43
 2987 11ef 01100000 		.4byte	0x1001
 2988 11f3 05       		.uleb128 0x5
 2989 11f4 03       		.byte	0x3
 2990 11f5 00000000 		.4byte	__func__.6751
 2991 11f9 2E       		.uleb128 0x2e
 2992 11fa E10C0000 		.4byte	0xce1
 2993 11fe 42000000 		.4byte	.LBB107
 2994 1202 06000000 		.4byte	.LBE107-.LBB107
 2995 1206 03       		.byte	0x3
 2996 1207 4101     		.2byte	0x141
 2997 1209 25120000 		.4byte	0x1225
 2998 120d 42       		.uleb128 0x42
 2999 120e A60C0000 		.4byte	0xca6
 3000 1212 42000000 		.4byte	.LBB108
 3001 1216 06000000 		.4byte	.LBE108-.LBB108
 3002 121a 0C       		.byte	0xc
 3003 121b CC01     		.2byte	0x1cc
 3004 121d 41       		.uleb128 0x41
ARM GAS  C:\Users\jo\AppData\Local\Temp\ccTgSZM2.s 			page 54


 3005 121e B30C0000 		.4byte	0xcb3
 3006 1222 00       		.byte	0
 3007 1223 00       		.byte	0
 3008 1224 00       		.byte	0
 3009 1225 34       		.uleb128 0x34
 3010 1226 22000000 		.4byte	.LVL50
 3011 122a EF120000 		.4byte	0x12ef
 3012 122e 34       		.uleb128 0x34
 3013 122f 26000000 		.4byte	.LVL51
 3014 1233 F6120000 		.4byte	0x12f6
 3015 1237 44       		.uleb128 0x44
 3016 1238 3A000000 		.4byte	.LVL52
 3017 123c FD120000 		.4byte	0x12fd
 3018 1240 4E120000 		.4byte	0x124e
 3019 1244 32       		.uleb128 0x32
 3020 1245 01       		.uleb128 0x1
 3021 1246 50       		.byte	0x50
 3022 1247 05       		.uleb128 0x5
 3023 1248 03       		.byte	0x3
 3024 1249 00000000 		.4byte	.LC0
 3025 124d 00       		.byte	0
 3026 124e 36       		.uleb128 0x36
 3027 124f 42000000 		.4byte	.LVL53
 3028 1253 16130000 		.4byte	0x1316
 3029 1257 32       		.uleb128 0x32
 3030 1258 01       		.uleb128 0x1
 3031 1259 50       		.byte	0x50
 3032 125a 05       		.uleb128 0x5
 3033 125b 03       		.byte	0x3
 3034 125c 00000000 		.4byte	.LANCHOR1
 3035 1260 00       		.byte	0
 3036 1261 00       		.byte	0
 3037 1262 00       		.byte	0
 3038 1263 00       		.byte	0
 3039 1264 45       		.uleb128 0x45
 3040 1265 C5050000 		.4byte	.LASF220
 3041 1269 14       		.byte	0x14
 3042 126a A706     		.2byte	0x6a7
 3043 126c EE000000 		.4byte	0xee
 3044 1270 46       		.uleb128 0x46
 3045 1271 636800   		.ascii	"ch\000"
 3046 1274 09       		.byte	0x9
 3047 1275 EB01     		.2byte	0x1eb
 3048 1277 50040000 		.4byte	0x450
 3049 127b 47       		.uleb128 0x47
 3050 127c 7B0A0000 		.4byte	.LASF221
 3051 1280 01       		.byte	0x1
 3052 1281 5B       		.byte	0x5b
 3053 1282 070B0000 		.4byte	0xb07
 3054 1286 05       		.uleb128 0x5
 3055 1287 03       		.byte	0x3
 3056 1288 00000000 		.4byte	UARTD3
 3057 128c 48       		.uleb128 0x48
 3058 128d 8C010000 		.4byte	.LASF222
 3059 1291 0F       		.byte	0xf
 3060 1292 4D       		.byte	0x4d
 3061 1293 48       		.uleb128 0x48
ARM GAS  C:\Users\jo\AppData\Local\Temp\ccTgSZM2.s 			page 55


 3062 1294 BB040000 		.4byte	.LASF223
 3063 1298 0D       		.byte	0xd
 3064 1299 DC       		.byte	0xdc
 3065 129a 48       		.uleb128 0x48
 3066 129b 7D050000 		.4byte	.LASF224
 3067 129f 0D       		.byte	0xd
 3068 12a0 DD       		.byte	0xdd
 3069 12a1 49       		.uleb128 0x49
 3070 12a2 4F060000 		.4byte	.LASF225
 3071 12a6 0C       		.byte	0xc
 3072 12a7 6501     		.2byte	0x165
 3073 12a9 4A       		.uleb128 0x4a
 3074 12aa D0040000 		.4byte	.LASF226
 3075 12ae 12       		.byte	0x12
 3076 12af 66       		.byte	0x66
 3077 12b0 BA120000 		.4byte	0x12ba
 3078 12b4 0D       		.uleb128 0xd
 3079 12b5 C00B0000 		.4byte	0xbc0
 3080 12b9 00       		.byte	0
 3081 12ba 4A       		.uleb128 0x4a
 3082 12bb 030A0000 		.4byte	.LASF227
 3083 12bf 15       		.byte	0x15
 3084 12c0 4E       		.byte	0x4e
 3085 12c1 D0120000 		.4byte	0x12d0
 3086 12c5 0D       		.uleb128 0xd
 3087 12c6 CE000000 		.4byte	0xce
 3088 12ca 0D       		.uleb128 0xd
 3089 12cb CE000000 		.4byte	0xce
 3090 12cf 00       		.byte	0
 3091 12d0 4A       		.uleb128 0x4a
 3092 12d1 95060000 		.4byte	.LASF228
 3093 12d5 15       		.byte	0x15
 3094 12d6 4F       		.byte	0x4f
 3095 12d7 E1120000 		.4byte	0x12e1
 3096 12db 0D       		.uleb128 0xd
 3097 12dc CE000000 		.4byte	0xce
 3098 12e0 00       		.byte	0
 3099 12e1 48       		.uleb128 0x48
 3100 12e2 9E070000 		.4byte	.LASF229
 3101 12e6 0F       		.byte	0xf
 3102 12e7 4F       		.byte	0x4f
 3103 12e8 48       		.uleb128 0x48
 3104 12e9 BC070000 		.4byte	.LASF230
 3105 12ed 0D       		.byte	0xd
 3106 12ee D8       		.byte	0xd8
 3107 12ef 48       		.uleb128 0x48
 3108 12f0 FF000000 		.4byte	.LASF231
 3109 12f4 0D       		.byte	0xd
 3110 12f5 D9       		.byte	0xd9
 3111 12f6 48       		.uleb128 0x48
 3112 12f7 B2060000 		.4byte	.LASF232
 3113 12fb 0F       		.byte	0xf
 3114 12fc 50       		.byte	0x50
 3115 12fd 4B       		.uleb128 0x4b
 3116 12fe B0050000 		.4byte	.LASF237
 3117 1302 16       		.byte	0x16
 3118 1303 00       		.byte	0
ARM GAS  C:\Users\jo\AppData\Local\Temp\ccTgSZM2.s 			page 56


 3119 1304 D0000000 		.4byte	.LASF238
 3120 1308 25000000 		.4byte	0x25
 3121 130c 16130000 		.4byte	0x1316
 3122 1310 0D       		.uleb128 0xd
 3123 1311 A0070000 		.4byte	0x7a0
 3124 1315 00       		.byte	0
 3125 1316 4C       		.uleb128 0x4c
 3126 1317 D9080000 		.4byte	.LASF239
 3127 131b 03       		.byte	0x3
 3128 131c E6       		.byte	0xe6
 3129 131d 0D       		.uleb128 0xd
 3130 131e A0070000 		.4byte	0x7a0
 3131 1322 00       		.byte	0
 3132 1323 00       		.byte	0
 3133              		.section	.debug_abbrev,"",%progbits
 3134              	.Ldebug_abbrev0:
 3135 0000 01       		.uleb128 0x1
 3136 0001 11       		.uleb128 0x11
 3137 0002 01       		.byte	0x1
 3138 0003 25       		.uleb128 0x25
 3139 0004 0E       		.uleb128 0xe
 3140 0005 13       		.uleb128 0x13
 3141 0006 0B       		.uleb128 0xb
 3142 0007 03       		.uleb128 0x3
 3143 0008 0E       		.uleb128 0xe
 3144 0009 1B       		.uleb128 0x1b
 3145 000a 0E       		.uleb128 0xe
 3146 000b 55       		.uleb128 0x55
 3147 000c 17       		.uleb128 0x17
 3148 000d 11       		.uleb128 0x11
 3149 000e 01       		.uleb128 0x1
 3150 000f 10       		.uleb128 0x10
 3151 0010 17       		.uleb128 0x17
 3152 0011 00       		.byte	0
 3153 0012 00       		.byte	0
 3154 0013 02       		.uleb128 0x2
 3155 0014 24       		.uleb128 0x24
 3156 0015 00       		.byte	0
 3157 0016 0B       		.uleb128 0xb
 3158 0017 0B       		.uleb128 0xb
 3159 0018 3E       		.uleb128 0x3e
 3160 0019 0B       		.uleb128 0xb
 3161 001a 03       		.uleb128 0x3
 3162 001b 08       		.uleb128 0x8
 3163 001c 00       		.byte	0
 3164 001d 00       		.byte	0
 3165 001e 03       		.uleb128 0x3
 3166 001f 16       		.uleb128 0x16
 3167 0020 00       		.byte	0
 3168 0021 03       		.uleb128 0x3
 3169 0022 0E       		.uleb128 0xe
 3170 0023 3A       		.uleb128 0x3a
 3171 0024 0B       		.uleb128 0xb
 3172 0025 3B       		.uleb128 0x3b
 3173 0026 0B       		.uleb128 0xb
 3174 0027 49       		.uleb128 0x49
 3175 0028 13       		.uleb128 0x13
ARM GAS  C:\Users\jo\AppData\Local\Temp\ccTgSZM2.s 			page 57


 3176 0029 00       		.byte	0
 3177 002a 00       		.byte	0
 3178 002b 04       		.uleb128 0x4
 3179 002c 24       		.uleb128 0x24
 3180 002d 00       		.byte	0
 3181 002e 0B       		.uleb128 0xb
 3182 002f 0B       		.uleb128 0xb
 3183 0030 3E       		.uleb128 0x3e
 3184 0031 0B       		.uleb128 0xb
 3185 0032 03       		.uleb128 0x3
 3186 0033 0E       		.uleb128 0xe
 3187 0034 00       		.byte	0
 3188 0035 00       		.byte	0
 3189 0036 05       		.uleb128 0x5
 3190 0037 35       		.uleb128 0x35
 3191 0038 00       		.byte	0
 3192 0039 49       		.uleb128 0x49
 3193 003a 13       		.uleb128 0x13
 3194 003b 00       		.byte	0
 3195 003c 00       		.byte	0
 3196 003d 06       		.uleb128 0x6
 3197 003e 13       		.uleb128 0x13
 3198 003f 01       		.byte	0x1
 3199 0040 03       		.uleb128 0x3
 3200 0041 0E       		.uleb128 0xe
 3201 0042 0B       		.uleb128 0xb
 3202 0043 0B       		.uleb128 0xb
 3203 0044 3A       		.uleb128 0x3a
 3204 0045 0B       		.uleb128 0xb
 3205 0046 3B       		.uleb128 0x3b
 3206 0047 0B       		.uleb128 0xb
 3207 0048 01       		.uleb128 0x1
 3208 0049 13       		.uleb128 0x13
 3209 004a 00       		.byte	0
 3210 004b 00       		.byte	0
 3211 004c 07       		.uleb128 0x7
 3212 004d 0D       		.uleb128 0xd
 3213 004e 00       		.byte	0
 3214 004f 03       		.uleb128 0x3
 3215 0050 0E       		.uleb128 0xe
 3216 0051 3A       		.uleb128 0x3a
 3217 0052 0B       		.uleb128 0xb
 3218 0053 3B       		.uleb128 0x3b
 3219 0054 0B       		.uleb128 0xb
 3220 0055 49       		.uleb128 0x49
 3221 0056 13       		.uleb128 0x13
 3222 0057 38       		.uleb128 0x38
 3223 0058 0B       		.uleb128 0xb
 3224 0059 00       		.byte	0
 3225 005a 00       		.byte	0
 3226 005b 08       		.uleb128 0x8
 3227 005c 0D       		.uleb128 0xd
 3228 005d 00       		.byte	0
 3229 005e 03       		.uleb128 0x3
 3230 005f 08       		.uleb128 0x8
 3231 0060 3A       		.uleb128 0x3a
 3232 0061 0B       		.uleb128 0xb
ARM GAS  C:\Users\jo\AppData\Local\Temp\ccTgSZM2.s 			page 58


 3233 0062 3B       		.uleb128 0x3b
 3234 0063 05       		.uleb128 0x5
 3235 0064 49       		.uleb128 0x49
 3236 0065 13       		.uleb128 0x13
 3237 0066 38       		.uleb128 0x38
 3238 0067 0B       		.uleb128 0xb
 3239 0068 00       		.byte	0
 3240 0069 00       		.byte	0
 3241 006a 09       		.uleb128 0x9
 3242 006b 0D       		.uleb128 0xd
 3243 006c 00       		.byte	0
 3244 006d 03       		.uleb128 0x3
 3245 006e 0E       		.uleb128 0xe
 3246 006f 3A       		.uleb128 0x3a
 3247 0070 0B       		.uleb128 0xb
 3248 0071 3B       		.uleb128 0x3b
 3249 0072 05       		.uleb128 0x5
 3250 0073 49       		.uleb128 0x49
 3251 0074 13       		.uleb128 0x13
 3252 0075 38       		.uleb128 0x38
 3253 0076 0B       		.uleb128 0xb
 3254 0077 00       		.byte	0
 3255 0078 00       		.byte	0
 3256 0079 0A       		.uleb128 0xa
 3257 007a 13       		.uleb128 0x13
 3258 007b 01       		.byte	0x1
 3259 007c 03       		.uleb128 0x3
 3260 007d 0E       		.uleb128 0xe
 3261 007e 0B       		.uleb128 0xb
 3262 007f 0B       		.uleb128 0xb
 3263 0080 3A       		.uleb128 0x3a
 3264 0081 0B       		.uleb128 0xb
 3265 0082 3B       		.uleb128 0x3b
 3266 0083 05       		.uleb128 0x5
 3267 0084 01       		.uleb128 0x1
 3268 0085 13       		.uleb128 0x13
 3269 0086 00       		.byte	0
 3270 0087 00       		.byte	0
 3271 0088 0B       		.uleb128 0xb
 3272 0089 0F       		.uleb128 0xf
 3273 008a 00       		.byte	0
 3274 008b 0B       		.uleb128 0xb
 3275 008c 0B       		.uleb128 0xb
 3276 008d 49       		.uleb128 0x49
 3277 008e 13       		.uleb128 0x13
 3278 008f 00       		.byte	0
 3279 0090 00       		.byte	0
 3280 0091 0C       		.uleb128 0xc
 3281 0092 15       		.uleb128 0x15
 3282 0093 01       		.byte	0x1
 3283 0094 27       		.uleb128 0x27
 3284 0095 19       		.uleb128 0x19
 3285 0096 01       		.uleb128 0x1
 3286 0097 13       		.uleb128 0x13
 3287 0098 00       		.byte	0
 3288 0099 00       		.byte	0
 3289 009a 0D       		.uleb128 0xd
ARM GAS  C:\Users\jo\AppData\Local\Temp\ccTgSZM2.s 			page 59


 3290 009b 05       		.uleb128 0x5
 3291 009c 00       		.byte	0
 3292 009d 49       		.uleb128 0x49
 3293 009e 13       		.uleb128 0x13
 3294 009f 00       		.byte	0
 3295 00a0 00       		.byte	0
 3296 00a1 0E       		.uleb128 0xe
 3297 00a2 0F       		.uleb128 0xf
 3298 00a3 00       		.byte	0
 3299 00a4 0B       		.uleb128 0xb
 3300 00a5 0B       		.uleb128 0xb
 3301 00a6 00       		.byte	0
 3302 00a7 00       		.byte	0
 3303 00a8 0F       		.uleb128 0xf
 3304 00a9 13       		.uleb128 0x13
 3305 00aa 01       		.byte	0x1
 3306 00ab 03       		.uleb128 0x3
 3307 00ac 0E       		.uleb128 0xe
 3308 00ad 0B       		.uleb128 0xb
 3309 00ae 05       		.uleb128 0x5
 3310 00af 3A       		.uleb128 0x3a
 3311 00b0 0B       		.uleb128 0xb
 3312 00b1 3B       		.uleb128 0x3b
 3313 00b2 05       		.uleb128 0x5
 3314 00b3 01       		.uleb128 0x1
 3315 00b4 13       		.uleb128 0x13
 3316 00b5 00       		.byte	0
 3317 00b6 00       		.byte	0
 3318 00b7 10       		.uleb128 0x10
 3319 00b8 0D       		.uleb128 0xd
 3320 00b9 00       		.byte	0
 3321 00ba 03       		.uleb128 0x3
 3322 00bb 0E       		.uleb128 0xe
 3323 00bc 3A       		.uleb128 0x3a
 3324 00bd 0B       		.uleb128 0xb
 3325 00be 3B       		.uleb128 0x3b
 3326 00bf 05       		.uleb128 0x5
 3327 00c0 49       		.uleb128 0x49
 3328 00c1 13       		.uleb128 0x13
 3329 00c2 38       		.uleb128 0x38
 3330 00c3 05       		.uleb128 0x5
 3331 00c4 00       		.byte	0
 3332 00c5 00       		.byte	0
 3333 00c6 11       		.uleb128 0x11
 3334 00c7 0D       		.uleb128 0xd
 3335 00c8 00       		.byte	0
 3336 00c9 03       		.uleb128 0x3
 3337 00ca 08       		.uleb128 0x8
 3338 00cb 3A       		.uleb128 0x3a
 3339 00cc 0B       		.uleb128 0xb
 3340 00cd 3B       		.uleb128 0x3b
 3341 00ce 05       		.uleb128 0x5
 3342 00cf 49       		.uleb128 0x49
 3343 00d0 13       		.uleb128 0x13
 3344 00d1 38       		.uleb128 0x38
 3345 00d2 05       		.uleb128 0x5
 3346 00d3 00       		.byte	0
ARM GAS  C:\Users\jo\AppData\Local\Temp\ccTgSZM2.s 			page 60


 3347 00d4 00       		.byte	0
 3348 00d5 12       		.uleb128 0x12
 3349 00d6 01       		.uleb128 0x1
 3350 00d7 01       		.byte	0x1
 3351 00d8 49       		.uleb128 0x49
 3352 00d9 13       		.uleb128 0x13
 3353 00da 01       		.uleb128 0x1
 3354 00db 13       		.uleb128 0x13
 3355 00dc 00       		.byte	0
 3356 00dd 00       		.byte	0
 3357 00de 13       		.uleb128 0x13
 3358 00df 21       		.uleb128 0x21
 3359 00e0 00       		.byte	0
 3360 00e1 49       		.uleb128 0x49
 3361 00e2 13       		.uleb128 0x13
 3362 00e3 2F       		.uleb128 0x2f
 3363 00e4 0B       		.uleb128 0xb
 3364 00e5 00       		.byte	0
 3365 00e6 00       		.byte	0
 3366 00e7 14       		.uleb128 0x14
 3367 00e8 13       		.uleb128 0x13
 3368 00e9 01       		.byte	0x1
 3369 00ea 0B       		.uleb128 0xb
 3370 00eb 0B       		.uleb128 0xb
 3371 00ec 3A       		.uleb128 0x3a
 3372 00ed 0B       		.uleb128 0xb
 3373 00ee 3B       		.uleb128 0x3b
 3374 00ef 05       		.uleb128 0x5
 3375 00f0 01       		.uleb128 0x1
 3376 00f1 13       		.uleb128 0x13
 3377 00f2 00       		.byte	0
 3378 00f3 00       		.byte	0
 3379 00f4 15       		.uleb128 0x15
 3380 00f5 16       		.uleb128 0x16
 3381 00f6 00       		.byte	0
 3382 00f7 03       		.uleb128 0x3
 3383 00f8 0E       		.uleb128 0xe
 3384 00f9 3A       		.uleb128 0x3a
 3385 00fa 0B       		.uleb128 0xb
 3386 00fb 3B       		.uleb128 0x3b
 3387 00fc 05       		.uleb128 0x5
 3388 00fd 49       		.uleb128 0x49
 3389 00fe 13       		.uleb128 0x13
 3390 00ff 00       		.byte	0
 3391 0100 00       		.byte	0
 3392 0101 16       		.uleb128 0x16
 3393 0102 0D       		.uleb128 0xd
 3394 0103 00       		.byte	0
 3395 0104 03       		.uleb128 0x3
 3396 0105 08       		.uleb128 0x8
 3397 0106 3A       		.uleb128 0x3a
 3398 0107 0B       		.uleb128 0xb
 3399 0108 3B       		.uleb128 0x3b
 3400 0109 0B       		.uleb128 0xb
 3401 010a 49       		.uleb128 0x49
 3402 010b 13       		.uleb128 0x13
 3403 010c 38       		.uleb128 0x38
ARM GAS  C:\Users\jo\AppData\Local\Temp\ccTgSZM2.s 			page 61


 3404 010d 0B       		.uleb128 0xb
 3405 010e 00       		.byte	0
 3406 010f 00       		.byte	0
 3407 0110 17       		.uleb128 0x17
 3408 0111 26       		.uleb128 0x26
 3409 0112 00       		.byte	0
 3410 0113 49       		.uleb128 0x49
 3411 0114 13       		.uleb128 0x13
 3412 0115 00       		.byte	0
 3413 0116 00       		.byte	0
 3414 0117 18       		.uleb128 0x18
 3415 0118 13       		.uleb128 0x13
 3416 0119 01       		.byte	0x1
 3417 011a 0B       		.uleb128 0xb
 3418 011b 0B       		.uleb128 0xb
 3419 011c 3A       		.uleb128 0x3a
 3420 011d 0B       		.uleb128 0xb
 3421 011e 3B       		.uleb128 0x3b
 3422 011f 0B       		.uleb128 0xb
 3423 0120 01       		.uleb128 0x1
 3424 0121 13       		.uleb128 0x13
 3425 0122 00       		.byte	0
 3426 0123 00       		.byte	0
 3427 0124 19       		.uleb128 0x19
 3428 0125 13       		.uleb128 0x13
 3429 0126 01       		.byte	0x1
 3430 0127 0B       		.uleb128 0xb
 3431 0128 05       		.uleb128 0x5
 3432 0129 3A       		.uleb128 0x3a
 3433 012a 0B       		.uleb128 0xb
 3434 012b 3B       		.uleb128 0x3b
 3435 012c 0B       		.uleb128 0xb
 3436 012d 01       		.uleb128 0x1
 3437 012e 13       		.uleb128 0x13
 3438 012f 00       		.byte	0
 3439 0130 00       		.byte	0
 3440 0131 1A       		.uleb128 0x1a
 3441 0132 17       		.uleb128 0x17
 3442 0133 01       		.byte	0x1
 3443 0134 0B       		.uleb128 0xb
 3444 0135 0B       		.uleb128 0xb
 3445 0136 3A       		.uleb128 0x3a
 3446 0137 0B       		.uleb128 0xb
 3447 0138 3B       		.uleb128 0x3b
 3448 0139 0B       		.uleb128 0xb
 3449 013a 01       		.uleb128 0x1
 3450 013b 13       		.uleb128 0x13
 3451 013c 00       		.byte	0
 3452 013d 00       		.byte	0
 3453 013e 1B       		.uleb128 0x1b
 3454 013f 0D       		.uleb128 0xd
 3455 0140 00       		.byte	0
 3456 0141 03       		.uleb128 0x3
 3457 0142 0E       		.uleb128 0xe
 3458 0143 3A       		.uleb128 0x3a
 3459 0144 0B       		.uleb128 0xb
 3460 0145 3B       		.uleb128 0x3b
ARM GAS  C:\Users\jo\AppData\Local\Temp\ccTgSZM2.s 			page 62


 3461 0146 0B       		.uleb128 0xb
 3462 0147 49       		.uleb128 0x49
 3463 0148 13       		.uleb128 0x13
 3464 0149 00       		.byte	0
 3465 014a 00       		.byte	0
 3466 014b 1C       		.uleb128 0x1c
 3467 014c 0D       		.uleb128 0xd
 3468 014d 00       		.byte	0
 3469 014e 03       		.uleb128 0x3
 3470 014f 0E       		.uleb128 0xe
 3471 0150 3A       		.uleb128 0x3a
 3472 0151 0B       		.uleb128 0xb
 3473 0152 3B       		.uleb128 0x3b
 3474 0153 05       		.uleb128 0x5
 3475 0154 49       		.uleb128 0x49
 3476 0155 13       		.uleb128 0x13
 3477 0156 00       		.byte	0
 3478 0157 00       		.byte	0
 3479 0158 1D       		.uleb128 0x1d
 3480 0159 0D       		.uleb128 0xd
 3481 015a 00       		.byte	0
 3482 015b 03       		.uleb128 0x3
 3483 015c 08       		.uleb128 0x8
 3484 015d 3A       		.uleb128 0x3a
 3485 015e 0B       		.uleb128 0xb
 3486 015f 3B       		.uleb128 0x3b
 3487 0160 0B       		.uleb128 0xb
 3488 0161 49       		.uleb128 0x49
 3489 0162 13       		.uleb128 0x13
 3490 0163 00       		.byte	0
 3491 0164 00       		.byte	0
 3492 0165 1E       		.uleb128 0x1e
 3493 0166 04       		.uleb128 0x4
 3494 0167 01       		.byte	0x1
 3495 0168 0B       		.uleb128 0xb
 3496 0169 0B       		.uleb128 0xb
 3497 016a 3A       		.uleb128 0x3a
 3498 016b 0B       		.uleb128 0xb
 3499 016c 3B       		.uleb128 0x3b
 3500 016d 0B       		.uleb128 0xb
 3501 016e 01       		.uleb128 0x1
 3502 016f 13       		.uleb128 0x13
 3503 0170 00       		.byte	0
 3504 0171 00       		.byte	0
 3505 0172 1F       		.uleb128 0x1f
 3506 0173 28       		.uleb128 0x28
 3507 0174 00       		.byte	0
 3508 0175 03       		.uleb128 0x3
 3509 0176 0E       		.uleb128 0xe
 3510 0177 1C       		.uleb128 0x1c
 3511 0178 0D       		.uleb128 0xd
 3512 0179 00       		.byte	0
 3513 017a 00       		.byte	0
 3514 017b 20       		.uleb128 0x20
 3515 017c 2E       		.uleb128 0x2e
 3516 017d 01       		.byte	0x1
 3517 017e 03       		.uleb128 0x3
ARM GAS  C:\Users\jo\AppData\Local\Temp\ccTgSZM2.s 			page 63


 3518 017f 0E       		.uleb128 0xe
 3519 0180 3A       		.uleb128 0x3a
 3520 0181 0B       		.uleb128 0xb
 3521 0182 3B       		.uleb128 0x3b
 3522 0183 05       		.uleb128 0x5
 3523 0184 27       		.uleb128 0x27
 3524 0185 19       		.uleb128 0x19
 3525 0186 20       		.uleb128 0x20
 3526 0187 0B       		.uleb128 0xb
 3527 0188 01       		.uleb128 0x1
 3528 0189 13       		.uleb128 0x13
 3529 018a 00       		.byte	0
 3530 018b 00       		.byte	0
 3531 018c 21       		.uleb128 0x21
 3532 018d 05       		.uleb128 0x5
 3533 018e 00       		.byte	0
 3534 018f 03       		.uleb128 0x3
 3535 0190 0E       		.uleb128 0xe
 3536 0191 3A       		.uleb128 0x3a
 3537 0192 0B       		.uleb128 0xb
 3538 0193 3B       		.uleb128 0x3b
 3539 0194 05       		.uleb128 0x5
 3540 0195 49       		.uleb128 0x49
 3541 0196 13       		.uleb128 0x13
 3542 0197 00       		.byte	0
 3543 0198 00       		.byte	0
 3544 0199 22       		.uleb128 0x22
 3545 019a 2E       		.uleb128 0x2e
 3546 019b 01       		.byte	0x1
 3547 019c 03       		.uleb128 0x3
 3548 019d 0E       		.uleb128 0xe
 3549 019e 3A       		.uleb128 0x3a
 3550 019f 0B       		.uleb128 0xb
 3551 01a0 3B       		.uleb128 0x3b
 3552 01a1 0B       		.uleb128 0xb
 3553 01a2 27       		.uleb128 0x27
 3554 01a3 19       		.uleb128 0x19
 3555 01a4 20       		.uleb128 0x20
 3556 01a5 0B       		.uleb128 0xb
 3557 01a6 01       		.uleb128 0x1
 3558 01a7 13       		.uleb128 0x13
 3559 01a8 00       		.byte	0
 3560 01a9 00       		.byte	0
 3561 01aa 23       		.uleb128 0x23
 3562 01ab 05       		.uleb128 0x5
 3563 01ac 00       		.byte	0
 3564 01ad 03       		.uleb128 0x3
 3565 01ae 0E       		.uleb128 0xe
 3566 01af 3A       		.uleb128 0x3a
 3567 01b0 0B       		.uleb128 0xb
 3568 01b1 3B       		.uleb128 0x3b
 3569 01b2 0B       		.uleb128 0xb
 3570 01b3 49       		.uleb128 0x49
 3571 01b4 13       		.uleb128 0x13
 3572 01b5 00       		.byte	0
 3573 01b6 00       		.byte	0
 3574 01b7 24       		.uleb128 0x24
ARM GAS  C:\Users\jo\AppData\Local\Temp\ccTgSZM2.s 			page 64


 3575 01b8 2E       		.uleb128 0x2e
 3576 01b9 00       		.byte	0
 3577 01ba 03       		.uleb128 0x3
 3578 01bb 0E       		.uleb128 0xe
 3579 01bc 3A       		.uleb128 0x3a
 3580 01bd 0B       		.uleb128 0xb
 3581 01be 3B       		.uleb128 0x3b
 3582 01bf 05       		.uleb128 0x5
 3583 01c0 27       		.uleb128 0x27
 3584 01c1 19       		.uleb128 0x19
 3585 01c2 20       		.uleb128 0x20
 3586 01c3 0B       		.uleb128 0xb
 3587 01c4 00       		.byte	0
 3588 01c5 00       		.byte	0
 3589 01c6 25       		.uleb128 0x25
 3590 01c7 34       		.uleb128 0x34
 3591 01c8 00       		.byte	0
 3592 01c9 03       		.uleb128 0x3
 3593 01ca 08       		.uleb128 0x8
 3594 01cb 3A       		.uleb128 0x3a
 3595 01cc 0B       		.uleb128 0xb
 3596 01cd 3B       		.uleb128 0x3b
 3597 01ce 05       		.uleb128 0x5
 3598 01cf 49       		.uleb128 0x49
 3599 01d0 13       		.uleb128 0x13
 3600 01d1 00       		.byte	0
 3601 01d2 00       		.byte	0
 3602 01d3 26       		.uleb128 0x26
 3603 01d4 2E       		.uleb128 0x2e
 3604 01d5 01       		.byte	0x1
 3605 01d6 03       		.uleb128 0x3
 3606 01d7 0E       		.uleb128 0xe
 3607 01d8 3A       		.uleb128 0x3a
 3608 01d9 0B       		.uleb128 0xb
 3609 01da 3B       		.uleb128 0x3b
 3610 01db 0B       		.uleb128 0xb
 3611 01dc 27       		.uleb128 0x27
 3612 01dd 19       		.uleb128 0x19
 3613 01de 49       		.uleb128 0x49
 3614 01df 13       		.uleb128 0x13
 3615 01e0 20       		.uleb128 0x20
 3616 01e1 0B       		.uleb128 0xb
 3617 01e2 01       		.uleb128 0x1
 3618 01e3 13       		.uleb128 0x13
 3619 01e4 00       		.byte	0
 3620 01e5 00       		.byte	0
 3621 01e6 27       		.uleb128 0x27
 3622 01e7 05       		.uleb128 0x5
 3623 01e8 00       		.byte	0
 3624 01e9 03       		.uleb128 0x3
 3625 01ea 08       		.uleb128 0x8
 3626 01eb 3A       		.uleb128 0x3a
 3627 01ec 0B       		.uleb128 0xb
 3628 01ed 3B       		.uleb128 0x3b
 3629 01ee 0B       		.uleb128 0xb
 3630 01ef 49       		.uleb128 0x49
 3631 01f0 13       		.uleb128 0x13
ARM GAS  C:\Users\jo\AppData\Local\Temp\ccTgSZM2.s 			page 65


 3632 01f1 00       		.byte	0
 3633 01f2 00       		.byte	0
 3634 01f3 28       		.uleb128 0x28
 3635 01f4 34       		.uleb128 0x34
 3636 01f5 00       		.byte	0
 3637 01f6 03       		.uleb128 0x3
 3638 01f7 08       		.uleb128 0x8
 3639 01f8 3A       		.uleb128 0x3a
 3640 01f9 0B       		.uleb128 0xb
 3641 01fa 3B       		.uleb128 0x3b
 3642 01fb 0B       		.uleb128 0xb
 3643 01fc 49       		.uleb128 0x49
 3644 01fd 13       		.uleb128 0x13
 3645 01fe 00       		.byte	0
 3646 01ff 00       		.byte	0
 3647 0200 29       		.uleb128 0x29
 3648 0201 2E       		.uleb128 0x2e
 3649 0202 01       		.byte	0x1
 3650 0203 3F       		.uleb128 0x3f
 3651 0204 19       		.uleb128 0x19
 3652 0205 03       		.uleb128 0x3
 3653 0206 0E       		.uleb128 0xe
 3654 0207 3A       		.uleb128 0x3a
 3655 0208 0B       		.uleb128 0xb
 3656 0209 3B       		.uleb128 0x3b
 3657 020a 05       		.uleb128 0x5
 3658 020b 27       		.uleb128 0x27
 3659 020c 19       		.uleb128 0x19
 3660 020d 11       		.uleb128 0x11
 3661 020e 01       		.uleb128 0x1
 3662 020f 12       		.uleb128 0x12
 3663 0210 06       		.uleb128 0x6
 3664 0211 40       		.uleb128 0x40
 3665 0212 18       		.uleb128 0x18
 3666 0213 9742     		.uleb128 0x2117
 3667 0215 19       		.uleb128 0x19
 3668 0216 01       		.uleb128 0x1
 3669 0217 13       		.uleb128 0x13
 3670 0218 00       		.byte	0
 3671 0219 00       		.byte	0
 3672 021a 2A       		.uleb128 0x2a
 3673 021b 1D       		.uleb128 0x1d
 3674 021c 01       		.byte	0x1
 3675 021d 31       		.uleb128 0x31
 3676 021e 13       		.uleb128 0x13
 3677 021f 52       		.uleb128 0x52
 3678 0220 01       		.uleb128 0x1
 3679 0221 55       		.uleb128 0x55
 3680 0222 17       		.uleb128 0x17
 3681 0223 58       		.uleb128 0x58
 3682 0224 0B       		.uleb128 0xb
 3683 0225 59       		.uleb128 0x59
 3684 0226 05       		.uleb128 0x5
 3685 0227 01       		.uleb128 0x1
 3686 0228 13       		.uleb128 0x13
 3687 0229 00       		.byte	0
 3688 022a 00       		.byte	0
ARM GAS  C:\Users\jo\AppData\Local\Temp\ccTgSZM2.s 			page 66


 3689 022b 2B       		.uleb128 0x2b
 3690 022c 05       		.uleb128 0x5
 3691 022d 00       		.byte	0
 3692 022e 31       		.uleb128 0x31
 3693 022f 13       		.uleb128 0x13
 3694 0230 02       		.uleb128 0x2
 3695 0231 18       		.uleb128 0x18
 3696 0232 00       		.byte	0
 3697 0233 00       		.byte	0
 3698 0234 2C       		.uleb128 0x2c
 3699 0235 0B       		.uleb128 0xb
 3700 0236 01       		.byte	0x1
 3701 0237 55       		.uleb128 0x55
 3702 0238 17       		.uleb128 0x17
 3703 0239 00       		.byte	0
 3704 023a 00       		.byte	0
 3705 023b 2D       		.uleb128 0x2d
 3706 023c 34       		.uleb128 0x34
 3707 023d 00       		.byte	0
 3708 023e 31       		.uleb128 0x31
 3709 023f 13       		.uleb128 0x13
 3710 0240 02       		.uleb128 0x2
 3711 0241 17       		.uleb128 0x17
 3712 0242 00       		.byte	0
 3713 0243 00       		.byte	0
 3714 0244 2E       		.uleb128 0x2e
 3715 0245 1D       		.uleb128 0x1d
 3716 0246 01       		.byte	0x1
 3717 0247 31       		.uleb128 0x31
 3718 0248 13       		.uleb128 0x13
 3719 0249 11       		.uleb128 0x11
 3720 024a 01       		.uleb128 0x1
 3721 024b 12       		.uleb128 0x12
 3722 024c 06       		.uleb128 0x6
 3723 024d 58       		.uleb128 0x58
 3724 024e 0B       		.uleb128 0xb
 3725 024f 59       		.uleb128 0x59
 3726 0250 05       		.uleb128 0x5
 3727 0251 01       		.uleb128 0x1
 3728 0252 13       		.uleb128 0x13
 3729 0253 00       		.byte	0
 3730 0254 00       		.byte	0
 3731 0255 2F       		.uleb128 0x2f
 3732 0256 05       		.uleb128 0x5
 3733 0257 00       		.byte	0
 3734 0258 31       		.uleb128 0x31
 3735 0259 13       		.uleb128 0x13
 3736 025a 02       		.uleb128 0x2
 3737 025b 17       		.uleb128 0x17
 3738 025c 00       		.byte	0
 3739 025d 00       		.byte	0
 3740 025e 30       		.uleb128 0x30
 3741 025f 0B       		.uleb128 0xb
 3742 0260 01       		.byte	0x1
 3743 0261 11       		.uleb128 0x11
 3744 0262 01       		.uleb128 0x1
 3745 0263 12       		.uleb128 0x12
ARM GAS  C:\Users\jo\AppData\Local\Temp\ccTgSZM2.s 			page 67


 3746 0264 06       		.uleb128 0x6
 3747 0265 00       		.byte	0
 3748 0266 00       		.byte	0
 3749 0267 31       		.uleb128 0x31
 3750 0268 898201   		.uleb128 0x4109
 3751 026b 01       		.byte	0x1
 3752 026c 11       		.uleb128 0x11
 3753 026d 01       		.uleb128 0x1
 3754 026e 01       		.uleb128 0x1
 3755 026f 13       		.uleb128 0x13
 3756 0270 00       		.byte	0
 3757 0271 00       		.byte	0
 3758 0272 32       		.uleb128 0x32
 3759 0273 8A8201   		.uleb128 0x410a
 3760 0276 00       		.byte	0
 3761 0277 02       		.uleb128 0x2
 3762 0278 18       		.uleb128 0x18
 3763 0279 9142     		.uleb128 0x2111
 3764 027b 18       		.uleb128 0x18
 3765 027c 00       		.byte	0
 3766 027d 00       		.byte	0
 3767 027e 33       		.uleb128 0x33
 3768 027f 898201   		.uleb128 0x4109
 3769 0282 01       		.byte	0x1
 3770 0283 11       		.uleb128 0x11
 3771 0284 01       		.uleb128 0x1
 3772 0285 00       		.byte	0
 3773 0286 00       		.byte	0
 3774 0287 34       		.uleb128 0x34
 3775 0288 898201   		.uleb128 0x4109
 3776 028b 00       		.byte	0
 3777 028c 11       		.uleb128 0x11
 3778 028d 01       		.uleb128 0x1
 3779 028e 31       		.uleb128 0x31
 3780 028f 13       		.uleb128 0x13
 3781 0290 00       		.byte	0
 3782 0291 00       		.byte	0
 3783 0292 35       		.uleb128 0x35
 3784 0293 898201   		.uleb128 0x4109
 3785 0296 00       		.byte	0
 3786 0297 11       		.uleb128 0x11
 3787 0298 01       		.uleb128 0x1
 3788 0299 9542     		.uleb128 0x2115
 3789 029b 19       		.uleb128 0x19
 3790 029c 31       		.uleb128 0x31
 3791 029d 13       		.uleb128 0x13
 3792 029e 00       		.byte	0
 3793 029f 00       		.byte	0
 3794 02a0 36       		.uleb128 0x36
 3795 02a1 898201   		.uleb128 0x4109
 3796 02a4 01       		.byte	0x1
 3797 02a5 11       		.uleb128 0x11
 3798 02a6 01       		.uleb128 0x1
 3799 02a7 31       		.uleb128 0x31
 3800 02a8 13       		.uleb128 0x13
 3801 02a9 00       		.byte	0
 3802 02aa 00       		.byte	0
ARM GAS  C:\Users\jo\AppData\Local\Temp\ccTgSZM2.s 			page 68


 3803 02ab 37       		.uleb128 0x37
 3804 02ac 05       		.uleb128 0x5
 3805 02ad 00       		.byte	0
 3806 02ae 03       		.uleb128 0x3
 3807 02af 0E       		.uleb128 0xe
 3808 02b0 3A       		.uleb128 0x3a
 3809 02b1 0B       		.uleb128 0xb
 3810 02b2 3B       		.uleb128 0x3b
 3811 02b3 05       		.uleb128 0x5
 3812 02b4 49       		.uleb128 0x49
 3813 02b5 13       		.uleb128 0x13
 3814 02b6 02       		.uleb128 0x2
 3815 02b7 17       		.uleb128 0x17
 3816 02b8 00       		.byte	0
 3817 02b9 00       		.byte	0
 3818 02ba 38       		.uleb128 0x38
 3819 02bb 1D       		.uleb128 0x1d
 3820 02bc 01       		.byte	0x1
 3821 02bd 31       		.uleb128 0x31
 3822 02be 13       		.uleb128 0x13
 3823 02bf 11       		.uleb128 0x11
 3824 02c0 01       		.uleb128 0x1
 3825 02c1 12       		.uleb128 0x12
 3826 02c2 06       		.uleb128 0x6
 3827 02c3 58       		.uleb128 0x58
 3828 02c4 0B       		.uleb128 0xb
 3829 02c5 59       		.uleb128 0x59
 3830 02c6 0B       		.uleb128 0xb
 3831 02c7 00       		.byte	0
 3832 02c8 00       		.byte	0
 3833 02c9 39       		.uleb128 0x39
 3834 02ca 05       		.uleb128 0x5
 3835 02cb 00       		.byte	0
 3836 02cc 03       		.uleb128 0x3
 3837 02cd 0E       		.uleb128 0xe
 3838 02ce 3A       		.uleb128 0x3a
 3839 02cf 0B       		.uleb128 0xb
 3840 02d0 3B       		.uleb128 0x3b
 3841 02d1 05       		.uleb128 0x5
 3842 02d2 49       		.uleb128 0x49
 3843 02d3 13       		.uleb128 0x13
 3844 02d4 02       		.uleb128 0x2
 3845 02d5 18       		.uleb128 0x18
 3846 02d6 00       		.byte	0
 3847 02d7 00       		.byte	0
 3848 02d8 3A       		.uleb128 0x3a
 3849 02d9 05       		.uleb128 0x5
 3850 02da 00       		.byte	0
 3851 02db 03       		.uleb128 0x3
 3852 02dc 08       		.uleb128 0x8
 3853 02dd 3A       		.uleb128 0x3a
 3854 02de 0B       		.uleb128 0xb
 3855 02df 3B       		.uleb128 0x3b
 3856 02e0 05       		.uleb128 0x5
 3857 02e1 49       		.uleb128 0x49
 3858 02e2 13       		.uleb128 0x13
 3859 02e3 02       		.uleb128 0x2
ARM GAS  C:\Users\jo\AppData\Local\Temp\ccTgSZM2.s 			page 69


 3860 02e4 18       		.uleb128 0x18
 3861 02e5 00       		.byte	0
 3862 02e6 00       		.byte	0
 3863 02e7 3B       		.uleb128 0x3b
 3864 02e8 26       		.uleb128 0x26
 3865 02e9 00       		.byte	0
 3866 02ea 00       		.byte	0
 3867 02eb 00       		.byte	0
 3868 02ec 3C       		.uleb128 0x3c
 3869 02ed 2E       		.uleb128 0x2e
 3870 02ee 01       		.byte	0x1
 3871 02ef 3F       		.uleb128 0x3f
 3872 02f0 19       		.uleb128 0x19
 3873 02f1 03       		.uleb128 0x3
 3874 02f2 0E       		.uleb128 0xe
 3875 02f3 3A       		.uleb128 0x3a
 3876 02f4 0B       		.uleb128 0xb
 3877 02f5 3B       		.uleb128 0x3b
 3878 02f6 05       		.uleb128 0x5
 3879 02f7 27       		.uleb128 0x27
 3880 02f8 19       		.uleb128 0x19
 3881 02f9 49       		.uleb128 0x49
 3882 02fa 13       		.uleb128 0x13
 3883 02fb 11       		.uleb128 0x11
 3884 02fc 01       		.uleb128 0x1
 3885 02fd 12       		.uleb128 0x12
 3886 02fe 06       		.uleb128 0x6
 3887 02ff 40       		.uleb128 0x40
 3888 0300 18       		.uleb128 0x18
 3889 0301 9742     		.uleb128 0x2117
 3890 0303 19       		.uleb128 0x19
 3891 0304 01       		.uleb128 0x1
 3892 0305 13       		.uleb128 0x13
 3893 0306 00       		.byte	0
 3894 0307 00       		.byte	0
 3895 0308 3D       		.uleb128 0x3d
 3896 0309 34       		.uleb128 0x34
 3897 030a 00       		.byte	0
 3898 030b 03       		.uleb128 0x3
 3899 030c 08       		.uleb128 0x8
 3900 030d 3A       		.uleb128 0x3a
 3901 030e 0B       		.uleb128 0xb
 3902 030f 3B       		.uleb128 0x3b
 3903 0310 05       		.uleb128 0x5
 3904 0311 49       		.uleb128 0x49
 3905 0312 13       		.uleb128 0x13
 3906 0313 02       		.uleb128 0x2
 3907 0314 17       		.uleb128 0x17
 3908 0315 00       		.byte	0
 3909 0316 00       		.byte	0
 3910 0317 3E       		.uleb128 0x3e
 3911 0318 34       		.uleb128 0x34
 3912 0319 00       		.byte	0
 3913 031a 03       		.uleb128 0x3
 3914 031b 0E       		.uleb128 0xe
 3915 031c 49       		.uleb128 0x49
 3916 031d 13       		.uleb128 0x13
ARM GAS  C:\Users\jo\AppData\Local\Temp\ccTgSZM2.s 			page 70


 3917 031e 34       		.uleb128 0x34
 3918 031f 19       		.uleb128 0x19
 3919 0320 1C       		.uleb128 0x1c
 3920 0321 0E       		.uleb128 0xe
 3921 0322 00       		.byte	0
 3922 0323 00       		.byte	0
 3923 0324 3F       		.uleb128 0x3f
 3924 0325 05       		.uleb128 0x5
 3925 0326 00       		.byte	0
 3926 0327 03       		.uleb128 0x3
 3927 0328 08       		.uleb128 0x8
 3928 0329 3A       		.uleb128 0x3a
 3929 032a 0B       		.uleb128 0xb
 3930 032b 3B       		.uleb128 0x3b
 3931 032c 05       		.uleb128 0x5
 3932 032d 49       		.uleb128 0x49
 3933 032e 13       		.uleb128 0x13
 3934 032f 02       		.uleb128 0x2
 3935 0330 17       		.uleb128 0x17
 3936 0331 00       		.byte	0
 3937 0332 00       		.byte	0
 3938 0333 40       		.uleb128 0x40
 3939 0334 1D       		.uleb128 0x1d
 3940 0335 01       		.byte	0x1
 3941 0336 31       		.uleb128 0x31
 3942 0337 13       		.uleb128 0x13
 3943 0338 52       		.uleb128 0x52
 3944 0339 01       		.uleb128 0x1
 3945 033a 55       		.uleb128 0x55
 3946 033b 17       		.uleb128 0x17
 3947 033c 58       		.uleb128 0x58
 3948 033d 0B       		.uleb128 0xb
 3949 033e 59       		.uleb128 0x59
 3950 033f 05       		.uleb128 0x5
 3951 0340 00       		.byte	0
 3952 0341 00       		.byte	0
 3953 0342 41       		.uleb128 0x41
 3954 0343 05       		.uleb128 0x5
 3955 0344 00       		.byte	0
 3956 0345 31       		.uleb128 0x31
 3957 0346 13       		.uleb128 0x13
 3958 0347 1C       		.uleb128 0x1c
 3959 0348 0B       		.uleb128 0xb
 3960 0349 00       		.byte	0
 3961 034a 00       		.byte	0
 3962 034b 42       		.uleb128 0x42
 3963 034c 1D       		.uleb128 0x1d
 3964 034d 01       		.byte	0x1
 3965 034e 31       		.uleb128 0x31
 3966 034f 13       		.uleb128 0x13
 3967 0350 11       		.uleb128 0x11
 3968 0351 01       		.uleb128 0x1
 3969 0352 12       		.uleb128 0x12
 3970 0353 06       		.uleb128 0x6
 3971 0354 58       		.uleb128 0x58
 3972 0355 0B       		.uleb128 0xb
 3973 0356 59       		.uleb128 0x59
ARM GAS  C:\Users\jo\AppData\Local\Temp\ccTgSZM2.s 			page 71


 3974 0357 05       		.uleb128 0x5
 3975 0358 00       		.byte	0
 3976 0359 00       		.byte	0
 3977 035a 43       		.uleb128 0x43
 3978 035b 34       		.uleb128 0x34
 3979 035c 00       		.byte	0
 3980 035d 31       		.uleb128 0x31
 3981 035e 13       		.uleb128 0x13
 3982 035f 02       		.uleb128 0x2
 3983 0360 18       		.uleb128 0x18
 3984 0361 00       		.byte	0
 3985 0362 00       		.byte	0
 3986 0363 44       		.uleb128 0x44
 3987 0364 898201   		.uleb128 0x4109
 3988 0367 01       		.byte	0x1
 3989 0368 11       		.uleb128 0x11
 3990 0369 01       		.uleb128 0x1
 3991 036a 31       		.uleb128 0x31
 3992 036b 13       		.uleb128 0x13
 3993 036c 01       		.uleb128 0x1
 3994 036d 13       		.uleb128 0x13
 3995 036e 00       		.byte	0
 3996 036f 00       		.byte	0
 3997 0370 45       		.uleb128 0x45
 3998 0371 34       		.uleb128 0x34
 3999 0372 00       		.byte	0
 4000 0373 03       		.uleb128 0x3
 4001 0374 0E       		.uleb128 0xe
 4002 0375 3A       		.uleb128 0x3a
 4003 0376 0B       		.uleb128 0xb
 4004 0377 3B       		.uleb128 0x3b
 4005 0378 05       		.uleb128 0x5
 4006 0379 49       		.uleb128 0x49
 4007 037a 13       		.uleb128 0x13
 4008 037b 3F       		.uleb128 0x3f
 4009 037c 19       		.uleb128 0x19
 4010 037d 3C       		.uleb128 0x3c
 4011 037e 19       		.uleb128 0x19
 4012 037f 00       		.byte	0
 4013 0380 00       		.byte	0
 4014 0381 46       		.uleb128 0x46
 4015 0382 34       		.uleb128 0x34
 4016 0383 00       		.byte	0
 4017 0384 03       		.uleb128 0x3
 4018 0385 08       		.uleb128 0x8
 4019 0386 3A       		.uleb128 0x3a
 4020 0387 0B       		.uleb128 0xb
 4021 0388 3B       		.uleb128 0x3b
 4022 0389 05       		.uleb128 0x5
 4023 038a 49       		.uleb128 0x49
 4024 038b 13       		.uleb128 0x13
 4025 038c 3F       		.uleb128 0x3f
 4026 038d 19       		.uleb128 0x19
 4027 038e 3C       		.uleb128 0x3c
 4028 038f 19       		.uleb128 0x19
 4029 0390 00       		.byte	0
 4030 0391 00       		.byte	0
ARM GAS  C:\Users\jo\AppData\Local\Temp\ccTgSZM2.s 			page 72


 4031 0392 47       		.uleb128 0x47
 4032 0393 34       		.uleb128 0x34
 4033 0394 00       		.byte	0
 4034 0395 03       		.uleb128 0x3
 4035 0396 0E       		.uleb128 0xe
 4036 0397 3A       		.uleb128 0x3a
 4037 0398 0B       		.uleb128 0xb
 4038 0399 3B       		.uleb128 0x3b
 4039 039a 0B       		.uleb128 0xb
 4040 039b 49       		.uleb128 0x49
 4041 039c 13       		.uleb128 0x13
 4042 039d 3F       		.uleb128 0x3f
 4043 039e 19       		.uleb128 0x19
 4044 039f 02       		.uleb128 0x2
 4045 03a0 18       		.uleb128 0x18
 4046 03a1 00       		.byte	0
 4047 03a2 00       		.byte	0
 4048 03a3 48       		.uleb128 0x48
 4049 03a4 2E       		.uleb128 0x2e
 4050 03a5 00       		.byte	0
 4051 03a6 3F       		.uleb128 0x3f
 4052 03a7 19       		.uleb128 0x19
 4053 03a8 03       		.uleb128 0x3
 4054 03a9 0E       		.uleb128 0xe
 4055 03aa 3A       		.uleb128 0x3a
 4056 03ab 0B       		.uleb128 0xb
 4057 03ac 3B       		.uleb128 0x3b
 4058 03ad 0B       		.uleb128 0xb
 4059 03ae 27       		.uleb128 0x27
 4060 03af 19       		.uleb128 0x19
 4061 03b0 3C       		.uleb128 0x3c
 4062 03b1 19       		.uleb128 0x19
 4063 03b2 00       		.byte	0
 4064 03b3 00       		.byte	0
 4065 03b4 49       		.uleb128 0x49
 4066 03b5 2E       		.uleb128 0x2e
 4067 03b6 00       		.byte	0
 4068 03b7 3F       		.uleb128 0x3f
 4069 03b8 19       		.uleb128 0x19
 4070 03b9 03       		.uleb128 0x3
 4071 03ba 0E       		.uleb128 0xe
 4072 03bb 3A       		.uleb128 0x3a
 4073 03bc 0B       		.uleb128 0xb
 4074 03bd 3B       		.uleb128 0x3b
 4075 03be 05       		.uleb128 0x5
 4076 03bf 27       		.uleb128 0x27
 4077 03c0 19       		.uleb128 0x19
 4078 03c1 3C       		.uleb128 0x3c
 4079 03c2 19       		.uleb128 0x19
 4080 03c3 00       		.byte	0
 4081 03c4 00       		.byte	0
 4082 03c5 4A       		.uleb128 0x4a
 4083 03c6 2E       		.uleb128 0x2e
 4084 03c7 01       		.byte	0x1
 4085 03c8 3F       		.uleb128 0x3f
 4086 03c9 19       		.uleb128 0x19
 4087 03ca 03       		.uleb128 0x3
ARM GAS  C:\Users\jo\AppData\Local\Temp\ccTgSZM2.s 			page 73


 4088 03cb 0E       		.uleb128 0xe
 4089 03cc 3A       		.uleb128 0x3a
 4090 03cd 0B       		.uleb128 0xb
 4091 03ce 3B       		.uleb128 0x3b
 4092 03cf 0B       		.uleb128 0xb
 4093 03d0 27       		.uleb128 0x27
 4094 03d1 19       		.uleb128 0x19
 4095 03d2 3C       		.uleb128 0x3c
 4096 03d3 19       		.uleb128 0x19
 4097 03d4 01       		.uleb128 0x1
 4098 03d5 13       		.uleb128 0x13
 4099 03d6 00       		.byte	0
 4100 03d7 00       		.byte	0
 4101 03d8 4B       		.uleb128 0x4b
 4102 03d9 2E       		.uleb128 0x2e
 4103 03da 01       		.byte	0x1
 4104 03db 3F       		.uleb128 0x3f
 4105 03dc 19       		.uleb128 0x19
 4106 03dd 03       		.uleb128 0x3
 4107 03de 0E       		.uleb128 0xe
 4108 03df 3A       		.uleb128 0x3a
 4109 03e0 0B       		.uleb128 0xb
 4110 03e1 3B       		.uleb128 0x3b
 4111 03e2 0B       		.uleb128 0xb
 4112 03e3 6E       		.uleb128 0x6e
 4113 03e4 0E       		.uleb128 0xe
 4114 03e5 27       		.uleb128 0x27
 4115 03e6 19       		.uleb128 0x19
 4116 03e7 49       		.uleb128 0x49
 4117 03e8 13       		.uleb128 0x13
 4118 03e9 3C       		.uleb128 0x3c
 4119 03ea 19       		.uleb128 0x19
 4120 03eb 01       		.uleb128 0x1
 4121 03ec 13       		.uleb128 0x13
 4122 03ed 00       		.byte	0
 4123 03ee 00       		.byte	0
 4124 03ef 4C       		.uleb128 0x4c
 4125 03f0 2E       		.uleb128 0x2e
 4126 03f1 01       		.byte	0x1
 4127 03f2 3F       		.uleb128 0x3f
 4128 03f3 19       		.uleb128 0x19
 4129 03f4 03       		.uleb128 0x3
 4130 03f5 0E       		.uleb128 0xe
 4131 03f6 3A       		.uleb128 0x3a
 4132 03f7 0B       		.uleb128 0xb
 4133 03f8 3B       		.uleb128 0x3b
 4134 03f9 0B       		.uleb128 0xb
 4135 03fa 27       		.uleb128 0x27
 4136 03fb 19       		.uleb128 0x19
 4137 03fc 3C       		.uleb128 0x3c
 4138 03fd 19       		.uleb128 0x19
 4139 03fe 00       		.byte	0
 4140 03ff 00       		.byte	0
 4141 0400 00       		.byte	0
 4142              		.section	.debug_loc,"",%progbits
 4143              	.Ldebug_loc0:
 4144              	.LLST0:
ARM GAS  C:\Users\jo\AppData\Local\Temp\ccTgSZM2.s 			page 74


 4145 0000 10000000 		.4byte	.LVL3
 4146 0004 82000000 		.4byte	.LVL15
 4147 0008 0100     		.2byte	0x1
 4148 000a 54       		.byte	0x54
 4149 000b 86000000 		.4byte	.LVL16
 4150 000f B8000000 		.4byte	.LFE259
 4151 0013 0100     		.2byte	0x1
 4152 0015 54       		.byte	0x54
 4153 0016 00000000 		.4byte	0
 4154 001a 00000000 		.4byte	0
 4155              	.LLST1:
 4156 001e 0E000000 		.4byte	.LVL2
 4157 0022 82000000 		.4byte	.LVL15
 4158 0026 0100     		.2byte	0x1
 4159 0028 57       		.byte	0x57
 4160 0029 86000000 		.4byte	.LVL16
 4161 002d B8000000 		.4byte	.LFE259
 4162 0031 0100     		.2byte	0x1
 4163 0033 57       		.byte	0x57
 4164 0034 00000000 		.4byte	0
 4165 0038 00000000 		.4byte	0
 4166              	.LLST2:
 4167 003c 4A000000 		.4byte	.LVL11
 4168 0040 78000000 		.4byte	.LVL13
 4169 0044 0100     		.2byte	0x1
 4170 0046 55       		.byte	0x55
 4171 0047 86000000 		.4byte	.LVL16
 4172 004b B8000000 		.4byte	.LFE259
 4173 004f 0100     		.2byte	0x1
 4174 0051 55       		.byte	0x55
 4175 0052 00000000 		.4byte	0
 4176 0056 00000000 		.4byte	0
 4177              	.LLST3:
 4178 005a 1A000000 		.4byte	.LVL4
 4179 005e 48000000 		.4byte	.LVL10
 4180 0062 0100     		.2byte	0x1
 4181 0064 54       		.byte	0x54
 4182 0065 00000000 		.4byte	0
 4183 0069 00000000 		.4byte	0
 4184              	.LLST4:
 4185 006d 1A000000 		.4byte	.LVL4
 4186 0071 24000000 		.4byte	.LVL5
 4187 0075 0200     		.2byte	0x2
 4188 0077 30       		.byte	0x30
 4189 0078 9F       		.byte	0x9f
 4190 0079 24000000 		.4byte	.LVL5
 4191 007d 47000000 		.4byte	.LVL10-1
 4192 0081 0100     		.2byte	0x1
 4193 0083 51       		.byte	0x51
 4194 0084 00000000 		.4byte	0
 4195 0088 00000000 		.4byte	0
 4196              	.LLST5:
 4197 008c 00000000 		.4byte	.LVL20
 4198 0090 0A000000 		.4byte	.LVL21
 4199 0094 0100     		.2byte	0x1
 4200 0096 50       		.byte	0x50
 4201 0097 0A000000 		.4byte	.LVL21
ARM GAS  C:\Users\jo\AppData\Local\Temp\ccTgSZM2.s 			page 75


 4202 009b 32000000 		.4byte	.LVL23
 4203 009f 0100     		.2byte	0x1
 4204 00a1 54       		.byte	0x54
 4205 00a2 32000000 		.4byte	.LVL23
 4206 00a6 4E000000 		.4byte	.LVL24
 4207 00aa 0400     		.2byte	0x4
 4208 00ac F3       		.byte	0xf3
 4209 00ad 01       		.uleb128 0x1
 4210 00ae 50       		.byte	0x50
 4211 00af 9F       		.byte	0x9f
 4212 00b0 4E000000 		.4byte	.LVL24
 4213 00b4 54000000 		.4byte	.LVL25
 4214 00b8 0100     		.2byte	0x1
 4215 00ba 50       		.byte	0x50
 4216 00bb 54000000 		.4byte	.LVL25
 4217 00bf 5E000000 		.4byte	.LVL26
 4218 00c3 0100     		.2byte	0x1
 4219 00c5 54       		.byte	0x54
 4220 00c6 5E000000 		.4byte	.LVL26
 4221 00ca 6A000000 		.4byte	.LVL27
 4222 00ce 0100     		.2byte	0x1
 4223 00d0 50       		.byte	0x50
 4224 00d1 6A000000 		.4byte	.LVL27
 4225 00d5 88000000 		.4byte	.LFE261
 4226 00d9 0100     		.2byte	0x1
 4227 00db 54       		.byte	0x54
 4228 00dc 00000000 		.4byte	0
 4229 00e0 00000000 		.4byte	0
 4230              	.LLST6:
 4231 00e4 18000000 		.4byte	.LVL22
 4232 00e8 32000000 		.4byte	.LVL23
 4233 00ec 0100     		.2byte	0x1
 4234 00ee 54       		.byte	0x54
 4235 00ef 32000000 		.4byte	.LVL23
 4236 00f3 4E000000 		.4byte	.LVL24
 4237 00f7 0400     		.2byte	0x4
 4238 00f9 F3       		.byte	0xf3
 4239 00fa 01       		.uleb128 0x1
 4240 00fb 50       		.byte	0x50
 4241 00fc 9F       		.byte	0x9f
 4242 00fd 00000000 		.4byte	0
 4243 0101 00000000 		.4byte	0
 4244              	.LLST7:
 4245 0105 18000000 		.4byte	.LVL22
 4246 0109 4E000000 		.4byte	.LVL24
 4247 010d 0100     		.2byte	0x1
 4248 010f 53       		.byte	0x53
 4249 0110 00000000 		.4byte	0
 4250 0114 00000000 		.4byte	0
 4251              	.LLST9:
 4252 0118 00000000 		.4byte	.LVL29
 4253 011c 08000000 		.4byte	.LVL30
 4254 0120 0100     		.2byte	0x1
 4255 0122 50       		.byte	0x50
 4256 0123 08000000 		.4byte	.LVL30
 4257 0127 0A000000 		.4byte	.LVL31
 4258 012b 0400     		.2byte	0x4
ARM GAS  C:\Users\jo\AppData\Local\Temp\ccTgSZM2.s 			page 76


 4259 012d F3       		.byte	0xf3
 4260 012e 01       		.uleb128 0x1
 4261 012f 50       		.byte	0x50
 4262 0130 9F       		.byte	0x9f
 4263 0131 0A000000 		.4byte	.LVL31
 4264 0135 1C000000 		.4byte	.LVL32
 4265 0139 0100     		.2byte	0x1
 4266 013b 50       		.byte	0x50
 4267 013c 1C000000 		.4byte	.LVL32
 4268 0140 34000000 		.4byte	.LFE262
 4269 0144 0400     		.2byte	0x4
 4270 0146 F3       		.byte	0xf3
 4271 0147 01       		.uleb128 0x1
 4272 0148 50       		.byte	0x50
 4273 0149 9F       		.byte	0x9f
 4274 014a 00000000 		.4byte	0
 4275 014e 00000000 		.4byte	0
 4276              	.LLST10:
 4277 0152 0A000000 		.4byte	.LVL31
 4278 0156 1C000000 		.4byte	.LVL32
 4279 015a 0100     		.2byte	0x1
 4280 015c 50       		.byte	0x50
 4281 015d 1C000000 		.4byte	.LVL32
 4282 0161 34000000 		.4byte	.LFE262
 4283 0165 0400     		.2byte	0x4
 4284 0167 F3       		.byte	0xf3
 4285 0168 01       		.uleb128 0x1
 4286 0169 50       		.byte	0x50
 4287 016a 9F       		.byte	0x9f
 4288 016b 00000000 		.4byte	0
 4289 016f 00000000 		.4byte	0
 4290              	.LLST11:
 4291 0173 00000000 		.4byte	.LVL34
 4292 0177 08000000 		.4byte	.LVL35
 4293 017b 0100     		.2byte	0x1
 4294 017d 50       		.byte	0x50
 4295 017e 08000000 		.4byte	.LVL35
 4296 0182 1E000000 		.4byte	.LFE264
 4297 0186 0100     		.2byte	0x1
 4298 0188 53       		.byte	0x53
 4299 0189 00000000 		.4byte	0
 4300 018d 00000000 		.4byte	0
 4301              	.LLST12:
 4302 0191 08000000 		.4byte	.LVL35
 4303 0195 14000000 		.4byte	.LVL36
 4304 0199 0700     		.2byte	0x7
 4305 019b 70       		.byte	0x70
 4306 019c 00       		.sleb128 0
 4307 019d 0A       		.byte	0xa
 4308 019e FFFF     		.2byte	0xffff
 4309 01a0 1A       		.byte	0x1a
 4310 01a1 9F       		.byte	0x9f
 4311 01a2 14000000 		.4byte	.LVL36
 4312 01a6 1E000000 		.4byte	.LFE264
 4313 01aa 0100     		.2byte	0x1
 4314 01ac 50       		.byte	0x50
 4315 01ad 00000000 		.4byte	0
ARM GAS  C:\Users\jo\AppData\Local\Temp\ccTgSZM2.s 			page 77


 4316 01b1 00000000 		.4byte	0
 4317              	.LLST13:
 4318 01b5 00000000 		.4byte	.LVL37
 4319 01b9 11000000 		.4byte	.LVL38-1
 4320 01bd 0100     		.2byte	0x1
 4321 01bf 50       		.byte	0x50
 4322 01c0 11000000 		.4byte	.LVL38-1
 4323 01c4 4C000000 		.4byte	.LVL45
 4324 01c8 0100     		.2byte	0x1
 4325 01ca 54       		.byte	0x54
 4326 01cb 4C000000 		.4byte	.LVL45
 4327 01cf 58000000 		.4byte	.LFE265
 4328 01d3 0400     		.2byte	0x4
 4329 01d5 F3       		.byte	0xf3
 4330 01d6 01       		.uleb128 0x1
 4331 01d7 50       		.byte	0x50
 4332 01d8 9F       		.byte	0x9f
 4333 01d9 00000000 		.4byte	0
 4334 01dd 00000000 		.4byte	0
 4335              	.LLST14:
 4336 01e1 00000000 		.4byte	.LVL37
 4337 01e5 11000000 		.4byte	.LVL38-1
 4338 01e9 0100     		.2byte	0x1
 4339 01eb 51       		.byte	0x51
 4340 01ec 11000000 		.4byte	.LVL38-1
 4341 01f0 14000000 		.4byte	.LVL39
 4342 01f4 0100     		.2byte	0x1
 4343 01f6 55       		.byte	0x55
 4344 01f7 14000000 		.4byte	.LVL39
 4345 01fb 58000000 		.4byte	.LFE265
 4346 01ff 0400     		.2byte	0x4
 4347 0201 F3       		.byte	0xf3
 4348 0202 01       		.uleb128 0x1
 4349 0203 51       		.byte	0x51
 4350 0204 9F       		.byte	0x9f
 4351 0205 00000000 		.4byte	0
 4352 0209 00000000 		.4byte	0
 4353              	.LLST15:
 4354 020d 00000000 		.4byte	.LVL37
 4355 0211 11000000 		.4byte	.LVL38-1
 4356 0215 0100     		.2byte	0x1
 4357 0217 52       		.byte	0x52
 4358 0218 11000000 		.4byte	.LVL38-1
 4359 021c 4C000000 		.4byte	.LVL45
 4360 0220 0100     		.2byte	0x1
 4361 0222 56       		.byte	0x56
 4362 0223 4C000000 		.4byte	.LVL45
 4363 0227 58000000 		.4byte	.LFE265
 4364 022b 0400     		.2byte	0x4
 4365 022d F3       		.byte	0xf3
 4366 022e 01       		.uleb128 0x1
 4367 022f 52       		.byte	0x52
 4368 0230 9F       		.byte	0x9f
 4369 0231 00000000 		.4byte	0
 4370 0235 00000000 		.4byte	0
 4371              	.LLST16:
 4372 0239 00000000 		.4byte	.LVL46
ARM GAS  C:\Users\jo\AppData\Local\Temp\ccTgSZM2.s 			page 78


 4373 023d 0D000000 		.4byte	.LVL47-1
 4374 0241 0100     		.2byte	0x1
 4375 0243 50       		.byte	0x50
 4376 0244 0D000000 		.4byte	.LVL47-1
 4377 0248 1E000000 		.4byte	.LVL49
 4378 024c 0100     		.2byte	0x1
 4379 024e 54       		.byte	0x54
 4380 024f 1E000000 		.4byte	.LVL49
 4381 0253 58000000 		.4byte	.LFE266
 4382 0257 0400     		.2byte	0x4
 4383 0259 F3       		.byte	0xf3
 4384 025a 01       		.uleb128 0x1
 4385 025b 50       		.byte	0x50
 4386 025c 9F       		.byte	0x9f
 4387 025d 00000000 		.4byte	0
 4388 0261 00000000 		.4byte	0
 4389              	.LLST17:
 4390 0265 1E000000 		.4byte	.LVL49
 4391 0269 4C000000 		.4byte	.LVL54
 4392 026d 0100     		.2byte	0x1
 4393 026f 54       		.byte	0x54
 4394 0270 4C000000 		.4byte	.LVL54
 4395 0274 58000000 		.4byte	.LFE266
 4396 0278 0100     		.2byte	0x1
 4397 027a 50       		.byte	0x50
 4398 027b 00000000 		.4byte	0
 4399 027f 00000000 		.4byte	0
 4400              		.section	.debug_aranges,"",%progbits
 4401 0000 54000000 		.4byte	0x54
 4402 0004 0200     		.2byte	0x2
 4403 0006 00000000 		.4byte	.Ldebug_info0
 4404 000a 04       		.byte	0x4
 4405 000b 00       		.byte	0
 4406 000c 0000     		.2byte	0
 4407 000e 0000     		.2byte	0
 4408 0010 00000000 		.4byte	.LFB259
 4409 0014 B8000000 		.4byte	.LFE259-.LFB259
 4410 0018 00000000 		.4byte	.LFB260
 4411 001c 18000000 		.4byte	.LFE260-.LFB260
 4412 0020 00000000 		.4byte	.LFB261
 4413 0024 88000000 		.4byte	.LFE261-.LFB261
 4414 0028 00000000 		.4byte	.LFB262
 4415 002c 34000000 		.4byte	.LFE262-.LFB262
 4416 0030 00000000 		.4byte	.LFB263
 4417 0034 1E000000 		.4byte	.LFE263-.LFB263
 4418 0038 00000000 		.4byte	.LFB264
 4419 003c 1E000000 		.4byte	.LFE264-.LFB264
 4420 0040 00000000 		.4byte	.LFB265
 4421 0044 58000000 		.4byte	.LFE265-.LFB265
 4422 0048 00000000 		.4byte	.LFB266
 4423 004c 58000000 		.4byte	.LFE266-.LFB266
 4424 0050 00000000 		.4byte	0
 4425 0054 00000000 		.4byte	0
 4426              		.section	.debug_ranges,"",%progbits
 4427              	.Ldebug_ranges0:
 4428 0000 02000000 		.4byte	.LBB32
 4429 0004 04000000 		.4byte	.LBE32
ARM GAS  C:\Users\jo\AppData\Local\Temp\ccTgSZM2.s 			page 79


 4430 0008 0C000000 		.4byte	.LBB38
 4431 000c 7A000000 		.4byte	.LBE38
 4432 0010 86000000 		.4byte	.LBB39
 4433 0014 B8000000 		.4byte	.LBE39
 4434 0018 00000000 		.4byte	0
 4435 001c 00000000 		.4byte	0
 4436 0020 0A000000 		.4byte	.LBB45
 4437 0024 0E000000 		.4byte	.LBE45
 4438 0028 10000000 		.4byte	.LBB51
 4439 002c 14000000 		.4byte	.LBE51
 4440 0030 18000000 		.4byte	.LBB52
 4441 0034 4E000000 		.4byte	.LBE52
 4442 0038 00000000 		.4byte	0
 4443 003c 00000000 		.4byte	0
 4444 0040 0C000000 		.4byte	.LBB54
 4445 0044 10000000 		.4byte	.LBE54
 4446 0048 12000000 		.4byte	.LBB57
 4447 004c 18000000 		.4byte	.LBE57
 4448 0050 00000000 		.4byte	0
 4449 0054 00000000 		.4byte	0
 4450 0058 02000000 		.4byte	.LBB68
 4451 005c 04000000 		.4byte	.LBE68
 4452 0060 0A000000 		.4byte	.LBB78
 4453 0064 12000000 		.4byte	.LBE78
 4454 0068 14000000 		.4byte	.LBB79
 4455 006c 18000000 		.4byte	.LBE79
 4456 0070 00000000 		.4byte	0
 4457 0074 00000000 		.4byte	0
 4458 0078 02000000 		.4byte	.LBB70
 4459 007c 04000000 		.4byte	.LBE70
 4460 0080 0A000000 		.4byte	.LBB75
 4461 0084 0E000000 		.4byte	.LBE75
 4462 0088 00000000 		.4byte	0
 4463 008c 00000000 		.4byte	0
 4464 0090 02000000 		.4byte	.LBB95
 4465 0094 04000000 		.4byte	.LBE95
 4466 0098 06000000 		.4byte	.LBB104
 4467 009c 12000000 		.4byte	.LBE104
 4468 00a0 00000000 		.4byte	0
 4469 00a4 00000000 		.4byte	0
 4470 00a8 02000000 		.4byte	.LBB97
 4471 00ac 04000000 		.4byte	.LBE97
 4472 00b0 06000000 		.4byte	.LBB102
 4473 00b4 0A000000 		.4byte	.LBE102
 4474 00b8 00000000 		.4byte	0
 4475 00bc 00000000 		.4byte	0
 4476 00c0 00000000 		.4byte	.LFB259
 4477 00c4 B8000000 		.4byte	.LFE259
 4478 00c8 00000000 		.4byte	.LFB260
 4479 00cc 18000000 		.4byte	.LFE260
 4480 00d0 00000000 		.4byte	.LFB261
 4481 00d4 88000000 		.4byte	.LFE261
 4482 00d8 00000000 		.4byte	.LFB262
 4483 00dc 34000000 		.4byte	.LFE262
 4484 00e0 00000000 		.4byte	.LFB263
 4485 00e4 1E000000 		.4byte	.LFE263
 4486 00e8 00000000 		.4byte	.LFB264
ARM GAS  C:\Users\jo\AppData\Local\Temp\ccTgSZM2.s 			page 80


 4487 00ec 1E000000 		.4byte	.LFE264
 4488 00f0 00000000 		.4byte	.LFB265
 4489 00f4 58000000 		.4byte	.LFE265
 4490 00f8 00000000 		.4byte	.LFB266
 4491 00fc 58000000 		.4byte	.LFE266
 4492 0100 00000000 		.4byte	0
 4493 0104 00000000 		.4byte	0
 4494              		.section	.debug_line,"",%progbits
 4495              	.Ldebug_line0:
 4496 0000 08050000 		.section	.debug_str,"MS",%progbits,1
 4496      02004903 
 4496      00000201 
 4496      FB0E0D00 
 4496      01010101 
 4497              	.LASF50:
 4498 0000 705F7374 		.ascii	"p_stats\000"
 4498      61747300 
 4499              	.LASF2:
 4500 0008 73697A65 		.ascii	"size_t\000"
 4500      5F7400
 4501              	.LASF88:
 4502 000f 73697A65 		.ascii	"sizetype\000"
 4502      74797065 
 4502      00
 4503              	.LASF30:
 4504 0018 73797374 		.ascii	"systime_t\000"
 4504      696D655F 
 4504      7400
 4505              	.LASF167:
 4506 0022 55415254 		.ascii	"UART_STOP\000"
 4506      5F53544F 
 4506      5000
 4507              	.LASF115:
 4508 002c 504C4C49 		.ascii	"PLLI2SCFGR\000"
 4508      32534346 
 4508      475200
 4509              	.LASF35:
 4510 0037 705F6374 		.ascii	"p_ctx\000"
 4510      7800
 4511              	.LASF25:
 4512 003d 74707269 		.ascii	"tprio_t\000"
 4512      6F5F7400 
 4513              	.LASF234:
 4514 0045 2E2E2F2E 		.ascii	"../../../os/hal/ports/STM32/LLD/USARTv1/uart_lld.c\000"
 4514      2E2F2E2E 
 4514      2F6F732F 
 4514      68616C2F 
 4514      706F7274 
 4515              	.LASF44:
 4516 0078 705F6D73 		.ascii	"p_msgqueue\000"
 4516      67717565 
 4516      756500
 4517              	.LASF60:
 4518 0083 725F6374 		.ascii	"r_ctx\000"
 4518      7800
 4519              	.LASF17:
 4520 0089 696E7433 		.ascii	"int32_t\000"
ARM GAS  C:\Users\jo\AppData\Local\Temp\ccTgSZM2.s 			page 81


 4520      325F7400 
 4521              	.LASF64:
 4522 0091 76746675 		.ascii	"vtfunc_t\000"
 4522      6E635F74 
 4522      00
 4523              	.LASF73:
 4524 009a 63685F76 		.ascii	"ch_virtual_timers_list\000"
 4524      69727475 
 4524      616C5F74 
 4524      696D6572 
 4524      735F6C69 
 4525              	.LASF216:
 4526 00b1 5F5F6675 		.ascii	"__func__\000"
 4526      6E635F5F 
 4526      00
 4527              	.LASF183:
 4528 00ba 636F6E66 		.ascii	"config\000"
 4528      696700
 4529              	.LASF180:
 4530 00c1 73746174 		.ascii	"state\000"
 4530      6500
 4531              	.LASF79:
 4532 00c7 6C6F636B 		.ascii	"lock_cnt\000"
 4532      5F636E74 
 4532      00
 4533              	.LASF238:
 4534 00d0 70757473 		.ascii	"puts\000"
 4534      00
 4535              	.LASF182:
 4536 00d5 72787374 		.ascii	"rxstate\000"
 4536      61746500 
 4537              	.LASF125:
 4538 00dd 73655F74 		.ascii	"se_tp\000"
 4538      7000
 4539              	.LASF139:
 4540 00e3 74696D65 		.ascii	"time_measurement_t\000"
 4540      5F6D6561 
 4540      73757265 
 4540      6D656E74 
 4540      5F7400
 4541              	.LASF195:
 4542 00f6 7278656E 		.ascii	"rxend_cb\000"
 4542      645F6362 
 4542      00
 4543              	.LASF231:
 4544 00ff 5F646267 		.ascii	"_dbg_check_unlock\000"
 4544      5F636865 
 4544      636B5F75 
 4544      6E6C6F63 
 4544      6B00
 4545              	.LASF151:
 4546 0111 6D5F6F77 		.ascii	"m_owner\000"
 4546      6E657200 
 4547              	.LASF71:
 4548 0119 76745F70 		.ascii	"vt_par\000"
 4548      617200
 4549              	.LASF210:
ARM GAS  C:\Users\jo\AppData\Local\Temp\ccTgSZM2.s 			page 82


 4550 0120 75736172 		.ascii	"usart_start\000"
 4550      745F7374 
 4550      61727400 
 4551              	.LASF146:
 4552 012c 65786974 		.ascii	"exitcode\000"
 4552      636F6465 
 4552      00
 4553              	.LASF3:
 4554 0135 5F5F7569 		.ascii	"__uint8_t\000"
 4554      6E74385F 
 4554      7400
 4555              	.LASF106:
 4556 013f 41484232 		.ascii	"AHB2LPENR\000"
 4556      4C50454E 
 4556      5200
 4557              	.LASF159:
 4558 0149 50555044 		.ascii	"PUPDR\000"
 4558      5200
 4559              	.LASF201:
 4560 014f 75736172 		.ascii	"usart_stop\000"
 4560      745F7374 
 4560      6F7000
 4561              	.LASF171:
 4562 015a 55415254 		.ascii	"UART_TX_ACTIVE\000"
 4562      5F54585F 
 4562      41435449 
 4562      564500
 4563              	.LASF36:
 4564 0169 705F6E65 		.ascii	"p_newer\000"
 4564      77657200 
 4565              	.LASF179:
 4566 0171 55415254 		.ascii	"UARTDriver\000"
 4566      44726976 
 4566      657200
 4567              	.LASF9:
 4568 017c 6C6F6E67 		.ascii	"long int\000"
 4568      20696E74 
 4568      00
 4569              	.LASF32:
 4570 0185 705F6E65 		.ascii	"p_next\000"
 4570      787400
 4571              	.LASF222:
 4572 018c 5F737461 		.ascii	"_stats_increase_irq\000"
 4572      74735F69 
 4572      6E637265 
 4572      6173655F 
 4572      69727100 
 4573              	.LASF205:
 4574 01a0 706F7274 		.ascii	"port_unlock\000"
 4574      5F756E6C 
 4574      6F636B00 
 4575              	.LASF33:
 4576 01ac 705F7072 		.ascii	"p_prev\000"
 4576      657600
 4577              	.LASF23:
 4578 01b3 74737461 		.ascii	"tstate_t\000"
 4578      74655F74 
ARM GAS  C:\Users\jo\AppData\Local\Temp\ccTgSZM2.s 			page 83


 4578      00
 4579              	.LASF21:
 4580 01bc 72747469 		.ascii	"rttime_t\000"
 4580      6D655F74 
 4580      00
 4581              	.LASF54:
 4582 01c5 74687265 		.ascii	"threads_queue_t\000"
 4582      6164735F 
 4582      71756575 
 4582      655F7400 
 4583              	.LASF47:
 4584 01d5 705F6D74 		.ascii	"p_mtxlist\000"
 4584      786C6973 
 4584      7400
 4585              	.LASF214:
 4586 01df 74786275 		.ascii	"txbuf\000"
 4586      6600
 4587              	.LASF119:
 4588 01e5 72656761 		.ascii	"regarm_t\000"
 4588      726D5F74 
 4588      00
 4589              	.LASF181:
 4590 01ee 74787374 		.ascii	"txstate\000"
 4590      61746500 
 4591              	.LASF103:
 4592 01f6 41504232 		.ascii	"APB2ENR\000"
 4592      454E5200 
 4593              	.LASF105:
 4594 01fe 41484231 		.ascii	"AHB1LPENR\000"
 4594      4C50454E 
 4594      5200
 4595              	.LASF173:
 4596 0208 75617274 		.ascii	"uarttxstate_t\000"
 4596      74787374 
 4596      6174655F 
 4596      7400
 4597              	.LASF184:
 4598 0216 75736172 		.ascii	"usart\000"
 4598      7400
 4599              	.LASF138:
 4600 021c 63756D75 		.ascii	"cumulative\000"
 4600      6C617469 
 4600      766500
 4601              	.LASF1:
 4602 0227 7369676E 		.ascii	"signed char\000"
 4602      65642063 
 4602      68617200 
 4603              	.LASF148:
 4604 0233 65776D61 		.ascii	"ewmask\000"
 4604      736B00
 4605              	.LASF15:
 4606 023a 75696E74 		.ascii	"uint8_t\000"
 4606      385F7400 
 4607              	.LASF27:
 4608 0242 6576656E 		.ascii	"eventmask_t\000"
 4608      746D6173 
 4608      6B5F7400 
ARM GAS  C:\Users\jo\AppData\Local\Temp\ccTgSZM2.s 			page 84


 4609              	.LASF121:
 4610 024e 636F6E74 		.ascii	"context\000"
 4610      65787400 
 4611              	.LASF94:
 4612 0256 52455345 		.ascii	"RESERVED0\000"
 4612      52564544 
 4612      3000
 4613              	.LASF97:
 4614 0260 52455345 		.ascii	"RESERVED1\000"
 4614      52564544 
 4614      3100
 4615              	.LASF4:
 4616 026a 756E7369 		.ascii	"unsigned char\000"
 4616      676E6564 
 4616      20636861 
 4616      7200
 4617              	.LASF104:
 4618 0278 52455345 		.ascii	"RESERVED3\000"
 4618      52564544 
 4618      3300
 4619              	.LASF108:
 4620 0282 52455345 		.ascii	"RESERVED4\000"
 4620      52564544 
 4620      3400
 4621              	.LASF111:
 4622 028c 52455345 		.ascii	"RESERVED5\000"
 4622      52564544 
 4622      3500
 4623              	.LASF113:
 4624 0296 52455345 		.ascii	"RESERVED6\000"
 4624      52564544 
 4624      3600
 4625              	.LASF164:
 4626 02a0 73746D33 		.ascii	"stm32_gpio_t\000"
 4626      325F6770 
 4626      696F5F74 
 4626      00
 4627              	.LASF77:
 4628 02ad 70616E69 		.ascii	"panic_msg\000"
 4628      635F6D73 
 4628      6700
 4629              	.LASF80:
 4630 02b7 74726163 		.ascii	"trace_buffer\000"
 4630      655F6275 
 4630      66666572 
 4630      00
 4631              	.LASF61:
 4632 02c4 725F6E65 		.ascii	"r_newer\000"
 4632      77657200 
 4633              	.LASF75:
 4634 02cc 73797374 		.ascii	"system_debug_t\000"
 4634      656D5F64 
 4634      65627567 
 4634      5F7400
 4635              	.LASF154:
 4636 02db 5F426F6F 		.ascii	"_Bool\000"
 4636      6C00
ARM GAS  C:\Users\jo\AppData\Local\Temp\ccTgSZM2.s 			page 85


 4637              	.LASF101:
 4638 02e1 52455345 		.ascii	"RESERVED2\000"
 4638      52564544 
 4638      3200
 4639              	.LASF123:
 4640 02eb 63686172 		.ascii	"char\000"
 4640      00
 4641              	.LASF91:
 4642 02f0 41484231 		.ascii	"AHB1RSTR\000"
 4642      52535452 
 4642      00
 4643              	.LASF34:
 4644 02f9 705F7072 		.ascii	"p_prio\000"
 4644      696F00
 4645              	.LASF6:
 4646 0300 5F5F7569 		.ascii	"__uint16_t\000"
 4646      6E743136 
 4646      5F7400
 4647              	.LASF99:
 4648 030b 41484232 		.ascii	"AHB2ENR\000"
 4648      454E5200 
 4649              	.LASF147:
 4650 0313 77746F62 		.ascii	"wtobjp\000"
 4650      6A7000
 4651              	.LASF141:
 4652 031a 6E5F6374 		.ascii	"n_ctxswc\000"
 4652      78737763 
 4652      00
 4653              	.LASF120:
 4654 0323 73746B61 		.ascii	"stkalign_t\000"
 4654      6C69676E 
 4654      5F7400
 4655              	.LASF118:
 4656 032e 55534152 		.ascii	"USART_TypeDef\000"
 4656      545F5479 
 4656      70654465 
 4656      6600
 4657              	.LASF136:
 4658 033c 776F7273 		.ascii	"worst\000"
 4658      7400
 4659              	.LASF165:
 4660 0342 696F706F 		.ascii	"ioportmask_t\000"
 4660      72746D61 
 4660      736B5F74 
 4660      00
 4661              	.LASF112:
 4662 034f 42444352 		.ascii	"BDCR\000"
 4662      00
 4663              	.LASF209:
 4664 0354 75617274 		.ascii	"uart_lld_init\000"
 4664      5F6C6C64 
 4664      5F696E69 
 4664      7400
 4665              	.LASF28:
 4666 0362 636E745F 		.ascii	"cnt_t\000"
 4666      7400
 4667              	.LASF196:
ARM GAS  C:\Users\jo\AppData\Local\Temp\ccTgSZM2.s 			page 86


 4668 0368 72786368 		.ascii	"rxchar_cb\000"
 4668      61725F63 
 4668      6200
 4669              	.LASF70:
 4670 0372 76745F66 		.ascii	"vt_func\000"
 4670      756E6300 
 4671              	.LASF132:
 4672 037a 63685F74 		.ascii	"ch_trace_buffer_t\000"
 4672      72616365 
 4672      5F627566 
 4672      6665725F 
 4672      7400
 4673              	.LASF198:
 4674 038c 73706565 		.ascii	"speed\000"
 4674      6400
 4675              	.LASF46:
 4676 0392 705F6570 		.ascii	"p_epending\000"
 4676      656E6469 
 4676      6E6700
 4677              	.LASF57:
 4678 039d 63685F72 		.ascii	"ch_ready_list\000"
 4678      65616479 
 4678      5F6C6973 
 4678      7400
 4679              	.LASF155:
 4680 03ab 636C6561 		.ascii	"clear\000"
 4680      7200
 4681              	.LASF90:
 4682 03b1 43464752 		.ascii	"CFGR\000"
 4682      00
 4683              	.LASF218:
 4684 03b6 75617274 		.ascii	"uart_lld_stop_send\000"
 4684      5F6C6C64 
 4684      5F73746F 
 4684      705F7365 
 4684      6E6400
 4685              	.LASF78:
 4686 03c9 6973725F 		.ascii	"isr_cnt\000"
 4686      636E7400 
 4687              	.LASF143:
 4688 03d1 6D5F6372 		.ascii	"m_crit_isr\000"
 4688      69745F69 
 4688      737200
 4689              	.LASF127:
 4690 03dc 73655F73 		.ascii	"se_state\000"
 4690      74617465 
 4690      00
 4691              	.LASF189:
 4692 03e5 72784275 		.ascii	"rxBuffer\000"
 4692      66666572 
 4692      00
 4693              	.LASF142:
 4694 03ee 6D5F6372 		.ascii	"m_crit_thd\000"
 4694      69745F74 
 4694      686400
 4695              	.LASF13:
 4696 03f9 5F5F7569 		.ascii	"__uint64_t\000"
ARM GAS  C:\Users\jo\AppData\Local\Temp\ccTgSZM2.s 			page 87


 4696      6E743634 
 4696      5F7400
 4697              	.LASF215:
 4698 0404 63685379 		.ascii	"chSysUnlock\000"
 4698      73556E6C 
 4698      6F636B00 
 4699              	.LASF11:
 4700 0410 6C6F6E67 		.ascii	"long unsigned int\000"
 4700      20756E73 
 4700      69676E65 
 4700      6420696E 
 4700      7400
 4701              	.LASF206:
 4702 0422 63685379 		.ascii	"chSysLock\000"
 4702      734C6F63 
 4702      6B00
 4703              	.LASF199:
 4704 042c 55415254 		.ascii	"UARTConfig\000"
 4704      436F6E66 
 4704      696700
 4705              	.LASF52:
 4706 0437 63685F74 		.ascii	"ch_thread\000"
 4706      68726561 
 4706      6400
 4707              	.LASF72:
 4708 0441 76697274 		.ascii	"virtual_timers_list_t\000"
 4708      75616C5F 
 4708      74696D65 
 4708      72735F6C 
 4708      6973745F 
 4709              	.LASF194:
 4710 0457 7478656E 		.ascii	"txend2_cb\000"
 4710      64325F63 
 4710      6200
 4711              	.LASF219:
 4712 0461 75617274 		.ascii	"uart_lld_stop_receive\000"
 4712      5F6C6C64 
 4712      5F73746F 
 4712      705F7265 
 4712      63656976 
 4713              	.LASF65:
 4714 0477 76697274 		.ascii	"virtual_timer_t\000"
 4714      75616C5F 
 4714      74696D65 
 4714      725F7400 
 4715              	.LASF56:
 4716 0487 72656164 		.ascii	"ready_list_t\000"
 4716      795F6C69 
 4716      73745F74 
 4716      00
 4717              	.LASF236:
 4718 0494 7472616E 		.ascii	"translate_errors\000"
 4718      736C6174 
 4718      655F6572 
 4718      726F7273 
 4718      00
 4719              	.LASF192:
ARM GAS  C:\Users\jo\AppData\Local\Temp\ccTgSZM2.s 			page 88


 4720 04a5 75617274 		.ascii	"uartecb_t\000"
 4720      6563625F 
 4720      7400
 4721              	.LASF161:
 4722 04af 4C434B52 		.ascii	"LCKR\000"
 4722      00
 4723              	.LASF29:
 4724 04b4 75636E74 		.ascii	"ucnt_t\000"
 4724      5F7400
 4725              	.LASF223:
 4726 04bb 5F646267 		.ascii	"_dbg_check_enter_isr\000"
 4726      5F636865 
 4726      636B5F65 
 4726      6E746572 
 4726      5F697372 
 4727              	.LASF226:
 4728 04d0 75617274 		.ascii	"uartObjectInit\000"
 4728      4F626A65 
 4728      6374496E 
 4728      697400
 4729              	.LASF166:
 4730 04df 55415254 		.ascii	"UART_UNINIT\000"
 4730      5F554E49 
 4730      4E495400 
 4731              	.LASF53:
 4732 04eb 63685F74 		.ascii	"ch_threads_list\000"
 4732      68726561 
 4732      64735F6C 
 4732      69737400 
 4733              	.LASF176:
 4734 04fb 55415254 		.ascii	"UART_RX_COMPLETE\000"
 4734      5F52585F 
 4734      434F4D50 
 4734      4C455445 
 4734      00
 4735              	.LASF128:
 4736 050c 63685F73 		.ascii	"ch_swc_event_t\000"
 4736      77635F65 
 4736      76656E74 
 4736      5F7400
 4737              	.LASF217:
 4738 051b 75617274 		.ascii	"uart_lld_start_receive\000"
 4738      5F6C6C64 
 4738      5F737461 
 4738      72745F72 
 4738      65636569 
 4739              	.LASF140:
 4740 0532 6E5F6972 		.ascii	"n_irq\000"
 4740      7100
 4741              	.LASF158:
 4742 0538 4F535045 		.ascii	"OSPEEDR\000"
 4742      45445200 
 4743              	.LASF89:
 4744 0540 504C4C43 		.ascii	"PLLCFGR\000"
 4744      46475200 
 4745              	.LASF185:
 4746 0548 72786275 		.ascii	"rxbuf\000"
ARM GAS  C:\Users\jo\AppData\Local\Temp\ccTgSZM2.s 			page 89


 4746      6600
 4747              	.LASF10:
 4748 054e 5F5F7569 		.ascii	"__uint32_t\000"
 4748      6E743332 
 4748      5F7400
 4749              	.LASF12:
 4750 0559 6C6F6E67 		.ascii	"long long int\000"
 4750      206C6F6E 
 4750      6720696E 
 4750      7400
 4751              	.LASF150:
 4752 0567 6D5F7175 		.ascii	"m_queue\000"
 4752      65756500 
 4753              	.LASF114:
 4754 056f 53534347 		.ascii	"SSCGR\000"
 4754      5200
 4755              	.LASF67:
 4756 0575 76745F6E 		.ascii	"vt_next\000"
 4756      65787400 
 4757              	.LASF224:
 4758 057d 5F646267 		.ascii	"_dbg_check_leave_isr\000"
 4758      5F636865 
 4758      636B5F6C 
 4758      65617665 
 4758      5F697372 
 4759              	.LASF68:
 4760 0592 76745F70 		.ascii	"vt_prev\000"
 4760      72657600 
 4761              	.LASF117:
 4762 059a 47545052 		.ascii	"GTPR\000"
 4762      00
 4763              	.LASF96:
 4764 059f 41504232 		.ascii	"APB2RSTR\000"
 4764      52535452 
 4764      00
 4765              	.LASF129:
 4766 05a8 74625F73 		.ascii	"tb_size\000"
 4766      697A6500 
 4767              	.LASF237:
 4768 05b0 5F5F6275 		.ascii	"__builtin_puts\000"
 4768      696C7469 
 4768      6E5F7075 
 4768      747300
 4769              	.LASF149:
 4770 05bf 6D757465 		.ascii	"mutex\000"
 4770      7800
 4771              	.LASF220:
 4772 05c5 49544D5F 		.ascii	"ITM_RxBuffer\000"
 4772      52784275 
 4772      66666572 
 4772      00
 4773              	.LASF110:
 4774 05d2 41504232 		.ascii	"APB2LPENR\000"
 4774      4C50454E 
 4774      5200
 4775              	.LASF43:
 4776 05dc 705F7761 		.ascii	"p_waiting\000"
ARM GAS  C:\Users\jo\AppData\Local\Temp\ccTgSZM2.s 			page 90


 4776      6974696E 
 4776      6700
 4777              	.LASF178:
 4778 05e6 75617274 		.ascii	"uartflags_t\000"
 4778      666C6167 
 4778      735F7400 
 4779              	.LASF126:
 4780 05f2 73655F77 		.ascii	"se_wtobjp\000"
 4780      746F626A 
 4780      7000
 4781              	.LASF41:
 4782 05fc 705F666C 		.ascii	"p_flags\000"
 4782      61677300 
 4783              	.LASF87:
 4784 0604 69646C65 		.ascii	"idle_thread_wa\000"
 4784      5F746872 
 4784      6561645F 
 4784      776100
 4785              	.LASF197:
 4786 0613 72786572 		.ascii	"rxerr_cb\000"
 4786      725F6362 
 4786      00
 4787              	.LASF0:
 4788 061c 756E7369 		.ascii	"unsigned int\000"
 4788      676E6564 
 4788      20696E74 
 4788      00
 4789              	.LASF20:
 4790 0629 7274636E 		.ascii	"rtcnt_t\000"
 4790      745F7400 
 4791              	.LASF49:
 4792 0631 705F6D70 		.ascii	"p_mpool\000"
 4792      6F6F6C00 
 4793              	.LASF42:
 4794 0639 705F7265 		.ascii	"p_refs\000"
 4794      667300
 4795              	.LASF144:
 4796 0640 6B65726E 		.ascii	"kernel_stats_t\000"
 4796      656C5F73 
 4796      74617473 
 4796      5F7400
 4797              	.LASF225:
 4798 064f 5F706F72 		.ascii	"_port_irq_epilogue\000"
 4798      745F6972 
 4798      715F6570 
 4798      696C6F67 
 4798      756500
 4799              	.LASF203:
 4800 0662 75617274 		.ascii	"uartp\000"
 4800      7000
 4801              	.LASF133:
 4802 0668 6F666673 		.ascii	"offset\000"
 4802      657400
 4803              	.LASF109:
 4804 066f 41504231 		.ascii	"APB1LPENR\000"
 4804      4C50454E 
 4804      5200
ARM GAS  C:\Users\jo\AppData\Local\Temp\ccTgSZM2.s 			page 91


 4805              	.LASF131:
 4806 0679 74625F62 		.ascii	"tb_buffer\000"
 4806      75666665 
 4806      7200
 4807              	.LASF93:
 4808 0683 41484233 		.ascii	"AHB3RSTR\000"
 4808      52535452 
 4808      00
 4809              	.LASF31:
 4810 068c 74687265 		.ascii	"thread_t\000"
 4810      61645F74 
 4810      00
 4811              	.LASF228:
 4812 0695 6E766963 		.ascii	"nvicDisableVector\000"
 4812      44697361 
 4812      626C6556 
 4812      6563746F 
 4812      7200
 4813              	.LASF48:
 4814 06a7 705F7265 		.ascii	"p_realprio\000"
 4814      616C7072 
 4814      696F00
 4815              	.LASF232:
 4816 06b2 5F737461 		.ascii	"_stats_stop_measure_crit_thd\000"
 4816      74735F73 
 4816      746F705F 
 4816      6D656173 
 4816      7572655F 
 4817              	.LASF122:
 4818 06cf 706F7274 		.ascii	"port_intctx\000"
 4818      5F696E74 
 4818      63747800 
 4819              	.LASF69:
 4820 06db 76745F64 		.ascii	"vt_delta\000"
 4820      656C7461 
 4820      00
 4821              	.LASF95:
 4822 06e4 41504231 		.ascii	"APB1RSTR\000"
 4822      52535452 
 4822      00
 4823              	.LASF66:
 4824 06ed 63685F76 		.ascii	"ch_virtual_timer\000"
 4824      69727475 
 4824      616C5F74 
 4824      696D6572 
 4824      00
 4825              	.LASF102:
 4826 06fe 41504231 		.ascii	"APB1ENR\000"
 4826      454E5200 
 4827              	.LASF86:
 4828 0706 6B65726E 		.ascii	"kernel_stats\000"
 4828      656C5F73 
 4828      74617473 
 4828      00
 4829              	.LASF14:
 4830 0713 6C6F6E67 		.ascii	"long long unsigned int\000"
 4830      206C6F6E 
ARM GAS  C:\Users\jo\AppData\Local\Temp\ccTgSZM2.s 			page 92


 4830      6720756E 
 4830      7369676E 
 4830      65642069 
 4831              	.LASF207:
 4832 072a 73657276 		.ascii	"serve_usart_irq\000"
 4832      655F7573 
 4832      6172745F 
 4832      69727100 
 4833              	.LASF37:
 4834 073a 705F6F6C 		.ascii	"p_older\000"
 4834      64657200 
 4835              	.LASF16:
 4836 0742 75696E74 		.ascii	"uint16_t\000"
 4836      31365F74 
 4836      00
 4837              	.LASF175:
 4838 074b 55415254 		.ascii	"UART_RX_ACTIVE\000"
 4838      5F52585F 
 4838      41435449 
 4838      564500
 4839              	.LASF26:
 4840 075a 6D73675F 		.ascii	"msg_t\000"
 4840      7400
 4841              	.LASF55:
 4842 0760 63685F74 		.ascii	"ch_threads_queue\000"
 4842      68726561 
 4842      64735F71 
 4842      75657565 
 4842      00
 4843              	.LASF202:
 4844 0771 76616C75 		.ascii	"value\000"
 4844      6500
 4845              	.LASF170:
 4846 0777 55415254 		.ascii	"UART_TX_IDLE\000"
 4846      5F54585F 
 4846      49444C45 
 4846      00
 4847              	.LASF63:
 4848 0784 725F6375 		.ascii	"r_current\000"
 4848      7272656E 
 4848      7400
 4849              	.LASF187:
 4850 078e 74784275 		.ascii	"txBuf\000"
 4850      6600
 4851              	.LASF163:
 4852 0794 41465248 		.ascii	"AFRH\000"
 4852      00
 4853              	.LASF162:
 4854 0799 4146524C 		.ascii	"AFRL\000"
 4854      00
 4855              	.LASF229:
 4856 079e 5F737461 		.ascii	"_stats_start_measure_crit_thd\000"
 4856      74735F73 
 4856      74617274 
 4856      5F6D6561 
 4856      73757265 
 4857              	.LASF230:
ARM GAS  C:\Users\jo\AppData\Local\Temp\ccTgSZM2.s 			page 93


 4858 07bc 5F646267 		.ascii	"_dbg_check_lock\000"
 4858      5F636865 
 4858      636B5F6C 
 4858      6F636B00 
 4859              	.LASF85:
 4860 07cc 6D61696E 		.ascii	"mainthread\000"
 4860      74687265 
 4860      616400
 4861              	.LASF107:
 4862 07d7 41484233 		.ascii	"AHB3LPENR\000"
 4862      4C50454E 
 4862      5200
 4863              	.LASF200:
 4864 07e1 5F5F7365 		.ascii	"__set_BASEPRI\000"
 4864      745F4241 
 4864      53455052 
 4864      4900
 4865              	.LASF172:
 4866 07ef 55415254 		.ascii	"UART_TX_COMPLETE\000"
 4866      5F54585F 
 4866      434F4D50 
 4866      4C455445 
 4866      00
 4867              	.LASF177:
 4868 0800 75617274 		.ascii	"uartrxstate_t\000"
 4868      72787374 
 4868      6174655F 
 4868      7400
 4869              	.LASF135:
 4870 080e 62657374 		.ascii	"best\000"
 4870      00
 4871              	.LASF58:
 4872 0813 725F7175 		.ascii	"r_queue\000"
 4872      65756500 
 4873              	.LASF191:
 4874 081b 75617274 		.ascii	"uartccb_t\000"
 4874      6363625F 
 4874      7400
 4875              	.LASF157:
 4876 0825 4F545950 		.ascii	"OTYPER\000"
 4876      455200
 4877              	.LASF83:
 4878 082c 726C6973 		.ascii	"rlist\000"
 4878      7400
 4879              	.LASF22:
 4880 0832 746D6F64 		.ascii	"tmode_t\000"
 4880      655F7400 
 4881              	.LASF98:
 4882 083a 41484231 		.ascii	"AHB1ENR\000"
 4882      454E5200 
 4883              	.LASF174:
 4884 0842 55415254 		.ascii	"UART_RX_IDLE\000"
 4884      5F52585F 
 4884      49444C45 
 4884      00
 4885              	.LASF100:
 4886 084f 41484233 		.ascii	"AHB3ENR\000"
ARM GAS  C:\Users\jo\AppData\Local\Temp\ccTgSZM2.s 			page 94


 4886      454E5200 
 4887              	.LASF62:
 4888 0857 725F6F6C 		.ascii	"r_older\000"
 4888      64657200 
 4889              	.LASF134:
 4890 085f 746D5F63 		.ascii	"tm_calibration_t\000"
 4890      616C6962 
 4890      72617469 
 4890      6F6E5F74 
 4890      00
 4891              	.LASF92:
 4892 0870 41484232 		.ascii	"AHB2RSTR\000"
 4892      52535452 
 4892      00
 4893              	.LASF204:
 4894 0879 706F7274 		.ascii	"port_lock\000"
 4894      5F6C6F63 
 4894      6B00
 4895              	.LASF116:
 4896 0883 5243435F 		.ascii	"RCC_TypeDef\000"
 4896      54797065 
 4896      44656600 
 4897              	.LASF5:
 4898 088f 73686F72 		.ascii	"short int\000"
 4898      7420696E 
 4898      7400
 4899              	.LASF19:
 4900 0899 75696E74 		.ascii	"uint64_t\000"
 4900      36345F74 
 4900      00
 4901              	.LASF188:
 4902 08a2 7278436F 		.ascii	"rxCount\000"
 4902      756E7400 
 4903              	.LASF59:
 4904 08aa 725F7072 		.ascii	"r_prio\000"
 4904      696F00
 4905              	.LASF169:
 4906 08b1 75617274 		.ascii	"uartstate_t\000"
 4906      73746174 
 4906      655F7400 
 4907              	.LASF76:
 4908 08bd 63685F73 		.ascii	"ch_system_debug\000"
 4908      79737465 
 4908      6D5F6465 
 4908      62756700 
 4909              	.LASF160:
 4910 08cd 42535252 		.ascii	"BSRR\000"
 4910      00
 4911              	.LASF84:
 4912 08d2 76746C69 		.ascii	"vtlist\000"
 4912      737400
 4913              	.LASF239:
 4914 08d9 63685379 		.ascii	"chSysHalt\000"
 4914      7348616C 
 4914      7400
 4915              	.LASF153:
 4916 08e3 6D757465 		.ascii	"mutex_t\000"
ARM GAS  C:\Users\jo\AppData\Local\Temp\ccTgSZM2.s 			page 95


 4916      785F7400 
 4917              	.LASF24:
 4918 08eb 74726566 		.ascii	"trefs_t\000"
 4918      735F7400 
 4919              	.LASF213:
 4920 08f3 75617274 		.ascii	"uart_lld_start_send\000"
 4920      5F6C6C64 
 4920      5F737461 
 4920      72745F73 
 4920      656E6400 
 4921              	.LASF51:
 4922 0907 74687265 		.ascii	"threads_list_t\000"
 4922      6164735F 
 4922      6C697374 
 4922      5F7400
 4923              	.LASF233:
 4924 0916 474E5520 		.ascii	"GNU C 4.9.3 20141119 (release) [ARM/embedded-4_9-br"
 4924      4320342E 
 4924      392E3320 
 4924      32303134 
 4924      31313139 
 4925 0949 616E6368 		.ascii	"anch revision 218278] -mcpu=cortex-m4 -mno-thumb-in"
 4925      20726576 
 4925      6973696F 
 4925      6E203231 
 4925      38323738 
 4926 097c 74657277 		.ascii	"terwork -mthumb -ggdb -O2 -fomit-frame-pointer -fal"
 4926      6F726B20 
 4926      2D6D7468 
 4926      756D6220 
 4926      2D676764 
 4927 09af 69676E2D 		.ascii	"ign-functions=16 -ffunction-sections -fdata-section"
 4927      66756E63 
 4927      74696F6E 
 4927      733D3136 
 4927      202D6666 
 4928 09e2 73202D66 		.ascii	"s -fno-common\000"
 4928      6E6F2D63 
 4928      6F6D6D6F 
 4928      6E00
 4929              	.LASF190:
 4930 09f0 75617274 		.ascii	"uartcb_t\000"
 4930      63625F74 
 4930      00
 4931              	.LASF82:
 4932 09f9 63685F73 		.ascii	"ch_system\000"
 4932      79737465 
 4932      6D00
 4933              	.LASF227:
 4934 0a03 6E766963 		.ascii	"nvicEnableVector\000"
 4934      456E6162 
 4934      6C655665 
 4934      63746F72 
 4934      00
 4935              	.LASF18:
 4936 0a14 75696E74 		.ascii	"uint32_t\000"
 4936      33325F74 
ARM GAS  C:\Users\jo\AppData\Local\Temp\ccTgSZM2.s 			page 96


 4936      00
 4937              	.LASF156:
 4938 0a1d 4D4F4445 		.ascii	"MODER\000"
 4938      5200
 4939              	.LASF208:
 4940 0a23 56656374 		.ascii	"VectorDC\000"
 4940      6F724443 
 4940      00
 4941              	.LASF145:
 4942 0a2c 7264796D 		.ascii	"rdymsg\000"
 4942      736700
 4943              	.LASF74:
 4944 0a33 76745F6C 		.ascii	"vt_lasttime\000"
 4944      61737474 
 4944      696D6500 
 4945              	.LASF7:
 4946 0a3f 73686F72 		.ascii	"short unsigned int\000"
 4946      7420756E 
 4946      7369676E 
 4946      65642069 
 4946      6E7400
 4947              	.LASF186:
 4948 0a52 7478436F 		.ascii	"txCount\000"
 4948      756E7400 
 4949              	.LASF81:
 4950 0a5a 63685F73 		.ascii	"ch_system_t\000"
 4950      79737465 
 4950      6D5F7400 
 4951              	.LASF193:
 4952 0a66 7478656E 		.ascii	"txend1_cb\000"
 4952      64315F63 
 4952      6200
 4953              	.LASF39:
 4954 0a70 705F7374 		.ascii	"p_stklimit\000"
 4954      6B6C696D 
 4954      697400
 4955              	.LASF221:
 4956 0a7b 55415254 		.ascii	"UARTD3\000"
 4956      443300
 4957              	.LASF8:
 4958 0a82 5F5F696E 		.ascii	"__int32_t\000"
 4958      7433325F 
 4958      7400
 4959              	.LASF168:
 4960 0a8c 55415254 		.ascii	"UART_READY\000"
 4960      5F524541 
 4960      445900
 4961              	.LASF124:
 4962 0a97 73655F74 		.ascii	"se_time\000"
 4962      696D6500 
 4963              	.LASF38:
 4964 0a9f 705F6E61 		.ascii	"p_name\000"
 4964      6D6500
 4965              	.LASF212:
 4966 0aa6 75617274 		.ascii	"uart_lld_stop\000"
 4966      5F6C6C64 
 4966      5F73746F 
ARM GAS  C:\Users\jo\AppData\Local\Temp\ccTgSZM2.s 			page 97


 4966      7000
 4967              	.LASF152:
 4968 0ab4 6D5F6E65 		.ascii	"m_next\000"
 4968      787400
 4969              	.LASF130:
 4970 0abb 74625F70 		.ascii	"tb_ptr\000"
 4970      747200
 4971              	.LASF235:
 4972 0ac2 433A5C55 		.ascii	"C:\\Users\\jo\\Documents\\GitHub\\ChibiOS\\demos\\S"
 4972      73657273 
 4972      5C6A6F5C 
 4972      446F6375 
 4972      6D656E74 
 4973 0aee 544D3332 		.ascii	"TM32\\RT-STM32F407-DISCOVERY-uHttp\000"
 4973      5C52542D 
 4973      53544D33 
 4973      32463430 
 4973      372D4449 
 4974              	.LASF211:
 4975 0b10 75617274 		.ascii	"uart_lld_start\000"
 4975      5F6C6C64 
 4975      5F737461 
 4975      727400
 4976              	.LASF137:
 4977 0b1f 6C617374 		.ascii	"last\000"
 4977      00
 4978              	.LASF45:
 4979 0b24 705F6D73 		.ascii	"p_msg\000"
 4979      6700
 4980              	.LASF40:
 4981 0b2a 705F7374 		.ascii	"p_state\000"
 4981      61746500 
 4982              		.ident	"GCC: (GNU Tools for ARM Embedded Processors) 4.9.3 20141119 (release) [ARM/embedded-4_9-br
ARM GAS  C:\Users\jo\AppData\Local\Temp\ccTgSZM2.s 			page 98


DEFINED SYMBOLS
                            *ABS*:00000000 uart_lld.c
C:\Users\jo\AppData\Local\Temp\ccTgSZM2.s:19     .text.VectorDC:00000000 $t
C:\Users\jo\AppData\Local\Temp\ccTgSZM2.s:25     .text.VectorDC:00000000 VectorDC
C:\Users\jo\AppData\Local\Temp\ccTgSZM2.s:203    .text.VectorDC:000000b0 $d
C:\Users\jo\AppData\Local\Temp\ccTgSZM2.s:211    .text.uart_lld_init:00000000 $t
C:\Users\jo\AppData\Local\Temp\ccTgSZM2.s:217    .text.uart_lld_init:00000000 uart_lld_init
C:\Users\jo\AppData\Local\Temp\ccTgSZM2.s:239    .text.uart_lld_init:00000010 $d
C:\Users\jo\AppData\Local\Temp\ccTgSZM2.s:245    .text.uart_lld_start:00000000 $t
C:\Users\jo\AppData\Local\Temp\ccTgSZM2.s:251    .text.uart_lld_start:00000000 uart_lld_start
C:\Users\jo\AppData\Local\Temp\ccTgSZM2.s:381    .text.uart_lld_start:00000074 $d
C:\Users\jo\AppData\Local\Temp\ccTgSZM2.s:391    .text.uart_lld_stop:00000000 $t
C:\Users\jo\AppData\Local\Temp\ccTgSZM2.s:397    .text.uart_lld_stop:00000000 uart_lld_stop
C:\Users\jo\AppData\Local\Temp\ccTgSZM2.s:455    .text.uart_lld_stop:0000002c $d
C:\Users\jo\AppData\Local\Temp\ccTgSZM2.s:461    .text.uart_lld_start_send:00000000 $t
C:\Users\jo\AppData\Local\Temp\ccTgSZM2.s:467    .text.uart_lld_start_send:00000000 uart_lld_start_send
C:\Users\jo\AppData\Local\Temp\ccTgSZM2.s:505    .text.uart_lld_stop_send:00000000 $t
C:\Users\jo\AppData\Local\Temp\ccTgSZM2.s:511    .text.uart_lld_stop_send:00000000 uart_lld_stop_send
C:\Users\jo\AppData\Local\Temp\ccTgSZM2.s:552    .text.uart_lld_start_receive:00000000 $t
C:\Users\jo\AppData\Local\Temp\ccTgSZM2.s:558    .text.uart_lld_start_receive:00000000 uart_lld_start_receive
C:\Users\jo\AppData\Local\Temp\ccTgSZM2.s:666    .text.uart_lld_start_receive:0000004c $d
C:\Users\jo\AppData\Local\Temp\ccTgSZM2.s:678    .text.uart_lld_stop_receive:00000000 $t
C:\Users\jo\AppData\Local\Temp\ccTgSZM2.s:684    .text.uart_lld_stop_receive:00000000 uart_lld_stop_receive
C:\Users\jo\AppData\Local\Temp\ccTgSZM2.s:792    .text.uart_lld_stop_receive:0000004c $d
C:\Users\jo\AppData\Local\Temp\ccTgSZM2.s:808    .bss.UARTD3:00000000 UARTD3
C:\Users\jo\AppData\Local\Temp\ccTgSZM2.s:800    .rodata.str1.4:00000000 $d
C:\Users\jo\AppData\Local\Temp\ccTgSZM2.s:804    .bss.UARTD3:00000000 $d
C:\Users\jo\AppData\Local\Temp\ccTgSZM2.s:811    .rodata.__func__.6751:00000000 $d
C:\Users\jo\AppData\Local\Temp\ccTgSZM2.s:815    .rodata.__func__.6751:00000000 __func__.6751
                     .debug_frame:00000010 $d
C:\Users\jo\AppData\Local\Temp\ccTgSZM2.s:210    .text.VectorDC:000000b8 $t
C:\Users\jo\AppData\Local\Temp\ccTgSZM2.s:244    .text.uart_lld_init:00000018 $t
C:\Users\jo\AppData\Local\Temp\ccTgSZM2.s:390    .text.uart_lld_start:00000088 $t
C:\Users\jo\AppData\Local\Temp\ccTgSZM2.s:460    .text.uart_lld_stop:00000034 $t
C:\Users\jo\AppData\Local\Temp\ccTgSZM2.s:677    .text.uart_lld_start_receive:00000058 $t
C:\Users\jo\AppData\Local\Temp\ccTgSZM2.s:799    .text.uart_lld_stop_receive:00000058 $t

UNDEFINED SYMBOLS
_stats_increase_irq
_dbg_check_enter_isr
_dbg_check_leave_isr
_port_irq_epilogue
uartObjectInit
nvicEnableVector
nvicDisableVector
_stats_start_measure_crit_thd
_dbg_check_lock
_dbg_check_unlock
_stats_stop_measure_crit_thd
puts
chSysHalt
ch
