ARM GAS  C:\Users\jo\AppData\Local\Temp\ccTgSZM2.s 			page 1


   1              		.syntax unified
   2              		.cpu cortex-m4
   3              		.fpu softvfp
   4              		.eabi_attribute 20, 1
   5              		.eabi_attribute 21, 1
   6              		.eabi_attribute 23, 3
   7              		.eabi_attribute 24, 1
   8              		.eabi_attribute 25, 1
   9              		.eabi_attribute 26, 1
  10              		.eabi_attribute 30, 2
  11              		.eabi_attribute 34, 1
  12              		.eabi_attribute 18, 4
  13              		.thumb
  14              		.file	"uart_lld.c"
  15              		.text
  16              	.Ltext0:
  17              		.cfi_sections	.debug_frame
  18              		.section	.text.VectorDC,"ax",%progbits
  19              		.align	2
  20              		.p2align 4,,15
  21              		.global	VectorDC
  22              		.thumb
  23              		.thumb_func
  24              		.type	VectorDC, %function
  25              	VectorDC:
  26              	.LFB259:
  27              		.file 1 "../../../os/hal/ports/STM32/LLD/USARTv1/uart_lld.c"
  28              		.loc 1 458 0
  29              		.cfi_startproc
  30              		@ args = 0, pretend = 0, frame = 0
  31              		@ frame_needed = 0, uses_anonymous_args = 0
  32 0000 F8B5     		push	{r3, r4, r5, r6, r7, lr}
  33              		.cfi_def_cfa_offset 24
  34              		.cfi_offset 3, -24
  35              		.cfi_offset 4, -20
  36              		.cfi_offset 5, -16
  37              		.cfi_offset 6, -12
  38              		.cfi_offset 7, -8
  39              		.cfi_offset 14, -4
  40              	.LBB32:
  41              	.LBB33:
  42              		.loc 1 323 0
  43 0002 2B4E     		ldr	r6, .L62
  44              	.LBE33:
  45              	.LBE32:
  46              		.loc 1 460 0
  47 0004 FFF7FEFF 		bl	_stats_increase_irq
  48              	.LVL0:
  49 0008 FFF7FEFF 		bl	_dbg_check_enter_isr
  50              	.LVL1:
  51              	.LBB38:
  52              	.LBB36:
  53              		.loc 1 323 0
  54 000c B768     		ldr	r7, [r6, #8]
  55              	.LVL2:
  56              		.loc 1 326 0
  57 000e 3C68     		ldr	r4, [r7]
ARM GAS  C:\Users\jo\AppData\Local\Temp\ccTgSZM2.s 			page 2


  58              	.LVL3:
  59              		.loc 1 330 0
  60 0010 2507     		lsls	r5, r4, #28
  61 0012 19D0     		beq	.L2
  62              		.loc 1 332 0
  63 0014 7368     		ldr	r3, [r6, #4]
  64 0016 1B69     		ldr	r3, [r3, #16]
  65 0018 B3B1     		cbz	r3, .L2
  66              	.LVL4:
  67              	.LBB34:
  68              	.LBB35:
  69              		.loc 1 114 0
  70 001a 14F0080F 		tst	r4, #8
  71 001e 0CBF     		ite	eq
  72 0020 0021     		moveq	r1, #0
  73 0022 1021     		movne	r1, #16
  74              	.LVL5:
  75              		.loc 1 115 0
  76 0024 E007     		lsls	r0, r4, #31
  77              		.loc 1 116 0
  78 0026 48BF     		it	mi
  79 0028 41F00401 		orrmi	r1, r1, #4
  80              	.LVL6:
  81              		.loc 1 117 0
  82 002c A207     		lsls	r2, r4, #30
  83              		.loc 1 118 0
  84 002e 48BF     		it	mi
  85 0030 41F00801 		orrmi	r1, r1, #8
  86              	.LVL7:
  87              		.loc 1 119 0
  88 0034 6507     		lsls	r5, r4, #29
  89              		.loc 1 120 0
  90 0036 48BF     		it	mi
  91 0038 41F02001 		orrmi	r1, r1, #32
  92              	.LVL8:
  93              		.loc 1 121 0
  94 003c E005     		lsls	r0, r4, #23
  95              		.loc 1 122 0
  96 003e 48BF     		it	mi
  97 0040 41F04001 		orrmi	r1, r1, #64
  98              	.LVL9:
  99              	.LBE35:
 100              	.LBE34:
 101              		.loc 1 333 0
 102 0044 1A48     		ldr	r0, .L62
 103 0046 9847     		blx	r3
 104              	.LVL10:
 105              	.L2:
 106              		.loc 1 337 0
 107 0048 FD68     		ldr	r5, [r7, #12]
 108              	.LVL11:
 109              		.loc 1 340 0
 110 004a AA06     		lsls	r2, r5, #26
 111 004c 01D5     		bpl	.L8
 112 004e A306     		lsls	r3, r4, #26
 113 0050 25D4     		bmi	.L60
 114              	.L8:
ARM GAS  C:\Users\jo\AppData\Local\Temp\ccTgSZM2.s 			page 3


 115              		.loc 1 370 0
 116 0052 2806     		lsls	r0, r5, #24
 117 0054 01D5     		bpl	.L10
 118 0056 2106     		lsls	r1, r4, #24
 119 0058 15D4     		bmi	.L61
 120              	.L10:
 121              		.loc 1 389 0
 122 005a 6A06     		lsls	r2, r5, #25
 123 005c 0DD5     		bpl	.L13
 124 005e 6306     		lsls	r3, r4, #25
 125 0060 0BD5     		bpl	.L13
 126              		.loc 1 391 0
 127 0062 144A     		ldr	r2, .L62+4
 128              		.loc 1 392 0
 129 0064 7368     		ldr	r3, [r6, #4]
 130              		.loc 1 391 0
 131 0066 4FF48071 		mov	r1, #256
 132 006a 5183     		strh	r1, [r2, #26]	@ movhi
 133              		.loc 1 392 0
 134 006c 5B68     		ldr	r3, [r3, #4]
 135 006e 0BB1     		cbz	r3, .L14
 136              		.loc 1 393 0
 137 0070 0F48     		ldr	r0, .L62
 138 0072 9847     		blx	r3
 139              	.LVL12:
 140              	.L14:
 141              		.loc 1 394 0
 142 0074 25F04005 		bic	r5, r5, #64
 143              	.LVL13:
 144 0078 FD60     		str	r5, [r7, #12]
 145              	.L13:
 146              	.LBE36:
 147              	.LBE38:
 148              		.loc 1 464 0
 149 007a FFF7FEFF 		bl	_dbg_check_leave_isr
 150              	.LVL14:
 151              		.loc 1 465 0
 152 007e BDE8F840 		pop	{r3, r4, r5, r6, r7, lr}
 153              		.cfi_remember_state
 154              		.cfi_restore 14
 155              		.cfi_restore 7
 156              		.cfi_restore 6
 157              		.cfi_restore 5
 158              		.cfi_restore 4
 159              		.cfi_restore 3
 160              		.cfi_def_cfa_offset 0
 161              	.LVL15:
 162              		.loc 1 464 0
 163 0082 FFF7FEBF 		b	_port_irq_epilogue
 164              	.LVL16:
 165              	.L61:
 166              		.cfi_restore_state
 167              	.LBB39:
 168              	.LBB37:
 169              		.loc 1 378 0
 170 0086 7368     		ldr	r3, [r6, #4]
 171 0088 1B68     		ldr	r3, [r3]
ARM GAS  C:\Users\jo\AppData\Local\Temp\ccTgSZM2.s 			page 4


 172 008a 0BB1     		cbz	r3, .L12
 173              		.loc 1 379 0
 174 008c 0848     		ldr	r0, .L62
 175 008e 9847     		blx	r3
 176              	.LVL17:
 177              	.L12:
 178              		.loc 1 383 0
 179 0090 7378     		ldrb	r3, [r6, #1]	@ zero_extendqisi2
 180 0092 074A     		ldr	r2, .L62
 181 0094 022B     		cmp	r3, #2
 182              		.loc 1 384 0
 183 0096 04BF     		itt	eq
 184 0098 0023     		moveq	r3, #0
 185 009a 5370     		strbeq	r3, [r2, #1]
 186 009c DDE7     		b	.L10
 187              	.L60:
 188              		.loc 1 364 0
 189 009e 7368     		ldr	r3, [r6, #4]
 190 00a0 0348     		ldr	r0, .L62
 191 00a2 DB68     		ldr	r3, [r3, #12]
 192 00a4 002B     		cmp	r3, #0
 193 00a6 D4D0     		beq	.L8
 194              		.loc 1 365 0
 195 00a8 8189     		ldrh	r1, [r0, #12]
 196 00aa 89B2     		uxth	r1, r1
 197 00ac 9847     		blx	r3
 198              	.LVL18:
 199 00ae D0E7     		b	.L8
 200              	.L63:
 201              		.align	2
 202              	.L62:
 203 00b0 00000000 		.word	.LANCHOR0
 204 00b4 00180240 		.word	1073879040
 205              	.LBE37:
 206              	.LBE39:
 207              		.cfi_endproc
 208              	.LFE259:
 209              		.size	VectorDC, .-VectorDC
 210 00b8 AFF30080 		.section	.text.uart_lld_init,"ax",%progbits
 210      AFF30080 
 211              		.align	2
 212              		.p2align 4,,15
 213              		.global	uart_lld_init
 214              		.thumb
 215              		.thumb_func
 216              		.type	uart_lld_init, %function
 217              	uart_lld_init:
 218              	.LFB260:
 219              		.loc 1 477 0
 220              		.cfi_startproc
 221              		@ args = 0, pretend = 0, frame = 0
 222              		@ frame_needed = 0, uses_anonymous_args = 0
 223 0000 10B5     		push	{r4, lr}
 224              		.cfi_def_cfa_offset 8
 225              		.cfi_offset 4, -8
 226              		.cfi_offset 14, -4
 227              		.loc 1 500 0
ARM GAS  C:\Users\jo\AppData\Local\Temp\ccTgSZM2.s 			page 5


 228 0002 034C     		ldr	r4, .L66
 229 0004 2046     		mov	r0, r4
 230 0006 FFF7FEFF 		bl	uartObjectInit
 231              	.LVL19:
 232              		.loc 1 501 0
 233 000a 024B     		ldr	r3, .L66+4
 234 000c A360     		str	r3, [r4, #8]
 235 000e 10BD     		pop	{r4, pc}
 236              	.L67:
 237              		.align	2
 238              	.L66:
 239 0010 00000000 		.word	.LANCHOR0
 240 0014 00480040 		.word	1073760256
 241              		.cfi_endproc
 242              	.LFE260:
 243              		.size	uart_lld_init, .-uart_lld_init
 244 0018 AFF30080 		.section	.text.uart_lld_start,"ax",%progbits
 244      AFF30080 
 245              		.align	2
 246              		.p2align 4,,15
 247              		.global	uart_lld_start
 248              		.thumb
 249              		.thumb_func
 250              		.type	uart_lld_start, %function
 251              	uart_lld_start:
 252              	.LFB261:
 253              		.loc 1 517 0
 254              		.cfi_startproc
 255              		@ args = 0, pretend = 0, frame = 0
 256              		@ frame_needed = 0, uses_anonymous_args = 0
 257              	.LVL20:
 258 0000 38B5     		push	{r3, r4, r5, lr}
 259              		.cfi_def_cfa_offset 16
 260              		.cfi_offset 3, -16
 261              		.cfi_offset 4, -12
 262              		.cfi_offset 5, -8
 263              		.cfi_offset 14, -4
 264              		.loc 1 519 0
 265 0002 0378     		ldrb	r3, [r0]	@ zero_extendqisi2
 266 0004 012B     		cmp	r3, #1
 267              		.loc 1 517 0
 268 0006 0446     		mov	r4, r0
 269              		.loc 1 519 0
 270 0008 21D0     		beq	.L74
 271              	.LVL21:
 272              	.L69:
 273              	.LBB45:
 274              	.LBB46:
 275              		.loc 1 182 0
 276 000a A368     		ldr	r3, [r4, #8]
 277              		.loc 1 194 0
 278 000c 1949     		ldr	r1, .L76
 279              	.LBE46:
 280              	.LBE45:
 281              		.loc 1 608 0
 282 000e 0022     		movs	r2, #0
 283              	.LBB51:
ARM GAS  C:\Users\jo\AppData\Local\Temp\ccTgSZM2.s 			page 6


 284              	.LBB49:
 285              		.loc 1 194 0
 286 0010 8B42     		cmp	r3, r1
 287              		.loc 1 195 0
 288 0012 6168     		ldr	r1, [r4, #4]
 289              	.LBE49:
 290              	.LBE51:
 291              		.loc 1 608 0
 292 0014 A270     		strb	r2, [r4, #2]
 293              		.loc 1 609 0
 294 0016 6270     		strb	r2, [r4, #1]
 295              	.LVL22:
 296              	.LBB52:
 297              	.LBB50:
 298              	.LBB47:
 299              	.LBB48:
 300              		.loc 1 168 0
 301 0018 DA60     		str	r2, [r3, #12]
 302              		.loc 1 169 0
 303 001a 1A61     		str	r2, [r3, #16]
 304              		.loc 1 170 0
 305 001c 5A61     		str	r2, [r3, #20]
 306              	.LBE48:
 307              	.LBE47:
 308              		.loc 1 197 0
 309 001e 4869     		ldr	r0, [r1, #20]
 310              		.loc 1 195 0
 311 0020 0CBF     		ite	eq
 312 0022 154A     		ldreq	r2, .L76+4
 313              		.loc 1 197 0
 314 0024 154A     		ldrne	r2, .L76+8
 315 0026 B2FBF0F2 		udiv	r2, r2, r0
 316 002a 9A60     		str	r2, [r3, #8]
 317              		.loc 1 221 0
 318 002c 8A69     		ldr	r2, [r1, #24]
 319              		.loc 1 219 0
 320 002e 086A     		ldr	r0, [r1, #32]
 321              		.loc 1 207 0
 322 0030 CC69     		ldr	r4, [r1, #28]
 323              	.LVL23:
 324              		.loc 1 201 0
 325 0032 1968     		ldr	r1, [r3]
 326              		.loc 1 202 0
 327 0034 5968     		ldr	r1, [r3, #4]
 328              		.loc 1 221 0
 329 0036 42F40452 		orr	r2, r2, #8448
 330              		.loc 1 203 0
 331 003a 0025     		movs	r5, #0
 332              		.loc 1 221 0
 333 003c 42F02C02 		orr	r2, r2, #44
 334              		.loc 1 219 0
 335 0040 40F00101 		orr	r1, r0, #1
 336              		.loc 1 203 0
 337 0044 1D60     		str	r5, [r3]
 338              		.loc 1 207 0
 339 0046 1C61     		str	r4, [r3, #16]
 340              		.loc 1 219 0
ARM GAS  C:\Users\jo\AppData\Local\Temp\ccTgSZM2.s 			page 7


 341 0048 5961     		str	r1, [r3, #20]
 342              		.loc 1 220 0
 343 004a DA60     		str	r2, [r3, #12]
 344 004c 38BD     		pop	{r3, r4, r5, pc}
 345              	.LVL24:
 346              	.L74:
 347              	.LBE50:
 348              	.LBE52:
 349              		.loc 1 570 0
 350 004e 0C4B     		ldr	r3, .L76+12
 351 0050 9842     		cmp	r0, r3
 352 0052 04D0     		beq	.L75
 353              	.LVL25:
 354              	.L70:
 355              		.loc 1 601 0
 356 0054 0023     		movs	r3, #0
 357 0056 A381     		strh	r3, [r4, #12]	@ movhi
 358              		.loc 1 604 0
 359 0058 A361     		str	r3, [r4, #24]
 360              		.loc 1 603 0
 361 005a A382     		strh	r3, [r4, #20]	@ movhi
 362 005c D5E7     		b	.L69
 363              	.LVL26:
 364              	.L75:
 365              	.LBB53:
 366              		.loc 1 584 0
 367 005e 094A     		ldr	r2, .L76+16
 368 0060 136C     		ldr	r3, [r2, #64]
 369 0062 43F48023 		orr	r3, r3, #262144
 370 0066 1364     		str	r3, [r2, #64]
 371              		.loc 1 585 0
 372 0068 2720     		movs	r0, #39
 373              	.LVL27:
 374 006a 0C21     		movs	r1, #12
 375 006c FFF7FEFF 		bl	nvicEnableVector
 376              	.LVL28:
 377 0070 F0E7     		b	.L70
 378              	.L77:
 379 0072 00BF     		.align	2
 380              	.L76:
 381 0074 00100140 		.word	1073811456
 382 0078 C0687804 		.word	75000000
 383 007c 60343C02 		.word	37500000
 384 0080 00000000 		.word	.LANCHOR0
 385 0084 00380240 		.word	1073887232
 386              	.LBE53:
 387              		.cfi_endproc
 388              	.LFE261:
 389              		.size	uart_lld_start, .-uart_lld_start
 390 0088 AFF30080 		.section	.text.uart_lld_stop,"ax",%progbits
 390      AFF30080 
 391              		.align	2
 392              		.p2align 4,,15
 393              		.global	uart_lld_stop
 394              		.thumb
 395              		.thumb_func
 396              		.type	uart_lld_stop, %function
ARM GAS  C:\Users\jo\AppData\Local\Temp\ccTgSZM2.s 			page 8


 397              	uart_lld_stop:
 398              	.LFB262:
 399              		.loc 1 620 0
 400              		.cfi_startproc
 401              		@ args = 0, pretend = 0, frame = 0
 402              		@ frame_needed = 0, uses_anonymous_args = 0
 403              	.LVL29:
 404 0000 08B5     		push	{r3, lr}
 405              		.cfi_def_cfa_offset 8
 406              		.cfi_offset 3, -8
 407              		.cfi_offset 14, -4
 408              		.loc 1 622 0
 409 0002 0378     		ldrb	r3, [r0]	@ zero_extendqisi2
 410 0004 022B     		cmp	r3, #2
 411 0006 00D0     		beq	.L83
 412              	.LVL30:
 413              	.L78:
 414 0008 08BD     		pop	{r3, pc}
 415              	.LVL31:
 416              	.L83:
 417              		.loc 1 646 0
 418 000a 0849     		ldr	r1, .L84
 419              	.LBB54:
 420              	.LBB55:
 421              		.loc 1 168 0
 422 000c 8368     		ldr	r3, [r0, #8]
 423 000e 0022     		movs	r2, #0
 424              	.LBE55:
 425              	.LBE54:
 426              		.loc 1 646 0
 427 0010 8842     		cmp	r0, r1
 428              	.LBB57:
 429              	.LBB56:
 430              		.loc 1 168 0
 431 0012 DA60     		str	r2, [r3, #12]
 432              		.loc 1 169 0
 433 0014 1A61     		str	r2, [r3, #16]
 434              		.loc 1 170 0
 435 0016 5A61     		str	r2, [r3, #20]
 436              	.LBE56:
 437              	.LBE57:
 438              		.loc 1 646 0
 439 0018 F6D1     		bne	.L78
 440              		.loc 1 647 0
 441 001a 2720     		movs	r0, #39
 442              	.LVL32:
 443 001c FFF7FEFF 		bl	nvicDisableVector
 444              	.LVL33:
 445              		.loc 1 648 0
 446 0020 034A     		ldr	r2, .L84+4
 447 0022 136C     		ldr	r3, [r2, #64]
 448 0024 23F48023 		bic	r3, r3, #262144
 449 0028 1364     		str	r3, [r2, #64]
 450              		.loc 1 649 0
 451 002a EDE7     		b	.L78
 452              	.L85:
 453              		.align	2
ARM GAS  C:\Users\jo\AppData\Local\Temp\ccTgSZM2.s 			page 9


 454              	.L84:
 455 002c 00000000 		.word	.LANCHOR0
 456 0030 00380240 		.word	1073887232
 457              		.cfi_endproc
 458              	.LFE262:
 459              		.size	uart_lld_stop, .-uart_lld_stop
 460 0034 AFF30080 		.section	.text.uart_lld_start_send,"ax",%progbits
 460      AFF30080 
 460      AFF30080 
 461              		.align	2
 462              		.p2align 4,,15
 463              		.global	uart_lld_start_send
 464              		.thumb
 465              		.thumb_func
 466              		.type	uart_lld_start_send, %function
 467              	uart_lld_start_send:
 468              	.LFB263:
 469              		.loc 1 666 0
 470              		.cfi_startproc
 471              		@ args = 0, pretend = 0, frame = 0
 472              		@ frame_needed = 0, uses_anonymous_args = 0
 473              		@ link register save eliminated.
 474              		.loc 1 677 0
 475 0000 C389     		ldrh	r3, [r0, #14]
 476 0002 9BB2     		uxth	r3, r3
 477 0004 53B9     		cbnz	r3, .L90
 478              		.loc 1 666 0
 479 0006 10B4     		push	{r4}
 480              		.cfi_def_cfa_offset 4
 481              		.cfi_offset 4, -4
 482              		.loc 1 688 0
 483 0008 89B2     		uxth	r1, r1
 484              		.loc 1 692 0
 485 000a 8468     		ldr	r4, [r0, #8]
 486              		.loc 1 688 0
 487 000c C181     		strh	r1, [r0, #14]	@ movhi
 488              		.loc 1 692 0
 489 000e E368     		ldr	r3, [r4, #12]
 490              		.loc 1 681 0
 491 0010 0261     		str	r2, [r0, #16]
 492              		.loc 1 692 0
 493 0012 43F08003 		orr	r3, r3, #128
 494 0016 E360     		str	r3, [r4, #12]
 495              		.loc 1 694 0
 496 0018 5DF8044B 		ldr	r4, [sp], #4
 497              		.cfi_restore 4
 498              		.cfi_def_cfa_offset 0
 499              	.L90:
 500 001c 7047     		bx	lr
 501              		.cfi_endproc
 502              	.LFE263:
 503              		.size	uart_lld_start_send, .-uart_lld_start_send
 504 001e 00BF     		.section	.text.uart_lld_stop_send,"ax",%progbits
 505              		.align	2
 506              		.p2align 4,,15
 507              		.global	uart_lld_stop_send
 508              		.thumb
ARM GAS  C:\Users\jo\AppData\Local\Temp\ccTgSZM2.s 			page 10


 509              		.thumb_func
 510              		.type	uart_lld_stop_send, %function
 511              	uart_lld_stop_send:
 512              	.LFB264:
 513              		.loc 1 707 0
 514              		.cfi_startproc
 515              		@ args = 0, pretend = 0, frame = 0
 516              		@ frame_needed = 0, uses_anonymous_args = 0
 517              		@ link register save eliminated.
 518              	.LVL34:
 519 0000 10B4     		push	{r4}
 520              		.cfi_def_cfa_offset 4
 521              		.cfi_offset 4, -4
 522              		.loc 1 714 0
 523 0002 8468     		ldr	r4, [r0, #8]
 524              		.loc 1 707 0
 525 0004 0346     		mov	r3, r0
 526              		.loc 1 713 0
 527 0006 C089     		ldrh	r0, [r0, #14]
 528              	.LVL35:
 529              		.loc 1 714 0
 530 0008 E268     		ldr	r2, [r4, #12]
 531              		.loc 1 715 0
 532 000a 0021     		movs	r1, #0
 533              		.loc 1 714 0
 534 000c 22F0C002 		bic	r2, r2, #192
 535 0010 E260     		str	r2, [r4, #12]
 536              		.loc 1 719 0
 537 0012 80B2     		uxth	r0, r0
 538              	.LVL36:
 539              		.loc 1 715 0
 540 0014 D981     		strh	r1, [r3, #14]	@ movhi
 541              		.loc 1 716 0
 542 0016 1961     		str	r1, [r3, #16]
 543              		.loc 1 719 0
 544 0018 5DF8044B 		ldr	r4, [sp], #4
 545              		.cfi_restore 4
 546              		.cfi_def_cfa_offset 0
 547 001c 7047     		bx	lr
 548              		.cfi_endproc
 549              	.LFE264:
 550              		.size	uart_lld_stop_send, .-uart_lld_stop_send
 551 001e 00BF     		.section	.text.uart_lld_start_receive,"ax",%progbits
 552              		.align	2
 553              		.p2align 4,,15
 554              		.global	uart_lld_start_receive
 555              		.thumb
 556              		.thumb_func
 557              		.type	uart_lld_start_receive, %function
 558              	uart_lld_start_receive:
 559              	.LFB265:
 560              		.loc 1 732 0
 561              		.cfi_startproc
 562              		@ args = 0, pretend = 0, frame = 0
 563              		@ frame_needed = 0, uses_anonymous_args = 0
 564              	.LVL37:
 565 0000 70B5     		push	{r4, r5, r6, lr}
ARM GAS  C:\Users\jo\AppData\Local\Temp\ccTgSZM2.s 			page 11


 566              		.cfi_def_cfa_offset 16
 567              		.cfi_offset 4, -16
 568              		.cfi_offset 5, -12
 569              		.cfi_offset 6, -8
 570              		.cfi_offset 14, -4
 571              	.LBB68:
 572              	.LBB69:
 573              	.LBB70:
 574              	.LBB71:
 575              	.LBB72:
 576              		.file 2 "../../../os/ext/CMSIS/include/core_cmFunc.h"
 577              		.loc 2 546 0
 578 0002 2023     		movs	r3, #32
 579              	.LBE72:
 580              	.LBE71:
 581              	.LBE70:
 582              	.LBE69:
 583              	.LBE68:
 584              		.loc 1 732 0
 585 0004 0446     		mov	r4, r0
 586 0006 0D46     		mov	r5, r1
 587 0008 1646     		mov	r6, r2
 588              	.LBB78:
 589              	.LBB76:
 590              	.LBB75:
 591              	.LBB74:
 592              	.LBB73:
 593              		.loc 2 546 0
 594              	@ 546 "../../../os/ext/CMSIS/include/core_cmFunc.h" 1
 595 000a 83F31188 		MSR basepri, r3
 596              	@ 0 "" 2
 597              		.thumb
 598              	.LBE73:
 599              	.LBE74:
 600              	.LBE75:
 601              		.file 3 "../../../os/rt/include/chsys.h"
 602              		.loc 3 300 0
 603 000e FFF7FEFF 		bl	_stats_start_measure_crit_thd
 604              	.LVL38:
 605              	.LBE76:
 606              	.LBE78:
 607              		.loc 1 748 0
 608 0012 ADB2     		uxth	r5, r5
 609              	.LVL39:
 610              	.LBB79:
 611              	.LBB77:
 612              		.loc 3 301 0
 613 0014 FFF7FEFF 		bl	_dbg_check_lock
 614              	.LVL40:
 615              	.LBE77:
 616              	.LBE79:
 617              		.loc 1 749 0
 618 0018 0123     		movs	r3, #1
 619 001a A370     		strb	r3, [r4, #2]
 620              		.loc 1 748 0
 621 001c A582     		strh	r5, [r4, #20]	@ movhi
 622              		.loc 1 747 0
ARM GAS  C:\Users\jo\AppData\Local\Temp\ccTgSZM2.s 			page 12


 623 001e A661     		str	r6, [r4, #24]
 624              	.LBB80:
 625              	.LBB81:
 626              		.loc 3 311 0
 627 0020 FFF7FEFF 		bl	_dbg_check_unlock
 628              	.LVL41:
 629              		.loc 3 312 0
 630 0024 FFF7FEFF 		bl	_stats_stop_measure_crit_thd
 631              	.LVL42:
 632              		.loc 3 318 0
 633 0028 084B     		ldr	r3, .L96
 634 002a 9A69     		ldr	r2, [r3, #24]
 635 002c 1B68     		ldr	r3, [r3]
 636 002e 9268     		ldr	r2, [r2, #8]
 637 0030 9B68     		ldr	r3, [r3, #8]
 638 0032 9A42     		cmp	r2, r3
 639 0034 06D2     		bcs	.L94
 640 0036 0648     		ldr	r0, .L96+4
 641 0038 FFF7FEFF 		bl	puts
 642              	.LVL43:
 643              	@ 318 "../../../os/rt/include/chsys.h" 1
 644 003c 00BE     		BKPT #0
 645              	
 646              	@ 0 "" 2
 647              		.thumb
 648 003e 0548     		ldr	r0, .L96+8
 649 0040 FFF7FEFF 		bl	chSysHalt
 650              	.LVL44:
 651              	.L94:
 652              	.LBB82:
 653              	.LBB83:
 654              	.LBB84:
 655              		.loc 2 546 0
 656 0044 0023     		movs	r3, #0
 657              	@ 546 "../../../os/ext/CMSIS/include/core_cmFunc.h" 1
 658 0046 83F31188 		MSR basepri, r3
 659              	@ 0 "" 2
 660              		.thumb
 661 004a 70BD     		pop	{r4, r5, r6, pc}
 662              	.LVL45:
 663              	.L97:
 664              		.align	2
 665              	.L96:
 666 004c 00000000 		.word	ch
 667 0050 00000000 		.word	.LC0
 668 0054 00000000 		.word	.LANCHOR1
 669              	.LBE84:
 670              	.LBE83:
 671              	.LBE82:
 672              	.LBE81:
 673              	.LBE80:
 674              		.cfi_endproc
 675              	.LFE265:
 676              		.size	uart_lld_start_receive, .-uart_lld_start_receive
 677 0058 AFF30080 		.section	.text.uart_lld_stop_receive,"ax",%progbits
 677      AFF30080 
 678              		.align	2
ARM GAS  C:\Users\jo\AppData\Local\Temp\ccTgSZM2.s 			page 13


 679              		.p2align 4,,15
 680              		.global	uart_lld_stop_receive
 681              		.thumb
 682              		.thumb_func
 683              		.type	uart_lld_stop_receive, %function
 684              	uart_lld_stop_receive:
 685              	.LFB266:
 686              		.loc 1 765 0
 687              		.cfi_startproc
 688              		@ args = 0, pretend = 0, frame = 0
 689              		@ frame_needed = 0, uses_anonymous_args = 0
 690              	.LVL46:
 691 0000 10B5     		push	{r4, lr}
 692              		.cfi_def_cfa_offset 8
 693              		.cfi_offset 4, -8
 694              		.cfi_offset 14, -4
 695              	.LBB95:
 696              	.LBB96:
 697              	.LBB97:
 698              	.LBB98:
 699              	.LBB99:
 700              		.loc 2 546 0
 701 0002 2023     		movs	r3, #32
 702              	.LBE99:
 703              	.LBE98:
 704              	.LBE97:
 705              	.LBE96:
 706              	.LBE95:
 707              		.loc 1 765 0
 708 0004 0446     		mov	r4, r0
 709              	.LBB104:
 710              	.LBB103:
 711              	.LBB102:
 712              	.LBB101:
 713              	.LBB100:
 714              		.loc 2 546 0
 715              	@ 546 "../../../os/ext/CMSIS/include/core_cmFunc.h" 1
 716 0006 83F31188 		MSR basepri, r3
 717              	@ 0 "" 2
 718              		.thumb
 719              	.LBE100:
 720              	.LBE101:
 721              	.LBE102:
 722              		.loc 3 300 0
 723 000a FFF7FEFF 		bl	_stats_start_measure_crit_thd
 724              	.LVL47:
 725              		.loc 3 301 0
 726 000e FFF7FEFF 		bl	_dbg_check_lock
 727              	.LVL48:
 728              	.LBE103:
 729              	.LBE104:
 730              		.loc 1 775 0
 731 0012 0022     		movs	r2, #0
 732              		.loc 1 776 0
 733 0014 A38A     		ldrh	r3, [r4, #20]
 734              		.loc 1 775 0
 735 0016 A261     		str	r2, [r4, #24]
ARM GAS  C:\Users\jo\AppData\Local\Temp\ccTgSZM2.s 			page 14


 736              		.loc 1 777 0
 737 0018 A282     		strh	r2, [r4, #20]	@ movhi
 738              		.loc 1 778 0
 739 001a A270     		strb	r2, [r4, #2]
 740              		.loc 1 776 0
 741 001c 9CB2     		uxth	r4, r3
 742              	.LVL49:
 743              	.LBB105:
 744              	.LBB106:
 745              		.loc 3 311 0
 746 001e FFF7FEFF 		bl	_dbg_check_unlock
 747              	.LVL50:
 748              		.loc 3 312 0
 749 0022 FFF7FEFF 		bl	_stats_stop_measure_crit_thd
 750              	.LVL51:
 751              		.loc 3 318 0
 752 0026 094B     		ldr	r3, .L101
 753 0028 9A69     		ldr	r2, [r3, #24]
 754 002a 1B68     		ldr	r3, [r3]
 755 002c 9268     		ldr	r2, [r2, #8]
 756 002e 9B68     		ldr	r3, [r3, #8]
 757 0030 9A42     		cmp	r2, r3
 758 0032 06D2     		bcs	.L99
 759 0034 0648     		ldr	r0, .L101+4
 760 0036 FFF7FEFF 		bl	puts
 761              	.LVL52:
 762              	@ 318 "../../../os/rt/include/chsys.h" 1
 763 003a 00BE     		BKPT #0
 764              	
 765              	@ 0 "" 2
 766              		.thumb
 767 003c 0548     		ldr	r0, .L101+8
 768 003e FFF7FEFF 		bl	chSysHalt
 769              	.LVL53:
 770              	.L99:
 771              	.LBB107:
 772              	.LBB108:
 773              	.LBB109:
 774              		.loc 2 546 0
 775 0042 0023     		movs	r3, #0
 776              	@ 546 "../../../os/ext/CMSIS/include/core_cmFunc.h" 1
 777 0044 83F31188 		MSR basepri, r3
 778              	@ 0 "" 2
 779              		.thumb
 780              	.LBE109:
 781              	.LBE108:
 782              	.LBE107:
 783              	.LBE106:
 784              	.LBE105:
 785              		.loc 1 782 0
 786 0048 2046     		mov	r0, r4
 787 004a 10BD     		pop	{r4, pc}
 788              	.LVL54:
 789              	.L102:
 790              		.align	2
 791              	.L101:
 792 004c 00000000 		.word	ch
ARM GAS  C:\Users\jo\AppData\Local\Temp\ccTgSZM2.s 			page 15


 793 0050 00000000 		.word	.LC0
 794 0054 00000000 		.word	.LANCHOR1
 795              		.cfi_endproc
 796              	.LFE266:
 797              		.size	uart_lld_stop_receive, .-uart_lld_stop_receive
 798              		.global	UARTD3
 799 0058 AFF30080 		.section	.rodata.str1.4,"aMS",%progbits,1
 799      AFF30080 
 800              		.align	2
 801              	.LC0:
 802 0000 7072696F 		.ascii	"priority violation, missing reschedule\000"
 802      72697479 
 802      2076696F 
 802      6C617469 
 802      6F6E2C20 
 803 0027 00       		.section	.bss.UARTD3,"aw",%nobits
 804              		.align	2
 805              		.set	.LANCHOR0,. + 0
 806              		.type	UARTD3, %object
 807              		.size	UARTD3, 28
 808              	UARTD3:
 809 0000 00000000 		.space	28
 809      00000000 
 809      00000000 
 809      00000000 
 809      00000000 
 810              		.section	.rodata.__func__.6751,"a",%progbits
 811              		.align	2
 812              		.set	.LANCHOR1,. + 0
 813              		.type	__func__.6751, %object
 814              		.size	__func__.6751, 12
 815              	__func__.6751:
 816 0000 63685379 		.ascii	"chSysUnlock\000"
 816      73556E6C 
 816      6F636B00 
 817              		.text
 818              	.Letext0:
 819              		.file 4 "c:\\program files\\gnu tools arm embedded\\4.9 2014q4\\lib\\gcc\\arm-none-eabi\\4.9.3\\in
 820              		.file 5 "c:\\program files\\gnu tools arm embedded\\4.9 2014q4\\arm-none-eabi\\include\\machine\\_
 821              		.file 6 "c:\\program files\\gnu tools arm embedded\\4.9 2014q4\\arm-none-eabi\\include\\stdint.h"
 822              		.file 7 "../../../os/rt/ports/ARMCMx/compilers/GCC/chtypes.h"
 823              		.file 8 "../../../os/rt/include/chsystypes.h"
 824              		.file 9 "../../../os/rt/include/chschd.h"
 825              		.file 10 "../../../os/ext/CMSIS/ST/stm32f407xx.h"
 826              		.file 11 "../../../os/rt/ports/ARMCMx/chcore.h"
 827              		.file 12 "../../../os/rt/ports/ARMCMx/chcore_v7m.h"
 828              		.file 13 "../../../os/rt/include/chdebug.h"
 829              		.file 14 "../../../os/rt/include/chtm.h"
 830              		.file 15 "../../../os/rt/include/chstats.h"
 831              		.file 16 "../../../os/rt/include/chmtx.h"
 832              		.file 17 "../../../os/hal/ports/STM32/LLD/GPIOv2/pal_lld.h"
 833              		.file 18 "../../../os/hal/include/uart.h"
 834              		.file 19 "../../../os/hal/ports/STM32/LLD/USARTv1/uart_lld.h"
 835              		.file 20 "../../../os/ext/CMSIS/include/core_cm4.h"
 836              		.file 21 "../../../os/hal/ports/common/ARMCMx/nvic.h"
 837              		.file 22 "<built-in>"