ARM GAS  C:\Users\jo\AppData\Local\Temp\cccDVLAG.s 			page 1


   1              		.syntax unified
   2              		.cpu cortex-m4
   3              		.fpu softvfp
   4              		.eabi_attribute 20, 1
   5              		.eabi_attribute 21, 1
   6              		.eabi_attribute 23, 3
   7              		.eabi_attribute 24, 1
   8              		.eabi_attribute 25, 1
   9              		.eabi_attribute 26, 1
  10              		.eabi_attribute 30, 2
  11              		.eabi_attribute 34, 1
  12              		.eabi_attribute 18, 4
  13              		.thumb
  14              		.file	"uhttpd.c"
  15              		.text
  16              	.Ltext0:
  17              		.cfi_sections	.debug_frame
  18              		.section	.text.HttpAuthValidateAll,"ax",%progbits
  19              		.align	2
  20              		.p2align 4,,15
  21              		.thumb
  22              		.thumb_func
  23              		.type	HttpAuthValidateAll, %function
  24              	HttpAuthValidateAll:
  25              	.LFB260:
  26              		.file 1 "../../../demos/STM32/RT-STM32F407-DISCOVERY-uHttp/uhttp-1.1/uhttpd.c"
  27              		.loc 1 228 0
  28              		.cfi_startproc
  29              		@ args = 0, pretend = 0, frame = 0
  30              		@ frame_needed = 0, uses_anonymous_args = 0
  31              		@ link register save eliminated.
  32              	.LVL0:
  33              		.loc 1 230 0
  34 0000 0020     		movs	r0, #0
  35              	.LVL1:
  36 0002 7047     		bx	lr
  37              		.cfi_endproc
  38              	.LFE260:
  39              		.size	HttpAuthValidateAll, .-HttpAuthValidateAll
  40 0004 AFF30080 		.section	.text.HttpLocationRedirNone,"ax",%progbits
  40      AFF30080 
  40      AFF30080 
  41              		.align	2
  42              		.p2align 4,,15
  43              		.thumb
  44              		.thumb_func
  45              		.type	HttpLocationRedirNone, %function
  46              	HttpLocationRedirNone:
  47              	.LFB261:
  48              		.loc 1 233 0
  49              		.cfi_startproc
  50              		@ args = 0, pretend = 0, frame = 0
  51              		@ frame_needed = 0, uses_anonymous_args = 0
  52              		@ link register save eliminated.
  53              	.LVL2:
  54              		.loc 1 235 0
  55 0000 4FF0FF30 		mov	r0, #-1
ARM GAS  C:\Users\jo\AppData\Local\Temp\cccDVLAG.s 			page 2


  56              	.LVL3:
  57 0004 7047     		bx	lr
  58              		.cfi_endproc
  59              	.LFE261:
  60              		.size	HttpLocationRedirNone, .-HttpLocationRedirNone
  61 0006 00BFAFF3 		.section	.text.HttpArgParseNext,"ax",%progbits
  61      0080AFF3 
  61      0080
  62              		.align	2
  63              		.p2align 4,,15
  64              		.global	HttpArgParseNext
  65              		.thumb
  66              		.thumb_func
  67              		.type	HttpArgParseNext, %function
  68              	HttpArgParseNext:
  69              	.LFB263:
  70              		.loc 1 245 0
  71              		.cfi_startproc
  72              		@ args = 0, pretend = 0, frame = 0
  73              		@ frame_needed = 0, uses_anonymous_args = 0
  74              	.LVL4:
  75 0000 2DE9F041 		push	{r4, r5, r6, r7, r8, lr}
  76              		.cfi_def_cfa_offset 24
  77              		.cfi_offset 4, -24
  78              		.cfi_offset 5, -20
  79              		.cfi_offset 6, -16
  80              		.cfi_offset 7, -12
  81              		.cfi_offset 8, -8
  82              		.cfi_offset 14, -4
  83              		.loc 1 250 0
  84 0004 0769     		ldr	r7, [r0, #16]
  85 0006 002F     		cmp	r7, #0
  86 0008 3AD0     		beq	.L10
  87 000a 0446     		mov	r4, r0
  88              		.loc 1 251 0
  89 000c 2621     		movs	r1, #38
  90 000e 3846     		mov	r0, r7
  91              	.LVL5:
  92 0010 FFF7FEFF 		bl	strchr
  93              	.LVL6:
  94              		.loc 1 252 0
  95 0014 0646     		mov	r6, r0
  96 0016 58B3     		cbz	r0, .L5
  97              		.loc 1 253 0
  98 0018 C7EB0008 		rsb	r8, r7, r0
  99              	.LVL7:
 100              		.loc 1 255 0
 101 001c 08F10100 		add	r0, r8, #1
 102              	.LVL8:
 103 0020 FFF7FEFF 		bl	malloc
 104              	.LVL9:
 105              		.loc 1 254 0
 106 0024 0136     		adds	r6, r6, #1
 107              	.LVL10:
 108              		.loc 1 256 0
 109 0026 0546     		mov	r5, r0
 110 0028 F0B1     		cbz	r0, .L6
ARM GAS  C:\Users\jo\AppData\Local\Temp\cccDVLAG.s 			page 3


 111              		.loc 1 257 0
 112 002a 3946     		mov	r1, r7
 113 002c 4246     		mov	r2, r8
 114 002e FFF7FEFF 		bl	memcpy
 115              	.LVL11:
 116              		.loc 1 258 0
 117 0032 0023     		movs	r3, #0
 118 0034 05F80830 		strb	r3, [r5, r8]
 119              		.loc 1 263 0
 120 0038 2661     		str	r6, [r4, #16]
 121              	.LVL12:
 122              	.L7:
 123              		.loc 1 265 0
 124 003a 2846     		mov	r0, r5
 125 003c 3D21     		movs	r1, #61
 126 003e FFF7FEFF 		bl	strchr
 127              	.LVL13:
 128              		.loc 1 266 0
 129 0042 0346     		mov	r3, r0
 130 0044 90B1     		cbz	r0, .L11
 131              		.loc 1 267 0
 132 0046 461C     		adds	r6, r0, #1
 133              	.LVL14:
 134 0048 0022     		movs	r2, #0
 135              		.loc 1 268 0
 136 004a 3046     		mov	r0, r6
 137              		.loc 1 267 0
 138 004c 1A70     		strb	r2, [r3]
 139              		.loc 1 268 0
 140 004e FFF7FEFF 		bl	HttpUrlUnescape
 141              	.LVL15:
 142              	.L9:
 143              		.loc 1 270 0
 144 0052 A661     		str	r6, [r4, #24]
 145              	.LVL16:
 146              	.L8:
 147              		.loc 1 272 0
 148 0054 6069     		ldr	r0, [r4, #20]
 149 0056 FFF7FEFF 		bl	free
 150              	.LVL17:
 151              		.loc 1 273 0
 152 005a 6561     		str	r5, [r4, #20]
 153              		.loc 1 274 0
 154 005c 2846     		mov	r0, r5
 155 005e FFF7FEFF 		bl	HttpUrlUnescape
 156              	.LVL18:
 157              	.L15:
 158              		.loc 1 277 0
 159 0062 2846     		mov	r0, r5
 160 0064 BDE8F081 		pop	{r4, r5, r6, r7, r8, pc}
 161              	.LVL19:
 162              	.L6:
 163              		.loc 1 263 0
 164 0068 2661     		str	r6, [r4, #16]
 165 006a F3E7     		b	.L8
 166              	.LVL20:
 167              	.L11:
ARM GAS  C:\Users\jo\AppData\Local\Temp\cccDVLAG.s 			page 4


 168 006c 0646     		mov	r6, r0
 169 006e F0E7     		b	.L9
 170              	.LVL21:
 171              	.L5:
 172              		.loc 1 261 0
 173 0070 3846     		mov	r0, r7
 174              	.LVL22:
 175 0072 FFF7FEFF 		bl	strdup
 176              	.LVL23:
 177              		.loc 1 263 0
 178 0076 2661     		str	r6, [r4, #16]
 179              		.loc 1 264 0
 180 0078 0546     		mov	r5, r0
 181 007a 0028     		cmp	r0, #0
 182 007c DDD1     		bne	.L7
 183 007e E9E7     		b	.L8
 184              	.LVL24:
 185              	.L10:
 186              		.loc 1 246 0
 187 0080 3D46     		mov	r5, r7
 188              	.LVL25:
 189 0082 EEE7     		b	.L15
 190              		.cfi_endproc
 191              	.LFE263:
 192              		.size	HttpArgParseNext, .-HttpArgParseNext
 193 0084 AFF30080 		.section	.text.HttpArgParseFirst,"ax",%progbits
 193      AFF30080 
 193      AFF30080 
 194              		.align	2
 195              		.p2align 4,,15
 196              		.global	HttpArgParseFirst
 197              		.thumb
 198              		.thumb_func
 199              		.type	HttpArgParseFirst, %function
 200              	HttpArgParseFirst:
 201              	.LFB262:
 202              		.loc 1 238 0
 203              		.cfi_startproc
 204              		@ args = 0, pretend = 0, frame = 0
 205              		@ frame_needed = 0, uses_anonymous_args = 0
 206              		@ link register save eliminated.
 207              	.LVL26:
 208              		.loc 1 239 0
 209 0000 C268     		ldr	r2, [r0, #12]
 210 0002 0261     		str	r2, [r0, #16]
 211              		.loc 1 241 0
 212 0004 FFF7FEBF 		b	HttpArgParseNext
 213              	.LVL27:
 214              		.cfi_endproc
 215              	.LFE262:
 216              		.size	HttpArgParseFirst, .-HttpArgParseFirst
 217 0008 AFF30080 		.section	.text.HttpArgReadNext,"ax",%progbits
 217      AFF30080 
 218              		.align	2
 219              		.p2align 4,,15
 220              		.global	HttpArgReadNext
 221              		.thumb
ARM GAS  C:\Users\jo\AppData\Local\Temp\cccDVLAG.s 			page 5


 222              		.thumb_func
 223              		.type	HttpArgReadNext, %function
 224              	HttpArgReadNext:
 225              	.LFB264:
 226              		.loc 1 280 0
 227              		.cfi_startproc
 228              		@ args = 0, pretend = 0, frame = 0
 229              		@ frame_needed = 0, uses_anonymous_args = 0
 230              	.LVL28:
 231 0000 F0B5     		push	{r4, r5, r6, r7, lr}
 232              		.cfi_def_cfa_offset 20
 233              		.cfi_offset 4, -20
 234              		.cfi_offset 5, -16
 235              		.cfi_offset 6, -12
 236              		.cfi_offset 7, -8
 237              		.cfi_offset 14, -4
 238              		.loc 1 287 0
 239 0002 0B68     		ldr	r3, [r1]
 240              		.loc 1 280 0
 241 0004 83B0     		sub	sp, sp, #12
 242              		.cfi_def_cfa_offset 32
 243              		.loc 1 287 0
 244 0006 002B     		cmp	r3, #0
 245 0008 36D0     		beq	.L22
 246              		.loc 1 288 0
 247 000a 802B     		cmp	r3, #128
 248 000c A8BF     		it	ge
 249 000e 8023     		movge	r3, #128
 250 0010 0546     		mov	r5, r0
 251              		.loc 1 289 0
 252 0012 581C     		adds	r0, r3, #1
 253              	.LVL29:
 254 0014 0E46     		mov	r6, r1
 255              		.loc 1 288 0
 256 0016 1C46     		mov	r4, r3
 257              	.LVL30:
 258              		.loc 1 289 0
 259 0018 FFF7FEFF 		bl	malloc
 260              	.LVL31:
 261              		.loc 1 290 0
 262 001c 0746     		mov	r7, r0
 263 001e 58B3     		cbz	r0, .L22
 264              		.loc 1 291 0
 265 0020 2868     		ldr	r0, [r5]
 266              	.LVL32:
 267 0022 1749     		ldr	r1, .L33
 268 0024 0094     		str	r4, [sp]
 269 0026 0022     		movs	r2, #0
 270 0028 3B46     		mov	r3, r7
 271 002a FFF7FEFF 		bl	StreamReadUntilChars
 272              	.LVL33:
 273              		.loc 1 292 0
 274 002e 0028     		cmp	r0, #0
 275 0030 20DD     		ble	.L25
 276              		.loc 1 293 0
 277 0032 3368     		ldr	r3, [r6]
 278 0034 1B1A     		subs	r3, r3, r0
ARM GAS  C:\Users\jo\AppData\Local\Temp\cccDVLAG.s 			page 6


 279 0036 3360     		str	r3, [r6]
 280              		.loc 1 294 0
 281 0038 3846     		mov	r0, r7
 282              	.LVL34:
 283 003a FFF7FEFF 		bl	strdup
 284              	.LVL35:
 285 003e 0446     		mov	r4, r0
 286              	.LVL36:
 287              		.loc 1 295 0
 288 0040 A869     		ldr	r0, [r5, #24]
 289              	.LVL37:
 290 0042 FFF7FEFF 		bl	free
 291              	.LVL38:
 292              		.loc 1 296 0
 293 0046 AC61     		str	r4, [r5, #24]
 294              		.loc 1 297 0
 295 0048 2046     		mov	r0, r4
 296 004a 3D21     		movs	r1, #61
 297 004c FFF7FEFF 		bl	strchr
 298              	.LVL39:
 299              		.loc 1 298 0
 300 0050 0346     		mov	r3, r0
 301 0052 30B1     		cbz	r0, .L24
 302              		.loc 1 299 0
 303 0054 461C     		adds	r6, r0, #1
 304              	.LVL40:
 305 0056 0022     		movs	r2, #0
 306              		.loc 1 300 0
 307 0058 3046     		mov	r0, r6
 308              		.loc 1 299 0
 309 005a 1A70     		strb	r2, [r3]
 310              		.loc 1 300 0
 311 005c FFF7FEFF 		bl	HttpUrlUnescape
 312              	.LVL41:
 313              		.loc 1 301 0
 314 0060 EE61     		str	r6, [r5, #28]
 315              	.LVL42:
 316              	.L24:
 317              		.loc 1 303 0
 318 0062 2046     		mov	r0, r4
 319 0064 FFF7FEFF 		bl	HttpUrlUnescape
 320              	.LVL43:
 321              	.L23:
 322              		.loc 1 305 0
 323 0068 3846     		mov	r0, r7
 324 006a FFF7FEFF 		bl	free
 325              	.LVL44:
 326              		.loc 1 309 0
 327 006e 2046     		mov	r0, r4
 328 0070 03B0     		add	sp, sp, #12
 329              		.cfi_remember_state
 330              		.cfi_def_cfa_offset 20
 331              		@ sp needed
 332 0072 F0BD     		pop	{r4, r5, r6, r7, pc}
 333              	.LVL45:
 334              	.L25:
 335              		.cfi_restore_state
ARM GAS  C:\Users\jo\AppData\Local\Temp\cccDVLAG.s 			page 7


 336              		.loc 1 284 0
 337 0074 0024     		movs	r4, #0
 338              	.LVL46:
 339 0076 F7E7     		b	.L23
 340              	.LVL47:
 341              	.L22:
 342 0078 0024     		movs	r4, #0
 343              	.LVL48:
 344              		.loc 1 309 0
 345 007a 2046     		mov	r0, r4
 346 007c 03B0     		add	sp, sp, #12
 347              		.cfi_def_cfa_offset 20
 348              		@ sp needed
 349 007e F0BD     		pop	{r4, r5, r6, r7, pc}
 350              	.LVL49:
 351              	.L34:
 352              		.align	2
 353              	.L33:
 354 0080 00000000 		.word	.LC0
 355              		.cfi_endproc
 356              	.LFE264:
 357              		.size	HttpArgReadNext, .-HttpArgReadNext
 358 0084 AFF30080 		.section	.text.CgiPostForm,"ax",%progbits
 358      AFF30080 
 358      AFF30080 
 359              		.align	2
 360              		.p2align 4,,15
 361              		.thumb
 362              		.thumb_func
 363              		.type	CgiPostForm, %function
 364              	CgiPostForm:
 365              	.LFB258:
 366              		.loc 1 160 0
 367              		.cfi_startproc
 368              		@ args = 0, pretend = 0, frame = 8
 369              		@ frame_needed = 0, uses_anonymous_args = 0
 370              	.LVL50:
 371 0000 2DE9F043 		push	{r4, r5, r6, r7, r8, r9, lr}
 372              		.cfi_def_cfa_offset 28
 373              		.cfi_offset 4, -28
 374              		.cfi_offset 5, -24
 375              		.cfi_offset 6, -20
 376              		.cfi_offset 7, -16
 377              		.cfi_offset 8, -12
 378              		.cfi_offset 9, -8
 379              		.cfi_offset 14, -4
 380 0004 83B0     		sub	sp, sp, #12
 381              		.cfi_def_cfa_offset 40
 382              		.loc 1 167 0
 383 0006 02AF     		add	r7, sp, #8
 384 0008 436A     		ldr	r3, [r0, #36]
 385 000a 47F8043D 		str	r3, [r7, #-4]!
 386              		.loc 1 164 0
 387 000e 4FF00009 		mov	r9, #0
 388              		.loc 1 160 0
 389 0012 0446     		mov	r4, r0
 390              		.loc 1 163 0
ARM GAS  C:\Users\jo\AppData\Local\Temp\cccDVLAG.s 			page 8


 391 0014 C846     		mov	r8, r9
 392              		.loc 1 168 0
 393 0016 04E0     		b	.L36
 394              	.LVL51:
 395              	.L38:
 396              		.loc 1 176 0
 397 0018 3046     		mov	r0, r6
 398 001a FFF7FEFF 		bl	strcmp
 399              	.LVL52:
 400 001e B0B1     		cbz	r0, .L48
 401              	.L37:
 402 0020 019B     		ldr	r3, [sp, #4]
 403              	.LVL53:
 404              	.L36:
 405              		.loc 1 169 0
 406 0022 3946     		mov	r1, r7
 407 0024 2046     		mov	r0, r4
 408              		.loc 1 168 0
 409 0026 BBB1     		cbz	r3, .L49
 410              	.LVL54:
 411              		.loc 1 169 0
 412 0028 FFF7FEFF 		bl	HttpArgReadNext
 413              	.LVL55:
 414              		.loc 1 173 0
 415 002c 1F49     		ldr	r1, .L51
 416              		.loc 1 170 0
 417 002e 0646     		mov	r6, r0
 418 0030 0028     		cmp	r0, #0
 419 0032 F5D0     		beq	.L37
 420              	.LBB8:
 421              	.LBB9:
 422              		.loc 1 313 0
 423 0034 E569     		ldr	r5, [r4, #28]
 424              	.LBE9:
 425              	.LBE8:
 426              		.loc 1 172 0
 427 0036 002D     		cmp	r5, #0
 428 0038 F2D0     		beq	.L37
 429              		.loc 1 173 0
 430 003a FFF7FEFF 		bl	strcmp
 431              	.LVL56:
 432              		.loc 1 176 0
 433 003e 1C49     		ldr	r1, .L51+4
 434              		.loc 1 173 0
 435 0040 0028     		cmp	r0, #0
 436 0042 E9D1     		bne	.L38
 437              		.loc 1 174 0
 438 0044 2846     		mov	r0, r5
 439 0046 FFF7FEFF 		bl	strdup
 440              	.LVL57:
 441 004a 8046     		mov	r8, r0
 442              	.LVL58:
 443 004c E8E7     		b	.L37
 444              	.LVL59:
 445              	.L48:
 446              		.loc 1 177 0
 447 004e 2846     		mov	r0, r5
ARM GAS  C:\Users\jo\AppData\Local\Temp\cccDVLAG.s 			page 9


 448 0050 FFF7FEFF 		bl	strdup
 449              	.LVL60:
 450 0054 8146     		mov	r9, r0
 451              	.LVL61:
 452 0056 E3E7     		b	.L37
 453              	.LVL62:
 454              	.L49:
 455              		.loc 1 182 0
 456 0058 4046     		mov	r0, r8
 457              	.LVL63:
 458 005a 1649     		ldr	r1, .L51+8
 459 005c FFF7FEFF 		bl	strcmp
 460              	.LVL64:
 461 0060 20B9     		cbnz	r0, .L40
 462              		.loc 1 183 0
 463 0062 4846     		mov	r0, r9
 464 0064 1349     		ldr	r1, .L51+8
 465 0066 FFF7FEFF 		bl	strcmp
 466              	.LVL65:
 467 006a 18B1     		cbz	r0, .L50
 468              	.L40:
 469              		.loc 1 191 0
 470 006c 0020     		movs	r0, #0
 471 006e 03B0     		add	sp, sp, #12
 472              		.cfi_remember_state
 473              		.cfi_def_cfa_offset 28
 474              		@ sp needed
 475 0070 BDE8F083 		pop	{r4, r5, r6, r7, r8, r9, pc}
 476              	.LVL66:
 477              	.L50:
 478              		.cfi_restore_state
 479              	.LBB10:
 480              	.LBB11:
 481              		.loc 1 124 0
 482 0074 2046     		mov	r0, r4
 483 0076 C821     		movs	r1, #200
 484 0078 FFF7FEFF 		bl	HttpSendHeaderTop
 485              	.LVL67:
 486              		.loc 1 125 0
 487 007c 2046     		mov	r0, r4
 488 007e 0E4A     		ldr	r2, .L51+12
 489 0080 0E49     		ldr	r1, .L51+16
 490 0082 4FF0FF33 		mov	r3, #-1
 491 0086 FFF7FEFF 		bl	HttpSendHeaderBottom
 492              	.LVL68:
 493              		.loc 1 127 0
 494 008a 2168     		ldr	r1, [r4]
 495 008c 0C48     		ldr	r0, .L51+20
 496 008e FFF7FEFF 		bl	s_puts
 497              	.LVL69:
 498              		.loc 1 128 0
 499 0092 4246     		mov	r2, r8
 500 0094 4B46     		mov	r3, r9
 501 0096 0B49     		ldr	r1, .L51+24
 502 0098 2068     		ldr	r0, [r4]
 503 009a FFF7FEFF 		bl	s_printf
 504              	.LVL70:
ARM GAS  C:\Users\jo\AppData\Local\Temp\cccDVLAG.s 			page 10


 505              		.loc 1 129 0
 506 009e 2068     		ldr	r0, [r4]
 507 00a0 FFF7FEFF 		bl	s_flush
 508              	.LVL71:
 509              	.LBE11:
 510              	.LBE10:
 511              		.loc 1 191 0
 512 00a4 0020     		movs	r0, #0
 513 00a6 03B0     		add	sp, sp, #12
 514              		.cfi_def_cfa_offset 28
 515              		@ sp needed
 516 00a8 BDE8F083 		pop	{r4, r5, r6, r7, r8, r9, pc}
 517              	.LVL72:
 518              	.L52:
 519              		.align	2
 520              	.L51:
 521 00ac 04000000 		.word	.LC1
 522 00b0 10000000 		.word	.LC2
 523 00b4 1C000000 		.word	.LC3
 524 00b8 2C000000 		.word	.LC5
 525 00bc 24000000 		.word	.LC4
 526 00c0 00000000 		.word	.LANCHOR0
 527 00c4 00000000 		.word	.LANCHOR1
 528              		.cfi_endproc
 529              	.LFE258:
 530              		.size	CgiPostForm, .-CgiPostForm
 531 00c8 AFF30080 		.section	.text.HttpArgValue,"ax",%progbits
 531      AFF30080 
 532              		.align	2
 533              		.p2align 4,,15
 534              		.global	HttpArgValue
 535              		.thumb
 536              		.thumb_func
 537              		.type	HttpArgValue, %function
 538              	HttpArgValue:
 539              	.LFB265:
 540              		.loc 1 312 0
 541              		.cfi_startproc
 542              		@ args = 0, pretend = 0, frame = 0
 543              		@ frame_needed = 0, uses_anonymous_args = 0
 544              		@ link register save eliminated.
 545              	.LVL73:
 546              		.loc 1 314 0
 547 0000 8069     		ldr	r0, [r0, #24]
 548              	.LVL74:
 549 0002 7047     		bx	lr
 550              		.cfi_endproc
 551              	.LFE265:
 552              		.size	HttpArgValue, .-HttpArgValue
 553 0004 AFF30080 		.section	.text.HttpArgValueSub,"ax",%progbits
 553      AFF30080 
 553      AFF30080 
 554              		.align	2
 555              		.p2align 4,,15
 556              		.global	HttpArgValueSub
 557              		.thumb
 558              		.thumb_func
ARM GAS  C:\Users\jo\AppData\Local\Temp\cccDVLAG.s 			page 11


 559              		.type	HttpArgValueSub, %function
 560              	HttpArgValueSub:
 561              	.LFB266:
 562              		.loc 1 317 0
 563              		.cfi_startproc
 564              		@ args = 0, pretend = 0, frame = 0
 565              		@ frame_needed = 0, uses_anonymous_args = 0
 566              	.LVL75:
 567 0000 2DE9F041 		push	{r4, r5, r6, r7, r8, lr}
 568              		.cfi_def_cfa_offset 24
 569              		.cfi_offset 4, -24
 570              		.cfi_offset 5, -20
 571              		.cfi_offset 6, -16
 572              		.cfi_offset 7, -12
 573              		.cfi_offset 8, -8
 574              		.cfi_offset 14, -4
 575              		.loc 1 317 0
 576 0004 0446     		mov	r4, r0
 577              	.LVL76:
 578              		.loc 1 319 0
 579 0006 0846     		mov	r0, r1
 580              	.LVL77:
 581              		.loc 1 317 0
 582 0008 9046     		mov	r8, r2
 583 000a 0F46     		mov	r7, r1
 584              		.loc 1 319 0
 585 000c FFF7FEFF 		bl	strlen
 586              	.LVL78:
 587              		.loc 1 321 0
 588 0010 0023     		movs	r3, #0
 589              		.loc 1 319 0
 590 0012 0646     		mov	r6, r0
 591              	.LVL79:
 592              		.loc 1 321 0
 593 0014 C8F80030 		str	r3, [r8]
 594              	.LVL80:
 595              	.L58:
 596              		.loc 1 324 0
 597 0018 2046     		mov	r0, r4
 598 001a 3B21     		movs	r1, #59
 599 001c FFF7FEFF 		bl	strchr
 600              	.LVL81:
 601              		.loc 1 325 0
 602 0020 0446     		mov	r4, r0
 603 0022 0028     		cmp	r0, #0
 604 0024 31D0     		beq	.L56
 605              	.LVL82:
 606              	.L57:
 607              		.loc 1 329 0 discriminator 1
 608 0026 14F8013F 		ldrb	r3, [r4, #1]!	@ zero_extendqisi2
 609              	.LVL83:
 610 002a 202B     		cmp	r3, #32
 611 002c FBD0     		beq	.L57
 612              		.loc 1 331 0
 613 002e 2046     		mov	r0, r4
 614 0030 3946     		mov	r1, r7
 615 0032 3246     		mov	r2, r6
ARM GAS  C:\Users\jo\AppData\Local\Temp\cccDVLAG.s 			page 12


 616 0034 FFF7FEFF 		bl	strncasecmp
 617              	.LVL84:
 618 0038 0028     		cmp	r0, #0
 619 003a EDD1     		bne	.L58
 620              		.loc 1 332 0
 621 003c 3444     		add	r4, r4, r6
 622              	.LVL85:
 623              		.loc 1 334 0
 624 003e 2578     		ldrb	r5, [r4]	@ zero_extendqisi2
 625 0040 25B9     		cbnz	r5, .L61
 626 0042 E9E7     		b	.L58
 627              	.L62:
 628 0044 14F8015F 		ldrb	r5, [r4, #1]!	@ zero_extendqisi2
 629              	.LVL86:
 630 0048 002D     		cmp	r5, #0
 631 004a E5D0     		beq	.L58
 632              	.LVL87:
 633              	.L61:
 634              		.loc 1 334 0 is_stmt 0 discriminator 1
 635 004c 1048     		ldr	r0, .L79
 636 004e 2946     		mov	r1, r5
 637 0050 FFF7FEFF 		bl	strchr
 638              	.LVL88:
 639 0054 0028     		cmp	r0, #0
 640 0056 F5D0     		beq	.L62
 641              		.loc 1 338 0 is_stmt 1
 642 0058 3D2D     		cmp	r5, #61
 643 005a DDD1     		bne	.L58
 644              	.LVL89:
 645              	.L64:
 646              		.loc 1 340 0 discriminator 1
 647 005c 14F8013F 		ldrb	r3, [r4, #1]!	@ zero_extendqisi2
 648              	.LVL90:
 649 0060 202B     		cmp	r3, #32
 650 0062 FBD0     		beq	.L64
 651              		.loc 1 342 0
 652 0064 222B     		cmp	r3, #34
 653 0066 08BF     		it	eq
 654 0068 0134     		addeq	r4, r4, #1
 655              	.LVL91:
 656              		.loc 1 344 0
 657 006a 0125     		movs	r5, #1
 658 006c 2178     		ldrb	r1, [r4]	@ zero_extendqisi2
 659 006e 39B9     		cbnz	r1, .L66
 660 0070 0BE0     		b	.L56
 661              	.L67:
 662              		.loc 1 345 0
 663 0072 C8F80050 		str	r5, [r8]
 664 0076 0135     		adds	r5, r5, #1
 665 0078 6319     		adds	r3, r4, r5
 666              		.loc 1 344 0
 667 007a 13F8011C 		ldrb	r1, [r3, #-1]	@ zero_extendqisi2
 668 007e 21B1     		cbz	r1, .L56
 669              	.L66:
 670              		.loc 1 344 0 is_stmt 0 discriminator 1
 671 0080 0448     		ldr	r0, .L79+4
 672 0082 FFF7FEFF 		bl	strchr
ARM GAS  C:\Users\jo\AppData\Local\Temp\cccDVLAG.s 			page 13


 673              	.LVL92:
 674 0086 0028     		cmp	r0, #0
 675 0088 F3D0     		beq	.L67
 676              	.L56:
 677              		.loc 1 352 0 is_stmt 1
 678 008a 2046     		mov	r0, r4
 679 008c BDE8F081 		pop	{r4, r5, r6, r7, r8, pc}
 680              	.LVL93:
 681              	.L80:
 682              		.align	2
 683              	.L79:
 684 0090 34000000 		.word	.LC6
 685 0094 38000000 		.word	.LC7
 686              		.cfi_endproc
 687              	.LFE266:
 688              		.size	HttpArgValueSub, .-HttpArgValueSub
 689              		.section	.text.HttpParseMultipartHeader,"ax",%progbits
 690              		.align	2
 691              		.p2align 4,,15
 692              		.global	HttpParseMultipartHeader
 693              		.thumb
 694              		.thumb_func
 695              		.type	HttpParseMultipartHeader, %function
 696              	HttpParseMultipartHeader:
 697              	.LFB267:
 698              		.loc 1 356 0
 699              		.cfi_startproc
 700              		@ args = 0, pretend = 0, frame = 0
 701              		@ frame_needed = 0, uses_anonymous_args = 0
 702              	.LVL94:
 703 0000 2DE9F047 		push	{r4, r5, r6, r7, r8, r9, r10, lr}
 704              		.cfi_def_cfa_offset 32
 705              		.cfi_offset 4, -32
 706              		.cfi_offset 5, -28
 707              		.cfi_offset 6, -24
 708              		.cfi_offset 7, -20
 709              		.cfi_offset 8, -16
 710              		.cfi_offset 9, -12
 711              		.cfi_offset 10, -8
 712              		.cfi_offset 14, -4
 713 0004 0746     		mov	r7, r0
 714 0006 82B0     		sub	sp, sp, #8
 715              		.cfi_def_cfa_offset 40
 716              		.loc 1 361 0
 717 0008 0846     		mov	r0, r1
 718              	.LVL95:
 719              		.loc 1 356 0
 720 000a 1646     		mov	r6, r2
 721 000c 8A46     		mov	r10, r1
 722              		.loc 1 361 0
 723 000e FFF7FEFF 		bl	strlen
 724              	.LVL96:
 725 0012 8146     		mov	r9, r0
 726              	.LVL97:
 727              		.loc 1 363 0
 728 0014 3068     		ldr	r0, [r6]
 729              	.LVL98:
ARM GAS  C:\Users\jo\AppData\Local\Temp\cccDVLAG.s 			page 14


 730 0016 B0F5807F 		cmp	r0, #256
 731 001a A8BF     		it	ge
 732 001c 4FF48070 		movge	r0, #256
 733 0020 0130     		adds	r0, r0, #1
 734 0022 FFF7FEFF 		bl	malloc
 735              	.LVL99:
 736              		.loc 1 364 0
 737 0026 0446     		mov	r4, r0
 738 0028 0028     		cmp	r0, #0
 739 002a 00F08D80 		beq	.L96
 740              		.loc 1 368 0
 741 002e 0025     		movs	r5, #0
 742              		.loc 1 367 0
 743 0030 F86C     		ldr	r0, [r7, #76]
 744              	.LVL100:
 745 0032 FFF7FEFF 		bl	free
 746              	.LVL101:
 747              		.loc 1 368 0
 748 0036 FD64     		str	r5, [r7, #76]
 749              		.loc 1 369 0
 750 0038 B86C     		ldr	r0, [r7, #72]
 751 003a FFF7FEFF 		bl	free
 752              	.LVL102:
 753              		.loc 1 358 0
 754 003e A846     		mov	r8, r5
 755              		.loc 1 370 0
 756 0040 BD64     		str	r5, [r7, #72]
 757 0042 3568     		ldr	r5, [r6]
 758              	.LVL103:
 759              	.L83:
 760              		.loc 1 374 0
 761 0044 4249     		ldr	r1, .L107
 762 0046 434A     		ldr	r2, .L107+4
 763 0048 B5F5807F 		cmp	r5, #256
 764 004c AE46     		mov	lr, r5
 765 004e 2346     		mov	r3, r4
 766 0050 A8BF     		it	ge
 767 0052 4FF4807E 		movge	lr, #256
 768              		.loc 1 372 0
 769 0056 A5B1     		cbz	r5, .L84
 770              	.LVL104:
 771              		.loc 1 374 0
 772 0058 3868     		ldr	r0, [r7]
 773 005a CDF800E0 		str	lr, [sp]
 774 005e FFF7FEFF 		bl	StreamReadUntilChars
 775              	.LVL105:
 776              		.loc 1 375 0
 777 0062 B0F10008 		subs	r8, r0, #0
 778              		.loc 1 380 0
 779 0066 5146     		mov	r1, r10
 780 0068 4A46     		mov	r2, r9
 781 006a 2046     		mov	r0, r4
 782              	.LVL106:
 783              		.loc 1 375 0
 784 006c 09DD     		ble	.L84
 785              	.LVL107:
 786              		.loc 1 379 0
ARM GAS  C:\Users\jo\AppData\Local\Temp\cccDVLAG.s 			page 15


 787 006e 3568     		ldr	r5, [r6]
 788              		.loc 1 380 0
 789 0070 C145     		cmp	r9, r8
 790              		.loc 1 379 0
 791 0072 C8EB0505 		rsb	r5, r8, r5
 792 0076 3560     		str	r5, [r6]
 793              		.loc 1 380 0
 794 0078 E4DA     		bge	.L83
 795              		.loc 1 380 0 is_stmt 0 discriminator 1
 796 007a FFF7FEFF 		bl	strncmp
 797              	.LVL108:
 798 007e 0028     		cmp	r0, #0
 799 0080 E0D1     		bne	.L83
 800              	.LVL109:
 801              	.L84:
 802              		.loc 1 386 0 is_stmt 1
 803 0082 09F10103 		add	r3, r9, #1
 804 0086 9845     		cmp	r8, r3
 805 0088 53DC     		bgt	.L106
 806              	.LVL110:
 807              	.L102:
 808              		.loc 1 387 0
 809 008a 3368     		ldr	r3, [r6]
 810 008c 002B     		cmp	r3, #0
 811 008e 47D0     		beq	.L89
 812              	.L93:
 813              		.loc 1 389 0
 814 0090 B3F5807F 		cmp	r3, #256
 815 0094 A8BF     		it	ge
 816 0096 4FF48073 		movge	r3, #256
 817 009a 3868     		ldr	r0, [r7]
 818 009c 2E49     		ldr	r1, .L107+8
 819 009e 0093     		str	r3, [sp]
 820 00a0 2C4A     		ldr	r2, .L107+4
 821 00a2 2346     		mov	r3, r4
 822 00a4 FFF7FEFF 		bl	StreamReadUntilChars
 823              	.LVL111:
 824              		.loc 1 390 0
 825 00a8 051E     		subs	r5, r0, #0
 826              		.loc 1 401 0
 827 00aa 2C49     		ldr	r1, .L107+12
 828 00ac 2046     		mov	r0, r4
 829              	.LVL112:
 830              		.loc 1 390 0
 831 00ae 37DD     		ble	.L89
 832              	.LVL113:
 833              		.loc 1 394 0
 834 00b0 3368     		ldr	r3, [r6]
 835              		.loc 1 395 0
 836 00b2 2278     		ldrb	r2, [r4]	@ zero_extendqisi2
 837              		.loc 1 394 0
 838 00b4 5D1B     		subs	r5, r3, r5
 839              	.LVL114:
 840 00b6 3560     		str	r5, [r6]
 841              		.loc 1 395 0
 842 00b8 002A     		cmp	r2, #0
 843 00ba 43D0     		beq	.L97
ARM GAS  C:\Users\jo\AppData\Local\Temp\cccDVLAG.s 			page 16


 844              		.loc 1 401 0
 845 00bc FFF7FEFF 		bl	strcasecmp
 846              	.LVL115:
 847              		.loc 1 404 0
 848 00c0 2749     		ldr	r1, .L107+16
 849              		.loc 1 401 0
 850 00c2 C0B9     		cbnz	r0, .L90
 851              		.loc 1 402 0
 852 00c4 07F14808 		add	r8, r7, #72
 853              	.LVL116:
 854              	.L91:
 855              		.loc 1 415 0
 856 00c8 B5F5807F 		cmp	r5, #256
 857 00cc A8BF     		it	ge
 858 00ce 4FF48075 		movge	r5, #256
 859 00d2 3868     		ldr	r0, [r7]
 860 00d4 1E49     		ldr	r1, .L107
 861 00d6 1F4A     		ldr	r2, .L107+4
 862 00d8 0095     		str	r5, [sp]
 863 00da 2346     		mov	r3, r4
 864 00dc FFF7FEFF 		bl	StreamReadUntilChars
 865              	.LVL117:
 866              		.loc 1 416 0
 867 00e0 0028     		cmp	r0, #0
 868 00e2 1DDD     		ble	.L89
 869              		.loc 1 419 0
 870 00e4 3368     		ldr	r3, [r6]
 871 00e6 181A     		subs	r0, r3, r0
 872              	.LVL118:
 873 00e8 3060     		str	r0, [r6]
 874              		.loc 1 420 0
 875 00ea 2046     		mov	r0, r4
 876 00ec FFF7FEFF 		bl	strdup
 877              	.LVL119:
 878 00f0 C8F80000 		str	r0, [r8]
 879 00f4 C9E7     		b	.L102
 880              	.LVL120:
 881              	.L90:
 882              		.loc 1 404 0
 883 00f6 2046     		mov	r0, r4
 884 00f8 FFF7FEFF 		bl	strcasecmp
 885              	.LVL121:
 886 00fc 10B9     		cbnz	r0, .L92
 887              		.loc 1 405 0
 888 00fe 07F14C08 		add	r8, r7, #76
 889              	.LVL122:
 890 0102 E1E7     		b	.L91
 891              	.LVL123:
 892              	.L92:
 893              		.loc 1 408 0
 894 0104 0022     		movs	r2, #0
 895 0106 3868     		ldr	r0, [r7]
 896 0108 1149     		ldr	r1, .L107
 897 010a 0095     		str	r5, [sp]
 898 010c 1346     		mov	r3, r2
 899 010e FFF7FEFF 		bl	StreamReadUntilChars
 900              	.LVL124:
ARM GAS  C:\Users\jo\AppData\Local\Temp\cccDVLAG.s 			page 17


 901              		.loc 1 409 0
 902 0112 0028     		cmp	r0, #0
 903 0114 04DD     		ble	.L89
 904              		.loc 1 412 0
 905 0116 3368     		ldr	r3, [r6]
 906 0118 1B1A     		subs	r3, r3, r0
 907 011a 3360     		str	r3, [r6]
 908              		.loc 1 387 0
 909 011c 002B     		cmp	r3, #0
 910 011e B7D1     		bne	.L93
 911              	.LVL125:
 912              	.L89:
 913              		.loc 1 357 0
 914 0120 4FF0FF35 		mov	r5, #-1
 915              	.L88:
 916              	.LVL126:
 917              		.loc 1 424 0
 918 0124 2046     		mov	r0, r4
 919 0126 FFF7FEFF 		bl	free
 920              	.LVL127:
 921              		.loc 1 425 0
 922 012a 2846     		mov	r0, r5
 923              	.LVL128:
 924              	.L103:
 925              		.loc 1 426 0
 926 012c 02B0     		add	sp, sp, #8
 927              		.cfi_remember_state
 928              		.cfi_def_cfa_offset 32
 929              		@ sp needed
 930 012e BDE8F087 		pop	{r4, r5, r6, r7, r8, r9, r10, pc}
 931              	.LVL129:
 932              	.L106:
 933              		.cfi_restore_state
 934              		.loc 1 386 0 discriminator 1
 935 0132 04EB0900 		add	r0, r4, r9
 936 0136 0B49     		ldr	r1, .L107+20
 937 0138 0222     		movs	r2, #2
 938 013a FFF7FEFF 		bl	strncmp
 939              	.LVL130:
 940 013e 0028     		cmp	r0, #0
 941 0140 A3D1     		bne	.L102
 942 0142 EDE7     		b	.L89
 943              	.LVL131:
 944              	.L97:
 945              		.loc 1 397 0
 946 0144 1546     		mov	r5, r2
 947 0146 EDE7     		b	.L88
 948              	.LVL132:
 949              	.L96:
 950              		.loc 1 365 0
 951 0148 4FF0FF30 		mov	r0, #-1
 952              	.LVL133:
 953 014c EEE7     		b	.L103
 954              	.L108:
 955 014e 00BF     		.align	2
 956              	.L107:
 957 0150 3C000000 		.word	.LC8
ARM GAS  C:\Users\jo\AppData\Local\Temp\cccDVLAG.s 			page 18


 958 0154 40000000 		.word	.LC9
 959 0158 48000000 		.word	.LC11
 960 015c 00000000 		.word	.LANCHOR2
 961 0160 00000000 		.word	.LANCHOR3
 962 0164 44000000 		.word	.LC10
 963              		.cfi_endproc
 964              	.LFE267:
 965              		.size	HttpParseMultipartHeader, .-HttpParseMultipartHeader
 966 0168 AFF30080 		.section	.text.HttpParseHeader,"ax",%progbits
 966      AFF30080 
 967              		.align	2
 968              		.p2align 4,,15
 969              		.global	HttpParseHeader
 970              		.thumb
 971              		.thumb_func
 972              		.type	HttpParseHeader, %function
 973              	HttpParseHeader:
 974              	.LFB268:
 975              		.loc 1 430 0
 976              		.cfi_startproc
 977              		@ args = 0, pretend = 0, frame = 0
 978              		@ frame_needed = 0, uses_anonymous_args = 0
 979              	.LVL134:
 980 0000 70B5     		push	{r4, r5, r6, lr}
 981              		.cfi_def_cfa_offset 16
 982              		.cfi_offset 4, -16
 983              		.cfi_offset 5, -12
 984              		.cfi_offset 6, -8
 985              		.cfi_offset 14, -4
 986 0002 0546     		mov	r5, r0
 987 0004 82B0     		sub	sp, sp, #8
 988              		.cfi_def_cfa_offset 24
 989              		.loc 1 435 0
 990 0006 40F20110 		movw	r0, #257
 991              	.LVL135:
 992 000a FFF7FEFF 		bl	malloc
 993              	.LVL136:
 994              		.loc 1 436 0
 995 000e 0446     		mov	r4, r0
 996 0010 0028     		cmp	r0, #0
 997 0012 00F0D380 		beq	.L133
 998              		.loc 1 439 0
 999 0016 0021     		movs	r1, #0
 1000 0018 4C22     		movs	r2, #76
 1001 001a 281D     		adds	r0, r5, #4
 1002              	.LVL137:
 1003 001c FFF7FEFF 		bl	memset
 1004              	.LVL138:
 1005              		.loc 1 442 0
 1006 0020 4FF48073 		mov	r3, #256
 1007 0024 2868     		ldr	r0, [r5]
 1008 0026 6C49     		ldr	r1, .L146
 1009 0028 0093     		str	r3, [sp]
 1010 002a 6C4A     		ldr	r2, .L146+4
 1011 002c 2346     		mov	r3, r4
 1012 002e FFF7FEFF 		bl	StreamReadUntilChars
 1013              	.LVL139:
ARM GAS  C:\Users\jo\AppData\Local\Temp\cccDVLAG.s 			page 19


 1014              		.loc 1 443 0
 1015 0032 0028     		cmp	r0, #0
 1016              		.loc 1 444 0
 1017 0034 2046     		mov	r0, r4
 1018              	.LVL140:
 1019              		.loc 1 443 0
 1020 0036 40F3CA80 		ble	.L142
 1021              		.loc 1 448 0
 1022 003a 6949     		ldr	r1, .L146+8
 1023 003c FFF7FEFF 		bl	strcasecmp
 1024              	.LVL141:
 1025 0040 0028     		cmp	r0, #0
 1026 0042 58D0     		beq	.L143
 1027              		.loc 1 452 0
 1028 0044 2046     		mov	r0, r4
 1029 0046 6749     		ldr	r1, .L146+12
 1030 0048 FFF7FEFF 		bl	strcasecmp
 1031              	.LVL142:
 1032 004c 0028     		cmp	r0, #0
 1033 004e 40F0A080 		bne	.L114
 1034              		.loc 1 453 0
 1035 0052 0323     		movs	r3, #3
 1036 0054 6B60     		str	r3, [r5, #4]
 1037              	.L113:
 1038              		.loc 1 467 0
 1039 0056 4FF48073 		mov	r3, #256
 1040 005a 2868     		ldr	r0, [r5]
 1041 005c 5E49     		ldr	r1, .L146
 1042 005e 0093     		str	r3, [sp]
 1043 0060 5E4A     		ldr	r2, .L146+4
 1044 0062 2346     		mov	r3, r4
 1045 0064 FFF7FEFF 		bl	StreamReadUntilChars
 1046              	.LVL143:
 1047              		.loc 1 469 0
 1048 0068 2046     		mov	r0, r4
 1049 006a 3F21     		movs	r1, #63
 1050 006c FFF7FEFF 		bl	strchr
 1051              	.LVL144:
 1052              		.loc 1 470 0
 1053 0070 28B1     		cbz	r0, .L116
 1054              	.LVL145:
 1055              		.loc 1 471 0
 1056 0072 0023     		movs	r3, #0
 1057 0074 00F8013B 		strb	r3, [r0], #1
 1058              	.LVL146:
 1059              		.loc 1 472 0
 1060 0078 FFF7FEFF 		bl	strdup
 1061              	.LVL147:
 1062 007c 2861     		str	r0, [r5, #16]
 1063              	.L116:
 1064              		.loc 1 474 0
 1065 007e 2046     		mov	r0, r4
 1066 0080 FFF7FEFF 		bl	strdup
 1067              	.LVL148:
 1068 0084 FFF7FEFF 		bl	UriUnescape
 1069              	.LVL149:
 1070              		.loc 1 477 0
ARM GAS  C:\Users\jo\AppData\Local\Temp\cccDVLAG.s 			page 20


 1071 0088 2A68     		ldr	r2, [r5]
 1072              		.loc 1 474 0
 1073 008a A860     		str	r0, [r5, #8]
 1074              		.loc 1 477 0
 1075 008c 4FF48073 		mov	r3, #256
 1076 0090 1046     		mov	r0, r2
 1077 0092 0093     		str	r3, [sp]
 1078 0094 5449     		ldr	r1, .L146+16
 1079 0096 554A     		ldr	r2, .L146+20
 1080 0098 2346     		mov	r3, r4
 1081 009a FFF7FEFF 		bl	StreamReadUntilChars
 1082              	.LVL150:
 1083              		.loc 1 479 0
 1084 009e 2046     		mov	r0, r4
 1085 00a0 5349     		ldr	r1, .L146+24
 1086 00a2 0522     		movs	r2, #5
 1087 00a4 FFF7FEFF 		bl	strncasecmp
 1088              	.LVL151:
 1089 00a8 0028     		cmp	r0, #0
 1090 00aa 5DD0     		beq	.L117
 1091              		.loc 1 480 0
 1092 00ac 0923     		movs	r3, #9
 1093 00ae EB60     		str	r3, [r5, #12]
 1094              	.L132:
 1095              	.LBB12:
 1096              		.loc 1 495 0
 1097 00b0 4FF48076 		mov	r6, #256
 1098 00b4 2868     		ldr	r0, [r5]
 1099 00b6 4F49     		ldr	r1, .L146+28
 1100 00b8 484A     		ldr	r2, .L146+4
 1101 00ba 0096     		str	r6, [sp]
 1102 00bc 2346     		mov	r3, r4
 1103 00be FFF7FEFF 		bl	StreamReadUntilChars
 1104              	.LVL152:
 1105 00c2 0028     		cmp	r0, #0
 1106              	.LBE12:
 1107              		.loc 1 556 0
 1108 00c4 2046     		mov	r0, r4
 1109              	.LBB13:
 1110              		.loc 1 495 0
 1111 00c6 42DD     		ble	.L120
 1112              	.LVL153:
 1113              		.loc 1 499 0
 1114 00c8 2378     		ldrb	r3, [r4]	@ zero_extendqisi2
 1115 00ca 002B     		cmp	r3, #0
 1116 00cc 3FD0     		beq	.L120
 1117              	.LVL154:
 1118              		.loc 1 504 0
 1119 00ce 4A49     		ldr	r1, .L146+32
 1120 00d0 FFF7FEFF 		bl	strcasecmp
 1121              	.LVL155:
 1122 00d4 90B9     		cbnz	r0, .L121
 1123              		.loc 1 505 0
 1124 00d6 05F14406 		add	r6, r5, #68
 1125              	.LVL156:
 1126              	.L131:
 1127              		.loc 1 550 0
ARM GAS  C:\Users\jo\AppData\Local\Temp\cccDVLAG.s 			page 21


 1128 00da 4FF48073 		mov	r3, #256
 1129 00de 2868     		ldr	r0, [r5]
 1130 00e0 4149     		ldr	r1, .L146+16
 1131 00e2 3E4A     		ldr	r2, .L146+4
 1132 00e4 0093     		str	r3, [sp]
 1133 00e6 2346     		mov	r3, r4
 1134 00e8 FFF7FEFF 		bl	StreamReadUntilChars
 1135              	.LVL157:
 1136              		.loc 1 551 0
 1137 00ec 2046     		mov	r0, r4
 1138 00ee FFF7FEFF 		bl	strdup
 1139              	.LVL158:
 1140 00f2 3060     		str	r0, [r6]
 1141 00f4 DCE7     		b	.L132
 1142              	.LVL159:
 1143              	.L143:
 1144              	.LBE13:
 1145              		.loc 1 449 0
 1146 00f6 0123     		movs	r3, #1
 1147 00f8 6B60     		str	r3, [r5, #4]
 1148 00fa ACE7     		b	.L113
 1149              	.LVL160:
 1150              	.L121:
 1151              	.LBB14:
 1152              		.loc 1 507 0
 1153 00fc 2046     		mov	r0, r4
 1154 00fe 3F49     		ldr	r1, .L146+36
 1155 0100 FFF7FEFF 		bl	strcasecmp
 1156              	.LVL161:
 1157 0104 10B9     		cbnz	r0, .L123
 1158              		.loc 1 508 0
 1159 0106 05F13406 		add	r6, r5, #52
 1160              	.LVL162:
 1161 010a E6E7     		b	.L131
 1162              	.LVL163:
 1163              	.L123:
 1164              		.loc 1 521 0
 1165 010c 2046     		mov	r0, r4
 1166 010e 3C49     		ldr	r1, .L146+40
 1167 0110 FFF7FEFF 		bl	strcasecmp
 1168              	.LVL164:
 1169 0114 78B1     		cbz	r0, .L144
 1170              		.loc 1 525 0
 1171 0116 2046     		mov	r0, r4
 1172 0118 3A49     		ldr	r1, .L146+44
 1173 011a FFF7FEFF 		bl	strcasecmp
 1174              	.LVL165:
 1175 011e 10B9     		cbnz	r0, .L126
 1176              		.loc 1 526 0
 1177 0120 05F12C06 		add	r6, r5, #44
 1178              	.LVL166:
 1179 0124 D9E7     		b	.L131
 1180              	.LVL167:
 1181              	.L126:
 1182              		.loc 1 528 0
 1183 0126 2046     		mov	r0, r4
 1184 0128 3749     		ldr	r1, .L146+48
ARM GAS  C:\Users\jo\AppData\Local\Temp\cccDVLAG.s 			page 22


 1185 012a FFF7FEFF 		bl	strcasecmp
 1186              	.LVL168:
 1187 012e 98B9     		cbnz	r0, .L127
 1188              		.loc 1 529 0
 1189 0130 05F13006 		add	r6, r5, #48
 1190              	.LVL169:
 1191 0134 D1E7     		b	.L131
 1192              	.LVL170:
 1193              	.L144:
 1194              		.loc 1 522 0
 1195 0136 2868     		ldr	r0, [r5]
 1196 0138 2B49     		ldr	r1, .L146+16
 1197 013a 284A     		ldr	r2, .L146+4
 1198 013c 0096     		str	r6, [sp]
 1199 013e 2346     		mov	r3, r4
 1200 0140 FFF7FEFF 		bl	StreamReadUntilChars
 1201              	.LVL171:
 1202              		.loc 1 523 0
 1203 0144 2046     		mov	r0, r4
 1204 0146 FFF7FEFF 		bl	atol
 1205              	.LVL172:
 1206 014a 6862     		str	r0, [r5, #36]
 1207 014c B0E7     		b	.L132
 1208              	.LVL173:
 1209              	.L120:
 1210              	.LBE14:
 1211              		.loc 1 556 0
 1212 014e FFF7FEFF 		bl	free
 1213              	.LVL174:
 1214              		.loc 1 557 0
 1215 0152 0020     		movs	r0, #0
 1216              	.L140:
 1217              		.loc 1 558 0
 1218 0154 02B0     		add	sp, sp, #8
 1219              		.cfi_remember_state
 1220              		.cfi_def_cfa_offset 16
 1221              		@ sp needed
 1222 0156 70BD     		pop	{r4, r5, r6, pc}
 1223              	.LVL175:
 1224              	.L127:
 1225              		.cfi_restore_state
 1226              	.LBB15:
 1227              		.loc 1 531 0
 1228 0158 2046     		mov	r0, r4
 1229 015a 2C49     		ldr	r1, .L146+52
 1230 015c FFF7FEFF 		bl	strcasecmp
 1231              	.LVL176:
 1232 0160 50B9     		cbnz	r0, .L128
 1233              		.loc 1 532 0
 1234 0162 05F14006 		add	r6, r5, #64
 1235              	.LVL177:
 1236 0166 B8E7     		b	.L131
 1237              	.LVL178:
 1238              	.L117:
 1239              	.LBE15:
 1240              		.loc 1 482 0
 1241 0168 6279     		ldrb	r2, [r4, #5]	@ zero_extendqisi2
ARM GAS  C:\Users\jo\AppData\Local\Temp\cccDVLAG.s 			page 23


 1242              		.loc 1 484 0
 1243 016a A379     		ldrb	r3, [r4, #6]	@ zero_extendqisi2
 1244 016c 03EB0213 		add	r3, r3, r2, lsl #4
 1245 0170 A3F54C73 		sub	r3, r3, #816
 1246 0174 EB60     		str	r3, [r5, #12]
 1247 0176 9BE7     		b	.L132
 1248              	.LVL179:
 1249              	.L128:
 1250              	.LBB16:
 1251              		.loc 1 540 0
 1252 0178 2046     		mov	r0, r4
 1253 017a 2549     		ldr	r1, .L146+56
 1254 017c FFF7FEFF 		bl	strcasecmp
 1255              	.LVL180:
 1256 0180 78B1     		cbz	r0, .L145
 1257              		.loc 1 543 0
 1258 0182 2046     		mov	r0, r4
 1259 0184 2349     		ldr	r1, .L146+60
 1260 0186 FFF7FEFF 		bl	strcasecmp
 1261              	.LVL181:
 1262 018a 68B9     		cbnz	r0, .L130
 1263              		.loc 1 544 0
 1264 018c 05F13806 		add	r6, r5, #56
 1265              	.LVL182:
 1266 0190 A3E7     		b	.L131
 1267              	.LVL183:
 1268              	.L114:
 1269              	.LBE16:
 1270              		.loc 1 455 0
 1271 0192 2046     		mov	r0, r4
 1272 0194 2049     		ldr	r1, .L146+64
 1273 0196 FFF7FEFF 		bl	strcasecmp
 1274              	.LVL184:
 1275 019a 90B9     		cbnz	r0, .L115
 1276              		.loc 1 456 0
 1277 019c 0223     		movs	r3, #2
 1278 019e 6B60     		str	r3, [r5, #4]
 1279 01a0 59E7     		b	.L113
 1280              	.LVL185:
 1281              	.L145:
 1282              	.LBB17:
 1283              		.loc 1 541 0
 1284 01a2 05F13C06 		add	r6, r5, #60
 1285              	.LVL186:
 1286 01a6 98E7     		b	.L131
 1287              	.LVL187:
 1288              	.L130:
 1289              		.loc 1 547 0
 1290 01a8 42F20F73 		movw	r3, #9999
 1291 01ac 0022     		movs	r2, #0
 1292 01ae 2868     		ldr	r0, [r5]
 1293 01b0 0D49     		ldr	r1, .L146+16
 1294 01b2 0093     		str	r3, [sp]
 1295 01b4 1346     		mov	r3, r2
 1296 01b6 FFF7FEFF 		bl	StreamReadUntilChars
 1297              	.LVL188:
 1298 01ba 79E7     		b	.L132
ARM GAS  C:\Users\jo\AppData\Local\Temp\cccDVLAG.s 			page 24


 1299              	.LVL189:
 1300              	.L133:
 1301              	.LBE17:
 1302              		.loc 1 437 0
 1303 01bc 4FF0FF30 		mov	r0, #-1
 1304              	.LVL190:
 1305 01c0 C8E7     		b	.L140
 1306              	.L115:
 1307              		.loc 1 461 0
 1308 01c2 2846     		mov	r0, r5
 1309 01c4 40F2F511 		movw	r1, #501
 1310 01c8 FFF7FEFF 		bl	HttpSendError
 1311              	.LVL191:
 1312              		.loc 1 462 0
 1313 01cc 2046     		mov	r0, r4
 1314              	.LVL192:
 1315              	.L142:
 1316 01ce FFF7FEFF 		bl	free
 1317              	.LVL193:
 1318              		.loc 1 463 0
 1319 01d2 4FF0FF30 		mov	r0, #-1
 1320 01d6 BDE7     		b	.L140
 1321              	.L147:
 1322              		.align	2
 1323              	.L146:
 1324 01d8 4C000000 		.word	.LC12
 1325 01dc 40000000 		.word	.LC9
 1326 01e0 00000000 		.word	.LANCHOR4
 1327 01e4 00000000 		.word	.LANCHOR5
 1328 01e8 3C000000 		.word	.LC8
 1329 01ec 50000000 		.word	.LC13
 1330 01f0 54000000 		.word	.LC14
 1331 01f4 48000000 		.word	.LC11
 1332 01f8 00000000 		.word	.LANCHOR7
 1333 01fc 00000000 		.word	.LANCHOR8
 1334 0200 00000000 		.word	.LANCHOR9
 1335 0204 00000000 		.word	.LANCHOR3
 1336 0208 00000000 		.word	.LANCHOR10
 1337 020c 00000000 		.word	.LANCHOR11
 1338 0210 00000000 		.word	.LANCHOR12
 1339 0214 00000000 		.word	.LANCHOR13
 1340 0218 00000000 		.word	.LANCHOR6
 1341              		.cfi_endproc
 1342              	.LFE268:
 1343              		.size	HttpParseHeader, .-HttpParseHeader
 1344 021c AFF30080 		.section	.text.HttpdClientHandler,"ax",%progbits
 1345              		.align	2
 1346              		.p2align 4,,15
 1347              		.global	HttpdClientHandler
 1348              		.thumb
 1349              		.thumb_func
 1350              		.type	HttpdClientHandler, %function
 1351              	HttpdClientHandler:
 1352              	.LFB270:
 1353              		.loc 1 577 0
 1354              		.cfi_startproc
 1355              		@ args = 0, pretend = 0, frame = 0
ARM GAS  C:\Users\jo\AppData\Local\Temp\cccDVLAG.s 			page 25


 1356              		@ frame_needed = 0, uses_anonymous_args = 0
 1357              	.LVL194:
 1358 0000 2DE9F047 		push	{r4, r5, r6, r7, r8, r9, r10, lr}
 1359              		.cfi_def_cfa_offset 32
 1360              		.cfi_offset 4, -32
 1361              		.cfi_offset 5, -28
 1362              		.cfi_offset 6, -24
 1363              		.cfi_offset 7, -20
 1364              		.cfi_offset 8, -16
 1365              		.cfi_offset 9, -12
 1366              		.cfi_offset 10, -8
 1367              		.cfi_offset 14, -4
 1368              		.loc 1 577 0
 1369 0004 0746     		mov	r7, r0
 1370              		.loc 1 584 0
 1371 0006 5020     		movs	r0, #80
 1372              	.LVL195:
 1373 0008 FFF7FEFF 		bl	malloc
 1374              	.LVL196:
 1375              		.loc 1 585 0
 1376 000c 0446     		mov	r4, r0
 1377 000e 0028     		cmp	r0, #0
 1378 0010 74D0     		beq	.L148
 1379              		.loc 1 593 0
 1380 0012 DFF8F080 		ldr	r8, .L173+4
 1381              		.loc 1 596 0
 1382 0016 DFF8F090 		ldr	r9, .L173+8
 1383              		.loc 1 598 0
 1384 001a DFF8F0A0 		ldr	r10, .L173+12
 1385 001e 0026     		movs	r6, #0
 1386 0020 08E0     		b	.L156
 1387              	.LVL197:
 1388              	.L159:
 1389              		.loc 1 594 0
 1390 0022 40F29116 		movw	r6, #401
 1391              	.LVL198:
 1392              	.L158:
 1393              		.loc 1 612 0
 1394 0026 2046     		mov	r0, r4
 1395 0028 3146     		mov	r1, r6
 1396 002a FFF7FEFF 		bl	HttpSendError
 1397              	.LVL199:
 1398              		.loc 1 614 0
 1399 002e 236A     		ldr	r3, [r4, #32]
 1400 0030 022B     		cmp	r3, #2
 1401 0032 2ED1     		bne	.L157
 1402              	.LVL200:
 1403              	.L156:
 1404              		.loc 1 587 0
 1405 0034 2760     		str	r7, [r4]
 1406              	.LVL201:
 1407              		.loc 1 590 0
 1408 0036 2046     		mov	r0, r4
 1409 0038 FFF7FEFF 		bl	HttpParseHeader
 1410              	.LVL202:
 1411 003c 48BB     		cbnz	r0, .L157
 1412              		.loc 1 593 0
ARM GAS  C:\Users\jo\AppData\Local\Temp\cccDVLAG.s 			page 26


 1413 003e D8F80030 		ldr	r3, [r8]
 1414 0042 2046     		mov	r0, r4
 1415 0044 9847     		blx	r3
 1416              	.LVL203:
 1417 0046 0546     		mov	r5, r0
 1418 0048 0028     		cmp	r0, #0
 1419 004a EAD1     		bne	.L159
 1420              		.loc 1 596 0
 1421 004c D9F80030 		ldr	r3, [r9]
 1422 0050 2046     		mov	r0, r4
 1423 0052 9847     		blx	r3
 1424              	.LVL204:
 1425 0054 C0B1     		cbz	r0, .L152
 1426              		.loc 1 598 0
 1427 0056 DAF80000 		ldr	r0, [r10]
 1428 005a 294B     		ldr	r3, .L173
 1429 005c A168     		ldr	r1, [r4, #8]
 1430 005e 2A46     		mov	r2, r5
 1431 0060 0028     		cmp	r0, #0
 1432 0062 08BF     		it	eq
 1433 0064 1846     		moveq	r0, r3
 1434 0066 FFF7FEFF 		bl	AllocConcatStrings
 1435              	.LVL205:
 1436              		.loc 1 599 0
 1437 006a 0546     		mov	r5, r0
 1438 006c 0028     		cmp	r0, #0
 1439 006e 3FD0     		beq	.L161
 1440              		.loc 1 600 0
 1441 0070 FFF7FEFF 		bl	GetMediaTypeEntry
 1442              	.LVL206:
 1443              		.loc 1 601 0
 1444 0074 0028     		cmp	r0, #0
 1445 0076 3ED0     		beq	.L162
 1446              		.loc 1 604 0
 1447 0078 4369     		ldr	r3, [r0, #20]
 1448 007a 0146     		mov	r1, r0
 1449 007c 2A46     		mov	r2, r5
 1450 007e 2046     		mov	r0, r4
 1451              	.LVL207:
 1452 0080 9847     		blx	r3
 1453              	.LVL208:
 1454              	.L154:
 1455              		.loc 1 606 0
 1456 0082 2846     		mov	r0, r5
 1457 0084 FFF7FEFF 		bl	free
 1458              	.LVL209:
 1459              	.L152:
 1460              		.loc 1 611 0
 1461 0088 002E     		cmp	r6, #0
 1462 008a CCD1     		bne	.L158
 1463              		.loc 1 614 0
 1464 008c 236A     		ldr	r3, [r4, #32]
 1465 008e 022B     		cmp	r3, #2
 1466 0090 D0D0     		beq	.L156
 1467              	.L157:
 1468              		.loc 1 616 0
 1469 0092 A068     		ldr	r0, [r4, #8]
ARM GAS  C:\Users\jo\AppData\Local\Temp\cccDVLAG.s 			page 27


 1470 0094 FFF7FEFF 		bl	free
 1471              	.LVL210:
 1472              		.loc 1 617 0
 1473 0098 2069     		ldr	r0, [r4, #16]
 1474 009a FFF7FEFF 		bl	free
 1475              	.LVL211:
 1476              		.loc 1 618 0
 1477 009e 6069     		ldr	r0, [r4, #20]
 1478 00a0 FFF7FEFF 		bl	free
 1479              	.LVL212:
 1480              		.loc 1 619 0
 1481 00a4 A069     		ldr	r0, [r4, #24]
 1482 00a6 FFF7FEFF 		bl	free
 1483              	.LVL213:
 1484              		.loc 1 621 0
 1485 00aa A06A     		ldr	r0, [r4, #40]
 1486 00ac FFF7FEFF 		bl	free
 1487              	.LVL214:
 1488              		.loc 1 622 0
 1489 00b0 E06A     		ldr	r0, [r4, #44]
 1490 00b2 FFF7FEFF 		bl	free
 1491              	.LVL215:
 1492              		.loc 1 623 0
 1493 00b6 206B     		ldr	r0, [r4, #48]
 1494 00b8 FFF7FEFF 		bl	free
 1495              	.LVL216:
 1496              		.loc 1 624 0
 1497 00bc 606B     		ldr	r0, [r4, #52]
 1498 00be FFF7FEFF 		bl	free
 1499              	.LVL217:
 1500              		.loc 1 625 0
 1501 00c2 A06B     		ldr	r0, [r4, #56]
 1502 00c4 FFF7FEFF 		bl	free
 1503              	.LVL218:
 1504              		.loc 1 626 0
 1505 00c8 E06B     		ldr	r0, [r4, #60]
 1506 00ca FFF7FEFF 		bl	free
 1507              	.LVL219:
 1508              		.loc 1 627 0
 1509 00ce 206C     		ldr	r0, [r4, #64]
 1510 00d0 FFF7FEFF 		bl	free
 1511              	.LVL220:
 1512              		.loc 1 628 0
 1513 00d4 606C     		ldr	r0, [r4, #68]
 1514 00d6 FFF7FEFF 		bl	free
 1515              	.LVL221:
 1516              		.loc 1 629 0
 1517 00da A06C     		ldr	r0, [r4, #72]
 1518 00dc FFF7FEFF 		bl	free
 1519              	.LVL222:
 1520              		.loc 1 630 0
 1521 00e0 E06C     		ldr	r0, [r4, #76]
 1522 00e2 FFF7FEFF 		bl	free
 1523              	.LVL223:
 1524              		.loc 1 632 0
 1525 00e6 2046     		mov	r0, r4
 1526              		.loc 1 634 0
ARM GAS  C:\Users\jo\AppData\Local\Temp\cccDVLAG.s 			page 28


 1527 00e8 BDE8F047 		pop	{r4, r5, r6, r7, r8, r9, r10, lr}
 1528              		.cfi_remember_state
 1529              		.cfi_restore 14
 1530              		.cfi_restore 10
 1531              		.cfi_restore 9
 1532              		.cfi_restore 8
 1533              		.cfi_restore 7
 1534              		.cfi_restore 6
 1535              		.cfi_restore 5
 1536              		.cfi_restore 4
 1537              		.cfi_def_cfa_offset 0
 1538              	.LVL224:
 1539              		.loc 1 632 0
 1540 00ec FFF7FEBF 		b	free
 1541              	.LVL225:
 1542              	.L161:
 1543              		.cfi_restore_state
 1544              		.loc 1 608 0
 1545 00f0 4FF4CA76 		mov	r6, #404
 1546              	.LVL226:
 1547 00f4 97E7     		b	.L158
 1548              	.LVL227:
 1549              	.L162:
 1550              		.loc 1 602 0
 1551 00f6 4FF4CA76 		mov	r6, #404
 1552              	.LVL228:
 1553 00fa C2E7     		b	.L154
 1554              	.LVL229:
 1555              	.L148:
 1556 00fc BDE8F087 		pop	{r4, r5, r6, r7, r8, r9, r10, pc}
 1557              	.LVL230:
 1558              	.L174:
 1559              		.align	2
 1560              	.L173:
 1561 0100 5C000000 		.word	.LC15
 1562 0104 00000000 		.word	.LANCHOR14
 1563 0108 00000000 		.word	.LANCHOR15
 1564 010c 00000000 		.word	.LANCHOR16
 1565              		.cfi_endproc
 1566              	.LFE270:
 1567              		.size	HttpdClientHandler, .-HttpdClientHandler
 1568              		.section	.text.HttpRegisterRootPath,"ax",%progbits
 1569              		.align	2
 1570              		.p2align 4,,15
 1571              		.global	HttpRegisterRootPath
 1572              		.thumb
 1573              		.thumb_func
 1574              		.type	HttpRegisterRootPath, %function
 1575              	HttpRegisterRootPath:
 1576              	.LFB269:
 1577              		.loc 1 561 0
 1578              		.cfi_startproc
 1579              		@ args = 0, pretend = 0, frame = 0
 1580              		@ frame_needed = 0, uses_anonymous_args = 0
 1581              	.LVL231:
 1582 0000 38B5     		push	{r3, r4, r5, lr}
 1583              		.cfi_def_cfa_offset 16
ARM GAS  C:\Users\jo\AppData\Local\Temp\cccDVLAG.s 			page 29


 1584              		.cfi_offset 3, -16
 1585              		.cfi_offset 4, -12
 1586              		.cfi_offset 5, -8
 1587              		.cfi_offset 14, -4
 1588              		.loc 1 562 0
 1589 0002 0A4D     		ldr	r5, .L183
 1590 0004 2B68     		ldr	r3, [r5]
 1591              		.loc 1 561 0
 1592 0006 0446     		mov	r4, r0
 1593              		.loc 1 562 0
 1594 0008 13B1     		cbz	r3, .L176
 1595              		.loc 1 563 0
 1596 000a 1846     		mov	r0, r3
 1597              	.LVL232:
 1598 000c FFF7FEFF 		bl	free
 1599              	.LVL233:
 1600              	.L176:
 1601              		.loc 1 565 0
 1602 0010 44B1     		cbz	r4, .L177
 1603              		.loc 1 566 0
 1604 0012 2046     		mov	r0, r4
 1605 0014 FFF7FEFF 		bl	strdup
 1606              	.LVL234:
 1607              		.loc 1 567 0
 1608 0018 B0FA80F4 		clz	r4, r0
 1609              	.LVL235:
 1610 001c 6409     		lsrs	r4, r4, #5
 1611              		.loc 1 566 0
 1612 001e 2860     		str	r0, [r5]
 1613              		.loc 1 567 0
 1614 0020 6042     		negs	r0, r4
 1615 0022 38BD     		pop	{r3, r4, r5, pc}
 1616              	.LVL236:
 1617              	.L177:
 1618              		.loc 1 571 0
 1619 0024 2C60     		str	r4, [r5]
 1620              		.loc 1 573 0
 1621 0026 2046     		mov	r0, r4
 1622              		.loc 1 574 0
 1623 0028 38BD     		pop	{r3, r4, r5, pc}
 1624              	.LVL237:
 1625              	.L184:
 1626 002a 00BF     		.align	2
 1627              	.L183:
 1628 002c 00000000 		.word	.LANCHOR16
 1629              		.cfi_endproc
 1630              	.LFE269:
 1631              		.size	HttpRegisterRootPath, .-HttpRegisterRootPath
 1632              		.section	.text.HttpTask,"ax",%progbits
 1633              		.align	2
 1634              		.p2align 4,,15
 1635              		.global	HttpTask
 1636              		.thumb
 1637              		.thumb_func
 1638              		.type	HttpTask, %function
 1639              	HttpTask:
 1640              	.LFB271:
ARM GAS  C:\Users\jo\AppData\Local\Temp\cccDVLAG.s 			page 30


 1641              		.loc 1 649 0
 1642              		.cfi_startproc
 1643              		@ Volatile: function does not return.
 1644              		@ args = 0, pretend = 0, frame = 0
 1645              		@ frame_needed = 0, uses_anonymous_args = 0
 1646              	.LVL238:
 1647 0000 08B5     		push	{r3, lr}
 1648              		.cfi_def_cfa_offset 8
 1649              		.cfi_offset 3, -8
 1650              		.cfi_offset 14, -4
 1651              		.loc 1 652 0
 1652 0002 0D4B     		ldr	r3, .L188
 1653 0004 0D4A     		ldr	r2, .L188+4
 1654 0006 9B69     		ldr	r3, [r3, #24]
 1655 0008 9A61     		str	r2, [r3, #24]
 1656              		.loc 1 657 0
 1657 000a FFF7FEFF 		bl	StreamInit
 1658              	.LVL239:
 1659              		.loc 1 663 0
 1660 000e FFF7FEFF 		bl	MediaTypeInitDefaults
 1661              	.LVL240:
 1662              		.loc 1 664 0
 1663 0012 0B49     		ldr	r1, .L188+8
 1664 0014 0B48     		ldr	r0, .L188+12
 1665 0016 40F22D12 		movw	r2, #301
 1666 001a FFF7FEFF 		bl	HttpRegisterRedir
 1667              	.LVL241:
 1668              		.loc 1 668 0
 1669 001e 0A49     		ldr	r1, .L188+16
 1670 0020 0A48     		ldr	r0, .L188+20
 1671 0022 FFF7FEFF 		bl	HttpRegisterCgiFunction
 1672              	.LVL242:
 1673              		.loc 1 675 0
 1674 0026 0A48     		ldr	r0, .L188+24
 1675 0028 0021     		movs	r1, #0
 1676 002a FFF7FEFF 		bl	StreamClientAccept
 1677              	.LVL243:
 1678              	.L186:
 1679              		.loc 1 681 0 discriminator 1
 1680 002e 41F28830 		movw	r0, #5000
 1681 0032 FFF7FEFF 		bl	chThdSleep
 1682              	.LVL244:
 1683              		.loc 1 682 0 discriminator 1
 1684 0036 FAE7     		b	.L186
 1685              	.L189:
 1686              		.align	2
 1687              	.L188:
 1688 0038 00000000 		.word	ch
 1689 003c 64000000 		.word	.LC16
 1690 0040 74000000 		.word	.LC18
 1691 0044 70000000 		.word	.LC17
 1692 0048 00000000 		.word	CgiPostForm
 1693 004c 80000000 		.word	.LC19
 1694 0050 00000000 		.word	HttpdClientHandler
 1695              		.cfi_endproc
 1696              	.LFE271:
 1697              		.size	HttpTask, .-HttpTask
ARM GAS  C:\Users\jo\AppData\Local\Temp\cccDVLAG.s 			page 31


 1698              		.global	task_http_stack
 1699              		.global	httpd_loc_redirector
 1700              		.global	httpd_auth_validator
 1701              		.global	http_root_path
 1702              		.global	ct_Location
 1703              		.global	ct_Content_Encoding
 1704              		.global	ct_Date
 1705              		.global	ct_Expires
 1706              		.global	ct_Last_Modified
 1707              		.global	ct_User_Agent
 1708              		.global	ct_Referer
 1709              		.global	ct_If_Modified_Since
 1710              		.global	ct_Host
 1711              		.global	ct_Cookie
 1712              		.global	ct_Content_Length
 1713              		.global	ct_Keep_Alive
 1714              		.global	ct_close
 1715              		.global	ct_Connection
 1716              		.global	ct_Authorization
 1717              		.global	ct_Accept_Encoding
 1718              		.global	ct_Content_Type
 1719              		.global	ct_Content_Disposition
 1720              		.global	ct_POST
 1721              		.global	ct_HEAD
 1722              		.global	ct_GET
 1723 0054 AFF30080 		.section	.rodata.ct_Expires,"a",%progbits
 1723      AFF30080 
 1723      AFF30080 
 1724              		.align	2
 1725              		.type	ct_Expires, %object
 1726              		.size	ct_Expires, 8
 1727              	ct_Expires:
 1728 0000 45787069 		.ascii	"Expires\000"
 1728      72657300 
 1729              		.section	.rodata.ct_Connection,"a",%progbits
 1730              		.align	2
 1731              		.type	ct_Connection, %object
 1732              		.size	ct_Connection, 11
 1733              	ct_Connection:
 1734 0000 436F6E6E 		.ascii	"Connection\000"
 1734      65637469 
 1734      6F6E00
 1735 000b 00       		.section	.rodata.ct_Cookie,"a",%progbits
 1736              		.align	2
 1737              		.set	.LANCHOR10,. + 0
 1738              		.type	ct_Cookie, %object
 1739              		.size	ct_Cookie, 7
 1740              	ct_Cookie:
 1741 0000 436F6F6B 		.ascii	"Cookie\000"
 1741      696500
 1742 0007 00       		.section	.rodata.ct_GET,"a",%progbits
 1743              		.align	2
 1744              		.set	.LANCHOR4,. + 0
 1745              		.type	ct_GET, %object
 1746              		.size	ct_GET, 4
 1747              	ct_GET:
 1748 0000 47455400 		.ascii	"GET\000"
ARM GAS  C:\Users\jo\AppData\Local\Temp\cccDVLAG.s 			page 32


 1749              		.section	.bss.task_http_stack,"aw",%nobits
 1750              		.align	3
 1751              		.type	task_http_stack, %object
 1752              		.size	task_http_stack, 4840
 1753              	task_http_stack:
 1754 0000 00000000 		.space	4840
 1754      00000000 
 1754      00000000 
 1754      00000000 
 1754      00000000 
 1755              		.section	.rodata.ct_Authorization,"a",%progbits
 1756              		.align	2
 1757              		.set	.LANCHOR8,. + 0
 1758              		.type	ct_Authorization, %object
 1759              		.size	ct_Authorization, 14
 1760              	ct_Authorization:
 1761 0000 41757468 		.ascii	"Authorization\000"
 1761      6F72697A 
 1761      6174696F 
 1761      6E00
 1762 000e 0000     		.section	.rodata.ct_Content_Disposition,"a",%progbits
 1763              		.align	2
 1764              		.set	.LANCHOR2,. + 0
 1765              		.type	ct_Content_Disposition, %object
 1766              		.size	ct_Content_Disposition, 20
 1767              	ct_Content_Disposition:
 1768 0000 436F6E74 		.ascii	"Content-Disposition\000"
 1768      656E742D 
 1768      44697370 
 1768      6F736974 
 1768      696F6E00 
 1769              		.section	.rodata.ct_Content_Type,"a",%progbits
 1770              		.align	2
 1771              		.set	.LANCHOR3,. + 0
 1772              		.type	ct_Content_Type, %object
 1773              		.size	ct_Content_Type, 13
 1774              	ct_Content_Type:
 1775 0000 436F6E74 		.ascii	"Content-Type\000"
 1775      656E742D 
 1775      54797065 
 1775      00
 1776 000d 000000   		.section	.data.httpd_loc_redirector,"aw",%progbits
 1777              		.align	2
 1778              		.set	.LANCHOR15,. + 0
 1779              		.type	httpd_loc_redirector, %object
 1780              		.size	httpd_loc_redirector, 4
 1781              	httpd_loc_redirector:
 1782 0000 00000000 		.word	HttpLocationRedirNone
 1783              		.section	.rodata.body.9208,"a",%progbits
 1784              		.align	2
 1785              		.set	.LANCHOR1,. + 0
 1786              		.type	body.9208, %object
 1787              		.size	body.9208, 69
 1788              	body.9208:
 1789 0000 3C626F64 		.ascii	"<body><p>Hello %s %s!</p><a href=\"/index.html\">ba"
 1789      793E3C70 
 1789      3E48656C 
ARM GAS  C:\Users\jo\AppData\Local\Temp\cccDVLAG.s 			page 33


 1789      6C6F2025 
 1789      73202573 
 1790 0031 636B3C2F 		.ascii	"ck</a></body><html>\000"
 1790      613E3C2F 
 1790      626F6479 
 1790      3E3C6874 
 1790      6D6C3E00 
 1791 0045 000000   		.section	.rodata.ct_Location,"a",%progbits
 1792              		.align	2
 1793              		.type	ct_Location, %object
 1794              		.size	ct_Location, 9
 1795              	ct_Location:
 1796 0000 4C6F6361 		.ascii	"Location\000"
 1796      74696F6E 
 1796      00
 1797 0009 000000   		.section	.rodata.ct_close,"a",%progbits
 1798              		.align	2
 1799              		.type	ct_close, %object
 1800              		.size	ct_close, 6
 1801              	ct_close:
 1802 0000 636C6F73 		.ascii	"close\000"
 1802      6500
 1803 0006 0000     		.section	.rodata.ct_Date,"a",%progbits
 1804              		.align	2
 1805              		.type	ct_Date, %object
 1806              		.size	ct_Date, 5
 1807              	ct_Date:
 1808 0000 44617465 		.ascii	"Date\000"
 1808      00
 1809 0005 000000   		.section	.rodata.ct_HEAD,"a",%progbits
 1810              		.align	2
 1811              		.set	.LANCHOR5,. + 0
 1812              		.type	ct_HEAD, %object
 1813              		.size	ct_HEAD, 5
 1814              	ct_HEAD:
 1815 0000 48454144 		.ascii	"HEAD\000"
 1815      00
 1816 0005 000000   		.section	.rodata.str1.4,"aMS",%progbits,1
 1817              		.align	2
 1818              	.LC0:
 1819 0000 2600     		.ascii	"&\000"
 1820 0002 0000     		.space	2
 1821              	.LC1:
 1822 0004 75736572 		.ascii	"username\000"
 1822      6E616D65 
 1822      00
 1823 000d 000000   		.space	3
 1824              	.LC2:
 1825 0010 70617373 		.ascii	"password\000"
 1825      776F7264 
 1825      00
 1826 0019 000000   		.space	3
 1827              	.LC3:
 1828 001c 4B657669 		.ascii	"Kevin\000"
 1828      6E00
 1829 0022 0000     		.space	2
 1830              	.LC4:
ARM GAS  C:\Users\jo\AppData\Local\Temp\cccDVLAG.s 			page 34


 1831 0024 74657874 		.ascii	"text\000"
 1831      00
 1832 0029 000000   		.space	3
 1833              	.LC5:
 1834 002c 68746D6C 		.ascii	"html\000"
 1834      00
 1835 0031 000000   		.space	3
 1836              	.LC6:
 1837 0034 3D223B00 		.ascii	"=\";\000"
 1838              	.LC7:
 1839 0038 223B00   		.ascii	"\";\000"
 1840 003b 00       		.space	1
 1841              	.LC8:
 1842 003c 0A00     		.ascii	"\012\000"
 1843 003e 0000     		.space	2
 1844              	.LC9:
 1845 0040 0D00     		.ascii	"\015\000"
 1846 0042 0000     		.space	2
 1847              	.LC10:
 1848 0044 2D2D00   		.ascii	"--\000"
 1849 0047 00       		.space	1
 1850              	.LC11:
 1851 0048 3A0A00   		.ascii	":\012\000"
 1852 004b 00       		.space	1
 1853              	.LC12:
 1854 004c 200A00   		.ascii	" \012\000"
 1855 004f 00       		.space	1
 1856              	.LC13:
 1857 0050 200D00   		.ascii	" \015\000"
 1858 0053 00       		.space	1
 1859              	.LC14:
 1860 0054 48545450 		.ascii	"HTTP/\000"
 1860      2F00
 1861 005a 0000     		.space	2
 1862              	.LC15:
 1863 005c 55524F4D 		.ascii	"UROM:\000"
 1863      3A00
 1864 0062 0000     		.space	2
 1865              	.LC16:
 1866 0064 48747470 		.ascii	"HttpTask\000"
 1866      5461736B 
 1866      00
 1867 006d 000000   		.space	3
 1868              	.LC17:
 1869 0070 00       		.ascii	"\000"
 1870 0071 000000   		.space	3
 1871              	.LC18:
 1872 0074 2F696E64 		.ascii	"/index.html\000"
 1872      65782E68 
 1872      746D6C00 
 1873              	.LC19:
 1874 0080 706F7374 		.ascii	"postform.cgi\000"
 1874      666F726D 
 1874      2E636769 
 1874      00
 1875 008d 000000   		.section	.rodata.ct_POST,"a",%progbits
 1876              		.align	2
ARM GAS  C:\Users\jo\AppData\Local\Temp\cccDVLAG.s 			page 35


 1877              		.set	.LANCHOR6,. + 0
 1878              		.type	ct_POST, %object
 1879              		.size	ct_POST, 5
 1880              	ct_POST:
 1881 0000 504F5354 		.ascii	"POST\000"
 1881      00
 1882 0005 000000   		.section	.rodata.ct_User_Agent,"a",%progbits
 1883              		.align	2
 1884              		.set	.LANCHOR13,. + 0
 1885              		.type	ct_User_Agent, %object
 1886              		.size	ct_User_Agent, 11
 1887              	ct_User_Agent:
 1888 0000 55736572 		.ascii	"User-Agent\000"
 1888      2D416765 
 1888      6E7400
 1889 000b 00       		.section	.rodata.ct_Accept_Encoding,"a",%progbits
 1890              		.align	2
 1891              		.set	.LANCHOR7,. + 0
 1892              		.type	ct_Accept_Encoding, %object
 1893              		.size	ct_Accept_Encoding, 16
 1894              	ct_Accept_Encoding:
 1895 0000 41636365 		.ascii	"Accept-Encoding\000"
 1895      70742D45 
 1895      6E636F64 
 1895      696E6700 
 1896              		.section	.rodata.ct_If_Modified_Since,"a",%progbits
 1897              		.align	2
 1898              		.type	ct_If_Modified_Since, %object
 1899              		.size	ct_If_Modified_Since, 18
 1900              	ct_If_Modified_Since:
 1901 0000 49662D4D 		.ascii	"If-Modified-Since\000"
 1901      6F646966 
 1901      6965642D 
 1901      53696E63 
 1901      6500
 1902 0012 0000     		.section	.bss.http_root_path,"aw",%nobits
 1903              		.align	2
 1904              		.set	.LANCHOR16,. + 0
 1905              		.type	http_root_path, %object
 1906              		.size	http_root_path, 4
 1907              	http_root_path:
 1908 0000 00000000 		.space	4
 1909              		.section	.data.httpd_auth_validator,"aw",%progbits
 1910              		.align	2
 1911              		.set	.LANCHOR14,. + 0
 1912              		.type	httpd_auth_validator, %object
 1913              		.size	httpd_auth_validator, 4
 1914              	httpd_auth_validator:
 1915 0000 00000000 		.word	HttpAuthValidateAll
 1916              		.section	.rodata.ct_Keep_Alive,"a",%progbits
 1917              		.align	2
 1918              		.type	ct_Keep_Alive, %object
 1919              		.size	ct_Keep_Alive, 11
 1920              	ct_Keep_Alive:
 1921 0000 6B656570 		.ascii	"keep-alive\000"
 1921      2D616C69 
 1921      766500
ARM GAS  C:\Users\jo\AppData\Local\Temp\cccDVLAG.s 			page 36


 1922 000b 00       		.section	.rodata.head.9207,"a",%progbits
 1923              		.align	2
 1924              		.set	.LANCHOR0,. + 0
 1925              		.type	head.9207, %object
 1926              		.size	head.9207, 46
 1927              	head.9207:
 1928 0000 3C68746D 		.ascii	"<html><head><title>Form Result</title></head>\000"
 1928      6C3E3C68 
 1928      6561643E 
 1928      3C746974 
 1928      6C653E46 
 1929 002e 0000     		.section	.rodata.ct_Content_Length,"a",%progbits
 1930              		.align	2
 1931              		.set	.LANCHOR9,. + 0
 1932              		.type	ct_Content_Length, %object
 1933              		.size	ct_Content_Length, 15
 1934              	ct_Content_Length:
 1935 0000 436F6E74 		.ascii	"Content-Length\000"
 1935      656E742D 
 1935      4C656E67 
 1935      746800
 1936 000f 00       		.section	.rodata.ct_Last_Modified,"a",%progbits
 1937              		.align	2
 1938              		.type	ct_Last_Modified, %object
 1939              		.size	ct_Last_Modified, 14
 1940              	ct_Last_Modified:
 1941 0000 4C617374 		.ascii	"Last-Modified\000"
 1941      2D4D6F64 
 1941      69666965 
 1941      6400
 1942 000e 0000     		.section	.rodata.ct_Host,"a",%progbits
 1943              		.align	2
 1944              		.set	.LANCHOR11,. + 0
 1945              		.type	ct_Host, %object
 1946              		.size	ct_Host, 5
 1947              	ct_Host:
 1948 0000 486F7374 		.ascii	"Host\000"
 1948      00
 1949 0005 000000   		.section	.rodata.ct_Content_Encoding,"a",%progbits
 1950              		.align	2
 1951              		.type	ct_Content_Encoding, %object
 1952              		.size	ct_Content_Encoding, 17
 1953              	ct_Content_Encoding:
 1954 0000 436F6E74 		.ascii	"Content-Encoding\000"
 1954      656E742D 
 1954      456E636F 
 1954      64696E67 
 1954      00
 1955 0011 000000   		.section	.rodata.ct_Referer,"a",%progbits
 1956              		.align	2
 1957              		.set	.LANCHOR12,. + 0
 1958              		.type	ct_Referer, %object
 1959              		.size	ct_Referer, 8
 1960              	ct_Referer:
 1961 0000 52656665 		.ascii	"Referer\000"
 1961      72657200 
 1962              		.text
ARM GAS  C:\Users\jo\AppData\Local\Temp\cccDVLAG.s 			page 37


 1963              	.Letext0:
 1964              		.file 2 "c:\\program files\\gnu tools arm embedded\\4.9 2014q4\\lib\\gcc\\arm-none-eabi\\4.9.3\\in
 1965              		.file 3 "c:\\program files\\gnu tools arm embedded\\4.9 2014q4\\arm-none-eabi\\include\\machine\\_
 1966              		.file 4 "c:\\program files\\gnu tools arm embedded\\4.9 2014q4\\arm-none-eabi\\include\\stdint.h"
 1967              		.file 5 "../../../os/rt/ports/ARMCMx/compilers/GCC/chtypes.h"
 1968              		.file 6 "../../../os/rt/include/chsystypes.h"
 1969              		.file 7 "../../../os/rt/include/chschd.h"
 1970              		.file 8 "../../../os/rt/ports/ARMCMx/chcore.h"
 1971              		.file 9 "../../../os/rt/ports/ARMCMx/chcore_v7m.h"
 1972              		.file 10 "../../../os/rt/include/chdebug.h"
 1973              		.file 11 "../../../os/rt/include/chtm.h"
 1974              		.file 12 "../../../os/rt/include/chstats.h"
 1975              		.file 13 "../../../os/rt/include/chmtx.h"
 1976              		.file 14 "./ITM_trace.h"
 1977              		.file 15 "../../../os/various/lwip_bindings/arch/cc.h"
 1978              		.file 16 "../../../os/ext/lwip-1.4.1/src/include/ipv4/lwip/inet.h"
 1979              		.file 17 "../../../os/ext/lwip-1.4.1/src/include/lwip\\sockets.h"
 1980              		.file 18 "./uhttp-1.1/pro/lwip/streamio.h"
 1981              		.file 19 "./os/streamio.h"
 1982              		.file 20 "./uhttp-1.1/uhttpd.h"
 1983              		.file 21 "./uhttp-1.1/mediatypes.h"
 1984              		.file 22 "./uhttp-1.1/pro/modules/mod_cgi_func.h"
 1985              		.file 23 "../../../os/ext/CMSIS/include/core_cm4.h"
 1986              		.file 24 "c:\\program files\\gnu tools arm embedded\\4.9 2014q4\\arm-none-eabi\\include\\string.h"
 1987              		.file 25 "c:\\program files\\gnu tools arm embedded\\4.9 2014q4\\arm-none-eabi\\include\\stdlib.h"
 1988              		.file 26 "./uhttp-1.1/utils.h"
 1989              		.file 27 "../../../os/rt/include/chthreads.h"