ARM GAS  C:\Users\jo\AppData\Local\Temp\ccC33as4.s 			page 1


   1              		.syntax unified
   2              		.cpu cortex-m4
   3              		.fpu softvfp
   4              		.eabi_attribute 20, 1
   5              		.eabi_attribute 21, 1
   6              		.eabi_attribute 23, 3
   7              		.eabi_attribute 24, 1
   8              		.eabi_attribute 25, 1
   9              		.eabi_attribute 26, 1
  10              		.eabi_attribute 30, 2
  11              		.eabi_attribute 34, 1
  12              		.eabi_attribute 18, 4
  13              		.thumb
  14              		.file	"utils.c"
  15              		.text
  16              	.Ltext0:
  17              		.cfi_sections	.debug_frame
  18              		.section	.text.DecodeHex,"ax",%progbits
  19              		.align	2
  20              		.p2align 4,,15
  21              		.thumb
  22              		.thumb_func
  23              		.type	DecodeHex, %function
  24              	DecodeHex:
  25              	.LFB1:
  26              		.file 1 "../../../demos/STM32/RT-STM32F407-DISCOVERY-uHttp/uhttp-1.1/utils.c"
  27              		.loc 1 66 0
  28              		.cfi_startproc
  29              		@ args = 0, pretend = 0, frame = 0
  30              		@ frame_needed = 0, uses_anonymous_args = 0
  31              		@ link register save eliminated.
  32              	.LVL0:
  33              		.loc 1 67 0
  34 0000 A0F13003 		sub	r3, r0, #48
  35 0004 DAB2     		uxtb	r2, r3
  36 0006 092A     		cmp	r2, #9
  37 0008 0DD9     		bls	.L7
  38              		.loc 1 69 0
  39 000a A0F16103 		sub	r3, r0, #97
  40 000e 052B     		cmp	r3, #5
  41 0010 07D9     		bls	.L8
  42              	.LVL1:
  43              	.LBB4:
  44              	.LBB5:
  45              		.loc 1 71 0
  46 0012 A0F14103 		sub	r3, r0, #65
  47 0016 052B     		cmp	r3, #5
  48              		.loc 1 72 0
  49 0018 94BF     		ite	ls
  50 001a 3738     		subls	r0, r0, #55
  51              	.LVL2:
  52              		.loc 1 73 0
  53 001c 4FF0FF30 		movhi	r0, #-1
  54              	.LBE5:
  55              	.LBE4:
  56              		.loc 1 74 0
  57 0020 7047     		bx	lr
ARM GAS  C:\Users\jo\AppData\Local\Temp\ccC33as4.s 			page 2


  58              	.LVL3:
  59              	.L8:
  60              		.loc 1 70 0
  61 0022 5738     		subs	r0, r0, #87
  62              	.LVL4:
  63 0024 7047     		bx	lr
  64              	.LVL5:
  65              	.L7:
  66              		.loc 1 68 0
  67 0026 1846     		mov	r0, r3
  68              	.LVL6:
  69 0028 7047     		bx	lr
  70              		.cfi_endproc
  71              	.LFE1:
  72              		.size	DecodeHex, .-DecodeHex
  73 002a 00BFAFF3 		.section	.text.HttpUrlUnescape,"ax",%progbits
  73      0080
  74              		.align	2
  75              		.p2align 4,,15
  76              		.global	HttpUrlUnescape
  77              		.thumb
  78              		.thumb_func
  79              		.type	HttpUrlUnescape, %function
  80              	HttpUrlUnescape:
  81              	.LFB0:
  82              		.loc 1 47 0
  83              		.cfi_startproc
  84              		@ args = 0, pretend = 0, frame = 8
  85              		@ frame_needed = 0, uses_anonymous_args = 0
  86              	.LVL7:
  87 0000 30B5     		push	{r4, r5, lr}
  88              		.cfi_def_cfa_offset 12
  89              		.cfi_offset 4, -12
  90              		.cfi_offset 5, -8
  91              		.cfi_offset 14, -4
  92 0002 83B0     		sub	sp, sp, #12
  93              		.cfi_def_cfa_offset 24
  94              		.loc 1 50 0
  95 0004 0378     		ldrb	r3, [r0]	@ zero_extendqisi2
  96              		.loc 1 49 0
  97 0006 0022     		movs	r2, #0
  98 0008 8DF80420 		strb	r2, [sp, #4]
  99 000c 8DF80520 		strb	r2, [sp, #5]
 100 0010 8DF80620 		strb	r2, [sp, #6]
 101              	.LVL8:
 102              		.loc 1 50 0
 103 0014 63B3     		cbz	r3, .L15
 104 0016 441C     		adds	r4, r0, #1
 105 0018 09E0     		b	.L14
 106              	.LVL9:
 107              	.L11:
 108              		.loc 1 53 0
 109 001a 252B     		cmp	r3, #37
 110 001c 17D0     		beq	.L18
 111              		.loc 1 60 0
 112 001e 04F8013C 		strb	r3, [r4, #-1]
 113 0022 0546     		mov	r5, r0
ARM GAS  C:\Users\jo\AppData\Local\Temp\ccC33as4.s 			page 3


 114 0024 2246     		mov	r2, r4
 115              	.LVL10:
 116              	.L12:
 117              		.loc 1 50 0 discriminator 2
 118 0026 6B78     		ldrb	r3, [r5, #1]	@ zero_extendqisi2
 119 0028 0134     		adds	r4, r4, #1
 120 002a 681C     		adds	r0, r5, #1
 121              	.LVL11:
 122 002c 5BB1     		cbz	r3, .L10
 123              	.L14:
 124              	.LVL12:
 125              		.loc 1 51 0
 126 002e 2B2B     		cmp	r3, #43
 127 0030 F3D1     		bne	.L11
 128              		.loc 1 52 0
 129 0032 2023     		movs	r3, #32
 130 0034 0546     		mov	r5, r0
 131 0036 04F8013C 		strb	r3, [r4, #-1]
 132              		.loc 1 50 0
 133 003a 6B78     		ldrb	r3, [r5, #1]	@ zero_extendqisi2
 134              		.loc 1 52 0
 135 003c 2246     		mov	r2, r4
 136              	.LVL13:
 137              		.loc 1 50 0
 138 003e 681C     		adds	r0, r5, #1
 139              	.LVL14:
 140 0040 0134     		adds	r4, r4, #1
 141 0042 002B     		cmp	r3, #0
 142 0044 F3D1     		bne	.L14
 143              	.L10:
 144              		.loc 1 62 0
 145 0046 0023     		movs	r3, #0
 146 0048 1370     		strb	r3, [r2]
 147              		.loc 1 63 0
 148 004a 03B0     		add	sp, sp, #12
 149              		.cfi_remember_state
 150              		.cfi_def_cfa_offset 12
 151              		@ sp needed
 152 004c 30BD     		pop	{r4, r5, pc}
 153              	.LVL15:
 154              	.L18:
 155              		.cfi_restore_state
 156              		.loc 1 55 0
 157 004e 0546     		mov	r5, r0
 158              		.loc 1 54 0
 159 0050 4278     		ldrb	r2, [r0, #1]	@ zero_extendqisi2
 160              		.loc 1 55 0
 161 0052 15F8023F 		ldrb	r3, [r5, #2]!	@ zero_extendqisi2
 162              		.loc 1 54 0
 163 0056 8DF80420 		strb	r2, [sp, #4]
 164              		.loc 1 56 0
 165 005a 01A8     		add	r0, sp, #4
 166              	.LVL16:
 167 005c 1022     		movs	r2, #16
 168 005e 0021     		movs	r1, #0
 169              		.loc 1 55 0
 170 0060 8DF80530 		strb	r3, [sp, #5]
ARM GAS  C:\Users\jo\AppData\Local\Temp\ccC33as4.s 			page 4


 171              		.loc 1 56 0
 172 0064 FFF7FEFF 		bl	strtol
 173              	.LVL17:
 174              		.loc 1 57 0
 175 0068 2246     		mov	r2, r4
 176              	.LVL18:
 177              		.loc 1 56 0
 178 006a 04F8010C 		strb	r0, [r4, #-1]
 179              	.LVL19:
 180 006e DAE7     		b	.L12
 181              	.LVL20:
 182              	.L15:
 183              		.loc 1 50 0
 184 0070 0246     		mov	r2, r0
 185 0072 E8E7     		b	.L10
 186              		.cfi_endproc
 187              	.LFE0:
 188              		.size	HttpUrlUnescape, .-HttpUrlUnescape
 189 0074 AFF30080 		.section	.text.UriUnescape,"ax",%progbits
 189      AFF30080 
 189      AFF30080 
 190              		.align	2
 191              		.p2align 4,,15
 192              		.global	UriUnescape
 193              		.thumb
 194              		.thumb_func
 195              		.type	UriUnescape, %function
 196              	UriUnescape:
 197              	.LFB2:
 198              		.loc 1 77 0
 199              		.cfi_startproc
 200              		@ args = 0, pretend = 0, frame = 0
 201              		@ frame_needed = 0, uses_anonymous_args = 0
 202              	.LVL21:
 203 0000 2DE9F047 		push	{r4, r5, r6, r7, r8, r9, r10, lr}
 204              		.cfi_def_cfa_offset 32
 205              		.cfi_offset 4, -32
 206              		.cfi_offset 5, -28
 207              		.cfi_offset 6, -24
 208              		.cfi_offset 7, -20
 209              		.cfi_offset 8, -16
 210              		.cfi_offset 9, -12
 211              		.cfi_offset 10, -8
 212              		.cfi_offset 14, -4
 213              		.loc 1 82 0
 214 0004 0778     		ldrb	r7, [r0]	@ zero_extendqisi2
 215              	.LVL22:
 216              		.loc 1 84 0
 217 0006 2F2F     		cmp	r7, #47
 218 0008 48D1     		bne	.L29
 219 000a 0546     		mov	r5, r0
 220              		.loc 1 95 0
 221 000c 3E46     		mov	r6, r7
 222 000e 8146     		mov	r9, r0
 223 0010 0446     		mov	r4, r0
 224              	.LVL23:
 225              	.L21:
ARM GAS  C:\Users\jo\AppData\Local\Temp\ccC33as4.s 			page 5


 226              		.loc 1 86 0
 227 0012 6378     		ldrb	r3, [r4, #1]	@ zero_extendqisi2
 228 0014 04F10108 		add	r8, r4, #1
 229              	.LVL24:
 230 0018 9BB1     		cbz	r3, .L28
 231              	.L27:
 232              		.loc 1 87 0
 233 001a 252B     		cmp	r3, #37
 234 001c 1CD0     		beq	.L35
 235              		.loc 1 94 0
 236 001e 5C2B     		cmp	r3, #92
 237 0020 2FD0     		beq	.L36
 238              	.L24:
 239              		.loc 1 96 0
 240 0022 A7F12E02 		sub	r2, r7, #46
 241 0026 D2B2     		uxtb	r2, r2
 242 0028 012A     		cmp	r2, #1
 243 002a 4446     		mov	r4, r8
 244 002c 0FD9     		bls	.L37
 245              	.LVL25:
 246              	.L31:
 247 002e 1F46     		mov	r7, r3
 248              	.LVL26:
 249              	.L25:
 250              		.loc 1 97 0
 251 0030 89F80070 		strb	r7, [r9]
 252              		.loc 1 86 0
 253 0034 6378     		ldrb	r3, [r4, #1]	@ zero_extendqisi2
 254              		.loc 1 97 0
 255 0036 09F10109 		add	r9, r9, #1
 256              	.LVL27:
 257              		.loc 1 86 0
 258 003a 04F10108 		add	r8, r4, #1
 259              	.LVL28:
 260 003e 002B     		cmp	r3, #0
 261 0040 EBD1     		bne	.L27
 262              	.L28:
 263              		.loc 1 100 0
 264 0042 0023     		movs	r3, #0
 265 0044 89F80030 		strb	r3, [r9]
 266              		.loc 1 102 0
 267 0048 2846     		mov	r0, r5
 268 004a BDE8F087 		pop	{r4, r5, r6, r7, r8, r9, r10, pc}
 269              	.LVL29:
 270              	.L37:
 271              		.loc 1 96 0 discriminator 1
 272 004e A3F12E02 		sub	r2, r3, #46
 273 0052 012A     		cmp	r2, #1
 274 0054 EBD8     		bhi	.L31
 275 0056 DCE7     		b	.L21
 276              	.LVL30:
 277              	.L35:
 278              		.loc 1 87 0 discriminator 1
 279 0058 A078     		ldrb	r0, [r4, #2]	@ zero_extendqisi2
 280 005a FFF7FEFF 		bl	DecodeHex
 281              	.LVL31:
 282 005e B0F1000A 		subs	r10, r0, #0
ARM GAS  C:\Users\jo\AppData\Local\Temp\ccC33as4.s 			page 6


 283 0062 18DB     		blt	.L23
 284              		.loc 1 88 0
 285 0064 E078     		ldrb	r0, [r4, #3]	@ zero_extendqisi2
 286              	.LVL32:
 287 0066 FFF7FEFF 		bl	DecodeHex
 288              	.LVL33:
 289 006a 0028     		cmp	r0, #0
 290 006c 13DB     		blt	.L23
 291              	.LVL34:
 292              		.loc 1 91 0
 293 006e 00EB0A13 		add	r3, r0, r10, lsl #4
 294 0072 DBB2     		uxtb	r3, r3
 295 0074 E370     		strb	r3, [r4, #3]
 296              		.loc 1 90 0
 297 0076 04F10308 		add	r8, r4, #3
 298              	.LVL35:
 299              		.loc 1 91 0
 300 007a 002B     		cmp	r3, #0
 301 007c E1D0     		beq	.L28
 302              		.loc 1 94 0
 303 007e 5C2B     		cmp	r3, #92
 304 0080 CFD1     		bne	.L24
 305              	.LVL36:
 306              	.L36:
 307              		.loc 1 96 0
 308 0082 A7F12E03 		sub	r3, r7, #46
 309 0086 DBB2     		uxtb	r3, r3
 310 0088 012B     		cmp	r3, #1
 311              		.loc 1 95 0
 312 008a 88F80060 		strb	r6, [r8]
 313              		.loc 1 96 0
 314 008e 4446     		mov	r4, r8
 315 0090 BFD9     		bls	.L21
 316              	.LVL37:
 317 0092 2F27     		movs	r7, #47
 318              	.LVL38:
 319 0094 CCE7     		b	.L25
 320              	.LVL39:
 321              	.L23:
 322 0096 4446     		mov	r4, r8
 323 0098 2527     		movs	r7, #37
 324              	.LVL40:
 325 009a C9E7     		b	.L25
 326              	.LVL41:
 327              	.L29:
 328              		.loc 1 85 0
 329 009c 0020     		movs	r0, #0
 330              	.LVL42:
 331 009e BDE8F087 		pop	{r4, r5, r6, r7, r8, r9, r10, pc}
 332              		.cfi_endproc
 333              	.LFE2:
 334              		.size	UriUnescape, .-UriUnescape
 335 00a2 00BFAFF3 		.section	.text.HttpDecodeBase64,"ax",%progbits
 335      0080AFF3 
 335      0080AFF3 
 335      0080
 336              		.align	2
ARM GAS  C:\Users\jo\AppData\Local\Temp\ccC33as4.s 			page 7


 337              		.p2align 4,,15
 338              		.global	HttpDecodeBase64
 339              		.thumb
 340              		.thumb_func
 341              		.type	HttpDecodeBase64, %function
 342              	HttpDecodeBase64:
 343              	.LFB3:
 344              		.loc 1 115 0
 345              		.cfi_startproc
 346              		@ args = 0, pretend = 0, frame = 0
 347              		@ frame_needed = 0, uses_anonymous_args = 0
 348              		@ link register save eliminated.
 349              	.LVL43:
 350              		.loc 1 122 0
 351 0000 0378     		ldrb	r3, [r0]	@ zero_extendqisi2
 352              		.loc 1 115 0
 353 0002 F0B4     		push	{r4, r5, r6, r7}
 354              		.cfi_def_cfa_offset 16
 355              		.cfi_offset 4, -16
 356              		.cfi_offset 5, -12
 357              		.cfi_offset 6, -8
 358              		.cfi_offset 7, -4
 359              		.loc 1 122 0
 360 0004 002B     		cmp	r3, #0
 361 0006 3AD0     		beq	.L46
 362              		.loc 1 125 0
 363 0008 1E4D     		ldr	r5, .L53
 364              		.loc 1 122 0
 365 000a 0646     		mov	r6, r0
 366 000c 0246     		mov	r2, r0
 367 000e 0021     		movs	r1, #0
 368 0010 FF27     		movs	r7, #255
 369 0012 0AE0     		b	.L45
 370              	.LVL44:
 371              	.L52:
 372              		.loc 1 127 0
 373 0014 0329     		cmp	r1, #3
 374 0016 01F10104 		add	r4, r1, #1
 375 001a 20D0     		beq	.L43
 376 001c 0129     		cmp	r1, #1
 377 001e 25D0     		beq	.L44
 378 0020 E1B2     		uxtb	r1, r4
 379              	.LVL45:
 380 0022 1F46     		mov	r7, r3
 381              	.LVL46:
 382              	.L40:
 383              		.loc 1 122 0 discriminator 2
 384 0024 12F8013F 		ldrb	r3, [r2, #1]!	@ zero_extendqisi2
 385              	.LVL47:
 386 0028 ABB1     		cbz	r3, .L39
 387              	.LVL48:
 388              	.L45:
 389              		.loc 1 123 0
 390 002a 1F2B     		cmp	r3, #31
 391              		.loc 1 125 0
 392 002c 05EB0304 		add	r4, r5, r3
 393              		.loc 1 123 0
ARM GAS  C:\Users\jo\AppData\Local\Temp\ccC33as4.s 			page 8


 394 0030 F8D9     		bls	.L40
 395              	.LVL49:
 396              		.loc 1 125 0
 397 0032 14F8203C 		ldrb	r3, [r4, #-32]	@ zero_extendqisi2
 398              	.LVL50:
 399 0036 FF2B     		cmp	r3, #255
 400 0038 F4D0     		beq	.L40
 401              		.loc 1 127 0
 402 003a 0229     		cmp	r1, #2
 403 003c EAD1     		bne	.L52
 404              	.LVL51:
 405              		.loc 1 132 0
 406 003e C3F38301 		ubfx	r1, r3, #2, #4
 407              	.LVL52:
 408 0042 41EA0717 		orr	r7, r1, r7, lsl #4
 409              	.LVL53:
 410 0046 3770     		strb	r7, [r6]
 411              		.loc 1 133 0
 412 0048 1F46     		mov	r7, r3
 413              		.loc 1 122 0
 414 004a 12F8013F 		ldrb	r3, [r2, #1]!	@ zero_extendqisi2
 415              	.LVL54:
 416              		.loc 1 132 0
 417 004e 0136     		adds	r6, r6, #1
 418              	.LVL55:
 419              		.loc 1 133 0
 420 0050 0321     		movs	r1, #3
 421              	.LVL56:
 422              		.loc 1 122 0
 423 0052 002B     		cmp	r3, #0
 424 0054 E9D1     		bne	.L45
 425              	.LVL57:
 426              	.L39:
 427              		.loc 1 141 0
 428 0056 0023     		movs	r3, #0
 429 0058 3370     		strb	r3, [r6]
 430              		.loc 1 143 0
 431 005a F0BC     		pop	{r4, r5, r6, r7}
 432              		.cfi_remember_state
 433              		.cfi_restore 7
 434              		.cfi_restore 6
 435              		.cfi_restore 5
 436              		.cfi_restore 4
 437              		.cfi_def_cfa_offset 0
 438              	.LVL58:
 439 005c 7047     		bx	lr
 440              	.LVL59:
 441              	.L43:
 442              		.cfi_restore_state
 443              		.loc 1 135 0
 444 005e 43EA8717 		orr	r7, r3, r7, lsl #6
 445              	.LVL60:
 446 0062 3770     		strb	r7, [r6]
 447              	.LVL61:
 448              		.loc 1 136 0
 449 0064 0021     		movs	r1, #0
 450              		.loc 1 137 0
ARM GAS  C:\Users\jo\AppData\Local\Temp\ccC33as4.s 			page 9


 451 0066 1F46     		mov	r7, r3
 452              		.loc 1 135 0
 453 0068 0136     		adds	r6, r6, #1
 454              	.LVL62:
 455              		.loc 1 137 0
 456 006a DBE7     		b	.L40
 457              	.LVL63:
 458              	.L44:
 459              		.loc 1 129 0
 460 006c C3F30111 		ubfx	r1, r3, #4, #2
 461              	.LVL64:
 462 0070 41EA8707 		orr	r7, r1, r7, lsl #2
 463              	.LVL65:
 464 0074 3770     		strb	r7, [r6]
 465              		.loc 1 130 0
 466 0076 0221     		movs	r1, #2
 467 0078 1F46     		mov	r7, r3
 468              		.loc 1 129 0
 469 007a 0136     		adds	r6, r6, #1
 470              	.LVL66:
 471              		.loc 1 130 0
 472 007c D2E7     		b	.L40
 473              	.LVL67:
 474              	.L46:
 475              		.loc 1 122 0
 476 007e 0646     		mov	r6, r0
 477 0080 E9E7     		b	.L39
 478              	.L54:
 479 0082 00BF     		.align	2
 480              	.L53:
 481 0084 00000000 		.word	.LANCHOR0
 482              		.cfi_endproc
 483              	.LFE3:
 484              		.size	HttpDecodeBase64, .-HttpDecodeBase64
 485 0088 AFF30080 		.section	.text.AllocConcatStrings,"ax",%progbits
 485      AFF30080 
 486              		.align	2
 487              		.p2align 4,,15
 488              		.global	AllocConcatStrings
 489              		.thumb
 490              		.thumb_func
 491              		.type	AllocConcatStrings, %function
 492              	AllocConcatStrings:
 493              	.LFB4:
 494              		.loc 1 146 0
 495              		.cfi_startproc
 496              		@ args = 4, pretend = 16, frame = 8
 497              		@ frame_needed = 0, uses_anonymous_args = 1
 498              	.LVL68:
 499 0000 0FB4     		push	{r0, r1, r2, r3}
 500              		.cfi_def_cfa_offset 16
 501              		.cfi_offset 0, -16
 502              		.cfi_offset 1, -12
 503              		.cfi_offset 2, -8
 504              		.cfi_offset 3, -4
 505 0002 F0B5     		push	{r4, r5, r6, r7, lr}
 506              		.cfi_def_cfa_offset 36
ARM GAS  C:\Users\jo\AppData\Local\Temp\ccC33as4.s 			page 10


 507              		.cfi_offset 4, -36
 508              		.cfi_offset 5, -32
 509              		.cfi_offset 6, -28
 510              		.cfi_offset 7, -24
 511              		.cfi_offset 14, -20
 512 0004 83B0     		sub	sp, sp, #12
 513              		.cfi_def_cfa_offset 48
 514              		.loc 1 146 0
 515 0006 08AE     		add	r6, sp, #32
 516 0008 56F8047B 		ldr	r7, [r6], #4
 517              		.loc 1 152 0
 518 000c 0196     		str	r6, [sp, #4]
 519              		.loc 1 153 0
 520 000e 3846     		mov	r0, r7
 521 0010 FFF7FEFF 		bl	strlen
 522              	.LVL69:
 523 0014 099B     		ldr	r3, [sp, #36]
 524 0016 341D     		adds	r4, r6, #4
 525 0018 0546     		mov	r5, r0
 526              	.LVL70:
 527 001a 0194     		str	r4, [sp, #4]
 528 001c 4BB1     		cbz	r3, .L56
 529              	.LVL71:
 530              	.L57:
 531              		.loc 1 153 0 is_stmt 0 discriminator 3
 532 001e 1846     		mov	r0, r3
 533 0020 0434     		adds	r4, r4, #4
 534 0022 FFF7FEFF 		bl	strlen
 535              	.LVL72:
 536 0026 54F8043C 		ldr	r3, [r4, #-4]
 537 002a 0194     		str	r4, [sp, #4]
 538 002c 0544     		add	r5, r5, r0
 539              	.LVL73:
 540 002e 002B     		cmp	r3, #0
 541 0030 F5D1     		bne	.L57
 542              	.LVL74:
 543              	.L56:
 544              		.loc 1 155 0 is_stmt 1
 545 0032 681C     		adds	r0, r5, #1
 546 0034 FFF7FEFF 		bl	malloc
 547              	.LVL75:
 548              		.loc 1 156 0
 549 0038 0546     		mov	r5, r0
 550 003a 88B1     		cbz	r0, .L58
 551              		.loc 1 158 0
 552 003c 3946     		mov	r1, r7
 553              		.loc 1 157 0
 554 003e 0196     		str	r6, [sp, #4]
 555              		.loc 1 158 0
 556 0040 FFF7FEFF 		bl	strcpy
 557              	.LVL76:
 558 0044 019C     		ldr	r4, [sp, #4]
 559 0046 2168     		ldr	r1, [r4]
 560              	.LVL77:
 561 0048 0434     		adds	r4, r4, #4
 562 004a 0194     		str	r4, [sp, #4]
 563 004c 41B1     		cbz	r1, .L58
ARM GAS  C:\Users\jo\AppData\Local\Temp\ccC33as4.s 			page 11


 564              	.L60:
 565              		.loc 1 158 0 is_stmt 0 discriminator 3
 566 004e 0434     		adds	r4, r4, #4
 567 0050 2846     		mov	r0, r5
 568 0052 FFF7FEFF 		bl	strcat
 569              	.LVL78:
 570 0056 54F8041C 		ldr	r1, [r4, #-4]
 571              	.LVL79:
 572 005a 0194     		str	r4, [sp, #4]
 573 005c 0029     		cmp	r1, #0
 574 005e F6D1     		bne	.L60
 575              	.LVL80:
 576              	.L58:
 577              		.loc 1 162 0 is_stmt 1
 578 0060 2846     		mov	r0, r5
 579 0062 03B0     		add	sp, sp, #12
 580              		.cfi_def_cfa_offset 36
 581              		@ sp needed
 582 0064 BDE8F040 		pop	{r4, r5, r6, r7, lr}
 583              		.cfi_restore 14
 584              		.cfi_restore 7
 585              		.cfi_restore 6
 586              		.cfi_restore 5
 587              		.cfi_restore 4
 588              		.cfi_def_cfa_offset 16
 589              	.LVL81:
 590 0068 04B0     		add	sp, sp, #16
 591              		.cfi_restore 3
 592              		.cfi_restore 2
 593              		.cfi_restore 1
 594              		.cfi_restore 0
 595              		.cfi_def_cfa_offset 0
 596 006a 7047     		bx	lr
 597              		.cfi_endproc
 598              	.LFE4:
 599              		.size	AllocConcatStrings, .-AllocConcatStrings
 600 006c AFF30080 		.section	.text.AllocConcatStringLen,"ax",%progbits
 601              		.align	2
 602              		.p2align 4,,15
 603              		.global	AllocConcatStringLen
 604              		.thumb
 605              		.thumb_func
 606              		.type	AllocConcatStringLen, %function
 607              	AllocConcatStringLen:
 608              	.LFB5:
 609              		.loc 1 165 0
 610              		.cfi_startproc
 611              		@ args = 0, pretend = 0, frame = 0
 612              		@ frame_needed = 0, uses_anonymous_args = 0
 613              	.LVL82:
 614 0000 2DE9F041 		push	{r4, r5, r6, r7, r8, lr}
 615              		.cfi_def_cfa_offset 24
 616              		.cfi_offset 4, -24
 617              		.cfi_offset 5, -20
 618              		.cfi_offset 6, -16
 619              		.cfi_offset 7, -12
 620              		.cfi_offset 8, -8
ARM GAS  C:\Users\jo\AppData\Local\Temp\ccC33as4.s 			page 12


 621              		.cfi_offset 14, -4
 622              		.loc 1 165 0
 623 0004 1546     		mov	r5, r2
 624 0006 0F46     		mov	r7, r1
 625 0008 8046     		mov	r8, r0
 626              		.loc 1 166 0
 627 000a FFF7FEFF 		bl	strlen
 628              	.LVL83:
 629 000e 0446     		mov	r4, r0
 630              	.LVL84:
 631              		.loc 1 167 0
 632 0010 2844     		add	r0, r0, r5
 633              	.LVL85:
 634 0012 0130     		adds	r0, r0, #1
 635 0014 FFF7FEFF 		bl	malloc
 636              	.LVL86:
 637              		.loc 1 169 0
 638 0018 0646     		mov	r6, r0
 639 001a 58B1     		cbz	r0, .L72
 640              		.loc 1 170 0
 641 001c 621C     		adds	r2, r4, #1
 642 001e 4146     		mov	r1, r8
 643              		.loc 1 171 0
 644 0020 0444     		add	r4, r4, r0
 645              	.LVL87:
 646              		.loc 1 170 0
 647 0022 FFF7FEFF 		bl	memcpy
 648              	.LVL88:
 649              		.loc 1 171 0
 650 0026 3946     		mov	r1, r7
 651 0028 2046     		mov	r0, r4
 652 002a 2A46     		mov	r2, r5
 653 002c FFF7FEFF 		bl	strncpy
 654              	.LVL89:
 655              		.loc 1 172 0
 656 0030 0023     		movs	r3, #0
 657 0032 6355     		strb	r3, [r4, r5]
 658              	.L72:
 659              		.loc 1 175 0
 660 0034 3046     		mov	r0, r6
 661 0036 BDE8F081 		pop	{r4, r5, r6, r7, r8, pc}
 662              		.cfi_endproc
 663              	.LFE5:
 664              		.size	AllocConcatStringLen, .-AllocConcatStringLen
 665 003a 00BFAFF3 		.section	.rodata.base64dtab,"a",%progbits
 665      0080
 666              		.align	2
 667              		.set	.LANCHOR0,. + 0
 668              		.type	base64dtab, %object
 669              		.size	base64dtab, 96
 670              	base64dtab:
 671 0000 FF       		.byte	-1
 672 0001 FF       		.byte	-1
 673 0002 FF       		.byte	-1
 674 0003 FF       		.byte	-1
 675 0004 FF       		.byte	-1
 676 0005 FF       		.byte	-1
ARM GAS  C:\Users\jo\AppData\Local\Temp\ccC33as4.s 			page 13


 677 0006 FF       		.byte	-1
 678 0007 FF       		.byte	-1
 679 0008 FF       		.byte	-1
 680 0009 FF       		.byte	-1
 681 000a FF       		.byte	-1
 682 000b 3E       		.byte	62
 683 000c FF       		.byte	-1
 684 000d FF       		.byte	-1
 685 000e FF       		.byte	-1
 686 000f 3F       		.byte	63
 687 0010 34       		.byte	52
 688 0011 35       		.byte	53
 689 0012 36       		.byte	54
 690 0013 37       		.byte	55
 691 0014 38       		.byte	56
 692 0015 39       		.byte	57
 693 0016 3A       		.byte	58
 694 0017 3B       		.byte	59
 695 0018 3C       		.byte	60
 696 0019 3D       		.byte	61
 697 001a FF       		.byte	-1
 698 001b FF       		.byte	-1
 699 001c FF       		.byte	-1
 700 001d FF       		.byte	-1
 701 001e FF       		.byte	-1
 702 001f FF       		.byte	-1
 703 0020 FF       		.byte	-1
 704 0021 00       		.byte	0
 705 0022 01       		.byte	1
 706 0023 02       		.byte	2
 707 0024 03       		.byte	3
 708 0025 04       		.byte	4
 709 0026 05       		.byte	5
 710 0027 06       		.byte	6
 711 0028 07       		.byte	7
 712 0029 08       		.byte	8
 713 002a 09       		.byte	9
 714 002b 0A       		.byte	10
 715 002c 0B       		.byte	11
 716 002d 0C       		.byte	12
 717 002e 0D       		.byte	13
 718 002f 0E       		.byte	14
 719 0030 0F       		.byte	15
 720 0031 10       		.byte	16
 721 0032 11       		.byte	17
 722 0033 12       		.byte	18
 723 0034 13       		.byte	19
 724 0035 14       		.byte	20
 725 0036 15       		.byte	21
 726 0037 16       		.byte	22
 727 0038 17       		.byte	23
 728 0039 18       		.byte	24
 729 003a 19       		.byte	25
 730 003b FF       		.byte	-1
 731 003c FF       		.byte	-1
 732 003d FF       		.byte	-1
 733 003e FF       		.byte	-1
ARM GAS  C:\Users\jo\AppData\Local\Temp\ccC33as4.s 			page 14


 734 003f FF       		.byte	-1
 735 0040 FF       		.byte	-1
 736 0041 1A       		.byte	26
 737 0042 1B       		.byte	27
 738 0043 1C       		.byte	28
 739 0044 1D       		.byte	29
 740 0045 1E       		.byte	30
 741 0046 1F       		.byte	31
 742 0047 20       		.byte	32
 743 0048 21       		.byte	33
 744 0049 22       		.byte	34
 745 004a 23       		.byte	35
 746 004b 24       		.byte	36
 747 004c 25       		.byte	37
 748 004d 26       		.byte	38
 749 004e 27       		.byte	39
 750 004f 28       		.byte	40
 751 0050 29       		.byte	41
 752 0051 2A       		.byte	42
 753 0052 2B       		.byte	43
 754 0053 2C       		.byte	44
 755 0054 2D       		.byte	45
 756 0055 2E       		.byte	46
 757 0056 2F       		.byte	47
 758 0057 30       		.byte	48
 759 0058 31       		.byte	49
 760 0059 32       		.byte	50
 761 005a 33       		.byte	51
 762 005b FF       		.byte	-1
 763 005c FF       		.byte	-1
 764 005d FF       		.byte	-1
 765 005e FF       		.byte	-1
 766 005f FF       		.byte	-1
 767              		.text
 768              	.Letext0:
 769              		.file 2 "c:\\program files\\gnu tools arm embedded\\4.9 2014q4\\lib\\gcc\\arm-none-eabi\\4.9.3\\in
 770              		.file 3 "c:\\program files\\gnu tools arm embedded\\4.9 2014q4\\lib\\gcc\\arm-none-eabi\\4.9.3\\in
 771              		.file 4 "c:\\program files\\gnu tools arm embedded\\4.9 2014q4\\arm-none-eabi\\include\\stdlib.h"
 772              		.file 5 "c:\\program files\\gnu tools arm embedded\\4.9 2014q4\\arm-none-eabi\\include\\string.h"
 773              		.file 6 "<built-in>"